1	C:\wlua_dump\path\Lotus\Types\Enemies\Corpus\DropshipDropshipActions.lua
Pos   Hex Data           Description or Code
------------------------------------------------------------------------
0000                     ** source chunk: C:\wlua_dump\path\Lotus\Types\Enemies\Corpus\DropshipDropshipActions.lua
                         ** global header start **
0000  7F                 header signature: ""
0001  00                 version (major:minor hex digits)
0002  00                 format (0=official)
0003  00                 endianness (1=little endian)
0004  00                 size of int (bytes)
0005  00                 size of size_t (bytes)
0006  02                 size of Instruction (bytes)
0007  1A                 size of number (bytes)
0008  A0                 integral (1=integral)
4160
                         * number type: single
                         * x86 standard (32-bit, little endian, doubles)
                         ** global header end **
Wave
SpawningStage
DropshipSpawnCount
AmbulasEvent
Lotus_Game
MT_DEFENSE
MT_SURVIVAL
MT_EXCAVATE
MT_TERRITORY
/Lotus/Types/Enemies/Corpus/Vip/Ambulas/AmbulasPackAgent
Lotus.Scripts.Libs.TransmissionSet
Lotus.Interface.LotusUtilities
Lotus.Scripts.Libs.CommonGamemodeFunctions
IncrementDropshipCount
Start
DropshipEntry
DropShipScaleEnter
DropShipMoverScaleEnter
DropshipDrop
DropshipExit
DropShipScaleExit
DropShipMoverScaleExit
DropShipMoverRandomizer
DropshipRemoval
DropshipEventEvaluate
DropshipEvent
AmbulasSpawnChecker
AmbulasKilledByTennoTransmission
AmbulasKillingTennoTransmissionLoop
AmbulasPreDeathTransmissionStart
AmbulasArmourPieceDestroyedTransmission
CombatDropshipEventEvaluate
CombatDropshipEvent
TestRegisterWaypoints
SimpleSpawnOverrideAgent
_T
InSimulacrum
AmbulasEventActive
gPlayerProfileMgr
mGoals
Engine
mActivation
mExpiry
mTag
_T
gActiveDropshipCount
_T
gActiveDropshipCount
Possible Dropship breakage (if not preceded by Host Migration)! Expecting non-nil gActiveDropshipCount but it is nil!
Error! Attempting to decrement active Dropship count but the counter is < 1!
gRegion
Corpus Dropship avatar not found from behavior! Canceling DropshipEntry()...
Dropship entering. Avatar: 
spawnEffect
EMPTY_SYMBOL
gDropshipAvatarType
hunterCloseByScale
hunterFarAwayScale
/Lotus/Sounds/Ambience/CorpusGasCity/GameplayRemaster/GasCitySpaceFighter/GasCitySpaceFighterApproachSeq
hunterResizeTime
HackPanel
Corpus Dropship stopping at waypoint
EndLoop
_T
SpawnLibRegisterAgent
gLotusNpcAvatarType
gAutoTurretAvatarType
Ambulas
ambulasEventTransmissionSet
AmbulasDropped
gRegion
CrpDropShipDepart
Dropship exiting. Avatar: 
gRegion
Game
AVATAR_MOVEMENT_SPEED
MULTIPLY
exitEffect
hunterResizeTime
gDropshipAvatarType
hunterCloseByScale
hunterFarAwayScale
hunterResizeTime
gDropshipAvatarType
gRegion
FighterShipSideways
hunterShipShallReturn
FighterShipForward
FighterShipBackward
Hide
FIGHTER_END
Effects
gParticleSysType
GAME_C1_ROOT
Start
Show
gGameRules
gRegion
_T
DropshipNextEventTime
dropshipSym
Lotus_Game
MT_ENDLESS_EXTERMINATION
MT_EXTERMINATION
MaxEnemyCount
MT_DEFENSE
DropshipLastDefenseWaveSpawned
MT_TERRITORY
gRegion
gGameRules
dropshipSym
DropshipTeam
Engine
STANDARD
dropshipPatrolRoute
ERROR: Null patrol route detected on spawning the Dropship; this will cause an idling Dropship at the edge of the map
ambulasWeakType
gRegion
gGameRules
ambulasEventTransmissionSet
DropshipSpawned
nonEventAmbulasSpawnChance
location
region
nonEventAmbulasAreasIdx
_T
AmbulasSpawnLastAgentLevel
minEnemyLevel
ambulasPerAppearanceLevelIncrementMin
ambulasPerAppearanceLevelIncrementMax
ambulasEventTransmissionSet
ambulasHackedFx
HackedAmbulasKilled
_T
AmbulasKilledPlayerTransmissionPlayedTime
gRegion
ambulasEventTransmissionSet
ambulasKilledPlayerTransmissionDelay
ambulasKilledPlayerTransmissionRange
TennoKilled
_T
InSimulacrum
ambulasEventTransmissionSet
gGameRules
vipAgent
AmbulasHackOrders
AmbulasBossPreDeath
AmbulasPreDeath
gRegion
ambulasEventTransmissionSet
_T
InSimulacrum
AmbulasHurtTransmissionPlayedTime
gGameRules
vipAgent
AmbulasHurt
_T
HunterShipCountLeft
DropshipNextEventTime
gRegion
gGameRules
Lotus_Game
MT_ENDLESS_EXTERMINATION
MT_EXTERMINATION
MaxEnemyCount
MT_TERRITORY
MT_RESCUE
MT_INTEL
MT_LANDSCAPE
Why are we evaluating this in a Landscape mission?! EventScriptTriggers can't handle it that great just yet!
gRegion
DropshipTeam
Engine
STANDARD
ERROR: Null patrol route detected on spawning the Dropship; this will cause an idling Dropship at the edge of the map
hunterShipOverwatchVolumePair
hunterShipOverwatchWaypointPair
gRegion
hunterFighterFirstAttachToInstance
DropshipTeam
Engine
STANDARD
EMPTY_SYMBOL
gRegion
gGameRules
Lotus_Game
MT_ASSASSINATION
hunterFighterFirstAttachToInstance
chanceToBeFighterTypeHunter
hunterShipOverwatchVolumePair
hunterFighterShipResourceSym
dropshipSym
dropshipPatrolRoute
hunterShipOverwatchVolumePair
hunterShipOverwatchWaypointPair
gRegion
spawnOverrideAgentCountMin
spawnOverrideAgentCountMax
spawnOverrideAgentType
                         
0001                     ** function [0] definition (level 1)
                         ** start of function **
0001  00                 string size (0)
                         source name: (none)
0002  00                 line defined (0)
0003  00                 last line defined (0)
0004  00                 nups (0)
0005  00                 numparams (0)
0006  02                 is_vararg (2)
0007  1A                 maxstacksize (26)
                         * code:
0009  01                 sizecode (160)
000A  1D000000           [001] getglobal  0   0        ; -332969190
000E  59400000           [002] loadk      1   1        ; "Wave"
0012  22800001           [003] call       0   2   2  
0016  5D000000           [004] getglobal  1   0        ; -332969190
001A  99800000           [005] loadk      2   2        ; "SpawningStage"
001E  62800001           [006] call       1   2   2  
0022  9D000000           [007] getglobal  2   0        ; -332969190
0026  D9C00000           [008] loadk      3   3        ; "DropshipSpawnCount"
002A  A2800001           [009] call       2   2   2  
002E  D9000100           [010] loadk      3   4        ; 0
0032  1D010000           [011] getglobal  4   0        ; -332969190
0036  59410100           [012] loadk      5   5        ; "AmbulasEvent"
003A  22810001           [013] call       4   2   2  
003E  4B010002           [014] newtable   5   4   0    ; array=4, hash=0
0042  9D810100           [015] getglobal  6   6        ; Lotus_Game
0046  8EC14103           [016] gettable   6   6   263  ; "MT_DEFENSE"
004A  DD810100           [017] getglobal  7   6        ; Lotus_Game
004E  CE01C203           [018] gettable   7   7   264  ; "MT_SURVIVAL"
0052  1D820100           [019] getglobal  8   6        ; Lotus_Game
0056  0E424204           [020] gettable   8   8   265  ; "MT_EXCAVATE"
005A  5D820100           [021] getglobal  9   6        ; Lotus_Game
005E  4E82C204           [022] gettable   9   9   266  ; "MT_TERRITORY"
0062  5B410002           [023] setlist    5   4   1    ; index 1 to 4
0066  99C10200           [024] loadk      6   11       ; 0
006A  D9010300           [025] loadk      7   12       ; 0
006E  19420300           [026] loadk      8   13       ; 0
0072  5D820300           [027] getglobal  9   14       ; 738251817
0076  99C20300           [028] loadk      10  15       ; "/Lotus/Types/Enemies/Corpus/Vip/Ambulas/AmbulasPackAgent"
007A  62820001           [029] call       9   2   2  
007E  9D020400           [030] getglobal  10  16       ; 849075268
0082  D9420400           [031] loadk      11  17       ; "Lotus.Scripts.Libs.TransmissionSet"
0086  A2820001           [032] call       10  2   2  
008A  DD020400           [033] getglobal  11  16       ; 849075268
008E  19830400           [034] loadk      12  18       ; "Lotus.Interface.LotusUtilities"
0092  E2820001           [035] call       11  2   2  
0096  1D030400           [036] getglobal  12  16       ; 849075268
009A  59C30400           [037] loadk      13  19       ; "Lotus.Scripts.Libs.CommonGamemodeFunctions"
009E  22830001           [038] call       12  2   2  
00A2  59030500           [039] loadk      13  20       ; 10
00A6  99430500           [040] loadk      14  21       ; 0
00AA  D9830500           [041] loadk      15  22       ; 0
00AE  19C40500           [042] loadk      16  23       ; 0
00B2  59040600           [043] loadk      17  24       ; 0
00B6  99440600           [044] loadk      18  25       ; 0
00BA  D9840600           [045] loadk      19  26       ; 0
00BE  25050000           [046] closure    20  0      
00C2  12000002           [047] move       0   4      
00C6  65450000           [048] closure    21  1      
00CA  60C50600           [049] setglobal  21  27       ; IncrementDropshipCount
00CE  60050700           [050] setglobal  21  28       ; 125531696
00D2  65850000           [051] closure    21  2      
00D6  A5C50000           [052] closure    22  3      
00DA  A0450700           [053] setglobal  22  29       ; Start
00DE  A0850700           [054] setglobal  22  30       ; 1868177976
00E2  A5050100           [055] closure    22  4      
00E6  A0C50700           [056] setglobal  22  31       ; DropshipEntry
00EA  A0050800           [057] setglobal  22  32       ; -1523434467
00EE  A5450100           [058] closure    22  5      
00F2  A0450800           [059] setglobal  22  33       ; DropShipScaleEnter
00F6  A0850800           [060] setglobal  22  34       ; 2060773965
00FA  A5850100           [061] closure    22  6      
00FE  A0C50800           [062] setglobal  22  35       ; DropShipMoverScaleEnter
0102  A0050900           [063] setglobal  22  36       ; -1632547045
0106  A5C50100           [064] closure    22  7      
010A  1200000A           [065] move       0   20     
010E  12000005           [066] move       0   10     
0112  A0450900           [067] setglobal  22  37       ; DropshipDrop
0116  A0850900           [068] setglobal  22  38       ; -809929766
011A  A5050200           [069] closure    22  8      
011E  A0C50900           [070] setglobal  22  39       ; DropshipExit
0122  A0050A00           [071] setglobal  22  40       ; -1606040778
0126  A5450200           [072] closure    22  9      
012A  A0450A00           [073] setglobal  22  41       ; DropShipScaleExit
012E  A0850A00           [074] setglobal  22  42       ; -1619675819
0132  A5850200           [075] closure    22  10     
0136  A0C50A00           [076] setglobal  22  43       ; DropShipMoverScaleExit
013A  A0050B00           [077] setglobal  22  44       ; 1844450337
013E  A5C50200           [078] closure    22  11     
0142  12008007           [079] move       0   15     
0146  12000008           [080] move       0   16     
014A  12000006           [081] move       0   12     
014E  12008006           [082] move       0   13     
0152  12000009           [083] move       0   18     
0156  12008009           [084] move       0   19     
015A  12008008           [085] move       0   17     
015E  12000007           [086] move       0   14     
0162  E5050300           [087] closure    23  12     
0166  1200000B           [088] move       0   22     
016A  E0450B00           [089] setglobal  23  45       ; DropShipMoverRandomizer
016E  E0850B00           [090] setglobal  23  46       ; -398744829
0172  E5450300           [091] closure    23  13     
0176  1200800A           [092] move       0   21     
017A  E0C50B00           [093] setglobal  23  47       ; DropshipRemoval
017E  E0050C00           [094] setglobal  23  48       ; 1458559243
0182  E5850300           [095] closure    23  14     
0186  12000001           [096] move       0   2      
018A  12008001           [097] move       0   3      
018E  12000003           [098] move       0   6      
0192  12008003           [099] move       0   7      
0196  12000004           [100] move       0   8      
019A  12008002           [101] move       0   5      
019E  12000000           [102] move       0   0      
01A2  12008000           [103] move       0   1      
01A6  E0450C00           [104] setglobal  23  49       ; DropshipEventEvaluate
01AA  E0850C00           [105] setglobal  23  50       ; -1216429185
01AE  E5C50300           [106] closure    23  15     
01B2  E0C50C00           [107] setglobal  23  51       ; DropshipEvent
01B6  E0050D00           [108] setglobal  23  52       ; -1928122347
01BA  E5050400           [109] closure    23  16     
01BE  12008002           [110] move       0   5      
01C2  1200000A           [111] move       0   20     
01C6  12000005           [112] move       0   10     
01CA  12008005           [113] move       0   11     
01CE  E0450D00           [114] setglobal  23  53       ; AmbulasSpawnChecker
01D2  E0850D00           [115] setglobal  23  54       ; -1638698176
01D6  E5450400           [116] closure    23  17     
01DA  1200000A           [117] move       0   20     
01DE  12000005           [118] move       0   10     
01E2  E0C50D00           [119] setglobal  23  55       ; AmbulasKilledByTennoTransmission
01E6  E0050E00           [120] setglobal  23  56       ; -1605116494
01EA  E5850400           [121] closure    23  18     
01EE  1200000A           [122] move       0   20     
01F2  12000005           [123] move       0   10     
01F6  E0450E00           [124] setglobal  23  57       ; AmbulasKillingTennoTransmissionLoop
01FA  E0850E00           [125] setglobal  23  58       ; 1038049490
01FE  E5C50400           [126] closure    23  19     
0202  12008005           [127] move       0   11     
0206  12008004           [128] move       0   9      
020A  12000005           [129] move       0   10     
020E  E0C50E00           [130] setglobal  23  59       ; AmbulasPreDeathTransmissionStart
0212  E0050F00           [131] setglobal  23  60       ; -924724530
0216  E5050500           [132] closure    23  20     
021A  1200000A           [133] move       0   20     
021E  12008005           [134] move       0   11     
0222  12008004           [135] move       0   9      
0226  12000005           [136] move       0   10     
022A  E0450F00           [137] setglobal  23  61       ; AmbulasArmourPieceDestroyedTransmission
022E  E0850F00           [138] setglobal  23  62       ; 2116324567
0232  E5450500           [139] closure    23  21     
0236  12008002           [140] move       0   5      
023A  12008000           [141] move       0   1      
023E  12000003           [142] move       0   6      
0242  12008003           [143] move       0   7      
0246  E0C50F00           [144] setglobal  23  63       ; CombatDropshipEventEvaluate
024A  E0051000           [145] setglobal  23  64       ; -830446050
024E  E5850500           [146] closure    23  22     
0252  25C60500           [147] closure    24  23     
0256  1200000B           [148] move       0   22     
025A  65060600           [149] closure    25  24     
025E  1200000C           [150] move       0   24     
0262  1200800B           [151] move       0   23     
0266  60461000           [152] setglobal  25  65       ; CombatDropshipEvent
026A  60861000           [153] setglobal  25  66       ; -1968639117
026E  65460600           [154] closure    25  25     
0272  60C61000           [155] setglobal  25  67       ; TestRegisterWaypoints
0276  60061100           [156] setglobal  25  68       ; 628676973
027A  65860600           [157] closure    25  26     
027E  60461100           [158] setglobal  25  69       ; SimpleSpawnOverrideAgent
0282  60861100           [159] setglobal  25  70       ; -473068567
0286  1E008000           [160] return     0   1      
                         * constants:
028A  47                 sizek (71)
028B  01                 const type 3
028C  1A4B27EC           const [0]: (-332969190)
0290  04                 const type 4
0291  05                 string size (5)
0292  5761766500         "Wave\0"
                         const [1]: "Wave"
0297  04                 const type 4
0298  0E                 string size (14)
0299  537061776E696E67+  "Spawning"
02A1  537461676500       "Stage\0"
                         const [2]: "SpawningStage"
02A7  04                 const type 4
02A8  13                 string size (19)
02A9  44726F7073686970+  "Dropship"
02B1  537061776E436F75+  "SpawnCou"
02B9  6E7400             "nt\0"
                         const [3]: "DropshipSpawnCount"
02BC  03                 const type 3
02BD  0000004F           const [4]: (0)
02C1  04                 const type 4
02C2  0D                 string size (13)
02C3  416D62756C617345+  "AmbulasE"
02CB  76656E7400         "vent\0"
                         const [5]: "AmbulasEvent"
02D0  04                 const type 4
02D1  0B                 string size (11)
02D2  4C6F7475735F4761+  "Lotus_Ga"
02DA  6D6500             "me\0"
                         const [6]: "Lotus_Game"
02DD  04                 const type 4
02DE  0B                 string size (11)
02DF  4D545F444546454E+  "MT_DEFEN"
02E7  534500             "SE\0"
                         const [7]: "MT_DEFENSE"
02EA  04                 const type 4
02EB  0C                 string size (12)
02EC  4D545F5355525649+  "MT_SURVI"
02F4  56414C00           "VAL\0"
                         const [8]: "MT_SURVIVAL"
02F8  04                 const type 4
02F9  0C                 string size (12)
02FA  4D545F4558434156+  "MT_EXCAV"
0302  41544500           "ATE\0"
                         const [9]: "MT_EXCAVATE"
0306  04                 const type 4
0307  0D                 string size (13)
0308  4D545F5445525249+  "MT_TERRI"
0310  544F525900         "TORY\0"
                         const [10]: "MT_TERRITORY"
0315  03                 const type 3
0316  00003443           const [11]: (0)
031A  03                 const type 3
031B  00009643           const [12]: (0)
031F  03                 const type 3
0320  00001041           const [13]: (0)
0324  01                 const type 3
0325  29D4002C           const [14]: (738251817)
0329  04                 const type 4
032A  39                 string size (57)
032B  2F4C6F7475732F54+  "/Lotus/T"
0333  797065732F456E65+  "ypes/Ene"
033B  6D6965732F436F72+  "mies/Cor"
0343  7075732F5669702F+  "pus/Vip/"
034B  416D62756C61732F+  "Ambulas/"
0353  416D62756C617350+  "AmbulasP"
035B  61636B4167656E74+  "ackAgent"
0363  00                 "\0"
                         const [15]: "/Lotus/Types/Enemies/Corpus/Vip/Ambulas/AmbulasPackAgent"
0364  01                 const type 3
0365  44DC9B32           const [16]: (849075268)
0369  04                 const type 4
036A  23                 string size (35)
036B  4C6F7475732E5363+  "Lotus.Sc"
0373  72697074732E4C69+  "ripts.Li"
037B  62732E5472616E73+  "bs.Trans"
0383  6D697373696F6E53+  "missionS"
038B  657400             "et\0"
                         const [17]: "Lotus.Scripts.Libs.TransmissionSet"
038E  04                 const type 4
038F  1F                 string size (31)
0390  4C6F7475732E496E+  "Lotus.In"
0398  746572666163652E+  "terface."
03A0  4C6F747573557469+  "LotusUti"
03A8  6C697469657300     "lities\0"
                         const [18]: "Lotus.Interface.LotusUtilities"
03AF  04                 const type 4
03B0  2B                 string size (43)
03B1  4C6F7475732E5363+  "Lotus.Sc"
03B9  72697074732E4C69+  "ripts.Li"
03C1  62732E436F6D6D6F+  "bs.Commo"
03C9  6E47616D656D6F64+  "nGamemod"
03D1  6546756E6374696F+  "eFunctio"
03D9  6E7300             "ns\0"
                         const [19]: "Lotus.Scripts.Libs.CommonGamemodeFunctions"
03DC  03                 const type 3
03DD  0AD7233C           const [20]: (10)
03E1  03                 const type 3
03E2  0000803F           const [21]: (0)
03E6  03                 const type 3
03E7  0000A041           const [22]: (0)
03EB  03                 const type 3
03EC  00002042           const [23]: (0)
03F0  03                 const type 3
03F1  0000A040           const [24]: (0)
03F5  03                 const type 3
03F6  00000040           const [25]: (0)
03FA  03                 const type 3
03FB  0000E040           const [26]: (0)
03FF  04                 const type 4
0400  17                 string size (23)
0401  496E6372656D656E+  "Incremen"
0409  7444726F70736869+  "tDropshi"
0411  70436F756E7400     "pCount\0"
                         const [27]: "IncrementDropshipCount"
0418  01                 const type 3
0419  30767B07           const [28]: (125531696)
041D  04                 const type 4
041E  06                 string size (6)
041F  537461727400       "Start\0"
                         const [29]: "Start"
0425  01                 const type 3
0426  38225A6F           const [30]: (1868177976)
042A  04                 const type 4
042B  0E                 string size (14)
042C  44726F7073686970+  "Dropship"
0434  456E74727900       "Entry\0"
                         const [31]: "DropshipEntry"
043A  01                 const type 3
043B  1D3C32A5           const [32]: (-1523434467)
043F  04                 const type 4
0440  13                 string size (19)
0441  44726F7053686970+  "DropShip"
0449  5363616C65456E74+  "ScaleEnt"
0451  657200             "er\0"
                         const [33]: "DropShipScaleEnter"
0454  01                 const type 3
0455  4DEAD47A           const [34]: (2060773965)
0459  04                 const type 4
045A  18                 string size (24)
045B  44726F7053686970+  "DropShip"
0463  4D6F766572536361+  "MoverSca"
046B  6C65456E74657200   "leEnter\0"
                         const [35]: "DropShipMoverScaleEnter"
0473  01                 const type 3
0474  1B4FB19E           const [36]: (-1632547045)
0478  04                 const type 4
0479  0D                 string size (13)
047A  44726F7073686970+  "Dropship"
0482  44726F7000         "Drop\0"
                         const [37]: "DropshipDrop"
0487  01                 const type 3
0488  DA73B9CF           const [38]: (-809929766)
048C  04                 const type 4
048D  0D                 string size (13)
048E  44726F7073686970+  "Dropship"
0496  4578697400         "Exit\0"
                         const [39]: "DropshipExit"
049B  01                 const type 3
049C  36C345A0           const [40]: (-1606040778)
04A0  04                 const type 4
04A1  12                 string size (18)
04A2  44726F7053686970+  "DropShip"
04AA  5363616C65457869+  "ScaleExi"
04B2  7400               "t\0"
                         const [41]: "DropShipScaleExit"
04B4  01                 const type 3
04B5  55B5759F           const [42]: (-1619675819)
04B9  04                 const type 4
04BA  17                 string size (23)
04BB  44726F7053686970+  "DropShip"
04C3  4D6F766572536361+  "MoverSca"
04CB  6C654578697400     "leExit\0"
                         const [43]: "DropShipMoverScaleExit"
04D2  01                 const type 3
04D3  2114F06D           const [44]: (1844450337)
04D7  04                 const type 4
04D8  18                 string size (24)
04D9  44726F7053686970+  "DropShip"
04E1  4D6F76657252616E+  "MoverRan"
04E9  646F6D697A657200   "domizer\0"
                         const [45]: "DropShipMoverRandomizer"
04F1  01                 const type 3
04F2  03A33BE8           const [46]: (-398744829)
04F6  04                 const type 4
04F7  10                 string size (16)
04F8  44726F7073686970+  "Dropship"
0500  52656D6F76616C00   "Removal\0"
                         const [47]: "DropshipRemoval"
0508  01                 const type 3
0509  0BD9EF56           const [48]: (1458559243)
050D  04                 const type 4
050E  16                 string size (22)
050F  44726F7073686970+  "Dropship"
0517  4576656E74457661+  "EventEva"
051F  6C7561746500       "luate\0"
                         const [49]: "DropshipEventEvaluate"
0525  01                 const type 3
0526  7FC37EB7           const [50]: (-1216429185)
052A  04                 const type 4
052B  0E                 string size (14)
052C  44726F7073686970+  "Dropship"
0534  4576656E7400       "Event\0"
                         const [51]: "DropshipEvent"
053A  01                 const type 3
053B  1530138D           const [52]: (-1928122347)
053F  04                 const type 4
0540  14                 string size (20)
0541  416D62756C617353+  "AmbulasS"
0549  7061776E43686563+  "pawnChec"
0551  6B657200           "ker\0"
                         const [53]: "AmbulasSpawnChecker"
0555  01                 const type 3
0556  4073539E           const [54]: (-1638698176)
055A  04                 const type 4
055B  21                 string size (33)
055C  416D62756C61734B+  "AmbulasK"
0564  696C6C6564427954+  "illedByT"
056C  656E6E6F5472616E+  "ennoTran"
0574  736D697373696F6E+  "smission"
057C  00                 "\0"
                         const [55]: "AmbulasKilledByTennoTransmission"
057D  01                 const type 3
057E  B2DD53A0           const [56]: (-1605116494)
0582  04                 const type 4
0583  24                 string size (36)
0584  416D62756C61734B+  "AmbulasK"
058C  696C6C696E675465+  "illingTe"
0594  6E6E6F5472616E73+  "nnoTrans"
059C  6D697373696F6E4C+  "missionL"
05A4  6F6F7000           "oop\0"
                         const [57]: "AmbulasKillingTennoTransmissionLoop"
05A8  01                 const type 3
05A9  D260DF3D           const [58]: (1038049490)
05AD  04                 const type 4
05AE  21                 string size (33)
05AF  416D62756C617350+  "AmbulasP"
05B7  7265446561746854+  "reDeathT"
05BF  72616E736D697373+  "ransmiss"
05C7  696F6E5374617274+  "ionStart"
05CF  00                 "\0"
                         const [59]: "AmbulasPreDeathTransmissionStart"
05D0  01                 const type 3
05D1  CED2E1C8           const [60]: (-924724530)
05D5  04                 const type 4
05D6  28                 string size (40)
05D7  416D62756C617341+  "AmbulasA"
05DF  726D6F7572506965+  "rmourPie"
05E7  636544657374726F+  "ceDestro"
05EF  7965645472616E73+  "yedTrans"
05F7  6D697373696F6E00   "mission\0"
                         const [61]: "AmbulasArmourPieceDestroyedTransmission"
05FF  01                 const type 3
0600  D78C247E           const [62]: (2116324567)
0604  04                 const type 4
0605  1C                 string size (28)
0606  436F6D6261744472+  "CombatDr"
060E  6F70736869704576+  "opshipEv"
0616  656E744576616C75+  "entEvalu"
061E  61746500           "ate\0"
                         const [63]: "CombatDropshipEventEvaluate"
0622  01                 const type 3
0623  1E6680CE           const [64]: (-830446050)
0627  04                 const type 4
0628  14                 string size (20)
0629  436F6D6261744472+  "CombatDr"
0631  6F70736869704576+  "opshipEv"
0639  656E7400           "ent\0"
                         const [65]: "CombatDropshipEvent"
063D  01                 const type 3
063E  73F3A88A           const [66]: (-1968639117)
0642  04                 const type 4
0643  16                 string size (22)
0644  5465737452656769+  "TestRegi"
064C  7374657257617970+  "sterWayp"
0654  6F696E747300       "oints\0"
                         const [67]: "TestRegisterWaypoints"
065A  01                 const type 3
065B  6DD97825           const [68]: (628676973)
065F  04                 const type 4
0660  19                 string size (25)
0661  53696D706C655370+  "SimpleSp"
0669  61776E4F76657272+  "awnOverr"
0671  6964654167656E74+  "ideAgent"
0679  00                 "\0"
                         const [69]: "SimpleSpawnOverrideAgent"
067A  01                 const type 3
067B  E98BCDE3           const [70]: (-473068567)
                         * functions:
067F  1B                 sizep (27)
                         
0680                     ** function [0] definition (level 2)
                         ** start of function **
0680  00                 string size (0)
                         source name: (none)
0681  40                 line defined (64)
0682  56                 last line defined (86)
0683  01                 nups (1)
0684  00                 numparams (0)
0685  00                 is_vararg (0)
0686  09                 maxstacksize (9)
                         * code:
0687  3D                 sizecode (61)
0688  1D000000           [01] getglobal  0   0        ; _T
068C  0E404000           [02] gettable   0   0   257  ; "InSimulacrum"
0690  18000000           [03] test       0       0    ; to [5] if true
0694  1A400080           [04] jmp        2            ; to [7]
0698  17000000           [05] loadbool   0   0   0    ; false
069C  1E000001           [06] return     0   2      
06A0  1D800000           [07] getglobal  0   2        ; 1074689893
06A4  5D000000           [08] getglobal  1   0        ; _T
06A8  4EC0C000           [09] gettable   1   1   259  ; "AmbulasEventActive"
06AC  22800001           [10] call       0   2   2  
06B0  18400000           [11] test       0       1    ; to [13] if false
06B4  1A800080           [12] jmp        3            ; to [16]
06B8  1D000000           [13] getglobal  0   0        ; _T
06BC  0EC04000           [14] gettable   0   0   259  ; "AmbulasEventActive"
06C0  1E000001           [15] return     0   2      
06C4  1D000100           [16] getglobal  0   4        ; gPlayerProfileMgr
06C8  24404100           [17] self       0   0   261  ; 569342746
06CC  99800100           [18] loadk      2   6        ; 0
06D0  22808001           [19] call       0   3   2  
06D4  24C04100           [20] self       0   0   263  ; 1699680402
06D8  22800001           [21] call       0   2   2  
06DC  5D800000           [22] getglobal  1   2        ; 1074689893
06E0  92000000           [23] move       2   0      
06E4  62800001           [24] call       1   2   2  
06E8  58400000           [25] test       1       1    ; to [27] if false
06EC  1A000780           [26] jmp        29           ; to [56]
06F0  64004200           [27] self       1   0   264  ; 755731078
06F4  62800001           [28] call       1   2   2  
06F8  9D400200           [29] getglobal  2   9        ; 1672515847
06FC  CE80C200           [30] gettable   3   1   266  ; "mGoals"
0700  A2000101           [31] call       2   2   4  
0704  1A000580           [32] jmp        21           ; to [54]
0708  DDC10200           [33] getglobal  7   11       ; Engine
070C  CE01C303           [34] gettable   7   7   268  ; -794986224
0710  0E424303           [35] gettable   8   6   269  ; "mActivation"
0714  E2810001           [36] call       7   2   2  
fail op	21
0718  1580C103           [37] concat     0   7   262
071C  1A800380           [38] jmp        15           ; to [54]
0720  DDC10200           [39] getglobal  7   11       ; Engine
0724  CE01C303           [40] gettable   7   7   268  ; -794986224
0728  0E824303           [41] gettable   8   6   270  ; "mExpiry"
072C  E2810001           [42] call       7   2   2  
fail op	21
0730  15C00183           [43] concat     0   262 7  
0734  1A000280           [44] jmp        9            ; to [54]
0738  CEC14303           [45] gettable   7   6   271  ; "mTag"
073C  13020000           [46] getupval   8   0      
fail op	35
0740  23008203           [47] close      0  
0744  1A000180           [48] jmp        5            ; to [54]
0748  DD010000           [49] getglobal  7   0        ; _T
074C  CC01C481           [50] settable   7   259 272  ; "AmbulasEventActive" 1
0750  DD010000           [51] getglobal  7   0        ; _T
0754  CEC1C003           [52] gettable   7   7   259  ; "AmbulasEventActive"
0758  DE010001           [53] return     7   2      
075C  96800000           [54] tforloop   2       2    ; to [56] if exit
0760  1A00FA7F           [55] jmp        -23          ; to [33]
0764  DD010000           [56] getglobal  7   0        ; _T
0768  CC41C481           [57] settable   7   259 273  ; "AmbulasEventActive" 0
076C  DD010000           [58] getglobal  7   0        ; _T
0770  CEC1C003           [59] gettable   7   7   259  ; "AmbulasEventActive"
0774  DE010001           [60] return     7   2      
0778  1E008000           [61] return     0   1      
                         * constants:
077C  12                 sizek (18)
077D  04                 const type 4
077E  03                 string size (3)
077F  5F5400             "_T\0"
                         const [0]: "_T"
0782  04                 const type 4
0783  0D                 string size (13)
0784  496E53696D756C61+  "InSimula"
078C  6372756D00         "crum\0"
                         const [1]: "InSimulacrum"
0791  01                 const type 3
0792  65770E40           const [2]: (1074689893)
0796  04                 const type 4
0797  13                 string size (19)
0798  416D62756C617345+  "AmbulasE"
07A0  76656E7441637469+  "ventActi"
07A8  766500             "ve\0"
                         const [3]: "AmbulasEventActive"
07AB  04                 const type 4
07AC  12                 string size (18)
07AD  67506C6179657250+  "gPlayerP"
07B5  726F66696C654D67+  "rofileMg"
07BD  7200               "r\0"
                         const [4]: "gPlayerProfileMgr"
07BF  01                 const type 3
07C0  1A7BEF21           const [5]: (569342746)
07C4  03                 const type 3
07C5  00000000           const [6]: (0)
07C9  01                 const type 3
07CA  92104F65           const [7]: (1699680402)
07CE  01                 const type 3
07CF  868A0B2D           const [8]: (755731078)
07D3  01                 const type 3
07D4  0791B063           const [9]: (1672515847)
07D8  04                 const type 4
07D9  07                 string size (7)
07DA  6D476F616C7300     "mGoals\0"
                         const [10]: "mGoals"
07E1  04                 const type 4
07E2  07                 string size (7)
07E3  456E67696E6500     "Engine\0"
                         const [11]: "Engine"
07EA  01                 const type 3
07EB  10799DD0           const [12]: (-794986224)
07EF  04                 const type 4
07F0  0C                 string size (12)
07F1  6D41637469766174+  "mActivat"
07F9  696F6E00           "ion\0"
                         const [13]: "mActivation"
07FD  04                 const type 4
07FE  08                 string size (8)
07FF  6D45787069727900   "mExpiry\0"
                         const [14]: "mExpiry"
0807  04                 const type 4
0808  05                 string size (5)
0809  6D54616700         "mTag\0"
                         const [15]: "mTag"
080E  01                 const type 3
080F  01000000           const [16]: (1)
0813  01                 const type 3
0814  00000000           const [17]: (0)
                         * functions:
0818  00                 sizep (0)
                         * lines:
0819  3D                 sizelineinfo (61)
                         [pc] (line)
081A  41                 [01] (65)
081B  00                 [02] (65)
081C  00                 [03] (65)
081D  00                 [04] (65)
081E  41                 [05] (66)
081F  00                 [06] (66)
0820  00                 [07] (69)
0821  00                 [08] (69)
0822  41                 [09] (69)
0823  00                 [10] (69)
0824  00                 [11] (69)
0825  00                 [12] (69)
0826  41                 [13] (70)
0827  00                 [14] (70)
0828  00                 [15] (70)
0829  00                 [16] (73)
082A  42                 [17] (73)
082B  00                 [18] (73)
082C  00                 [19] (73)
082D  00                 [20] (73)
082E  42                 [21] (73)
082F  00                 [22] (74)
0830  00                 [23] (74)
0831  00                 [24] (74)
0832  45                 [25] (74)
0833  00                 [26] (74)
0834  00                 [27] (75)
0835  00                 [28] (75)
0836  45                 [29] (76)
0837  00                 [30] (76)
0838  00                 [31] (76)
0839  00                 [32] (76)
083A  45                 [33] (77)
083B  00                 [34] (77)
083C  00                 [35] (77)
083D  00                 [36] (77)
083E  45                 [37] (77)
083F  00                 [38] (77)
0840  00                 [39] (77)
0841  00                 [40] (77)
0842  45                 [41] (77)
0843  00                 [42] (77)
0844  00                 [43] (77)
0845  00                 [44] (77)
0846  45                 [45] (77)
0847  00                 [46] (77)
0848  00                 [47] (77)
0849  00                 [48] (77)
084A  46                 [49] (78)
084B  00                 [50] (78)
084C  00                 [51] (79)
084D  00                 [52] (79)
084E  46                 [53] (79)
084F  00                 [54] (76)
0850  00                 [55] (80)
0851  00                 [56] (84)
0852  46                 [57] (84)
0853  00                 [58] (85)
0854  00                 [59] (85)
0855  00                 [60] (85)
0856  49                 [61] (86)
                         * locals:
090E  00                 sizelocvars (0)
                         * upvalues:
090F  00                 sizeupvalues (0)
                         ** end of function **

                         
0910                     ** function [1] definition (level 2)
                         ** start of function **
0910  00                 string size (0)
                         source name: (none)
0911  58                 line defined (88)
0912  5E                 last line defined (94)
0913  00                 nups (0)
0914  00                 numparams (0)
0915  00                 is_vararg (0)
0916  02                 maxstacksize (2)
                         * code:
0917  0F                 sizecode (15)
0918  1D000000           [01] getglobal  0   0        ; 1074689893
091C  5D400000           [02] getglobal  1   1        ; _T
0920  4E80C000           [03] gettable   1   1   258  ; "gActiveDropshipCount"
0924  22800001           [04] call       0   2   2  
0928  18000000           [05] test       0       0    ; to [7] if true
092C  1A800080           [06] jmp        3            ; to [10]
0930  1D400000           [07] getglobal  0   1        ; _T
0934  0CC04081           [08] settable   0   258 259  ; "gActiveDropshipCount" 0
0938  1A000180           [09] jmp        5            ; to [15]
093C  1D400000           [10] getglobal  0   1        ; _T
0940  5D400000           [11] getglobal  1   1        ; _T
0944  4E80C000           [12] gettable   1   1   258  ; "gActiveDropshipCount"
0948  43C0C000           [13] add        1   1   259  ; 0
094C  0C400081           [14] settable   0   258 1    ; "gActiveDropshipCount"
0950  1E008000           [15] return     0   1      
                         * constants:
0954  04                 sizek (4)
0955  01                 const type 3
0956  65770E40           const [0]: (1074689893)
095A  04                 const type 4
095B  03                 string size (3)
095C  5F5400             "_T\0"
                         const [1]: "_T"
095F  04                 const type 4
0960  15                 string size (21)
0961  6741637469766544+  "gActiveD"
0969  726F707368697043+  "ropshipC"
0971  6F756E7400         "ount\0"
                         const [2]: "gActiveDropshipCount"
0976  03                 const type 3
0977  0000803F           const [3]: (0)
                         * functions:
097B  00                 sizep (0)
                         * lines:
097C  0F                 sizelineinfo (15)
                         [pc] (line)
097D  59                 [01] (89)
097E  00                 [02] (89)
097F  00                 [03] (89)
0980  00                 [04] (89)
0981  59                 [05] (89)
0982  00                 [06] (89)
0983  00                 [07] (90)
0984  00                 [08] (90)
0985  59                 [09] (90)
0986  00                 [10] (92)
0987  00                 [11] (92)
0988  00                 [12] (92)
0989  59                 [13] (92)
098A  00                 [14] (92)
098B  00                 [15] (94)
                         * locals:
09B9  00                 sizelocvars (0)
                         * upvalues:
09BA  00                 sizeupvalues (0)
                         ** end of function **

                         
09BB                     ** function [2] definition (level 2)
                         ** start of function **
09BB  00                 string size (0)
                         source name: (none)
09BC  60                 line defined (96)
09BD  6A                 last line defined (106)
09BE  00                 nups (0)
09BF  00                 numparams (0)
09C0  00                 is_vararg (0)
09C1  02                 maxstacksize (2)
                         * code:
09C2  1C                 sizecode (28)
09C3  1D000000           [01] getglobal  0   0        ; 1074689893
09C7  5D400000           [02] getglobal  1   1        ; _T
09CB  4E80C000           [03] gettable   1   1   258  ; "gActiveDropshipCount"
09CF  22800001           [04] call       0   2   2  
09D3  18000000           [05] test       0       0    ; to [7] if true
09D7  1A400180           [06] jmp        6            ; to [13]
09DB  1DC00000           [07] getglobal  0   3        ; -1817107093
09DF  59000100           [08] loadk      1   4        ; "Possible Dropship breakage (if not preceded by Host Migration)! Expecting non-nil gActiveDropshipCount but it is nil!"
09E3  22400001           [09] call       0   2   1  
09E7  1D400000           [10] getglobal  0   1        ; _T
09EB  0C404181           [11] settable   0   258 261  ; "gActiveDropshipCount" 0
09EF  1A800380           [12] jmp        15           ; to [28]
09F3  1D400000           [13] getglobal  0   1        ; _T
09F7  0E804000           [14] gettable   0   0   258  ; "gActiveDropshipCount"
fail op	21
09FB  15804100           [15] concat     0   0   262
09FF  1A400180           [16] jmp        6            ; to [23]
0A03  1DC00000           [17] getglobal  0   3        ; -1817107093
0A07  59C00100           [18] loadk      1   7        ; "Error! Attempting to decrement active Dropship count but the counter is < 1!"
0A0B  22400001           [19] call       0   2   1  
0A0F  1D400000           [20] getglobal  0   1        ; _T
0A13  0C404181           [21] settable   0   258 261  ; "gActiveDropshipCount" 0
0A17  1A000180           [22] jmp        5            ; to [28]
0A1B  1D400000           [23] getglobal  0   1        ; _T
0A1F  5D400000           [24] getglobal  1   1        ; _T
0A23  4E80C000           [25] gettable   1   1   258  ; "gActiveDropshipCount"
0A27  4D80C100           [26] sub        1   1   262  ; 0
0A2B  0C400081           [27] settable   0   258 1    ; "gActiveDropshipCount"
0A2F  1E008000           [28] return     0   1      
                         * constants:
0A33  08                 sizek (8)
0A34  01                 const type 3
0A35  65770E40           const [0]: (1074689893)
0A39  04                 const type 4
0A3A  03                 string size (3)
0A3B  5F5400             "_T\0"
                         const [1]: "_T"
0A3E  04                 const type 4
0A3F  15                 string size (21)
0A40  6741637469766544+  "gActiveD"
0A48  726F707368697043+  "ropshipC"
0A50  6F756E7400         "ount\0"
                         const [2]: "gActiveDropshipCount"
0A55  01                 const type 3
0A56  6B25B193           const [3]: (-1817107093)
0A5A  04                 const type 4
0A5B  76                 string size (118)
0A5C  506F737369626C65+  "Possible"
0A64  2044726F70736869+  " Dropshi"
0A6C  7020627265616B61+  "p breaka"
0A74  676520286966206E+  "ge (if n"
0A7C  6F74207072656365+  "ot prece"
0A84  6465642062792048+  "ded by H"
0A8C  6F7374204D696772+  "ost Migr"
0A94  6174696F6E292120+  "ation)! "
0A9C  457870656374696E+  "Expectin"
0AA4  67206E6F6E2D6E69+  "g non-ni"
0AAC  6C20674163746976+  "l gActiv"
0AB4  6544726F70736869+  "eDropshi"
0ABC  70436F756E742062+  "pCount b"
0AC4  7574206974206973+  "ut it is"
0ACC  206E696C2100       " nil!\0"
                         const [4]: "Possible Dropship breakage (if not preceded by Host Migration)! Expecting non-nil gActiveDropshipCount but it is nil!"
0AD2  03                 const type 3
0AD3  00000000           const [5]: (0)
0AD7  03                 const type 3
0AD8  0000803F           const [6]: (0)
0ADC  04                 const type 4
0ADD  4D                 string size (77)
0ADE  4572726F72212041+  "Error! A"
0AE6  7474656D7074696E+  "ttemptin"
0AEE  6720746F20646563+  "g to dec"
0AF6  72656D656E742061+  "rement a"
0AFE  6374697665204472+  "ctive Dr"
0B06  6F70736869702063+  "opship c"
0B0E  6F756E7420627574+  "ount but"
0B16  2074686520636F75+  " the cou"
0B1E  6E74657220697320+  "nter is "
0B26  3C20312100         "< 1!\0"
                         const [7]: "Error! Attempting to decrement active Dropship count but the counter is < 1!"
                         * functions:
0B2B  00                 sizep (0)
                         * lines:
0B2C  1C                 sizelineinfo (28)
                         [pc] (line)
0B2D  61                 [01] (97)
0B2E  00                 [02] (97)
0B2F  00                 [03] (97)
0B30  00                 [04] (97)
0B31  61                 [05] (97)
0B32  00                 [06] (97)
0B33  00                 [07] (98)
0B34  00                 [08] (98)
0B35  61                 [09] (98)
0B36  00                 [10] (99)
0B37  00                 [11] (99)
0B38  00                 [12] (99)
0B39  61                 [13] (100)
0B3A  00                 [14] (100)
0B3B  00                 [15] (100)
0B3C  00                 [16] (100)
0B3D  61                 [17] (101)
0B3E  00                 [18] (101)
0B3F  00                 [19] (101)
0B40  00                 [20] (102)
0B41  61                 [21] (102)
0B42  00                 [22] (102)
0B43  00                 [23] (104)
0B44  00                 [24] (104)
0B45  62                 [25] (104)
0B46  00                 [26] (104)
0B47  00                 [27] (104)
0B48  00                 [28] (106)
                         * locals:
0B9D  00                 sizelocvars (0)
                         * upvalues:
0B9E  00                 sizeupvalues (0)
                         ** end of function **

                         
0B9F                     ** function [3] definition (level 2)
                         ** start of function **
0B9F  00                 string size (0)
                         source name: (none)
0BA0  6C                 line defined (108)
0BA1  71                 last line defined (113)
0BA2  00                 nups (0)
0BA3  01                 numparams (1)
0BA4  00                 is_vararg (0)
0BA5  08                 maxstacksize (8)
                         * code:
0BA6  11                 sizecode (17)
0BA7  64004000           [01] self       1   0   256  ; -578871469
0BAB  62800001           [02] call       1   2   2  
0BAF  9D400000           [03] getglobal  2   1        ; gRegion
fail op	35
0BB3  63808000           [04] close      1  
0BB7  1A800280           [05] jmp        11           ; to [17]
0BBB  64804000           [06] self       1   0   258  ; 970454089
0BBF  E4C04000           [07] self       3   0   259  ; 1839670529
0BC3  E2800001           [08] call       3   2   2  
0BC7  1D010100           [09] getglobal  4   4        ; 572299008
0BCB  59410100           [10] loadk      5   5        ; 0
0BCF  99810100           [11] loadk      6   6        ; 0
0BD3  D9410100           [12] loadk      7   5        ; 0
0BD7  22810002           [13] call       4   4   2  
0BDB  C3008101           [14] add        3   3   4  
0BDF  62408001           [15] call       1   3   1  
0BE3  1E008000           [16] return     0   1      
0BE7  1E008000           [17] return     0   1      
                         * constants:
0BEB  07                 sizek (7)
0BEC  01                 const type 3
0BED  531F7FDD           const [0]: (-578871469)
0BF1  04                 const type 4
0BF2  08                 string size (8)
0BF3  67526567696F6E00   "gRegion\0"
                         const [1]: "gRegion"
0BFB  01                 const type 3
0BFC  49F4D739           const [2]: (970454089)
0C00  01                 const type 3
0C01  0125A76D           const [3]: (1839670529)
0C05  01                 const type 3
0C06  00971C22           const [4]: (572299008)
0C0A  03                 const type 3
0C0B  00000000           const [5]: (0)
0C0F  03                 const type 3
0C10  0000803F           const [6]: (0)
                         * functions:
0C14  00                 sizep (0)
                         * lines:
0C15  11                 sizelineinfo (17)
                         [pc] (line)
0C16  6D                 [01] (109)
0C17  00                 [02] (109)
0C18  00                 [03] (109)
0C19  00                 [04] (109)
0C1A  6D                 [05] (109)
0C1B  00                 [06] (110)
0C1C  00                 [07] (110)
0C1D  00                 [08] (110)
0C1E  6D                 [09] (110)
0C1F  00                 [10] (110)
0C20  00                 [11] (110)
0C21  00                 [12] (110)
0C22  6D                 [13] (110)
0C23  00                 [14] (110)
0C24  00                 [15] (110)
0C25  00                 [16] (111)
0C26  6D                 [17] (113)
                         * locals:
0C5A  00                 sizelocvars (0)
                         * upvalues:
0C5B  00                 sizeupvalues (0)
                         ** end of function **

                         
0C5C                     ** function [4] definition (level 2)
                         ** start of function **
0C5C  00                 string size (0)
                         source name: (none)
0C5D  73                 line defined (115)
0C5E  7D                 last line defined (125)
0C5F  00                 nups (0)
0C60  02                 numparams (2)
0C61  00                 is_vararg (0)
0C62  06                 maxstacksize (6)
                         * code:
0C63  1C                 sizecode (28)
0C64  9D000000           [01] getglobal  2   0        ; 1074689893
0C68  D2000000           [02] move       3   0      
0C6C  A2800001           [03] call       2   2   2  
0C70  98000000           [04] test       2       0    ; to [6] if true
0C74  1AC00080           [05] jmp        4            ; to [10]
0C78  9D400000           [06] getglobal  2   1        ; -1817107093
0C7C  D9800000           [07] loadk      3   2        ; "Corpus Dropship avatar not found from behavior! Canceling DropshipEntry()..."
0C80  A2400001           [08] call       2   2   1  
0C84  1E008000           [09] return     0   1      
0C88  9D400000           [10] getglobal  2   1        ; -1817107093
0C8C  D9C00000           [11] loadk      3   3        ; "Dropship entering. Avatar: "
0C90  24014100           [12] self       4   0   260  ; 880936306
0C94  22810001           [13] call       4   2   2  
0C98  C2008101           [14] concat     3   3   4  
0C9C  A2400001           [15] call       2   2   1  
0CA0  A4404100           [16] self       2   0   261  ; 2109594123
0CA4  17010000           [17] loadbool   4   0   0    ; false
0CA8  57018000           [18] loadbool   5   1   0    ; true
0CAC  A2400002           [19] call       2   4   1  
0CB0  A4404100           [20] self       2   0   261  ; 2109594123
0CB4  17018000           [21] loadbool   4   1   0    ; true
0CB8  57018000           [22] loadbool   5   1   0    ; true
0CBC  A2400002           [23] call       2   4   1  
0CC0  A4804100           [24] self       2   0   262  ; -1421644046
0CC4  1DC10100           [25] getglobal  4   7        ; spawnEffect
0CC8  5D010200           [26] getglobal  5   8        ; EMPTY_SYMBOL
0CCC  A2400002           [27] call       2   4   1  
0CD0  1E008000           [28] return     0   1      
                         * constants:
0CD4  09                 sizek (9)
0CD5  01                 const type 3
0CD6  65770E40           const [0]: (1074689893)
0CDA  01                 const type 3
0CDB  6B25B193           const [1]: (-1817107093)
0CDF  04                 const type 4
0CE0  4D                 string size (77)
0CE1  436F727075732044+  "Corpus D"
0CE9  726F707368697020+  "ropship "
0CF1  617661746172206E+  "avatar n"
0CF9  6F7420666F756E64+  "ot found"
0D01  2066726F6D206265+  " from be"
0D09  686176696F722120+  "havior! "
0D11  43616E63656C696E+  "Cancelin"
0D19  672044726F707368+  "g Dropsh"
0D21  6970456E74727928+  "ipEntry("
0D29  292E2E2E00         ")...\0"
                         const [2]: "Corpus Dropship avatar not found from behavior! Canceling DropshipEntry()..."
0D2E  04                 const type 4
0D2F  1C                 string size (28)
0D30  44726F7073686970+  "Dropship"
0D38  20656E746572696E+  " enterin"
0D40  672E204176617461+  "g. Avata"
0D48  723A2000           "r: \0"
                         const [3]: "Dropship entering. Avatar: "
0D4C  01                 const type 3
0D4D  72058234           const [4]: (880936306)
0D51  01                 const type 3
0D52  0BDABD7D           const [5]: (2109594123)
0D56  01                 const type 3
0D57  F26E43AB           const [6]: (-1421644046)
0D5B  04                 const type 4
0D5C  0C                 string size (12)
0D5D  737061776E456666+  "spawnEff"
0D65  65637400           "ect\0"
                         const [7]: "spawnEffect"
0D69  04                 const type 4
0D6A  0D                 string size (13)
0D6B  454D5054595F5359+  "EMPTY_SY"
0D73  4D424F4C00         "MBOL\0"
                         const [8]: "EMPTY_SYMBOL"
                         * functions:
0D78  00                 sizep (0)
                         * lines:
0D79  1C                 sizelineinfo (28)
                         [pc] (line)
0D7A  74                 [01] (116)
0D7B  00                 [02] (116)
0D7C  00                 [03] (116)
0D7D  00                 [04] (116)
0D7E  74                 [05] (116)
0D7F  00                 [06] (117)
0D80  00                 [07] (117)
0D81  00                 [08] (117)
0D82  74                 [09] (118)
0D83  00                 [10] (120)
0D84  00                 [11] (120)
0D85  00                 [12] (120)
0D86  74                 [13] (120)
0D87  00                 [14] (120)
0D88  00                 [15] (120)
0D89  00                 [16] (121)
0D8A  74                 [17] (121)
0D8B  00                 [18] (121)
0D8C  00                 [19] (121)
0D8D  00                 [20] (123)
0D8E  75                 [21] (123)
0D8F  00                 [22] (123)
0D90  00                 [23] (123)
0D91  00                 [24] (124)
0D92  75                 [25] (124)
0D93  00                 [26] (124)
0D94  00                 [27] (124)
0D95  00                 [28] (125)
                         * locals:
0DEA  00                 sizelocvars (0)
                         * upvalues:
0DEB  00                 sizeupvalues (0)
                         ** end of function **

                         
0DEC                     ** function [5] definition (level 2)
                         ** start of function **
0DEC  00                 string size (0)
                         source name: (none)
0DED  7F                 line defined (127)
0DEE  8F                 last line defined (143)
0DEF  01                 nups (0)
0DF0  00                 numparams (1)
0DF1  01                 is_vararg (0)
0DF2  00                 maxstacksize (9)
                         * code:
0DF4  1D                 sizecode (29)
0DF5  64004000           [01] self       1   0   256  ; -323635054
0DF9  62800001           [02] call       1   2   2  
0DFD  99400000           [03] loadk      2   1        ; 23
0E01  E4804000           [04] self       3   0   258  ; 1786666898
0E05  52010001           [05] move       5   2      
0E09  E2408001           [06] call       3   3   1  
0E0D  DDC00000           [07] getglobal  3   3        ; 538022378
0E11  19010100           [08] loadk      4   4        ; 0
0E15  E2400001           [09] call       3   2   1  
0E19  D9400100           [10] loadk      3   5        ; 0
0E1D  19810100           [11] loadk      4   6        ; 0
fail op	21
0E21  15008101           [12] concat     0   3   4  
0E25  1A800380           [13] jmp        15           ; to [29]
0E29  5DC10100           [14] getglobal  5   7        ; -1828500651
0E2D  92010001           [15] move       6   2      
0E31  D2018000           [16] move       7   1      
0E35  1C028101           [17] div        8   3   4  
0E39  62810002           [18] call       5   4   2  
0E3D  A4814000           [19] self       6   0   258  ; 1786666898
0E41  12028002           [20] move       8   5      
0E45  A2418001           [21] call       6   3   1  
0E49  9DC10000           [22] getglobal  6   3        ; 538022378
0E4D  D9410100           [23] loadk      7   5        ; 0
0E51  A2410001           [24] call       6   2   1  
0E55  9D010200           [25] getglobal  6   8        ; 1289681407
0E59  A2818000           [26] call       6   1   2  
0E5D  C3808101           [27] add        3   3   6  
0E61  1A80FB7F           [28] jmp        -17          ; to [12]
0E65  1E008000           [29] return     0   1      
                         * constants:
0E69  09                 sizek (9)
0E6A  01                 const type 3
0E6B  92B8B5EC           const [0]: (-323635054)
0E6F  03                 const type 3
0E70  17B7D138           const [1]: (23)
0E74  01                 const type 3
0E75  925F7E6A           const [2]: (1786666898)
0E79  01                 const type 3
0E7A  EA911120           const [3]: (538022378)
0E7E  03                 const type 3
0E7F  0000803F           const [4]: (0)
0E83  03                 const type 3
0E84  00000000           const [5]: (0)
0E88  03                 const type 3
0E89  00008040           const [6]: (0)
0E8D  01                 const type 3
0E8E  554B0393           const [7]: (-1828500651)
0E92  01                 const type 3
0E93  FFF9DE4C           const [8]: (1289681407)
                         * functions:
0E97  00                 sizep (0)
                         * lines:
0E98  1D                 sizelineinfo (29)
                         [pc] (line)
0E99  80                 [01] (-128)
0E9A  00                 [02] (-128)
0E9B  00                 [03] (-127)
0E9C  00                 [04] (-126)
0E9D  80                 [05] (-126)
0E9E  00                 [06] (-126)
0E9F  00                 [07] (-124)
0EA0  00                 [08] (-124)
0EA1  81                 [09] (-124)
0EA2  00                 [10] (-122)
0EA3  00                 [11] (-121)
0EA4  00                 [12] (-120)
0EA5  82                 [13] (-120)
0EA6  00                 [14] (-119)
0EA7  00                 [15] (-119)
0EA8  00                 [16] (-119)
0EA9  82                 [17] (-119)
0EAA  00                 [18] (-119)
0EAB  00                 [19] (-118)
0EAC  00                 [20] (-118)
0EAD  82                 [21] (-118)
0EAE  00                 [22] (-116)
0EAF  00                 [23] (-116)
0EB0  00                 [24] (-116)
0EB1  84                 [25] (-115)
0EB2  00                 [26] (-115)
0EB3  00                 [27] (-115)
0EB4  00                 [28] (-115)
0EB5  84                 [29] (-113)
                         * locals:
0F0D  00                 sizelocvars (0)
                         * upvalues:
0F0E  00                 sizeupvalues (0)
                         ** end of function **

                         
0F0F                     ** function [6] definition (level 2)
                         ** start of function **
0F0F  00                 string size (0)
                         source name: (none)
0F11  01                 line defined (145)
0F12  BD                 last line defined (189)
0F13  01                 nups (0)
0F14  00                 numparams (1)
0F15  01                 is_vararg (0)
0F16  00                 maxstacksize (16)
                         * code:
0F18  4B                 sizecode (75)
0F19  A4004000           [01] self       2   0   256  ; -1957065004
0F1D  1D410000           [02] getglobal  4   1        ; gDropshipAvatarType
0F21  A2808001           [03] call       2   3   2  
0F25  98000000           [04] test       2       0    ; to [6] if true
0F29  1A400080           [05] jmp        2            ; to [8]
0F2D  52000000           [06] move       1   0      
0F31  1A800380           [07] jmp        15           ; to [23]
0F35  A4804000           [08] self       2   0   258  ; -1284295806
0F39  A2800001           [09] call       2   2   2  
0F3D  D9C00000           [10] loadk      3   3        ; 0
0F41  0A010001           [11] len        4   2      
0F45  59C10000           [12] loadk      5   3        ; 0
0F49  D0C00180           [13] forprep    3   8        ; to [22]
0F4D  CE810101           [14] gettable   7   2   6  
0F51  E401C003           [15] self       7   7   256  ; -1957065004
0F55  5D420000           [16] getglobal  9   1        ; gDropshipAvatarType
0F59  E2818001           [17] call       7   3   2  
0F5D  D8010000           [18] test       7       0    ; to [20] if true
0F61  1A400080           [19] jmp        2            ; to [22]
0F65  4E800101           [20] gettable   1   2   6  
0F69  1A000080           [21] jmp        1            ; to [23]
0F6D  D480FD7F           [22] forloop    3   -9       ; to [14] if loop
0F71  DD010100           [23] getglobal  7   4        ; 1074689893
0F75  12028000           [24] move       8   1      
0F79  E2810001           [25] call       7   2   2  
0F7D  D8010000           [26] test       7       0    ; to [28] if true
0F81  1A000080           [27] jmp        1            ; to [29]
0F85  1E008000           [28] return     0   1      
0F89  DD410100           [29] getglobal  7   5        ; hunterCloseByScale
0F8D  1D820100           [30] getglobal  8   6        ; hunterFarAwayScale
0F91  64C24100           [31] self       9   0   263  ; 1786666898
0F95  DD820100           [32] getglobal  11  6        ; hunterFarAwayScale
0F99  62428001           [33] call       9   3   1  
0F9D  6402C200           [34] self       9   1   264  ; -1625438872
0FA1  DD420200           [35] getglobal  11  9        ; 738251817
0FA5  19830200           [36] loadk      12  10       ; "/Lotus/Sounds/Ambience/CorpusGasCity/GameplayRemaster/GasCitySpaceFighter/GasCitySpaceFighterApproachSeq"
0FA9  E2020001           [37] call       11  2   0  
0FAD  62820000           [38] call       9   0   2  
0FB1  9DC20200           [39] getglobal  10  11       ; 538022378
0FB5  D9020300           [40] loadk      11  12       ; -51
0FB9  A2420001           [41] call       10  2   1  
0FBD  9D020100           [42] getglobal  10  4        ; 1074689893
0FC1  D2028000           [43] move       11  1      
0FC5  A2820001           [44] call       10  2   2  
0FC9  98420000           [45] test       10      1    ; to [47] if false
0FCD  1A400080           [46] jmp        2            ; to [49]
0FD1  A442C304           [47] self       10  9   269  ; -974578778
0FD5  A2420001           [48] call       10  2   1  
0FD9  99820300           [49] loadk      10  14       ; 0
0FDD  DDC20300           [50] getglobal  11  15       ; hunterResizeTime
fail op	33
0FE1  21C00205           [51] tforloop   0       11   ; to [53] if exit
0FE5  1A400580           [52] jmp        22           ; to [75]
0FE9  1D030400           [53] getglobal  12  16       ; -1828500651
0FED  52030004           [54] move       13  8      
0FF1  92038003           [55] move       14  7      
0FF5  DCC30205           [56] div        15  10  11 
0FF9  22830002           [57] call       12  4   2  
0FFD  5D030100           [58] getglobal  13  4        ; 1074689893
1001  92038000           [59] move       14  1      
1005  62830001           [60] call       13  2   2  
1009  58430000           [61] test       13      1    ; to [63] if false
100D  1AC00280           [62] jmp        12           ; to [75]
1011  64C34100           [63] self       13  0   263  ; 1786666898
1015  D2030006           [64] move       15  12     
1019  62438001           [65] call       13  3   1  
101D  5DC30200           [66] getglobal  13  11       ; 538022378
1021  99830300           [67] loadk      14  14       ; 0
1025  62430001           [68] call       13  2   1  
1029  5D430400           [69] getglobal  13  17       ; 1289681407
102D  62838000           [70] call       13  1   2  
1031  83420305           [71] add        10  10  13 
1035  1A40FA7F           [72] jmp        -22          ; to [51]
1039  1A000080           [73] jmp        1            ; to [75]
103D  1AC0F97F           [74] jmp        -24          ; to [51]
1041  1E008000           [75] return     0   1      
                         * constants:
1045  12                 sizek (18)
1046  01                 const type 3
1047  D48E598B           const [0]: (-1957065004)
104B  04                 const type 4
104C  14                 string size (20)
104D  6744726F70736869+  "gDropshi"
1055  7041766174617254+  "pAvatarT"
105D  79706500           "ype\0"
                         const [1]: "gDropshipAvatarType"
1061  01                 const type 3
1062  823373B3           const [2]: (-1284295806)
1066  03                 const type 3
1067  0000803F           const [3]: (0)
106B  01                 const type 3
106C  65770E40           const [4]: (1074689893)
1070  04                 const type 4
1071  13                 string size (19)
1072  68756E746572436C+  "hunterCl"
107A  6F73654279536361+  "oseBySca"
1082  6C6500             "le\0"
                         const [5]: "hunterCloseByScale"
1085  04                 const type 4
1086  13                 string size (19)
1087  68756E7465724661+  "hunterFa"
108F  7241776179536361+  "rAwaySca"
1097  6C6500             "le\0"
                         const [6]: "hunterFarAwayScale"
109A  01                 const type 3
109B  925F7E6A           const [7]: (1786666898)
109F  01                 const type 3
10A0  68C51D9F           const [8]: (-1625438872)
10A4  01                 const type 3
10A5  29D4002C           const [9]: (738251817)
10A9  04                 const type 4
10AA  69                 string size (105)
10AB  2F4C6F7475732F53+  "/Lotus/S"
10B3  6F756E64732F416D+  "ounds/Am"
10BB  6269656E63652F43+  "bience/C"
10C3  6F72707573476173+  "orpusGas"
10CB  436974792F47616D+  "City/Gam"
10D3  65706C617952656D+  "eplayRem"
10DB  61737465722F4761+  "aster/Ga"
10E3  7343697479537061+  "sCitySpa"
10EB  6365466967687465+  "ceFighte"
10F3  722F476173436974+  "r/GasCit"
10FB  7953706163654669+  "ySpaceFi"
1103  6768746572417070+  "ghterApp"
110B  726F616368536571+  "roachSeq"
1113  00                 "\0"
                         const [10]: "/Lotus/Sounds/Ambience/CorpusGasCity/GameplayRemaster/GasCitySpaceFighter/GasCitySpaceFighterApproachSeq"
1114  01                 const type 3
1115  EA911120           const [11]: (538022378)
1119  03                 const type 3
111A  CDCCCC3D           const [12]: (-51)
111E  01                 const type 3
111F  A61BE9C5           const [13]: (-974578778)
1123  03                 const type 3
1124  00000000           const [14]: (0)
1128  04                 const type 4
1129  11                 string size (17)
112A  68756E7465725265+  "hunterRe"
1132  73697A6554696D65+  "sizeTime"
113A  00                 "\0"
                         const [15]: "hunterResizeTime"
113B  01                 const type 3
113C  554B0393           const [16]: (-1828500651)
1140  01                 const type 3
1141  FFF9DE4C           const [17]: (1289681407)
                         * functions:
1145  00                 sizep (0)
                         * lines:
1146  4B                 sizelineinfo (75)
                         [pc] (line)
1147  94                 [01] (-108)
1148  00                 [02] (-108)
1149  00                 [03] (-108)
114A  00                 [04] (-108)
114B  94                 [05] (-108)
114C  00                 [06] (-107)
114D  00                 [07] (-107)
114E  00                 [08] (-105)
114F  94                 [09] (-105)
1150  00                 [10] (-104)
1151  00                 [11] (-104)
1152  00                 [12] (-104)
1153  94                 [13] (-104)
1154  00                 [14] (-103)
1155  00                 [15] (-103)
1156  00                 [16] (-103)
1157  94                 [17] (-103)
1158  00                 [18] (-103)
1159  00                 [19] (-103)
115A  00                 [20] (-102)
115B  95                 [21] (-101)
115C  00                 [22] (-104)
115D  00                 [23] (-96)
115E  00                 [24] (-96)
115F  95                 [25] (-96)
1160  00                 [26] (-96)
1161  00                 [27] (-96)
1162  00                 [28] (-95)
1163  97                 [29] (-92)
1164  00                 [30] (-91)
1165  00                 [31] (-90)
1166  00                 [32] (-90)
1167  97                 [33] (-90)
1168  00                 [34] (-88)
1169  00                 [35] (-88)
116A  00                 [36] (-88)
116B  98                 [37] (-88)
116C  00                 [38] (-88)
116D  00                 [39] (-85)
116E  00                 [40] (-85)
116F  98                 [41] (-85)
1170  00                 [42] (-83)
1171  00                 [43] (-83)
1172  00                 [44] (-83)
1173  98                 [45] (-83)
1174  00                 [46] (-83)
1175  00                 [47] (-82)
1176  00                 [48] (-82)
1177  98                 [49] (-79)
1178  00                 [50] (-78)
1179  00                 [51] (-77)
117A  00                 [52] (-77)
117B  99                 [53] (-76)
117C  00                 [54] (-76)
117D  00                 [55] (-76)
117E  00                 [56] (-76)
117F  99                 [57] (-76)
1180  00                 [58] (-75)
1181  00                 [59] (-75)
1182  00                 [60] (-75)
1183  99                 [61] (-75)
1184  00                 [62] (-75)
1185  00                 [63] (-74)
1186  00                 [64] (-74)
1187  99                 [65] (-74)
1188  00                 [66] (-73)
1189  00                 [67] (-73)
118A  00                 [68] (-73)
118B  99                 [69] (-72)
118C  00                 [70] (-72)
118D  00                 [71] (-72)
118E  00                 [72] (-72)
118F  99                 [73] (-70)
1190  00                 [74] (-69)
1191  00                 [75] (-67)
                         * locals:
1273  00                 sizelocvars (0)
                         * upvalues:
1274  00                 sizeupvalues (0)
                         ** end of function **

                         
1275                     ** function [7] definition (level 2)
                         ** start of function **
1275  00                 string size (0)
                         source name: (none)
1277  01                 line defined (191)
1278  EC                 last line defined (236)
1279  01                 nups (2)
127A  02                 numparams (2)
127B  02                 is_vararg (0)
127C  00                 maxstacksize (13)
                         * code:
127E  68                 sizecode (104)
127F  A4004000           [001] self       2   0   256  ; -2116012618
1283  2441C000           [002] self       4   1   257  ; 1839670529
1287  22810001           [003] call       4   2   2  
128B  6481C000           [004] self       5   1   258  ; -231049143
128F  62010001           [005] call       5   2   0  
1293  A2400000           [006] call       2   0   1  
1297  A4C04000           [007] self       2   0   259  ; 677420169
129B  1D010100           [008] getglobal  4   4        ; -332969190
129F  59410100           [009] loadk      5   5        ; "HackPanel"
12A3  22010001           [010] call       4   2   0  
12A7  A2400000           [011] call       2   0   1  
12AB  9D800100           [012] getglobal  2   6        ; 538022378
12AF  D9C00100           [013] loadk      3   7        ; 0
12B3  A2400001           [014] call       2   2   1  
12B7  9D000200           [015] getglobal  2   8        ; -1817107093
12BB  D9400200           [016] loadk      3   9        ; "Corpus Dropship stopping at waypoint"
12BF  A2400001           [017] call       2   2   1  
12C3  A4804200           [018] self       2   0   266  ; -1925372830
12C7  19C10200           [019] loadk      4   11       ; "EndLoop"
12CB  59010300           [020] loadk      5   12       ; 0
12CF  A2400002           [021] call       2   4   1  
12D3  9D400300           [022] getglobal  2   13       ; 1074689893
12D7  DD800300           [023] getglobal  3   14       ; _T
12DB  CEC0C301           [024] gettable   3   3   271  ; "SpawnLibRegisterAgent"
12DF  A2800001           [025] call       2   2   2  
12E3  98400000           [026] test       2       1    ; to [28] if false
12E7  1AC00680           [027] jmp        28           ; to [56]
12EB  A4004400           [028] self       2   0   272  ; 366271214
12EF  1D410400           [029] getglobal  4   17       ; gLotusNpcAvatarType
12F3  A2808001           [030] call       2   3   2  
12F7  DD800400           [031] getglobal  3   18       ; 1672515847
12FB  12010001           [032] move       4   2      
12FF  E2000101           [033] call       3   2   4  
1303  1A800480           [034] jmp        19           ; to [54]
fail op	35
1307  63008003           [035] close      1  
130B  1A000480           [036] jmp        17           ; to [54]
130F  24C2C403           [037] self       8   7   275  ; -1957065004
1313  9D020500           [038] getglobal  10  20       ; gAutoTurretAvatarType
1317  22828001           [039] call       8   3   2  
131B  18420000           [040] test       8       1    ; to [42] if false
131F  1AC00280           [041] jmp        12           ; to [54]
1323  2442C503           [042] self       8   7   277  ; -830264577
1327  22820001           [043] call       8   2   2  
132B  5D020100           [044] getglobal  9   4        ; -332969190
132F  99820500           [045] loadk      10  22       ; "Ambulas"
1333  62820001           [046] call       9   2   2  
fail op	35
1337  63400204           [047] close      1  
133B  1A000180           [048] jmp        5            ; to [54]
133F  1D820300           [049] getglobal  8   14       ; _T
1343  0EC24504           [050] gettable   8   8   279  ; 236401447
1347  6402C603           [051] self       9   7   280  ; -1411785325
134B  62020001           [052] call       9   2   0  
134F  22420000           [053] call       8   0   1  
1353  D6800000           [054] tforloop   3       2    ; to [56] if exit
1357  1A80FA7F           [055] jmp        -21          ; to [35]
135B  24424600           [056] self       8   0   281  ; -639947785
135F  22420001           [057] call       8   2   1  
1363  13020000           [058] getupval   8   0      
1367  22828000           [059] call       8   1   2  
136B  18020000           [060] test       8       0    ; to [62] if true
136F  1AC00380           [061] jmp        16           ; to [78]
1373  1D420300           [062] getglobal  8   13       ; 1074689893
1377  5D820600           [063] getglobal  9   26       ; ambulasEventTransmissionSet
137B  22820001           [064] call       8   2   2  
137F  18420000           [065] test       8       1    ; to [67] if false
1383  1A800280           [066] jmp        11           ; to [78]
1387  1DC20600           [067] getglobal  8   27       ; 2083004503
138B  5D820600           [068] getglobal  9   26       ; ambulasEventTransmissionSet
138F  22820001           [069] call       8   2   2  
1393  53028000           [070] getupval   9   1      
1397  4E02C704           [071] gettable   9   9   284  ; 1387905071
139B  92020004           [072] move       10  8      
139F  DD020100           [073] getglobal  11  4        ; -332969190
13A3  19430700           [074] loadk      12  29       ; "AmbulasDropped"
13A7  E2820001           [075] call       11  2   2  
13AB  19830700           [076] loadk      12  30       ; 0
13AF  62420002           [077] call       9   4   1  
13B3  5D420300           [078] getglobal  9   13       ; 1074689893
13B7  92020000           [079] move       10  0      
13BB  62820001           [080] call       9   2   2  
13BF  58420000           [081] test       9       1    ; to [83] if false
13C3  1AC00180           [082] jmp        8            ; to [91]
13C7  64C24700           [083] self       9   0   287  ; 1633989319
13CB  62820001           [084] call       9   2   2  
13CF  58020000           [085] test       9       0    ; to [87] if true
13D3  1AC00080           [086] jmp        4            ; to [91]
13D7  5D820100           [087] getglobal  9   6        ; 538022378
13DB  99020800           [088] loadk      10  32       ; 0
13DF  62420001           [089] call       9   2   1  
13E3  1A80FC7F           [090] jmp        -13          ; to [78]
13E7  5D420800           [091] getglobal  9   33       ; gRegion
13EB  6482C804           [092] self       9   9   290  ; -1875307917
13EF  DD020100           [093] getglobal  11  4        ; -332969190
13F3  19C30800           [094] loadk      12  35       ; "CrpDropShipDepart"
13F7  E2020001           [095] call       11  2   0  
13FB  62820000           [096] call       9   0   2  
13FF  9D420300           [097] getglobal  10  13       ; 1074689893
1403  D2028004           [098] move       11  9      
1407  A2820001           [099] call       10  2   2  
140B  98420000           [100] test       10      1    ; to [102] if false
140F  1A400080           [101] jmp        2            ; to [104]
1413  A402C904           [102] self       10  9   292  ; -974578778
1417  A2420001           [103] call       10  2   1  
141B  1E008000           [104] return     0   1      
                         * constants:
141F  25                 sizek (37)
1420  01                 const type 3
1421  B635E081           const [0]: (-2116012618)
1425  01                 const type 3
1426  0125A76D           const [1]: (1839670529)
142A  01                 const type 3
142B  49783AF2           const [2]: (-231049143)
142F  01                 const type 3
1430  899C6028           const [3]: (677420169)
1434  01                 const type 3
1435  1A4B27EC           const [4]: (-332969190)
1439  04                 const type 4
143A  0A                 string size (10)
143B  4861636B50616E65+  "HackPane"
1443  6C00               "l\0"
                         const [5]: "HackPanel"
1445  01                 const type 3
1446  EA911120           const [6]: (538022378)
144A  03                 const type 3
144B  00000040           const [7]: (0)
144F  01                 const type 3
1450  6B25B193           const [8]: (-1817107093)
1454  04                 const type 4
1455  25                 string size (37)
1456  436F727075732044+  "Corpus D"
145E  726F707368697020+  "ropship "
1466  73746F7070696E67+  "stopping"
146E  2061742077617970+  " at wayp"
1476  6F696E7400         "oint\0"
                         const [9]: "Corpus Dropship stopping at waypoint"
147B  01                 const type 3
147C  62243D8D           const [10]: (-1925372830)
1480  04                 const type 4
1481  08                 string size (8)
1482  456E644C6F6F7000   "EndLoop\0"
                         const [11]: "EndLoop"
148A  03                 const type 3
148B  0000803F           const [12]: (0)
148F  01                 const type 3
1490  65770E40           const [13]: (1074689893)
1494  04                 const type 4
1495  03                 string size (3)
1496  5F5400             "_T\0"
                         const [14]: "_T"
1499  04                 const type 4
149A  16                 string size (22)
149B  537061776E4C6962+  "SpawnLib"
14A3  5265676973746572+  "Register"
14AB  4167656E7400       "Agent\0"
                         const [15]: "SpawnLibRegisterAgent"
14B1  01                 const type 3
14B2  EEDAD415           const [16]: (366271214)
14B6  04                 const type 4
14B7  14                 string size (20)
14B8  674C6F7475734E70+  "gLotusNp"
14C0  6341766174617254+  "cAvatarT"
14C8  79706500           "ype\0"
                         const [17]: "gLotusNpcAvatarType"
14CC  01                 const type 3
14CD  0791B063           const [18]: (1672515847)
14D1  01                 const type 3
14D2  D48E598B           const [19]: (-1957065004)
14D6  04                 const type 4
14D7  16                 string size (22)
14D8  674175746F547572+  "gAutoTur"
14E0  7265744176617461+  "retAvata"
14E8  725479706500       "rType\0"
                         const [20]: "gAutoTurretAvatarType"
14EE  01                 const type 3
14EF  FF2A83CE           const [21]: (-830264577)
14F3  04                 const type 4
14F4  08                 string size (8)
14F5  416D62756C617300   "Ambulas\0"
                         const [22]: "Ambulas"
14FD  01                 const type 3
14FE  2733170E           const [23]: (236401447)
1502  01                 const type 3
1503  93DDD9AB           const [24]: (-1411785325)
1507  01                 const type 3
1508  F72BDBD9           const [25]: (-639947785)
150C  04                 const type 4
150D  1C                 string size (28)
150E  616D62756C617345+  "ambulasE"
1516  76656E745472616E+  "ventTran"
151E  736D697373696F6E+  "smission"
1526  53657400           "Set\0"
                         const [26]: "ambulasEventTransmissionSet"
152A  01                 const type 3
152B  5720287C           const [27]: (2083004503)
152F  01                 const type 3
1530  2FC0B952           const [28]: (1387905071)
1534  04                 const type 4
1535  0F                 string size (15)
1536  416D62756C617344+  "AmbulasD"
153E  726F7070656400     "ropped\0"
                         const [29]: "AmbulasDropped"
1545  03                 const type 3
1546  00000000           const [30]: (0)
154A  01                 const type 3
154B  C7B26461           const [31]: (1633989319)
154F  03                 const type 3
1550  0000003F           const [32]: (0)
1554  04                 const type 4
1555  08                 string size (8)
1556  67526567696F6E00   "gRegion\0"
                         const [33]: "gRegion"
155E  01                 const type 3
155F  73123990           const [34]: (-1875307917)
1563  04                 const type 4
1564  12                 string size (18)
1565  43727044726F7053+  "CrpDropS"
156D  6869704465706172+  "hipDepar"
1575  7400               "t\0"
                         const [35]: "CrpDropShipDepart"
1577  01                 const type 3
1578  A61BE9C5           const [36]: (-974578778)
                         * functions:
157C  00                 sizep (0)
                         * lines:
157D  68                 sizelineinfo (104)
                         [pc] (line)
157E  C1                 [001] (-63)
157F  00                 [002] (-63)
1580  00                 [003] (-63)
1581  00                 [004] (-63)
1582  C1                 [005] (-63)
1583  00                 [006] (-63)
1584  00                 [007] (-62)
1585  00                 [008] (-62)
1586  C1                 [009] (-62)
1587  00                 [010] (-62)
1588  00                 [011] (-62)
1589  00                 [012] (-60)
158A  C1                 [013] (-60)
158B  00                 [014] (-60)
158C  00                 [015] (-58)
158D  00                 [016] (-58)
158E  C1                 [017] (-58)
158F  00                 [018] (-55)
1590  00                 [019] (-55)
1591  00                 [020] (-55)
1592  C1                 [021] (-55)
1593  00                 [022] (-53)
1594  00                 [023] (-53)
1595  00                 [024] (-53)
1596  C2                 [025] (-53)
1597  00                 [026] (-53)
1598  00                 [027] (-53)
1599  00                 [028] (-52)
159A  C2                 [029] (-52)
159B  00                 [030] (-52)
159C  00                 [031] (-51)
159D  00                 [032] (-51)
159E  C2                 [033] (-51)
159F  00                 [034] (-51)
15A0  00                 [035] (-50)
15A1  00                 [036] (-50)
15A2  C2                 [037] (-50)
15A3  00                 [038] (-50)
15A4  00                 [039] (-50)
15A5  00                 [040] (-50)
15A6  C2                 [041] (-50)
15A7  00                 [042] (-50)
15A8  00                 [043] (-50)
15A9  00                 [044] (-50)
15AA  C4                 [045] (-50)
15AB  00                 [046] (-50)
15AC  00                 [047] (-50)
15AD  00                 [048] (-50)
15AE  C4                 [049] (-49)
15AF  00                 [050] (-49)
15B0  00                 [051] (-49)
15B1  00                 [052] (-49)
15B2  C4                 [053] (-49)
15B3  00                 [054] (-51)
15B4  00                 [055] (-48)
15B5  00                 [056] (-44)
15B6  C6                 [057] (-44)
15B7  00                 [058] (-36)
15B8  00                 [059] (-36)
15B9  00                 [060] (-36)
15BA  C6                 [061] (-36)
15BB  00                 [062] (-36)
15BC  00                 [063] (-36)
15BD  00                 [064] (-36)
15BE  C6                 [065] (-36)
15BF  00                 [066] (-36)
15C0  00                 [067] (-35)
15C1  00                 [068] (-35)
15C2  C9                 [069] (-35)
15C3  00                 [070] (-34)
15C4  00                 [071] (-34)
15C5  00                 [072] (-34)
15C6  C9                 [073] (-34)
15C7  00                 [074] (-34)
15C8  00                 [075] (-34)
15C9  00                 [076] (-34)
15CA  C9                 [077] (-34)
15CB  00                 [078] (-31)
15CC  00                 [079] (-31)
15CD  00                 [080] (-31)
15CE  C9                 [081] (-31)
15CF  00                 [082] (-31)
15D0  00                 [083] (-31)
15D1  00                 [084] (-31)
15D2  CB                 [085] (-31)
15D3  00                 [086] (-31)
15D4  00                 [087] (-30)
15D5  00                 [088] (-30)
15D6  CB                 [089] (-30)
15D7  00                 [090] (-30)
15D8  00                 [091] (-26)
15D9  00                 [092] (-26)
15DA  CB                 [093] (-26)
15DB  00                 [094] (-26)
15DC  00                 [095] (-26)
15DD  00                 [096] (-26)
15DE  CB                 [097] (-25)
15DF  00                 [098] (-25)
15E0  00                 [099] (-25)
15E1  00                 [100] (-25)
15E2  CB                 [101] (-25)
15E3  00                 [102] (-24)
15E4  00                 [103] (-24)
15E5  00                 [104] (-20)
                         * locals:
171E  00                 sizelocvars (0)
                         * upvalues:
171F  00                 sizeupvalues (0)
                         ** end of function **

                         
1720                     ** function [8] definition (level 2)
                         ** start of function **
1720  00                 string size (0)
                         source name: (none)
1722  01                 line defined (238)
1723  FC                 last line defined (252)
1724  01                 nups (0)
1725  00                 numparams (1)
1726  01                 is_vararg (0)
1727  00                 maxstacksize (7)
                         * code:
1729  2F                 sizecode (47)
172A  5D000000           [01] getglobal  1   0        ; 1074689893
172E  92000000           [02] move       2   0      
1732  62800001           [03] call       1   2   2  
1736  58400000           [04] test       1       1    ; to [6] if false
173A  1A000A80           [05] jmp        41           ; to [47]
173E  5D400000           [06] getglobal  1   1        ; -1817107093
1742  99800000           [07] loadk      2   2        ; "Dropship exiting. Avatar: "
1746  E4C04000           [08] self       3   0   259  ; 880936306
174A  E2800001           [09] call       3   2   2  
174E  82C00001           [10] concat     2   2   3  
1752  62400001           [11] call       1   2   1  
1756  5D000100           [12] getglobal  1   4        ; gRegion
175A  6440C100           [13] self       1   1   261  ; -1520831144
175E  62800001           [14] call       1   2   2  
1762  58000000           [15] test       1       0    ; to [17] if true
1766  1AC00480           [16] jmp        20           ; to [37]
176A  64804100           [17] self       1   0   262  ; -1917464545
176E  62800001           [18] call       1   2   2  
1772  64C0C100           [19] self       1   1   263  ; 991629753
1776  DD000200           [20] getglobal  3   8        ; Game
177A  CE40C201           [21] gettable   3   3   265  ; "AVATAR_MOVEMENT_SPEED"
177E  1D010200           [22] getglobal  4   8        ; Game
1782  0E814202           [23] gettable   4   4   266  ; "MULTIPLY"
1786  59C10200           [24] loadk      5   11       ; -102
178A  62408002           [25] call       1   5   1  
178E  5D000000           [26] getglobal  1   0        ; 1074689893
1792  A4004300           [27] self       2   0   268  ; -1411785325
1796  A2000001           [28] call       2   2   0  
179A  62800000           [29] call       1   0   2  
179E  58400000           [30] test       1       1    ; to [32] if false
17A2  1A000180           [31] jmp        5            ; to [37]
17A6  64004300           [32] self       1   0   268  ; -1411785325
17AA  62800001           [33] call       1   2   2  
17AE  6440C300           [34] self       1   1   269  ; -1304582908
17B2  D7000000           [35] loadbool   3   0   0    ; false
17B6  62408001           [36] call       1   3   1  
17BA  5D000100           [37] getglobal  1   4        ; gRegion
17BE  6480C300           [38] self       1   1   270  ; -1110225722
17C2  DDC00300           [39] getglobal  3   15       ; exitEffect
17C6  24014400           [40] self       4   0   272  ; 196800914
17CA  22810001           [41] call       4   2   2  
17CE  64414400           [42] self       5   0   273  ; 54877834
17D2  62010001           [43] call       5   2   0  
17D6  62400000           [44] call       1   0   1  
17DA  64804400           [45] self       1   0   274  ; -725453761
17DE  62400001           [46] call       1   2   1  
17E2  1E008000           [47] return     0   1      
                         * constants:
17E6  13                 sizek (19)
17E7  01                 const type 3
17E8  65770E40           const [0]: (1074689893)
17EC  01                 const type 3
17ED  6B25B193           const [1]: (-1817107093)
17F1  04                 const type 4
17F2  1B                 string size (27)
17F3  44726F7073686970+  "Dropship"
17FB  2065786974696E67+  " exiting"
1803  2E20417661746172+  ". Avatar"
180B  3A2000             ": \0"
                         const [2]: "Dropship exiting. Avatar: "
180E  01                 const type 3
180F  72058234           const [3]: (880936306)
1813  04                 const type 4
1814  08                 string size (8)
1815  67526567696F6E00   "gRegion\0"
                         const [4]: "gRegion"
181D  01                 const type 3
181E  58F559A5           const [5]: (-1520831144)
1822  01                 const type 3
1823  1FD0B58D           const [6]: (-1917464545)
1827  01                 const type 3
1828  B9111B3B           const [7]: (991629753)
182C  04                 const type 4
182D  05                 string size (5)
182E  47616D6500         "Game\0"
                         const [8]: "Game"
1833  04                 const type 4
1834  16                 string size (22)
1835  4156415441525F4D+  "AVATAR_M"
183D  4F56454D454E545F+  "OVEMENT_"
1845  535045454400       "SPEED\0"
                         const [9]: "AVATAR_MOVEMENT_SPEED"
184B  04                 const type 4
184C  09                 string size (9)
184D  4D554C5449504C59+  "MULTIPLY"
1855  00                 "\0"
                         const [10]: "MULTIPLY"
1856  03                 const type 3
1857  9A99993F           const [11]: (-102)
185B  01                 const type 3
185C  93DDD9AB           const [12]: (-1411785325)
1860  01                 const type 3
1861  04A53DB2           const [13]: (-1304582908)
1865  01                 const type 3
1866  C64CD3BD           const [14]: (-1110225722)
186A  04                 const type 4
186B  0B                 string size (11)
186C  6578697445666665+  "exitEffe"
1874  637400             "ct\0"
                         const [15]: "exitEffect"
1877  01                 const type 3
1878  92F1BA0B           const [16]: (196800914)
187C  01                 const type 3
187D  8A5E4503           const [17]: (54877834)
1881  01                 const type 3
1882  3F74C2D4           const [18]: (-725453761)
                         * functions:
1886  00                 sizep (0)
                         * lines:
1887  2F                 sizelineinfo (47)
                         [pc] (line)
1888  EF                 [01] (-17)
1889  00                 [02] (-17)
188A  00                 [03] (-17)
188B  00                 [04] (-17)
188C  EF                 [05] (-17)
188D  00                 [06] (-16)
188E  00                 [07] (-16)
188F  00                 [08] (-16)
1890  EF                 [09] (-16)
1891  00                 [10] (-16)
1892  00                 [11] (-16)
1893  00                 [12] (-15)
1894  EF                 [13] (-15)
1895  00                 [14] (-15)
1896  00                 [15] (-15)
1897  00                 [16] (-15)
1898  EF                 [17] (-14)
1899  00                 [18] (-14)
189A  00                 [19] (-14)
189B  00                 [20] (-14)
189C  F0                 [21] (-14)
189D  00                 [22] (-14)
189E  00                 [23] (-14)
189F  00                 [24] (-14)
18A0  F0                 [25] (-14)
18A1  00                 [26] (-13)
18A2  00                 [27] (-13)
18A3  00                 [28] (-13)
18A4  F0                 [29] (-13)
18A5  00                 [30] (-13)
18A6  00                 [31] (-13)
18A7  00                 [32] (-12)
18A8  F0                 [33] (-12)
18A9  00                 [34] (-12)
18AA  00                 [35] (-12)
18AB  00                 [36] (-12)
18AC  F0                 [37] (-7)
18AD  00                 [38] (-7)
18AE  00                 [39] (-7)
18AF  00                 [40] (-7)
18B0  F0                 [41] (-7)
18B1  00                 [42] (-7)
18B2  00                 [43] (-7)
18B3  00                 [44] (-7)
18B4  F1                 [45] (-6)
18B5  00                 [46] (-6)
18B6  00                 [47] (-4)
                         * locals:
1944  00                 sizelocvars (0)
                         * upvalues:
1945  00                 sizeupvalues (0)
                         ** end of function **

                         
1946                     ** function [9] definition (level 2)
                         ** start of function **
1946  00                 string size (0)
                         source name: (none)
1948  01                 line defined (254)
1949  8C                 last line defined (268)
194A  02                 nups (0)
194B  00                 numparams (1)
194C  01                 is_vararg (0)
194D  00                 maxstacksize (9)
                         * code:
194F  19                 sizecode (25)
1950  64004000           [01] self       1   0   256  ; -323635054
1954  62800001           [02] call       1   2   2  
1958  8440C000           [03] mul        2   1   257  ; 23
195C  D9800000           [04] loadk      3   2        ; 0
1960  1DC10000           [05] getglobal  4   3        ; hunterResizeTime
fail op	21
1964  15008101           [06] concat     0   3   4  
1968  1A800380           [07] jmp        15           ; to [23]
196C  5D010100           [08] getglobal  5   4        ; -1828500651
1970  92018000           [09] move       6   1      
1974  D2010001           [10] move       7   2      
1978  1C028101           [11] div        8   3   4  
197C  62810002           [12] call       5   4   2  
1980  A4414100           [13] self       6   0   261  ; 1786666898
1984  12028002           [14] move       8   5      
1988  A2418001           [15] call       6   3   1  
198C  9D810100           [16] getglobal  6   6        ; 538022378
1990  D9810000           [17] loadk      7   2        ; 0
1994  A2410001           [18] call       6   2   1  
1998  9DC10100           [19] getglobal  6   7        ; 1289681407
199C  A2818000           [20] call       6   1   2  
19A0  C3808101           [21] add        3   3   6  
19A4  1A80FB7F           [22] jmp        -17          ; to [6]
19A8  A4014200           [23] self       6   0   264  ; -725453761
19AC  A2410001           [24] call       6   2   1  
19B0  1E008000           [25] return     0   1      
                         * constants:
19B4  09                 sizek (9)
19B5  01                 const type 3
19B6  92B8B5EC           const [0]: (-323635054)
19BA  03                 const type 3
19BB  17B7D138           const [1]: (23)
19BF  03                 const type 3
19C0  00000000           const [2]: (0)
19C4  04                 const type 4
19C5  11                 string size (17)
19C6  68756E7465725265+  "hunterRe"
19CE  73697A6554696D65+  "sizeTime"
19D6  00                 "\0"
                         const [3]: "hunterResizeTime"
19D7  01                 const type 3
19D8  554B0393           const [4]: (-1828500651)
19DC  01                 const type 3
19DD  925F7E6A           const [5]: (1786666898)
19E1  01                 const type 3
19E2  EA911120           const [6]: (538022378)
19E6  01                 const type 3
19E7  FFF9DE4C           const [7]: (1289681407)
19EB  01                 const type 3
19EC  3F74C2D4           const [8]: (-725453761)
                         * functions:
19F0  00                 sizep (0)
                         * lines:
19F1  19                 sizelineinfo (25)
                         [pc] (line)
19F2  FF                 [01] (-1)
19F3  00                 [02] (-1)
19F4  00                 [03] (0)
19F5  00                 [04] (2)
19F6  FF                 [05] (3)
19F7  00                 [06] (4)
19F8  00                 [07] (4)
19F9  00                 [08] (5)
19FA  00                 [09] (5)
19FB  01                 [10] (5)
19FC  00                 [11] (5)
19FD  00                 [12] (5)
19FE  02                 [13] (6)
19FF  01                 [14] (6)
1A00  00                 [15] (6)
1A01  00                 [16] (8)
1A02  03                 [17] (8)
1A03  01                 [18] (8)
1A04  00                 [19] (9)
1A05  00                 [20] (9)
1A06  04                 [21] (9)
1A07  01                 [22] (9)
1A08  00                 [23] (11)
1A09  00                 [24] (11)
1A0A  04                 [25] (12)
                         * locals:
1A56  00                 sizelocvars (0)
                         * upvalues:
1A57  00                 sizeupvalues (0)
                         ** end of function **

                         
1A58                     ** function [10] definition (level 2)
                         ** start of function **
1A58  00                 string size (0)
                         source name: (none)
1A5A  02                 line defined (270)
1A5B  B4                 last line defined (308)
1A5C  02                 nups (0)
1A5D  00                 numparams (1)
1A5E  01                 is_vararg (0)
1A5F  00                 maxstacksize (15)
                         * code:
1A61  3C                 sizecode (60)
1A62  A4004000           [01] self       2   0   256  ; -1957065004
1A66  1D410000           [02] getglobal  4   1        ; gDropshipAvatarType
1A6A  A2808001           [03] call       2   3   2  
1A6E  98000000           [04] test       2       0    ; to [6] if true
1A72  1A400080           [05] jmp        2            ; to [8]
1A76  52000000           [06] move       1   0      
1A7A  1A800380           [07] jmp        15           ; to [23]
1A7E  A4804000           [08] self       2   0   258  ; -1284295806
1A82  A2800001           [09] call       2   2   2  
1A86  D9C00000           [10] loadk      3   3        ; 0
1A8A  0A010001           [11] len        4   2      
1A8E  59C10000           [12] loadk      5   3        ; 0
1A92  D0C00180           [13] forprep    3   8        ; to [22]
1A96  CE810101           [14] gettable   7   2   6  
1A9A  E401C003           [15] self       7   7   256  ; -1957065004
1A9E  5D420000           [16] getglobal  9   1        ; gDropshipAvatarType
1AA2  E2818001           [17] call       7   3   2  
1AA6  D8010000           [18] test       7       0    ; to [20] if true
1AAA  1A400080           [19] jmp        2            ; to [22]
1AAE  4E800101           [20] gettable   1   2   6  
1AB2  1A000080           [21] jmp        1            ; to [23]
1AB6  D480FD7F           [22] forloop    3   -9       ; to [14] if loop
1ABA  DD010100           [23] getglobal  7   4        ; 1074689893
1ABE  12028000           [24] move       8   1      
1AC2  E2810001           [25] call       7   2   2  
1AC6  D8010000           [26] test       7       0    ; to [28] if true
1ACA  1A000080           [27] jmp        1            ; to [29]
1ACE  1E008000           [28] return     0   1      
1AD2  DD410100           [29] getglobal  7   5        ; hunterCloseByScale
1AD6  1D820100           [30] getglobal  8   6        ; hunterFarAwayScale
1ADA  64C24100           [31] self       9   0   263  ; -323635054
1ADE  62820001           [32] call       9   2   2  
1AE2  D2018004           [33] move       7   9      
1AE6  59020200           [34] loadk      9   8        ; 0
1AEA  9D420200           [35] getglobal  10  9        ; hunterResizeTime
fail op	33
1AEE  21808204           [36] tforloop   0       10   ; to [38] if exit
1AF2  1A400580           [37] jmp        22           ; to [60]
1AF6  DD820200           [38] getglobal  11  10       ; -1828500651
1AFA  12038003           [39] move       12  7      
1AFE  52030004           [40] move       13  8      
1B02  9C838204           [41] div        14  9   10 
1B06  E2820002           [42] call       11  4   2  
1B0A  1D030100           [43] getglobal  12  4        ; 1074689893
1B0E  52038000           [44] move       13  1      
1B12  22830001           [45] call       12  2   2  
1B16  18430000           [46] test       12      1    ; to [48] if false
1B1A  1AC00280           [47] jmp        12           ; to [60]
1B1E  24C34200           [48] self       12  0   267  ; 1786666898
1B22  92038005           [49] move       14  11     
1B26  22438001           [50] call       12  3   1  
1B2A  1D030300           [51] getglobal  12  12       ; 538022378
1B2E  59030200           [52] loadk      13  8        ; 0
1B32  22430001           [53] call       12  2   1  
1B36  1D430300           [54] getglobal  12  13       ; 1289681407
1B3A  22838000           [55] call       12  1   2  
1B3E  43028304           [56] add        9   9   12 
1B42  1A40FA7F           [57] jmp        -22          ; to [36]
1B46  1A000080           [58] jmp        1            ; to [60]
1B4A  1AC0F97F           [59] jmp        -24          ; to [36]
1B4E  1E008000           [60] return     0   1      
                         * constants:
1B52  0E                 sizek (14)
1B53  01                 const type 3
1B54  D48E598B           const [0]: (-1957065004)
1B58  04                 const type 4
1B59  14                 string size (20)
1B5A  6744726F70736869+  "gDropshi"
1B62  7041766174617254+  "pAvatarT"
1B6A  79706500           "ype\0"
                         const [1]: "gDropshipAvatarType"
1B6E  01                 const type 3
1B6F  823373B3           const [2]: (-1284295806)
1B73  03                 const type 3
1B74  0000803F           const [3]: (0)
1B78  01                 const type 3
1B79  65770E40           const [4]: (1074689893)
1B7D  04                 const type 4
1B7E  13                 string size (19)
1B7F  68756E746572436C+  "hunterCl"
1B87  6F73654279536361+  "oseBySca"
1B8F  6C6500             "le\0"
                         const [5]: "hunterCloseByScale"
1B92  04                 const type 4
1B93  13                 string size (19)
1B94  68756E7465724661+  "hunterFa"
1B9C  7241776179536361+  "rAwaySca"
1BA4  6C6500             "le\0"
                         const [6]: "hunterFarAwayScale"
1BA7  01                 const type 3
1BA8  92B8B5EC           const [7]: (-323635054)
1BAC  03                 const type 3
1BAD  00000000           const [8]: (0)
1BB1  04                 const type 4
1BB2  11                 string size (17)
1BB3  68756E7465725265+  "hunterRe"
1BBB  73697A6554696D65+  "sizeTime"
1BC3  00                 "\0"
                         const [9]: "hunterResizeTime"
1BC4  01                 const type 3
1BC5  554B0393           const [10]: (-1828500651)
1BC9  01                 const type 3
1BCA  925F7E6A           const [11]: (1786666898)
1BCE  01                 const type 3
1BCF  EA911120           const [12]: (538022378)
1BD3  01                 const type 3
1BD4  FFF9DE4C           const [13]: (1289681407)
                         * functions:
1BD8  00                 sizep (0)
                         * lines:
1BD9  3C                 sizelineinfo (60)
                         [pc] (line)
1BDA  11                 [01] (17)
1BDB  01                 [02] (17)
1BDC  00                 [03] (17)
1BDD  00                 [04] (17)
1BDE  11                 [05] (17)
1BDF  01                 [06] (18)
1BE0  00                 [07] (18)
1BE1  00                 [08] (20)
1BE2  11                 [09] (20)
1BE3  01                 [10] (21)
1BE4  00                 [11] (21)
1BE5  00                 [12] (21)
1BE6  11                 [13] (21)
1BE7  01                 [14] (22)
1BE8  00                 [15] (22)
1BE9  00                 [16] (22)
1BEA  11                 [17] (22)
1BEB  01                 [18] (22)
1BEC  00                 [19] (22)
1BED  00                 [20] (23)
1BEE  12                 [21] (24)
1BEF  01                 [22] (21)
1BF0  00                 [23] (29)
1BF1  00                 [24] (29)
1BF2  12                 [25] (29)
1BF3  01                 [26] (29)
1BF4  00                 [27] (29)
1BF5  00                 [28] (30)
1BF6  14                 [29] (33)
1BF7  01                 [30] (34)
1BF8  00                 [31] (36)
1BF9  00                 [32] (36)
1BFA  14                 [33] (36)
1BFB  01                 [34] (38)
1BFC  00                 [35] (39)
1BFD  00                 [36] (40)
1BFE  15                 [37] (40)
1BFF  01                 [38] (41)
1C00  00                 [39] (41)
1C01  00                 [40] (41)
1C02  15                 [41] (41)
1C03  01                 [42] (41)
1C04  00                 [43] (42)
1C05  00                 [44] (42)
1C06  15                 [45] (42)
1C07  01                 [46] (42)
1C08  00                 [47] (42)
1C09  00                 [48] (43)
1C0A  15                 [49] (43)
1C0B  01                 [50] (43)
1C0C  00                 [51] (45)
1C0D  00                 [52] (45)
1C0E  16                 [53] (45)
1C0F  01                 [54] (46)
1C10  00                 [55] (46)
1C11  00                 [56] (46)
1C12  16                 [57] (46)
1C13  01                 [58] (48)
1C14  00                 [59] (49)
1C15  00                 [60] (52)
                         * locals:
1CCA  00                 sizelocvars (0)
                         * upvalues:
1CCB  00                 sizeupvalues (0)
                         ** end of function **

                         
1CCC                     ** function [11] definition (level 2)
                         ** start of function **
1CCC  00                 string size (0)
                         source name: (none)
1CCE  02                 line defined (310)
1CCF  90                 last line defined (400)
1CD0  03                 nups (8)
1CD1  08                 numparams (1)
1CD2  01                 is_vararg (0)
1CD3  00                 maxstacksize (19)
                         * code:
1CD6  01                 sizecode (223)
1CD7  A4004000           [001] self       2   0   256  ; -1957065004
1CDB  1D410000           [002] getglobal  4   1        ; gDropshipAvatarType
1CDF  A2808001           [003] call       2   3   2  
1CE3  98000000           [004] test       2       0    ; to [6] if true
1CE7  1A400080           [005] jmp        2            ; to [8]
1CEB  52000000           [006] move       1   0      
1CEF  1A800380           [007] jmp        15           ; to [23]
1CF3  A4804000           [008] self       2   0   258  ; -1284295806
1CF7  A2800001           [009] call       2   2   2  
1CFB  D9C00000           [010] loadk      3   3        ; 0
1CFF  0A010001           [011] len        4   2      
1D03  59C10000           [012] loadk      5   3        ; 0
1D07  D0C00180           [013] forprep    3   8        ; to [22]
1D0B  CE810101           [014] gettable   7   2   6  
1D0F  E401C003           [015] self       7   7   256  ; -1957065004
1D13  5D420000           [016] getglobal  9   1        ; gDropshipAvatarType
1D17  E2818001           [017] call       7   3   2  
1D1B  D8010000           [018] test       7       0    ; to [20] if true
1D1F  1A400080           [019] jmp        2            ; to [22]
1D23  4E800101           [020] gettable   1   2   6  
1D27  1A000080           [021] jmp        1            ; to [23]
1D2B  D480FD7F           [022] forloop    3   -9       ; to [14] if loop
1D2F  DD010100           [023] getglobal  7   4        ; 1074689893
1D33  12028000           [024] move       8   1      
1D37  E2810001           [025] call       7   2   2  
1D3B  D8010000           [026] test       7       0    ; to [28] if true
1D3F  1A000080           [027] jmp        1            ; to [29]
1D43  1E008000           [028] return     0   1      
1D47  D7010000           [029] loadbool   7   0   0    ; false
1D4B  17020000           [030] loadbool   8   0   0    ; false
1D4F  5D420100           [031] getglobal  9   5        ; 2144646525
1D53  99C20000           [032] loadk      10  3        ; 0
1D57  D9820100           [033] loadk      11  6        ; 0
1D5B  62828001           [034] call       9   3   2  
1D5F  93020000           [035] getupval   10  0      
fail op	21
1D63  15808204           [036] concat     0   9   10 
1D67  1A000080           [037] jmp        1            ; to [39]
1D6B  D7018000           [038] loadbool   7   1   0    ; true
1D6F  5D420100           [039] getglobal  9   5        ; 2144646525
1D73  99C20000           [040] loadk      10  3        ; 0
1D77  D9820100           [041] loadk      11  6        ; 0
1D7B  62828001           [042] call       9   3   2  
1D7F  93028000           [043] getupval   10  1      
fail op	21
1D83  15808204           [044] concat     0   9   10 
1D87  1A000080           [045] jmp        1            ; to [47]
1D8B  17028000           [046] loadbool   8   1   0    ; true
1D8F  46028004           [047] loadnil    9   9      
1D93  D8010000           [048] test       7       0    ; to [50] if true
1D97  1AC00180           [049] jmp        8            ; to [58]
1D9B  9DC20100           [050] getglobal  10  7        ; gRegion
1D9F  A4024205           [051] self       10  10  264  ; -1485896174
1DA3  1D430200           [052] getglobal  12  9        ; -332969190
1DA7  59830200           [053] loadk      13  10       ; "FighterShipSideways"
1DAB  22030001           [054] call       12  2   0  
1DAF  A2820000           [055] call       10  0   2  
1DB3  52020005           [056] move       9   10     
1DB7  1AC00680           [057] jmp        28           ; to [86]
1DBB  9DC20200           [058] getglobal  10  11       ; hunterShipShallReturn
1DBF  98020000           [059] test       10      0    ; to [61] if true
1DC3  1A400480           [060] jmp        18           ; to [79]
1DC7  18020000           [061] test       8       0    ; to [63] if true
1DCB  1AC00180           [062] jmp        8            ; to [71]
1DCF  9DC20100           [063] getglobal  10  7        ; gRegion
1DD3  A4024205           [064] self       10  10  264  ; -1485896174
1DD7  1D430200           [065] getglobal  12  9        ; -332969190
1DDB  59030300           [066] loadk      13  12       ; "FighterShipForward"
1DDF  22030001           [067] call       12  2   0  
1DE3  A2820000           [068] call       10  0   2  
1DE7  52020005           [069] move       9   10     
1DEB  1A800380           [070] jmp        15           ; to [86]
1DEF  9DC20100           [071] getglobal  10  7        ; gRegion
1DF3  A4024205           [072] self       10  10  264  ; -1485896174
1DF7  1D430200           [073] getglobal  12  9        ; -332969190
1DFB  59430300           [074] loadk      13  13       ; "FighterShipBackward"
1DFF  22030001           [075] call       12  2   0  
1E03  A2820000           [076] call       10  0   2  
1E07  52020005           [077] move       9   10     
1E0B  1A800180           [078] jmp        7            ; to [86]
1E0F  9DC20100           [079] getglobal  10  7        ; gRegion
1E13  A4024205           [080] self       10  10  264  ; -1485896174
1E17  1D430200           [081] getglobal  12  9        ; -332969190
1E1B  59030300           [082] loadk      13  12       ; "FighterShipForward"
1E1F  22030001           [083] call       12  2   0  
1E23  A2820000           [084] call       10  0   2  
1E27  52020005           [085] move       9   10     
1E2B  A482C300           [086] self       10  1   270  ; 1927666530
1E2F  A2820001           [087] call       10  2   2  
1E33  C6028005           [088] loadnil    11  11     
1E37  1D030100           [089] getglobal  12  4        ; 1074689893
1E3B  52030005           [090] move       13  10     
1E3F  22830001           [091] call       12  2   2  
1E43  18430000           [092] test       12      1    ; to [94] if false
1E47  1A800080           [093] jmp        3            ; to [97]
1E4B  24C34305           [094] self       12  10  271  ; -2104556066
1E4F  22830001           [095] call       12  2   2  
1E53  D2020006           [096] move       11  12     
1E57  13030001           [097] getupval   12  2      
1E5B  0E034406           [098] gettable   12  12  272  ; -906366013
1E5F  52038004           [099] move       13  9      
1E63  92038005           [100] move       14  11     
1E67  22838001           [101] call       12  3   2  
1E6B  5D030100           [102] getglobal  13  4        ; 1074689893
1E6F  92038000           [103] move       14  1      
1E73  62830001           [104] call       13  2   2  
1E77  58430000           [105] test       13      1    ; to [107] if false
1E7B  1AC01C80           [106] jmp        116          ; to [223]
1E7F  5D430100           [107] getglobal  13  5        ; 2144646525
1E83  99C30000           [108] loadk      14  3        ; 0
1E87  CA030006           [109] len        15  12     
1E8B  62838001           [110] call       13  3   2  
1E8F  4E430306           [111] gettable   13  12  13 
1E93  9D030100           [112] getglobal  14  4        ; 1074689893
1E97  D2038006           [113] move       15  13     
1E9B  A2830001           [114] call       14  2   2  
1E9F  98430000           [115] test       14      1    ; to [117] if false
1EA3  1AC00680           [116] jmp        28           ; to [145]
1EA7  9D030100           [117] getglobal  14  4        ; 1074689893
1EAB  D2038000           [118] move       15  1      
1EAF  A2830001           [119] call       14  2   2  
1EB3  98430000           [120] test       14      1    ; to [122] if false
1EB7  1A800580           [121] jmp        23           ; to [145]
1EBB  A4434400           [122] self       14  0   273  ; -1923578185
1EBF  19840400           [123] loadk      16  18       ; "Hide"
1EC3  A2438001           [124] call       14  3   1  
1EC7  A4C34400           [125] self       14  0   275  ; 1786666898
1ECB  13048001           [126] getupval   16  3      
1ECF  A2438001           [127] call       14  3   1  
1ED3  A403C500           [128] self       14  1   276  ; 2109594123
1ED7  17040000           [129] loadbool   16  0   0    ; false
1EDB  A2438001           [130] call       14  3   1  
1EDF  9D030100           [131] getglobal  14  4        ; 1074689893
1EE3  E443C500           [132] self       15  1   277  ; -1411785325
1EE7  E2030001           [133] call       15  2   0  
1EEB  A2830000           [134] call       14  0   2  
1EEF  98430000           [135] test       14      1    ; to [137] if false
1EF3  1AC00180           [136] jmp        8            ; to [145]
1EF7  A443C500           [137] self       14  1   277  ; -1411785325
1EFB  A2830001           [138] call       14  2   2  
1EFF  A4834507           [139] self       14  14  278  ; 1038470555
1F03  17048000           [140] loadbool   16  1   0    ; true
1F07  5D440200           [141] getglobal  17  9        ; -332969190
1F0B  99C40500           [142] loadk      18  23       ; "FIGHTER_END"
1F0F  62040001           [143] call       17  2   0  
1F13  A2430000           [144] call       14  0   1  
1F17  18020000           [145] test       8       0    ; to [147] if true
1F1B  1A800180           [146] jmp        7            ; to [154]
1F1F  9D030600           [147] getglobal  14  24       ; 538022378
1F23  DD430100           [148] getglobal  15  5        ; 2144646525
1F27  13040002           [149] getupval   16  4      
1F2B  53048002           [150] getupval   17  5      
1F2F  E2038001           [151] call       15  3   0  
1F33  A2430000           [152] call       14  0   1  
1F37  1A000280           [153] jmp        9            ; to [163]
1F3B  D8010000           [154] test       7       0    ; to [156] if true
1F3F  1AC00080           [155] jmp        4            ; to [160]
1F43  9D030600           [156] getglobal  14  24       ; 538022378
1F47  D3030003           [157] getupval   15  6      
1F4B  A2430001           [158] call       14  2   1  
1F4F  1A800080           [159] jmp        3            ; to [163]
1F53  9D030600           [160] getglobal  14  24       ; 538022378
1F57  D3038003           [161] getupval   15  7      
1F5B  A2430001           [162] call       14  2   1  
1F5F  9D430600           [163] getglobal  14  25       ; Effects
1F63  8E834607           [164] gettable   14  14  282  ; 71290280
1F67  D2038000           [165] move       15  1      
1F6B  1DC40600           [166] getglobal  16  27       ; gParticleSysType
1F6F  A2438001           [167] call       14  3   1  
1F73  9D030600           [168] getglobal  14  24       ; 538022378
1F77  D9030700           [169] loadk      15  28       ; -51
1F7B  A2430001           [170] call       14  2   1  
1F7F  9D030100           [171] getglobal  14  4        ; 1074689893
1F83  D2038006           [172] move       15  13     
1F87  A2830001           [173] call       14  2   2  
1F8B  98430000           [174] test       14      1    ; to [176] if false
1F8F  1A800B80           [175] jmp        47           ; to [223]
1F93  9D030100           [176] getglobal  14  4        ; 1074689893
1F97  D2038000           [177] move       15  1      
1F9B  A2830001           [178] call       14  2   2  
1F9F  98430000           [179] test       14      1    ; to [181] if false
1FA3  1A400A80           [180] jmp        42           ; to [223]
1FA7  A443C700           [181] self       14  1   285  ; -1990411311
1FAB  A2430001           [182] call       14  2   1  
1FAF  A483C700           [183] self       14  1   286  ; 1146685999
1FB3  12048006           [184] move       16  13     
1FB7  5D440200           [185] getglobal  17  9        ; -332969190
1FBB  99C40700           [186] loadk      18  31       ; "GAME_C1_ROOT"
1FBF  62040001           [187] call       17  2   0  
1FC3  A2430000           [188] call       14  0   1  
1FC7  A4C3C406           [189] self       14  13  275  ; 1786666898
1FCB  13048001           [190] getupval   16  3      
1FCF  A2438001           [191] call       14  3   1  
1FD3  A403C500           [192] self       14  1   276  ; 2109594123
1FD7  17048000           [193] loadbool   16  1   0    ; true
1FDB  A2438001           [194] call       14  3   1  
1FDF  A443C406           [195] self       14  13  273  ; -1923578185
1FE3  19040800           [196] loadk      16  32       ; "Start"
1FE7  A2438001           [197] call       14  3   1  
1FEB  A443C406           [198] self       14  13  273  ; -1923578185
1FEF  19440800           [199] loadk      16  33       ; "Show"
1FF3  A2438001           [200] call       14  3   1  
1FF7  9D030600           [201] getglobal  14  24       ; 538022378
1FFB  D9C30000           [202] loadk      15  3        ; 0
1FFF  A2430001           [203] call       14  2   1  
2003  9D430600           [204] getglobal  14  25       ; Effects
2007  8E834807           [205] gettable   14  14  290  ; -1092067834
200B  D2038000           [206] move       15  1      
200F  1DC40600           [207] getglobal  16  27       ; gParticleSysType
2013  A2438001           [208] call       14  3   1  
2017  9D030100           [209] getglobal  14  4        ; 1074689893
201B  E443C500           [210] self       15  1   277  ; -1411785325
201F  E2030001           [211] call       15  2   0  
2023  A2830000           [212] call       14  0   2  
2027  98430000           [213] test       14      1    ; to [215] if false
202B  1AC00180           [214] jmp        8            ; to [223]
202F  A443C500           [215] self       14  1   277  ; -1411785325
2033  A2830001           [216] call       14  2   2  
2037  A4834507           [217] self       14  14  278  ; 1038470555
203B  17040000           [218] loadbool   16  0   0    ; false
203F  5D440200           [219] getglobal  17  9        ; -332969190
2043  99C40500           [220] loadk      18  23       ; "FIGHTER_END"
2047  62040001           [221] call       17  2   0  
204B  A2430000           [222] call       14  0   1  
204F  1E008000           [223] return     0   1      
                         * constants:
2053  23                 sizek (35)
2054  01                 const type 3
2055  D48E598B           const [0]: (-1957065004)
2059  04                 const type 4
205A  14                 string size (20)
205B  6744726F70736869+  "gDropshi"
2063  7041766174617254+  "pAvatarT"
206B  79706500           "ype\0"
                         const [1]: "gDropshipAvatarType"
206F  01                 const type 3
2070  823373B3           const [2]: (-1284295806)
2074  03                 const type 3
2075  0000803F           const [3]: (0)
2079  01                 const type 3
207A  65770E40           const [4]: (1074689893)
207E  01                 const type 3
207F  7DB5D47F           const [5]: (2144646525)
2083  03                 const type 3
2084  0000C842           const [6]: (0)
2088  04                 const type 4
2089  08                 string size (8)
208A  67526567696F6E00   "gRegion\0"
                         const [7]: "gRegion"
2092  01                 const type 3
2093  12066FA7           const [8]: (-1485896174)
2097  01                 const type 3
2098  1A4B27EC           const [9]: (-332969190)
209C  04                 const type 4
209D  14                 string size (20)
209E  4669676874657253+  "FighterS"
20A6  6869705369646577+  "hipSidew"
20AE  61797300           "ays\0"
                         const [10]: "FighterShipSideways"
20B2  04                 const type 4
20B3  16                 string size (22)
20B4  68756E7465725368+  "hunterSh"
20BC  69705368616C6C52+  "ipShallR"
20C4  657475726E00       "eturn\0"
                         const [11]: "hunterShipShallReturn"
20CA  04                 const type 4
20CB  13                 string size (19)
20CC  4669676874657253+  "FighterS"
20D4  686970466F727761+  "hipForwa"
20DC  726400             "rd\0"
                         const [12]: "FighterShipForward"
20DF  04                 const type 4
20E0  14                 string size (20)
20E1  4669676874657253+  "FighterS"
20E9  6869704261636B77+  "hipBackw"
20F1  61726400           "ard\0"
                         const [13]: "FighterShipBackward"
20F5  01                 const type 3
20F6  62DBE572           const [14]: (1927666530)
20FA  01                 const type 3
20FB  DE058F82           const [15]: (-2104556066)
20FF  01                 const type 3
2100  C3F3F9C9           const [16]: (-906366013)
2104  01                 const type 3
2105  B786588D           const [17]: (-1923578185)
2109  04                 const type 4
210A  05                 string size (5)
210B  4869646500         "Hide\0"
                         const [18]: "Hide"
2110  01                 const type 3
2111  925F7E6A           const [19]: (1786666898)
2115  01                 const type 3
2116  0BDABD7D           const [20]: (2109594123)
211A  01                 const type 3
211B  93DDD9AB           const [21]: (-1411785325)
211F  01                 const type 3
2120  9BCDE53D           const [22]: (1038470555)
2124  04                 const type 4
2125  0C                 string size (12)
2126  464947485445525F+  "FIGHTER_"
212E  454E4400           "END\0"
                         const [23]: "FIGHTER_END"
2132  01                 const type 3
2133  EA911120           const [24]: (538022378)
2137  04                 const type 4
2138  08                 string size (8)
2139  4566666563747300   "Effects\0"
                         const [25]: "Effects"
2141  01                 const type 3
2142  A8CD3F04           const [26]: (71290280)
2146  04                 const type 4
2147  11                 string size (17)
2148  675061727469636C+  "gParticl"
2150  6553797354797065+  "eSysType"
2158  00                 "\0"
                         const [27]: "gParticleSysType"
2159  03                 const type 3
215A  CDCC4C3E           const [28]: (-51)
215E  01                 const type 3
215F  D1BB5C89           const [29]: (-1990411311)
2163  01                 const type 3
2164  2F0A5944           const [30]: (1146685999)
2168  04                 const type 4
2169  0D                 string size (13)
216A  47414D455F43315F+  "GAME_C1_"
2172  524F4F5400         "ROOT\0"
                         const [31]: "GAME_C1_ROOT"
2177  04                 const type 4
2178  06                 string size (6)
2179  537461727400       "Start\0"
                         const [32]: "Start"
217F  04                 const type 4
2180  05                 string size (5)
2181  53686F7700         "Show\0"
                         const [33]: "Show"
2186  01                 const type 3
2187  065EE8BE           const [34]: (-1092067834)
                         * functions:
218B  00                 sizep (0)
                         * lines:
218D  01                 sizelineinfo (223)
                         [pc] (line)
218E  39                 [001] (57)
218F  01                 [002] (57)
2190  00                 [003] (57)
2191  00                 [004] (57)
2192  39                 [005] (57)
2193  01                 [006] (58)
2194  00                 [007] (58)
2195  00                 [008] (60)
2196  39                 [009] (60)
2197  01                 [010] (61)
2198  00                 [011] (61)
2199  00                 [012] (61)
219A  39                 [013] (61)
219B  01                 [014] (62)
219C  00                 [015] (62)
219D  00                 [016] (62)
219E  39                 [017] (62)
219F  01                 [018] (62)
21A0  00                 [019] (62)
21A1  00                 [020] (63)
21A2  3A                 [021] (64)
21A3  01                 [022] (61)
21A4  00                 [023] (69)
21A5  00                 [024] (69)
21A6  3A                 [025] (69)
21A7  01                 [026] (69)
21A8  00                 [027] (69)
21A9  00                 [028] (70)
21AA  3C                 [029] (73)
21AB  01                 [030] (74)
21AC  00                 [031] (76)
21AD  00                 [032] (76)
21AE  3C                 [033] (76)
21AF  01                 [034] (76)
21B0  00                 [035] (76)
21B1  00                 [036] (76)
21B2  3D                 [037] (76)
21B3  01                 [038] (77)
21B4  00                 [039] (80)
21B5  00                 [040] (80)
21B6  3D                 [041] (80)
21B7  01                 [042] (80)
21B8  00                 [043] (80)
21B9  00                 [044] (80)
21BA  3D                 [045] (80)
21BB  01                 [046] (81)
21BC  00                 [047] (84)
21BD  00                 [048] (86)
21BE  3D                 [049] (86)
21BF  01                 [050] (87)
21C0  00                 [051] (87)
21C1  00                 [052] (87)
21C2  3E                 [053] (87)
21C3  01                 [054] (87)
21C4  00                 [055] (87)
21C5  00                 [056] (87)
21C6  3E                 [057] (87)
21C7  01                 [058] (88)
21C8  00                 [059] (88)
21C9  00                 [060] (88)
21CA  3E                 [061] (89)
21CB  01                 [062] (89)
21CC  00                 [063] (90)
21CD  00                 [064] (90)
21CE  3E                 [065] (90)
21CF  01                 [066] (90)
21D0  00                 [067] (90)
21D1  00                 [068] (90)
21D2  3E                 [069] (90)
21D3  01                 [070] (90)
21D4  00                 [071] (92)
21D5  00                 [072] (92)
21D6  3E                 [073] (92)
21D7  01                 [074] (92)
21D8  00                 [075] (92)
21D9  00                 [076] (92)
21DA  3F                 [077] (92)
21DB  01                 [078] (93)
21DC  00                 [079] (95)
21DD  00                 [080] (95)
21DE  40                 [081] (95)
21DF  01                 [082] (95)
21E0  00                 [083] (95)
21E1  00                 [084] (95)
21E2  3D                 [085] (95)
21E3  01                 [086] (97)
21E4  00                 [087] (97)
21E5  00                 [088] (98)
21E6  45                 [089] (99)
21E7  01                 [090] (99)
21E8  00                 [091] (99)
21E9  00                 [092] (99)
21EA  45                 [093] (99)
21EB  01                 [094] (100)
21EC  00                 [095] (100)
21ED  00                 [096] (100)
21EE  45                 [097] (103)
21EF  01                 [098] (103)
21F0  00                 [099] (103)
21F1  00                 [100] (103)
21F2  45                 [101] (103)
21F3  01                 [102] (105)
21F4  00                 [103] (105)
21F5  00                 [104] (105)
21F6  45                 [105] (105)
21F7  01                 [106] (105)
21F8  00                 [107] (107)
21F9  00                 [108] (107)
21FA  46                 [109] (107)
21FB  01                 [110] (107)
21FC  00                 [111] (107)
21FD  00                 [112] (108)
21FE  49                 [113] (108)
21FF  01                 [114] (108)
2200  00                 [115] (108)
2201  00                 [116] (108)
2202  4A                 [117] (108)
2203  01                 [118] (108)
2204  00                 [119] (108)
2205  00                 [120] (108)
2206  4C                 [121] (108)
2207  01                 [122] (109)
2208  00                 [123] (109)
2209  00                 [124] (109)
220A  4C                 [125] (110)
220B  01                 [126] (110)
220C  00                 [127] (110)
220D  00                 [128] (111)
220E  4C                 [129] (111)
220F  01                 [130] (111)
2210  00                 [131] (112)
2211  00                 [132] (112)
2212  4C                 [133] (112)
2213  01                 [134] (112)
2214  00                 [135] (112)
2215  00                 [136] (112)
2216  4C                 [137] (113)
2217  01                 [138] (113)
2218  00                 [139] (113)
2219  00                 [140] (113)
221A  4C                 [141] (113)
221B  01                 [142] (113)
221C  00                 [143] (113)
221D  00                 [144] (113)
221E  4C                 [145] (117)
221F  01                 [146] (117)
2220  00                 [147] (118)
2221  00                 [148] (118)
2222  4D                 [149] (118)
2223  01                 [150] (118)
2224  00                 [151] (118)
2225  00                 [152] (118)
2226  50                 [153] (118)
2227  01                 [154] (119)
2228  00                 [155] (119)
2229  00                 [156] (120)
222A  50                 [157] (120)
222B  01                 [158] (120)
222C  00                 [159] (120)
222D  00                 [160] (122)
222E  50                 [161] (122)
222F  01                 [162] (122)
2230  00                 [163] (125)
2231  00                 [164] (125)
2232  50                 [165] (125)
2233  01                 [166] (125)
2234  00                 [167] (125)
2235  00                 [168] (127)
2236  50                 [169] (127)
2237  01                 [170] (127)
2238  00                 [171] (-127)
2239  00                 [172] (-127)
223A  50                 [173] (-127)
223B  01                 [174] (-127)
223C  00                 [175] (-127)
223D  00                 [176] (-127)
223E  50                 [177] (-127)
223F  01                 [178] (-127)
2240  00                 [179] (-127)
2241  00                 [180] (-127)
2242  51                 [181] (-126)
2243  01                 [182] (-126)
2244  00                 [183] (-124)
2245  00                 [184] (-124)
2246  54                 [185] (-124)
2247  01                 [186] (-124)
2248  00                 [187] (-124)
2249  00                 [188] (-124)
224A  56                 [189] (-123)
224B  01                 [190] (-123)
224C  00                 [191] (-123)
224D  00                 [192] (-122)
224E  56                 [193] (-122)
224F  01                 [194] (-122)
2250  00                 [195] (-121)
2251  00                 [196] (-121)
2252  57                 [197] (-121)
2253  01                 [198] (-120)
2254  00                 [199] (-120)
2255  00                 [200] (-120)
2256  57                 [201] (-119)
2257  01                 [202] (-119)
2258  00                 [203] (-119)
2259  00                 [204] (-118)
225A  57                 [205] (-118)
225B  01                 [206] (-118)
225C  00                 [207] (-118)
225D  00                 [208] (-118)
225E  57                 [209] (-117)
225F  01                 [210] (-117)
2260  00                 [211] (-117)
2261  00                 [212] (-117)
2262  57                 [213] (-117)
2263  01                 [214] (-117)
2264  00                 [215] (-116)
2265  00                 [216] (-116)
2266  57                 [217] (-116)
2267  01                 [218] (-116)
2268  00                 [219] (-116)
2269  00                 [220] (-116)
226A  57                 [221] (-116)
226B  01                 [222] (-116)
226C  00                 [223] (-112)
                         * locals:
250A  00                 sizelocvars (0)
                         * upvalues:
250B  00                 sizeupvalues (0)
                         ** end of function **

                         
250C                     ** function [12] definition (level 2)
                         ** start of function **
250C  00                 string size (0)
                         source name: (none)
250E  03                 line defined (402)
250F  94                 last line defined (404)
2510  03                 nups (1)
2511  01                 numparams (1)
2512  01                 is_vararg (0)
2513  00                 maxstacksize (3)
                         * code:
2515  04                 sizecode (4)
2516  53000000           [1] getupval   1   0      
251A  92000000           [2] move       2   0      
251E  62400001           [3] call       1   2   1  
2522  1E008000           [4] return     0   1      
                         * constants:
2526  00                 sizek (0)
                         * functions:
2527  00                 sizep (0)
                         * lines:
2528  04                 sizelineinfo (4)
                         [pc] (line)
2529  93                 [1] (-109)
252A  01                 [2] (-109)
252B  00                 [3] (-109)
252C  00                 [4] (-108)
                         * locals:
2539  00                 sizelocvars (0)
                         * upvalues:
253A  00                 sizeupvalues (0)
                         ** end of function **

                         
253B                     ** function [13] definition (level 2)
                         ** start of function **
253B  00                 string size (0)
                         source name: (none)
253D  03                 line defined (407)
253E  9D                 last line defined (413)
253F  03                 nups (1)
2540  01                 numparams (1)
2541  01                 is_vararg (0)
2542  00                 maxstacksize (3)
                         * code:
2544  0D                 sizecode (13)
2545  53000000           [01] getupval   1   0      
2549  62408000           [02] call       1   1   1  
254D  5D000000           [03] getglobal  1   0        ; 538022378
2551  99400000           [04] loadk      2   1        ; 51
2555  62400001           [05] call       1   2   1  
2559  5D800000           [06] getglobal  1   2        ; 1074689893
255D  92000000           [07] move       2   0      
2561  62800001           [08] call       1   2   2  
2565  58400000           [09] test       1       1    ; to [11] if false
2569  1A400080           [10] jmp        2            ; to [13]
256D  64C04000           [11] self       1   0   259  ; -725453761
2571  62400001           [12] call       1   2   1  
2575  1E008000           [13] return     0   1      
                         * constants:
2579  04                 sizek (4)
257A  01                 const type 3
257B  EA911120           const [0]: (538022378)
257F  03                 const type 3
2580  3333B33F           const [1]: (51)
2584  01                 const type 3
2585  65770E40           const [2]: (1074689893)
2589  01                 const type 3
258A  3F74C2D4           const [3]: (-725453761)
                         * functions:
258E  00                 sizep (0)
                         * lines:
258F  0D                 sizelineinfo (13)
                         [pc] (line)
2590  98                 [01] (-104)
2591  01                 [02] (-104)
2592  00                 [03] (-103)
2593  00                 [04] (-103)
2594  98                 [05] (-103)
2595  01                 [06] (-102)
2596  00                 [07] (-102)
2597  00                 [08] (-102)
2598  99                 [09] (-102)
2599  01                 [10] (-102)
259A  00                 [11] (-101)
259B  00                 [12] (-101)
259C  99                 [13] (-99)
                         * locals:
25C4  00                 sizelocvars (0)
                         * upvalues:
25C5  00                 sizeupvalues (0)
                         ** end of function **

                         
25C6                     ** function [14] definition (level 2)
                         ** start of function **
25C6  00                 string size (0)
                         source name: (none)
25C8  03                 line defined (415)
25C9  FC                 last line defined (508)
25CA  03                 nups (8)
25CB  08                 numparams (1)
25CC  01                 is_vararg (0)
25CD  00                 maxstacksize (23)
                         * code:
25D0  01                 sizecode (222)
25D1  57000000           [001] loadbool   1   0   0    ; false
25D5  9D000000           [002] getglobal  2   0        ; gGameRules
25D9  A4404001           [003] self       2   2   257  ; -317790213
25DD  13010000           [004] getupval   4   0      
25E1  53018000           [005] getupval   5   1      
25E5  A2800002           [006] call       2   4   2  
25E9  D3008000           [007] getupval   3   1      
fail op	35
25ED  23C00001           [008] close      0  
25F1  1A000380           [009] jmp        13           ; to [23]
25F5  DD800000           [010] getglobal  3   2        ; gRegion
25F9  E4C0C001           [011] self       3   3   259  ; 152279552
25FD  64014100           [012] self       5   0   260  ; -491574171
2601  62010001           [013] call       5   2   0  
2605  E2800000           [014] call       3   0   2  
2609  0A018001           [015] len        4   3      
260D  5D010000           [016] getglobal  5   0        ; gGameRules
2611  6441C102           [017] self       5   5   261  ; -803877924
2615  D3010000           [018] getupval   7   0      
2619  12020002           [019] move       8   4      
261D  62410002           [020] call       5   4   1  
2621  92000002           [021] move       2   4      
2625  1AC00280           [022] jmp        12           ; to [35]
fail op	33
2629  21804101           [023] tforloop   0       262  ; to [25] if exit
262D  1A800080           [024] jmp        3            ; to [28]
2631  57010000           [025] loadbool   5   0   0    ; false
2635  5E010001           [026] return     5   2      
2639  1A800180           [027] jmp        7            ; to [35]
263D  5DC10100           [028] getglobal  5   7        ; 1074689893
2641  9D010200           [029] getglobal  6   8        ; _T
2645  8E414203           [030] gettable   6   6   265  ; "DropshipNextEventTime"
2649  62810001           [031] call       5   2   2  
264D  58010000           [032] test       5       0    ; to [34] if true
2651  1A000080           [033] jmp        1            ; to [35]
2655  57008000           [034] loadbool   1   1   0    ; true
2659  5D810200           [035] getglobal  5   10       ; 1491452635
265D  62818000           [036] call       5   1   2  
2661  9DC10100           [037] getglobal  6   7        ; 1074689893
2665  DD010200           [038] getglobal  7   8        ; _T
2669  CE41C203           [039] gettable   7   7   265  ; "DropshipNextEventTime"
266D  A2810001           [040] call       6   2   2  
2671  98010000           [041] test       6       0    ; to [43] if true
2675  1A800380           [042] jmp        15           ; to [58]
2679  58000000           [043] test       1       0    ; to [45] if true
267D  1A400280           [044] jmp        10           ; to [55]
2681  9D010200           [045] getglobal  6   8        ; _T
2685  DDC10200           [046] getglobal  7   11       ; 2144646525
2689  13020001           [047] getupval   8   2      
268D  53028001           [048] getupval   9   3      
2691  E2818001           [049] call       7   3   2  
2695  C3C18102           [050] add        7   5   7  
2699  8CC18184           [051] settable   6   265 7    ; "DropshipNextEventTime"
269D  97010000           [052] loadbool   6   0   0    ; false
26A1  9E010001           [053] return     6   2      
26A5  1A400280           [054] jmp        10           ; to [65]
26A9  9D010200           [055] getglobal  6   8        ; _T
26AD  8C81C184           [056] settable   6   265 262  ; "DropshipNextEventTime" 0
26B1  1A800180           [057] jmp        7            ; to [65]
26B5  9D010200           [058] getglobal  6   8        ; _T
26B9  8E414203           [059] gettable   6   6   265  ; "DropshipNextEventTime"
26BD  8D410103           [060] sub        6   6   5  
fail op	21
26C1  15800183           [061] concat     0   262 6  
26C5  1A400080           [062] jmp        2            ; to [65]
26C9  97010000           [063] loadbool   6   0   0    ; false
26CD  9E010001           [064] return     6   2      
26D1  9D810000           [065] getglobal  6   2        ; gRegion
26D5  A4014303           [066] self       6   6   268  ; -774964848
26D9  A2810001           [067] call       6   2   2  
26DD  E4414303           [068] self       7   6   269  ; 537471347
26E1  E2810001           [069] call       7   2   2  
26E5  1DC20100           [070] getglobal  8   7        ; 1074689893
26E9  52028003           [071] move       9   7      
26ED  22820001           [072] call       8   2   2  
26F1  18420000           [073] test       8       1    ; to [75] if false
26F5  1A000180           [074] jmp        5            ; to [80]
26F9  2482C303           [075] self       8   7   270  ; 176437678
26FD  93020002           [076] getupval   10  4      
2701  22828001           [077] call       8   3   2  
2705  18420000           [078] test       8       1    ; to [80] if false
2709  1A400080           [079] jmp        2            ; to [82]
270D  17020000           [080] loadbool   8   0   0    ; false
2711  1E020001           [081] return     8   2      
2715  24C2C303           [082] self       8   7   271  ; 183469
2719  22820001           [083] call       8   2   2  
fail op	35
271D  23004404           [084] close      0  
2721  1A400180           [085] jmp        6            ; to [92]
2725  24424403           [086] self       8   6   273  ; -538658468
2729  22820001           [087] call       8   2   2  
fail op	33
272D  21804104           [088] tforloop   0       262  ; to [90] if exit
2731  1A400080           [089] jmp        2            ; to [92]
2735  17020000           [090] loadbool   8   0   0    ; false
2739  1E020001           [091] return     8   2      
273D  1D020000           [092] getglobal  8   0        ; gGameRules
2741  24824404           [093] self       8   8   274  ; -1201441975
2745  22820001           [094] call       8   2   2  
2749  64C2C403           [095] self       9   7   275  ; -585793121
274D  E4024504           [096] self       11  8   276  ; -272348948
2751  E2820001           [097] call       11  2   2  
2755  1D430500           [098] getglobal  12  21       ; dropshipSym
2759  62820002           [099] call       9   4   2  
275D  9DC20100           [100] getglobal  10  7        ; 1074689893
2761  D2028004           [101] move       11  9      
2765  A2820001           [102] call       10  2   2  
2769  98020000           [103] test       10      0    ; to [105] if true
276D  1AC00080           [104] jmp        4            ; to [109]
2771  A4824500           [105] self       10  0   278  ; 766584623
2775  A2420001           [106] call       10  2   1  
2779  97020000           [107] loadbool   10  0   0    ; false
277D  9E020001           [108] return     10  2      
2781  9D020000           [109] getglobal  10  0        ; gGameRules
2785  A4C24505           [110] self       10  10  279  ; -502414055
2789  A2820001           [111] call       10  2   2  
278D  D7020000           [112] loadbool   11  0   0    ; false
2791  19030600           [113] loadk      12  24       ; 0
2795  53038002           [114] getupval   13  5      
2799  4A038006           [115] len        13  13     
279D  99030600           [116] loadk      14  24       ; 0
27A1  10430180           [117] forprep    12  6        ; to [124]
27A5  13048002           [118] getupval   16  5      
27A9  0EC40308           [119] gettable   16  16  15 
fail op	35
27AD  23000405           [120] close      0  
27B1  1A400080           [121] jmp        2            ; to [124]
27B5  D7028000           [122] loadbool   11  1   0    ; true
27B9  1A000080           [123] jmp        1            ; to [125]
27BD  1403FE7F           [124] forloop    12  -7       ; to [118] if loop
27C1  1D040000           [125] getglobal  16  0        ; gGameRules
27C5  24C44508           [126] self       16  16  279  ; -502414055
27C9  22840001           [127] call       16  2   2  
27CD  5D440600           [128] getglobal  17  25       ; Lotus_Game
27D1  4E84C608           [129] gettable   17  17  282  ; "MT_ENDLESS_EXTERMINATION"
fail op	35
27D5  23400408           [130] close      0  
27D9  1A000180           [131] jmp        5            ; to [137]
27DD  64844500           [132] self       17  0   278  ; 766584623
27E1  62440001           [133] call       17  2   1  
27E5  57040000           [134] loadbool   17  0   0    ; false
27E9  5E040001           [135] return     17  2      
27ED  1A801080           [136] jmp        67           ; to [204]
27F1  5D440600           [137] getglobal  17  25       ; Lotus_Game
27F5  4EC4C608           [138] gettable   17  17  283  ; "MT_EXTERMINATION"
fail op	35
27F9  23400408           [139] close      0  
27FD  1A800380           [140] jmp        15           ; to [156]
2801  5DC40100           [141] getglobal  17  7        ; 1074689893
2805  9D040200           [142] getglobal  18  8        ; _T
2809  8E044709           [143] gettable   18  18  284  ; "MaxEnemyCount"
280D  62840001           [144] call       17  2   2  
2811  58440000           [145] test       17      1    ; to [147] if false
2815  1A000E80           [146] jmp        57           ; to [204]
2819  5D040200           [147] getglobal  17  8        ; _T
281D  4E04C708           [148] gettable   17  17  284  ; "MaxEnemyCount"
fail op	33
2821  2180C108           [149] tforloop   0       262  ; to [151] if exit
2825  1A000D80           [150] jmp        53           ; to [204]
2829  64844500           [151] self       17  0   278  ; 766584623
282D  62440001           [152] call       17  2   1  
2831  57040000           [153] loadbool   17  0   0    ; false
2835  5E040001           [154] return     17  2      
2839  1AC00B80           [155] jmp        48           ; to [204]
283D  5D440600           [156] getglobal  17  25       ; Lotus_Game
2841  4E44C708           [157] gettable   17  17  285  ; "MT_DEFENSE"
fail op	35
2845  23400408           [158] close      0  
2849  1A800780           [159] jmp        31           ; to [191]
284D  5D040000           [160] getglobal  17  0        ; gGameRules
2851  6444C008           [161] self       17  17  257  ; -317790213
2855  D3040003           [162] getupval   19  6      
2859  19850100           [163] loadk      20  6        ; 0
285D  62840002           [164] call       17  4   2  
2861  9D040000           [165] getglobal  18  0        ; gGameRules
2865  A4844709           [166] self       18  18  286  ; 266971028
2869  A2840001           [167] call       18  2   2  
286D  98040000           [168] test       18      0    ; to [170] if true
2871  1A400480           [169] jmp        18           ; to [188]
fail op	21
2875  15400483           [170] concat     0   262 17 
2879  1AC00380           [171] jmp        16           ; to [188]
287D  8D04C608           [172] sub        18  17  280  ; 0
fail op	35
2881  63804109           [173] close      1  
2885  1A000380           [174] jmp        13           ; to [188]
2889  9DC40100           [175] getglobal  18  7        ; 1074689893
288D  DD040200           [176] getglobal  19  8        ; _T
2891  CEC4C709           [177] gettable   19  19  287  ; "DropshipLastDefenseWaveSpawned"
2895  A2840001           [178] call       18  2   2  
2899  98440000           [179] test       18      1    ; to [181] if false
289D  1AC00080           [180] jmp        4            ; to [185]
28A1  9D040200           [181] getglobal  18  8        ; _T
28A5  8EC44709           [182] gettable   18  18  287  ; "DropshipLastDefenseWaveSpawned"
fail op	21
28A9  15400409           [183] concat     0   18  17 
28AD  1A800080           [184] jmp        3            ; to [188]
28B1  9D040200           [185] getglobal  18  8        ; _T
28B5  8C44848F           [186] settable   18  287 17   ; "DropshipLastDefenseWaveSpawned"
28B9  1AC00380           [187] jmp        16           ; to [204]
28BD  97040000           [188] loadbool   18  0   0    ; false
28C1  9E040001           [189] return     18  2      
28C5  1A000380           [190] jmp        13           ; to [204]
28C9  9D440600           [191] getglobal  18  25       ; Lotus_Game
28CD  8E044809           [192] gettable   18  18  288  ; "MT_TERRITORY"
fail op	35
28D1  23800408           [193] close      0  
28D5  1A000280           [194] jmp        9            ; to [204]
28D9  9D040000           [195] getglobal  18  0        ; gGameRules
28DD  A4444009           [196] self       18  18  257  ; -317790213
28E1  13058003           [197] getupval   20  7      
28E5  59850100           [198] loadk      21  6        ; 0
28E9  A2840002           [199] call       18  4   2  
fail op	35
28ED  23804109           [200] close      0  
28F1  1A400080           [201] jmp        2            ; to [204]
28F5  D7040000           [202] loadbool   19  0   0    ; false
28F9  DE040001           [203] return     19  2      
28FD  DD040200           [204] getglobal  19  8        ; _T
2901  1DC50200           [205] getglobal  20  11       ; 2144646525
2905  53050001           [206] getupval   21  2      
2909  93058001           [207] getupval   22  3      
290D  22858001           [208] call       20  3   2  
2911  03058502           [209] add        20  5   20 
2915  CC048584           [210] settable   19  265 20   ; "DropshipNextEventTime"
2919  D8420000           [211] test       11      1    ; to [213] if false
291D  1A800180           [212] jmp        7            ; to [220]
2921  DD040000           [213] getglobal  19  0        ; gGameRules
2925  E444C109           [214] self       19  19  261  ; -803877924
2929  53050000           [215] getupval   21  0      
292D  8D054601           [216] sub        22  2   280  ; 0
2931  E2440002           [217] call       19  4   1  
2935  E4844500           [218] self       19  0   278  ; 766584623
2939  E2440001           [219] call       19  2   1  
293D  D7048000           [220] loadbool   19  1   0    ; true
2941  DE040001           [221] return     19  2      
2945  1E008000           [222] return     0   1      
                         * constants:
2949  21                 sizek (33)
294A  04                 const type 4
294B  0B                 string size (11)
294C  6747616D6552756C+  "gGameRul"
2954  657300             "es\0"
                         const [0]: "gGameRules"
2957  01                 const type 3
2958  FBE70EED           const [1]: (-317790213)
295C  04                 const type 4
295D  08                 string size (8)
295E  67526567696F6E00   "gRegion\0"
                         const [2]: "gRegion"
2966  01                 const type 3
2967  009A1309           const [3]: (152279552)
296B  01                 const type 3
296C  652CB3E2           const [4]: (-491574171)
2970  01                 const type 3
2971  DCCB15D0           const [5]: (-803877924)
2975  03                 const type 3
2976  00000000           const [6]: (0)
297A  01                 const type 3
297B  65770E40           const [7]: (1074689893)
297F  04                 const type 4
2980  03                 string size (3)
2981  5F5400             "_T\0"
                         const [8]: "_T"
2984  04                 const type 4
2985  16                 string size (22)
2986  44726F7073686970+  "Dropship"
298E  4E6578744576656E+  "NextEven"
2996  7454696D6500       "tTime\0"
                         const [9]: "DropshipNextEventTime"
299C  01                 const type 3
299D  DBC2E558           const [10]: (1491452635)
29A1  01                 const type 3
29A2  7DB5D47F           const [11]: (2144646525)
29A6  01                 const type 3
29A7  90F9CED1           const [12]: (-774964848)
29AB  01                 const type 3
29AC  73290920           const [13]: (537471347)
29B0  01                 const type 3
29B1  AE39840A           const [14]: (176437678)
29B5  01                 const type 3
29B6  ADCC0200           const [15]: (183469)
29BA  01                 const type 3
29BB  00000000           const [16]: (0)
29BF  01                 const type 3
29C0  5CB9E4DF           const [17]: (-538658468)
29C4  01                 const type 3
29C5  497363B8           const [18]: (-1201441975)
29C9  01                 const type 3
29CA  9F8115DD           const [19]: (-585793121)
29CE  01                 const type 3
29CF  EC48C4EF           const [20]: (-272348948)
29D3  04                 const type 4
29D4  0C                 string size (12)
29D5  64726F7073686970+  "dropship"
29DD  53796D00           "Sym\0"
                         const [21]: "dropshipSym"
29E1  01                 const type 3
29E2  2F27B12D           const [22]: (766584623)
29E6  01                 const type 3
29E7  19C50DE2           const [23]: (-502414055)
29EB  03                 const type 3
29EC  0000803F           const [24]: (0)
29F0  04                 const type 4
29F1  0B                 string size (11)
29F2  4C6F7475735F4761+  "Lotus_Ga"
29FA  6D6500             "me\0"
                         const [25]: "Lotus_Game"
29FD  04                 const type 4
29FE  19                 string size (25)
29FF  4D545F454E444C45+  "MT_ENDLE"
2A07  53535F4558544552+  "SS_EXTER"
2A0F  4D494E4154494F4E+  "MINATION"
2A17  00                 "\0"
                         const [26]: "MT_ENDLESS_EXTERMINATION"
2A18  04                 const type 4
2A19  11                 string size (17)
2A1A  4D545F4558544552+  "MT_EXTER"
2A22  4D494E4154494F4E+  "MINATION"
2A2A  00                 "\0"
                         const [27]: "MT_EXTERMINATION"
2A2B  04                 const type 4
2A2C  0E                 string size (14)
2A2D  4D6178456E656D79+  "MaxEnemy"
2A35  436F756E7400       "Count\0"
                         const [28]: "MaxEnemyCount"
2A3B  04                 const type 4
2A3C  0B                 string size (11)
2A3D  4D545F444546454E+  "MT_DEFEN"
2A45  534500             "SE\0"
                         const [29]: "MT_DEFENSE"
2A48  01                 const type 3
2A49  94A7E90F           const [30]: (266971028)
2A4D  04                 const type 4
2A4E  1F                 string size (31)
2A4F  44726F7073686970+  "Dropship"
2A57  4C61737444656665+  "LastDefe"
2A5F  6E73655761766553+  "nseWaveS"
2A67  7061776E656400     "pawned\0"
                         const [31]: "DropshipLastDefenseWaveSpawned"
2A6E  04                 const type 4
2A6F  0D                 string size (13)
2A70  4D545F5445525249+  "MT_TERRI"
2A78  544F525900         "TORY\0"
                         const [32]: "MT_TERRITORY"
                         * functions:
2A7D  00                 sizep (0)
                         * lines:
2A7F  01                 sizelineinfo (222)
                         [pc] (line)
2A80  A0                 [001] (-96)
2A81  01                 [002] (-95)
2A82  00                 [003] (-95)
2A83  00                 [004] (-95)
2A84  A1                 [005] (-95)
2A85  01                 [006] (-95)
2A86  00                 [007] (-94)
2A87  00                 [008] (-94)
2A88  A1                 [009] (-94)
2A89  01                 [010] (-93)
2A8A  00                 [011] (-93)
2A8B  00                 [012] (-93)
2A8C  A1                 [013] (-93)
2A8D  01                 [014] (-93)
2A8E  00                 [015] (-92)
2A8F  00                 [016] (-91)
2A90  A1                 [017] (-91)
2A91  01                 [018] (-91)
2A92  00                 [019] (-91)
2A93  00                 [020] (-91)
2A94  A1                 [021] (-90)
2A95  01                 [022] (-90)
2A96  00                 [023] (-89)
2A97  00                 [024] (-89)
2A98  A2                 [025] (-88)
2A99  01                 [026] (-88)
2A9A  00                 [027] (-88)
2A9B  00                 [028] (-86)
2A9C  A2                 [029] (-86)
2A9D  01                 [030] (-86)
2A9E  00                 [031] (-86)
2A9F  00                 [032] (-86)
2AA0  A2                 [033] (-86)
2AA1  01                 [034] (-83)
2AA2  00                 [035] (-79)
2AA3  00                 [036] (-79)
2AA4  A3                 [037] (-78)
2AA5  01                 [038] (-78)
2AA6  00                 [039] (-78)
2AA7  00                 [040] (-78)
2AA8  A3                 [041] (-78)
2AA9  01                 [042] (-78)
2AAA  00                 [043] (-77)
2AAB  00                 [044] (-77)
2AAC  A3                 [045] (-76)
2AAD  01                 [046] (-76)
2AAE  00                 [047] (-76)
2AAF  00                 [048] (-76)
2AB0  A3                 [049] (-76)
2AB1  01                 [050] (-76)
2AB2  00                 [051] (-76)
2AB3  00                 [052] (-75)
2AB4  A3                 [053] (-75)
2AB5  01                 [054] (-75)
2AB6  00                 [055] (-73)
2AB7  00                 [056] (-73)
2AB8  A4                 [057] (-72)
2AB9  01                 [058] (-70)
2ABA  00                 [059] (-70)
2ABB  00                 [060] (-70)
2ABC  A5                 [061] (-70)
2ABD  01                 [062] (-70)
2ABE  00                 [063] (-69)
2ABF  00                 [064] (-69)
2AC0  A5                 [065] (-65)
2AC1  01                 [066] (-65)
2AC2  00                 [067] (-65)
2AC3  00                 [068] (-64)
2AC4  A5                 [069] (-64)
2AC5  01                 [070] (-63)
2AC6  00                 [071] (-63)
2AC7  00                 [072] (-63)
2AC8  A5                 [073] (-63)
2AC9  01                 [074] (-63)
2ACA  00                 [075] (-63)
2ACB  00                 [076] (-63)
2ACC  A5                 [077] (-63)
2ACD  01                 [078] (-63)
2ACE  00                 [079] (-63)
2ACF  00                 [080] (-62)
2AD0  A6                 [081] (-62)
2AD1  01                 [082] (-59)
2AD2  00                 [083] (-59)
2AD3  00                 [084] (-59)
2AD4  A6                 [085] (-59)
2AD5  01                 [086] (-59)
2AD6  00                 [087] (-59)
2AD7  00                 [088] (-59)
2AD8  A7                 [089] (-59)
2AD9  01                 [090] (-58)
2ADA  00                 [091] (-58)
2ADB  00                 [092] (-55)
2ADC  A7                 [093] (-55)
2ADD  01                 [094] (-55)
2ADE  00                 [095] (-54)
2ADF  00                 [096] (-54)
2AE0  A8                 [097] (-54)
2AE1  01                 [098] (-54)
2AE2  00                 [099] (-54)
2AE3  00                 [100] (-53)
2AE4  A8                 [101] (-53)
2AE5  01                 [102] (-53)
2AE6  00                 [103] (-53)
2AE7  00                 [104] (-53)
2AE8  A8                 [105] (-52)
2AE9  01                 [106] (-52)
2AEA  00                 [107] (-51)
2AEB  00                 [108] (-51)
2AEC  AA                 [109] (-48)
2AED  01                 [110] (-48)
2AEE  00                 [111] (-48)
2AEF  00                 [112] (-47)
2AF0  AA                 [113] (-46)
2AF1  01                 [114] (-46)
2AF2  00                 [115] (-46)
2AF3  00                 [116] (-46)
2AF4  AA                 [117] (-46)
2AF5  01                 [118] (-45)
2AF6  00                 [119] (-45)
2AF7  00                 [120] (-45)
2AF8  AA                 [121] (-45)
2AF9  01                 [122] (-44)
2AFA  00                 [123] (-43)
2AFB  00                 [124] (-46)
2AFC  AA                 [125] (-39)
2AFD  01                 [126] (-39)
2AFE  00                 [127] (-39)
2AFF  00                 [128] (-38)
2B00  AA                 [129] (-38)
2B01  01                 [130] (-38)
2B02  00                 [131] (-38)
2B03  00                 [132] (-36)
2B04  AD                 [133] (-36)
2B05  01                 [134] (-35)
2B06  00                 [135] (-35)
2B07  00                 [136] (-35)
2B08  B1                 [137] (-34)
2B09  01                 [138] (-34)
2B0A  00                 [139] (-34)
2B0B  00                 [140] (-34)
2B0C  B1                 [141] (-33)
2B0D  01                 [142] (-33)
2B0E  00                 [143] (-33)
2B0F  00                 [144] (-33)
2B10  B2                 [145] (-33)
2B11  01                 [146] (-33)
2B12  00                 [147] (-33)
2B13  00                 [148] (-33)
2B14  B2                 [149] (-33)
2B15  01                 [150] (-33)
2B16  00                 [151] (-31)
2B17  00                 [152] (-31)
2B18  B2                 [153] (-30)
2B19  01                 [154] (-30)
2B1A  00                 [155] (-29)
2B1B  00                 [156] (-28)
2B1C  B2                 [157] (-28)
2B1D  01                 [158] (-28)
2B1E  00                 [159] (-28)
2B1F  00                 [160] (-25)
2B20  B2                 [161] (-25)
2B21  01                 [162] (-25)
2B22  00                 [163] (-25)
2B23  00                 [164] (-25)
2B24  B2                 [165] (-24)
2B25  01                 [166] (-24)
2B26  00                 [167] (-24)
2B27  00                 [168] (-24)
2B28  B3                 [169] (-24)
2B29  01                 [170] (-24)
2B2A  00                 [171] (-24)
2B2B  00                 [172] (-24)
2B2C  B3                 [173] (-24)
2B2D  01                 [174] (-24)
2B2E  00                 [175] (-24)
2B2F  00                 [176] (-24)
2B30  B4                 [177] (-24)
2B31  01                 [178] (-24)
2B32  00                 [179] (-24)
2B33  00                 [180] (-24)
2B34  B4                 [181] (-24)
2B35  01                 [182] (-24)
2B36  00                 [183] (-24)
2B37  00                 [184] (-24)
2B38  B4                 [185] (-23)
2B39  01                 [186] (-23)
2B3A  00                 [187] (-23)
2B3B  00                 [188] (-21)
2B3C  B4                 [189] (-21)
2B3D  01                 [190] (-20)
2B3E  00                 [191] (-19)
2B3F  00                 [192] (-19)
2B40  B4                 [193] (-19)
2B41  01                 [194] (-19)
2B42  00                 [195] (-18)
2B43  00                 [196] (-18)
2B44  B4                 [197] (-18)
2B45  01                 [198] (-18)
2B46  00                 [199] (-18)
2B47  00                 [200] (-17)
2B48  B4                 [201] (-17)
2B49  01                 [202] (-16)
2B4A  00                 [203] (-16)
2B4B  00                 [204] (-11)
2B4C  B5                 [205] (-11)
2B4D  01                 [206] (-11)
2B4E  00                 [207] (-11)
2B4F  00                 [208] (-11)
2B50  B5                 [209] (-11)
2B51  01                 [210] (-11)
2B52  00                 [211] (-10)
2B53  00                 [212] (-10)
2B54  B5                 [213] (-8)
2B55  01                 [214] (-8)
2B56  00                 [215] (-8)
2B57  00                 [216] (-8)
2B58  B7                 [217] (-8)
2B59  01                 [218] (-7)
2B5A  00                 [219] (-7)
2B5B  00                 [220] (-5)
2B5C  B7                 [221] (-5)
2B5D  01                 [222] (-4)
                         * locals:
2DF8  00                 sizelocvars (0)
                         * upvalues:
2DF9  00                 sizeupvalues (0)
                         ** end of function **

                         
2DFA                     ** function [15] definition (level 2)
                         ** start of function **
2DFA  00                 string size (0)
                         source name: (none)
2DFC  03                 line defined (510)
2DFD  92                 last line defined (530)
2DFE  04                 nups (0)
2DFF  00                 numparams (1)
2E00  01                 is_vararg (0)
2E01  00                 maxstacksize (16)
                         * code:
2E03  3F                 sizecode (63)
2E04  5D000000           [01] getglobal  1   0        ; 1074689893
2E08  92000000           [02] move       2   0      
2E0C  62800001           [03] call       1   2   2  
2E10  58400000           [04] test       1       1    ; to [6] if false
2E14  1A000E80           [05] jmp        57           ; to [63]
2E18  5D400000           [06] getglobal  1   1        ; gRegion
2E1C  6480C000           [07] self       1   1   258  ; -774964848
2E20  62800001           [08] call       1   2   2  
2E24  A4C0C000           [09] self       2   1   259  ; 537471347
2E28  A2800001           [10] call       2   2   2  
2E2C  DD000100           [11] getglobal  3   4        ; gGameRules
2E30  E440C101           [12] self       3   3   261  ; -1201441975
2E34  E2800001           [13] call       3   2   2  
2E38  24814101           [14] self       4   2   262  ; -585793121
2E3C  A4C1C101           [15] self       6   3   263  ; -272348948
2E40  A2810001           [16] call       6   2   2  
2E44  DD010200           [17] getglobal  7   8        ; dropshipSym
2E48  22810002           [18] call       4   4   2  
2E4C  5D010000           [19] getglobal  5   0        ; 1074689893
2E50  92010002           [20] move       6   4      
2E54  62810001           [21] call       5   2   2  
2E58  58010000           [22] test       5       0    ; to [24] if true
2E5C  1A000080           [23] jmp        1            ; to [25]
2E60  1E008000           [24] return     0   1      
2E64  64414201           [25] self       5   2   265  ; -472735398
2E68  62810001           [26] call       5   2   2  
2E6C  A4814201           [27] self       6   2   266  ; -354168336
2E70  A2810001           [28] call       6   2   2  
2E74  DDC10200           [29] getglobal  7   11       ; 2144646525
2E78  12028002           [30] move       8   5      
2E7C  52020003           [31] move       9   6      
2E80  E2818001           [32] call       7   3   2  
2E84  24024301           [33] self       8   2   268  ; -1642488687
2E88  9D420300           [34] getglobal  10  13       ; 2083004503
2E8C  D2020002           [35] move       11  4      
2E90  A2820001           [36] call       10  2   2  
2E94  D2020000           [37] move       11  0      
2E98  1D830300           [38] getglobal  12  14       ; -332969190
2E9C  59C30300           [39] loadk      13  15       ; "DropshipTeam"
2EA0  22830001           [40] call       12  2   2  
2EA4  52038003           [41] move       13  7      
2EA8  86030007           [42] loadnil    14  14     
2EAC  DD030400           [43] getglobal  15  16       ; Engine
2EB0  CE43C407           [44] gettable   15  15  273  ; "STANDARD"
2EB4  22820004           [45] call       8   8   2  
2EB8  5D020000           [46] getglobal  9   0        ; 1074689893
2EBC  9D820400           [47] getglobal  10  18       ; dropshipPatrolRoute
2EC0  62820001           [48] call       9   2   2  
2EC4  58020000           [49] test       9       0    ; to [51] if true
2EC8  1AC00080           [50] jmp        4            ; to [55]
2ECC  5DC20400           [51] getglobal  9   19       ; -1817107093
2ED0  99020500           [52] loadk      10  20       ; "ERROR: Null patrol route detected on spawning the Dropship; this will cause an idling Dropship at the edge of the map"
2ED4  62420001           [53] call       9   2   1  
2ED8  1AC00180           [54] jmp        8            ; to [63]
2EDC  5D020000           [55] getglobal  9   0        ; 1074689893
2EE0  92020004           [56] move       10  8      
2EE4  62820001           [57] call       9   2   2  
2EE8  58420000           [58] test       9       1    ; to [60] if false
2EEC  1A800080           [59] jmp        3            ; to [63]
2EF0  64424504           [60] self       9   8   277  ; -1923247301
2EF4  DD820400           [61] getglobal  11  18       ; dropshipPatrolRoute
2EF8  62428001           [62] call       9   3   1  
2EFC  1E008000           [63] return     0   1      
                         * constants:
2F00  16                 sizek (22)
2F01  01                 const type 3
2F02  65770E40           const [0]: (1074689893)
2F06  04                 const type 4
2F07  08                 string size (8)
2F08  67526567696F6E00   "gRegion\0"
                         const [1]: "gRegion"
2F10  01                 const type 3
2F11  90F9CED1           const [2]: (-774964848)
2F15  01                 const type 3
2F16  73290920           const [3]: (537471347)
2F1A  04                 const type 4
2F1B  0B                 string size (11)
2F1C  6747616D6552756C+  "gGameRul"
2F24  657300             "es\0"
                         const [4]: "gGameRules"
2F27  01                 const type 3
2F28  497363B8           const [5]: (-1201441975)
2F2C  01                 const type 3
2F2D  9F8115DD           const [6]: (-585793121)
2F31  01                 const type 3
2F32  EC48C4EF           const [7]: (-272348948)
2F36  04                 const type 4
2F37  0C                 string size (12)
2F38  64726F7073686970+  "dropship"
2F40  53796D00           "Sym\0"
                         const [8]: "dropshipSym"
2F44  01                 const type 3
2F45  5AA1D2E3           const [9]: (-472735398)
2F49  01                 const type 3
2F4A  F0D1E3EA           const [10]: (-354168336)
2F4E  01                 const type 3
2F4F  7DB5D47F           const [11]: (2144646525)
2F53  01                 const type 3
2F54  919C199E           const [12]: (-1642488687)
2F58  01                 const type 3
2F59  5720287C           const [13]: (2083004503)
2F5D  01                 const type 3
2F5E  1A4B27EC           const [14]: (-332969190)
2F62  04                 const type 4
2F63  0D                 string size (13)
2F64  44726F7073686970+  "Dropship"
2F6C  5465616D00         "Team\0"
                         const [15]: "DropshipTeam"
2F71  04                 const type 4
2F72  07                 string size (7)
2F73  456E67696E6500     "Engine\0"
                         const [16]: "Engine"
2F7A  04                 const type 4
2F7B  09                 string size (9)
2F7C  5354414E44415244+  "STANDARD"
2F84  00                 "\0"
                         const [17]: "STANDARD"
2F85  04                 const type 4
2F86  14                 string size (20)
2F87  64726F7073686970+  "dropship"
2F8F  506174726F6C526F+  "PatrolRo"
2F97  75746500           "ute\0"
                         const [18]: "dropshipPatrolRoute"
2F9B  01                 const type 3
2F9C  6B25B193           const [19]: (-1817107093)
2FA0  04                 const type 4
2FA1  76                 string size (118)
2FA2  4552524F523A204E+  "ERROR: N"
2FAA  756C6C2070617472+  "ull patr"
2FB2  6F6C20726F757465+  "ol route"
2FBA  2064657465637465+  " detecte"
2FC2  64206F6E20737061+  "d on spa"
2FCA  776E696E67207468+  "wning th"
2FD2  652044726F707368+  "e Dropsh"
2FDA  69703B2074686973+  "ip; this"
2FE2  2077696C6C206361+  " will ca"
2FEA  75736520616E2069+  "use an i"
2FF2  646C696E67204472+  "dling Dr"
2FFA  6F70736869702061+  "opship a"
3002  7420746865206564+  "t the ed"
300A  6765206F66207468+  "ge of th"
3012  65206D617000       "e map\0"
                         const [20]: "ERROR: Null patrol route detected on spawning the Dropship; this will cause an idling Dropship at the edge of the map"
3018  01                 const type 3
3019  3B935D8D           const [21]: (-1923247301)
                         * functions:
301D  00                 sizep (0)
                         * lines:
301E  3F                 sizelineinfo (63)
                         [pc] (line)
301F  FF                 [01] (-1)
3020  01                 [02] (-1)
3021  00                 [03] (-1)
3022  00                 [04] (-1)
3023  FF                 [05] (-1)
3024  01                 [06] (0)
3025  00                 [07] (0)
3026  00                 [08] (0)
3027  FF                 [09] (1)
3028  01                 [10] (1)
3029  00                 [11] (2)
302A  00                 [12] (2)
302B  FF                 [13] (2)
302C  01                 [14] (3)
302D  00                 [15] (3)
302E  00                 [16] (3)
302F  FF                 [17] (3)
3030  01                 [18] (3)
3031  00                 [19] (4)
3032  00                 [20] (4)
3033  00                 [21] (4)
3034  02                 [22] (4)
3035  00                 [23] (4)
3036  00                 [24] (5)
3037  00                 [25] (8)
3038  02                 [26] (8)
3039  00                 [27] (9)
303A  00                 [28] (9)
303B  00                 [29] (10)
303C  02                 [30] (10)
303D  00                 [31] (10)
303E  00                 [32] (10)
303F  01                 [33] (11)
3040  02                 [34] (11)
3041  00                 [35] (11)
3042  00                 [36] (11)
3043  01                 [37] (11)
3044  02                 [38] (11)
3045  00                 [39] (11)
3046  00                 [40] (11)
3047  02                 [41] (11)
3048  02                 [42] (11)
3049  00                 [43] (11)
304A  00                 [44] (11)
304B  02                 [45] (11)
304C  02                 [46] (12)
304D  00                 [47] (12)
304E  00                 [48] (12)
304F  02                 [49] (12)
3050  02                 [50] (12)
3051  00                 [51] (13)
3052  00                 [52] (13)
3053  03                 [53] (13)
3054  02                 [54] (13)
3055  00                 [55] (14)
3056  00                 [56] (14)
3057  03                 [57] (14)
3058  02                 [58] (14)
3059  00                 [59] (14)
305A  00                 [60] (15)
305B  03                 [61] (15)
305C  02                 [62] (15)
305D  00                 [63] (18)
                         * locals:
311B  00                 sizelocvars (0)
                         * upvalues:
311C  00                 sizeupvalues (0)
                         ** end of function **

                         
311D                     ** function [16] definition (level 2)
                         ** start of function **
311D  00                 string size (0)
                         source name: (none)
311F  04                 line defined (532)
3120  DD                 last line defined (605)
3121  04                 nups (4)
3122  04                 numparams (1)
3123  01                 is_vararg (0)
3124  00                 maxstacksize (25)
                         * code:
3127  01                 sizecode (161)
3128  5D000000           [001] getglobal  1   0        ; 1074689893
312C  92000000           [002] move       2   0      
3130  62800001           [003] call       1   2   2  
3134  58400000           [004] test       1       1    ; to [6] if false
3138  1A000180           [005] jmp        5            ; to [11]
313C  5D000000           [006] getglobal  1   0        ; 1074689893
3140  9D400000           [007] getglobal  2   1        ; ambulasWeakType
3144  62800001           [008] call       1   2   2  
3148  58000000           [009] test       1       0    ; to [11] if true
314C  1A000080           [010] jmp        1            ; to [12]
3150  1E008000           [011] return     0   1      
3154  64804000           [012] self       1   0   258  ; -578871469
3158  62800001           [013] call       1   2   2  
315C  9DC00000           [014] getglobal  2   3        ; gRegion
fail op	35
3160  63808000           [015] close      1  
3164  1A000080           [016] jmp        1            ; to [18]
3168  1E008000           [017] return     0   1      
316C  5D000100           [018] getglobal  1   4        ; gGameRules
3170  6440C100           [019] self       1   1   261  ; -502414055
3174  62800001           [020] call       1   2   2  
3178  97000000           [021] loadbool   2   0   0    ; false
317C  D9800100           [022] loadk      3   6        ; 0
3180  13010000           [023] getupval   4   0      
3184  0A010002           [024] len        4   4      
3188  59810100           [025] loadk      5   6        ; 0
318C  D0400180           [026] forprep    3   6        ; to [33]
3190  D3010000           [027] getupval   7   0      
3194  CE818103           [028] gettable   7   7   6  
fail op	35
3198  23C08100           [029] close      0  
319C  1A400080           [030] jmp        2            ; to [33]
31A0  97008000           [031] loadbool   2   1   0    ; true
31A4  1A000080           [032] jmp        1            ; to [34]
31A8  D400FE7F           [033] forloop    3   -7       ; to [27] if loop
31AC  D3018000           [034] getupval   7   1      
31B0  E2818000           [035] call       7   1   2  
31B4  D8010000           [036] test       7       0    ; to [38] if true
31B8  1AC00380           [037] jmp        16           ; to [54]
31BC  1D020000           [038] getglobal  8   0        ; 1074689893
31C0  5DC20100           [039] getglobal  9   7        ; ambulasEventTransmissionSet
31C4  22820001           [040] call       8   2   2  
31C8  18420000           [041] test       8       1    ; to [43] if false
31CC  1A800280           [042] jmp        11           ; to [54]
31D0  1D020200           [043] getglobal  8   8        ; 2083004503
31D4  5DC20100           [044] getglobal  9   7        ; ambulasEventTransmissionSet
31D8  22820001           [045] call       8   2   2  
31DC  53020001           [046] getupval   9   2      
31E0  4E42C204           [047] gettable   9   9   265  ; 1387905071
31E4  92020004           [048] move       10  8      
31E8  DD820200           [049] getglobal  11  10       ; -332969190
31EC  19C30200           [050] loadk      12  11       ; "DropshipSpawned"
31F0  E2820001           [051] call       11  2   2  
31F4  19030300           [052] loadk      12  12       ; 0
31F8  62420002           [053] call       9   4   1  
31FC  D8410000           [054] test       7       1    ; to [56] if false
3200  1A800980           [055] jmp        39           ; to [95]
3204  5D420300           [056] getglobal  9   13       ; -1941280958
3208  99020300           [057] loadk      10  12       ; 0
320C  D9820100           [058] loadk      11  6        ; 0
3210  62828001           [059] call       9   3   2  
3214  9D820300           [060] getglobal  10  14       ; nonEventAmbulasSpawnChance
fail op	33
3218  21808204           [061] tforloop   0       10   ; to [63] if exit
321C  1AC00780           [062] jmp        32           ; to [95]
3220  93028001           [063] getupval   10  3      
3224  8EC24305           [064] gettable   10  10  271  ; -1153782542
3228  A2828000           [065] call       10  1   2  
322C  DD020100           [066] getglobal  11  4        ; gGameRules
3230  E402C405           [067] self       11  11  272  ; -1201441975
3234  E2820001           [068] call       11  2   2  
3238  24434405           [069] self       12  10  273  ; -551469855
323C  8E83C405           [070] gettable   14  11  274  ; "location"
3240  22838001           [071] call       12  3   2  
3244  5D030000           [072] getglobal  13  0        ; 1074689893
3248  92030006           [073] move       14  12     
324C  62830001           [074] call       13  2   2  
3250  58430000           [075] test       13      1    ; to [77] if false
3254  1A400480           [076] jmp        18           ; to [95]
3258  5D030000           [077] getglobal  13  0        ; 1074689893
325C  8EC34406           [078] gettable   14  12  275  ; "region"
3260  62830001           [079] call       13  2   2  
3264  58430000           [080] test       13      1    ; to [82] if false
3268  1A000380           [081] jmp        13           ; to [95]
326C  59830100           [082] loadk      13  6        ; 0
3270  9D030500           [083] getglobal  14  20       ; nonEventAmbulasAreasIdx
3274  8A030007           [084] len        14  14     
3278  D9830100           [085] loadk      15  6        ; 0
327C  50830180           [086] forprep    13  7        ; to [94]
3280  4EC44406           [087] gettable   17  12  275  ; "region"
3284  9D040500           [088] getglobal  18  20       ; nonEventAmbulasAreasIdx
3288  8E040409           [089] gettable   18  18  16 
fail op	35
328C  23808408           [090] close      0  
3290  1A400080           [091] jmp        2            ; to [94]
3294  D7018000           [092] loadbool   7   1   0    ; true
3298  1A000080           [093] jmp        1            ; to [95]
329C  54C3FD7F           [094] forloop    13  -8       ; to [87] if loop
32A0  D8010000           [095] test       7       0    ; to [97] if true
32A4  1A400F80           [096] jmp        62           ; to [159]
32A8  5D040000           [097] getglobal  17  0        ; 1074689893
32AC  9D440500           [098] getglobal  18  21       ; _T
32B0  8E844509           [099] gettable   18  18  278  ; "AmbulasSpawnLastAgentLevel"
32B4  62840001           [100] call       17  2   2  
32B8  58040000           [101] test       17      0    ; to [103] if true
32BC  1A400980           [102] jmp        38           ; to [141]
32C0  5D440500           [103] getglobal  17  21       ; _T
32C4  4C84418B           [104] settable   17  278 262  ; "AmbulasSpawnLastAgentLevel" 0
32C8  5D040100           [105] getglobal  17  4        ; gGameRules
32CC  6404C408           [106] self       17  17  272  ; -1201441975
32D0  62840001           [107] call       17  2   2  
32D4  9D040000           [108] getglobal  18  0        ; 1074689893
32D8  D2048008           [109] move       19  17     
32DC  A2840001           [110] call       18  2   2  
32E0  98440000           [111] test       18      1    ; to [113] if false
32E4  1AC00380           [112] jmp        16           ; to [129]
32E8  9D440500           [113] getglobal  18  21       ; _T
32EC  CEC4C508           [114] gettable   19  17  279  ; "minEnemyLevel"
32F0  C304C609           [115] add        19  19  280  ; 0
32F4  8CC4048B           [116] settable   18  278 19   ; "AmbulasSpawnLastAgentLevel"
32F8  A4444600           [117] self       18  0   281  ; -1411785325
32FC  A2840001           [118] call       18  2   2  
3300  DD040000           [119] getglobal  19  0        ; 1074689893
3304  12050009           [120] move       20  18     
3308  E2840001           [121] call       19  2   2  
330C  D8440000           [122] test       19      1    ; to [124] if false
3310  1AC00680           [123] jmp        28           ; to [152]
3314  DD440500           [124] getglobal  19  21       ; _T
3318  24854609           [125] self       20  18  282  ; 1983029550
331C  22850001           [126] call       20  2   2  
3320  CC04058B           [127] settable   19  278 20   ; "AmbulasSpawnLastAgentLevel"
3324  1A800580           [128] jmp        23           ; to [152]
3328  E4444600           [129] self       19  0   281  ; -1411785325
332C  E2840001           [130] call       19  2   2  
3330  1D050000           [131] getglobal  20  0        ; 1074689893
3334  52058009           [132] move       21  19     
3338  22850001           [133] call       20  2   2  
333C  18450000           [134] test       20      1    ; to [136] if false
3340  1AC00380           [135] jmp        16           ; to [152]
3344  1D450500           [136] getglobal  20  21       ; _T
3348  6485C609           [137] self       21  19  282  ; 1983029550
334C  62850001           [138] call       21  2   2  
3350  0C45058B           [139] settable   20  278 21   ; "AmbulasSpawnLastAgentLevel"
3354  1A800280           [140] jmp        11           ; to [152]
3358  98000000           [141] test       2       0    ; to [143] if true
335C  1A000280           [142] jmp        9            ; to [152]
3360  1D450500           [143] getglobal  20  21       ; _T
3364  5D450500           [144] getglobal  21  21       ; _T
3368  4E85C50A           [145] gettable   21  21  278  ; "AmbulasSpawnLastAgentLevel"
336C  9DC50600           [146] getglobal  22  27       ; 2144646525
3370  DD050700           [147] getglobal  23  28       ; ambulasPerAppearanceLevelIncrementMin
3374  1D460700           [148] getglobal  24  29       ; ambulasPerAppearanceLevelIncrementMax
3378  A2858001           [149] call       22  3   2  
337C  4385850A           [150] add        21  21  22 
3380  0C45058B           [151] settable   20  278 21   ; "AmbulasSpawnLastAgentLevel"
3384  24854700           [152] self       20  0   286  ; 34018987
3388  9DC50700           [153] getglobal  22  31       ; -895206725
338C  DD450000           [154] getglobal  23  1        ; ambulasWeakType
3390  A2850001           [155] call       22  2   2  
3394  DD450500           [156] getglobal  23  21       ; _T
3398  CE85C50B           [157] gettable   23  23  278  ; "AmbulasSpawnLastAgentLevel"
339C  22450002           [158] call       20  4   1  
33A0  24054800           [159] self       20  0   288  ; 1972652696
33A4  22450001           [160] call       20  2   1  
33A8  1E008000           [161] return     0   1      
                         * constants:
33AC  21                 sizek (33)
33AD  01                 const type 3
33AE  65770E40           const [0]: (1074689893)
33B2  04                 const type 4
33B3  10                 string size (16)
33B4  616D62756C617357+  "ambulasW"
33BC  65616B5479706500   "eakType\0"
                         const [1]: "ambulasWeakType"
33C4  01                 const type 3
33C5  531F7FDD           const [2]: (-578871469)
33C9  04                 const type 4
33CA  08                 string size (8)
33CB  67526567696F6E00   "gRegion\0"
                         const [3]: "gRegion"
33D3  04                 const type 4
33D4  0B                 string size (11)
33D5  6747616D6552756C+  "gGameRul"
33DD  657300             "es\0"
                         const [4]: "gGameRules"
33E0  01                 const type 3
33E1  19C50DE2           const [5]: (-502414055)
33E5  03                 const type 3
33E6  0000803F           const [6]: (0)
33EA  04                 const type 4
33EB  1C                 string size (28)
33EC  616D62756C617345+  "ambulasE"
33F4  76656E745472616E+  "ventTran"
33FC  736D697373696F6E+  "smission"
3404  53657400           "Set\0"
                         const [7]: "ambulasEventTransmissionSet"
3408  01                 const type 3
3409  5720287C           const [8]: (2083004503)
340D  01                 const type 3
340E  2FC0B952           const [9]: (1387905071)
3412  01                 const type 3
3413  1A4B27EC           const [10]: (-332969190)
3417  04                 const type 4
3418  10                 string size (16)
3419  44726F7073686970+  "Dropship"
3421  537061776E656400   "Spawned\0"
                         const [11]: "DropshipSpawned"
3429  03                 const type 3
342A  00000000           const [12]: (0)
342E  01                 const type 3
342F  42674A8C           const [13]: (-1941280958)
3433  04                 const type 4
3434  1B                 string size (27)
3435  6E6F6E4576656E74+  "nonEvent"
343D  416D62756C617353+  "AmbulasS"
3445  7061776E4368616E+  "pawnChan"
344D  636500             "ce\0"
                         const [14]: "nonEventAmbulasSpawnChance"
3450  01                 const type 3
3451  F2AC3ABB           const [15]: (-1153782542)
3455  01                 const type 3
3456  497363B8           const [16]: (-1201441975)
345A  01                 const type 3
345B  E13C21DF           const [17]: (-551469855)
345F  04                 const type 4
3460  09                 string size (9)
3461  6C6F636174696F6E+  "location"
3469  00                 "\0"
                         const [18]: "location"
346A  04                 const type 4
346B  07                 string size (7)
346C  726567696F6E00     "region\0"
                         const [19]: "region"
3473  04                 const type 4
3474  18                 string size (24)
3475  6E6F6E4576656E74+  "nonEvent"
347D  416D62756C617341+  "AmbulasA"
3485  7265617349647800   "reasIdx\0"
                         const [20]: "nonEventAmbulasAreasIdx"
348D  04                 const type 4
348E  03                 string size (3)
348F  5F5400             "_T\0"
                         const [21]: "_T"
3492  04                 const type 4
3493  1B                 string size (27)
3494  416D62756C617353+  "AmbulasS"
349C  7061776E4C617374+  "pawnLast"
34A4  4167656E744C6576+  "AgentLev"
34AC  656C00             "el\0"
                         const [22]: "AmbulasSpawnLastAgentLevel"
34AF  04                 const type 4
34B0  0E                 string size (14)
34B1  6D696E456E656D79+  "minEnemy"
34B9  4C6576656C00       "Level\0"
                         const [23]: "minEnemyLevel"
34BF  03                 const type 3
34C0  00000040           const [24]: (0)
34C4  01                 const type 3
34C5  93DDD9AB           const [25]: (-1411785325)
34C9  01                 const type 3
34CA  2EA13276           const [26]: (1983029550)
34CE  01                 const type 3
34CF  7DB5D47F           const [27]: (2144646525)
34D3  04                 const type 4
34D4  26                 string size (38)
34D5  616D62756C617350+  "ambulasP"
34DD  6572417070656172+  "erAppear"
34E5  616E63654C657665+  "anceLeve"
34ED  6C496E6372656D65+  "lIncreme"
34F5  6E744D696E00       "ntMin\0"
                         const [28]: "ambulasPerAppearanceLevelIncrementMin"
34FB  04                 const type 4
34FC  26                 string size (38)
34FD  616D62756C617350+  "ambulasP"
3505  6572417070656172+  "erAppear"
350D  616E63654C657665+  "anceLeve"
3515  6C496E6372656D65+  "lIncreme"
351D  6E744D617800       "ntMax\0"
                         const [29]: "ambulasPerAppearanceLevelIncrementMax"
3523  01                 const type 3
3524  AB160702           const [30]: (34018987)
3528  01                 const type 3
3529  BB3AA4CA           const [31]: (-895206725)
352D  01                 const type 3
352E  984A9475           const [32]: (1972652696)
                         * functions:
3532  00                 sizep (0)
                         * lines:
3534  01                 sizelineinfo (161)
                         [pc] (line)
3535  15                 [001] (21)
3536  02                 [002] (21)
3537  00                 [003] (21)
3538  00                 [004] (21)
3539  15                 [005] (21)
353A  02                 [006] (21)
353B  00                 [007] (21)
353C  00                 [008] (21)
353D  15                 [009] (21)
353E  02                 [010] (21)
353F  00                 [011] (22)
3540  00                 [012] (25)
3541  15                 [013] (25)
3542  02                 [014] (25)
3543  00                 [015] (25)
3544  00                 [016] (25)
3545  15                 [017] (27)
3546  02                 [018] (30)
3547  00                 [019] (30)
3548  00                 [020] (30)
3549  15                 [021] (31)
354A  02                 [022] (32)
354B  00                 [023] (32)
354C  00                 [024] (32)
354D  15                 [025] (32)
354E  02                 [026] (32)
354F  00                 [027] (33)
3550  00                 [028] (33)
3551  15                 [029] (33)
3552  02                 [030] (33)
3553  00                 [031] (34)
3554  00                 [032] (35)
3555  15                 [033] (32)
3556  02                 [034] (40)
3557  00                 [035] (40)
3558  00                 [036] (41)
3559  15                 [037] (41)
355A  02                 [038] (41)
355B  00                 [039] (41)
355C  00                 [040] (41)
355D  16                 [041] (41)
355E  02                 [042] (41)
355F  00                 [043] (42)
3560  00                 [044] (42)
3561  19                 [045] (42)
3562  02                 [046] (43)
3563  00                 [047] (43)
3564  00                 [048] (43)
3565  19                 [049] (43)
3566  02                 [050] (43)
3567  00                 [051] (43)
3568  00                 [052] (43)
3569  19                 [053] (43)
356A  02                 [054] (46)
356B  00                 [055] (46)
356C  00                 [056] (48)
356D  19                 [057] (48)
356E  02                 [058] (48)
356F  00                 [059] (48)
3570  00                 [060] (49)
3571  19                 [061] (49)
3572  02                 [062] (49)
3573  00                 [063] (50)
3574  00                 [064] (50)
3575  1B                 [065] (50)
3576  02                 [066] (51)
3577  00                 [067] (51)
3578  00                 [068] (51)
3579  1E                 [069] (52)
357A  02                 [070] (52)
357B  00                 [071] (52)
357C  00                 [072] (53)
357D  1E                 [073] (53)
357E  02                 [074] (53)
357F  00                 [075] (53)
3580  00                 [076] (53)
3581  1E                 [077] (53)
3582  02                 [078] (53)
3583  00                 [079] (53)
3584  00                 [080] (53)
3585  1F                 [081] (53)
3586  02                 [082] (54)
3587  00                 [083] (54)
3588  00                 [084] (54)
3589  20                 [085] (54)
358A  02                 [086] (54)
358B  00                 [087] (55)
358C  00                 [088] (55)
358D  20                 [089] (55)
358E  02                 [090] (55)
358F  00                 [091] (55)
3590  00                 [092] (56)
3591  20                 [093] (57)
3592  02                 [094] (54)
3593  00                 [095] (64)
3594  00                 [096] (64)
3595  20                 [097] (66)
3596  02                 [098] (66)
3597  00                 [099] (66)
3598  00                 [100] (66)
3599  20                 [101] (66)
359A  02                 [102] (66)
359B  00                 [103] (68)
359C  00                 [104] (68)
359D  21                 [105] (70)
359E  02                 [106] (70)
359F  00                 [107] (70)
35A0  00                 [108] (71)
35A1  21                 [109] (71)
35A2  02                 [110] (71)
35A3  00                 [111] (71)
35A4  00                 [112] (71)
35A5  21                 [113] (73)
35A6  02                 [114] (73)
35A7  00                 [115] (73)
35A8  00                 [116] (73)
35A9  21                 [117] (74)
35AA  02                 [118] (74)
35AB  00                 [119] (75)
35AC  00                 [120] (75)
35AD  22                 [121] (75)
35AE  02                 [122] (75)
35AF  00                 [123] (75)
35B0  00                 [124] (76)
35B1  23                 [125] (76)
35B2  02                 [126] (76)
35B3  00                 [127] (76)
35B4  00                 [128] (77)
35B5  20                 [129] (80)
35B6  02                 [130] (80)
35B7  00                 [131] (81)
35B8  00                 [132] (81)
35B9  28                 [133] (81)
35BA  02                 [134] (81)
35BB  00                 [135] (81)
35BC  00                 [136] (82)
35BD  28                 [137] (82)
35BE  02                 [138] (82)
35BF  00                 [139] (82)
35C0  00                 [140] (84)
35C1  29                 [141] (85)
35C2  02                 [142] (85)
35C3  00                 [143] (86)
35C4  00                 [144] (86)
35C5  29                 [145] (86)
35C6  02                 [146] (86)
35C7  00                 [147] (86)
35C8  00                 [148] (86)
35C9  29                 [149] (86)
35CA  02                 [150] (86)
35CB  00                 [151] (86)
35CC  00                 [152] (89)
35CD  29                 [153] (89)
35CE  02                 [154] (89)
35CF  00                 [155] (89)
35D0  00                 [156] (89)
35D1  29                 [157] (89)
35D2  02                 [158] (89)
35D3  00                 [159] (92)
35D4  00                 [160] (92)
35D5  29                 [161] (93)
                         * locals:
37B9  00                 sizelocvars (0)
                         * upvalues:
37BA  00                 sizeupvalues (0)
                         ** end of function **

                         
37BB                     ** function [17] definition (level 2)
                         ** start of function **
37BB  00                 string size (0)
                         source name: (none)
37BD  04                 line defined (607)
37BE  F1                 last line defined (625)
37BF  04                 nups (2)
37C0  02                 numparams (1)
37C1  01                 is_vararg (0)
37C2  00                 maxstacksize (8)
                         * code:
37C4  2B                 sizecode (43)
37C5  5D000000           [01] getglobal  1   0        ; 1074689893
37C9  92000000           [02] move       2   0      
37CD  62800001           [03] call       1   2   2  
37D1  58000000           [04] test       1       0    ; to [6] if true
37D5  1A000080           [05] jmp        1            ; to [7]
37D9  1E008000           [06] return     0   1      
37DD  53000000           [07] getupval   1   0      
37E1  62808000           [08] call       1   1   2  
37E5  58000000           [09] test       1       0    ; to [11] if true
37E9  1AC00780           [10] jmp        32           ; to [43]
37ED  5D000000           [11] getglobal  1   0        ; 1074689893
37F1  9D400000           [12] getglobal  2   1        ; ambulasEventTransmissionSet
37F5  62800001           [13] call       1   2   2  
37F9  58400000           [14] test       1       1    ; to [16] if false
37FD  1A800680           [15] jmp        27           ; to [43]
3801  57000000           [16] loadbool   1   0   0    ; false
3805  9D000000           [17] getglobal  2   0        ; 1074689893
3809  DD800000           [18] getglobal  3   2        ; ambulasHackedFx
380D  A2800001           [19] call       2   2   2  
3811  98400000           [20] test       2       1    ; to [22] if false
3815  1A800180           [21] jmp        7            ; to [29]
3819  A4C04000           [22] self       2   0   259  ; -1625438872
381D  1D810000           [23] getglobal  4   2        ; ambulasHackedFx
3821  A2808001           [24] call       2   3   2  
3825  DD000000           [25] getglobal  3   0        ; 1074689893
3829  12010001           [26] move       4   2      
382D  E2800001           [27] call       3   2   2  
fail op	9
3831  49008001           [28] settable   1   3   0  
3835  58000000           [29] test       1       0    ; to [31] if true
3839  1AC00280           [30] jmp        12           ; to [43]
383D  DD000100           [31] getglobal  3   4        ; 2083004503
3841  1D410000           [32] getglobal  4   1        ; ambulasEventTransmissionSet
3845  E2800001           [33] call       3   2   2  
3849  13018000           [34] getupval   4   1      
384D  0E414102           [35] gettable   4   4   261  ; 1387905071
3851  52018001           [36] move       5   3      
3855  9D810100           [37] getglobal  6   6        ; -332969190
3859  D9C10100           [38] loadk      7   7        ; "HackedAmbulasKilled"
385D  A2810001           [39] call       6   2   2  
3861  D9010200           [40] loadk      7   8        ; 0
3865  22410002           [41] call       4   4   1  
3869  1AC0FF7F           [42] jmp        0            ; to [43]
386D  1E008000           [43] return     0   1      
                         * constants:
3871  09                 sizek (9)
3872  01                 const type 3
3873  65770E40           const [0]: (1074689893)
3877  04                 const type 4
3878  1C                 string size (28)
3879  616D62756C617345+  "ambulasE"
3881  76656E745472616E+  "ventTran"
3889  736D697373696F6E+  "smission"
3891  53657400           "Set\0"
                         const [1]: "ambulasEventTransmissionSet"
3895  04                 const type 4
3896  10                 string size (16)
3897  616D62756C617348+  "ambulasH"
389F  61636B6564467800   "ackedFx\0"
                         const [2]: "ambulasHackedFx"
38A7  01                 const type 3
38A8  68C51D9F           const [3]: (-1625438872)
38AC  01                 const type 3
38AD  5720287C           const [4]: (2083004503)
38B1  01                 const type 3
38B2  2FC0B952           const [5]: (1387905071)
38B6  01                 const type 3
38B7  1A4B27EC           const [6]: (-332969190)
38BB  04                 const type 4
38BC  14                 string size (20)
38BD  4861636B6564416D+  "HackedAm"
38C5  62756C61734B696C+  "bulasKil"
38CD  6C656400           "led\0"
                         const [7]: "HackedAmbulasKilled"
38D1  03                 const type 3
38D2  00000000           const [8]: (0)
                         * functions:
38D6  00                 sizep (0)
                         * lines:
38D7  2B                 sizelineinfo (43)
                         [pc] (line)
38D8  60                 [01] (96)
38D9  02                 [02] (96)
38DA  00                 [03] (96)
38DB  00                 [04] (96)
38DC  60                 [05] (96)
38DD  02                 [06] (97)
38DE  00                 [07] (99)
38DF  00                 [08] (99)
38E0  60                 [09] (99)
38E1  02                 [10] (99)
38E2  00                 [11] (99)
38E3  00                 [12] (99)
38E4  60                 [13] (99)
38E5  02                 [14] (99)
38E6  00                 [15] (99)
38E7  00                 [16] (100)
38E8  60                 [17] (101)
38E9  02                 [18] (101)
38EA  00                 [19] (101)
38EB  00                 [20] (101)
38EC  61                 [21] (101)
38ED  02                 [22] (102)
38EE  00                 [23] (102)
38EF  00                 [24] (102)
38F0  63                 [25] (103)
38F1  02                 [26] (103)
38F2  00                 [27] (103)
38F3  00                 [28] (103)
38F4  63                 [29] (106)
38F5  02                 [30] (106)
38F6  00                 [31] (107)
38F7  00                 [32] (107)
38F8  63                 [33] (107)
38F9  02                 [34] (108)
38FA  00                 [35] (108)
38FB  00                 [36] (108)
38FC  63                 [37] (108)
38FD  02                 [38] (108)
38FE  00                 [39] (108)
38FF  00                 [40] (108)
3900  63                 [41] (108)
3901  02                 [42] (108)
3902  00                 [43] (113)
                         * locals:
3984  00                 sizelocvars (0)
                         * upvalues:
3985  00                 sizeupvalues (0)
                         ** end of function **

                         
3986                     ** function [18] definition (level 2)
                         ** start of function **
3986  00                 string size (0)
                         source name: (none)
3988  04                 line defined (627)
3989  9B                 last line defined (667)
398A  05                 nups (2)
398B  02                 numparams (1)
398C  01                 is_vararg (0)
398D  00                 maxstacksize (17)
                         * code:
398F  7E                 sizecode (126)
3990  5D000000           [001] getglobal  1   0        ; 538022378
3994  99400000           [002] loadk      2   1        ; -51
3998  62400001           [003] call       1   2   1  
399C  5D800000           [004] getglobal  1   2        ; 1074689893
39A0  9DC00000           [005] getglobal  2   3        ; _T
39A4  8E004101           [006] gettable   2   2   260  ; "AmbulasKilledPlayerTransmissionPlayedTime"
39A8  62800001           [007] call       1   2   2  
39AC  58000000           [008] test       1       0    ; to [10] if true
39B0  1A400080           [009] jmp        2            ; to [12]
39B4  5DC00000           [010] getglobal  1   3        ; _T
39B8  4C404182           [011] settable   1   260 261  ; "AmbulasKilledPlayerTransmissionPlayedTime" 0
39BC  5D800100           [012] getglobal  1   6        ; gRegion
39C0  64C0C100           [013] self       1   1   263  ; -1520831144
39C4  62800001           [014] call       1   2   2  
39C8  58000000           [015] test       1       0    ; to [17] if true
39CC  1A400380           [016] jmp        14           ; to [31]
39D0  53000000           [017] getupval   1   0      
39D4  62808000           [018] call       1   1   2  
39D8  58000000           [019] test       1       0    ; to [21] if true
39DC  1A400280           [020] jmp        10           ; to [31]
39E0  5D800000           [021] getglobal  1   2        ; 1074689893
39E4  9D000200           [022] getglobal  2   8        ; ambulasEventTransmissionSet
39E8  62800001           [023] call       1   2   2  
39EC  58400000           [024] test       1       1    ; to [26] if false
39F0  1A000180           [025] jmp        5            ; to [31]
39F4  5D800000           [026] getglobal  1   2        ; 1074689893
39F8  92000000           [027] move       2   0      
39FC  62800001           [028] call       1   2   2  
3A00  58000000           [029] test       1       0    ; to [31] if true
3A04  1A000080           [030] jmp        1            ; to [32]
3A08  1E008000           [031] return     0   1      
3A0C  4B000002           [032] newtable   1   4   0    ; array=4, hash=0
3A10  97000000           [033] loadbool   2   0   0    ; false
3A14  D7000000           [034] loadbool   3   0   0    ; false
3A18  17010000           [035] loadbool   4   0   0    ; false
3A1C  57010000           [036] loadbool   5   0   0    ; false
3A20  5B400002           [037] setlist    1   4   1    ; index 1 to 4
3A24  A4404200           [038] self       2   0   265  ; -1411785325
3A28  A2800001           [039] call       2   2   2  
3A2C  DD800000           [040] getglobal  3   2        ; 1074689893
3A30  12010000           [041] move       4   0      
3A34  E2800001           [042] call       3   2   2  
3A38  D8400000           [043] test       3       1    ; to [45] if false
3A3C  1A001480           [044] jmp        81           ; to [126]
3A40  DD800000           [045] getglobal  3   2        ; 1074689893
3A44  12010001           [046] move       4   2      
3A48  E2800001           [047] call       3   2   2  
3A4C  D8400000           [048] test       3       1    ; to [50] if false
3A50  1AC01280           [049] jmp        76           ; to [126]
3A54  DD800200           [050] getglobal  3   10       ; 1491452635
3A58  E2808000           [051] call       3   1   2  
3A5C  24C14200           [052] self       4   0   267  ; 1839670529
3A60  22810001           [053] call       4   2   2  
3A64  5D810100           [054] getglobal  5   6        ; gRegion
3A68  6401C302           [055] self       5   5   268  ; 1224466847
3A6C  62810001           [056] call       5   2   2  
3A70  99410300           [057] loadk      6   13       ; 0
3A74  CA018002           [058] len        7   5      
3A78  19420300           [059] loadk      8   13       ; 0
3A7C  90C10E80           [060] forprep    6   60       ; to [121]
3A80  8E428200           [061] gettable   10  1   9  
3A84  DD820000           [062] getglobal  11  2        ; 1074689893
3A88  0E438202           [063] gettable   12  5   9  
3A8C  E2820001           [064] call       11  2   2  
3A90  D8420000           [065] test       11      1    ; to [67] if false
3A94  1A400380           [066] jmp        14           ; to [81]
3A98  DD820000           [067] getglobal  11  2        ; 1074689893
3A9C  0E438202           [068] gettable   12  5   9  
3AA0  24834306           [069] self       12  12  270  ; -1813551355
3AA4  22030001           [070] call       12  2   0  
3AA8  E2820000           [071] call       11  0   2  
3AAC  D8420000           [072] test       11      1    ; to [74] if false
3AB0  1A800180           [073] jmp        7            ; to [81]
3AB4  CE428202           [074] gettable   11  5   9  
3AB8  E482C305           [075] self       11  11  270  ; -1813551355
3ABC  E2820001           [076] call       11  2   2  
3AC0  E4C2C305           [077] self       11  11  271  ; 1511086594
3AC4  E2820001           [078] call       11  2   2  
fail op	9
3AC8  C9028005           [079] settable   11  11  0  
3ACC  4CC08204           [080] settable   1   9   11 
3AD0  98020000           [081] test       10      0    ; to [83] if true
3AD4  1A400980           [082] jmp        38           ; to [121]
3AD8  CE428200           [083] gettable   11  1   9  
fail op	35
3ADC  2300C405           [084] close      0  
3AE0  1A800880           [085] jmp        35           ; to [121]
3AE4  DD820000           [086] getglobal  11  2        ; 1074689893
3AE8  1DC30000           [087] getglobal  12  3        ; _T
3AEC  0E034106           [088] gettable   12  12  260  ; "AmbulasKilledPlayerTransmissionPlayedTime"
3AF0  E2820001           [089] call       11  2   2  
3AF4  D8420000           [090] test       11      1    ; to [92] if false
3AF8  1A000780           [091] jmp        29           ; to [121]
3AFC  DDC20000           [092] getglobal  11  3        ; _T
3B00  CE02C105           [093] gettable   11  11  260  ; "AmbulasKilledPlayerTransmissionPlayedTime"
3B04  CDC28201           [094] sub        11  3   11 
3B08  1D430400           [095] getglobal  12  17       ; ambulasKilledPlayerTransmissionDelay
fail op	21
3B0C  15C00206           [096] concat     0   12  11 
3B10  1A800580           [097] jmp        23           ; to [121]
3B14  CE428202           [098] gettable   11  5   9  
3B18  E482C305           [099] self       11  11  270  ; -1813551355
3B1C  E2820001           [100] call       11  2   2  
3B20  2483C405           [101] self       12  11  274  ; -1399888605
3B24  92030002           [102] move       14  4      
3B28  22838001           [103] call       12  3   2  
3B2C  5DC30400           [104] getglobal  13  19       ; ambulasKilledPlayerTransmissionRange
fail op	21
3B30  15400306           [105] concat     0   12  13 
3B34  1A400380           [106] jmp        14           ; to [121]
3B38  1D030500           [107] getglobal  12  20       ; 2083004503
3B3C  5D030200           [108] getglobal  13  8        ; ambulasEventTransmissionSet
3B40  22830001           [109] call       12  2   2  
3B44  53038000           [110] getupval   13  1      
3B48  4E43C506           [111] gettable   13  13  277  ; 1387905071
3B4C  92030006           [112] move       14  12     
3B50  DD830500           [113] getglobal  15  22       ; -332969190
3B54  19C40500           [114] loadk      16  23       ; "TennoKilled"
3B58  E2830001           [115] call       15  2   2  
3B5C  19440100           [116] loadk      16  5        ; 0
3B60  62430002           [117] call       13  4   1  
3B64  5DC30000           [118] getglobal  13  3        ; _T
3B68  4CC30082           [119] settable   13  260 3    ; "AmbulasKilledPlayerTransmissionPlayedTime"
3B6C  1A000080           [120] jmp        1            ; to [122]
3B70  9481F07F           [121] forloop    6   -61      ; to [61] if loop
3B74  5D030000           [122] getglobal  13  0        ; 538022378
3B78  99030600           [123] loadk      14  24       ; 0
3B7C  62430001           [124] call       13  2   1  
3B80  1A40EA7F           [125] jmp        -86          ; to [40]
3B84  1E008000           [126] return     0   1      
                         * constants:
3B88  19                 sizek (25)
3B89  01                 const type 3
3B8A  EA911120           const [0]: (538022378)
3B8E  03                 const type 3
3B8F  CDCCCC3D           const [1]: (-51)
3B93  01                 const type 3
3B94  65770E40           const [2]: (1074689893)
3B98  04                 const type 4
3B99  03                 string size (3)
3B9A  5F5400             "_T\0"
                         const [3]: "_T"
3B9D  04                 const type 4
3B9E  2A                 string size (42)
3B9F  416D62756C61734B+  "AmbulasK"
3BA7  696C6C6564506C61+  "illedPla"
3BAF  7965725472616E73+  "yerTrans"
3BB7  6D697373696F6E50+  "missionP"
3BBF  6C6179656454696D+  "layedTim"
3BC7  6500               "e\0"
                         const [4]: "AmbulasKilledPlayerTransmissionPlayedTime"
3BC9  03                 const type 3
3BCA  00000000           const [5]: (0)
3BCE  04                 const type 4
3BCF  08                 string size (8)
3BD0  67526567696F6E00   "gRegion\0"
                         const [6]: "gRegion"
3BD8  01                 const type 3
3BD9  58F559A5           const [7]: (-1520831144)
3BDD  04                 const type 4
3BDE  1C                 string size (28)
3BDF  616D62756C617345+  "ambulasE"
3BE7  76656E745472616E+  "ventTran"
3BEF  736D697373696F6E+  "smission"
3BF7  53657400           "Set\0"
                         const [8]: "ambulasEventTransmissionSet"
3BFB  01                 const type 3
3BFC  93DDD9AB           const [9]: (-1411785325)
3C00  01                 const type 3
3C01  DBC2E558           const [10]: (1491452635)
3C05  01                 const type 3
3C06  0125A76D           const [11]: (1839670529)
3C0A  01                 const type 3
3C0B  9FE1FB48           const [12]: (1224466847)
3C0F  03                 const type 3
3C10  0000803F           const [13]: (0)
3C14  01                 const type 3
3C15  0567E793           const [14]: (-1813551355)
3C19  01                 const type 3
3C1A  025A115A           const [15]: (1511086594)
3C1E  01                 const type 3
3C1F  00000000           const [16]: (0)
3C23  04                 const type 4
3C24  25                 string size (37)
3C25  616D62756C61734B+  "ambulasK"
3C2D  696C6C6564506C61+  "illedPla"
3C35  7965725472616E73+  "yerTrans"
3C3D  6D697373696F6E44+  "missionD"
3C45  656C617900         "elay\0"
                         const [17]: "ambulasKilledPlayerTransmissionDelay"
3C4A  01                 const type 3
3C4B  23658FAC           const [18]: (-1399888605)
3C4F  04                 const type 4
3C50  25                 string size (37)
3C51  616D62756C61734B+  "ambulasK"
3C59  696C6C6564506C61+  "illedPla"
3C61  7965725472616E73+  "yerTrans"
3C69  6D697373696F6E52+  "missionR"
3C71  616E676500         "ange\0"
                         const [19]: "ambulasKilledPlayerTransmissionRange"
3C76  01                 const type 3
3C77  5720287C           const [20]: (2083004503)
3C7B  01                 const type 3
3C7C  2FC0B952           const [21]: (1387905071)
3C80  01                 const type 3
3C81  1A4B27EC           const [22]: (-332969190)
3C85  04                 const type 4
3C86  0C                 string size (12)
3C87  54656E6E6F4B696C+  "TennoKil"
3C8F  6C656400           "led\0"
                         const [23]: "TennoKilled"
3C93  03                 const type 3
3C94  0000C03F           const [24]: (0)
                         * functions:
3C98  00                 sizep (0)
                         * lines:
3C99  7E                 sizelineinfo (126)
                         [pc] (line)
3C9A  74                 [001] (116)
3C9B  02                 [002] (116)
3C9C  00                 [003] (116)
3C9D  00                 [004] (117)
3C9E  74                 [005] (117)
3C9F  02                 [006] (117)
3CA0  00                 [007] (117)
3CA1  00                 [008] (117)
3CA2  74                 [009] (117)
3CA3  02                 [010] (118)
3CA4  00                 [011] (118)
3CA5  00                 [012] (122)
3CA6  75                 [013] (122)
3CA7  02                 [014] (122)
3CA8  00                 [015] (122)
3CA9  00                 [016] (122)
3CAA  75                 [017] (122)
3CAB  02                 [018] (122)
3CAC  00                 [019] (122)
3CAD  00                 [020] (122)
3CAE  75                 [021] (122)
3CAF  02                 [022] (122)
3CB0  00                 [023] (122)
3CB1  00                 [024] (122)
3CB2  75                 [025] (122)
3CB3  02                 [026] (122)
3CB4  00                 [027] (122)
3CB5  00                 [028] (122)
3CB6  75                 [029] (122)
3CB7  02                 [030] (122)
3CB8  00                 [031] (123)
3CB9  00                 [032] (126)
3CBA  75                 [033] (126)
3CBB  02                 [034] (126)
3CBC  00                 [035] (126)
3CBD  00                 [036] (126)
3CBE  76                 [037] (126)
3CBF  02                 [038] (127)
3CC0  00                 [039] (127)
3CC1  00                 [040] (-127)
3CC2  76                 [041] (-127)
3CC3  02                 [042] (-127)
3CC4  00                 [043] (-127)
3CC5  00                 [044] (-127)
3CC6  7A                 [045] (-127)
3CC7  02                 [046] (-127)
3CC8  00                 [047] (-127)
3CC9  00                 [048] (-127)
3CCA  7A                 [049] (-127)
3CCB  02                 [050] (-126)
3CCC  00                 [051] (-126)
3CCD  00                 [052] (-125)
3CCE  7A                 [053] (-125)
3CCF  02                 [054] (-123)
3CD0  00                 [055] (-123)
3CD1  00                 [056] (-123)
3CD2  7A                 [057] (-122)
3CD3  02                 [058] (-122)
3CD4  00                 [059] (-122)
3CD5  00                 [060] (-122)
3CD6  7A                 [061] (-121)
3CD7  02                 [062] (-120)
3CD8  00                 [063] (-120)
3CD9  00                 [064] (-120)
3CDA  7A                 [065] (-120)
3CDB  02                 [066] (-120)
3CDC  00                 [067] (-120)
3CDD  00                 [068] (-120)
3CDE  7A                 [069] (-120)
3CDF  02                 [070] (-120)
3CE0  00                 [071] (-120)
3CE1  00                 [072] (-120)
3CE2  7A                 [073] (-120)
3CE3  02                 [074] (-119)
3CE4  00                 [075] (-119)
3CE5  00                 [076] (-119)
3CE6  7A                 [077] (-119)
3CE7  02                 [078] (-119)
3CE8  00                 [079] (-119)
3CE9  00                 [080] (-119)
3CEA  7A                 [081] (-117)
3CEB  02                 [082] (-117)
3CEC  00                 [083] (-117)
3CED  00                 [084] (-117)
3CEE  7A                 [085] (-117)
3CEF  02                 [086] (-116)
3CF0  00                 [087] (-116)
3CF1  00                 [088] (-116)
3CF2  7A                 [089] (-116)
3CF3  02                 [090] (-116)
3CF4  00                 [091] (-116)
3CF5  00                 [092] (-116)
3CF6  7A                 [093] (-116)
3CF7  02                 [094] (-116)
3CF8  00                 [095] (-116)
3CF9  00                 [096] (-116)
3CFA  7A                 [097] (-116)
3CFB  02                 [098] (-115)
3CFC  00                 [099] (-115)
3CFD  00                 [100] (-115)
3CFE  7A                 [101] (-113)
3CFF  02                 [102] (-113)
3D00  00                 [103] (-113)
3D01  00                 [104] (-113)
3D02  7A                 [105] (-113)
3D03  02                 [106] (-113)
3D04  00                 [107] (-112)
3D05  00                 [108] (-112)
3D06  7A                 [109] (-112)
3D07  02                 [110] (-111)
3D08  00                 [111] (-111)
3D09  00                 [112] (-111)
3D0A  7A                 [113] (-111)
3D0B  02                 [114] (-111)
3D0C  00                 [115] (-111)
3D0D  00                 [116] (-111)
3D0E  7A                 [117] (-111)
3D0F  02                 [118] (-110)
3D10  00                 [119] (-110)
3D11  00                 [120] (-109)
3D12  7B                 [121] (-122)
3D13  02                 [122] (-103)
3D14  00                 [123] (-103)
3D15  00                 [124] (-103)
3D16  7E                 [125] (-103)
3D17  02                 [126] (-101)
                         * locals:
3E92  00                 sizelocvars (0)
                         * upvalues:
3E93  00                 sizeupvalues (0)
                         ** end of function **

                         
3E94                     ** function [19] definition (level 2)
                         ** start of function **
3E94  00                 string size (0)
                         source name: (none)
3E96  05                 line defined (669)
3E97  C0                 last line defined (704)
3E98  05                 nups (3)
3E99  03                 numparams (1)
3E9A  01                 is_vararg (0)
3E9B  00                 maxstacksize (13)
                         * code:
3E9D  66                 sizecode (102)
3E9E  53000000           [001] getupval   1   0      
3EA2  4E00C000           [002] gettable   1   1   256  ; 1776858983
3EA6  62808000           [003] call       1   1   2  
3EAA  58000000           [004] test       1       0    ; to [6] if true
3EAE  1A000080           [005] jmp        1            ; to [7]
3EB2  1E008000           [006] return     0   1      
3EB6  5D400000           [007] getglobal  1   1        ; _T
3EBA  4E80C000           [008] gettable   1   1   258  ; "InSimulacrum"
3EBE  58000000           [009] test       1       0    ; to [11] if true
3EC2  1A400080           [010] jmp        2            ; to [13]
3EC6  57000000           [011] loadbool   1   0   0    ; false
3ECA  5E000001           [012] return     1   2      
3ECE  5DC00000           [013] getglobal  1   3        ; 1074689893
3ED2  9D000100           [014] getglobal  2   4        ; ambulasEventTransmissionSet
3ED6  62800001           [015] call       1   2   2  
3EDA  58400000           [016] test       1       1    ; to [18] if false
3EDE  1AC01480           [017] jmp        84           ; to [102]
3EE2  57000000           [018] loadbool   1   0   0    ; false
3EE6  9D400100           [019] getglobal  2   5        ; gGameRules
3EEA  A4804101           [020] self       2   2   262  ; -1201441975
3EEE  A2800001           [021] call       2   2   2  
3EF2  DDC00000           [022] getglobal  3   3        ; 1074689893
3EF6  12010001           [023] move       4   2      
3EFA  E2800001           [024] call       3   2   2  
3EFE  D8400000           [025] test       3       1    ; to [27] if false
3F02  1AC00280           [026] jmp        12           ; to [39]
3F06  DDC00000           [027] getglobal  3   3        ; 1074689893
3F0A  0EC14101           [028] gettable   4   2   263  ; "vipAgent"
3F0E  E2800001           [029] call       3   2   2  
3F12  D8400000           [030] test       3       1    ; to [32] if false
3F16  1A800180           [031] jmp        7            ; to [39]
3F1A  CEC04101           [032] gettable   3   2   263  ; "vipAgent"
3F1E  E400C201           [033] self       3   3   264  ; -1957065004
3F22  53018000           [034] getupval   5   1      
3F26  E2808001           [035] call       3   3   2  
3F2A  D8000000           [036] test       3       0    ; to [38] if true
3F2E  1A000080           [037] jmp        1            ; to [39]
3F32  57008000           [038] loadbool   1   1   0    ; true
3F36  58000000           [039] test       1       0    ; to [41] if true
3F3A  1A400C80           [040] jmp        50           ; to [91]
3F3E  DD400200           [041] getglobal  3   9        ; -332969190
3F42  19810200           [042] loadk      4   10       ; "AmbulasHackOrders"
3F46  E2800001           [043] call       3   2   2  
3F4A  1D410100           [044] getglobal  4   5        ; gGameRules
3F4E  24C14202           [045] self       4   4   267  ; -317790213
3F52  92018001           [046] move       6   3      
3F56  D9010300           [047] loadk      7   12       ; 0
3F5A  22810002           [048] call       4   4   2  
3F5E  5DC10000           [049] getglobal  5   3        ; 1074689893
3F62  92010002           [050] move       6   4      
3F66  62810001           [051] call       5   2   2  
3F6A  58410000           [052] test       5       1    ; to [54] if false
3F6E  1A800480           [053] jmp        19           ; to [73]
fail op	35
3F72  23004302           [054] close      0  
3F76  1A000480           [055] jmp        17           ; to [73]
3F7A  5D410300           [056] getglobal  5   13       ; 2083004503
3F7E  9D010100           [057] getglobal  6   4        ; ambulasEventTransmissionSet
3F82  62810001           [058] call       5   2   2  
3F86  93010001           [059] getupval   6   2      
3F8A  8E814303           [060] gettable   6   6   270  ; 1387905071
3F8E  D2018002           [061] move       7   5      
3F92  1D420200           [062] getglobal  8   9        ; -332969190
3F96  59C20300           [063] loadk      9   15       ; "AmbulasBossPreDeath"
3F9A  22820001           [064] call       8   2   2  
3F9E  59020300           [065] loadk      9   12       ; 0
3FA2  A2410002           [066] call       6   4   1  
3FA6  9D410100           [067] getglobal  6   5        ; gGameRules
3FAA  A4014403           [068] self       6   6   272  ; -803877924
3FAE  12028001           [069] move       8   3      
3FB2  59420400           [070] loadk      9   17       ; 0
3FB6  A2410002           [071] call       6   4   1  
3FBA  1A000780           [072] jmp        29           ; to [102]
3FBE  9D810400           [073] getglobal  6   18       ; 687937235
3FC2  D9010300           [074] loadk      7   12       ; 0
3FC6  19420400           [075] loadk      8   17       ; 0
3FCA  A2818001           [076] call       6   3   2  
fail op	35
3FCE  23004303           [077] close      0  
3FD2  1A800580           [078] jmp        23           ; to [102]
3FD6  DD410300           [079] getglobal  7   13       ; 2083004503
3FDA  1D020100           [080] getglobal  8   4        ; ambulasEventTransmissionSet
3FDE  E2810001           [081] call       7   2   2  
3FE2  13020001           [082] getupval   8   2      
3FE6  0E824304           [083] gettable   8   8   270  ; 1387905071
3FEA  52028003           [084] move       9   7      
3FEE  9D420200           [085] getglobal  10  9        ; -332969190
3FF2  D9C20300           [086] loadk      11  15       ; "AmbulasBossPreDeath"
3FF6  A2820001           [087] call       10  2   2  
3FFA  D9020300           [088] loadk      11  12       ; 0
3FFE  22420002           [089] call       8   4   1  
4002  1A800280           [090] jmp        11           ; to [102]
4006  1D420300           [091] getglobal  8   13       ; 2083004503
400A  5D020100           [092] getglobal  9   4        ; ambulasEventTransmissionSet
400E  22820001           [093] call       8   2   2  
4012  53020001           [094] getupval   9   2      
4016  4E82C304           [095] gettable   9   9   270  ; 1387905071
401A  92020004           [096] move       10  8      
401E  DD420200           [097] getglobal  11  9        ; -332969190
4022  19C30400           [098] loadk      12  19       ; "AmbulasPreDeath"
4026  E2820001           [099] call       11  2   2  
402A  19030300           [100] loadk      12  12       ; 0
402E  62420002           [101] call       9   4   1  
4032  1E008000           [102] return     0   1      
                         * constants:
4036  14                 sizek (20)
4037  01                 const type 3
4038  67B7E869           const [0]: (1776858983)
403C  04                 const type 4
403D  03                 string size (3)
403E  5F5400             "_T\0"
                         const [1]: "_T"
4041  04                 const type 4
4042  0D                 string size (13)
4043  496E53696D756C61+  "InSimula"
404B  6372756D00         "crum\0"
                         const [2]: "InSimulacrum"
4050  01                 const type 3
4051  65770E40           const [3]: (1074689893)
4055  04                 const type 4
4056  1C                 string size (28)
4057  616D62756C617345+  "ambulasE"
405F  76656E745472616E+  "ventTran"
4067  736D697373696F6E+  "smission"
406F  53657400           "Set\0"
                         const [4]: "ambulasEventTransmissionSet"
4073  04                 const type 4
4074  0B                 string size (11)
4075  6747616D6552756C+  "gGameRul"
407D  657300             "es\0"
                         const [5]: "gGameRules"
4080  01                 const type 3
4081  497363B8           const [6]: (-1201441975)
4085  04                 const type 4
4086  09                 string size (9)
4087  7669704167656E74+  "vipAgent"
408F  00                 "\0"
                         const [7]: "vipAgent"
4090  01                 const type 3
4091  D48E598B           const [8]: (-1957065004)
4095  01                 const type 3
4096  1A4B27EC           const [9]: (-332969190)
409A  04                 const type 4
409B  12                 string size (18)
409C  416D62756C617348+  "AmbulasH"
40A4  61636B4F72646572+  "ackOrder"
40AC  7300               "s\0"
                         const [10]: "AmbulasHackOrders"
40AE  01                 const type 3
40AF  FBE70EED           const [11]: (-317790213)
40B3  03                 const type 3
40B4  00000000           const [12]: (0)
40B8  01                 const type 3
40B9  5720287C           const [13]: (2083004503)
40BD  01                 const type 3
40BE  2FC0B952           const [14]: (1387905071)
40C2  04                 const type 4
40C3  14                 string size (20)
40C4  416D62756C617342+  "AmbulasB"
40CC  6F73735072654465+  "ossPreDe"
40D4  61746800           "ath\0"
                         const [15]: "AmbulasBossPreDeath"
40D8  01                 const type 3
40D9  DCCB15D0           const [16]: (-803877924)
40DD  03                 const type 3
40DE  0000803F           const [17]: (0)
40E2  01                 const type 3
40E3  D3160129           const [18]: (687937235)
40E7  04                 const type 4
40E8  10                 string size (16)
40E9  416D62756C617350+  "AmbulasP"
40F1  7265446561746800   "reDeath\0"
                         const [19]: "AmbulasPreDeath"
                         * functions:
40F9  00                 sizep (0)
                         * lines:
40FA  66                 sizelineinfo (102)
                         [pc] (line)
40FB  9E                 [001] (-98)
40FC  02                 [002] (-98)
40FD  00                 [003] (-98)
40FE  00                 [004] (-98)
40FF  9E                 [005] (-98)
4100  02                 [006] (-97)
4101  00                 [007] (-94)
4102  00                 [008] (-94)
4103  9E                 [009] (-94)
4104  02                 [010] (-94)
4105  00                 [011] (-93)
4106  00                 [012] (-93)
4107  9E                 [013] (-90)
4108  02                 [014] (-90)
4109  00                 [015] (-90)
410A  00                 [016] (-90)
410B  9E                 [017] (-90)
410C  02                 [018] (-89)
410D  00                 [019] (-88)
410E  00                 [020] (-88)
410F  9F                 [021] (-88)
4110  02                 [022] (-87)
4111  00                 [023] (-87)
4112  00                 [024] (-87)
4113  A2                 [025] (-87)
4114  02                 [026] (-87)
4115  00                 [027] (-87)
4116  00                 [028] (-87)
4117  A2                 [029] (-87)
4118  02                 [030] (-87)
4119  00                 [031] (-87)
411A  00                 [032] (-87)
411B  A2                 [033] (-87)
411C  02                 [034] (-87)
411D  00                 [035] (-87)
411E  00                 [036] (-87)
411F  A2                 [037] (-87)
4120  02                 [038] (-86)
4121  00                 [039] (-83)
4122  00                 [040] (-83)
4123  A3                 [041] (-82)
4124  02                 [042] (-82)
4125  00                 [043] (-82)
4126  00                 [044] (-81)
4127  A3                 [045] (-81)
4128  02                 [046] (-81)
4129  00                 [047] (-81)
412A  00                 [048] (-81)
412B  A6                 [049] (-80)
412C  02                 [050] (-80)
412D  00                 [051] (-80)
412E  00                 [052] (-80)
412F  A6                 [053] (-80)
4130  02                 [054] (-80)
4131  00                 [055] (-80)
4132  00                 [056] (-79)
4133  A6                 [057] (-79)
4134  02                 [058] (-79)
4135  00                 [059] (-78)
4136  00                 [060] (-78)
4137  A6                 [061] (-78)
4138  02                 [062] (-78)
4139  00                 [063] (-78)
413A  00                 [064] (-78)
413B  A6                 [065] (-78)
413C  02                 [066] (-78)
413D  00                 [067] (-77)
413E  00                 [068] (-77)
413F  A7                 [069] (-77)
4140  02                 [070] (-77)
4141  00                 [071] (-77)
4142  00                 [072] (-77)
4143  A8                 [073] (-75)
4144  02                 [074] (-75)
4145  00                 [075] (-75)
4146  00                 [076] (-75)
4147  A8                 [077] (-74)
4148  02                 [078] (-74)
4149  00                 [079] (-73)
414A  00                 [080] (-73)
414B  A8                 [081] (-73)
414C  02                 [082] (-72)
414D  00                 [083] (-72)
414E  00                 [084] (-72)
414F  A9                 [085] (-72)
4150  02                 [086] (-72)
4151  00                 [087] (-72)
4152  00                 [088] (-72)
4153  A9                 [089] (-72)
4154  02                 [090] (-70)
4155  00                 [091] (-68)
4156  00                 [092] (-68)
4157  A9                 [093] (-68)
4158  02                 [094] (-67)
4159  00                 [095] (-67)
415A  00                 [096] (-67)
415B  A9                 [097] (-67)
415C  02                 [098] (-67)
415D  00                 [099] (-67)
415E  00                 [100] (-67)
415F  A9                 [101] (-67)
4160  02                 [102] (-64)
                         * locals:
4293  00                 sizelocvars (0)
                         * upvalues:
4294  00                 sizeupvalues (0)
                         ** end of function **

                         
4295                     ** function [20] definition (level 2)
                         ** start of function **
4295  00                 string size (0)
                         source name: (none)
4297  05                 line defined (706)
4298  E3                 last line defined (739)
4299  05                 nups (4)
429A  04                 numparams (1)
429B  01                 is_vararg (0)
429C  00                 maxstacksize (8)
                         * code:
429E  58                 sizecode (88)
429F  5D000000           [01] getglobal  1   0        ; 538022378
42A3  99400000           [02] loadk      2   1        ; -51
42A7  62400001           [03] call       1   2   1  
42AB  5D800000           [04] getglobal  1   2        ; gRegion
42AF  64C0C000           [05] self       1   1   259  ; -1520831144
42B3  62800001           [06] call       1   2   2  
42B7  58000000           [07] test       1       0    ; to [9] if true
42BB  1A000280           [08] jmp        9            ; to [18]
42BF  5D000100           [09] getglobal  1   4        ; 1074689893
42C3  9D400100           [10] getglobal  2   5        ; ambulasEventTransmissionSet
42C7  62800001           [11] call       1   2   2  
42CB  58400000           [12] test       1       1    ; to [14] if false
42CF  1AC00080           [13] jmp        4            ; to [18]
42D3  53000000           [14] getupval   1   0      
42D7  62808000           [15] call       1   1   2  
42DB  58400000           [16] test       1       1    ; to [18] if false
42DF  1A000080           [17] jmp        1            ; to [19]
42E3  1E008000           [18] return     0   1      
42E7  53008000           [19] getupval   1   1      
42EB  4E80C100           [20] gettable   1   1   262  ; 1776858983
42EF  62808000           [21] call       1   1   2  
42F3  58000000           [22] test       1       0    ; to [24] if true
42F7  1A000080           [23] jmp        1            ; to [25]
42FB  1E008000           [24] return     0   1      
42FF  5DC00100           [25] getglobal  1   7        ; _T
4303  4E00C200           [26] gettable   1   1   264  ; "InSimulacrum"
4307  58000000           [27] test       1       0    ; to [29] if true
430B  1A400080           [28] jmp        2            ; to [31]
430F  57000000           [29] loadbool   1   0   0    ; false
4313  5E000001           [30] return     1   2      
4317  5D000100           [31] getglobal  1   4        ; 1074689893
431B  92000000           [32] move       2   0      
431F  62800001           [33] call       1   2   2  
4323  58400000           [34] test       1       1    ; to [36] if false
4327  1A000180           [35] jmp        5            ; to [41]
432B  64404200           [36] self       1   0   265  ; -1519595333
432F  62800001           [37] call       1   2   2  
4333  58000000           [38] test       1       0    ; to [40] if true
4337  1A000080           [39] jmp        1            ; to [41]
433B  1E008000           [40] return     0   1      
433F  5D800200           [41] getglobal  1   10       ; 1491452635
4343  62808000           [42] call       1   1   2  
4347  9D000100           [43] getglobal  2   4        ; 1074689893
434B  DDC00100           [44] getglobal  3   7        ; _T
434F  CEC0C201           [45] gettable   3   3   267  ; "AmbulasHurtTransmissionPlayedTime"
4353  A2800001           [46] call       2   2   2  
4357  98400000           [47] test       2       1    ; to [49] if false
435B  1A400180           [48] jmp        6            ; to [55]
435F  9DC00100           [49] getglobal  2   7        ; _T
4363  8EC04201           [50] gettable   2   2   267  ; "AmbulasHurtTransmissionPlayedTime"
4367  8D808000           [51] sub        2   1   2  
fail op	33
436B  21004301           [52] tforloop   0       268  ; to [54] if exit
436F  1A000080           [53] jmp        1            ; to [55]
4373  1E008000           [54] return     0   1      
4377  9D400300           [55] getglobal  2   13       ; gGameRules
437B  A4804301           [56] self       2   2   270  ; -1201441975
437F  A2800001           [57] call       2   2   2  
4383  DD000100           [58] getglobal  3   4        ; 1074689893
4387  12010001           [59] move       4   2      
438B  E2800001           [60] call       3   2   2  
438F  D8400000           [61] test       3       1    ; to [63] if false
4393  1AC00280           [62] jmp        12           ; to [75]
4397  DD000100           [63] getglobal  3   4        ; 1074689893
439B  0EC14301           [64] gettable   4   2   271  ; "vipAgent"
439F  E2800001           [65] call       3   2   2  
43A3  D8400000           [66] test       3       1    ; to [68] if false
43A7  1A800180           [67] jmp        7            ; to [75]
43AB  CEC04301           [68] gettable   3   2   271  ; "vipAgent"
43AF  E400C401           [69] self       3   3   272  ; -1957065004
43B3  53010001           [70] getupval   5   2      
43B7  E2808001           [71] call       3   3   2  
43BB  D8000000           [72] test       3       0    ; to [74] if true
43BF  1A000080           [73] jmp        1            ; to [75]
43C3  1E008000           [74] return     0   1      
43C7  DD400400           [75] getglobal  3   17       ; 2083004503
43CB  1D410100           [76] getglobal  4   5        ; ambulasEventTransmissionSet
43CF  E2800001           [77] call       3   2   2  
43D3  13018001           [78] getupval   4   3      
43D7  0E814402           [79] gettable   4   4   274  ; 1387905071
43DB  52018001           [80] move       5   3      
43DF  9DC10400           [81] getglobal  6   19       ; -332969190
43E3  D9010500           [82] loadk      7   20       ; "AmbulasHurt"
43E7  A2810001           [83] call       6   2   2  
43EB  D9410500           [84] loadk      7   21       ; 0
43EF  22410002           [85] call       4   4   1  
43F3  1DC10100           [86] getglobal  4   7        ; _T
43F7  0C418085           [87] settable   4   267 1    ; "AmbulasHurtTransmissionPlayedTime"
43FB  1E008000           [88] return     0   1      
                         * constants:
43FF  16                 sizek (22)
4400  01                 const type 3
4401  EA911120           const [0]: (538022378)
4405  03                 const type 3
4406  CDCCCC3D           const [1]: (-51)
440A  04                 const type 4
440B  08                 string size (8)
440C  67526567696F6E00   "gRegion\0"
                         const [2]: "gRegion"
4414  01                 const type 3
4415  58F559A5           const [3]: (-1520831144)
4419  01                 const type 3
441A  65770E40           const [4]: (1074689893)
441E  04                 const type 4
441F  1C                 string size (28)
4420  616D62756C617345+  "ambulasE"
4428  76656E745472616E+  "ventTran"
4430  736D697373696F6E+  "smission"
4438  53657400           "Set\0"
                         const [5]: "ambulasEventTransmissionSet"
443C  01                 const type 3
443D  67B7E869           const [6]: (1776858983)
4441  04                 const type 4
4442  03                 string size (3)
4443  5F5400             "_T\0"
                         const [7]: "_T"
4446  04                 const type 4
4447  0D                 string size (13)
4448  496E53696D756C61+  "InSimula"
4450  6372756D00         "crum\0"
                         const [8]: "InSimulacrum"
4455  01                 const type 3
4456  BBD06CA5           const [9]: (-1519595333)
445A  01                 const type 3
445B  DBC2E558           const [10]: (1491452635)
445F  04                 const type 4
4460  22                 string size (34)
4461  416D62756C617348+  "AmbulasH"
4469  7572745472616E73+  "urtTrans"
4471  6D697373696F6E50+  "missionP"
4479  6C6179656454696D+  "layedTim"
4481  6500               "e\0"
                         const [11]: "AmbulasHurtTransmissionPlayedTime"
4483  03                 const type 3
4484  00008041           const [12]: (0)
4488  04                 const type 4
4489  0B                 string size (11)
448A  6747616D6552756C+  "gGameRul"
4492  657300             "es\0"
                         const [13]: "gGameRules"
4495  01                 const type 3
4496  497363B8           const [14]: (-1201441975)
449A  04                 const type 4
449B  09                 string size (9)
449C  7669704167656E74+  "vipAgent"
44A4  00                 "\0"
                         const [15]: "vipAgent"
44A5  01                 const type 3
44A6  D48E598B           const [16]: (-1957065004)
44AA  01                 const type 3
44AB  5720287C           const [17]: (2083004503)
44AF  01                 const type 3
44B0  2FC0B952           const [18]: (1387905071)
44B4  01                 const type 3
44B5  1A4B27EC           const [19]: (-332969190)
44B9  04                 const type 4
44BA  0C                 string size (12)
44BB  416D62756C617348+  "AmbulasH"
44C3  75727400           "urt\0"
                         const [20]: "AmbulasHurt"
44C7  03                 const type 3
44C8  00000000           const [21]: (0)
                         * functions:
44CC  00                 sizep (0)
                         * lines:
44CD  58                 sizelineinfo (88)
                         [pc] (line)
44CE  C3                 [01] (-61)
44CF  02                 [02] (-61)
44D0  00                 [03] (-61)
44D1  00                 [04] (-59)
44D2  C3                 [05] (-59)
44D3  02                 [06] (-59)
44D4  00                 [07] (-59)
44D5  00                 [08] (-59)
44D6  C3                 [09] (-59)
44D7  02                 [10] (-59)
44D8  00                 [11] (-59)
44D9  00                 [12] (-59)
44DA  C5                 [13] (-59)
44DB  02                 [14] (-59)
44DC  00                 [15] (-59)
44DD  00                 [16] (-59)
44DE  C5                 [17] (-59)
44DF  02                 [18] (-58)
44E0  00                 [19] (-55)
44E1  00                 [20] (-55)
44E2  C5                 [21] (-55)
44E3  02                 [22] (-55)
44E4  00                 [23] (-55)
44E5  00                 [24] (-54)
44E6  C5                 [25] (-51)
44E7  02                 [26] (-51)
44E8  00                 [27] (-51)
44E9  00                 [28] (-51)
44EA  C5                 [29] (-50)
44EB  02                 [30] (-50)
44EC  00                 [31] (-47)
44ED  00                 [32] (-47)
44EE  C5                 [33] (-47)
44EF  02                 [34] (-47)
44F0  00                 [35] (-47)
44F1  00                 [36] (-47)
44F2  C5                 [37] (-47)
44F3  02                 [38] (-47)
44F4  00                 [39] (-47)
44F5  00                 [40] (-46)
44F6  C5                 [41] (-43)
44F7  02                 [42] (-43)
44F8  00                 [43] (-42)
44F9  00                 [44] (-42)
44FA  C5                 [45] (-42)
44FB  02                 [46] (-42)
44FC  00                 [47] (-42)
44FD  00                 [48] (-42)
44FE  C5                 [49] (-42)
44FF  02                 [50] (-42)
4500  00                 [51] (-42)
4501  00                 [52] (-42)
4502  C5                 [53] (-42)
4503  02                 [54] (-41)
4504  00                 [55] (-38)
4505  00                 [56] (-38)
4506  C5                 [57] (-38)
4507  02                 [58] (-37)
4508  00                 [59] (-37)
4509  00                 [60] (-37)
450A  C5                 [61] (-37)
450B  02                 [62] (-37)
450C  00                 [63] (-37)
450D  00                 [64] (-37)
450E  C5                 [65] (-37)
450F  02                 [66] (-37)
4510  00                 [67] (-37)
4511  00                 [68] (-37)
4512  C6                 [69] (-37)
4513  02                 [70] (-37)
4514  00                 [71] (-37)
4515  00                 [72] (-37)
4516  C9                 [73] (-37)
4517  02                 [74] (-35)
4518  00                 [75] (-32)
4519  00                 [76] (-32)
451A  C9                 [77] (-32)
451B  02                 [78] (-31)
451C  00                 [79] (-31)
451D  00                 [80] (-31)
451E  C9                 [81] (-31)
451F  02                 [82] (-31)
4520  00                 [83] (-31)
4521  00                 [84] (-31)
4522  C9                 [85] (-31)
4523  02                 [86] (-30)
4524  00                 [87] (-30)
4525  00                 [88] (-29)
                         * locals:
462E  00                 sizelocvars (0)
                         * upvalues:
462F  00                 sizeupvalues (0)
                         ** end of function **

                         
4630                     ** function [21] definition (level 2)
                         ** start of function **
4630  00                 string size (0)
                         source name: (none)
4632  05                 line defined (741)
4633  A5                 last line defined (805)
4634  06                 nups (4)
4635  04                 numparams (1)
4636  01                 is_vararg (0)
4637  00                 maxstacksize (14)
                         * code:
463A  01                 sizecode (151)
463B  5D000000           [001] getglobal  1   0        ; _T
463F  4E40C000           [002] gettable   1   1   257  ; "HunterShipCountLeft"
fail op	35
4643  2380C000           [003] close      0  
4647  1A800180           [004] jmp        7            ; to [12]
464B  5D000000           [005] getglobal  1   0        ; _T
464F  9DC00000           [006] getglobal  2   3        ; 2144646525
4653  D9000100           [007] loadk      3   4        ; 0
4657  19410100           [008] loadk      4   5        ; 0
465B  A2808001           [009] call       2   3   2  
465F  4C808080           [010] settable   1   257 2    ; "HunterShipCountLeft"
4663  1AC00180           [011] jmp        8            ; to [20]
4667  5D000000           [012] getglobal  1   0        ; _T
466B  4E40C000           [013] gettable   1   1   257  ; "HunterShipCountLeft"
fail op	33
466F  2180C100           [014] tforloop   0       262  ; to [16] if exit
4673  1AC00080           [015] jmp        4            ; to [20]
4677  64C04100           [016] self       1   0   263  ; 766584623
467B  62400001           [017] call       1   2   1  
467F  57000000           [018] loadbool   1   0   0    ; false
4683  5E000001           [019] return     1   2      
4687  5D000200           [020] getglobal  1   8        ; 1491452635
468B  62808000           [021] call       1   1   2  
468F  9D000000           [022] getglobal  2   0        ; _T
4693  8E404201           [023] gettable   2   2   265  ; "DropshipNextEventTime"
fail op	35
4697  63804001           [024] close      1  
469B  1A800180           [025] jmp        7            ; to [33]
469F  9D000000           [026] getglobal  2   0        ; _T
46A3  8E404201           [027] gettable   2   2   265  ; "DropshipNextEventTime"
46A7  8D400001           [028] sub        2   2   1  
fail op	21
46AB  15800083           [029] concat     0   262 2  
46AF  1A400080           [030] jmp        2            ; to [33]
46B3  97000000           [031] loadbool   2   0   0    ; false
46B7  9E000001           [032] return     2   2      
46BB  9D800200           [033] getglobal  2   10       ; gRegion
46BF  A4C04201           [034] self       2   2   267  ; -774964848
46C3  A2800001           [035] call       2   2   2  
46C7  E4004301           [036] self       3   2   268  ; 537471347
46CB  E2800001           [037] call       3   2   2  
46CF  1D410300           [038] getglobal  4   13       ; 1074689893
46D3  52018001           [039] move       5   3      
46D7  22810001           [040] call       4   2   2  
46DB  18410000           [041] test       4       1    ; to [43] if false
46DF  1A000180           [042] jmp        5            ; to [48]
46E3  2481C301           [043] self       4   3   270  ; 176437678
46E7  99C10300           [044] loadk      6   15       ; 0
46EB  22818001           [045] call       4   3   2  
46EF  18410000           [046] test       4       1    ; to [48] if false
46F3  1A400080           [047] jmp        2            ; to [50]
46F7  17010000           [048] loadbool   4   0   0    ; false
46FB  1E010001           [049] return     4   2      
46FF  1D010400           [050] getglobal  4   16       ; gGameRules
4703  24414402           [051] self       4   4   273  ; -502414055
4707  22810001           [052] call       4   2   2  
470B  59C10300           [053] loadk      5   15       ; 0
470F  93010000           [054] getupval   6   0      
4713  8A010003           [055] len        6   6      
4717  D9C10300           [056] loadk      7   15       ; 0
471B  50410180           [057] forprep    5   6        ; to [64]
471F  53020000           [058] getupval   9   0      
4723  4E028204           [059] gettable   9   9   8  
fail op	35
4727  23400202           [060] close      0  
472B  1A400080           [061] jmp        2            ; to [64]
472F  57020000           [062] loadbool   9   0   0    ; false
4733  5E020001           [063] return     9   2      
4737  5401FE7F           [064] forloop    5   -7       ; to [58] if loop
473B  5D820400           [065] getglobal  9   18       ; Lotus_Game
473F  4EC2C404           [066] gettable   9   9   275  ; "MT_ENDLESS_EXTERMINATION"
fail op	35
4743  23400202           [067] close      0  
4747  1A000180           [068] jmp        5            ; to [74]
474B  64C24100           [069] self       9   0   263  ; 766584623
474F  62420001           [070] call       9   2   1  
4753  57020000           [071] loadbool   9   0   0    ; false
4757  5E020001           [072] return     9   2      
475B  1A000E80           [073] jmp        57           ; to [131]
475F  5D820400           [074] getglobal  9   18       ; Lotus_Game
4763  4E02C504           [075] gettable   9   9   276  ; "MT_EXTERMINATION"
fail op	35
4767  23400202           [076] close      0  
476B  1A800380           [077] jmp        15           ; to [93]
476F  5D420300           [078] getglobal  9   13       ; 1074689893
4773  9D020000           [079] getglobal  10  0        ; _T
4777  8E424505           [080] gettable   10  10  277  ; "MaxEnemyCount"
477B  62820001           [081] call       9   2   2  
477F  58420000           [082] test       9       1    ; to [84] if false
4783  1A800B80           [083] jmp        47           ; to [131]
4787  5D020000           [084] getglobal  9   0        ; _T
478B  4E42C504           [085] gettable   9   9   277  ; "MaxEnemyCount"
fail op	33
478F  2180C104           [086] tforloop   0       262  ; to [88] if exit
4793  1A800A80           [087] jmp        43           ; to [131]
4797  64C24100           [088] self       9   0   263  ; 766584623
479B  62420001           [089] call       9   2   1  
479F  57020000           [090] loadbool   9   0   0    ; false
47A3  5E020001           [091] return     9   2      
47A7  1A400980           [092] jmp        38           ; to [131]
47AB  5D820400           [093] getglobal  9   18       ; Lotus_Game
47AF  4E82C504           [094] gettable   9   9   278  ; "MT_TERRITORY"
fail op	35
47B3  23400202           [095] close      0  
47B7  1A400280           [096] jmp        10           ; to [107]
47BB  5D020400           [097] getglobal  9   16       ; gGameRules
47BF  64C2C504           [098] self       9   9   279  ; -317790213
47C3  D3028000           [099] getupval   11  1      
47C7  19830100           [100] loadk      12  6        ; 0
47CB  62820002           [101] call       9   4   2  
fail op	35
47CF  2380C104           [102] close      0  
47D3  1A800680           [103] jmp        27           ; to [131]
47D7  97020000           [104] loadbool   10  0   0    ; false
47DB  9E020001           [105] return     10  2      
47DF  1AC00580           [106] jmp        24           ; to [131]
47E3  9D820400           [107] getglobal  10  18       ; Lotus_Game
47E7  8E024605           [108] gettable   10  10  280  ; "MT_RESCUE"
fail op	35
47EB  63800202           [109] close      1  
47EF  1AC00080           [110] jmp        4            ; to [115]
47F3  9D820400           [111] getglobal  10  18       ; Lotus_Game
47F7  8E424605           [112] gettable   10  10  281  ; "MT_INTEL"
fail op	35
47FB  23800202           [113] close      0  
47FF  1A800180           [114] jmp        7            ; to [122]
4803  A482C601           [115] self       10  3   282  ; 183469
4807  A2820001           [116] call       10  2   2  
fail op	35
480B  23C04605           [117] close      0  
480F  1AC00280           [118] jmp        12           ; to [131]
4813  97020000           [119] loadbool   10  0   0    ; false
4817  9E020001           [120] return     10  2      
481B  1A000280           [121] jmp        9            ; to [131]
481F  9D820400           [122] getglobal  10  18       ; Lotus_Game
4823  8E024705           [123] gettable   10  10  284  ; "MT_LANDSCAPE"
fail op	35
4827  23800202           [124] close      0  
482B  1A000180           [125] jmp        5            ; to [131]
482F  9D420700           [126] getglobal  10  29       ; -1817107093
4833  D9820700           [127] loadk      11  30       ; "Why are we evaluating this in a Landscape mission?! EventScriptTriggers can't handle it that great just yet!"
4837  A2420001           [128] call       10  2   1  
483B  97020000           [129] loadbool   10  0   0    ; false
483F  9E020001           [130] return     10  2      
4843  9D020000           [131] getglobal  10  0        ; _T
4847  DD020000           [132] getglobal  11  0        ; _T
484B  CE42C005           [133] gettable   11  11  257  ; "HunterShipCountLeft"
484F  CDC2C305           [134] sub        11  11  271  ; 0
4853  8CC28280           [135] settable   10  257 11   ; "HunterShipCountLeft"
4857  9D020000           [136] getglobal  10  0        ; _T
485B  8E424205           [137] gettable   10  10  265  ; "DropshipNextEventTime"
fail op	35
485F  23804005           [138] close      0  
4863  1A800180           [139] jmp        7            ; to [147]
4867  9D020000           [140] getglobal  10  0        ; _T
486B  DDC20000           [141] getglobal  11  3        ; 2144646525
486F  13030001           [142] getupval   12  2      
4873  53038001           [143] getupval   13  3      
4877  E2828001           [144] call       11  3   2  
487B  C3C28200           [145] add        11  1   11 
487F  8CC28284           [146] settable   10  265 11   ; "DropshipNextEventTime"
4883  A4C24100           [147] self       10  0   263  ; 766584623
4887  A2420001           [148] call       10  2   1  
488B  97028000           [149] loadbool   10  1   0    ; true
488F  9E020001           [150] return     10  2      
4893  1E008000           [151] return     0   1      
                         * constants:
4897  1F                 sizek (31)
4898  04                 const type 4
4899  03                 string size (3)
489A  5F5400             "_T\0"
                         const [0]: "_T"
489D  04                 const type 4
489E  14                 string size (20)
489F  48756E7465725368+  "HunterSh"
48A7  6970436F756E744C+  "ipCountL"
48AF  65667400           "eft\0"
                         const [1]: "HunterShipCountLeft"
48B3  00                 const type 0
                         const [2]: nil
48B4  01                 const type 3
48B5  7DB5D47F           const [3]: (2144646525)
48B9  03                 const type 3
48BA  00008040           const [4]: (0)
48BE  03                 const type 3
48BF  00001041           const [5]: (0)
48C3  03                 const type 3
48C4  00000000           const [6]: (0)
48C8  01                 const type 3
48C9  2F27B12D           const [7]: (766584623)
48CD  01                 const type 3
48CE  DBC2E558           const [8]: (1491452635)
48D2  04                 const type 4
48D3  16                 string size (22)
48D4  44726F7073686970+  "Dropship"
48DC  4E6578744576656E+  "NextEven"
48E4  7454696D6500       "tTime\0"
                         const [9]: "DropshipNextEventTime"
48EA  04                 const type 4
48EB  08                 string size (8)
48EC  67526567696F6E00   "gRegion\0"
                         const [10]: "gRegion"
48F4  01                 const type 3
48F5  90F9CED1           const [11]: (-774964848)
48F9  01                 const type 3
48FA  73290920           const [12]: (537471347)
48FE  01                 const type 3
48FF  65770E40           const [13]: (1074689893)
4903  01                 const type 3
4904  AE39840A           const [14]: (176437678)
4908  03                 const type 3
4909  0000803F           const [15]: (0)
490D  04                 const type 4
490E  0B                 string size (11)
490F  6747616D6552756C+  "gGameRul"
4917  657300             "es\0"
                         const [16]: "gGameRules"
491A  01                 const type 3
491B  19C50DE2           const [17]: (-502414055)
491F  04                 const type 4
4920  0B                 string size (11)
4921  4C6F7475735F4761+  "Lotus_Ga"
4929  6D6500             "me\0"
                         const [18]: "Lotus_Game"
492C  04                 const type 4
492D  19                 string size (25)
492E  4D545F454E444C45+  "MT_ENDLE"
4936  53535F4558544552+  "SS_EXTER"
493E  4D494E4154494F4E+  "MINATION"
4946  00                 "\0"
                         const [19]: "MT_ENDLESS_EXTERMINATION"
4947  04                 const type 4
4948  11                 string size (17)
4949  4D545F4558544552+  "MT_EXTER"
4951  4D494E4154494F4E+  "MINATION"
4959  00                 "\0"
                         const [20]: "MT_EXTERMINATION"
495A  04                 const type 4
495B  0E                 string size (14)
495C  4D6178456E656D79+  "MaxEnemy"
4964  436F756E7400       "Count\0"
                         const [21]: "MaxEnemyCount"
496A  04                 const type 4
496B  0D                 string size (13)
496C  4D545F5445525249+  "MT_TERRI"
4974  544F525900         "TORY\0"
                         const [22]: "MT_TERRITORY"
4979  01                 const type 3
497A  FBE70EED           const [23]: (-317790213)
497E  04                 const type 4
497F  0A                 string size (10)
4980  4D545F5245534355+  "MT_RESCU"
4988  4500               "E\0"
                         const [24]: "MT_RESCUE"
498A  04                 const type 4
498B  09                 string size (9)
498C  4D545F494E54454C+  "MT_INTEL"
4994  00                 "\0"
                         const [25]: "MT_INTEL"
4995  01                 const type 3
4996  ADCC0200           const [26]: (183469)
499A  01                 const type 3
499B  00000000           const [27]: (0)
499F  04                 const type 4
49A0  0D                 string size (13)
49A1  4D545F4C414E4453+  "MT_LANDS"
49A9  4341504500         "CAPE\0"
                         const [28]: "MT_LANDSCAPE"
49AE  01                 const type 3
49AF  6B25B193           const [29]: (-1817107093)
49B3  04                 const type 4
49B4  6D                 string size (109)
49B5  5768792061726520+  "Why are "
49BD  7765206576616C75+  "we evalu"
49C5  6174696E67207468+  "ating th"
49CD  697320696E206120+  "is in a "
49D5  4C616E6473636170+  "Landscap"
49DD  65206D697373696F+  "e missio"
49E5  6E3F21204576656E+  "n?! Even"
49ED  7453637269707454+  "tScriptT"
49F5  7269676765727320+  "riggers "
49FD  63616E2774206861+  "can't ha"
4A05  6E646C6520697420+  "ndle it "
4A0D  7468617420677265+  "that gre"
4A15  6174206A75737420+  "at just "
4A1D  7965742100         "yet!\0"
                         const [30]: "Why are we evaluating this in a Landscape mission?! EventScriptTriggers can't handle it that great just yet!"
                         * functions:
4A22  00                 sizep (0)
                         * lines:
4A24  01                 sizelineinfo (151)
                         [pc] (line)
4A25  E9                 [001] (-23)
4A26  02                 [002] (-23)
4A27  00                 [003] (-23)
4A28  00                 [004] (-23)
4A29  E9                 [005] (-22)
4A2A  02                 [006] (-22)
4A2B  00                 [007] (-22)
4A2C  00                 [008] (-22)
4A2D  E9                 [009] (-22)
4A2E  02                 [010] (-22)
4A2F  00                 [011] (-22)
4A30  00                 [012] (-21)
4A31  E9                 [013] (-21)
4A32  02                 [014] (-21)
4A33  00                 [015] (-21)
4A34  00                 [016] (-20)
4A35  EA                 [017] (-20)
4A36  02                 [018] (-19)
4A37  00                 [019] (-19)
4A38  00                 [020] (-16)
4A39  EA                 [021] (-16)
4A3A  02                 [022] (-15)
4A3B  00                 [023] (-15)
4A3C  00                 [024] (-15)
4A3D  EA                 [025] (-15)
4A3E  02                 [026] (-14)
4A3F  00                 [027] (-14)
4A40  00                 [028] (-14)
4A41  EA                 [029] (-14)
4A42  02                 [030] (-14)
4A43  00                 [031] (-13)
4A44  00                 [032] (-13)
4A45  EA                 [033] (-9)
4A46  02                 [034] (-9)
4A47  00                 [035] (-9)
4A48  00                 [036] (-8)
4A49  EA                 [037] (-8)
4A4A  02                 [038] (-7)
4A4B  00                 [039] (-7)
4A4C  00                 [040] (-7)
4A4D  EA                 [041] (-7)
4A4E  02                 [042] (-7)
4A4F  00                 [043] (-7)
4A50  00                 [044] (-7)
4A51  EB                 [045] (-7)
4A52  02                 [046] (-7)
4A53  00                 [047] (-7)
4A54  00                 [048] (-6)
4A55  EB                 [049] (-6)
4A56  02                 [050] (-3)
4A57  00                 [051] (-3)
4A58  00                 [052] (-3)
4A59  EB                 [053] (-1)
4A5A  02                 [054] (-1)
4A5B  00                 [055] (-1)
4A5C  00                 [056] (-1)
4A5D  EB                 [057] (-1)
4A5E  02                 [058] (0)
4A5F  00                 [059] (0)
4A60  00                 [060] (0)
4A61  EC                 [061] (0)
4A62  02                 [062] (1)
4A63  00                 [063] (1)
4A64  00                 [064] (-1)
4A65  EC                 [065] (5)
4A66  02                 [066] (5)
4A67  00                 [067] (5)
4A68  00                 [068] (5)
4A69  ED                 [069] (7)
4A6A  02                 [070] (7)
4A6B  00                 [071] (8)
4A6C  00                 [072] (8)
4A6D  ED                 [073] (8)
4A6E  02                 [074] (9)
4A6F  00                 [075] (9)
4A70  00                 [076] (9)
4A71  F0                 [077] (9)
4A72  02                 [078] (10)
4A73  00                 [079] (10)
4A74  00                 [080] (10)
4A75  F0                 [081] (10)
4A76  02                 [082] (10)
4A77  00                 [083] (10)
4A78  00                 [084] (10)
4A79  F1                 [085] (10)
4A7A  02                 [086] (10)
4A7B  00                 [087] (10)
4A7C  00                 [088] (12)
4A7D  F1                 [089] (12)
4A7E  02                 [090] (13)
4A7F  00                 [091] (13)
4A80  00                 [092] (14)
4A81  F1                 [093] (15)
4A82  02                 [094] (15)
4A83  00                 [095] (15)
4A84  00                 [096] (15)
4A85  F1                 [097] (16)
4A86  02                 [098] (16)
4A87  00                 [099] (16)
4A88  00                 [100] (16)
4A89  F2                 [101] (16)
4A8A  02                 [102] (17)
4A8B  00                 [103] (17)
4A8C  00                 [104] (18)
4A8D  F2                 [105] (18)
4A8E  02                 [106] (19)
4A8F  00                 [107] (20)
4A90  00                 [108] (20)
4A91  F2                 [109] (20)
4A92  02                 [110] (20)
4A93  00                 [111] (20)
4A94  00                 [112] (20)
4A95  F2                 [113] (20)
4A96  02                 [114] (20)
4A97  00                 [115] (21)
4A98  00                 [116] (21)
4A99  F2                 [117] (21)
4A9A  02                 [118] (21)
4A9B  00                 [119] (22)
4A9C  00                 [120] (22)
4A9D  F3                 [121] (23)
4A9E  02                 [122] (24)
4A9F  00                 [123] (24)
4AA0  00                 [124] (24)
4AA1  F3                 [125] (24)
4AA2  02                 [126] (25)
4AA3  00                 [127] (25)
4AA4  00                 [128] (25)
4AA5  F7                 [129] (26)
4AA6  02                 [130] (26)
4AA7  00                 [131] (29)
4AA8  00                 [132] (29)
4AA9  F7                 [133] (29)
4AAA  02                 [134] (29)
4AAB  00                 [135] (29)
4AAC  00                 [136] (31)
4AAD  F7                 [137] (31)
4AAE  02                 [138] (31)
4AAF  00                 [139] (31)
4AB0  00                 [140] (32)
4AB1  F8                 [141] (32)
4AB2  02                 [142] (32)
4AB3  00                 [143] (32)
4AB4  00                 [144] (32)
4AB5  F8                 [145] (32)
4AB6  02                 [146] (32)
4AB7  00                 [147] (35)
4AB8  00                 [148] (35)
4AB9  F9                 [149] (36)
4ABA  02                 [150] (36)
4ABB  00                 [151] (37)
                         * locals:
4C81  00                 sizelocvars (0)
                         * upvalues:
4C82  00                 sizeupvalues (0)
                         ** end of function **

                         
4C83                     ** function [22] definition (level 2)
                         ** start of function **
4C83  00                 string size (0)
                         source name: (none)
4C85  06                 line defined (807)
4C86  BE                 last line defined (830)
4C87  06                 nups (0)
4C88  00                 numparams (3)
4C89  03                 is_vararg (0)
4C8A  00                 maxstacksize (18)
                         * code:
4C8C  4A                 sizecode (74)
4C8D  DD000000           [01] getglobal  3   0        ; 1074689893
4C91  12010000           [02] move       4   0      
4C95  E2800001           [03] call       3   2   2  
4C99  D8400000           [04] test       3       1    ; to [6] if false
4C9D  1A000180           [05] jmp        5            ; to [11]
4CA1  DD000000           [06] getglobal  3   0        ; 1074689893
4CA5  12018000           [07] move       4   1      
4CA9  E2800001           [08] call       3   2   2  
4CAD  D8000000           [09] test       3       0    ; to [11] if true
4CB1  1A000080           [10] jmp        1            ; to [12]
4CB5  1E008000           [11] return     0   1      
4CB9  DD400000           [12] getglobal  3   1        ; gRegion
4CBD  E480C001           [13] self       3   3   258  ; -774964848
4CC1  E2800001           [14] call       3   2   2  
4CC5  24C1C001           [15] self       4   3   259  ; 537471347
4CC9  22810001           [16] call       4   2   2  
4CCD  64014102           [17] self       5   4   260  ; -472735398
4CD1  62810001           [18] call       5   2   2  
4CD5  A4414102           [19] self       6   4   261  ; -354168336
4CD9  A2810001           [20] call       6   2   2  
4CDD  DD810100           [21] getglobal  7   6        ; 2144646525
4CE1  12028002           [22] move       8   5      
4CE5  52020003           [23] move       9   6      
4CE9  E2818001           [24] call       7   3   2  
4CED  24C24102           [25] self       8   4   263  ; -1642488687
4CF1  9D020200           [26] getglobal  10  8        ; 2083004503
4CF5  D2028000           [27] move       11  1      
4CF9  A2820001           [28] call       10  2   2  
4CFD  D2020000           [29] move       11  0      
4D01  1D430200           [30] getglobal  12  9        ; -332969190
4D05  59830200           [31] loadk      13  10       ; "DropshipTeam"
4D09  22830001           [32] call       12  2   2  
4D0D  52038003           [33] move       13  7      
4D11  86030007           [34] loadnil    14  14     
4D15  DDC30200           [35] getglobal  15  11       ; Engine
4D19  CE03C307           [36] gettable   15  15  268  ; "STANDARD"
4D1D  22820004           [37] call       8   8   2  
4D21  5D020000           [38] getglobal  9   0        ; 1074689893
4D25  92020001           [39] move       10  2      
4D29  62820001           [40] call       9   2   2  
4D2D  58020000           [41] test       9       0    ; to [43] if true
4D31  1AC00080           [42] jmp        4            ; to [47]
4D35  5D420300           [43] getglobal  9   13       ; -1817107093
4D39  99820300           [44] loadk      10  14       ; "ERROR: Null patrol route detected on spawning the Dropship; this will cause an idling Dropship at the edge of the map"
4D3D  62420001           [45] call       9   2   1  
4D41  1A800680           [46] jmp        27           ; to [74]
4D45  5D020000           [47] getglobal  9   0        ; 1074689893
4D49  92020004           [48] move       10  8      
4D4D  62820001           [49] call       9   2   2  
4D51  58420000           [50] test       9       1    ; to [52] if false
4D55  1A400580           [51] jmp        22           ; to [74]
4D59  64C24304           [52] self       9   8   271  ; -1923247301
4D5D  D2020001           [53] move       11  2      
4D61  62428001           [54] call       9   3   1  
4D65  64024404           [55] self       9   8   272  ; -2135866365
4D69  62820001           [56] call       9   2   2  
4D6D  9D020000           [57] getglobal  10  0        ; 1074689893
4D71  D2028004           [58] move       11  9      
4D75  A2820001           [59] call       10  2   2  
4D79  98420000           [60] test       10      1    ; to [62] if false
4D7D  1AC00280           [61] jmp        12           ; to [74]
4D81  99420400           [62] loadk      10  17       ; 0
4D85  DD820400           [63] getglobal  11  18       ; hunterShipOverwatchVolumePair
4D89  CA028005           [64] len        11  11     
4D8D  19430400           [65] loadk      12  17       ; 0
4D91  90420180           [66] forprep    10  6        ; to [73]
4D95  A4C3C404           [67] self       14  9   275  ; 680731187
4D99  1D840400           [68] getglobal  16  18       ; hunterShipOverwatchVolumePair
4D9D  0E440308           [69] gettable   16  16  13 
4DA1  5D040500           [70] getglobal  17  20       ; hunterShipOverwatchWaypointPair
4DA5  4E448308           [71] gettable   17  17  13 
4DA9  A2430002           [72] call       14  4   1  
4DAD  9402FE7F           [73] forloop    10  -7       ; to [67] if loop
4DB1  1E008000           [74] return     0   1      
                         * constants:
4DB5  15                 sizek (21)
4DB6  01                 const type 3
4DB7  65770E40           const [0]: (1074689893)
4DBB  04                 const type 4
4DBC  08                 string size (8)
4DBD  67526567696F6E00   "gRegion\0"
                         const [1]: "gRegion"
4DC5  01                 const type 3
4DC6  90F9CED1           const [2]: (-774964848)
4DCA  01                 const type 3
4DCB  73290920           const [3]: (537471347)
4DCF  01                 const type 3
4DD0  5AA1D2E3           const [4]: (-472735398)
4DD4  01                 const type 3
4DD5  F0D1E3EA           const [5]: (-354168336)
4DD9  01                 const type 3
4DDA  7DB5D47F           const [6]: (2144646525)
4DDE  01                 const type 3
4DDF  919C199E           const [7]: (-1642488687)
4DE3  01                 const type 3
4DE4  5720287C           const [8]: (2083004503)
4DE8  01                 const type 3
4DE9  1A4B27EC           const [9]: (-332969190)
4DED  04                 const type 4
4DEE  0D                 string size (13)
4DEF  44726F7073686970+  "Dropship"
4DF7  5465616D00         "Team\0"
                         const [10]: "DropshipTeam"
4DFC  04                 const type 4
4DFD  07                 string size (7)
4DFE  456E67696E6500     "Engine\0"
                         const [11]: "Engine"
4E05  04                 const type 4
4E06  09                 string size (9)
4E07  5354414E44415244+  "STANDARD"
4E0F  00                 "\0"
                         const [12]: "STANDARD"
4E10  01                 const type 3
4E11  6B25B193           const [13]: (-1817107093)
4E15  04                 const type 4
4E16  76                 string size (118)
4E17  4552524F523A204E+  "ERROR: N"
4E1F  756C6C2070617472+  "ull patr"
4E27  6F6C20726F757465+  "ol route"
4E2F  2064657465637465+  " detecte"
4E37  64206F6E20737061+  "d on spa"
4E3F  776E696E67207468+  "wning th"
4E47  652044726F707368+  "e Dropsh"
4E4F  69703B2074686973+  "ip; this"
4E57  2077696C6C206361+  " will ca"
4E5F  75736520616E2069+  "use an i"
4E67  646C696E67204472+  "dling Dr"
4E6F  6F70736869702061+  "opship a"
4E77  7420746865206564+  "t the ed"
4E7F  6765206F66207468+  "ge of th"
4E87  65206D617000       "e map\0"
                         const [14]: "ERROR: Null patrol route detected on spawning the Dropship; this will cause an idling Dropship at the edge of the map"
4E8D  01                 const type 3
4E8E  3B935D8D           const [15]: (-1923247301)
4E92  01                 const type 3
4E93  0344B180           const [16]: (-2135866365)
4E97  03                 const type 3
4E98  0000803F           const [17]: (0)
4E9C  04                 const type 4
4E9D  1E                 string size (30)
4E9E  68756E7465725368+  "hunterSh"
4EA6  69704F7665727761+  "ipOverwa"
4EAE  746368566F6C756D+  "tchVolum"
4EB6  655061697200       "ePair\0"
                         const [18]: "hunterShipOverwatchVolumePair"
4EBC  01                 const type 3
4EBD  33229328           const [19]: (680731187)
4EC1  04                 const type 4
4EC2  20                 string size (32)
4EC3  68756E7465725368+  "hunterSh"
4ECB  69704F7665727761+  "ipOverwa"
4ED3  746368576179706F+  "tchWaypo"
4EDB  696E745061697200   "intPair\0"
                         const [20]: "hunterShipOverwatchWaypointPair"
                         * functions:
4EE3  00                 sizep (0)
                         * lines:
4EE4  4A                 sizelineinfo (74)
                         [pc] (line)
4EE5  28                 [01] (40)
4EE6  03                 [02] (40)
4EE7  00                 [03] (40)
4EE8  00                 [04] (40)
4EE9  28                 [05] (40)
4EEA  03                 [06] (40)
4EEB  00                 [07] (40)
4EEC  00                 [08] (40)
4EED  28                 [09] (40)
4EEE  03                 [10] (40)
4EEF  00                 [11] (41)
4EF0  00                 [12] (43)
4EF1  28                 [13] (43)
4EF2  03                 [14] (43)
4EF3  00                 [15] (44)
4EF4  00                 [16] (44)
4EF5  28                 [17] (46)
4EF6  03                 [18] (46)
4EF7  00                 [19] (47)
4EF8  00                 [20] (47)
4EF9  28                 [21] (48)
4EFA  03                 [22] (48)
4EFB  00                 [23] (48)
4EFC  00                 [24] (48)
4EFD  28                 [25] (49)
4EFE  03                 [26] (49)
4EFF  00                 [27] (49)
4F00  00                 [28] (49)
4F01  28                 [29] (49)
4F02  03                 [30] (49)
4F03  00                 [31] (49)
4F04  00                 [32] (49)
4F05  28                 [33] (49)
4F06  03                 [34] (49)
4F07  00                 [35] (49)
4F08  00                 [36] (49)
4F09  28                 [37] (49)
4F0A  03                 [38] (50)
4F0B  00                 [39] (50)
4F0C  00                 [40] (50)
4F0D  29                 [41] (50)
4F0E  03                 [42] (50)
4F0F  00                 [43] (51)
4F10  00                 [44] (51)
4F11  2B                 [45] (51)
4F12  03                 [46] (51)
4F13  00                 [47] (52)
4F14  00                 [48] (52)
4F15  2B                 [49] (52)
4F16  03                 [50] (52)
4F17  00                 [51] (52)
4F18  00                 [52] (53)
4F19  2B                 [53] (53)
4F1A  03                 [54] (53)
4F1B  00                 [55] (55)
4F1C  00                 [56] (55)
4F1D  2C                 [57] (56)
4F1E  03                 [58] (56)
4F1F  00                 [59] (56)
4F20  00                 [60] (56)
4F21  2C                 [61] (56)
4F22  03                 [62] (57)
4F23  00                 [63] (57)
4F24  00                 [64] (57)
4F25  2E                 [65] (57)
4F26  03                 [66] (57)
4F27  00                 [67] (58)
4F28  00                 [68] (58)
4F29  2E                 [69] (58)
4F2A  03                 [70] (58)
4F2B  00                 [71] (58)
4F2C  00                 [72] (58)
4F2D  2F                 [73] (57)
4F2E  03                 [74] (62)
                         * locals:
500D  00                 sizelocvars (0)
                         * upvalues:
500E  00                 sizeupvalues (0)
                         ** end of function **

                         
500F                     ** function [23] definition (level 2)
                         ** start of function **
500F  00                 string size (0)
                         source name: (none)
5011  06                 line defined (832)
5012  D5                 last line defined (853)
5013  06                 nups (1)
5014  01                 numparams (2)
5015  02                 is_vararg (0)
5016  00                 maxstacksize (16)
                         * code:
5018  42                 sizecode (66)
5019  9D000000           [01] getglobal  2   0        ; 1074689893
501D  D2000000           [02] move       3   0      
5021  A2800001           [03] call       2   2   2  
5025  98400000           [04] test       2       1    ; to [6] if false
5029  1A000180           [05] jmp        5            ; to [11]
502D  9D000000           [06] getglobal  2   0        ; 1074689893
5031  D2008000           [07] move       3   1      
5035  A2800001           [08] call       2   2   2  
5039  98000000           [09] test       2       0    ; to [11] if true
503D  1A000080           [10] jmp        1            ; to [12]
5041  1E008000           [11] return     0   1      
5045  9D400000           [12] getglobal  2   1        ; gRegion
5049  A4804001           [13] self       2   2   258  ; -774964848
504D  A2800001           [14] call       2   2   2  
5051  E4C04001           [15] self       3   2   259  ; 537471347
5055  E2800001           [16] call       3   2   2  
5059  2401C101           [17] self       4   3   260  ; -472735398
505D  22810001           [18] call       4   2   2  
5061  6441C101           [19] self       5   3   261  ; -354168336
5065  62810001           [20] call       5   2   2  
5069  9D810100           [21] getglobal  6   6        ; 2144646525
506D  D2010002           [22] move       7   4      
5071  12028002           [23] move       8   5      
5075  A2818001           [24] call       6   3   2  
5079  E4C1C101           [25] self       7   3   263  ; 436282865
507D  5D020200           [26] getglobal  9   8        ; 2083004503
5081  92028000           [27] move       10  1      
5085  62820001           [28] call       9   2   2  
5089  9D420200           [29] getglobal  10  9        ; hunterFighterFirstAttachToInstance
508D  A4824205           [30] self       10  10  266  ; 1839670529
5091  A2820001           [31] call       10  2   2  
5095  DDC20200           [32] getglobal  11  11       ; 508519041
5099  E2828000           [33] call       11  1   2  
509D  1D030300           [34] getglobal  12  12       ; -332969190
50A1  59430300           [35] loadk      13  13       ; "DropshipTeam"
50A5  22830001           [36] call       12  2   2  
50A9  52030003           [37] move       13  6      
50AD  86030007           [38] loadnil    14  14     
50B1  DD830300           [39] getglobal  15  14       ; Engine
50B5  CEC3C307           [40] gettable   15  15  271  ; "STANDARD"
50B9  E2818004           [41] call       7   9   2  
50BD  1D020000           [42] getglobal  8   0        ; 1074689893
50C1  52028003           [43] move       9   7      
50C5  22820001           [44] call       8   2   2  
50C9  18420000           [45] test       8       1    ; to [47] if false
50CD  1A800480           [46] jmp        19           ; to [66]
50D1  2402C403           [47] self       8   7   272  ; -2135866365
50D5  22820001           [48] call       8   2   2  
50D9  5D420400           [49] getglobal  9   17       ; 538022378
50DD  99820400           [50] loadk      10  18       ; 0
50E1  62420001           [51] call       9   2   1  
50E5  64C24404           [52] self       9   8   275  ; 1927666530
50E9  62820001           [53] call       9   2   2  
50ED  9D020000           [54] getglobal  10  0        ; 1074689893
50F1  D2028004           [55] move       11  9      
50F5  A2820001           [56] call       10  2   2  
50F9  98420000           [57] test       10      1    ; to [59] if false
50FD  1A800180           [58] jmp        7            ; to [66]
5101  A4024504           [59] self       10  8   276  ; 1146685999
5105  1D430200           [60] getglobal  12  9        ; hunterFighterFirstAttachToInstance
5109  5D430500           [61] getglobal  13  21       ; EMPTY_SYMBOL
510D  A2420002           [62] call       10  4   1  
5111  93020000           [63] getupval   10  0      
5115  DD420200           [64] getglobal  11  9        ; hunterFighterFirstAttachToInstance
5119  A2420001           [65] call       10  2   1  
511D  1E008000           [66] return     0   1      
                         * constants:
5121  16                 sizek (22)
5122  01                 const type 3
5123  65770E40           const [0]: (1074689893)
5127  04                 const type 4
5128  08                 string size (8)
5129  67526567696F6E00   "gRegion\0"
                         const [1]: "gRegion"
5131  01                 const type 3
5132  90F9CED1           const [2]: (-774964848)
5136  01                 const type 3
5137  73290920           const [3]: (537471347)
513B  01                 const type 3
513C  5AA1D2E3           const [4]: (-472735398)
5140  01                 const type 3
5141  F0D1E3EA           const [5]: (-354168336)
5145  01                 const type 3
5146  7DB5D47F           const [6]: (2144646525)
514A  01                 const type 3
514B  F125011A           const [7]: (436282865)
514F  01                 const type 3
5150  5720287C           const [8]: (2083004503)
5154  04                 const type 4
5155  23                 string size (35)
5156  68756E7465724669+  "hunterFi"
515E  6768746572466972+  "ghterFir"
5166  7374417474616368+  "stAttach"
516E  546F496E7374616E+  "ToInstan"
5176  636500             "ce\0"
                         const [9]: "hunterFighterFirstAttachToInstance"
5179  01                 const type 3
517A  0125A76D           const [10]: (1839670529)
517E  01                 const type 3
517F  81624F1E           const [11]: (508519041)
5183  01                 const type 3
5184  1A4B27EC           const [12]: (-332969190)
5188  04                 const type 4
5189  0D                 string size (13)
518A  44726F7073686970+  "Dropship"
5192  5465616D00         "Team\0"
                         const [13]: "DropshipTeam"
5197  04                 const type 4
5198  07                 string size (7)
5199  456E67696E6500     "Engine\0"
                         const [14]: "Engine"
51A0  04                 const type 4
51A1  09                 string size (9)
51A2  5354414E44415244+  "STANDARD"
51AA  00                 "\0"
                         const [15]: "STANDARD"
51AB  01                 const type 3
51AC  0344B180           const [16]: (-2135866365)
51B0  01                 const type 3
51B1  EA911120           const [17]: (538022378)
51B5  03                 const type 3
51B6  00000000           const [18]: (0)
51BA  01                 const type 3
51BB  62DBE572           const [19]: (1927666530)
51BF  01                 const type 3
51C0  2F0A5944           const [20]: (1146685999)
51C4  04                 const type 4
51C5  0D                 string size (13)
51C6  454D5054595F5359+  "EMPTY_SY"
51CE  4D424F4C00         "MBOL\0"
                         const [21]: "EMPTY_SYMBOL"
                         * functions:
51D3  00                 sizep (0)
                         * lines:
51D4  42                 sizelineinfo (66)
                         [pc] (line)
51D5  41                 [01] (65)
51D6  03                 [02] (65)
51D7  00                 [03] (65)
51D8  00                 [04] (65)
51D9  41                 [05] (65)
51DA  03                 [06] (65)
51DB  00                 [07] (65)
51DC  00                 [08] (65)
51DD  41                 [09] (65)
51DE  03                 [10] (65)
51DF  00                 [11] (66)
51E0  00                 [12] (69)
51E1  41                 [13] (69)
51E2  03                 [14] (69)
51E3  00                 [15] (70)
51E4  00                 [16] (70)
51E5  41                 [17] (72)
51E6  03                 [18] (72)
51E7  00                 [19] (73)
51E8  00                 [20] (73)
51E9  41                 [21] (74)
51EA  03                 [22] (74)
51EB  00                 [23] (74)
51EC  00                 [24] (74)
51ED  41                 [25] (75)
51EE  03                 [26] (75)
51EF  00                 [27] (75)
51F0  00                 [28] (75)
51F1  41                 [29] (75)
51F2  03                 [30] (75)
51F3  00                 [31] (75)
51F4  00                 [32] (75)
51F5  41                 [33] (75)
51F6  03                 [34] (75)
51F7  00                 [35] (75)
51F8  00                 [36] (75)
51F9  41                 [37] (75)
51FA  03                 [38] (75)
51FB  00                 [39] (75)
51FC  00                 [40] (75)
51FD  42                 [41] (75)
51FE  03                 [42] (76)
51FF  00                 [43] (76)
5200  00                 [44] (76)
5201  45                 [45] (76)
5202  03                 [46] (76)
5203  00                 [47] (77)
5204  00                 [48] (77)
5205  45                 [49] (78)
5206  03                 [50] (78)
5207  00                 [51] (78)
5208  00                 [52] (79)
5209  45                 [53] (79)
520A  03                 [54] (80)
520B  00                 [55] (80)
520C  00                 [56] (80)
520D  46                 [57] (80)
520E  03                 [58] (80)
520F  00                 [59] (81)
5210  00                 [60] (81)
5211  46                 [61] (81)
5212  03                 [62] (81)
5213  00                 [63] (82)
5214  00                 [64] (82)
5215  48                 [65] (82)
5216  03                 [66] (85)
                         * locals:
52DD  00                 sizelocvars (0)
                         * upvalues:
52DE  00                 sizeupvalues (0)
                         ** end of function **

                         
52DF                     ** function [24] definition (level 2)
                         ** start of function **
52DF  00                 string size (0)
                         source name: (none)
52E1  06                 line defined (855)
52E2  FD                 last line defined (893)
52E3  06                 nups (2)
52E4  02                 numparams (1)
52E5  01                 is_vararg (0)
52E6  00                 maxstacksize (13)
                         * code:
52E8  50                 sizecode (80)
52E9  5D000000           [01] getglobal  1   0        ; 538022378
52ED  99400000           [02] loadk      2   1        ; 0
52F1  62400001           [03] call       1   2   1  
52F5  5D800000           [04] getglobal  1   2        ; -1941280958
52F9  99C00000           [05] loadk      2   3        ; 0
52FD  D9400000           [06] loadk      3   1        ; 0
5301  62808001           [07] call       1   3   2  
5305  97000000           [08] loadbool   2   0   0    ; false
5309  C6008001           [09] loadnil    3   3      
530D  1D010100           [10] getglobal  4   4        ; gRegion
5311  24414102           [11] self       4   4   261  ; -774964848
5315  22810001           [12] call       4   2   2  
5319  64814102           [13] self       5   4   262  ; 537471347
531D  62810001           [14] call       5   2   2  
5321  9DC10100           [15] getglobal  6   7        ; gGameRules
5325  A4014203           [16] self       6   6   264  ; -502414055
5329  A2810001           [17] call       6   2   2  
532D  DD410200           [18] getglobal  7   9        ; Lotus_Game
5331  CE81C203           [19] gettable   7   7   266  ; "MT_ASSASSINATION"
fail op	35
5335  63C00103           [20] close      1  
5339  1A400180           [21] jmp        6            ; to [28]
533D  E4C1C202           [22] self       7   5   267  ; 183469
5341  E2810001           [23] call       7   2   2  
fail op	35
5345  2300C303           [24] close      0  
5349  1A400080           [25] jmp        2            ; to [28]
534D  D7010000           [26] loadbool   7   0   0    ; false
5351  DE010001           [27] return     7   2      
5355  DD410300           [28] getglobal  7   13       ; 1074689893
5359  1D820300           [29] getglobal  8   14       ; hunterFighterFirstAttachToInstance
535D  E2810001           [30] call       7   2   2  
5361  D8410000           [31] test       7       1    ; to [33] if false
5365  1A800580           [32] jmp        23           ; to [56]
5369  DDC10300           [33] getglobal  7   15       ; chanceToBeFighterTypeHunter
fail op	21
536D  55C08100           [34] concat     1   1   7  
5371  1AC00080           [35] jmp        4            ; to [40]
5375  DD010400           [36] getglobal  7   16       ; hunterShipOverwatchVolumePair
5379  CA018003           [37] len        7   7      
fail op	35
537D  23C0C003           [38] close      0  
5381  1AC00380           [39] jmp        16           ; to [56]
5385  DDC10100           [40] getglobal  7   7        ; gGameRules
5389  E441C403           [41] self       7   7   273  ; -1201441975
538D  E2810001           [42] call       7   2   2  
5391  2482C402           [43] self       8   5   274  ; -585793121
5395  A4C2C403           [44] self       10  7   275  ; -272348948
5399  A2820001           [45] call       10  2   2  
539D  DD020500           [46] getglobal  11  20       ; hunterFighterShipResourceSym
53A1  22820002           [47] call       8   4   2  
53A5  D2000004           [48] move       3   8      
fail op	35
53A9  6340C501           [49] close      1  
53AD  1A000180           [50] jmp        5            ; to [56]
53B1  97008000           [51] loadbool   2   1   0    ; true
53B5  13020000           [52] getupval   8   0      
53B9  52020000           [53] move       9   0      
53BD  92028001           [54] move       10  3      
53C1  22428001           [55] call       8   3   1  
53C5  98400000           [56] test       2       1    ; to [58] if false
53C9  1A000580           [57] jmp        21           ; to [79]
53CD  1D020400           [58] getglobal  8   16       ; hunterShipOverwatchVolumePair
53D1  0A020004           [59] len        8   8      
fail op	21
53D5  15008281           [60] concat     0   259 8  
53D9  1A000480           [61] jmp        17           ; to [79]
53DD  1DC20100           [62] getglobal  8   7        ; gGameRules
53E1  24424404           [63] self       8   8   273  ; -1201441975
53E5  22820001           [64] call       8   2   2  
53E9  6482C402           [65] self       9   5   274  ; -585793121
53ED  E4C24404           [66] self       11  8   275  ; -272348948
53F1  E2820001           [67] call       11  2   2  
53F5  1D830500           [68] getglobal  12  22       ; dropshipSym
53F9  62820002           [69] call       9   4   2  
53FD  D2008004           [70] move       3   9      
fail op	35
5401  6340C501           [71] close      1  
5405  1A400180           [72] jmp        6            ; to [79]
5409  97008000           [73] loadbool   2   1   0    ; true
540D  53028000           [74] getupval   9   1      
5411  92020000           [75] move       10  0      
5415  D2028001           [76] move       11  3      
5419  1DC30500           [77] getglobal  12  23       ; dropshipPatrolRoute
541D  62420002           [78] call       9   4   1  
5421  9E000001           [79] return     2   2      
5425  1E008000           [80] return     0   1      
                         * constants:
5429  18                 sizek (24)
542A  01                 const type 3
542B  EA911120           const [0]: (538022378)
542F  03                 const type 3
5430  0000803F           const [1]: (0)
5434  01                 const type 3
5435  42674A8C           const [2]: (-1941280958)
5439  03                 const type 3
543A  00000000           const [3]: (0)
543E  04                 const type 4
543F  08                 string size (8)
5440  67526567696F6E00   "gRegion\0"
                         const [4]: "gRegion"
5448  01                 const type 3
5449  90F9CED1           const [5]: (-774964848)
544D  01                 const type 3
544E  73290920           const [6]: (537471347)
5452  04                 const type 4
5453  0B                 string size (11)
5454  6747616D6552756C+  "gGameRul"
545C  657300             "es\0"
                         const [7]: "gGameRules"
545F  01                 const type 3
5460  19C50DE2           const [8]: (-502414055)
5464  04                 const type 4
5465  0B                 string size (11)
5466  4C6F7475735F4761+  "Lotus_Ga"
546E  6D6500             "me\0"
                         const [9]: "Lotus_Game"
5471  04                 const type 4
5472  11                 string size (17)
5473  4D545F4153534153+  "MT_ASSAS"
547B  53494E4154494F4E+  "SINATION"
5483  00                 "\0"
                         const [10]: "MT_ASSASSINATION"
5484  01                 const type 3
5485  ADCC0200           const [11]: (183469)
5489  01                 const type 3
548A  00000000           const [12]: (0)
548E  01                 const type 3
548F  65770E40           const [13]: (1074689893)
5493  04                 const type 4
5494  23                 string size (35)
5495  68756E7465724669+  "hunterFi"
549D  6768746572466972+  "ghterFir"
54A5  7374417474616368+  "stAttach"
54AD  546F496E7374616E+  "ToInstan"
54B5  636500             "ce\0"
                         const [14]: "hunterFighterFirstAttachToInstance"
54B8  04                 const type 4
54B9  1C                 string size (28)
54BA  6368616E6365546F+  "chanceTo"
54C2  4265466967687465+  "BeFighte"
54CA  725479706548756E+  "rTypeHun"
54D2  74657200           "ter\0"
                         const [15]: "chanceToBeFighterTypeHunter"
54D6  04                 const type 4
54D7  1E                 string size (30)
54D8  68756E7465725368+  "hunterSh"
54E0  69704F7665727761+  "ipOverwa"
54E8  746368566F6C756D+  "tchVolum"
54F0  655061697200       "ePair\0"
                         const [16]: "hunterShipOverwatchVolumePair"
54F6  01                 const type 3
54F7  497363B8           const [17]: (-1201441975)
54FB  01                 const type 3
54FC  9F8115DD           const [18]: (-585793121)
5500  01                 const type 3
5501  EC48C4EF           const [19]: (-272348948)
5505  04                 const type 4
5506  1D                 string size (29)
5507  68756E7465724669+  "hunterFi"
550F  6768746572536869+  "ghterShi"
5517  705265736F757263+  "pResourc"
551F  6553796D00         "eSym\0"
                         const [20]: "hunterFighterShipResourceSym"
5524  00                 const type 0
                         const [21]: nil
5525  04                 const type 4
5526  0C                 string size (12)
5527  64726F7073686970+  "dropship"
552F  53796D00           "Sym\0"
                         const [22]: "dropshipSym"
5533  04                 const type 4
5534  14                 string size (20)
5535  64726F7073686970+  "dropship"
553D  506174726F6C526F+  "PatrolRo"
5545  75746500           "ute\0"
                         const [23]: "dropshipPatrolRoute"
                         * functions:
5549  00                 sizep (0)
                         * lines:
554A  50                 sizelineinfo (80)
                         [pc] (line)
554B  58                 [01] (88)
554C  03                 [02] (88)
554D  00                 [03] (88)
554E  00                 [04] (89)
554F  58                 [05] (89)
5550  03                 [06] (89)
5551  00                 [07] (89)
5552  00                 [08] (90)
5553  58                 [09] (91)
5554  03                 [10] (93)
5555  00                 [11] (93)
5556  00                 [12] (93)
5557  59                 [13] (94)
5558  03                 [14] (94)
5559  00                 [15] (96)
555A  00                 [16] (96)
555B  59                 [17] (96)
555C  03                 [18] (97)
555D  00                 [19] (97)
555E  00                 [20] (97)
555F  59                 [21] (97)
5560  03                 [22] (97)
5561  00                 [23] (97)
5562  00                 [24] (97)
5563  59                 [25] (97)
5564  03                 [26] (98)
5565  00                 [27] (98)
5566  00                 [28] (101)
5567  5A                 [29] (101)
5568  03                 [30] (101)
5569  00                 [31] (101)
556A  00                 [32] (101)
556B  5B                 [33] (101)
556C  03                 [34] (101)
556D  00                 [35] (101)
556E  00                 [36] (101)
556F  5D                 [37] (101)
5570  03                 [38] (101)
5571  00                 [39] (101)
5572  00                 [40] (102)
5573  5D                 [41] (102)
5574  03                 [42] (102)
5575  00                 [43] (103)
5576  00                 [44] (103)
5577  5D                 [45] (103)
5578  03                 [46] (103)
5579  00                 [47] (103)
557A  00                 [48] (103)
557B  5E                 [49] (105)
557C  03                 [50] (105)
557D  00                 [51] (107)
557E  00                 [52] (108)
557F  5E                 [53] (108)
5580  03                 [54] (108)
5581  00                 [55] (108)
5582  00                 [56] (112)
5583  60                 [57] (112)
5584  03                 [58] (112)
5585  00                 [59] (112)
5586  00                 [60] (112)
5587  60                 [61] (112)
5588  03                 [62] (114)
5589  00                 [63] (114)
558A  00                 [64] (114)
558B  60                 [65] (115)
558C  03                 [66] (115)
558D  00                 [67] (115)
558E  00                 [68] (115)
558F  61                 [69] (115)
5590  03                 [70] (115)
5591  00                 [71] (117)
5592  00                 [72] (117)
5593  61                 [73] (119)
5594  03                 [74] (120)
5595  00                 [75] (120)
5596  00                 [76] (120)
5597  61                 [77] (120)
5598  03                 [78] (120)
5599  00                 [79] (124)
559A  00                 [80] (125)
                         * locals:
568B  00                 sizelocvars (0)
                         * upvalues:
568C  00                 sizeupvalues (0)
                         ** end of function **

                         
568D                     ** function [25] definition (level 2)
                         ** start of function **
568D  00                 string size (0)
                         source name: (none)
568F  06                 line defined (895)
5690  86                 last line defined (902)
5691  07                 nups (0)
5692  00                 numparams (1)
5693  01                 is_vararg (0)
5694  00                 maxstacksize (10)
                         * code:
5696  14                 sizecode (20)
5697  64004000           [01] self       1   0   256  ; -2135866365
569B  62800001           [02] call       1   2   2  
569F  9D400000           [03] getglobal  2   1        ; 1074689893
56A3  D2008000           [04] move       3   1      
56A7  A2800001           [05] call       2   2   2  
56AB  98400000           [06] test       2       1    ; to [8] if false
56AF  1AC00280           [07] jmp        12           ; to [20]
56B3  99800000           [08] loadk      2   2        ; 0
56B7  DDC00000           [09] getglobal  3   3        ; hunterShipOverwatchVolumePair
56BB  CA008001           [10] len        3   3      
56BF  19810000           [11] loadk      4   2        ; 0
56C3  90400180           [12] forprep    2   6        ; to [19]
56C7  A401C100           [13] self       6   1   260  ; 680731187
56CB  1DC20000           [14] getglobal  8   3        ; hunterShipOverwatchVolumePair
56CF  0E420104           [15] gettable   8   8   5  
56D3  5D420100           [16] getglobal  9   5        ; hunterShipOverwatchWaypointPair
56D7  4E428104           [17] gettable   9   9   5  
56DB  A2410002           [18] call       6   4   1  
56DF  9400FE7F           [19] forloop    2   -7       ; to [13] if loop
56E3  1E008000           [20] return     0   1      
                         * constants:
56E7  06                 sizek (6)
56E8  01                 const type 3
56E9  0344B180           const [0]: (-2135866365)
56ED  01                 const type 3
56EE  65770E40           const [1]: (1074689893)
56F2  03                 const type 3
56F3  0000803F           const [2]: (0)
56F7  04                 const type 4
56F8  1E                 string size (30)
56F9  68756E7465725368+  "hunterSh"
5701  69704F7665727761+  "ipOverwa"
5709  746368566F6C756D+  "tchVolum"
5711  655061697200       "ePair\0"
                         const [3]: "hunterShipOverwatchVolumePair"
5717  01                 const type 3
5718  33229328           const [4]: (680731187)
571C  04                 const type 4
571D  20                 string size (32)
571E  68756E7465725368+  "hunterSh"
5726  69704F7665727761+  "ipOverwa"
572E  746368576179706F+  "tchWaypo"
5736  696E745061697200   "intPair\0"
                         const [5]: "hunterShipOverwatchWaypointPair"
                         * functions:
573E  00                 sizep (0)
                         * lines:
573F  14                 sizelineinfo (20)
                         [pc] (line)
5740  80                 [01] (-128)
5741  03                 [02] (-128)
5742  00                 [03] (-127)
5743  00                 [04] (-127)
5744  80                 [05] (-127)
5745  03                 [06] (-127)
5746  00                 [07] (-127)
5747  00                 [08] (-126)
5748  81                 [09] (-126)
5749  03                 [10] (-126)
574A  00                 [11] (-126)
574B  00                 [12] (-126)
574C  81                 [13] (-125)
574D  03                 [14] (-125)
574E  00                 [15] (-125)
574F  00                 [16] (-125)
5750  81                 [17] (-125)
5751  03                 [18] (-125)
5752  00                 [19] (-126)
5753  00                 [20] (-122)
                         * locals:
5790  00                 sizelocvars (0)
                         * upvalues:
5791  00                 sizeupvalues (0)
                         ** end of function **

                         
5792                     ** function [26] definition (level 2)
                         ** start of function **
5792  00                 string size (0)
                         source name: (none)
5794  07                 line defined (904)
5795  91                 last line defined (913)
5796  07                 nups (0)
5797  00                 numparams (1)
5798  01                 is_vararg (0)
5799  00                 maxstacksize (11)
                         * code:
579B  14                 sizecode (20)
579C  5D000000           [01] getglobal  1   0        ; gRegion
57A0  6440C000           [02] self       1   1   257  ; -774964848
57A4  62800001           [03] call       1   2   2  
57A8  A480C000           [04] self       2   1   258  ; 537471347
57AC  A2800001           [05] call       2   2   2  
57B0  E4C04001           [06] self       3   2   259  ; -437639699
57B4  5D010100           [07] getglobal  5   4        ; spawnOverrideAgentCountMin
57B8  9D410100           [08] getglobal  6   5        ; spawnOverrideAgentCountMax
57BC  E2800002           [09] call       3   4   2  
57C0  19810100           [10] loadk      4   6        ; 0
57C4  52018001           [11] move       5   3      
57C8  99810100           [12] loadk      6   6        ; 0
57CC  10810080           [13] forprep    4   3        ; to [17]
57D0  24C24100           [14] self       8   0   263  ; 34018987
57D4  9D020200           [15] getglobal  10  8        ; spawnOverrideAgentType
57D8  22428001           [16] call       8   3   1  
57DC  14C1FE7F           [17] forloop    4   -4       ; to [14] if loop
57E0  24424200           [18] self       8   0   265  ; 1972652696
57E4  22420001           [19] call       8   2   1  
57E8  1E008000           [20] return     0   1      
                         * constants:
57EC  0A                 sizek (10)
57ED  04                 const type 4
57EE  08                 string size (8)
57EF  67526567696F6E00   "gRegion\0"
                         const [0]: "gRegion"
57F7  01                 const type 3
57F8  90F9CED1           const [1]: (-774964848)
57FC  01                 const type 3
57FD  73290920           const [2]: (537471347)
5801  01                 const type 3
5802  ED25EAE5           const [3]: (-437639699)
5806  04                 const type 4
5807  1B                 string size (27)
5808  737061776E4F7665+  "spawnOve"
5810  7272696465416765+  "rrideAge"
5818  6E74436F756E744D+  "ntCountM"
5820  696E00             "in\0"
                         const [4]: "spawnOverrideAgentCountMin"
5823  04                 const type 4
5824  1B                 string size (27)
5825  737061776E4F7665+  "spawnOve"
582D  7272696465416765+  "rrideAge"
5835  6E74436F756E744D+  "ntCountM"
583D  617800             "ax\0"
                         const [5]: "spawnOverrideAgentCountMax"
5840  03                 const type 3
5841  0000803F           const [6]: (0)
5845  01                 const type 3
5846  AB160702           const [7]: (34018987)
584A  04                 const type 4
584B  17                 string size (23)
584C  737061776E4F7665+  "spawnOve"
5854  7272696465416765+  "rrideAge"
585C  6E745479706500     "ntType\0"
                         const [8]: "spawnOverrideAgentType"
5863  01                 const type 3
5864  984A9475           const [9]: (1972652696)
                         * functions:
5868  00                 sizep (0)
                         * lines:
5869  14                 sizelineinfo (20)
                         [pc] (line)
586A  89                 [01] (-119)
586B  03                 [02] (-119)
586C  00                 [03] (-119)
586D  00                 [04] (-118)
586E  89                 [05] (-118)
586F  03                 [06] (-117)
5870  00                 [07] (-117)
5871  00                 [08] (-117)
5872  89                 [09] (-117)
5873  03                 [10] (-115)
5874  00                 [11] (-115)
5875  00                 [12] (-115)
5876  8A                 [13] (-115)
5877  03                 [14] (-114)
5878  00                 [15] (-114)
5879  00                 [16] (-114)
587A  8A                 [17] (-115)
587B  03                 [18] (-112)
587C  00                 [19] (-112)
587D  00                 [20] (-111)
                         * locals:
58BA  00                 sizelocvars (0)
                         * upvalues:
58BB  00                 sizeupvalues (0)
                         ** end of function **

                         * lines:
58BD  01                 sizelineinfo (160)
                         [pc] (line)
58BE  1B                 [001] (27)
58BF  00                 [002] (27)
58C0  00                 [003] (27)
58C1  00                 [004] (28)
58C2  1B                 [005] (28)
58C3  00                 [006] (28)
58C4  00                 [007] (29)
58C5  00                 [008] (29)
58C6  1B                 [009] (29)
58C7  00                 [010] (30)
58C8  00                 [011] (31)
58C9  00                 [012] (31)
58CA  1C                 [013] (31)
58CB  00                 [014] (34)
58CC  00                 [015] (34)
58CD  00                 [016] (34)
58CE  1C                 [017] (34)
58CF  00                 [018] (34)
58D0  00                 [019] (34)
58D1  00                 [020] (34)
58D2  1C                 [021] (34)
58D3  00                 [022] (34)
58D4  00                 [023] (34)
58D5  00                 [024] (36)
58D6  1D                 [025] (37)
58D7  00                 [026] (40)
58D8  00                 [027] (42)
58D9  00                 [028] (42)
58DA  1D                 [029] (42)
58DB  00                 [030] (44)
58DC  00                 [031] (44)
58DD  00                 [032] (44)
58DE  1D                 [033] (45)
58DF  00                 [034] (45)
58E0  00                 [035] (45)
58E1  00                 [036] (47)
58E2  1E                 [037] (47)
58E3  00                 [038] (47)
58E4  00                 [039] (49)
58E5  00                 [040] (54)
58E6  1F                 [041] (55)
58E7  00                 [042] (56)
58E8  00                 [043] (57)
58E9  00                 [044] (58)
58EA  1F                 [045] (59)
58EB  00                 [046] (86)
58EC  00                 [047] (86)
58ED  00                 [048] (94)
58EE  1F                 [049] (94)
58EF  00                 [050] (88)
58F0  00                 [051] (106)
58F1  00                 [052] (113)
58F2  22                 [053] (113)
58F3  00                 [054] (108)
58F4  00                 [055] (125)
58F5  00                 [056] (125)
58F6  22                 [057] (115)
58F7  00                 [058] (-113)
58F8  00                 [059] (-113)
58F9  00                 [060] (127)
58FA  22                 [061] (-67)
58FB  00                 [062] (-67)
58FC  00                 [063] (-111)
58FD  00                 [064] (-20)
58FE  22                 [065] (-20)
58FF  00                 [066] (-20)
5900  00                 [067] (-20)
5901  00                 [068] (-65)
5902  22                 [069] (-4)
5903  00                 [070] (-4)
5904  00                 [071] (-18)
5905  00                 [072] (12)
5906  22                 [073] (12)
5907  00                 [074] (-2)
5908  00                 [075] (52)
5909  00                 [076] (52)
590A  22                 [077] (14)
590B  00                 [078] (-112)
590C  00                 [079] (-112)
590D  00                 [080] (-112)
590E  22                 [081] (-112)
590F  00                 [082] (-112)
5910  00                 [083] (-112)
5911  00                 [084] (-112)
5912  22                 [085] (-112)
5913  00                 [086] (-112)
5914  00                 [087] (-108)
5915  00                 [088] (-108)
5916  22                 [089] (-108)
5917  00                 [090] (-110)
5918  00                 [091] (-99)
5919  00                 [092] (-99)
591A  24                 [093] (-99)
591B  00                 [094] (-105)
591C  00                 [095] (-4)
591D  00                 [096] (-4)
591E  25                 [097] (-4)
591F  00                 [098] (-4)
5920  00                 [099] (-4)
5921  00                 [100] (-4)
5922  28                 [101] (-4)
5923  00                 [102] (-4)
5924  00                 [103] (-4)
5925  00                 [104] (-4)
5926  2A                 [105] (-97)
5927  00                 [106] (18)
5928  00                 [107] (18)
5929  00                 [108] (-2)
592A  2A                 [109] (93)
592B  00                 [110] (93)
592C  00                 [111] (93)
592D  00                 [112] (93)
592E  2A                 [113] (93)
592F  00                 [114] (93)
5930  00                 [115] (20)
5931  00                 [116] (113)
5932  2C                 [117] (113)
5933  00                 [118] (113)
5934  00                 [119] (113)
5935  00                 [120] (95)
5936  2C                 [121] (-101)
5937  00                 [122] (-101)
5938  00                 [123] (-101)
5939  00                 [124] (-101)
593A  2C                 [125] (115)
593B  00                 [126] (-64)
593C  00                 [127] (-64)
593D  00                 [128] (-64)
593E  2D                 [129] (-64)
593F  00                 [130] (-64)
5940  00                 [131] (-99)
5941  00                 [132] (-29)
5942  2D                 [133] (-29)
5943  00                 [134] (-29)
5944  00                 [135] (-29)
5945  00                 [136] (-29)
5946  2D                 [137] (-29)
5947  00                 [138] (-62)
5948  00                 [139] (37)
5949  00                 [140] (37)
594A  2F                 [141] (37)
594B  00                 [142] (37)
594C  00                 [143] (37)
594D  00                 [144] (37)
594E  2F                 [145] (-27)
594F  00                 [146] (62)
5950  00                 [147] (85)
5951  00                 [148] (85)
5952  2F                 [149] (125)
5953  00                 [150] (125)
5954  00                 [151] (125)
5955  00                 [152] (125)
5956  31                 [153] (87)
5957  00                 [154] (-122)
5958  00                 [155] (-122)
5959  00                 [156] (127)
595A  36                 [157] (-111)
595B  00                 [158] (-111)
595C  00                 [159] (-120)
595D  00                 [160] (-111)
                         * locals:
5B3E  00                 sizelocvars (0)
                         * upvalues:
5B3F  00                 sizeupvalues (0)
                         ** end of function **

5B40                     ** end of chunk **
