1	C:\wlua_dump\path\Lotus\Powersuits\OperatorOperatorLib.lua
Pos   Hex Data           Description or Code
------------------------------------------------------------------------
0000                     ** source chunk: C:\wlua_dump\path\Lotus\Powersuits\OperatorOperatorLib.lua
                         ** global header start **
0000  7F                 header signature: ""
0001  00                 version (major:minor hex digits)
0002  00                 format (0=official)
0003  00                 endianness (1=little endian)
0004  00                 size of int (bytes)
0005  00                 size of size_t (bytes)
0006  02                 size of Instruction (bytes)
0007  11                 size of number (bytes)
0008  F5                 integral (1=integral)
4245
                         * number type: single
                         * x86 standard (32-bit, little endian, doubles)
                         ** global header end **
package
seeall
/Lotus/Powersuits/Operator/DefaultOperatorSuit
/Lotus/Powersuits/PowersuitAbilities/OperatorTransferenceAbility
/Lotus/Types/Keys/WarWithinQuest/WarWithinQuestKeyQueensFight
/Lotus/Types/Keys/WarWithinQuest/WarWithinQuestKeyLisetA
/Lotus/Types/Keys/WarWithinQuest/WarWithinQuestKeyLisetB
/Lotus/Types/Keys/WarWithinQuest/WarWithinQuestKeyLisetC
/Lotus/Types/Keys/WarWithinQuest/WarWithinQuestKeyMawPit
SitIdle1
SitIdle2
Lotus.Interface.LotusUtilities
Lotus.Interface.Libs.DioramaLoader
SetupAvatar
ApplyOperatorCustomization
RemoveOperatorHood
CustomizeWeapon
GetFocusPolarity
GetUpgradeLevel
physicalDamage
tag
PhysicalDamage
upgradeType
Game
WEAPON_BONUS_NORMALIZED_PHYSICAL_DAMAGE
max
GetUpgrade
elementalDamage
ElementalDamage
WEAPON_BONUS_NORMALIZED_ELEMENTAL_DAMAGE
radialXp
RadialXp
AVATAR_SHARE_XP_RADIUS
instantRevive
InstantRevive
energyOverTime
EnergyOverTime
AVATAR_POWER_RATE
GetUpgradeDuration
channelEfficiency
ChannelEfficiency
WEAPON_MELEE_COMBO_USAGE_EFFICIENCY
meleeXp
MeleeXp
GAMEPLAY_KILL_XP_AMOUNT
upgradeOperation
STACKING_MULTIPLY
meleeCombo
MeleeCombo
WEAPON_MELEE_COMBO_DECAY_AMOUNT
SET
reflectDamage
ReflectDamage
AVATAR_THORNS_PERCENT
armourBuff
ArmourBuff
AVATAR_ARMOUR
ApplyResiduals
GetDescriptionInfo
ApplyPowerEnergyOverTime
IsInWarWithinMission
GetOperatorType
EvaluateAbility
SpawnMysteriousTwin
OPERATOR_ABILITY
Engine
PM_DODGE
WALK
Game
AVATAR_MOVEMENT_SPEED
SET
DT_ANY
EMPTY_SYMBOL
ANY_PART
DHT_NONE
PAIN
STAGGER
STUN
KNOCKDOWN
RAGDOLL
ZERO_ROTATION
SLOT_10
ZERO_VECTOR
gRegion
gPlayerProfileMgr
mOperatorCustomization
mPlayerLevel
gBackgroundRegion
mCustomization
Lotus_Game
Face
gPlayerProfileMgr
mOperatorCustomization
Lotus_Game
TennoOperatorCustomization_TOCS_GENERAL_FLAGS
gRegion
mCustomization
gLotusOperatorAvatarType
Lotus_Game
Attachments
EnergyColor
alpha
PrimaryColors

math
math
max
math
max
math
max
math
max
math
max
math
max
math
max
math
max
gRegion
gGameRules
gLotusAttractModeGameRulesType
transferenceDisabled
spawnAsOperator

Lotus_Game
AP_ATTACK
tag
upgradeType
Game
ADD
gPowerSuitType
AP_DEFENSE
radialXp
instantRevive
gLotusOperatorAvatarType
_T
operatorInstantRevives
instigator
affected
buffType
BT_STACK
buffData
abilityType
/Lotus/Upgrades/Focus/Defense/Residual/InstantReviveFocusUpgrade
DefenseInstantRevive
AP_POWER
energyOverTime
PowerEnergyPickup
channelEfficiency
STACKING_MULTIPLY
AP_TACTIC
upgradeOperation
gLotusMeleeWeaponType
AP_WARD
math
Lotus_Game
AP_ATTACK
tag
PERCENT
math
AP_DEFENSE
radialXp
RADIUS
instantRevive
COUNT
AP_POWER
energyOverTime
DURATION
channelEfficiency
AP_TACTIC
meleeXp
meleeCombo
AMOUNT
AP_WARD
reflectDamage
armourBuff
VALUE
energyOverTime
math
max
tag
upgradeType
Game
ADD
gGameRules
gLotusAttractModeGameRulesType
levelKeyName
Error: Transference instigated by operator should be evaluated via OperatorTransference, not OperatorLib
Lotus_Game
OT_NONE
gPlayerProfileMgr
Lotus_Game
OT_PHYSICAL
OT_COMBAT
gGameRules
gLotusAttractModeGameRulesType
transferenceDisabled
gRegion
gLotusAvatarType
/Lotus/Language/Game/AbilityErrorNotReady
OT_GHOST
UI_MODE_IN_SPACE_SHIP
_T
spawningOperator
gRegion
OperatorTwinWaypoint
_T
operatorTwinWaypoint
table
TwinVisibilityTrigger
ZERO_ROTATION
                         
0001                     ** function [0] definition (level 1)
                         ** start of function **
0001  00                 string size (0)
                         source name: (none)
0002  00                 line defined (0)
0003  00                 last line defined (0)
0004  00                 nups (0)
0005  00                 numparams (0)
0006  02                 is_vararg (2)
0007  11                 maxstacksize (17)
                         * code:
0009  01                 sizecode (245)
000A  1D000000           [001] getglobal  0   0        ; 954442511
000E  41000001           [002] vararg     1   2      
0012  9D400000           [003] getglobal  2   1        ; package
0016  8E804001           [004] gettable   2   2   258  ; "seeall"
001A  22408001           [005] call       0   3   1  
001E  1DC00000           [006] getglobal  0   3        ; 738251817
0022  59000100           [007] loadk      1   4        ; "/Lotus/Powersuits/Operator/DefaultOperatorSuit"
0026  22800001           [008] call       0   2   2  
002A  5D400100           [009] getglobal  1   5        ; 572299008
002E  99800100           [010] loadk      2   6        ; 0
0032  D9C00100           [011] loadk      3   7        ; 0
0036  19010200           [012] loadk      4   8        ; 0
003A  62800002           [013] call       1   4   2  
003E  9DC00000           [014] getglobal  2   3        ; 738251817
0042  D9400200           [015] loadk      3   9        ; "/Lotus/Powersuits/PowersuitAbilities/OperatorTransferenceAbility"
0046  A2800001           [016] call       2   2   2  
004A  D9800200           [017] loadk      3   10       ; 0
004E  0B010002           [018] newtable   4   4   0    ; array=4, hash=0
0052  5DC10000           [019] getglobal  5   3        ; 738251817
0056  99C10200           [020] loadk      6   11       ; "/Lotus/Types/Keys/WarWithinQuest/WarWithinQuestKeyQueensFight"
005A  62810001           [021] call       5   2   2  
005E  9DC10000           [022] getglobal  6   3        ; 738251817
0062  D9010300           [023] loadk      7   12       ; "/Lotus/Types/Keys/WarWithinQuest/WarWithinQuestKeyLisetA"
0066  A2810001           [024] call       6   2   2  
006A  DDC10000           [025] getglobal  7   3        ; 738251817
006E  19420300           [026] loadk      8   13       ; "/Lotus/Types/Keys/WarWithinQuest/WarWithinQuestKeyLisetB"
0072  E2810001           [027] call       7   2   2  
0076  1DC20000           [028] getglobal  8   3        ; 738251817
007A  59820300           [029] loadk      9   14       ; "/Lotus/Types/Keys/WarWithinQuest/WarWithinQuestKeyLisetC"
007E  22820001           [030] call       8   2   2  
0082  5DC20000           [031] getglobal  9   3        ; 738251817
0086  99C20300           [032] loadk      10  15       ; "/Lotus/Types/Keys/WarWithinQuest/WarWithinQuestKeyMawPit"
008A  62020001           [033] call       9   2   0  
008E  1B410000           [034] setlist    4   0   1    ; index 1 to top
0092  4B018000           [035] newtable   5   1   0    ; array=1, hash=0
0096  9D010400           [036] getglobal  6   16       ; -332969190
009A  D9410400           [037] loadk      7   17       ; "SitIdle1"
009E  A2810001           [038] call       6   2   2  
00A2  DD010400           [039] getglobal  7   16       ; -332969190
00A6  19820400           [040] loadk      8   18       ; "SitIdle2"
00AA  E2010001           [041] call       7   2   0  
00AE  5B410000           [042] setlist    5   0   1    ; index 1 to top
00B2  9DC10400           [043] getglobal  6   19       ; 849075268
00B6  D9010500           [044] loadk      7   20       ; "Lotus.Interface.LotusUtilities"
00BA  A2810001           [045] call       6   2   2  
00BE  DDC10400           [046] getglobal  7   19       ; 849075268
00C2  19420500           [047] loadk      8   21       ; "Lotus.Interface.Libs.DioramaLoader"
00C6  E2810001           [048] call       7   2   2  
00CA  25020000           [049] closure    8   0      
00CE  12008000           [050] move       0   1      
00D2  20820500           [051] setglobal  8   22       ; SetupAvatar
00D6  20C20500           [052] setglobal  8   23       ; -416519473
00DA  25420000           [053] closure    8   1      
00DE  12000000           [054] move       0   0      
00E2  12000003           [055] move       0   6      
00E6  20020600           [056] setglobal  8   24       ; ApplyOperatorCustomization
00EA  20420600           [057] setglobal  8   25       ; 2065819395
00EE  25820000           [058] closure    8   2      
00F2  20820600           [059] setglobal  8   26       ; RemoveOperatorHood
00F6  20C20600           [060] setglobal  8   27       ; -623804443
00FA  25C20000           [061] closure    8   3      
00FE  20020700           [062] setglobal  8   28       ; CustomizeWeapon
0102  20420700           [063] setglobal  8   29       ; -1524868432
0106  25020100           [064] closure    8   4      
010A  20820700           [065] setglobal  8   30       ; GetFocusPolarity
010E  20C20700           [066] setglobal  8   31       ; 518391456
0112  25420100           [067] closure    8   5      
0116  20020800           [068] setglobal  8   32       ; GetUpgradeLevel
011A  20420800           [069] setglobal  8   33       ; -75093794
011E  0B820000           [070] newtable   8   0   2    ; array=0, hash=2
0122  4B020100           [071] newtable   9   0   4    ; array=0, hash=4
0126  9D020400           [072] getglobal  10  16       ; -332969190
012A  D9020900           [073] loadk      11  36       ; "PhysicalDamage"
012E  A2820001           [074] call       10  2   2  
0132  4C828291           [075] settable   9   291 10   ; "tag"
0136  9D820900           [076] getglobal  10  38       ; Game
013A  8EC24905           [077] gettable   10  10  295  ; "WEAPON_BONUS_NORMALIZED_PHYSICAL_DAMAGE"
013E  4C828292           [078] settable   9   293 10   ; "upgradeType"
0142  4C824294           [079] settable   9   296 266  ; "max" 0
0146  A5820100           [080] closure    10  6      
014A  4C828294           [081] settable   9   297 10   ; "GetUpgrade"
014E  0C420291           [082] settable   8   290 9    ; "physicalDamage"
0152  4B020100           [083] newtable   9   0   4    ; array=0, hash=4
0156  9D020400           [084] getglobal  10  16       ; -332969190
015A  D9C20A00           [085] loadk      11  43       ; "ElementalDamage"
015E  A2820001           [086] call       10  2   2  
0162  4C828291           [087] settable   9   291 10   ; "tag"
0166  9D820900           [088] getglobal  10  38       ; Game
016A  8E024B05           [089] gettable   10  10  300  ; "WEAPON_BONUS_NORMALIZED_ELEMENTAL_DAMAGE"
016E  4C828292           [090] settable   9   293 10   ; "upgradeType"
0172  4C824294           [091] settable   9   296 266  ; "max" 0
0176  A5C20100           [092] closure    10  7      
017A  4C828294           [093] settable   9   297 10   ; "GetUpgrade"
017E  0C420295           [094] settable   8   298 9    ; "elementalDamage"
0182  4B820000           [095] newtable   9   0   2    ; array=0, hash=2
0186  8B020100           [096] newtable   10  0   4    ; array=0, hash=4
018A  DD020400           [097] getglobal  11  16       ; -332969190
018E  19830B00           [098] loadk      12  46       ; "RadialXp"
0192  E2820001           [099] call       11  2   2  
0196  8CC28291           [100] settable   10  291 11   ; "tag"
019A  DD820900           [101] getglobal  11  38       ; Game
019E  CEC2CB05           [102] gettable   11  11  303  ; "AVATAR_SHARE_XP_RADIUS"
01A2  8CC28292           [103] settable   10  293 11   ; "upgradeType"
01A6  8C824294           [104] settable   10  296 266  ; "max" 0
01AA  E5020200           [105] closure    11  8      
01AE  8CC28294           [106] settable   10  297 11   ; "GetUpgrade"
01B2  4C828296           [107] settable   9   301 10   ; "radialXp"
01B6  8BC20000           [108] newtable   10  0   3    ; array=0, hash=3
01BA  DD020400           [109] getglobal  11  16       ; -332969190
01BE  19430C00           [110] loadk      12  49       ; "InstantRevive"
01C2  E2820001           [111] call       11  2   2  
01C6  8CC28291           [112] settable   10  291 11   ; "tag"
01CA  8C824294           [113] settable   10  296 266  ; "max" 0
01CE  E5420200           [114] closure    11  9      
01D2  8CC28294           [115] settable   10  297 11   ; "GetUpgrade"
01D6  4C820298           [116] settable   9   304 10   ; "instantRevive"
01DA  8B820000           [117] newtable   10  0   2    ; array=0, hash=2
01DE  CB420100           [118] newtable   11  0   5    ; array=0, hash=5
01E2  1D030400           [119] getglobal  12  16       ; -332969190
01E6  59C30C00           [120] loadk      13  51       ; "EnergyOverTime"
01EA  22830001           [121] call       12  2   2  
01EE  CC028391           [122] settable   11  291 12   ; "tag"
01F2  1D830900           [123] getglobal  12  38       ; Game
01F6  0E034D06           [124] gettable   12  12  308  ; "AVATAR_POWER_RATE"
01FA  CC028392           [125] settable   11  293 12   ; "upgradeType"
01FE  CC424D94           [126] settable   11  296 309  ; "max" 0
0202  25830200           [127] closure    12  10     
0206  CC028394           [128] settable   11  297 12   ; "GetUpgrade"
020A  25C30200           [129] closure    12  11     
020E  CC02039B           [130] settable   11  310 12   ; "GetUpgradeDuration"
0212  8CC20299           [131] settable   10  306 11   ; "energyOverTime"
0216  CB020100           [132] newtable   11  0   4    ; array=0, hash=4
021A  1D030400           [133] getglobal  12  16       ; -332969190
021E  59030E00           [134] loadk      13  56       ; "ChannelEfficiency"
0222  22830001           [135] call       12  2   2  
0226  CC028391           [136] settable   11  291 12   ; "tag"
022A  1D830900           [137] getglobal  12  38       ; Game
022E  0E434E06           [138] gettable   12  12  313  ; "WEAPON_MELEE_COMBO_USAGE_EFFICIENCY"
0232  CC028392           [139] settable   11  293 12   ; "upgradeType"
0236  CC424D94           [140] settable   11  296 309  ; "max" 0
023A  25030300           [141] closure    12  12     
023E  CC028394           [142] settable   11  297 12   ; "GetUpgrade"
0242  8CC2829B           [143] settable   10  311 11   ; "channelEfficiency"
0246  CB820000           [144] newtable   11  0   2    ; array=0, hash=2
024A  0B430100           [145] newtable   12  0   5    ; array=0, hash=5
024E  5D030400           [146] getglobal  13  16       ; -332969190
0252  99C30E00           [147] loadk      14  59       ; "MeleeXp"
0256  62830001           [148] call       13  2   2  
025A  0C438391           [149] settable   12  291 13   ; "tag"
025E  5D830900           [150] getglobal  13  38       ; Game
0262  4E03CF06           [151] gettable   13  13  316  ; "GAMEPLAY_KILL_XP_AMOUNT"
0266  0C438392           [152] settable   12  293 13   ; "upgradeType"
026A  5D830900           [153] getglobal  13  38       ; Game
026E  4E83CF06           [154] gettable   13  13  318  ; "STACKING_MULTIPLY"
0272  0C43839E           [155] settable   12  317 13   ; "upgradeOperation"
0276  0C434D94           [156] settable   12  296 309  ; "max" 0
027A  65430300           [157] closure    13  13     
027E  0C438394           [158] settable   12  297 13   ; "GetUpgrade"
0282  CC02039D           [159] settable   11  314 12   ; "meleeXp"
0286  0B430100           [160] newtable   12  0   5    ; array=0, hash=5
028A  5D030400           [161] getglobal  13  16       ; -332969190
028E  99031000           [162] loadk      14  64       ; "MeleeCombo"
0292  62830001           [163] call       13  2   2  
0296  0C438391           [164] settable   12  291 13   ; "tag"
029A  5D830900           [165] getglobal  13  38       ; Game
029E  4E43D006           [166] gettable   13  13  321  ; "WEAPON_MELEE_COMBO_DECAY_AMOUNT"
02A2  0C438392           [167] settable   12  293 13   ; "upgradeType"
02A6  5D830900           [168] getglobal  13  38       ; Game
02AA  4E83D006           [169] gettable   13  13  322  ; "SET"
02AE  0C43839E           [170] settable   12  317 13   ; "upgradeOperation"
02B2  0C834294           [171] settable   12  296 266  ; "max" 0
02B6  65830300           [172] closure    13  14     
02BA  0C438394           [173] settable   12  297 13   ; "GetUpgrade"
02BE  CC02839F           [174] settable   11  319 12   ; "meleeCombo"
02C2  0B830000           [175] newtable   12  0   2    ; array=0, hash=2
02C6  4B030100           [176] newtable   13  0   4    ; array=0, hash=4
02CA  9D030400           [177] getglobal  14  16       ; -332969190
02CE  D9031100           [178] loadk      15  68       ; "ReflectDamage"
02D2  A2830001           [179] call       14  2   2  
02D6  4C838391           [180] settable   13  291 14   ; "tag"
02DA  9D830900           [181] getglobal  14  38       ; Game
02DE  8E435107           [182] gettable   14  14  325  ; "AVATAR_THORNS_PERCENT"
02E2  4C838392           [183] settable   13  293 14   ; "upgradeType"
02E6  4C434D94           [184] settable   13  296 309  ; "max" 0
02EA  A5C30300           [185] closure    14  15     
02EE  4C838394           [186] settable   13  297 14   ; "GetUpgrade"
02F2  0C4383A1           [187] settable   12  323 13   ; "reflectDamage"
02F6  4B030100           [188] newtable   13  0   4    ; array=0, hash=4
02FA  9D030400           [189] getglobal  14  16       ; -332969190
02FE  D9C31100           [190] loadk      15  71       ; "ArmourBuff"
0302  A2830001           [191] call       14  2   2  
0306  4C838391           [192] settable   13  291 14   ; "tag"
030A  9D830900           [193] getglobal  14  38       ; Game
030E  8E035207           [194] gettable   14  14  328  ; "AVATAR_ARMOUR"
0312  4C838392           [195] settable   13  293 14   ; "upgradeType"
0316  4C834294           [196] settable   13  296 266  ; "max" 0
031A  A5030400           [197] closure    14  16     
031E  4C838394           [198] settable   13  297 14   ; "GetUpgrade"
0322  0C4303A3           [199] settable   12  326 13   ; "armourBuff"
0326  65430400           [200] closure    13  17     
032A  12000004           [201] move       0   8      
032E  12008004           [202] move       0   9      
0332  12000005           [203] move       0   10     
0336  12008005           [204] move       0   11     
033A  12000006           [205] move       0   12     
033E  60431200           [206] setglobal  13  73       ; ApplyResiduals
0342  60831200           [207] setglobal  13  74       ; -1588889823
0346  65830400           [208] closure    13  18     
034A  12000004           [209] move       0   8      
034E  12008004           [210] move       0   9      
0352  12000005           [211] move       0   10     
0356  12008005           [212] move       0   11     
035A  12000006           [213] move       0   12     
035E  60C31200           [214] setglobal  13  75       ; GetDescriptionInfo
0362  60031300           [215] setglobal  13  76       ; 504423499
0366  65C30400           [216] closure    13  19     
036A  12000005           [217] move       0   10     
036E  60431300           [218] setglobal  13  77       ; ApplyPowerEnergyOverTime
0372  60831300           [219] setglobal  13  78       ; 1821710835
0376  65030500           [220] closure    13  20     
037A  12000002           [221] move       0   4      
037E  A5430500           [222] closure    14  21     
0382  12008006           [223] move       0   13     
0386  A0C31300           [224] setglobal  14  79       ; IsInWarWithinMission
038A  A0031400           [225] setglobal  14  80       ; 138413187
038E  A5830500           [226] closure    14  22     
0392  E5C30500           [227] closure    15  23     
0396  25040600           [228] closure    16  24     
039A  12008007           [229] move       0   15     
039E  20441400           [230] setglobal  16  81       ; GetOperatorType
03A2  20841400           [231] setglobal  16  82       ; -1769100871
03A6  25440600           [232] closure    16  25     
03AA  12008007           [233] move       0   15     
03AE  12000007           [234] move       0   14     
03B2  12000001           [235] move       0   2      
03B6  12000003           [236] move       0   6      
03BA  12008001           [237] move       0   3      
03BE  20C41400           [238] setglobal  16  83       ; EvaluateAbility
03C2  20041500           [239] setglobal  16  84       ; -2023457913
03C6  25840600           [240] closure    16  26     
03CA  12008002           [241] move       0   5      
03CE  12008003           [242] move       0   7      
03D2  20441500           [243] setglobal  16  85       ; SpawnMysteriousTwin
03D6  20841500           [244] setglobal  16  86       ; -984420368
03DA  1E008000           [245] return     0   1      
                         * constants:
03DE  57                 sizek (87)
03DF  01                 const type 3
03E0  0FA3E338           const [0]: (954442511)
03E4  04                 const type 4
03E5  08                 string size (8)
03E6  7061636B61676500   "package\0"
                         const [1]: "package"
03EE  04                 const type 4
03EF  07                 string size (7)
03F0  736565616C6C00     "seeall\0"
                         const [2]: "seeall"
03F7  01                 const type 3
03F8  29D4002C           const [3]: (738251817)
03FC  04                 const type 4
03FD  2F                 string size (47)
03FE  2F4C6F7475732F50+  "/Lotus/P"
0406  6F77657273756974+  "owersuit"
040E  732F4F7065726174+  "s/Operat"
0416  6F722F4465666175+  "or/Defau"
041E  6C744F7065726174+  "ltOperat"
0426  6F725375697400     "orSuit\0"
                         const [4]: "/Lotus/Powersuits/Operator/DefaultOperatorSuit"
042D  01                 const type 3
042E  00971C22           const [5]: (572299008)
0432  03                 const type 3
0433  000000BF           const [6]: (0)
0437  03                 const type 3
0438  00000000           const [7]: (0)
043C  03                 const type 3
043D  000040C0           const [8]: (0)
0441  04                 const type 4
0442  41                 string size (65)
0443  2F4C6F7475732F50+  "/Lotus/P"
044B  6F77657273756974+  "owersuit"
0453  732F506F77657273+  "s/Powers"
045B  7569744162696C69+  "uitAbili"
0463  746965732F4F7065+  "ties/Ope"
046B  7261746F72547261+  "ratorTra"
0473  6E73666572656E63+  "nsferenc"
047B  654162696C697479+  "eAbility"
0483  00                 "\0"
                         const [9]: "/Lotus/Powersuits/PowersuitAbilities/OperatorTransferenceAbility"
0484  03                 const type 3
0485  00008040           const [10]: (0)
0489  04                 const type 4
048A  3E                 string size (62)
048B  2F4C6F7475732F54+  "/Lotus/T"
0493  797065732F4B6579+  "ypes/Key"
049B  732F576172576974+  "s/WarWit"
04A3  68696E5175657374+  "hinQuest"
04AB  2F57617257697468+  "/WarWith"
04B3  696E51756573744B+  "inQuestK"
04BB  6579517565656E73+  "eyQueens"
04C3  466967687400       "Fight\0"
                         const [11]: "/Lotus/Types/Keys/WarWithinQuest/WarWithinQuestKeyQueensFight"
04C9  04                 const type 4
04CA  39                 string size (57)
04CB  2F4C6F7475732F54+  "/Lotus/T"
04D3  797065732F4B6579+  "ypes/Key"
04DB  732F576172576974+  "s/WarWit"
04E3  68696E5175657374+  "hinQuest"
04EB  2F57617257697468+  "/WarWith"
04F3  696E51756573744B+  "inQuestK"
04FB  65794C6973657441+  "eyLisetA"
0503  00                 "\0"
                         const [12]: "/Lotus/Types/Keys/WarWithinQuest/WarWithinQuestKeyLisetA"
0504  04                 const type 4
0505  39                 string size (57)
0506  2F4C6F7475732F54+  "/Lotus/T"
050E  797065732F4B6579+  "ypes/Key"
0516  732F576172576974+  "s/WarWit"
051E  68696E5175657374+  "hinQuest"
0526  2F57617257697468+  "/WarWith"
052E  696E51756573744B+  "inQuestK"
0536  65794C6973657442+  "eyLisetB"
053E  00                 "\0"
                         const [13]: "/Lotus/Types/Keys/WarWithinQuest/WarWithinQuestKeyLisetB"
053F  04                 const type 4
0540  39                 string size (57)
0541  2F4C6F7475732F54+  "/Lotus/T"
0549  797065732F4B6579+  "ypes/Key"
0551  732F576172576974+  "s/WarWit"
0559  68696E5175657374+  "hinQuest"
0561  2F57617257697468+  "/WarWith"
0569  696E51756573744B+  "inQuestK"
0571  65794C6973657443+  "eyLisetC"
0579  00                 "\0"
                         const [14]: "/Lotus/Types/Keys/WarWithinQuest/WarWithinQuestKeyLisetC"
057A  04                 const type 4
057B  39                 string size (57)
057C  2F4C6F7475732F54+  "/Lotus/T"
0584  797065732F4B6579+  "ypes/Key"
058C  732F576172576974+  "s/WarWit"
0594  68696E5175657374+  "hinQuest"
059C  2F57617257697468+  "/WarWith"
05A4  696E51756573744B+  "inQuestK"
05AC  65794D6177506974+  "eyMawPit"
05B4  00                 "\0"
                         const [15]: "/Lotus/Types/Keys/WarWithinQuest/WarWithinQuestKeyMawPit"
05B5  01                 const type 3
05B6  1A4B27EC           const [16]: (-332969190)
05BA  04                 const type 4
05BB  09                 string size (9)
05BC  53697449646C6531+  "SitIdle1"
05C4  00                 "\0"
                         const [17]: "SitIdle1"
05C5  04                 const type 4
05C6  09                 string size (9)
05C7  53697449646C6532+  "SitIdle2"
05CF  00                 "\0"
                         const [18]: "SitIdle2"
05D0  01                 const type 3
05D1  44DC9B32           const [19]: (849075268)
05D5  04                 const type 4
05D6  1F                 string size (31)
05D7  4C6F7475732E496E+  "Lotus.In"
05DF  746572666163652E+  "terface."
05E7  4C6F747573557469+  "LotusUti"
05EF  6C697469657300     "lities\0"
                         const [20]: "Lotus.Interface.LotusUtilities"
05F6  04                 const type 4
05F7  23                 string size (35)
05F8  4C6F7475732E496E+  "Lotus.In"
0600  746572666163652E+  "terface."
0608  4C6962732E44696F+  "Libs.Dio"
0610  72616D614C6F6164+  "ramaLoad"
0618  657200             "er\0"
                         const [21]: "Lotus.Interface.Libs.DioramaLoader"
061B  04                 const type 4
061C  0C                 string size (12)
061D  5365747570417661+  "SetupAva"
0625  74617200           "tar\0"
                         const [22]: "SetupAvatar"
0629  01                 const type 3
062A  CF6A2CE7           const [23]: (-416519473)
062E  04                 const type 4
062F  1B                 string size (27)
0630  4170706C794F7065+  "ApplyOpe"
0638  7261746F72437573+  "ratorCus"
0640  746F6D697A617469+  "tomizati"
0648  6F6E00             "on\0"
                         const [24]: "ApplyOperatorCustomization"
064B  01                 const type 3
064C  03E7217B           const [25]: (2065819395)
0650  04                 const type 4
0651  13                 string size (19)
0652  52656D6F76654F70+  "RemoveOp"
065A  657261746F72486F+  "eratorHo"
0662  6F6400             "od\0"
                         const [26]: "RemoveOperatorHood"
0665  01                 const type 3
0666  E57FD1DA           const [27]: (-623804443)
066A  04                 const type 4
066B  10                 string size (16)
066C  437573746F6D697A+  "Customiz"
0674  65576561706F6E00   "eWeapon\0"
                         const [28]: "CustomizeWeapon"
067C  01                 const type 3
067D  B05A1CA5           const [29]: (-1524868432)
0681  04                 const type 4
0682  11                 string size (17)
0683  476574466F637573+  "GetFocus"
068B  506F6C6172697479+  "Polarity"
0693  00                 "\0"
                         const [30]: "GetFocusPolarity"
0694  01                 const type 3
0695  A006E61E           const [31]: (518391456)
0699  04                 const type 4
069A  10                 string size (16)
069B  4765745570677261+  "GetUpgra"
06A3  64654C6576656C00   "deLevel\0"
                         const [32]: "GetUpgradeLevel"
06AB  01                 const type 3
06AC  DE2886FB           const [33]: (-75093794)
06B0  04                 const type 4
06B1  0F                 string size (15)
06B2  706879736963616C+  "physical"
06BA  44616D61676500     "Damage\0"
                         const [34]: "physicalDamage"
06C1  04                 const type 4
06C2  04                 string size (4)
06C3  74616700           "tag\0"
                         const [35]: "tag"
06C7  04                 const type 4
06C8  0F                 string size (15)
06C9  506879736963616C+  "Physical"
06D1  44616D61676500     "Damage\0"
                         const [36]: "PhysicalDamage"
06D8  04                 const type 4
06D9  0C                 string size (12)
06DA  7570677261646554+  "upgradeT"
06E2  79706500           "ype\0"
                         const [37]: "upgradeType"
06E6  04                 const type 4
06E7  05                 string size (5)
06E8  47616D6500         "Game\0"
                         const [38]: "Game"
06ED  04                 const type 4
06EE  28                 string size (40)
06EF  574541504F4E5F42+  "WEAPON_B"
06F7  4F4E55535F4E4F52+  "ONUS_NOR"
06FF  4D414C495A45445F+  "MALIZED_"
0707  504859534943414C+  "PHYSICAL"
070F  5F44414D41474500   "_DAMAGE\0"
                         const [39]: "WEAPON_BONUS_NORMALIZED_PHYSICAL_DAMAGE"
0717  04                 const type 4
0718  04                 string size (4)
0719  6D617800           "max\0"
                         const [40]: "max"
071D  04                 const type 4
071E  0B                 string size (11)
071F  4765745570677261+  "GetUpgra"
0727  646500             "de\0"
                         const [41]: "GetUpgrade"
072A  04                 const type 4
072B  10                 string size (16)
072C  656C656D656E7461+  "elementa"
0734  6C44616D61676500   "lDamage\0"
                         const [42]: "elementalDamage"
073C  04                 const type 4
073D  10                 string size (16)
073E  456C656D656E7461+  "Elementa"
0746  6C44616D61676500   "lDamage\0"
                         const [43]: "ElementalDamage"
074E  04                 const type 4
074F  29                 string size (41)
0750  574541504F4E5F42+  "WEAPON_B"
0758  4F4E55535F4E4F52+  "ONUS_NOR"
0760  4D414C495A45445F+  "MALIZED_"
0768  454C454D454E5441+  "ELEMENTA"
0770  4C5F44414D414745+  "L_DAMAGE"
0778  00                 "\0"
                         const [44]: "WEAPON_BONUS_NORMALIZED_ELEMENTAL_DAMAGE"
0779  04                 const type 4
077A  09                 string size (9)
077B  72616469616C5870+  "radialXp"
0783  00                 "\0"
                         const [45]: "radialXp"
0784  04                 const type 4
0785  09                 string size (9)
0786  52616469616C5870+  "RadialXp"
078E  00                 "\0"
                         const [46]: "RadialXp"
078F  04                 const type 4
0790  17                 string size (23)
0791  4156415441525F53+  "AVATAR_S"
0799  484152455F58505F+  "HARE_XP_"
07A1  52414449555300     "RADIUS\0"
                         const [47]: "AVATAR_SHARE_XP_RADIUS"
07A8  04                 const type 4
07A9  0E                 string size (14)
07AA  696E7374616E7452+  "instantR"
07B2  657669766500       "evive\0"
                         const [48]: "instantRevive"
07B8  04                 const type 4
07B9  0E                 string size (14)
07BA  496E7374616E7452+  "InstantR"
07C2  657669766500       "evive\0"
                         const [49]: "InstantRevive"
07C8  04                 const type 4
07C9  0F                 string size (15)
07CA  656E657267794F76+  "energyOv"
07D2  657254696D6500     "erTime\0"
                         const [50]: "energyOverTime"
07D9  04                 const type 4
07DA  0F                 string size (15)
07DB  456E657267794F76+  "EnergyOv"
07E3  657254696D6500     "erTime\0"
                         const [51]: "EnergyOverTime"
07EA  04                 const type 4
07EB  12                 string size (18)
07EC  4156415441525F50+  "AVATAR_P"
07F4  4F5745525F524154+  "OWER_RAT"
07FC  4500               "E\0"
                         const [52]: "AVATAR_POWER_RATE"
07FE  03                 const type 3
07FF  0000C040           const [53]: (0)
0803  04                 const type 4
0804  13                 string size (19)
0805  4765745570677261+  "GetUpgra"
080D  6465447572617469+  "deDurati"
0815  6F6E00             "on\0"
                         const [54]: "GetUpgradeDuration"
0818  04                 const type 4
0819  12                 string size (18)
081A  6368616E6E656C45+  "channelE"
0822  6666696369656E63+  "fficienc"
082A  7900               "y\0"
                         const [55]: "channelEfficiency"
082C  04                 const type 4
082D  12                 string size (18)
082E  4368616E6E656C45+  "ChannelE"
0836  6666696369656E63+  "fficienc"
083E  7900               "y\0"
                         const [56]: "ChannelEfficiency"
0840  04                 const type 4
0841  24                 string size (36)
0842  574541504F4E5F4D+  "WEAPON_M"
084A  454C45455F434F4D+  "ELEE_COM"
0852  424F5F5553414745+  "BO_USAGE"
085A  5F45464649434945+  "_EFFICIE"
0862  4E435900           "NCY\0"
                         const [57]: "WEAPON_MELEE_COMBO_USAGE_EFFICIENCY"
0866  04                 const type 4
0867  08                 string size (8)
0868  6D656C6565587000   "meleeXp\0"
                         const [58]: "meleeXp"
0870  04                 const type 4
0871  08                 string size (8)
0872  4D656C6565587000   "MeleeXp\0"
                         const [59]: "MeleeXp"
087A  04                 const type 4
087B  18                 string size (24)
087C  47414D45504C4159+  "GAMEPLAY"
0884  5F4B494C4C5F5850+  "_KILL_XP"
088C  5F414D4F554E5400   "_AMOUNT\0"
                         const [60]: "GAMEPLAY_KILL_XP_AMOUNT"
0894  04                 const type 4
0895  11                 string size (17)
0896  757067726164654F+  "upgradeO"
089E  7065726174696F6E+  "peration"
08A6  00                 "\0"
                         const [61]: "upgradeOperation"
08A7  04                 const type 4
08A8  12                 string size (18)
08A9  535441434B494E47+  "STACKING"
08B1  5F4D554C5449504C+  "_MULTIPL"
08B9  5900               "Y\0"
                         const [62]: "STACKING_MULTIPLY"
08BB  04                 const type 4
08BC  0B                 string size (11)
08BD  6D656C6565436F6D+  "meleeCom"
08C5  626F00             "bo\0"
                         const [63]: "meleeCombo"
08C8  04                 const type 4
08C9  0B                 string size (11)
08CA  4D656C6565436F6D+  "MeleeCom"
08D2  626F00             "bo\0"
                         const [64]: "MeleeCombo"
08D5  04                 const type 4
08D6  20                 string size (32)
08D7  574541504F4E5F4D+  "WEAPON_M"
08DF  454C45455F434F4D+  "ELEE_COM"
08E7  424F5F4445434159+  "BO_DECAY"
08EF  5F414D4F554E5400   "_AMOUNT\0"
                         const [65]: "WEAPON_MELEE_COMBO_DECAY_AMOUNT"
08F7  04                 const type 4
08F8  04                 string size (4)
08F9  53455400           "SET\0"
                         const [66]: "SET"
08FD  04                 const type 4
08FE  0E                 string size (14)
08FF  7265666C65637444+  "reflectD"
0907  616D61676500       "amage\0"
                         const [67]: "reflectDamage"
090D  04                 const type 4
090E  0E                 string size (14)
090F  5265666C65637444+  "ReflectD"
0917  616D61676500       "amage\0"
                         const [68]: "ReflectDamage"
091D  04                 const type 4
091E  16                 string size (22)
091F  4156415441525F54+  "AVATAR_T"
0927  484F524E535F5045+  "HORNS_PE"
092F  5243454E5400       "RCENT\0"
                         const [69]: "AVATAR_THORNS_PERCENT"
0935  04                 const type 4
0936  0B                 string size (11)
0937  61726D6F75724275+  "armourBu"
093F  666600             "ff\0"
                         const [70]: "armourBuff"
0942  04                 const type 4
0943  0B                 string size (11)
0944  41726D6F75724275+  "ArmourBu"
094C  666600             "ff\0"
                         const [71]: "ArmourBuff"
094F  04                 const type 4
0950  0E                 string size (14)
0951  4156415441525F41+  "AVATAR_A"
0959  524D4F555200       "RMOUR\0"
                         const [72]: "AVATAR_ARMOUR"
095F  04                 const type 4
0960  0F                 string size (15)
0961  4170706C79526573+  "ApplyRes"
0969  696475616C7300     "iduals\0"
                         const [73]: "ApplyResiduals"
0970  01                 const type 3
0971  21774BA1           const [74]: (-1588889823)
0975  04                 const type 4
0976  13                 string size (19)
0977  4765744465736372+  "GetDescr"
097F  697074696F6E496E+  "iptionIn"
0987  666F00             "fo\0"
                         const [75]: "GetDescriptionInfo"
098A  01                 const type 3
098B  4BE4101E           const [76]: (504423499)
098F  04                 const type 4
0990  19                 string size (25)
0991  4170706C79506F77+  "ApplyPow"
0999  6572456E65726779+  "erEnergy"
09A1  4F76657254696D65+  "OverTime"
09A9  00                 "\0"
                         const [77]: "ApplyPowerEnergyOverTime"
09AA  01                 const type 3
09AB  F319956C           const [78]: (1821710835)
09AF  04                 const type 4
09B0  15                 string size (21)
09B1  4973496E57617257+  "IsInWarW"
09B9  697468696E4D6973+  "ithinMis"
09C1  73696F6E00         "sion\0"
                         const [79]: "IsInWarWithinMission"
09C6  01                 const type 3
09C7  83044008           const [80]: (138413187)
09CB  04                 const type 4
09CC  10                 string size (16)
09CD  4765744F70657261+  "GetOpera"
09D5  746F725479706500   "torType\0"
                         const [81]: "GetOperatorType"
09DD  01                 const type 3
09DE  B9A98D96           const [82]: (-1769100871)
09E2  04                 const type 4
09E3  10                 string size (16)
09E4  4576616C75617465+  "Evaluate"
09EC  4162696C69747900   "Ability\0"
                         const [83]: "EvaluateAbility"
09F4  01                 const type 3
09F5  877B6487           const [84]: (-2023457913)
09F9  04                 const type 4
09FA  14                 string size (20)
09FB  537061776E4D7973+  "SpawnMys"
0A03  746572696F757354+  "teriousT"
0A0B  77696E00           "win\0"
                         const [85]: "SpawnMysteriousTwin"
0A0F  01                 const type 3
0A10  F0EF52C5           const [86]: (-984420368)
                         * functions:
0A14  1B                 sizep (27)
                         
0A15                     ** function [0] definition (level 2)
                         ** start of function **
0A15  00                 string size (0)
                         source name: (none)
0A16  19                 line defined (25)
0A17  6C                 last line defined (108)
0A18  01                 nups (1)
0A19  05                 numparams (5)
0A1A  00                 is_vararg (0)
0A1B  14                 maxstacksize (20)
                         * code:
0A1D  01                 sizecode (243)
0A1E  5D010000           [001] getglobal  5   0        ; -332969190
0A22  99410000           [002] loadk      6   1        ; "OPERATOR_ABILITY"
0A26  62810001           [003] call       5   2   2  
0A2A  A4814000           [004] self       6   0   258  ; -1917464545
0A2E  A2810001           [005] call       6   2   2  
0A32  E4C14000           [006] self       7   0   259  ; -1544157541
0A36  E2810001           [007] call       7   2   2  
0A3A  06020004           [008] loadnil    8   8      
0A3E  64024103           [009] self       9   6   260  ; 1769516121
0A42  62820001           [010] call       9   2   2  
0A46  6442C104           [011] self       9   9   261  ; -1130691958
0A4A  62820001           [012] call       9   2   2  
0A4E  58000000           [013] test       1       0    ; to [15] if true
0A52  1AC01D80           [014] jmp        120          ; to [135]
0A56  A4824100           [015] self       10  0   262  ; 228661305
0A5A  17030000           [016] loadbool   12  0   0    ; false
0A5E  A2428001           [017] call       10  3   1  
0A62  A4C24100           [018] self       10  0   263  ; 1408791382
0A66  A2820001           [019] call       10  2   2  
0A6A  A4024205           [020] self       10  10  264  ; 1532995569
0A6E  17030000           [021] loadbool   12  0   0    ; false
0A72  A2428001           [022] call       10  3   1  
0A76  A4424203           [023] self       10  6   265  ; 402026009
0A7A  A2420001           [024] call       10  2   1  
0A7E  A4824203           [025] self       10  6   266  ; 1815503922
0A82  17030000           [026] loadbool   12  0   0    ; false
0A86  A2428001           [027] call       10  3   1  
0A8A  A4C24200           [028] self       10  0   267  ; 1292478819
0A8E  A2820001           [029] call       10  2   2  
0A92  A4024305           [030] self       10  10  268  ; -1967775551
0A96  17038000           [031] loadbool   12  1   0    ; true
0A9A  A2428001           [032] call       10  3   1  
0A9E  A4424300           [033] self       10  0   269  ; -1370444454
0AA2  17030000           [034] loadbool   12  0   0    ; false
0AA6  A2428001           [035] call       10  3   1  
0AAA  A4824300           [036] self       10  0   270  ; -452063099
0AAE  1DC30300           [037] getglobal  12  15       ; Engine
0AB2  0E034406           [038] gettable   12  12  272  ; "PM_DODGE"
0AB6  57030000           [039] loadbool   13  0   0    ; false
0ABA  A2420002           [040] call       10  4   1  
0ABE  A4C24100           [041] self       10  0   263  ; 1408791382
0AC2  A2820001           [042] call       10  2   2  
0AC6  A4424405           [043] self       10  10  273  ; 1958326506
0ACA  A2420001           [044] call       10  2   1  
0ACE  A4824400           [045] self       10  0   274  ; -529567558
0AD2  1DC30300           [046] getglobal  12  15       ; Engine
0AD6  0EC34406           [047] gettable   12  12  275  ; "WALK"
0ADA  A2428001           [048] call       10  3   1  
0ADE  9D020500           [049] getglobal  10  20       ; 1074689893
0AE2  E4424500           [050] self       11  0   277  ; 634817106
0AE6  E2020001           [051] call       11  2   0  
0AEA  A2820000           [052] call       10  0   2  
0AEE  98420000           [053] test       10      1    ; to [55] if false
0AF2  1A000180           [054] jmp        5            ; to [60]
0AF6  A4424500           [055] self       10  0   277  ; 634817106
0AFA  A2820001           [056] call       10  2   2  
0AFE  A4824505           [057] self       10  10  278  ; 1255771324
0B02  17030000           [058] loadbool   12  0   0    ; false
0B06  A2428001           [059] call       10  3   1  
0B0A  A4C24500           [060] self       10  0   279  ; -1201586349
0B0E  A2820001           [061] call       10  2   2  
0B12  98020000           [062] test       10      0    ; to [64] if true
0B16  1A800380           [063] jmp        15           ; to [79]
0B1A  A4024600           [064] self       10  0   280  ; 1129512439
0B1E  12038001           [065] move       12  3      
0B22  A2428001           [066] call       10  3   1  
0B26  A4424603           [067] self       10  6   281  ; 991629753
0B2A  1D830600           [068] getglobal  12  26       ; Game
0B2E  0EC34606           [069] gettable   12  12  283  ; "AVATAR_MOVEMENT_SPEED"
0B32  5D830600           [070] getglobal  13  26       ; Game
0B36  4E03C706           [071] gettable   13  13  284  ; "SET"
0B3A  99430700           [072] loadk      14  29       ; 0
0B3E  C6030008           [073] loadnil    15  16     
0B42  5DC40300           [074] getglobal  17  15       ; Engine
0B46  4E84C708           [075] gettable   17  17  286  ; "DT_ANY"
0B4A  9DC40700           [076] getglobal  18  31       ; EMPTY_SYMBOL
0B4E  D7048000           [077] loadbool   19  1   0    ; true
0B52  A2420005           [078] call       10  10  1  
0B56  A4C24200           [079] self       10  0   267  ; 1292478819
0B5A  A2820001           [080] call       10  2   2  
0B5E  A4024805           [081] self       10  10  288  ; 780595249
0B62  17038000           [082] loadbool   12  1   0    ; true
0B66  A2428001           [083] call       10  3   1  
0B6A  A442C803           [084] self       10  7   289  ; 808964080
0B6E  12038002           [085] move       12  5      
0B72  5DC30300           [086] getglobal  13  15       ; Engine
0B76  4E83C706           [087] gettable   13  13  286  ; "DT_ANY"
0B7A  9DC30300           [088] getglobal  14  15       ; Engine
0B7E  8E834807           [089] gettable   14  14  290  ; "ANY_PART"
0B82  DDC30300           [090] getglobal  15  15       ; Engine
0B86  CEC3C807           [091] gettable   15  15  291  ; "DHT_NONE"
0B8A  19040900           [092] loadk      16  36       ; 0
0B8E  A2428003           [093] call       10  7   1  
0B92  A442C903           [094] self       10  7   293  ; 17344149
0B96  12038002           [095] move       12  5      
0B9A  A2428001           [096] call       10  3   1  
0B9E  A482C903           [097] self       10  7   294  ; -2132095949
0BA2  A2420001           [098] call       10  2   1  
0BA6  A4C2C903           [099] self       10  7   295  ; 1685228074
0BAA  1DC30300           [100] getglobal  12  15       ; Engine
0BAE  0E034A06           [101] gettable   12  12  296  ; "PAIN"
0BB2  52038002           [102] move       13  5      
0BB6  A2420002           [103] call       10  4   1  
0BBA  A4C2C903           [104] self       10  7   295  ; 1685228074
0BBE  1DC30300           [105] getglobal  12  15       ; Engine
0BC2  0E434A06           [106] gettable   12  12  297  ; "STAGGER"
0BC6  52038002           [107] move       13  5      
0BCA  A2420002           [108] call       10  4   1  
0BCE  A4C2C903           [109] self       10  7   295  ; 1685228074
0BD2  1DC30300           [110] getglobal  12  15       ; Engine
0BD6  0E834A06           [111] gettable   12  12  298  ; "STUN"
0BDA  52038002           [112] move       13  5      
0BDE  A2420002           [113] call       10  4   1  
0BE2  A4C2C903           [114] self       10  7   295  ; 1685228074
0BE6  1DC30300           [115] getglobal  12  15       ; Engine
0BEA  0EC34A06           [116] gettable   12  12  299  ; "KNOCKDOWN"
0BEE  52038002           [117] move       13  5      
0BF2  A2420002           [118] call       10  4   1  
0BF6  A4C2C903           [119] self       10  7   295  ; 1685228074
0BFA  1DC30300           [120] getglobal  12  15       ; Engine
0BFE  0E034B06           [121] gettable   12  12  300  ; "RAGDOLL"
0C02  52038002           [122] move       13  5      
0C06  A2420002           [123] call       10  4   1  
0C0A  58420000           [124] test       9       1    ; to [126] if false
0C0E  1A401B80           [125] jmp        110          ; to [236]
0C12  A4424B00           [126] self       10  0   301  ; -1421644046
0C16  12030001           [127] move       12  2      
0C1A  5DC30700           [128] getglobal  13  31       ; EMPTY_SYMBOL
0C1E  93030000           [129] getupval   14  0      
0C22  DD830B00           [130] getglobal  15  46       ; ZERO_ROTATION
0C26  12040000           [131] move       16  0      
0C2A  A2828003           [132] call       10  7   2  
0C2E  12020005           [133] move       8   10     
0C32  1A001980           [134] jmp        101          ; to [236]
0C36  A4824100           [135] self       10  0   262  ; 228661305
0C3A  17038000           [136] loadbool   12  1   0    ; true
0C3E  A2428001           [137] call       10  3   1  
0C42  A4C24100           [138] self       10  0   263  ; 1408791382
0C46  A2820001           [139] call       10  2   2  
0C4A  A4024205           [140] self       10  10  264  ; 1532995569
0C4E  17038000           [141] loadbool   12  1   0    ; true
0C52  A2428001           [142] call       10  3   1  
0C56  A4824203           [143] self       10  6   266  ; 1815503922
0C5A  17038000           [144] loadbool   12  1   0    ; true
0C5E  A2428001           [145] call       10  3   1  
0C62  A4C24200           [146] self       10  0   267  ; 1292478819
0C66  A2820001           [147] call       10  2   2  
0C6A  A4024305           [148] self       10  10  268  ; -1967775551
0C6E  17030000           [149] loadbool   12  0   0    ; false
0C72  A2428001           [150] call       10  3   1  
0C76  A4424300           [151] self       10  0   269  ; -1370444454
0C7A  17038000           [152] loadbool   12  1   0    ; true
0C7E  A2428001           [153] call       10  3   1  
0C82  9D020500           [154] getglobal  10  20       ; 1074689893
0C86  E4424500           [155] self       11  0   277  ; 634817106
0C8A  E2020001           [156] call       11  2   0  
0C8E  A2820000           [157] call       10  0   2  
0C92  98420000           [158] test       10      1    ; to [160] if false
0C96  1A000180           [159] jmp        5            ; to [165]
0C9A  A4424500           [160] self       10  0   277  ; 634817106
0C9E  A2820001           [161] call       10  2   2  
0CA2  A4824505           [162] self       10  10  278  ; 1255771324
0CA6  17038000           [163] loadbool   12  1   0    ; true
0CAA  A2428001           [164] call       10  3   1  
0CAE  A4C24500           [165] self       10  0   279  ; -1201586349
0CB2  A2820001           [166] call       10  2   2  
0CB6  98020000           [167] test       10      0    ; to [169] if true
0CBA  1A800380           [168] jmp        15           ; to [184]
0CBE  A4C24B00           [169] self       10  0   303  ; 1265388858
0CC2  12038001           [170] move       12  3      
0CC6  A2428001           [171] call       10  3   1  
0CCA  A4024C03           [172] self       10  6   304  ; -233482841
0CCE  1D830600           [173] getglobal  12  26       ; Game
0CD2  0EC34606           [174] gettable   12  12  283  ; "AVATAR_MOVEMENT_SPEED"
0CD6  5D830600           [175] getglobal  13  26       ; Game
0CDA  4E03C706           [176] gettable   13  13  284  ; "SET"
0CDE  99430700           [177] loadk      14  29       ; 0
0CE2  C6030008           [178] loadnil    15  16     
0CE6  5DC40300           [179] getglobal  17  15       ; Engine
0CEA  4E84C708           [180] gettable   17  17  286  ; "DT_ANY"
0CEE  9DC40700           [181] getglobal  18  31       ; EMPTY_SYMBOL
0CF2  D7048000           [182] loadbool   19  1   0    ; true
0CF6  A2420005           [183] call       10  10  1  
0CFA  A4C24200           [184] self       10  0   267  ; 1292478819
0CFE  A2820001           [185] call       10  2   2  
0D02  A4024805           [186] self       10  10  288  ; 780595249
0D06  17030000           [187] loadbool   12  0   0    ; false
0D0A  A2428001           [188] call       10  3   1  
0D0E  A442CC03           [189] self       10  7   305  ; 197552586
0D12  12038002           [190] move       12  5      
0D16  A2428001           [191] call       10  3   1  
0D1A  A482CC03           [192] self       10  7   306  ; 1148524537
0D1E  12038002           [193] move       12  5      
0D22  A2428001           [194] call       10  3   1  
0D26  A4C2CC03           [195] self       10  7   307  ; -2139586155
0D2A  1DC30300           [196] getglobal  12  15       ; Engine
0D2E  0E034A06           [197] gettable   12  12  296  ; "PAIN"
0D32  52038002           [198] move       13  5      
0D36  A2420002           [199] call       10  4   1  
0D3A  A4C2CC03           [200] self       10  7   307  ; -2139586155
0D3E  1DC30300           [201] getglobal  12  15       ; Engine
0D42  0E434A06           [202] gettable   12  12  297  ; "STAGGER"
0D46  52038002           [203] move       13  5      
0D4A  A2420002           [204] call       10  4   1  
0D4E  A4C2CC03           [205] self       10  7   307  ; -2139586155
0D52  1DC30300           [206] getglobal  12  15       ; Engine
0D56  0E834A06           [207] gettable   12  12  298  ; "STUN"
0D5A  52038002           [208] move       13  5      
0D5E  A2420002           [209] call       10  4   1  
0D62  A4C2CC03           [210] self       10  7   307  ; -2139586155
0D66  1DC30300           [211] getglobal  12  15       ; Engine
0D6A  0EC34A06           [212] gettable   12  12  299  ; "KNOCKDOWN"
0D6E  52038002           [213] move       13  5      
0D72  A2420002           [214] call       10  4   1  
0D76  A4C2CC03           [215] self       10  7   307  ; -2139586155
0D7A  1DC30300           [216] getglobal  12  15       ; Engine
0D7E  0E034B06           [217] gettable   12  12  300  ; "RAGDOLL"
0D82  52038002           [218] move       13  5      
0D86  A2420002           [219] call       10  4   1  
0D8A  A4024D03           [220] self       10  6   308  ; 1674984496
0D8E  1DC30300           [221] getglobal  12  15       ; Engine
0D92  0E434D06           [222] gettable   12  12  309  ; "SLOT_10"
0D96  A2828001           [223] call       10  3   2  
0D9A  58420000           [224] test       9       1    ; to [226] if false
0D9E  1A800180           [225] jmp        7            ; to [233]
0DA2  E4424B00           [226] self       11  0   301  ; -1421644046
0DA6  52030002           [227] move       13  4      
0DAA  9DC30700           [228] getglobal  14  31       ; EMPTY_SYMBOL
0DAE  DD830D00           [229] getglobal  15  54       ; ZERO_VECTOR
0DB2  1D840B00           [230] getglobal  16  46       ; ZERO_ROTATION
0DB6  52040005           [231] move       17  10     
0DBA  E2428003           [232] call       11  7   1  
0DBE  DDC20D00           [233] getglobal  11  55       ; 538022378
0DC2  19030900           [234] loadk      12  36       ; 0
0DC6  E2420001           [235] call       11  2   1  
0DCA  DD020500           [236] getglobal  11  20       ; 1074689893
0DCE  12030004           [237] move       12  8      
0DD2  E2820001           [238] call       11  2   2  
0DD6  D8020000           [239] test       11      0    ; to [241] if true
0DDA  1A000080           [240] jmp        1            ; to [242]
0DDE  12020000           [241] move       8   0      
0DE2  1E020001           [242] return     8   2      
0DE6  1E008000           [243] return     0   1      
                         * constants:
0DEA  38                 sizek (56)
0DEB  01                 const type 3
0DEC  1A4B27EC           const [0]: (-332969190)
0DF0  04                 const type 4
0DF1  11                 string size (17)
0DF2  4F50455241544F52+  "OPERATOR"
0DFA  5F4142494C495459+  "_ABILITY"
0E02  00                 "\0"
                         const [1]: "OPERATOR_ABILITY"
0E03  01                 const type 3
0E04  1FD0B58D           const [2]: (-1917464545)
0E08  01                 const type 3
0E09  9B06F6A3           const [3]: (-1544157541)
0E0D  01                 const type 3
0E0E  59AC7869           const [4]: (1769516121)
0E12  01                 const type 3
0E13  8A029BBC           const [5]: (-1130691958)
0E17  01                 const type 3
0E18  3918A10D           const [6]: (228661305)
0E1C  01                 const type 3
0E1D  5673F853           const [7]: (1408791382)
0E21  01                 const type 3
0E22  F1A75F5B           const [8]: (1532995569)
0E26  01                 const type 3
0E27  196EF617           const [9]: (402026009)
0E2B  01                 const type 3
0E2C  3264366C           const [10]: (1815503922)
0E30  01                 const type 3
0E31  63A9094D           const [11]: (1292478819)
0E35  01                 const type 3
0E36  C120B68A           const [12]: (-1967775551)
0E3A  01                 const type 3
0E3B  5AAD50AE           const [13]: (-1370444454)
0E3F  01                 const type 3
0E40  85100EE5           const [14]: (-452063099)
0E44  04                 const type 4
0E45  07                 string size (7)
0E46  456E67696E6500     "Engine\0"
                         const [15]: "Engine"
0E4D  04                 const type 4
0E4E  09                 string size (9)
0E4F  504D5F444F444745+  "PM_DODGE"
0E57  00                 "\0"
                         const [16]: "PM_DODGE"
0E58  01                 const type 3
0E59  EAB0B974           const [17]: (1958326506)
0E5D  01                 const type 3
0E5E  BA706FE0           const [18]: (-529567558)
0E62  04                 const type 4
0E63  05                 string size (5)
0E64  57414C4B00         "WALK\0"
                         const [19]: "WALK"
0E69  01                 const type 3
0E6A  65770E40           const [20]: (1074689893)
0E6E  01                 const type 3
0E6F  528AD625           const [21]: (634817106)
0E73  01                 const type 3
0E74  BC8CD94A           const [22]: (1255771324)
0E78  01                 const type 3
0E79  533F61B8           const [23]: (-1201586349)
0E7D  01                 const type 3
0E7E  F7FD5243           const [24]: (1129512439)
0E82  01                 const type 3
0E83  B9111B3B           const [25]: (991629753)
0E87  04                 const type 4
0E88  05                 string size (5)
0E89  47616D6500         "Game\0"
                         const [26]: "Game"
0E8E  04                 const type 4
0E8F  16                 string size (22)
0E90  4156415441525F4D+  "AVATAR_M"
0E98  4F56454D454E545F+  "OVEMENT_"
0EA0  535045454400       "SPEED\0"
                         const [27]: "AVATAR_MOVEMENT_SPEED"
0EA6  04                 const type 4
0EA7  04                 string size (4)
0EA8  53455400           "SET\0"
                         const [28]: "SET"
0EAC  03                 const type 3
0EAD  0000803F           const [29]: (0)
0EB1  04                 const type 4
0EB2  07                 string size (7)
0EB3  44545F414E5900     "DT_ANY\0"
                         const [30]: "DT_ANY"
0EBA  04                 const type 4
0EBB  0D                 string size (13)
0EBC  454D5054595F5359+  "EMPTY_SY"
0EC4  4D424F4C00         "MBOL\0"
                         const [31]: "EMPTY_SYMBOL"
0EC9  01                 const type 3
0ECA  31F0862E           const [32]: (780595249)
0ECE  01                 const type 3
0ECF  F0CF3730           const [33]: (808964080)
0ED3  04                 const type 4
0ED4  09                 string size (9)
0ED5  414E595F50415254+  "ANY_PART"
0EDD  00                 "\0"
                         const [34]: "ANY_PART"
0EDE  04                 const type 4
0EDF  09                 string size (9)
0EE0  4448545F4E4F4E45+  "DHT_NONE"
0EE8  00                 "\0"
                         const [35]: "DHT_NONE"
0EE9  03                 const type 3
0EEA  00000000           const [36]: (0)
0EEE  01                 const type 3
0EEF  95A60801           const [37]: (17344149)
0EF3  01                 const type 3
0EF4  33CCEA80           const [38]: (-2132095949)
0EF8  01                 const type 3
0EF9  2A8A7264           const [39]: (1685228074)
0EFD  04                 const type 4
0EFE  05                 string size (5)
0EFF  5041494E00         "PAIN\0"
                         const [40]: "PAIN"
0F04  04                 const type 4
0F05  08                 string size (8)
0F06  5354414747455200   "STAGGER\0"
                         const [41]: "STAGGER"
0F0E  04                 const type 4
0F0F  05                 string size (5)
0F10  5354554E00         "STUN\0"
                         const [42]: "STUN"
0F15  04                 const type 4
0F16  0A                 string size (10)
0F17  4B4E4F434B444F57+  "KNOCKDOW"
0F1F  4E00               "N\0"
                         const [43]: "KNOCKDOWN"
0F21  04                 const type 4
0F22  08                 string size (8)
0F23  524147444F4C4C00   "RAGDOLL\0"
                         const [44]: "RAGDOLL"
0F2B  01                 const type 3
0F2C  F26E43AB           const [45]: (-1421644046)
0F30  04                 const type 4
0F31  0E                 string size (14)
0F32  5A45524F5F524F54+  "ZERO_ROT"
0F3A  4154494F4E00       "ATION\0"
                         const [46]: "ZERO_ROTATION"
0F40  01                 const type 3
0F41  3A4D6C4B           const [47]: (1265388858)
0F45  01                 const type 3
0F46  A75515F2           const [48]: (-233482841)
0F4A  01                 const type 3
0F4B  CA69C60B           const [49]: (197552586)
0F4F  01                 const type 3
0F50  F9177544           const [50]: (1148524537)
0F54  01                 const type 3
0F55  95817880           const [51]: (-2139586155)
0F59  01                 const type 3
0F5A  303CD663           const [52]: (1674984496)
0F5E  04                 const type 4
0F5F  08                 string size (8)
0F60  534C4F545F313000   "SLOT_10\0"
                         const [53]: "SLOT_10"
0F68  04                 const type 4
0F69  0C                 string size (12)
0F6A  5A45524F5F564543+  "ZERO_VEC"
0F72  544F5200           "TOR\0"
                         const [54]: "ZERO_VECTOR"
0F76  01                 const type 3
0F77  EA911120           const [55]: (538022378)
                         * functions:
0F7B  00                 sizep (0)
                         * lines:
0F7D  01                 sizelineinfo (243)
                         [pc] (line)
0F7E  1A                 [001] (26)
0F7F  00                 [002] (26)
0F80  00                 [003] (26)
0F81  00                 [004] (28)
0F82  1A                 [005] (28)
0F83  00                 [006] (29)
0F84  00                 [007] (29)
0F85  00                 [008] (30)
0F86  1A                 [009] (32)
0F87  00                 [010] (32)
0F88  00                 [011] (32)
0F89  00                 [012] (32)
0F8A  1C                 [013] (34)
0F8B  00                 [014] (34)
0F8C  00                 [015] (35)
0F8D  00                 [016] (35)
0F8E  1C                 [017] (35)
0F8F  00                 [018] (36)
0F90  00                 [019] (36)
0F91  00                 [020] (36)
0F92  1D                 [021] (36)
0F93  00                 [022] (36)
0F94  00                 [023] (37)
0F95  00                 [024] (37)
0F96  1D                 [025] (38)
0F97  00                 [026] (38)
0F98  00                 [027] (38)
0F99  00                 [028] (39)
0F9A  1E                 [029] (39)
0F9B  00                 [030] (39)
0F9C  00                 [031] (39)
0F9D  00                 [032] (39)
0F9E  20                 [033] (40)
0F9F  00                 [034] (40)
0FA0  00                 [035] (40)
0FA1  00                 [036] (41)
0FA2  20                 [037] (41)
0FA3  00                 [038] (41)
0FA4  00                 [039] (41)
0FA5  00                 [040] (41)
0FA6  20                 [041] (42)
0FA7  00                 [042] (42)
0FA8  00                 [043] (42)
0FA9  00                 [044] (42)
0FAA  20                 [045] (43)
0FAB  00                 [046] (43)
0FAC  00                 [047] (43)
0FAD  00                 [048] (43)
0FAE  22                 [049] (45)
0FAF  00                 [050] (45)
0FB0  00                 [051] (45)
0FB1  00                 [052] (45)
0FB2  22                 [053] (45)
0FB3  00                 [054] (45)
0FB4  00                 [055] (46)
0FB5  00                 [056] (46)
0FB6  23                 [057] (46)
0FB7  00                 [058] (46)
0FB8  00                 [059] (46)
0FB9  00                 [060] (49)
0FBA  23                 [061] (49)
0FBB  00                 [062] (49)
0FBC  00                 [063] (49)
0FBD  00                 [064] (50)
0FBE  23                 [065] (50)
0FBF  00                 [066] (50)
0FC0  00                 [067] (51)
0FC1  00                 [068] (51)
0FC2  24                 [069] (51)
0FC3  00                 [070] (51)
0FC4  00                 [071] (51)
0FC5  00                 [072] (51)
0FC6  24                 [073] (51)
0FC7  00                 [074] (51)
0FC8  00                 [075] (51)
0FC9  00                 [076] (51)
0FCA  24                 [077] (51)
0FCB  00                 [078] (51)
0FCC  00                 [079] (54)
0FCD  00                 [080] (54)
0FCE  24                 [081] (54)
0FCF  00                 [082] (54)
0FD0  00                 [083] (54)
0FD1  00                 [084] (56)
0FD2  24                 [085] (56)
0FD3  00                 [086] (56)
0FD4  00                 [087] (56)
0FD5  00                 [088] (56)
0FD6  25                 [089] (56)
0FD7  00                 [090] (56)
0FD8  00                 [091] (56)
0FD9  00                 [092] (56)
0FDA  25                 [093] (56)
0FDB  00                 [094] (57)
0FDC  00                 [095] (57)
0FDD  00                 [096] (57)
0FDE  26                 [097] (58)
0FDF  00                 [098] (58)
0FE0  00                 [099] (60)
0FE1  00                 [100] (60)
0FE2  26                 [101] (60)
0FE3  00                 [102] (60)
0FE4  00                 [103] (60)
0FE5  00                 [104] (61)
0FE6  26                 [105] (61)
0FE7  00                 [106] (61)
0FE8  00                 [107] (61)
0FE9  00                 [108] (61)
0FEA  27                 [109] (62)
0FEB  00                 [110] (62)
0FEC  00                 [111] (62)
0FED  00                 [112] (62)
0FEE  27                 [113] (62)
0FEF  00                 [114] (63)
0FF0  00                 [115] (63)
0FF1  00                 [116] (63)
0FF2  27                 [117] (63)
0FF3  00                 [118] (63)
0FF4  00                 [119] (64)
0FF5  00                 [120] (64)
0FF6  27                 [121] (64)
0FF7  00                 [122] (64)
0FF8  00                 [123] (64)
0FF9  00                 [124] (66)
0FFA  27                 [125] (66)
0FFB  00                 [126] (67)
0FFC  00                 [127] (67)
0FFD  00                 [128] (67)
0FFE  28                 [129] (67)
0FFF  00                 [130] (67)
1000  00                 [131] (67)
1001  00                 [132] (67)
1002  28                 [133] (67)
1003  00                 [134] (68)
1004  00                 [135] (70)
1005  00                 [136] (70)
1006  28                 [137] (70)
1007  00                 [138] (71)
1008  00                 [139] (71)
1009  00                 [140] (71)
100A  29                 [141] (71)
100B  00                 [142] (71)
100C  00                 [143] (72)
100D  00                 [144] (72)
100E  29                 [145] (72)
100F  00                 [146] (73)
1010  00                 [147] (73)
1011  00                 [148] (73)
1012  29                 [149] (73)
1013  00                 [150] (73)
1014  00                 [151] (74)
1015  00                 [152] (74)
1016  29                 [153] (74)
1017  00                 [154] (76)
1018  00                 [155] (76)
1019  00                 [156] (76)
101A  29                 [157] (76)
101B  00                 [158] (76)
101C  00                 [159] (76)
101D  00                 [160] (77)
101E  2A                 [161] (77)
101F  00                 [162] (77)
1020  00                 [163] (77)
1021  00                 [164] (77)
1022  2A                 [165] (80)
1023  00                 [166] (80)
1024  00                 [167] (80)
1025  00                 [168] (80)
1026  2A                 [169] (81)
1027  00                 [170] (81)
1028  00                 [171] (81)
1029  00                 [172] (82)
102A  2A                 [173] (82)
102B  00                 [174] (82)
102C  00                 [175] (82)
102D  00                 [176] (82)
102E  2B                 [177] (82)
102F  00                 [178] (82)
1030  00                 [179] (82)
1031  00                 [180] (82)
1032  2B                 [181] (82)
1033  00                 [182] (82)
1034  00                 [183] (82)
1035  00                 [184] (85)
1036  2B                 [185] (85)
1037  00                 [186] (85)
1038  00                 [187] (85)
1039  00                 [188] (85)
103A  2B                 [189] (87)
103B  00                 [190] (87)
103C  00                 [191] (87)
103D  00                 [192] (88)
103E  2D                 [193] (88)
103F  00                 [194] (88)
1040  00                 [195] (90)
1041  00                 [196] (90)
1042  2D                 [197] (90)
1043  00                 [198] (90)
1044  00                 [199] (90)
1045  00                 [200] (91)
1046  2D                 [201] (91)
1047  00                 [202] (91)
1048  00                 [203] (91)
1049  00                 [204] (91)
104A  2D                 [205] (92)
104B  00                 [206] (92)
104C  00                 [207] (92)
104D  00                 [208] (92)
104E  2D                 [209] (92)
104F  00                 [210] (93)
1050  00                 [211] (93)
1051  00                 [212] (93)
1052  2D                 [213] (93)
1053  00                 [214] (93)
1054  00                 [215] (94)
1055  00                 [216] (94)
1056  2E                 [217] (94)
1057  00                 [218] (94)
1058  00                 [219] (94)
1059  00                 [220] (96)
105A  2E                 [221] (96)
105B  00                 [222] (96)
105C  00                 [223] (96)
105D  00                 [224] (98)
105E  2E                 [225] (98)
105F  00                 [226] (99)
1060  00                 [227] (99)
1061  00                 [228] (99)
1062  2E                 [229] (99)
1063  00                 [230] (99)
1064  00                 [231] (99)
1065  00                 [232] (99)
1066  2E                 [233] (102)
1067  00                 [234] (102)
1068  00                 [235] (102)
1069  00                 [236] (104)
106A  31                 [237] (104)
106B  00                 [238] (104)
106C  00                 [239] (104)
106D  00                 [240] (104)
106E  31                 [241] (105)
106F  00                 [242] (107)
1070  00                 [243] (108)
                         * locals:
134A  00                 sizelocvars (0)
                         * upvalues:
134B  00                 sizeupvalues (0)
                         ** end of function **

                         
134C                     ** function [1] definition (level 2)
                         ** start of function **
134C  00                 string size (0)
                         source name: (none)
134D  6E                 line defined (110)
134E  A0                 last line defined (160)
134F  01                 nups (2)
1350  02                 numparams (3)
1351  03                 is_vararg (0)
1352  00                 maxstacksize (17)
                         * code:
1354  72                 sizecode (114)
1355  DD000000           [001] getglobal  3   0        ; 1074689893
1359  12010000           [002] move       4   0      
135D  E2800001           [003] call       3   2   2  
1361  D8000000           [004] test       3       0    ; to [6] if true
1365  1AC00080           [005] jmp        4            ; to [10]
1369  DD400000           [006] getglobal  3   1        ; gRegion
136D  E480C001           [007] self       3   3   258  ; 65205951
1371  E2800001           [008] call       3   2   2  
1375  12008001           [009] move       0   3      
1379  DD000000           [010] getglobal  3   0        ; 1074689893
137D  12010000           [011] move       4   0      
1381  E2800001           [012] call       3   2   2  
1385  D8400000           [013] test       3       1    ; to [15] if false
1389  1A801880           [014] jmp        99           ; to [114]
138D  E4C04000           [015] self       3   0   259  ; -1917464545
1391  E2800001           [016] call       3   2   2  
1395  1D410000           [017] getglobal  4   1        ; gRegion
1399  24014102           [018] self       4   4   260  ; -1520831144
139D  22810001           [019] call       4   2   2  
13A1  18410000           [020] test       4       1    ; to [22] if false
13A5  1AC00180           [021] jmp        8            ; to [30]
13A9  2441C101           [022] self       4   3   261  ; 1769516121
13AD  22810001           [023] call       4   2   2  
13B1  5D010000           [024] getglobal  5   0        ; 1074689893
13B5  92010002           [025] move       6   4      
13B9  62810001           [026] call       5   2   2  
13BD  58410000           [027] test       5       1    ; to [29] if false
13C1  1A000080           [028] jmp        1            ; to [30]
13C5  1E008000           [029] return     0   1      
13C9  52018000           [030] move       5   1      
13CD  9D010000           [031] getglobal  6   0        ; 1074689893
13D1  D2018002           [032] move       7   5      
13D5  A2810001           [033] call       6   2   2  
13D9  98010000           [034] test       6       0    ; to [36] if true
13DD  1A800480           [035] jmp        19           ; to [55]
13E1  9D810100           [036] getglobal  6   6        ; gPlayerProfileMgr
13E5  A4C14103           [037] self       6   6   263  ; 569342746
13E9  19020200           [038] loadk      8   8        ; 0
13ED  A2818001           [039] call       6   3   2  
13F1  DD010000           [040] getglobal  7   0        ; 1074689893
13F5  12020003           [041] move       8   6      
13F9  E2810001           [042] call       7   2   2  
13FD  D8410000           [043] test       7       1    ; to [45] if false
1401  1A400280           [044] jmp        10           ; to [55]
1405  E4414203           [045] self       7   6   265  ; 1699680402
1409  E2810001           [046] call       7   2   2  
140D  1D020000           [047] getglobal  8   0        ; 1074689893
1411  52028003           [048] move       9   7      
1415  22820001           [049] call       8   2   2  
1419  18420000           [050] test       8       1    ; to [52] if false
141D  1A800080           [051] jmp        3            ; to [55]
1421  2482C203           [052] self       8   7   266  ; 51109503
1425  22820001           [053] call       8   2   2  
1429  52010004           [054] move       5   8      
142D  1D020000           [055] getglobal  8   0        ; 1074689893
1431  52028002           [056] move       9   5      
1435  22820001           [057] call       8   2   2  
1439  18420000           [058] test       8       1    ; to [60] if false
143D  1A400D80           [059] jmp        54           ; to [114]
1441  0EC2C202           [060] gettable   8   5   267  ; "mOperatorCustomization"
1445  24024304           [061] self       8   8   268  ; -1010188709
1449  22820001           [062] call       8   2   2  
144D  5D020000           [063] getglobal  9   0        ; 1074689893
1451  92020004           [064] move       10  8      
1455  62820001           [065] call       9   2   2  
1459  58020000           [066] test       9       0    ; to [68] if true
145D  1A000080           [067] jmp        1            ; to [69]
1461  13020000           [068] getupval   8   0      
1465  6442C301           [069] self       9   3   269  ; 1553569510
1469  CE82C302           [070] gettable   11  5   270  ; "mPlayerLevel"
146D  62428001           [071] call       9   3   1  
1471  5D020000           [072] getglobal  9   0        ; 1074689893
1475  92020004           [073] move       10  8      
1479  62820001           [074] call       9   2   2  
147D  58420000           [075] test       9       1    ; to [77] if false
1481  1A000980           [076] jmp        37           ; to [114]
1485  5DC20300           [077] getglobal  9   15       ; -895206725
1489  92020004           [078] move       10  8      
148D  62820001           [079] call       9   2   2  
1491  98000000           [080] test       2       0    ; to [82] if true
1495  1A800080           [081] jmp        3            ; to [85]
1499  9D020400           [082] getglobal  10  16       ; gBackgroundRegion
149D  98420000           [083] test       10      1    ; to [85] if false
14A1  1A000080           [084] jmp        1            ; to [86]
14A5  9D420000           [085] getglobal  10  1        ; gRegion
14A9  E4424405           [086] self       11  10  273  ; -1151016513
14AD  52038004           [087] move       13  9      
14B1  92030000           [088] move       14  0      
14B5  E2820002           [089] call       11  4   2  
14B9  1D030000           [090] getglobal  12  0        ; 1074689893
14BD  52038005           [091] move       13  11     
14C1  22830001           [092] call       12  2   2  
14C5  18430000           [093] test       12      1    ; to [95] if false
14C9  1A800480           [094] jmp        19           ; to [114]
14CD  0EC3C202           [095] gettable   12  5   267  ; "mOperatorCustomization"
14D1  0E834406           [096] gettable   12  12  274  ; "mCustomization"
14D5  53038000           [097] getupval   13  1      
14D9  4EC3C406           [098] gettable   13  13  275  ; -2016270516
14DD  62838000           [099] call       13  1   2  
14E1  58030000           [100] test       13      0    ; to [102] if true
14E5  1A000180           [101] jmp        5            ; to [107]
14E9  64034506           [102] self       13  12  276  ; 67885531
14ED  C6038007           [103] loadnil    15  15     
14F1  1D440500           [104] getglobal  16  21       ; Lotus_Game
14F5  0E844508           [105] gettable   16  16  278  ; "Face"
14F9  62430002           [106] call       13  4   1  
14FD  64C3C505           [107] self       13  11  279  ; -1038992139
1501  D2030006           [108] move       15  12     
1505  62438001           [109] call       13  3   1  
1509  6403C601           [110] self       13  3   280  ; 1479835399
150D  D2038005           [111] move       15  11     
1511  17048000           [112] loadbool   16  1   0    ; true
1515  62430002           [113] call       13  4   1  
1519  1E008000           [114] return     0   1      
                         * constants:
151D  19                 sizek (25)
151E  01                 const type 3
151F  65770E40           const [0]: (1074689893)
1523  04                 const type 4
1524  08                 string size (8)
1525  67526567696F6E00   "gRegion\0"
                         const [1]: "gRegion"
152D  01                 const type 3
152E  BFF6E203           const [2]: (65205951)
1532  01                 const type 3
1533  1FD0B58D           const [3]: (-1917464545)
1537  01                 const type 3
1538  58F559A5           const [4]: (-1520831144)
153C  01                 const type 3
153D  59AC7869           const [5]: (1769516121)
1541  04                 const type 4
1542  12                 string size (18)
1543  67506C6179657250+  "gPlayerP"
154B  726F66696C654D67+  "rofileMg"
1553  7200               "r\0"
                         const [6]: "gPlayerProfileMgr"
1555  01                 const type 3
1556  1A7BEF21           const [7]: (569342746)
155A  03                 const type 3
155B  00000000           const [8]: (0)
155F  01                 const type 3
1560  92104F65           const [9]: (1699680402)
1564  01                 const type 3
1565  7FDE0B03           const [10]: (51109503)
1569  04                 const type 4
156A  17                 string size (23)
156B  6D4F70657261746F+  "mOperato"
1573  72437573746F6D69+  "rCustomi"
157B  7A6174696F6E00     "zation\0"
                         const [11]: "mOperatorCustomization"
1582  01                 const type 3
1583  5BBEC9C3           const [12]: (-1010188709)
1587  01                 const type 3
1588  E696995C           const [13]: (1553569510)
158C  04                 const type 4
158D  0D                 string size (13)
158E  6D506C617965724C+  "mPlayerL"
1596  6576656C00         "evel\0"
                         const [14]: "mPlayerLevel"
159B  01                 const type 3
159C  BB3AA4CA           const [15]: (-895206725)
15A0  04                 const type 4
15A1  12                 string size (18)
15A2  674261636B67726F+  "gBackgro"
15AA  756E64526567696F+  "undRegio"
15B2  6E00               "n\0"
                         const [16]: "gBackgroundRegion"
15B4  01                 const type 3
15B5  BFE164BB           const [17]: (-1151016513)
15B9  04                 const type 4
15BA  0F                 string size (15)
15BB  6D437573746F6D69+  "mCustomi"
15C3  7A6174696F6E00     "zation\0"
                         const [18]: "mCustomization"
15CA  01                 const type 3
15CB  4C27D287           const [19]: (-2016270516)
15CF  01                 const type 3
15D0  DBD90B04           const [20]: (67885531)
15D4  04                 const type 4
15D5  0B                 string size (11)
15D6  4C6F7475735F4761+  "Lotus_Ga"
15DE  6D6500             "me\0"
                         const [21]: "Lotus_Game"
15E1  04                 const type 4
15E2  05                 string size (5)
15E3  4661636500         "Face\0"
                         const [22]: "Face"
15E8  01                 const type 3
15E9  F53C12C2           const [23]: (-1038992139)
15ED  01                 const type 3
15EE  077F3458           const [24]: (1479835399)
                         * functions:
15F2  00                 sizep (0)
                         * lines:
15F3  72                 sizelineinfo (114)
                         [pc] (line)
15F4  6F                 [001] (111)
15F5  00                 [002] (111)
15F6  00                 [003] (111)
15F7  00                 [004] (111)
15F8  6F                 [005] (111)
15F9  00                 [006] (112)
15FA  00                 [007] (112)
15FB  00                 [008] (112)
15FC  6F                 [009] (112)
15FD  00                 [010] (115)
15FE  00                 [011] (115)
15FF  00                 [012] (115)
1600  6F                 [013] (115)
1601  00                 [014] (115)
1602  00                 [015] (116)
1603  00                 [016] (116)
1604  6F                 [017] (117)
1605  00                 [018] (117)
1606  00                 [019] (117)
1607  00                 [020] (117)
1608  70                 [021] (117)
1609  00                 [022] (118)
160A  00                 [023] (118)
160B  00                 [024] (119)
160C  70                 [025] (119)
160D  00                 [026] (119)
160E  00                 [027] (119)
160F  00                 [028] (119)
1610  70                 [029] (120)
1611  00                 [030] (124)
1612  00                 [031] (125)
1613  00                 [032] (125)
1614  70                 [033] (125)
1615  00                 [034] (125)
1616  00                 [035] (125)
1617  00                 [036] (126)
1618  73                 [037] (126)
1619  00                 [038] (126)
161A  00                 [039] (126)
161B  00                 [040] (127)
161C  73                 [041] (127)
161D  00                 [042] (127)
161E  00                 [043] (127)
161F  00                 [044] (127)
1620  73                 [045] (-128)
1621  00                 [046] (-128)
1622  00                 [047] (-127)
1623  00                 [048] (-127)
1624  73                 [049] (-127)
1625  00                 [050] (-127)
1626  00                 [051] (-127)
1627  00                 [052] (-126)
1628  73                 [053] (-126)
1629  00                 [054] (-126)
162A  00                 [055] (-121)
162B  00                 [056] (-121)
162C  74                 [057] (-121)
162D  00                 [058] (-121)
162E  00                 [059] (-121)
162F  00                 [060] (-120)
1630  74                 [061] (-120)
1631  00                 [062] (-120)
1632  00                 [063] (-119)
1633  00                 [064] (-119)
1634  75                 [065] (-119)
1635  00                 [066] (-119)
1636  00                 [067] (-119)
1637  00                 [068] (-118)
1638  75                 [069] (-115)
1639  00                 [070] (-115)
163A  00                 [071] (-115)
163B  00                 [072] (-114)
163C  75                 [073] (-114)
163D  00                 [074] (-114)
163E  00                 [075] (-114)
163F  00                 [076] (-114)
1640  75                 [077] (-113)
1641  00                 [078] (-113)
1642  00                 [079] (-113)
1643  00                 [080] (-112)
1644  75                 [081] (-112)
1645  00                 [082] (-112)
1646  00                 [083] (-112)
1647  00                 [084] (-112)
1648  76                 [085] (-112)
1649  00                 [086] (-111)
164A  00                 [087] (-111)
164B  00                 [088] (-111)
164C  76                 [089] (-111)
164D  00                 [090] (-110)
164E  00                 [091] (-110)
164F  00                 [092] (-110)
1650  77                 [093] (-110)
1651  00                 [094] (-110)
1652  00                 [095] (-109)
1653  00                 [096] (-109)
1654  77                 [097] (-107)
1655  00                 [098] (-107)
1656  00                 [099] (-107)
1657  00                 [100] (-107)
1658  77                 [101] (-107)
1659  00                 [102] (-105)
165A  00                 [103] (-105)
165B  00                 [104] (-105)
165C  77                 [105] (-105)
165D  00                 [106] (-105)
165E  00                 [107] (-102)
165F  00                 [108] (-102)
1660  77                 [109] (-102)
1661  00                 [110] (-101)
1662  00                 [111] (-101)
1663  00                 [112] (-101)
1664  78                 [113] (-101)
1665  00                 [114] (-96)
                         * locals:
17BC  00                 sizelocvars (0)
                         * upvalues:
17BD  00                 sizeupvalues (0)
                         ** end of function **

                         
17BE                     ** function [2] definition (level 2)
                         ** start of function **
17BE  00                 string size (0)
                         source name: (none)
17C0  01                 line defined (162)
17C1  B2                 last line defined (178)
17C2  01                 nups (0)
17C3  00                 numparams (1)
17C4  01                 is_vararg (0)
17C5  00                 maxstacksize (9)
                         * code:
17C7  38                 sizecode (56)
17C8  5D000000           [01] getglobal  1   0        ; 1074689893
17CC  9D400000           [02] getglobal  2   1        ; gPlayerProfileMgr
17D0  A4804001           [03] self       2   2   258  ; 569342746
17D4  19C10000           [04] loadk      4   3        ; 0
17D8  A2008001           [05] call       2   3   0  
17DC  62800000           [06] call       1   0   2  
17E0  58400000           [07] test       1       1    ; to [9] if false
17E4  1A800B80           [08] jmp        47           ; to [56]
17E8  5D400000           [09] getglobal  1   1        ; gPlayerProfileMgr
17EC  6480C000           [10] self       1   1   258  ; 569342746
17F0  D9C00000           [11] loadk      3   3        ; 0
17F4  62808001           [12] call       1   3   2  
17F8  6400C100           [13] self       1   1   260  ; 1699680402
17FC  62800001           [14] call       1   2   2  
1800  6440C100           [15] self       1   1   261  ; 51109503
1804  62800001           [16] call       1   2   2  
1808  4E80C100           [17] gettable   1   1   262  ; "mOperatorCustomization"
180C  A4C0C100           [18] self       2   1   263  ; -1993546849
1810  1D010200           [19] getglobal  4   8        ; Lotus_Game
1814  0E414202           [20] gettable   4   4   265  ; "TennoOperatorCustomization_TOCS_GENERAL_FLAGS"
1818  59810200           [21] loadk      5   10       ; 0
181C  A2800002           [22] call       2   4   2  
1820  E4C0C200           [23] self       3   1   267  ; -856041962
1824  5D010200           [24] getglobal  5   8        ; Lotus_Game
1828  4E41C202           [25] gettable   5   5   265  ; "TennoOperatorCustomization_TOCS_GENERAL_FLAGS"
182C  99810200           [26] loadk      6   10       ; 0
1830  D7010000           [27] loadbool   7   0   0    ; false
1834  E2408002           [28] call       3   5   1  
1838  C6008001           [29] loadnil    3   3      
183C  1D010000           [30] getglobal  4   0        ; 1074689893
1840  52010000           [31] move       5   0      
1844  22810001           [32] call       4   2   2  
1848  18010000           [33] test       4       0    ; to [35] if true
184C  1A000180           [34] jmp        5            ; to [40]
1850  1D010300           [35] getglobal  4   12       ; gRegion
1854  24414302           [36] self       4   4   269  ; 1818765872
1858  22810001           [37] call       4   2   2  
185C  D2000002           [38] move       3   4      
1860  1A000080           [39] jmp        1            ; to [41]
1864  D2000000           [40] move       3   0      
1868  2481C301           [41] self       4   3   270  ; -1917464545
186C  22810001           [42] call       4   2   2  
1870  24C14302           [43] self       4   4   271  ; 1769516121
1874  22810001           [44] call       4   2   2  
1878  24014402           [45] self       4   4   272  ; -1038992139
187C  8E41C400           [46] gettable   6   1   273  ; "mCustomization"
1880  22418001           [47] call       4   3   1  
1884  98000000           [48] test       2       0    ; to [50] if true
1888  1A400180           [49] jmp        6            ; to [56]
188C  24C1C200           [50] self       4   1   267  ; -856041962
1890  9D010200           [51] getglobal  6   8        ; Lotus_Game
1894  8E414203           [52] gettable   6   6   265  ; "TennoOperatorCustomization_TOCS_GENERAL_FLAGS"
1898  D9810200           [53] loadk      7   10       ; 0
189C  12020001           [54] move       8   2      
18A0  22418002           [55] call       4   5   1  
18A4  1E008000           [56] return     0   1      
                         * constants:
18A8  12                 sizek (18)
18A9  01                 const type 3
18AA  65770E40           const [0]: (1074689893)
18AE  04                 const type 4
18AF  12                 string size (18)
18B0  67506C6179657250+  "gPlayerP"
18B8  726F66696C654D67+  "rofileMg"
18C0  7200               "r\0"
                         const [1]: "gPlayerProfileMgr"
18C2  01                 const type 3
18C3  1A7BEF21           const [2]: (569342746)
18C7  03                 const type 3
18C8  00000000           const [3]: (0)
18CC  01                 const type 3
18CD  92104F65           const [4]: (1699680402)
18D1  01                 const type 3
18D2  7FDE0B03           const [5]: (51109503)
18D6  04                 const type 4
18D7  17                 string size (23)
18D8  6D4F70657261746F+  "mOperato"
18E0  72437573746F6D69+  "rCustomi"
18E8  7A6174696F6E00     "zation\0"
                         const [6]: "mOperatorCustomization"
18EF  01                 const type 3
18F0  9FE32C89           const [7]: (-1993546849)
18F4  04                 const type 4
18F5  0B                 string size (11)
18F6  4C6F7475735F4761+  "Lotus_Ga"
18FE  6D6500             "me\0"
                         const [8]: "Lotus_Game"
1901  04                 const type 4
1902  2E                 string size (46)
1903  54656E6E6F4F7065+  "TennoOpe"
190B  7261746F72437573+  "ratorCus"
1913  746F6D697A617469+  "tomizati"
191B  6F6E5F544F43535F+  "on_TOCS_"
1923  47454E4552414C5F+  "GENERAL_"
192B  464C41475300       "FLAGS\0"
                         const [9]: "TennoOperatorCustomization_TOCS_GENERAL_FLAGS"
1931  03                 const type 3
1932  0000803F           const [10]: (0)
1936  01                 const type 3
1937  16D6F9CC           const [11]: (-856041962)
193B  04                 const type 4
193C  08                 string size (8)
193D  67526567696F6E00   "gRegion\0"
                         const [12]: "gRegion"
1945  01                 const type 3
1946  302A686C           const [13]: (1818765872)
194A  01                 const type 3
194B  1FD0B58D           const [14]: (-1917464545)
194F  01                 const type 3
1950  59AC7869           const [15]: (1769516121)
1954  01                 const type 3
1955  F53C12C2           const [16]: (-1038992139)
1959  04                 const type 4
195A  0F                 string size (15)
195B  6D437573746F6D69+  "mCustomi"
1963  7A6174696F6E00     "zation\0"
                         const [17]: "mCustomization"
                         * functions:
196A  00                 sizep (0)
                         * lines:
196B  38                 sizelineinfo (56)
                         [pc] (line)
196C  A3                 [01] (-93)
196D  00                 [02] (-93)
196E  00                 [03] (-93)
196F  00                 [04] (-93)
1970  A3                 [05] (-93)
1971  00                 [06] (-93)
1972  00                 [07] (-93)
1973  00                 [08] (-93)
1974  A3                 [09] (-92)
1975  00                 [10] (-92)
1976  00                 [11] (-92)
1977  00                 [12] (-92)
1978  A3                 [13] (-92)
1979  00                 [14] (-92)
197A  00                 [15] (-92)
197B  00                 [16] (-92)
197C  A3                 [17] (-92)
197D  00                 [18] (-91)
197E  00                 [19] (-91)
197F  00                 [20] (-91)
1980  A3                 [21] (-91)
1981  00                 [22] (-91)
1982  00                 [23] (-90)
1983  00                 [24] (-90)
1984  A3                 [25] (-90)
1985  00                 [26] (-90)
1986  00                 [27] (-90)
1987  00                 [28] (-90)
1988  A3                 [29] (-89)
1989  00                 [30] (-88)
198A  00                 [31] (-88)
198B  00                 [32] (-88)
198C  A4                 [33] (-88)
198D  00                 [34] (-88)
198E  00                 [35] (-87)
198F  00                 [36] (-87)
1990  A4                 [37] (-87)
1991  00                 [38] (-87)
1992  00                 [39] (-87)
1993  00                 [40] (-85)
1994  A4                 [41] (-83)
1995  00                 [42] (-83)
1996  00                 [43] (-83)
1997  00                 [44] (-83)
1998  A4                 [45] (-83)
1999  00                 [46] (-83)
199A  00                 [47] (-83)
199B  00                 [48] (-82)
199C  A4                 [49] (-82)
199D  00                 [50] (-81)
199E  00                 [51] (-81)
199F  00                 [52] (-81)
19A0  A4                 [53] (-81)
19A1  00                 [54] (-81)
19A2  00                 [55] (-81)
19A3  00                 [56] (-78)
                         * locals:
1A4C  00                 sizelocvars (0)
                         * upvalues:
1A4D  00                 sizeupvalues (0)
                         ** end of function **

                         
1A4E                     ** function [3] definition (level 2)
                         ** start of function **
1A4E  00                 string size (0)
                         source name: (none)
1A50  01                 line defined (180)
1A51  D0                 last line defined (208)
1A52  01                 nups (0)
1A53  00                 numparams (1)
1A54  01                 is_vararg (0)
1A55  00                 maxstacksize (13)
                         * code:
1A57  4D                 sizecode (77)
1A58  5D000000           [01] getglobal  1   0        ; 538022378
1A5C  99400000           [02] loadk      2   1        ; -51
1A60  62400001           [03] call       1   2   1  
1A64  64804000           [04] self       1   0   258  ; -1316189862
1A68  62800001           [05] call       1   2   2  
1A6C  9DC00000           [06] getglobal  2   3        ; 1074689893
1A70  D2008000           [07] move       3   1      
1A74  A2800001           [08] call       2   2   2  
1A78  98000000           [09] test       2       0    ; to [11] if true
1A7C  1A000080           [10] jmp        1            ; to [12]
1A80  1E008000           [11] return     0   1      
1A84  A400C100           [12] self       2   1   260  ; -1957065004
1A88  1D410100           [13] getglobal  4   5        ; gLotusOperatorAvatarType
1A8C  A2808001           [14] call       2   3   2  
1A90  98000000           [15] test       2       0    ; to [17] if true
1A94  1AC00180           [16] jmp        8            ; to [25]
1A98  A480C100           [17] self       2   1   262  ; -1921329643
1A9C  A2800001           [18] call       2   2   2  
1AA0  98000000           [19] test       2       0    ; to [21] if true
1AA4  1AC00080           [20] jmp        4            ; to [25]
1AA8  A4C04100           [21] self       2   0   263  ; -857886821
1AAC  A2800001           [22] call       2   2   2  
1AB0  98000000           [23] test       2       0    ; to [25] if true
1AB4  1AC00C80           [24] jmp        52           ; to [77]
1AB8  A4004200           [25] self       2   0   264  ; -1348043987
1ABC  A2800001           [26] call       2   2   2  
1AC0  E440C200           [27] self       3   1   265  ; -1917464545
1AC4  E2800001           [28] call       3   2   2  
1AC8  2481C201           [29] self       4   3   266  ; 1769516121
1ACC  22810001           [30] call       4   2   2  
1AD0  5DC10000           [31] getglobal  5   3        ; 1074689893
1AD4  92010002           [32] move       6   4      
1AD8  62810001           [33] call       5   2   2  
1ADC  58410000           [34] test       5       1    ; to [36] if false
1AE0  1A000A80           [35] jmp        41           ; to [77]
1AE4  64014202           [36] self       5   4   264  ; -1348043987
1AE8  62810001           [37] call       5   2   2  
1AEC  A4C1C202           [38] self       6   5   267  ; -479391803
1AF0  1D020300           [39] getglobal  8   12       ; Lotus_Game
1AF4  0E424304           [40] gettable   8   8   269  ; "Attachments"
1AF8  A2818001           [41] call       6   3   2  
1AFC  E4814303           [42] self       7   6   270  ; 979293742
1B00  5D020300           [43] getglobal  9   12       ; Lotus_Game
1B04  4EC2C304           [44] gettable   9   9   271  ; "EnergyColor"
1B08  E2818001           [45] call       7   3   2  
1B0C  D8010000           [46] test       7       0    ; to [48] if true
1B10  1A400680           [47] jmp        26           ; to [74]
1B14  DD010400           [48] getglobal  7   16       ; -1247440829
1B18  24424403           [49] self       8   6   273  ; -576482948
1B1C  9D020300           [50] getglobal  10  12       ; Lotus_Game
1B20  8EC24305           [51] gettable   10  10  271  ; "EnergyColor"
1B24  22028001           [52] call       8   3   0  
1B28  E2810000           [53] call       7   0   2  
1B2C  CCC14489           [54] settable   7   274 275  ; "alpha" 0
1B30  24C24201           [55] self       8   2   267  ; -479391803
1B34  9D020300           [56] getglobal  10  12       ; Lotus_Game
1B38  8E024505           [57] gettable   10  10  276  ; "PrimaryColors"
1B3C  22828001           [58] call       8   3   2  
1B40  64424504           [59] self       9   8   277  ; -1881992366
1B44  DD020300           [60] getglobal  11  12       ; Lotus_Game
1B48  CEC2C305           [61] gettable   11  11  271  ; "EnergyColor"
1B4C  12038003           [62] move       12  7      
1B50  62420002           [63] call       9   4   1  
1B54  64824504           [64] self       9   8   278  ; -1037856321
1B58  DD020300           [65] getglobal  11  12       ; Lotus_Game
1B5C  CEC2C305           [66] gettable   11  11  271  ; "EnergyColor"
1B60  17038000           [67] loadbool   12  1   0    ; true
1B64  62420002           [68] call       9   4   1  
1B68  64C24501           [69] self       9   2   279  ; -1708889336
1B6C  DD020300           [70] getglobal  11  12       ; Lotus_Game
1B70  CE02C505           [71] gettable   11  11  276  ; "PrimaryColors"
1B74  12030004           [72] move       12  8      
1B78  62420002           [73] call       9   4   1  
1B7C  64024600           [74] self       9   0   280  ; -1038992139
1B80  D2020001           [75] move       11  2      
1B84  62428001           [76] call       9   3   1  
1B88  1E008000           [77] return     0   1      
                         * constants:
1B8C  19                 sizek (25)
1B8D  01                 const type 3
1B8E  EA911120           const [0]: (538022378)
1B92  03                 const type 3
1B93  CDCC4C3E           const [1]: (-51)
1B97  01                 const type 3
1B98  5A898CB1           const [2]: (-1316189862)
1B9C  01                 const type 3
1B9D  65770E40           const [3]: (1074689893)
1BA1  01                 const type 3
1BA2  D48E598B           const [4]: (-1957065004)
1BA6  04                 const type 4
1BA7  19                 string size (25)
1BA8  674C6F7475734F70+  "gLotusOp"
1BB0  657261746F724176+  "eratorAv"
1BB8  6174617254797065+  "atarType"
1BC0  00                 "\0"
                         const [5]: "gLotusOperatorAvatarType"
1BC1  01                 const type 3
1BC2  15D67A8D           const [6]: (-1921329643)
1BC6  01                 const type 3
1BC7  9BAFDDCC           const [7]: (-857886821)
1BCB  01                 const type 3
1BCC  2D7BA6AF           const [8]: (-1348043987)
1BD0  01                 const type 3
1BD1  1FD0B58D           const [9]: (-1917464545)
1BD5  01                 const type 3
1BD6  59AC7869           const [10]: (1769516121)
1BDA  01                 const type 3
1BDB  C50F6DE3           const [11]: (-479391803)
1BDF  04                 const type 4
1BE0  0B                 string size (11)
1BE1  4C6F7475735F4761+  "Lotus_Ga"
1BE9  6D6500             "me\0"
                         const [12]: "Lotus_Game"
1BEC  04                 const type 4
1BED  0C                 string size (12)
1BEE  4174746163686D65+  "Attachme"
1BF6  6E747300           "nts\0"
                         const [13]: "Attachments"
1BFA  01                 const type 3
1BFB  2ED65E3A           const [14]: (979293742)
1BFF  04                 const type 4
1C00  0C                 string size (12)
1C01  456E65726779436F+  "EnergyCo"
1C09  6C6F7200           "lor\0"
                         const [15]: "EnergyColor"
1C0D  01                 const type 3
1C0E  4390A5B5           const [16]: (-1247440829)
1C12  01                 const type 3
1C13  7C91A3DD           const [17]: (-576482948)
1C17  04                 const type 4
1C18  06                 string size (6)
1C19  616C70686100       "alpha\0"
                         const [18]: "alpha"
1C1F  03                 const type 3
1C20  00007F43           const [19]: (0)
1C24  04                 const type 4
1C25  0E                 string size (14)
1C26  5072696D61727943+  "PrimaryC"
1C2E  6F6C6F727300       "olors\0"
                         const [20]: "PrimaryColors"
1C34  01                 const type 3
1C35  5213D38F           const [21]: (-1881992366)
1C39  01                 const type 3
1C3A  BF9123C2           const [22]: (-1037856321)
1C3E  01                 const type 3
1C3F  086B249A           const [23]: (-1708889336)
1C43  01                 const type 3
1C44  F53C12C2           const [24]: (-1038992139)
                         * functions:
1C48  00                 sizep (0)
                         * lines:
1C49  4D                 sizelineinfo (77)
                         [pc] (line)
1C4A  B5                 [01] (-75)
1C4B  00                 [02] (-75)
1C4C  00                 [03] (-75)
1C4D  00                 [04] (-74)
1C4E  B5                 [05] (-74)
1C4F  00                 [06] (-73)
1C50  00                 [07] (-73)
1C51  00                 [08] (-73)
1C52  B5                 [09] (-73)
1C53  00                 [10] (-73)
1C54  00                 [11] (-72)
1C55  00                 [12] (-68)
1C56  B6                 [13] (-68)
1C57  00                 [14] (-68)
1C58  00                 [15] (-68)
1C59  00                 [16] (-68)
1C5A  B6                 [17] (-68)
1C5B  00                 [18] (-68)
1C5C  00                 [19] (-68)
1C5D  00                 [20] (-68)
1C5E  B7                 [21] (-68)
1C5F  00                 [22] (-68)
1C60  00                 [23] (-68)
1C61  00                 [24] (-68)
1C62  B7                 [25] (-67)
1C63  00                 [26] (-67)
1C64  00                 [27] (-64)
1C65  00                 [28] (-64)
1C66  B7                 [29] (-63)
1C67  00                 [30] (-63)
1C68  00                 [31] (-62)
1C69  00                 [32] (-62)
1C6A  B7                 [33] (-62)
1C6B  00                 [34] (-62)
1C6C  00                 [35] (-62)
1C6D  00                 [36] (-61)
1C6E  B7                 [37] (-61)
1C6F  00                 [38] (-60)
1C70  00                 [39] (-60)
1C71  00                 [40] (-60)
1C72  B8                 [41] (-60)
1C73  00                 [42] (-59)
1C74  00                 [43] (-59)
1C75  00                 [44] (-59)
1C76  BC                 [45] (-59)
1C77  00                 [46] (-59)
1C78  00                 [47] (-59)
1C79  00                 [48] (-58)
1C7A  BC                 [49] (-58)
1C7B  00                 [50] (-58)
1C7C  00                 [51] (-58)
1C7D  00                 [52] (-58)
1C7E  BC                 [53] (-58)
1C7F  00                 [54] (-57)
1C80  00                 [55] (-56)
1C81  00                 [56] (-56)
1C82  BC                 [57] (-56)
1C83  00                 [58] (-56)
1C84  00                 [59] (-55)
1C85  00                 [60] (-55)
1C86  BC                 [61] (-55)
1C87  00                 [62] (-55)
1C88  00                 [63] (-55)
1C89  00                 [64] (-54)
1C8A  BC                 [65] (-54)
1C8B  00                 [66] (-54)
1C8C  00                 [67] (-54)
1C8D  00                 [68] (-54)
1C8E  BC                 [69] (-53)
1C8F  00                 [70] (-53)
1C90  00                 [71] (-53)
1C91  00                 [72] (-53)
1C92  BC                 [73] (-53)
1C93  00                 [74] (-51)
1C94  00                 [75] (-51)
1C95  00                 [76] (-51)
1C96  BC                 [77] (-48)
                         * locals:
1D7E  00                 sizelocvars (0)
                         * upvalues:
1D7F  00                 sizeupvalues (0)
                         ** end of function **

                         
1D80                     ** function [4] definition (level 2)
                         ** start of function **
1D80  00                 string size (0)
                         source name: (none)
1D82  01                 line defined (210)
1D83  DD                 last line defined (221)
1D84  01                 nups (0)
1D85  00                 numparams (1)
1D86  01                 is_vararg (0)
1D87  00                 maxstacksize (6)
                         * code:
1D89  1A                 sizecode (26)
1D8A  5D000000           [01] getglobal  1   0        ; 1074689893
1D8E  92000000           [02] move       2   0      
1D92  62800001           [03] call       1   2   2  
1D96  58400000           [04] test       1       1    ; to [6] if false
1D9A  1A400480           [05] jmp        18           ; to [24]
1D9E  64404000           [06] self       1   0   257  ; -1917464545
1DA2  62800001           [07] call       1   2   2  
1DA6  9D000000           [08] getglobal  2   0        ; 1074689893
1DAA  D2008000           [09] move       3   1      
1DAE  A2800001           [10] call       2   2   2  
1DB2  98400000           [11] test       2       1    ; to [13] if false
1DB6  1A800280           [12] jmp        11           ; to [24]
1DBA  A480C000           [13] self       2   1   258  ; -1278728152
1DBE  A2800001           [14] call       2   2   2  
1DC2  DD000000           [15] getglobal  3   0        ; 1074689893
1DC6  12010001           [16] move       4   2      
1DCA  E2800001           [17] call       3   2   2  
1DCE  D8400000           [18] test       3       1    ; to [20] if false
1DD2  1AC00080           [19] jmp        4            ; to [24]
1DD6  E4C04001           [20] self       3   2   259  ; -17951529
1DDA  59010100           [21] loadk      5   4        ; ""
1DDE  C7008001           [22] tailcall   3   3   0  
1DE2  DE000000           [23] return     3   0      
1DE6  C6008001           [24] loadnil    3   3      
1DEA  DE000001           [25] return     3   2      
1DEE  1E008000           [26] return     0   1      
                         * constants:
1DF2  05                 sizek (5)
1DF3  01                 const type 3
1DF4  65770E40           const [0]: (1074689893)
1DF8  01                 const type 3
1DF9  1FD0B58D           const [1]: (-1917464545)
1DFD  01                 const type 3
1DFE  2828C8B3           const [2]: (-1278728152)
1E02  01                 const type 3
1E03  D714EEFE           const [3]: (-17951529)
1E07  04                 const type 4
1E08  01                 string size (0)
                         const [4]: ""
                         * functions:
1E0A  00                 sizep (0)
                         * lines:
1E0B  1A                 sizelineinfo (26)
                         [pc] (line)
1E0C  D3                 [01] (-45)
1E0D  00                 [02] (-45)
1E0E  00                 [03] (-45)
1E0F  00                 [04] (-45)
1E10  D3                 [05] (-45)
1E11  00                 [06] (-44)
1E12  00                 [07] (-44)
1E13  00                 [08] (-43)
1E14  D3                 [09] (-43)
1E15  00                 [10] (-43)
1E16  00                 [11] (-43)
1E17  00                 [12] (-43)
1E18  D3                 [13] (-42)
1E19  00                 [14] (-42)
1E1A  00                 [15] (-41)
1E1B  00                 [16] (-41)
1E1C  D3                 [17] (-41)
1E1D  00                 [18] (-41)
1E1E  00                 [19] (-41)
1E1F  00                 [20] (-40)
1E20  D4                 [21] (-40)
1E21  00                 [22] (-40)
1E22  00                 [23] (-40)
1E23  00                 [24] (-36)
1E24  D4                 [25] (-36)
1E25  00                 [26] (-35)
                         * locals:
1E74  00                 sizelocvars (0)
                         * upvalues:
1E75  00                 sizeupvalues (0)
                         ** end of function **

                         
1E76                     ** function [5] definition (level 2)
                         ** start of function **
1E76  00                 string size (0)
                         source name: (none)
1E78  01                 line defined (223)
1E79  EE                 last line defined (238)
1E7A  01                 nups (0)
1E7B  00                 numparams (3)
1E7C  03                 is_vararg (0)
1E7D  00                 maxstacksize (10)
                         * code:
1E7F  25                 sizecode (37)
1E80  DD000000           [01] getglobal  3   0        ; 1074689893
1E84  12010000           [02] move       4   0      
1E88  E2800001           [03] call       3   2   2  
1E8C  D8400000           [04] test       3       1    ; to [6] if false
1E90  1A000780           [05] jmp        29           ; to [35]
1E94  E4404000           [06] self       3   0   257  ; -1917464545
1E98  E2800001           [07] call       3   2   2  
1E9C  1D010000           [08] getglobal  4   0        ; 1074689893
1EA0  52018001           [09] move       5   3      
1EA4  22810001           [10] call       4   2   2  
1EA8  18410000           [11] test       4       1    ; to [13] if false
1EAC  1A400580           [12] jmp        22           ; to [35]
1EB0  2481C001           [13] self       4   3   258  ; -1278728152
1EB4  22810001           [14] call       4   2   2  
1EB8  5D010000           [15] getglobal  5   0        ; 1074689893
1EBC  92010002           [16] move       6   4      
1EC0  62810001           [17] call       5   2   2  
1EC4  58410000           [18] test       5       1    ; to [20] if false
1EC8  1A800380           [19] jmp        15           ; to [35]
fail op	35
1ECC  23C04001           [20] close      0  
1ED0  1A000180           [21] jmp        5            ; to [27]
1ED4  64014102           [22] self       5   4   260  ; 871807058
1ED8  D2018000           [23] move       7   1      
1EDC  47018001           [24] tailcall   5   3   0  
1EE0  5E010000           [25] return     5   0      
1EE4  1AC00180           [26] jmp        8            ; to [35]
1EE8  5D410100           [27] getglobal  5   5        ; math
1EEC  4E81C102           [28] gettable   5   5   262  ; 1710846250
1EF0  8A010001           [29] len        6   2      
1EF4  E4014102           [30] self       7   4   260  ; 871807058
1EF8  52028000           [31] move       9   1      
1EFC  E2018001           [32] call       7   3   0  
1F00  47010000           [33] tailcall   5   0   0  
1F04  5E010000           [34] return     5   0      
1F08  59C10100           [35] loadk      5   7        ; 0
1F0C  5E010001           [36] return     5   2      
1F10  1E008000           [37] return     0   1      
                         * constants:
1F14  08                 sizek (8)
1F15  01                 const type 3
1F16  65770E40           const [0]: (1074689893)
1F1A  01                 const type 3
1F1B  1FD0B58D           const [1]: (-1917464545)
1F1F  01                 const type 3
1F20  2828C8B3           const [2]: (-1278728152)
1F24  00                 const type 0
                         const [3]: nil
1F25  01                 const type 3
1F26  52B8F633           const [4]: (871807058)
1F2A  04                 const type 4
1F2B  05                 string size (5)
1F2C  6D61746800         "math\0"
                         const [5]: "math"
1F31  01                 const type 3
1F32  2A71F965           const [6]: (1710846250)
1F36  03                 const type 3
1F37  00000000           const [7]: (0)
                         * functions:
1F3B  00                 sizep (0)
                         * lines:
1F3C  25                 sizelineinfo (37)
                         [pc] (line)
1F3D  E0                 [01] (-32)
1F3E  00                 [02] (-32)
1F3F  00                 [03] (-32)
1F40  00                 [04] (-32)
1F41  E0                 [05] (-32)
1F42  00                 [06] (-31)
1F43  00                 [07] (-31)
1F44  00                 [08] (-30)
1F45  E0                 [09] (-30)
1F46  00                 [10] (-30)
1F47  00                 [11] (-30)
1F48  00                 [12] (-30)
1F49  E0                 [13] (-29)
1F4A  00                 [14] (-29)
1F4B  00                 [15] (-28)
1F4C  00                 [16] (-28)
1F4D  E0                 [17] (-28)
1F4E  00                 [18] (-28)
1F4F  00                 [19] (-28)
1F50  00                 [20] (-27)
1F51  E1                 [21] (-27)
1F52  00                 [22] (-26)
1F53  00                 [23] (-26)
1F54  00                 [24] (-26)
1F55  E1                 [25] (-26)
1F56  00                 [26] (-26)
1F57  00                 [27] (-24)
1F58  00                 [28] (-24)
1F59  E2                 [29] (-24)
1F5A  00                 [30] (-24)
1F5B  00                 [31] (-24)
1F5C  00                 [32] (-24)
1F5D  E2                 [33] (-24)
1F5E  00                 [34] (-24)
1F5F  00                 [35] (-19)
1F60  00                 [36] (-19)
1F61  E2                 [37] (-18)
                         * locals:
1FD1  00                 sizelocvars (0)
                         * upvalues:
1FD2  00                 sizeupvalues (0)
                         ** end of function **

                         
1FD3                     ** function [6] definition (level 2)
                         ** start of function **
1FD3  00                 string size (0)
                         source name: (none)
1FD5  01                 line defined (248)
1FD6  F8                 last line defined (248)
1FD7  01                 nups (0)
1FD8  00                 numparams (2)
1FD9  02                 is_vararg (0)
1FDA  00                 maxstacksize (5)
                         * code:
1FDC  09                 sizecode (9)
1FDD  9D000000           [1] getglobal  2   0        ; math
1FE1  8E404001           [2] gettable   2   2   257  ; 1710846250
1FE5  D2008000           [3] move       3   1      
1FE9  0E814000           [4] gettable   4   0   258  ; "max"
1FED  A2808001           [5] call       2   3   2  
1FF1  84C04001           [6] mul        2   2   259  ; -51
1FF5  83808081           [7] add        2   259 2    ; -51
1FF9  9E000001           [8] return     2   2      
1FFD  1E008000           [9] return     0   1      
                         * constants:
2001  04                 sizek (4)
2002  04                 const type 4
2003  05                 string size (5)
2004  6D61746800         "math\0"
                         const [0]: "math"
2009  01                 const type 3
200A  2A71F965           const [1]: (1710846250)
200E  04                 const type 4
200F  04                 string size (4)
2010  6D617800           "max\0"
                         const [2]: "max"
2014  03                 const type 3
2015  CDCC4C3D           const [3]: (-51)
                         * functions:
2019  00                 sizep (0)
                         * lines:
201A  09                 sizelineinfo (9)
                         [pc] (line)
201B  F8                 [1] (-8)
201C  00                 [2] (-8)
201D  00                 [3] (-8)
201E  00                 [4] (-8)
201F  F8                 [5] (-8)
2020  00                 [6] (-8)
2021  00                 [7] (-8)
2022  00                 [8] (-8)
2023  F8                 [9] (-8)
                         * locals:
203F  00                 sizelocvars (0)
                         * upvalues:
2040  00                 sizeupvalues (0)
                         ** end of function **

                         
2041                     ** function [7] definition (level 2)
                         ** start of function **
2041  00                 string size (0)
                         source name: (none)
2043  01                 line defined (254)
2044  FE                 last line defined (254)
2045  01                 nups (0)
2046  00                 numparams (2)
2047  02                 is_vararg (0)
2048  00                 maxstacksize (5)
                         * code:
204A  09                 sizecode (9)
204B  9D000000           [1] getglobal  2   0        ; math
204F  8E404001           [2] gettable   2   2   257  ; 1710846250
2053  D2008000           [3] move       3   1      
2057  0E814000           [4] gettable   4   0   258  ; "max"
205B  A2808001           [5] call       2   3   2  
205F  84C04001           [6] mul        2   2   259  ; -51
2063  83808081           [7] add        2   259 2    ; -51
2067  9E000001           [8] return     2   2      
206B  1E008000           [9] return     0   1      
                         * constants:
206F  04                 sizek (4)
2070  04                 const type 4
2071  05                 string size (5)
2072  6D61746800         "math\0"
                         const [0]: "math"
2077  01                 const type 3
2078  2A71F965           const [1]: (1710846250)
207C  04                 const type 4
207D  04                 string size (4)
207E  6D617800           "max\0"
                         const [2]: "max"
2082  03                 const type 3
2083  CDCC4C3D           const [3]: (-51)
                         * functions:
2087  00                 sizep (0)
                         * lines:
2088  09                 sizelineinfo (9)
                         [pc] (line)
2089  FE                 [1] (-2)
208A  00                 [2] (-2)
208B  00                 [3] (-2)
208C  00                 [4] (-2)
208D  FE                 [5] (-2)
208E  00                 [6] (-2)
208F  00                 [7] (-2)
2090  00                 [8] (-2)
2091  FE                 [9] (-2)
                         * locals:
20AD  00                 sizelocvars (0)
                         * upvalues:
20AE  00                 sizeupvalues (0)
                         ** end of function **

                         
20AF                     ** function [8] definition (level 2)
                         ** start of function **
20AF  00                 string size (0)
                         source name: (none)
20B1  02                 line defined (263)
20B2  87                 last line defined (263)
20B3  02                 nups (0)
20B4  00                 numparams (2)
20B5  02                 is_vararg (0)
20B6  00                 maxstacksize (5)
                         * code:
20B8  09                 sizecode (9)
20B9  9D000000           [1] getglobal  2   0        ; math
20BD  8E404001           [2] gettable   2   2   257  ; 1710846250
20C1  D2008000           [3] move       3   1      
20C5  0E814000           [4] gettable   4   0   258  ; "max"
20C9  A2808001           [5] call       2   3   2  
20CD  84C04001           [6] mul        2   2   259  ; 0
20D1  83808081           [7] add        2   259 2    ; 0
20D5  9E000001           [8] return     2   2      
20D9  1E008000           [9] return     0   1      
                         * constants:
20DD  04                 sizek (4)
20DE  04                 const type 4
20DF  05                 string size (5)
20E0  6D61746800         "math\0"
                         const [0]: "math"
20E5  01                 const type 3
20E6  2A71F965           const [1]: (1710846250)
20EA  04                 const type 4
20EB  04                 string size (4)
20EC  6D617800           "max\0"
                         const [2]: "max"
20F0  03                 const type 3
20F1  0000A040           const [3]: (0)
                         * functions:
20F5  00                 sizep (0)
                         * lines:
20F6  09                 sizelineinfo (9)
                         [pc] (line)
20F7  07                 [1] (7)
20F8  01                 [2] (7)
20F9  00                 [3] (7)
20FA  00                 [4] (7)
20FB  07                 [5] (7)
20FC  01                 [6] (7)
20FD  00                 [7] (7)
20FE  00                 [8] (7)
20FF  07                 [9] (7)
                         * locals:
211B  00                 sizelocvars (0)
                         * upvalues:
211C  00                 sizeupvalues (0)
                         ** end of function **

                         
211D                     ** function [9] definition (level 2)
                         ** start of function **
211D  00                 string size (0)
                         source name: (none)
211F  02                 line defined (268)
2120  8C                 last line defined (268)
2121  02                 nups (0)
2122  00                 numparams (2)
2123  02                 is_vararg (0)
2124  00                 maxstacksize (5)
                         * code:
2126  07                 sizecode (7)
2127  9D000000           [1] getglobal  2   0        ; math
212B  8E404001           [2] gettable   2   2   257  ; 1710846250
212F  D2008000           [3] move       3   1      
2133  0E814000           [4] gettable   4   0   258  ; "max"
2137  87008001           [5] tailcall   2   3   0  
213B  9E000000           [6] return     2   0      
213F  1E008000           [7] return     0   1      
                         * constants:
2143  03                 sizek (3)
2144  04                 const type 4
2145  05                 string size (5)
2146  6D61746800         "math\0"
                         const [0]: "math"
214B  01                 const type 3
214C  2A71F965           const [1]: (1710846250)
2150  04                 const type 4
2151  04                 string size (4)
2152  6D617800           "max\0"
                         const [2]: "max"
                         * functions:
2156  00                 sizep (0)
                         * lines:
2157  07                 sizelineinfo (7)
                         [pc] (line)
2158  0C                 [1] (12)
2159  01                 [2] (12)
215A  00                 [3] (12)
215B  00                 [4] (12)
215C  0C                 [5] (12)
215D  01                 [6] (12)
215E  00                 [7] (12)
                         * locals:
2174  00                 sizelocvars (0)
                         * upvalues:
2175  00                 sizeupvalues (0)
                         ** end of function **

                         
2176                     ** function [10] definition (level 2)
                         ** start of function **
2176  00                 string size (0)
                         source name: (none)
2178  02                 line defined (277)
2179  95                 last line defined (277)
217A  02                 nups (0)
217B  00                 numparams (2)
217C  02                 is_vararg (0)
217D  00                 maxstacksize (5)
                         * code:
217F  09                 sizecode (9)
2180  9D000000           [1] getglobal  2   0        ; math
2184  8E404001           [2] gettable   2   2   257  ; 1710846250
2188  D2008000           [3] move       3   1      
218C  0E814000           [4] gettable   4   0   258  ; "max"
2190  A2808001           [5] call       2   3   2  
2194  84C04001           [6] mul        2   2   259  ; -51
2198  83800082           [7] add        2   260 2    ; -51
219C  9E000001           [8] return     2   2      
21A0  1E008000           [9] return     0   1      
                         * constants:
21A4  05                 sizek (5)
21A5  04                 const type 4
21A6  05                 string size (5)
21A7  6D61746800         "math\0"
                         const [0]: "math"
21AC  01                 const type 3
21AD  2A71F965           const [1]: (1710846250)
21B1  04                 const type 4
21B2  04                 string size (4)
21B3  6D617800           "max\0"
                         const [2]: "max"
21B7  03                 const type 3
21B8  CDCC4C3D           const [3]: (-51)
21BC  03                 const type 3
21BD  CDCC4C3E           const [4]: (-51)
                         * functions:
21C1  00                 sizep (0)
                         * lines:
21C2  09                 sizelineinfo (9)
                         [pc] (line)
21C3  15                 [1] (21)
21C4  01                 [2] (21)
21C5  00                 [3] (21)
21C6  00                 [4] (21)
21C7  15                 [5] (21)
21C8  01                 [6] (21)
21C9  00                 [7] (21)
21CA  00                 [8] (21)
21CB  15                 [9] (21)
                         * locals:
21E7  00                 sizelocvars (0)
                         * upvalues:
21E8  00                 sizeupvalues (0)
                         ** end of function **

                         
21E9                     ** function [11] definition (level 2)
                         ** start of function **
21E9  00                 string size (0)
                         source name: (none)
21EB  02                 line defined (278)
21EC  96                 last line defined (278)
21ED  02                 nups (0)
21EE  00                 numparams (2)
21EF  02                 is_vararg (0)
21F0  00                 maxstacksize (5)
                         * code:
21F2  08                 sizecode (8)
21F3  9D000000           [1] getglobal  2   0        ; math
21F7  8E404001           [2] gettable   2   2   257  ; 1710846250
21FB  D2008000           [3] move       3   1      
21FF  0E814000           [4] gettable   4   0   258  ; "max"
2203  A2808001           [5] call       2   3   2  
2207  8D808081           [6] sub        2   259 2    ; 0
220B  9E000001           [7] return     2   2      
220F  1E008000           [8] return     0   1      
                         * constants:
2213  04                 sizek (4)
2214  04                 const type 4
2215  05                 string size (5)
2216  6D61746800         "math\0"
                         const [0]: "math"
221B  01                 const type 3
221C  2A71F965           const [1]: (1710846250)
2220  04                 const type 4
2221  04                 string size (4)
2222  6D617800           "max\0"
                         const [2]: "max"
2226  03                 const type 3
2227  00003041           const [3]: (0)
                         * functions:
222B  00                 sizep (0)
                         * lines:
222C  08                 sizelineinfo (8)
                         [pc] (line)
222D  16                 [1] (22)
222E  01                 [2] (22)
222F  00                 [3] (22)
2230  00                 [4] (22)
2231  16                 [5] (22)
2232  01                 [6] (22)
2233  00                 [7] (22)
2234  00                 [8] (22)
                         * locals:
224D  00                 sizelocvars (0)
                         * upvalues:
224E  00                 sizeupvalues (0)
                         ** end of function **

                         
224F                     ** function [12] definition (level 2)
                         ** start of function **
224F  00                 string size (0)
                         source name: (none)
2251  02                 line defined (284)
2252  9C                 last line defined (284)
2253  02                 nups (0)
2254  00                 numparams (2)
2255  02                 is_vararg (0)
2256  00                 maxstacksize (5)
                         * code:
2258  08                 sizecode (8)
2259  9D000000           [1] getglobal  2   0        ; math
225D  8E404001           [2] gettable   2   2   257  ; 1710846250
2261  D2008000           [3] move       3   1      
2265  0E814000           [4] gettable   4   0   258  ; "max"
2269  A2808001           [5] call       2   3   2  
226D  84C04001           [6] mul        2   2   259  ; -51
2271  9E000001           [7] return     2   2      
2275  1E008000           [8] return     0   1      
                         * constants:
2279  04                 sizek (4)
227A  04                 const type 4
227B  05                 string size (5)
227C  6D61746800         "math\0"
                         const [0]: "math"
2281  01                 const type 3
2282  2A71F965           const [1]: (1710846250)
2286  04                 const type 4
2287  04                 string size (4)
2288  6D617800           "max\0"
                         const [2]: "max"
228C  03                 const type 3
228D  CDCCCC3D           const [3]: (-51)
                         * functions:
2291  00                 sizep (0)
                         * lines:
2292  08                 sizelineinfo (8)
                         [pc] (line)
2293  1C                 [1] (28)
2294  01                 [2] (28)
2295  00                 [3] (28)
2296  00                 [4] (28)
2297  1C                 [5] (28)
2298  01                 [6] (28)
2299  00                 [7] (28)
229A  00                 [8] (28)
                         * locals:
22B3  00                 sizelocvars (0)
                         * upvalues:
22B4  00                 sizeupvalues (0)
                         ** end of function **

                         
22B5                     ** function [13] definition (level 2)
                         ** start of function **
22B5  00                 string size (0)
                         source name: (none)
22B7  02                 line defined (294)
22B8  AF                 last line defined (303)
22B9  02                 nups (0)
22BA  00                 numparams (2)
22BB  02                 is_vararg (0)
22BC  00                 maxstacksize (3)
                         * code:
22BE  0E                 sizecode (14)
fail op	33
22BF  2100C000           [01] tforloop   0       256  ; to [3] if exit
22C3  1AC00080           [02] jmp        4            ; to [7]
22C7  8440C000           [03] mul        2   1   257  ; -51
22CB  83808080           [04] add        2   257 2    ; -51
22CF  9E000001           [05] return     2   2      
22D3  1A800180           [06] jmp        7            ; to [14]
fail op	35
22D7  2380C000           [07] close      0  
22DB  1A800080           [08] jmp        3            ; to [12]
22DF  99C00000           [09] loadk      2   3        ; 51
22E3  9E000001           [10] return     2   2      
22E7  1A400080           [11] jmp        2            ; to [14]
22EB  99000100           [12] loadk      2   4        ; 102
22EF  9E000001           [13] return     2   2      
22F3  1E008000           [14] return     0   1      
                         * constants:
22F7  05                 sizek (5)
22F8  03                 const type 3
22F9  00008040           const [0]: (0)
22FD  03                 const type 3
22FE  CDCC4C3D           const [1]: (-51)
2302  03                 const type 3
2303  0000A040           const [2]: (0)
2307  03                 const type 3
2308  3333B33E           const [3]: (51)
230C  03                 const type 3
230D  6666E63E           const [4]: (102)
                         * functions:
2311  00                 sizep (0)
                         * lines:
2312  0E                 sizelineinfo (14)
                         [pc] (line)
2313  28                 [01] (40)
2314  01                 [02] (40)
2315  00                 [03] (41)
2316  00                 [04] (41)
2317  28                 [05] (41)
2318  01                 [06] (41)
2319  00                 [07] (42)
231A  00                 [08] (42)
231B  29                 [09] (43)
231C  01                 [10] (43)
231D  00                 [11] (43)
231E  00                 [12] (45)
231F  29                 [13] (45)
2320  01                 [14] (47)
                         * locals:
234B  00                 sizelocvars (0)
                         * upvalues:
234C  00                 sizeupvalues (0)
                         ** end of function **

                         
234D                     ** function [14] definition (level 2)
                         ** start of function **
234D  00                 string size (0)
                         source name: (none)
234F  02                 line defined (310)
2350  B6                 last line defined (310)
2351  02                 nups (0)
2352  00                 numparams (2)
2353  02                 is_vararg (0)
2354  00                 maxstacksize (5)
                         * code:
2356  09                 sizecode (9)
2357  9D000000           [1] getglobal  2   0        ; math
235B  8E404001           [2] gettable   2   2   257  ; 1710846250
235F  D2008000           [3] move       3   1      
2363  0E814000           [4] gettable   4   0   258  ; "max"
2367  A2808001           [5] call       2   3   2  
236B  84C04001           [6] mul        2   2   259  ; 0
236F  8D800082           [7] sub        2   260 2    ; 0
2373  9E000001           [8] return     2   2      
2377  1E008000           [9] return     0   1      
                         * constants:
237B  05                 sizek (5)
237C  04                 const type 4
237D  05                 string size (5)
237E  6D61746800         "math\0"
                         const [0]: "math"
2383  01                 const type 3
2384  2A71F965           const [1]: (1710846250)
2388  04                 const type 4
2389  04                 string size (4)
238A  6D617800           "max\0"
                         const [2]: "max"
238E  03                 const type 3
238F  0000A040           const [3]: (0)
2393  03                 const type 3
2394  0000C841           const [4]: (0)
                         * functions:
2398  00                 sizep (0)
                         * lines:
2399  09                 sizelineinfo (9)
                         [pc] (line)
239A  36                 [1] (54)
239B  01                 [2] (54)
239C  00                 [3] (54)
239D  00                 [4] (54)
239E  36                 [5] (54)
239F  01                 [6] (54)
23A0  00                 [7] (54)
23A1  00                 [8] (54)
23A2  36                 [9] (54)
                         * locals:
23BE  00                 sizelocvars (0)
                         * upvalues:
23BF  00                 sizeupvalues (0)
                         ** end of function **

                         
23C0                     ** function [15] definition (level 2)
                         ** start of function **
23C0  00                 string size (0)
                         source name: (none)
23C2  02                 line defined (319)
23C3  CA                 last line defined (330)
23C4  02                 nups (0)
23C5  00                 numparams (2)
23C6  02                 is_vararg (0)
23C7  00                 maxstacksize (3)
                         * code:
23C9  13                 sizecode (19)
fail op	33
23CA  2100C000           [01] tforloop   0       256  ; to [3] if exit
23CE  1AC00080           [02] jmp        4            ; to [7]
23D2  8440C000           [03] mul        2   1   257  ; -51
23D6  8D804001           [04] sub        2   2   258  ; -51
23DA  9E000001           [05] return     2   2      
23DE  1AC00280           [06] jmp        12           ; to [19]
fail op	35
23E2  23C0C000           [07] close      0  
23E6  1A800080           [08] jmp        3            ; to [12]
23EA  99000100           [09] loadk      2   4        ; 0
23EE  9E000001           [10] return     2   2      
23F2  1A800180           [11] jmp        7            ; to [19]
fail op	35
23F6  2340C100           [12] close      0  
23FA  1A800080           [13] jmp        3            ; to [17]
23FE  99800100           [14] loadk      2   6        ; 0
2402  9E000001           [15] return     2   2      
2406  1A400080           [16] jmp        2            ; to [19]
240A  99C00100           [17] loadk      2   7        ; 0
240E  9E000001           [18] return     2   2      
2412  1E008000           [19] return     0   1      
                         * constants:
2416  08                 sizek (8)
2417  03                 const type 3
2418  00004040           const [0]: (0)
241C  03                 const type 3
241D  CDCCCC3D           const [1]: (-51)
2421  03                 const type 3
2422  CDCC4C3D           const [2]: (-51)
2426  03                 const type 3
2427  00008040           const [3]: (0)
242B  03                 const type 3
242C  0000003F           const [4]: (0)
2430  03                 const type 3
2431  0000A040           const [5]: (0)
2435  03                 const type 3
2436  0000403F           const [6]: (0)
243A  03                 const type 3
243B  0000803F           const [7]: (0)
                         * functions:
243F  00                 sizep (0)
                         * lines:
2440  13                 sizelineinfo (19)
                         [pc] (line)
2441  41                 [01] (65)
2442  01                 [02] (65)
2443  00                 [03] (66)
2444  00                 [04] (66)
2445  41                 [05] (66)
2446  01                 [06] (66)
2447  00                 [07] (67)
2448  00                 [08] (67)
2449  42                 [09] (68)
244A  01                 [10] (68)
244B  00                 [11] (68)
244C  00                 [12] (69)
244D  42                 [13] (69)
244E  01                 [14] (70)
244F  00                 [15] (70)
2450  00                 [16] (70)
2451  42                 [17] (72)
2452  01                 [18] (72)
2453  00                 [19] (74)
                         * locals:
248D  00                 sizelocvars (0)
                         * upvalues:
248E  00                 sizeupvalues (0)
                         ** end of function **

                         
248F                     ** function [16] definition (level 2)
                         ** start of function **
248F  00                 string size (0)
                         source name: (none)
2491  02                 line defined (336)
2492  D7                 last line defined (343)
2493  02                 nups (0)
2494  00                 numparams (2)
2495  02                 is_vararg (0)
2496  00                 maxstacksize (3)
                         * code:
2498  09                 sizecode (9)
fail op	33
2499  2100C000           [1] tforloop   0       256  ; to [3] if exit
249D  1AC00080           [2] jmp        4            ; to [7]
24A1  8440C000           [3] mul        2   1   257  ; 0
24A5  83808080           [4] add        2   257 2    ; 0
24A9  9E000001           [5] return     2   2      
24AD  1A400080           [6] jmp        2            ; to [9]
24B1  99800000           [7] loadk      2   2        ; 0
24B5  9E000001           [8] return     2   2      
24B9  1E008000           [9] return     0   1      
                         * constants:
24BD  03                 sizek (3)
24BE  03                 const type 3
24BF  00004040           const [0]: (0)
24C3  03                 const type 3
24C4  00002041           const [1]: (0)
24C8  03                 const type 3
24C9  00007042           const [2]: (0)
                         * functions:
24CD  00                 sizep (0)
                         * lines:
24CE  09                 sizelineinfo (9)
                         [pc] (line)
24CF  52                 [1] (82)
24D0  01                 [2] (82)
24D1  00                 [3] (83)
24D2  00                 [4] (83)
24D3  52                 [5] (83)
24D4  01                 [6] (83)
24D5  00                 [7] (85)
24D6  00                 [8] (85)
24D7  53                 [9] (87)
                         * locals:
24F3  00                 sizelocvars (0)
                         * upvalues:
24F4  00                 sizeupvalues (0)
                         ** end of function **

                         
24F5                     ** function [17] definition (level 2)
                         ** start of function **
24F5  00                 string size (0)
                         source name: (none)
24F7  02                 line defined (347)
24F8  A0                 last line defined (544)
24F9  04                 nups (5)
24FA  05                 numparams (1)
24FB  01                 is_vararg (0)
24FC  00                 maxstacksize (66)
                         * code:
24FF  03                 sizecode (455)
2500  5D000000           [001] getglobal  1   0        ; gRegion
2504  6440C000           [002] self       1   1   257  ; -1520831144
2508  62800001           [003] call       1   2   2  
250C  58400000           [004] test       1       1    ; to [6] if false
2510  1A000080           [005] jmp        1            ; to [7]
2514  1E008000           [006] return     0   1      
2518  5D800000           [007] getglobal  1   2        ; 1074689893
251C  9DC00000           [008] getglobal  2   3        ; gGameRules
2520  62800001           [009] call       1   2   2  
2524  58400000           [010] test       1       1    ; to [12] if false
2528  1A000580           [011] jmp        21           ; to [33]
252C  5DC00000           [012] getglobal  1   3        ; gGameRules
2530  6400C100           [013] self       1   1   260  ; -1957065004
2534  DD400100           [014] getglobal  3   5        ; gLotusAttractModeGameRulesType
2538  62808001           [015] call       1   3   2  
253C  58400000           [016] test       1       1    ; to [18] if false
2540  1A800380           [017] jmp        15           ; to [33]
2544  5DC00000           [018] getglobal  1   3        ; gGameRules
2548  6480C100           [019] self       1   1   262  ; -1201441975
254C  62800001           [020] call       1   2   2  
2550  9D800000           [021] getglobal  2   2        ; 1074689893
2554  D2008000           [022] move       3   1      
2558  A2800001           [023] call       2   2   2  
255C  98400000           [024] test       2       1    ; to [26] if false
2560  1A800180           [025] jmp        7            ; to [33]
2564  8EC0C100           [026] gettable   2   1   263  ; "transferenceDisabled"
2568  98000000           [027] test       2       0    ; to [29] if true
256C  1AC00080           [028] jmp        4            ; to [33]
2570  8E00C200           [029] gettable   2   1   264  ; "spawnAsOperator"
2574  98400000           [030] test       2       1    ; to [32] if false
2578  1A000080           [031] jmp        1            ; to [33]
257C  1E008000           [032] return     0   1      
2580  A4404200           [033] self       2   0   265  ; -1917464545
2584  A2800001           [034] call       2   2   2  
2588  E4804201           [035] self       3   2   266  ; -1278728152
258C  E2800001           [036] call       3   2   2  
2590  1D810000           [037] getglobal  4   2        ; 1074689893
2594  52018001           [038] move       5   3      
2598  22810001           [039] call       4   2   2  
259C  18010000           [040] test       4       0    ; to [42] if true
25A0  1A000080           [041] jmp        1            ; to [43]
25A4  1E008000           [042] return     0   1      
25A8  24C14201           [043] self       4   2   267  ; 1769516121
25AC  22810001           [044] call       4   2   2  
25B0  5D810000           [045] getglobal  5   2        ; 1074689893
25B4  92010002           [046] move       6   4      
25B8  62810001           [047] call       5   2   2  
25BC  58010000           [048] test       5       0    ; to [50] if true
25C0  1A000080           [049] jmp        1            ; to [51]
25C4  1E008000           [050] return     0   1      
25C8  46018002           [051] loadnil    5   5      
25CC  A4014302           [052] self       6   4   268  ; -1928567582
25D0  A2810001           [053] call       6   2   2  
25D4  DD410300           [054] getglobal  7   13       ; 1672515847
25D8  12020003           [055] move       8   6      
25DC  E2010101           [056] call       7   2   4  
25E0  1A400180           [057] jmp        6            ; to [64]
25E4  2483C305           [058] self       12  11  270  ; -478876101
25E8  22830001           [059] call       12  2   2  
25EC  18030000           [060] test       12      0    ; to [62] if true
25F0  1A400080           [061] jmp        2            ; to [64]
25F4  52018005           [062] move       5   11     
25F8  1A400080           [063] jmp        2            ; to [66]
25FC  D6810000           [064] tforloop   7       2    ; to [66] if exit
2600  1AC0FD7F           [065] jmp        -8           ; to [58]
2604  1D830000           [066] getglobal  12  2        ; 1074689893
2608  52038002           [067] move       13  5      
260C  22830001           [068] call       12  2   2  
2610  18030000           [069] test       12      0    ; to [71] if true
2614  1A000080           [070] jmp        1            ; to [72]
2618  1E008000           [071] return     0   1      
261C  24C34300           [072] self       12  0   271  ; -564624675
2620  22830001           [073] call       12  2   2  
2624  5D830000           [074] getglobal  13  2        ; 1074689893
2628  92030006           [075] move       14  12     
262C  62830001           [076] call       13  2   2  
2630  58030000           [077] test       13      0    ; to [79] if true
2634  1A000080           [078] jmp        1            ; to [80]
2638  1E008000           [079] return     0   1      
263C  65030000           [080] closure    13  0      
2640  12008001           [081] move       0   3      
2644  A403C401           [082] self       14  3   272  ; -17951529
2648  19440400           [083] loadk      16  17       ; ""
264C  A2838001           [084] call       14  3   2  
2650  DD830400           [085] getglobal  15  18       ; Lotus_Game
2654  CEC3C407           [086] gettable   15  15  275  ; "AP_ATTACK"
fail op	35
2658  23C00307           [087] close      0  
265C  1A000880           [088] jmp        33           ; to [122]
2660  DD030500           [089] getglobal  15  20       ; 248503575
2664  13040000           [090] getupval   16  0      
2668  E2030101           [091] call       15  2   4  
266C  1A800680           [092] jmp        27           ; to [120]
2670  2445C501           [093] self       20  3   277  ; 871807058
2674  8E85C509           [094] gettable   22  19  278  ; "tag"
2678  22858001           [095] call       20  3   2  
fail op	21
267C  1500858B           [096] concat     0   279 20 
2680  1A400580           [097] jmp        22           ; to [120]
2684  64054601           [098] self       21  2   280  ; 1554076758
2688  CE85C509           [099] gettable   23  19  278  ; "tag"
268C  62858001           [100] call       21  3   2  
2690  58450000           [101] test       21      1    ; to [103] if false
2694  1A000480           [102] jmp        17           ; to [120]
2698  6445C609           [103] self       21  19  281  ; 955459000
269C  D205000A           [104] move       23  20     
26A0  62858001           [105] call       21  3   2  
26A4  A4854601           [106] self       22  2   282  ; 1183180483
26A8  0E86C509           [107] gettable   24  19  278  ; "tag"
26AC  4EC6C609           [108] gettable   25  19  283  ; "upgradeType"
26B0  9D060700           [109] getglobal  26  28       ; Game
26B4  8E46470D           [110] gettable   26  26  285  ; "ADD"
26B8  D206800A           [111] move       27  21     
26BC  A2450003           [112] call       22  6   1  
26C0  A4854701           [113] self       22  2   286  ; 991629753
26C4  0EC6C609           [114] gettable   24  19  283  ; "upgradeType"
26C8  5D060700           [115] getglobal  25  28       ; Game
26CC  4E46C70C           [116] gettable   25  25  285  ; "ADD"
fail op	0
26D0  8006800A           [117] move       26  21     
26D4  DDC60700           [118] getglobal  27  31       ; gPowerSuitType
26D8  A2450003           [119] call       22  6   1  
26DC  D6830000           [120] tforloop   15      2    ; to [122] if exit
26E0  1A80F87F           [121] jmp        -29          ; to [93]
26E4  9D850400           [122] getglobal  22  18       ; Lotus_Game
26E8  8E05480B           [123] gettable   22  22  288  ; "AP_DEFENSE"
fail op	35
26EC  23800507           [124] close      0  
26F0  1A003A80           [125] jmp        233          ; to [359]
26F4  93058000           [126] getupval   22  1      
26F8  8E45480B           [127] gettable   22  22  289  ; "radialXp"
26FC  E445C501           [128] self       23  3   277  ; 871807058
2700  4E86450B           [129] gettable   25  22  278  ; "tag"
2704  E2858001           [130] call       23  3   2  
fail op	21
2708  15C0858B           [131] concat     0   279 23 
270C  1A400380           [132] jmp        14           ; to [147]
2710  24064601           [133] self       24  2   280  ; 1554076758
2714  8E86450B           [134] gettable   26  22  278  ; "tag"
2718  22868001           [135] call       24  3   2  
271C  18460000           [136] test       24      1    ; to [138] if false
2720  1A000280           [137] jmp        9            ; to [147]
2724  24864601           [138] self       24  2   282  ; 1183180483
2728  8E86450B           [139] gettable   26  22  278  ; "tag"
272C  CEC6460B           [140] gettable   27  22  283  ; "upgradeType"
2730  1D070700           [141] getglobal  28  28       ; Game
2734  0E47470E           [142] gettable   28  28  285  ; "ADD"
2738  6447460B           [143] self       29  22  281  ; 955459000
273C  D207800B           [144] move       31  23     
2740  62078001           [145] call       29  3   0  
2744  22460000           [146] call       24  0   1  
2748  13068000           [147] getupval   24  1      
274C  8E85480C           [148] gettable   22  24  290  ; "instantRevive"
2750  2446C501           [149] self       24  3   277  ; 871807058
2754  8E86450B           [150] gettable   26  22  278  ; "tag"
2758  22868001           [151] call       24  3   2  
fail op	21
275C  1500868B           [152] concat     0   279 24 
2760  1A003380           [153] jmp        205          ; to [359]
2764  64C64800           [154] self       25  0   291  ; 1030473313
2768  CE86450B           [155] gettable   27  22  278  ; "tag"
276C  62868001           [156] call       25  3   2  
2770  58460000           [157] test       25      1    ; to [159] if false
2774  1AC03180           [158] jmp        200          ; to [359]
2778  64064100           [159] self       25  0   260  ; -1957065004
277C  DD060900           [160] getglobal  27  36       ; gLotusOperatorAvatarType
2780  62868001           [161] call       25  3   2  
2784  A446460B           [162] self       26  22  281  ; 955459000
2788  1207000C           [163] move       28  24     
278C  A2868001           [164] call       26  3   2  
2790  58460000           [165] test       25      1    ; to [167] if false
2794  1AC00780           [166] jmp        32           ; to [199]
2798  E4464900           [167] self       27  0   293  ; -1764426596
279C  E2860001           [168] call       27  2   2  
27A0  1D870000           [169] getglobal  28  2        ; 1074689893
27A4  5207800D           [170] move       29  27     
27A8  22870001           [171] call       28  2   2  
27AC  18470000           [172] test       28      1    ; to [174] if false
27B0  1A000680           [173] jmp        25           ; to [199]
27B4  2487C90D           [174] self       28  27  294  ; -1888201767
27B8  22870001           [175] call       28  2   2  
27BC  5D870000           [176] getglobal  29  2        ; 1074689893
27C0  9207000E           [177] move       30  28     
27C4  62870001           [178] call       29  2   2  
27C8  58470000           [179] test       29      1    ; to [181] if false
27CC  1A400480           [180] jmp        18           ; to [199]
27D0  64C7490E           [181] self       29  28  295  ; -605089866
27D4  62870001           [182] call       29  2   2  
27D8  9D870000           [183] getglobal  30  2        ; 1074689893
27DC  DD070A00           [184] getglobal  31  40       ; _T
27E0  CE47CA0F           [185] gettable   31  31  297  ; "operatorInstantRevives"
27E4  A2870001           [186] call       30  2   2  
27E8  98470000           [187] test       30      1    ; to [189] if false
27EC  1A400280           [188] jmp        10           ; to [199]
27F0  9D870000           [189] getglobal  30  2        ; 1074689893
27F4  DD070A00           [190] getglobal  31  40       ; _T
27F8  CE47CA0F           [191] gettable   31  31  297  ; "operatorInstantRevives"
27FC  CE47870F           [192] gettable   31  31  29 
2800  A2870001           [193] call       30  2   2  
2804  98470000           [194] test       30      1    ; to [196] if false
2808  1A800080           [195] jmp        3            ; to [199]
280C  9D070A00           [196] getglobal  30  40       ; _T
2810  8E474A0F           [197] gettable   30  30  297  ; "operatorInstantRevives"
2814  8E46070F           [198] gettable   26  30  29 
2818  A4874A00           [199] self       30  0   298  ; 1109618767
281C  0E88450B           [200] gettable   32  22  278  ; "tag"
2820  A2478001           [201] call       30  3   1  
fail op	21
2824  1580868B           [202] concat     0   279 26 
2828  1A802680           [203] jmp        155          ; to [359]
282C  8607000F           [204] loadnil    30  30     
2830  E4474900           [205] self       31  0   293  ; -1764426596
2834  E2870001           [206] call       31  2   2  
2838  1D880000           [207] getglobal  32  2        ; 1074689893
283C  5208800F           [208] move       33  31     
2840  22880001           [209] call       32  2   2  
2844  18080000           [210] test       32      0    ; to [212] if true
2848  1A000080           [211] jmp        1            ; to [213]
284C  1E008000           [212] return     0   1      
2850  24C8CA0F           [213] self       32  31  299  ; 1808941484
2854  22880001           [214] call       32  2   2  
2858  59C80500           [215] loadk      33  23       ; 0
285C  58060000           [216] test       25      0    ; to [218] if true
2860  1A000280           [217] jmp        9            ; to [227]
2864  A4C84900           [218] self       34  0   295  ; -605089866
2868  A2880001           [219] call       34  2   2  
286C  52080011           [220] move       33  34     
2870  A408CB0F           [221] self       34  31  300  ; -1813551355
2874  A2880001           [222] call       34  2   2  
fail op	35
2878  63000011           [223] close      1  
287C  1A800080           [224] jmp        3            ; to [228]
2880  92070011           [225] move       30  34     
2884  1A000080           [226] jmp        1            ; to [228]
2888  52080010           [227] move       33  32     
288C  DD880000           [228] getglobal  35  2        ; 1074689893
2890  1D090A00           [229] getglobal  36  40       ; _T
2894  0E494A12           [230] gettable   36  36  297  ; "operatorInstantRevives"
2898  E2880001           [231] call       35  2   2  
289C  D8080000           [232] test       35      0    ; to [234] if true
28A0  1A800080           [233] jmp        3            ; to [237]
28A4  DD080A00           [234] getglobal  35  40       ; _T
28A8  0B090000           [235] newtable   36  0   0    ; array=0, hash=0
28AC  CC088994           [236] settable   35  297 36   ; "operatorInstantRevives"
28B0  DD880000           [237] getglobal  35  2        ; 1074689893
28B4  1D090A00           [238] getglobal  36  40       ; _T
28B8  0E494A12           [239] gettable   36  36  297  ; "operatorInstantRevives"
28BC  0E490812           [240] gettable   36  36  33 
28C0  E2880001           [241] call       35  2   2  
28C4  D8080000           [242] test       35      0    ; to [244] if true
28C8  1A800080           [243] jmp        3            ; to [247]
28CC  DD080A00           [244] getglobal  35  40       ; _T
28D0  CE48CA11           [245] gettable   35  35  297  ; "operatorInstantRevives"
28D4  CC888610           [246] settable   35  33  26 
28D8  DD880400           [247] getglobal  35  18       ; Lotus_Game
28DC  CE48CB11           [248] gettable   35  35  301  ; -84065502
28E0  E2888000           [249] call       35  1   2  
28E4  1D090A00           [250] getglobal  36  40       ; _T
28E8  0E494A12           [251] gettable   36  36  297  ; "operatorInstantRevives"
28EC  0E490812           [252] gettable   36  36  33 
fail op	21
28F0  1500898B           [253] concat     0   279 36 
28F4  1AC00780           [254] jmp        32           ; to [287]
28F8  CC080097           [255] settable   35  302 0    ; "instigator"
28FC  0B098000           [256] newtable   36  1   0    ; array=1, hash=0
2900  52090000           [257] move       37  0      
2904  1B498000           [258] setlist    36  1   1    ; index 1 to 1
2908  CC088997           [259] settable   35  303 36   ; "affected"
290C  1D890400           [260] getglobal  36  18       ; Lotus_Game
2910  0E494C12           [261] gettable   36  36  305  ; "BT_STACK"
2914  CC080998           [262] settable   35  304 36   ; "buffType"
2918  1D090A00           [263] getglobal  36  40       ; _T
291C  0E494A12           [264] gettable   36  36  297  ; "operatorInstantRevives"
2920  0E490812           [265] gettable   36  36  33 
2924  CC080999           [266] settable   35  306 36   ; "buffData"
2928  1D090D00           [267] getglobal  36  52       ; 738251817
292C  59490D00           [268] loadk      37  53       ; "/Lotus/Upgrades/Focus/Defense/Residual/InstantReviveFocusUpgrade"
2930  22890001           [269] call       36  2   2  
2934  CC088999           [270] settable   35  307 36   ; "abilityType"
2938  24894D00           [271] self       36  0   310  ; 1481577430
293C  92098011           [272] move       38  35     
2940  D7098000           [273] loadbool   39  1   0    ; true
2944  170A8000           [274] loadbool   40  1   0    ; true
2948  22498002           [275] call       36  5   1  
294C  24C94D00           [276] self       36  0   311  ; 195411460
2950  9D090A00           [277] getglobal  38  40       ; _T
2954  8E494A13           [278] gettable   38  38  297  ; "operatorInstantRevives"
2958  8E490813           [279] gettable   38  38  33 
295C  22498001           [280] call       36  3   1  
2960  2409CE02           [281] self       36  5   312  ; -722806278
2964  9D490E00           [282] getglobal  38  57       ; -332969190
2968  D9890E00           [283] loadk      39  58       ; "DefenseInstantRevive"
296C  A2890001           [284] call       38  2   2  
2970  D7098000           [285] loadbool   39  1   0    ; true
2974  22490002           [286] call       36  4   1  
2978  1D890000           [287] getglobal  36  2        ; 1074689893
297C  5209000F           [288] move       37  30     
2980  22890001           [289] call       36  2   2  
2984  18490000           [290] test       36      1    ; to [292] if false
2988  1A801080           [291] jmp        67           ; to [359]
298C  1D090A00           [292] getglobal  36  40       ; _T
2990  0E494A12           [293] gettable   36  36  297  ; "operatorInstantRevives"
2994  18090000           [294] test       36      0    ; to [296] if true
2998  1A800F80           [295] jmp        63           ; to [359]
299C  1D090A00           [296] getglobal  36  40       ; _T
29A0  0E494A12           [297] gettable   36  36  297  ; "operatorInstantRevives"
29A4  0E090812           [298] gettable   36  36  32 
29A8  18090000           [299] test       36      0    ; to [301] if true
29AC  1A400E80           [300] jmp        58           ; to [359]
29B0  1D090A00           [301] getglobal  36  40       ; _T
29B4  0E494A12           [302] gettable   36  36  297  ; "operatorInstantRevives"
29B8  0E090812           [303] gettable   36  36  32 
fail op	21
29BC  1500898B           [304] concat     0   279 36 
29C0  1A000D80           [305] jmp        53           ; to [359]
29C4  1D090A00           [306] getglobal  36  40       ; _T
29C8  0E494A12           [307] gettable   36  36  297  ; "operatorInstantRevives"
29CC  8E060812           [308] gettable   26  36  32 
29D0  1D090A00           [309] getglobal  36  40       ; _T
29D4  0E494A12           [310] gettable   36  36  297  ; "operatorInstantRevives"
29D8  0E090812           [311] gettable   36  36  32 
29DC  CC080999           [312] settable   35  306 36   ; "buffData"
29E0  CC880797           [313] settable   35  302 30   ; "instigator"
29E4  0B098000           [314] newtable   36  1   0    ; array=1, hash=0
29E8  5209000F           [315] move       37  30     
29EC  1B498000           [316] setlist    36  1   1    ; index 1 to 1
29F0  CC088997           [317] settable   35  303 36   ; "affected"
29F4  24894D0F           [318] self       36  30  310  ; 1481577430
29F8  92098011           [319] move       38  35     
29FC  D7098000           [320] loadbool   39  1   0    ; true
2A00  170A8000           [321] loadbool   40  1   0    ; true
2A04  22498002           [322] call       36  5   1  
2A08  24894A0F           [323] self       36  30  298  ; 1109618767
2A0C  8E89450B           [324] gettable   38  22  278  ; "tag"
2A10  22498001           [325] call       36  3   1  
2A14  24C94D0F           [326] self       36  30  311  ; 195411460
2A18  9D090A00           [327] getglobal  38  40       ; _T
2A1C  8E494A13           [328] gettable   38  38  297  ; "operatorInstantRevives"
2A20  8E090813           [329] gettable   38  38  32 
2A24  22498001           [330] call       36  3   1  
2A28  2449420F           [331] self       36  30  265  ; -1917464545
2A2C  22890001           [332] call       36  2   2  
2A30  24C94212           [333] self       36  36  267  ; 1769516121
2A34  22890001           [334] call       36  2   2  
2A38  5D890000           [335] getglobal  37  2        ; 1074689893
2A3C  92090012           [336] move       38  36     
2A40  62890001           [337] call       37  2   2  
2A44  58490000           [338] test       37      1    ; to [340] if false
2A48  1A800480           [339] jmp        19           ; to [359]
2A4C  64094312           [340] self       37  36  268  ; -1928567582
2A50  62890001           [341] call       37  2   2  
2A54  9D490300           [342] getglobal  38  13       ; 1672515847
2A58  D2098012           [343] move       39  37     
2A5C  A2090101           [344] call       38  2   4  
2A60  1A800280           [345] jmp        11           ; to [357]
2A64  E48A4315           [346] self       43  42  270  ; -478876101
2A68  E28A0001           [347] call       43  2   2  
2A6C  D80A0000           [348] test       43      0    ; to [350] if true
2A70  1A800180           [349] jmp        7            ; to [357]
2A74  E40A4E15           [350] self       43  42  312  ; -722806278
2A78  5D4B0E00           [351] getglobal  45  57       ; -332969190
2A7C  998B0E00           [352] loadk      46  58       ; "DefenseInstantRevive"
2A80  628B0001           [353] call       45  2   2  
2A84  970B8000           [354] loadbool   46  1   0    ; true
2A88  E24A0002           [355] call       43  4   1  
2A8C  1A400080           [356] jmp        2            ; to [359]
2A90  96890000           [357] tforloop   38      2    ; to [359] if exit
2A94  1A80FC7F           [358] jmp        -13          ; to [346]
2A98  DD8A0400           [359] getglobal  43  18       ; Lotus_Game
2A9C  CECACE15           [360] gettable   43  43  315  ; "AP_POWER"
fail op	35
2AA0  23C00A07           [361] close      0  
2AA4  1A400880           [362] jmp        34           ; to [397]
2AA8  D30A0001           [363] getupval   43  2      
2AAC  CE0ACF15           [364] gettable   43  43  316  ; "energyOverTime"
2AB0  244BC501           [365] self       44  3   277  ; 871807058
2AB4  8E8BC515           [366] gettable   46  43  278  ; "tag"
2AB8  228B8001           [367] call       44  3   2  
fail op	21
2ABC  15008B8B           [368] concat     0   279 44 
2AC0  1A400180           [369] jmp        6            ; to [376]
2AC4  640BCE02           [370] self       45  5   312  ; -722806278
2AC8  DD4B0E00           [371] getglobal  47  57       ; -332969190
2ACC  194C0F00           [372] loadk      48  61       ; "PowerEnergyPickup"
2AD0  E28B0001           [373] call       47  2   2  
2AD4  170C8000           [374] loadbool   48  1   0    ; true
2AD8  624B0002           [375] call       45  4   1  
2ADC  530B0001           [376] getupval   45  2      
2AE0  CE8ACF16           [377] gettable   43  45  318  ; "channelEfficiency"
2AE4  644BC501           [378] self       45  3   277  ; 871807058
2AE8  CE8BC515           [379] gettable   47  43  278  ; "tag"
2AEC  628B8001           [380] call       45  3   2  
fail op	21
2AF0  15408B8B           [381] concat     0   279 45 
2AF4  1A400380           [382] jmp        14           ; to [397]
2AF8  A40B4601           [383] self       46  2   280  ; 1554076758
2AFC  0E8CC515           [384] gettable   48  43  278  ; "tag"
2B00  A28B8001           [385] call       46  3   2  
2B04  984B0000           [386] test       46      1    ; to [388] if false
2B08  1A000280           [387] jmp        9            ; to [397]
2B0C  A48B4601           [388] self       46  2   282  ; 1183180483
2B10  0E8CC515           [389] gettable   48  43  278  ; "tag"
2B14  4ECCC615           [390] gettable   49  43  283  ; "upgradeType"
2B18  9D0C0700           [391] getglobal  50  28       ; Game
2B1C  8ECC4F19           [392] gettable   50  50  319  ; "STACKING_MULTIPLY"
2B20  E44CC615           [393] self       51  43  281  ; 955459000
2B24  520D8016           [394] move       53  45     
2B28  E20C8001           [395] call       51  3   0  
2B2C  A24B0000           [396] call       46  0   1  
2B30  9D8B0400           [397] getglobal  46  18       ; Lotus_Game
2B34  8E0B5017           [398] gettable   46  46  320  ; "AP_TACTIC"
fail op	35
2B38  23800B07           [399] close      0  
2B3C  1A000680           [400] jmp        25           ; to [426]
2B40  9D0B0500           [401] getglobal  46  20       ; 248503575
2B44  D30B8001           [402] getupval   47  3      
2B48  A20B0101           [403] call       46  2   4  
2B4C  1A800480           [404] jmp        19           ; to [424]
2B50  E44CC501           [405] self       51  3   277  ; 871807058
2B54  4E8D4519           [406] gettable   53  50  278  ; "tag"
2B58  E28C8001           [407] call       51  3   2  
fail op	21
2B5C  15C08C8B           [408] concat     0   279 51 
2B60  1A400380           [409] jmp        14           ; to [424]
2B64  240D4601           [410] self       52  2   280  ; 1554076758
2B68  8E8D4519           [411] gettable   54  50  278  ; "tag"
2B6C  228D8001           [412] call       52  3   2  
2B70  184D0000           [413] test       52      1    ; to [415] if false
2B74  1A000280           [414] jmp        9            ; to [424]
2B78  248D4601           [415] self       52  2   282  ; 1183180483
2B7C  8E8D4519           [416] gettable   54  50  278  ; "tag"
2B80  CECD4619           [417] gettable   55  50  283  ; "upgradeType"
2B84  0E4E5019           [418] gettable   56  50  321  ; "upgradeOperation"
2B88  644E4619           [419] self       57  50  281  ; 955459000
2B8C  D20E8019           [420] move       59  51     
2B90  628E8001           [421] call       57  3   2  
2B94  9D8E1000           [422] getglobal  58  66       ; gLotusMeleeWeaponType
2B98  224D8003           [423] call       52  7   1  
2B9C  968B0000           [424] tforloop   46      2    ; to [426] if exit
2BA0  1A80FA7F           [425] jmp        -21          ; to [405]
2BA4  1D8D0400           [426] getglobal  52  18       ; Lotus_Game
2BA8  0ECD501A           [427] gettable   52  52  323  ; "AP_WARD"
fail op	35
2BAC  23000D07           [428] close      0  
2BB0  1A000680           [429] jmp        25           ; to [455]
2BB4  1D0D0500           [430] getglobal  52  20       ; 248503575
2BB8  530D0002           [431] getupval   53  4      
2BBC  220D0101           [432] call       52  2   4  
2BC0  1A800480           [433] jmp        19           ; to [453]
2BC4  644EC501           [434] self       57  3   277  ; 871807058
2BC8  CE8E451C           [435] gettable   59  56  278  ; "tag"
2BCC  628E8001           [436] call       57  3   2  
fail op	21
2BD0  15408E8B           [437] concat     0   279 57 
2BD4  1A400380           [438] jmp        14           ; to [453]
2BD8  A40E4601           [439] self       58  2   280  ; 1554076758
2BDC  0E8F451C           [440] gettable   60  56  278  ; "tag"
2BE0  A28E8001           [441] call       58  3   2  
2BE4  984E0000           [442] test       58      1    ; to [444] if false
2BE8  1A000280           [443] jmp        9            ; to [453]
2BEC  A48E4601           [444] self       58  2   282  ; 1183180483
2BF0  0E8F451C           [445] gettable   60  56  278  ; "tag"
2BF4  4ECF461C           [446] gettable   61  56  283  ; "upgradeType"
2BF8  9D0F0700           [447] getglobal  62  28       ; Game
2BFC  8E4F471F           [448] gettable   62  62  285  ; "ADD"
2C00  E44F461C           [449] self       63  56  281  ; 955459000
2C04  5210801C           [450] move       65  57     
2C08  E20F8001           [451] call       63  3   0  
2C0C  A24E0000           [452] call       58  0   1  
2C10  168D0000           [453] tforloop   52      2    ; to [455] if exit
2C14  1A80FA7F           [454] jmp        -21          ; to [434]
2C18  1E008000           [455] return     0   1      
                         * constants:
2C1C  44                 sizek (68)
2C1D  04                 const type 4
2C1E  08                 string size (8)
2C1F  67526567696F6E00   "gRegion\0"
                         const [0]: "gRegion"
2C27  01                 const type 3
2C28  58F559A5           const [1]: (-1520831144)
2C2C  01                 const type 3
2C2D  65770E40           const [2]: (1074689893)
2C31  04                 const type 4
2C32  0B                 string size (11)
2C33  6747616D6552756C+  "gGameRul"
2C3B  657300             "es\0"
                         const [3]: "gGameRules"
2C3E  01                 const type 3
2C3F  D48E598B           const [4]: (-1957065004)
2C43  04                 const type 4
2C44  1F                 string size (31)
2C45  674C6F7475734174+  "gLotusAt"
2C4D  74726163744D6F64+  "tractMod"
2C55  6547616D6552756C+  "eGameRul"
2C5D  65735479706500     "esType\0"
                         const [5]: "gLotusAttractModeGameRulesType"
2C64  01                 const type 3
2C65  497363B8           const [6]: (-1201441975)
2C69  04                 const type 4
2C6A  15                 string size (21)
2C6B  7472616E73666572+  "transfer"
2C73  656E636544697361+  "enceDisa"
2C7B  626C656400         "bled\0"
                         const [7]: "transferenceDisabled"
2C80  04                 const type 4
2C81  10                 string size (16)
2C82  737061776E41734F+  "spawnAsO"
2C8A  70657261746F7200   "perator\0"
                         const [8]: "spawnAsOperator"
2C92  01                 const type 3
2C93  1FD0B58D           const [9]: (-1917464545)
2C97  01                 const type 3
2C98  2828C8B3           const [10]: (-1278728152)
2C9C  01                 const type 3
2C9D  59AC7869           const [11]: (1769516121)
2CA1  01                 const type 3
2CA2  E2640C8D           const [12]: (-1928567582)
2CA6  01                 const type 3
2CA7  0791B063           const [13]: (1672515847)
2CAB  01                 const type 3
2CAC  3BEE74E3           const [14]: (-478876101)
2CB0  01                 const type 3
2CB1  DD8258DE           const [15]: (-564624675)
2CB5  01                 const type 3
2CB6  D714EEFE           const [16]: (-17951529)
2CBA  04                 const type 4
2CBB  01                 string size (0)
                         const [17]: ""
2CBD  04                 const type 4
2CBE  0B                 string size (11)
2CBF  4C6F7475735F4761+  "Lotus_Ga"
2CC7  6D6500             "me\0"
                         const [18]: "Lotus_Game"
2CCA  04                 const type 4
2CCB  0A                 string size (10)
2CCC  41505F4154544143+  "AP_ATTAC"
2CD4  4B00               "K\0"
                         const [19]: "AP_ATTACK"
2CD6  01                 const type 3
2CD7  17DDCF0E           const [20]: (248503575)
2CDB  01                 const type 3
2CDC  52B8F633           const [21]: (871807058)
2CE0  04                 const type 4
2CE1  04                 string size (4)
2CE2  74616700           "tag\0"
                         const [22]: "tag"
2CE6  03                 const type 3
2CE7  00000000           const [23]: (0)
2CEB  01                 const type 3
2CEC  5654A15C           const [24]: (1554076758)
2CF0  01                 const type 3
2CF1  B825F338           const [25]: (955459000)
2CF5  01                 const type 3
2CF6  C3E68546           const [26]: (1183180483)
2CFA  04                 const type 4
2CFB  0C                 string size (12)
2CFC  7570677261646554+  "upgradeT"
2D04  79706500           "ype\0"
                         const [27]: "upgradeType"
2D08  04                 const type 4
2D09  05                 string size (5)
2D0A  47616D6500         "Game\0"
                         const [28]: "Game"
2D0F  04                 const type 4
2D10  04                 string size (4)
2D11  41444400           "ADD\0"
                         const [29]: "ADD"
2D15  01                 const type 3
2D16  B9111B3B           const [30]: (991629753)
2D1A  04                 const type 4
2D1B  0F                 string size (15)
2D1C  67506F7765725375+  "gPowerSu"
2D24  69745479706500     "itType\0"
                         const [31]: "gPowerSuitType"
2D2B  04                 const type 4
2D2C  0B                 string size (11)
2D2D  41505F444546454E+  "AP_DEFEN"
2D35  534500             "SE\0"
                         const [32]: "AP_DEFENSE"
2D38  04                 const type 4
2D39  09                 string size (9)
2D3A  72616469616C5870+  "radialXp"
2D42  00                 "\0"
                         const [33]: "radialXp"
2D43  04                 const type 4
2D44  0E                 string size (14)
2D45  696E7374616E7452+  "instantR"
2D4D  657669766500       "evive\0"
                         const [34]: "instantRevive"
2D53  01                 const type 3
2D54  61C66B3D           const [35]: (1030473313)
2D58  04                 const type 4
2D59  19                 string size (25)
2D5A  674C6F7475734F70+  "gLotusOp"
2D62  657261746F724176+  "eratorAv"
2D6A  6174617254797065+  "atarType"
2D72  00                 "\0"
                         const [36]: "gLotusOperatorAvatarType"
2D73  01                 const type 3
2D74  9CFCD496           const [37]: (-1764426596)
2D78  01                 const type 3
2D79  D953748F           const [38]: (-1888201767)
2D7D  01                 const type 3
2D7E  B60FEFDB           const [39]: (-605089866)
2D82  04                 const type 4
2D83  03                 string size (3)
2D84  5F5400             "_T\0"
                         const [40]: "_T"
2D87  04                 const type 4
2D88  17                 string size (23)
2D89  6F70657261746F72+  "operator"
2D91  496E7374616E7452+  "InstantR"
2D99  65766976657300     "evives\0"
                         const [41]: "operatorInstantRevives"
2DA0  01                 const type 3
2DA1  4F702342           const [42]: (1109618767)
2DA5  01                 const type 3
2DA6  AC41D26B           const [43]: (1808941484)
2DAA  01                 const type 3
2DAB  0567E793           const [44]: (-1813551355)
2DAF  01                 const type 3
2DB0  2243FDFA           const [45]: (-84065502)
2DB4  04                 const type 4
2DB5  0B                 string size (11)
2DB6  696E737469676174+  "instigat"
2DBE  6F7200             "or\0"
                         const [46]: "instigator"
2DC1  04                 const type 4
2DC2  09                 string size (9)
2DC3  6166666563746564+  "affected"
2DCB  00                 "\0"
                         const [47]: "affected"
2DCC  04                 const type 4
2DCD  09                 string size (9)
2DCE  6275666654797065+  "buffType"
2DD6  00                 "\0"
                         const [48]: "buffType"
2DD7  04                 const type 4
2DD8  09                 string size (9)
2DD9  42545F535441434B+  "BT_STACK"
2DE1  00                 "\0"
                         const [49]: "BT_STACK"
2DE2  04                 const type 4
2DE3  09                 string size (9)
2DE4  6275666644617461+  "buffData"
2DEC  00                 "\0"
                         const [50]: "buffData"
2DED  04                 const type 4
2DEE  0C                 string size (12)
2DEF  6162696C69747954+  "abilityT"
2DF7  79706500           "ype\0"
                         const [51]: "abilityType"
2DFB  01                 const type 3
2DFC  29D4002C           const [52]: (738251817)
2E00  04                 const type 4
2E01  41                 string size (65)
2E02  2F4C6F7475732F55+  "/Lotus/U"
2E0A  706772616465732F+  "pgrades/"
2E12  466F6375732F4465+  "Focus/De"
2E1A  66656E73652F5265+  "fense/Re"
2E22  73696475616C2F49+  "sidual/I"
2E2A  6E7374616E745265+  "nstantRe"
2E32  76697665466F6375+  "viveFocu"
2E3A  7355706772616465+  "sUpgrade"
2E42  00                 "\0"
                         const [53]: "/Lotus/Upgrades/Focus/Defense/Residual/InstantReviveFocusUpgrade"
2E43  01                 const type 3
2E44  D6134F58           const [54]: (1481577430)
2E48  01                 const type 3
2E49  04BEA50B           const [55]: (195411460)
2E4D  01                 const type 3
2E4E  FAD9EAD4           const [56]: (-722806278)
2E52  01                 const type 3
2E53  1A4B27EC           const [57]: (-332969190)
2E57  04                 const type 4
2E58  15                 string size (21)
2E59  446566656E736549+  "DefenseI"
2E61  6E7374616E745265+  "nstantRe"
2E69  7669766500         "vive\0"
                         const [58]: "DefenseInstantRevive"
2E6E  04                 const type 4
2E6F  09                 string size (9)
2E70  41505F504F574552+  "AP_POWER"
2E78  00                 "\0"
                         const [59]: "AP_POWER"
2E79  04                 const type 4
2E7A  0F                 string size (15)
2E7B  656E657267794F76+  "energyOv"
2E83  657254696D6500     "erTime\0"
                         const [60]: "energyOverTime"
2E8A  04                 const type 4
2E8B  12                 string size (18)
2E8C  506F776572456E65+  "PowerEne"
2E94  7267795069636B75+  "rgyPicku"
2E9C  7000               "p\0"
                         const [61]: "PowerEnergyPickup"
2E9E  04                 const type 4
2E9F  12                 string size (18)
2EA0  6368616E6E656C45+  "channelE"
2EA8  6666696369656E63+  "fficienc"
2EB0  7900               "y\0"
                         const [62]: "channelEfficiency"
2EB2  04                 const type 4
2EB3  12                 string size (18)
2EB4  535441434B494E47+  "STACKING"
2EBC  5F4D554C5449504C+  "_MULTIPL"
2EC4  5900               "Y\0"
                         const [63]: "STACKING_MULTIPLY"
2EC6  04                 const type 4
2EC7  0A                 string size (10)
2EC8  41505F5441435449+  "AP_TACTI"
2ED0  4300               "C\0"
                         const [64]: "AP_TACTIC"
2ED2  04                 const type 4
2ED3  11                 string size (17)
2ED4  757067726164654F+  "upgradeO"
2EDC  7065726174696F6E+  "peration"
2EE4  00                 "\0"
                         const [65]: "upgradeOperation"
2EE5  04                 const type 4
2EE6  16                 string size (22)
2EE7  674C6F7475734D65+  "gLotusMe"
2EEF  6C6565576561706F+  "leeWeapo"
2EF7  6E5479706500       "nType\0"
                         const [66]: "gLotusMeleeWeaponType"
2EFD  04                 const type 4
2EFE  08                 string size (8)
2EFF  41505F5741524400   "AP_WARD\0"
                         const [67]: "AP_WARD"
                         * functions:
2F07  01                 sizep (1)
                         
2F08                     ** function [0] definition (level 3)
                         ** start of function **
2F08  00                 string size (0)
                         source name: (none)
2F0A  03                 line defined (390)
2F0B  88                 last line defined (392)
2F0C  03                 nups (1)
2F0D  01                 numparams (2)
2F0E  02                 is_vararg (0)
2F0F  00                 maxstacksize (7)
                         * code:
2F11  0A                 sizecode (10)
2F12  9D000000           [01] getglobal  2   0        ; math
2F16  8E404001           [02] gettable   2   2   257  ; 1710846250
2F1A  CA008000           [03] len        3   1      
2F1E  13010000           [04] getupval   4   0      
2F22  24814002           [05] self       4   4   258  ; 871807058
2F26  92010000           [06] move       6   0      
2F2A  22018001           [07] call       4   3   0  
2F2E  87000000           [08] tailcall   2   0   0  
2F32  9E000000           [09] return     2   0      
2F36  1E008000           [10] return     0   1      
                         * constants:
2F3A  03                 sizek (3)
2F3B  04                 const type 4
2F3C  05                 string size (5)
2F3D  6D61746800         "math\0"
                         const [0]: "math"
2F42  01                 const type 3
2F43  2A71F965           const [1]: (1710846250)
2F47  01                 const type 3
2F48  52B8F633           const [2]: (871807058)
                         * functions:
2F4C  00                 sizep (0)
                         * lines:
2F4D  0A                 sizelineinfo (10)
                         [pc] (line)
2F4E  87                 [01] (-121)
2F4F  01                 [02] (-121)
2F50  00                 [03] (-121)
2F51  00                 [04] (-121)
2F52  87                 [05] (-121)
2F53  01                 [06] (-121)
2F54  00                 [07] (-121)
2F55  00                 [08] (-121)
2F56  87                 [09] (-121)
2F57  01                 [10] (-120)
                         * locals:
2F76  00                 sizelocvars (0)
                         * upvalues:
2F77  00                 sizeupvalues (0)
                         ** end of function **

                         * lines:
2F79  03                 sizelineinfo (455)
                         [pc] (line)
2F7A  5C                 [001] (92)
2F7B  01                 [002] (92)
2F7C  00                 [003] (92)
2F7D  00                 [004] (92)
2F7E  5C                 [005] (92)
2F7F  01                 [006] (93)
2F80  00                 [007] (96)
2F81  00                 [008] (96)
2F82  5C                 [009] (96)
2F83  01                 [010] (96)
2F84  00                 [011] (96)
2F85  00                 [012] (97)
2F86  5C                 [013] (97)
2F87  01                 [014] (97)
2F88  00                 [015] (97)
2F89  00                 [016] (97)
2F8A  5C                 [017] (97)
2F8B  01                 [018] (98)
2F8C  00                 [019] (98)
2F8D  00                 [020] (98)
2F8E  5D                 [021] (99)
2F8F  01                 [022] (99)
2F90  00                 [023] (99)
2F91  00                 [024] (99)
2F92  60                 [025] (99)
2F93  01                 [026] (99)
2F94  00                 [027] (99)
2F95  00                 [028] (99)
2F96  60                 [029] (99)
2F97  01                 [030] (99)
2F98  00                 [031] (99)
2F99  00                 [032] (100)
2F9A  60                 [033] (105)
2F9B  01                 [034] (105)
2F9C  00                 [035] (106)
2F9D  00                 [036] (106)
2F9E  60                 [037] (107)
2F9F  01                 [038] (107)
2FA0  00                 [039] (107)
2FA1  00                 [040] (107)
2FA2  60                 [041] (107)
2FA3  01                 [042] (108)
2FA4  00                 [043] (111)
2FA5  00                 [044] (111)
2FA6  61                 [045] (112)
2FA7  01                 [046] (112)
2FA8  00                 [047] (112)
2FA9  00                 [048] (112)
2FAA  61                 [049] (112)
2FAB  01                 [050] (113)
2FAC  00                 [051] (116)
2FAD  00                 [052] (117)
2FAE  61                 [053] (117)
2FAF  01                 [054] (118)
2FB0  00                 [055] (118)
2FB1  00                 [056] (118)
2FB2  61                 [057] (118)
2FB3  01                 [058] (119)
2FB4  00                 [059] (119)
2FB5  00                 [060] (119)
2FB6  61                 [061] (119)
2FB7  01                 [062] (120)
2FB8  00                 [063] (121)
2FB9  00                 [064] (118)
2FBA  61                 [065] (122)
2FBB  01                 [066] (125)
2FBC  00                 [067] (125)
2FBD  00                 [068] (125)
2FBE  62                 [069] (125)
2FBF  01                 [070] (125)
2FC0  00                 [071] (126)
2FC1  00                 [072] (-127)
2FC2  62                 [073] (-127)
2FC3  01                 [074] (-126)
2FC4  00                 [075] (-126)
2FC5  00                 [076] (-126)
2FC6  62                 [077] (-126)
2FC7  01                 [078] (-126)
2FC8  00                 [079] (-125)
2FC9  00                 [080] (-120)
2FCA  63                 [081] (-120)
2FCB  01                 [082] (-118)
2FCC  00                 [083] (-118)
2FCD  00                 [084] (-118)
2FCE  63                 [085] (-116)
2FCF  01                 [086] (-116)
2FD0  00                 [087] (-116)
2FD1  00                 [088] (-116)
2FD2  63                 [089] (-114)
2FD3  01                 [090] (-114)
2FD4  00                 [091] (-114)
2FD5  00                 [092] (-114)
2FD6  63                 [093] (-113)
2FD7  01                 [094] (-113)
2FD8  00                 [095] (-113)
2FD9  00                 [096] (-111)
2FDA  63                 [097] (-111)
2FDB  01                 [098] (-111)
2FDC  00                 [099] (-111)
2FDD  00                 [100] (-111)
2FDE  63                 [101] (-111)
2FDF  01                 [102] (-111)
2FE0  00                 [103] (-110)
2FE1  00                 [104] (-110)
2FE2  63                 [105] (-110)
2FE3  01                 [106] (-108)
2FE4  00                 [107] (-108)
2FE5  00                 [108] (-108)
2FE6  63                 [109] (-108)
2FE7  01                 [110] (-108)
2FE8  00                 [111] (-108)
2FE9  00                 [112] (-108)
2FEA  63                 [113] (-107)
2FEB  01                 [114] (-107)
2FEC  00                 [115] (-107)
2FED  00                 [116] (-107)
2FEE  63                 [117] (-107)
2FEF  01                 [118] (-107)
2FF0  00                 [119] (-107)
2FF1  00                 [120] (-114)
2FF2  63                 [121] (-106)
2FF3  01                 [122] (-102)
2FF4  00                 [123] (-102)
2FF5  00                 [124] (-102)
2FF6  64                 [125] (-102)
2FF7  01                 [126] (-100)
2FF8  00                 [127] (-100)
2FF9  00                 [128] (-99)
2FFA  69                 [129] (-99)
2FFB  01                 [130] (-99)
2FFC  00                 [131] (-97)
2FFD  00                 [132] (-97)
2FFE  69                 [133] (-97)
2FFF  01                 [134] (-97)
3000  00                 [135] (-97)
3001  00                 [136] (-97)
3002  6A                 [137] (-97)
3003  01                 [138] (-96)
3004  00                 [139] (-96)
3005  00                 [140] (-96)
3006  6A                 [141] (-96)
3007  01                 [142] (-96)
3008  00                 [143] (-96)
3009  00                 [144] (-96)
300A  6B                 [145] (-96)
300B  01                 [146] (-96)
300C  00                 [147] (-93)
300D  00                 [148] (-93)
300E  6B                 [149] (-92)
300F  01                 [150] (-92)
3010  00                 [151] (-92)
3011  00                 [152] (-90)
3012  6B                 [153] (-90)
3013  01                 [154] (-90)
3014  00                 [155] (-90)
3015  00                 [156] (-90)
3016  6B                 [157] (-90)
3017  01                 [158] (-90)
3018  00                 [159] (-89)
3019  00                 [160] (-89)
301A  6B                 [161] (-89)
301B  01                 [162] (-88)
301C  00                 [163] (-88)
301D  00                 [164] (-88)
301E  6C                 [165] (-87)
301F  01                 [166] (-87)
3020  00                 [167] (-86)
3021  00                 [168] (-86)
3022  6F                 [169] (-85)
3023  01                 [170] (-85)
3024  00                 [171] (-85)
3025  00                 [172] (-85)
3026  6F                 [173] (-85)
3027  01                 [174] (-84)
3028  00                 [175] (-84)
3029  00                 [176] (-83)
302A  70                 [177] (-83)
302B  01                 [178] (-83)
302C  00                 [179] (-83)
302D  00                 [180] (-83)
302E  70                 [181] (-82)
302F  01                 [182] (-82)
3030  00                 [183] (-81)
3031  00                 [184] (-81)
3032  70                 [185] (-81)
3033  01                 [186] (-81)
3034  00                 [187] (-81)
3035  00                 [188] (-81)
3036  70                 [189] (-81)
3037  01                 [190] (-81)
3038  00                 [191] (-81)
3039  00                 [192] (-81)
303A  70                 [193] (-81)
303B  01                 [194] (-81)
303C  00                 [195] (-81)
303D  00                 [196] (-80)
303E  71                 [197] (-80)
303F  01                 [198] (-80)
3040  00                 [199] (-74)
3041  00                 [200] (-74)
3042  74                 [201] (-74)
3043  01                 [202] (-72)
3044  00                 [203] (-72)
3045  00                 [204] (-71)
3046  75                 [205] (-69)
3047  01                 [206] (-69)
3048  00                 [207] (-68)
3049  00                 [208] (-68)
304A  75                 [209] (-68)
304B  01                 [210] (-68)
304C  00                 [211] (-68)
304D  00                 [212] (-67)
304E  76                 [213] (-64)
304F  01                 [214] (-64)
3050  00                 [215] (-63)
3051  00                 [216] (-61)
3052  76                 [217] (-61)
3053  01                 [218] (-60)
3054  00                 [219] (-60)
3055  00                 [220] (-60)
3056  76                 [221] (-59)
3057  01                 [222] (-59)
3058  00                 [223] (-58)
3059  00                 [224] (-58)
305A  76                 [225] (-57)
305B  01                 [226] (-56)
305C  00                 [227] (-54)
305D  00                 [228] (-51)
305E  77                 [229] (-51)
305F  01                 [230] (-51)
3060  00                 [231] (-51)
3061  00                 [232] (-51)
3062  77                 [233] (-51)
3063  01                 [234] (-50)
3064  00                 [235] (-50)
3065  00                 [236] (-50)
3066  77                 [237] (-47)
3067  01                 [238] (-47)
3068  00                 [239] (-47)
3069  00                 [240] (-47)
306A  77                 [241] (-47)
306B  01                 [242] (-47)
306C  00                 [243] (-47)
306D  00                 [244] (-46)
306E  78                 [245] (-46)
306F  01                 [246] (-46)
3070  00                 [247] (-43)
3071  00                 [248] (-43)
3072  79                 [249] (-43)
3073  01                 [250] (-42)
3074  00                 [251] (-42)
3075  00                 [252] (-42)
3076  76                 [253] (-42)
3077  01                 [254] (-42)
3078  00                 [255] (-41)
3079  00                 [256] (-40)
307A  7A                 [257] (-40)
307B  01                 [258] (-40)
307C  00                 [259] (-40)
307D  00                 [260] (-39)
307E  7D                 [261] (-39)
307F  01                 [262] (-39)
3080  00                 [263] (-38)
3081  00                 [264] (-38)
3082  7D                 [265] (-38)
3083  01                 [266] (-38)
3084  00                 [267] (-37)
3085  00                 [268] (-37)
3086  7D                 [269] (-37)
3087  01                 [270] (-37)
3088  00                 [271] (-35)
3089  00                 [272] (-35)
308A  7D                 [273] (-35)
308B  01                 [274] (-35)
308C  00                 [275] (-35)
308D  00                 [276] (-34)
308E  7D                 [277] (-34)
308F  01                 [278] (-34)
3090  00                 [279] (-34)
3091  00                 [280] (-34)
3092  7E                 [281] (-33)
3093  01                 [282] (-33)
3094  00                 [283] (-33)
3095  00                 [284] (-33)
3096  81                 [285] (-33)
3097  01                 [286] (-33)
3098  00                 [287] (-30)
3099  00                 [288] (-30)
309A  81                 [289] (-30)
309B  01                 [290] (-30)
309C  00                 [291] (-30)
309D  00                 [292] (-30)
309E  82                 [293] (-30)
309F  01                 [294] (-30)
30A0  00                 [295] (-30)
30A1  00                 [296] (-30)
30A2  82                 [297] (-30)
30A3  01                 [298] (-30)
30A4  00                 [299] (-30)
30A5  00                 [300] (-30)
30A6  82                 [301] (-30)
30A7  01                 [302] (-30)
30A8  00                 [303] (-30)
30A9  00                 [304] (-30)
30AA  82                 [305] (-30)
30AB  01                 [306] (-29)
30AC  00                 [307] (-29)
30AD  00                 [308] (-29)
30AE  82                 [309] (-28)
30AF  01                 [310] (-28)
30B0  00                 [311] (-28)
30B1  00                 [312] (-28)
30B2  83                 [313] (-27)
30B3  01                 [314] (-26)
30B4  00                 [315] (-26)
30B5  00                 [316] (-26)
30B6  88                 [317] (-26)
30B7  01                 [318] (-25)
30B8  00                 [319] (-25)
30B9  00                 [320] (-25)
30BA  88                 [321] (-25)
30BB  01                 [322] (-25)
30BC  00                 [323] (-24)
30BD  00                 [324] (-24)
30BE  8A                 [325] (-24)
30BF  01                 [326] (-23)
30C0  00                 [327] (-23)
30C1  00                 [328] (-23)
30C2  8A                 [329] (-23)
30C3  01                 [330] (-23)
30C4  00                 [331] (-21)
30C5  00                 [332] (-21)
30C6  8A                 [333] (-21)
30C7  01                 [334] (-21)
30C8  00                 [335] (-20)
30C9  00                 [336] (-20)
30CA  8C                 [337] (-20)
30CB  01                 [338] (-20)
30CC  00                 [339] (-20)
30CD  00                 [340] (-19)
30CE  8C                 [341] (-19)
30CF  01                 [342] (-18)
30D0  00                 [343] (-18)
30D1  00                 [344] (-18)
30D2  8C                 [345] (-18)
30D3  01                 [346] (-17)
30D4  00                 [347] (-17)
30D5  00                 [348] (-17)
30D6  8C                 [349] (-17)
30D7  01                 [350] (-16)
30D8  00                 [351] (-16)
30D9  00                 [352] (-16)
30DA  8E                 [353] (-16)
30DB  01                 [354] (-16)
30DC  00                 [355] (-16)
30DD  00                 [356] (-15)
30DE  8E                 [357] (-18)
30DF  01                 [358] (-14)
30E0  00                 [359] (-6)
30E1  00                 [360] (-6)
30E2  8E                 [361] (-6)
30E3  01                 [362] (-6)
30E4  00                 [363] (-4)
30E5  00                 [364] (-4)
30E6  8E                 [365] (-3)
30E7  01                 [366] (-3)
30E8  00                 [367] (-3)
30E9  00                 [368] (-1)
30EA  8F                 [369] (-1)
30EB  01                 [370] (0)
30EC  00                 [371] (0)
30ED  00                 [372] (0)
30EE  8F                 [373] (0)
30EF  01                 [374] (0)
30F0  00                 [375] (0)
30F1  00                 [376] (3)
30F2  8F                 [377] (3)
30F3  01                 [378] (4)
30F4  00                 [379] (4)
30F5  00                 [380] (4)
30F6  91                 [381] (6)
30F7  01                 [382] (6)
30F8  00                 [383] (6)
30F9  00                 [384] (6)
30FA  91                 [385] (6)
30FB  01                 [386] (6)
30FC  00                 [387] (6)
30FD  00                 [388] (7)
30FE  91                 [389] (7)
30FF  01                 [390] (7)
3100  00                 [391] (7)
3101  00                 [392] (7)
3102  91                 [393] (7)
3103  01                 [394] (7)
3104  00                 [395] (7)
3105  00                 [396] (7)
3106  91                 [397] (11)
3107  01                 [398] (11)
3108  00                 [399] (11)
3109  00                 [400] (11)
310A  91                 [401] (13)
310B  01                 [402] (13)
310C  00                 [403] (13)
310D  00                 [404] (13)
310E  91                 [405] (14)
310F  01                 [406] (14)
3110  00                 [407] (14)
3111  00                 [408] (16)
3112  92                 [409] (16)
3113  01                 [410] (16)
3114  00                 [411] (16)
3115  00                 [412] (16)
3116  92                 [413] (16)
3117  01                 [414] (16)
3118  00                 [415] (17)
3119  00                 [416] (17)
311A  92                 [417] (17)
311B  01                 [418] (17)
311C  00                 [419] (17)
311D  00                 [420] (17)
311E  94                 [421] (17)
311F  01                 [422] (17)
3120  00                 [423] (17)
3121  00                 [424] (13)
3122  94                 [425] (18)
3123  01                 [426] (22)
3124  00                 [427] (22)
3125  00                 [428] (22)
3126  94                 [429] (22)
3127  01                 [430] (24)
3128  00                 [431] (24)
3129  00                 [432] (24)
312A  94                 [433] (24)
312B  01                 [434] (25)
312C  00                 [435] (25)
312D  00                 [436] (25)
312E  94                 [437] (27)
312F  01                 [438] (27)
3130  00                 [439] (27)
3131  00                 [440] (27)
3132  94                 [441] (27)
3133  01                 [442] (27)
3134  00                 [443] (27)
3135  00                 [444] (28)
3136  94                 [445] (28)
3137  01                 [446] (28)
3138  00                 [447] (28)
3139  00                 [448] (28)
313A  95                 [449] (28)
313B  01                 [450] (28)
313C  00                 [451] (28)
313D  00                 [452] (28)
313E  95                 [453] (24)
313F  01                 [454] (29)
3140  00                 [455] (32)
                         * locals:
3696  00                 sizelocvars (0)
                         * upvalues:
3697  00                 sizeupvalues (0)
                         ** end of function **

                         
3698                     ** function [18] definition (level 2)
                         ** start of function **
3698  00                 string size (0)
                         source name: (none)
369A  04                 line defined (546)
369B  DA                 last line defined (602)
369C  04                 nups (5)
369D  05                 numparams (3)
369E  03                 is_vararg (0)
369F  00                 maxstacksize (14)
                         * code:
36A2  01                 sizecode (177)
36A3  CB000000           [001] newtable   3   0   0    ; array=0, hash=0
36A7  1D010000           [002] getglobal  4   0        ; Lotus_Game
36AB  0E414002           [003] gettable   4   4   257  ; "AP_ATTACK"
fail op	35
36AF  23000100           [004] close      0  
36B3  1A000580           [005] jmp        21           ; to [27]
36B7  1D810000           [006] getglobal  4   2        ; 248503575
36BB  53010000           [007] getupval   5   0      
36BF  22010101           [008] call       4   2   4  
36C3  1A400380           [009] jmp        14           ; to [24]
36C7  4EC24004           [010] gettable   9   8   259  ; "tag"
fail op	35
36CB  23408200           [011] close      0  
36CF  1A800280           [012] jmp        11           ; to [24]
36D3  4B420000           [013] newtable   9   0   1    ; array=0, hash=1
36D7  9D420100           [014] getglobal  10  5        ; math
36DB  8E824105           [015] gettable   10  10  262  ; -150971781
36DF  E4C24104           [016] self       11  8   263  ; 955459000
36E3  52030001           [017] move       13  2      
36E7  E2828001           [018] call       11  3   2  
36EB  C402C205           [019] mul        11  11  264  ; 0
36EF  A2820001           [020] call       10  2   2  
36F3  4C820282           [021] settable   9   260 10   ; "PERCENT"
36F7  D2008004           [022] move       3   9      
36FB  1AC02580           [023] jmp        152          ; to [176]
36FF  16810000           [024] tforloop   4       2    ; to [26] if exit
3703  1AC0FB7F           [025] jmp        -16          ; to [10]
3707  1A002580           [026] jmp        149          ; to [176]
370B  5D020000           [027] getglobal  9   0        ; Lotus_Game
370F  4E42C204           [028] gettable   9   9   265  ; "AP_DEFENSE"
fail op	35
3713  23400200           [029] close      0  
3717  1AC00680           [030] jmp        28           ; to [59]
371B  53028000           [031] getupval   9   1      
371F  4E82C204           [032] gettable   9   9   266  ; "radialXp"
3723  4EC2C004           [033] gettable   9   9   259  ; "tag"
fail op	35
3727  23408200           [034] close      0  
372B  1A000280           [035] jmp        9            ; to [45]
372F  4B420000           [036] newtable   9   0   1    ; array=0, hash=1
3733  93028000           [037] getupval   10  1      
3737  8E824205           [038] gettable   10  10  266  ; "radialXp"
373B  A4C24105           [039] self       10  10  263  ; 955459000
373F  12030001           [040] move       12  2      
3743  A2828001           [041] call       10  3   2  
3747  4C828285           [042] settable   9   267 10   ; "RADIUS"
374B  D2008004           [043] move       3   9      
374F  1A802080           [044] jmp        131          ; to [176]
3753  53028000           [045] getupval   9   1      
3757  4E02C304           [046] gettable   9   9   268  ; "instantRevive"
375B  4EC2C004           [047] gettable   9   9   259  ; "tag"
fail op	35
375F  23408200           [048] close      0  
3763  1A401F80           [049] jmp        126          ; to [176]
3767  4B420000           [050] newtable   9   0   1    ; array=0, hash=1
376B  93028000           [051] getupval   10  1      
376F  8E024305           [052] gettable   10  10  268  ; "instantRevive"
3773  A4C24105           [053] self       10  10  263  ; 955459000
3777  12030001           [054] move       12  2      
377B  A2828001           [055] call       10  3   2  
377F  4C828286           [056] settable   9   269 10   ; "COUNT"
3783  D2008004           [057] move       3   9      
3787  1A001D80           [058] jmp        117          ; to [176]
378B  5D020000           [059] getglobal  9   0        ; Lotus_Game
378F  4E82C304           [060] gettable   9   9   270  ; "AP_POWER"
fail op	35
3793  23400200           [061] close      0  
3797  1A400A80           [062] jmp        42           ; to [105]
379B  53020001           [063] getupval   9   2      
379F  4EC2C304           [064] gettable   9   9   271  ; "energyOverTime"
37A3  4EC2C004           [065] gettable   9   9   259  ; "tag"
fail op	35
37A7  23408200           [066] close      0  
37AB  1A800480           [067] jmp        19           ; to [87]
37AF  4B820000           [068] newtable   9   0   2    ; array=0, hash=2
37B3  9D420100           [069] getglobal  10  5        ; math
37B7  8E824105           [070] gettable   10  10  262  ; -150971781
37BB  D3020001           [071] getupval   11  2      
37BF  CEC2C305           [072] gettable   11  11  271  ; "energyOverTime"
37C3  E4C2C105           [073] self       11  11  263  ; 955459000
37C7  52030001           [074] move       13  2      
37CB  E2828001           [075] call       11  3   2  
37CF  C402C205           [076] mul        11  11  264  ; 0
37D3  A2820001           [077] call       10  2   2  
37D7  4C820282           [078] settable   9   260 10   ; "PERCENT"
37DB  93020001           [079] getupval   10  2      
37DF  8EC24305           [080] gettable   10  10  271  ; "energyOverTime"
37E3  A4424405           [081] self       10  10  273  ; 1033199923
37E7  12030001           [082] move       12  2      
37EB  A2828001           [083] call       10  3   2  
37EF  4C820288           [084] settable   9   272 10   ; "DURATION"
37F3  D2008004           [085] move       3   9      
37F7  1A001680           [086] jmp        89           ; to [176]
37FB  53020001           [087] getupval   9   2      
37FF  4E82C404           [088] gettable   9   9   274  ; "channelEfficiency"
3803  4EC2C004           [089] gettable   9   9   259  ; "tag"
fail op	35
3807  23408200           [090] close      0  
380B  1AC01480           [091] jmp        84           ; to [176]
380F  4B420000           [092] newtable   9   0   1    ; array=0, hash=1
3813  9D420100           [093] getglobal  10  5        ; math
3817  8E824105           [094] gettable   10  10  262  ; -150971781
381B  D3020001           [095] getupval   11  2      
381F  CE82C405           [096] gettable   11  11  274  ; "channelEfficiency"
3823  E4C2C105           [097] self       11  11  263  ; 955459000
3827  52030001           [098] move       13  2      
382B  E2828001           [099] call       11  3   2  
382F  C402C205           [100] mul        11  11  264  ; 0
3833  A2820001           [101] call       10  2   2  
3837  4C820282           [102] settable   9   260 10   ; "PERCENT"
383B  D2008004           [103] move       3   9      
383F  1A801180           [104] jmp        71           ; to [176]
3843  5D020000           [105] getglobal  9   0        ; Lotus_Game
3847  4EC2C404           [106] gettable   9   9   275  ; "AP_TACTIC"
fail op	35
384B  23400200           [107] close      0  
384F  1AC00780           [108] jmp        32           ; to [141]
3853  53028001           [109] getupval   9   3      
3857  4E02C504           [110] gettable   9   9   276  ; "meleeXp"
385B  4EC2C004           [111] gettable   9   9   259  ; "tag"
fail op	35
385F  23408200           [112] close      0  
3863  1A000380           [113] jmp        13           ; to [127]
3867  4B420000           [114] newtable   9   0   1    ; array=0, hash=1
386B  9D420100           [115] getglobal  10  5        ; math
386F  8E824105           [116] gettable   10  10  262  ; -150971781
3873  D3028001           [117] getupval   11  3      
3877  CE02C505           [118] gettable   11  11  276  ; "meleeXp"
387B  E4C2C105           [119] self       11  11  263  ; 955459000
387F  52030001           [120] move       13  2      
3883  E2828001           [121] call       11  3   2  
3887  C402C205           [122] mul        11  11  264  ; 0
388B  A2820001           [123] call       10  2   2  
388F  4C820282           [124] settable   9   260 10   ; "PERCENT"
3893  D2008004           [125] move       3   9      
3897  1A000C80           [126] jmp        49           ; to [176]
389B  53028001           [127] getupval   9   3      
389F  4E42C504           [128] gettable   9   9   277  ; "meleeCombo"
38A3  4EC2C004           [129] gettable   9   9   259  ; "tag"
fail op	35
38A7  23408200           [130] close      0  
38AB  1AC00A80           [131] jmp        44           ; to [176]
38AF  4B420000           [132] newtable   9   0   1    ; array=0, hash=1
38B3  93028001           [133] getupval   10  3      
38B7  8E424505           [134] gettable   10  10  277  ; "meleeCombo"
38BB  A4C24105           [135] self       10  10  263  ; 955459000
38BF  12030001           [136] move       12  2      
38C3  A2828001           [137] call       10  3   2  
38C7  4C82028B           [138] settable   9   278 10   ; "AMOUNT"
38CB  D2008004           [139] move       3   9      
38CF  1A800880           [140] jmp        35           ; to [176]
38D3  5D020000           [141] getglobal  9   0        ; Lotus_Game
38D7  4EC2C504           [142] gettable   9   9   279  ; "AP_WARD"
fail op	35
38DB  23400200           [143] close      0  
38DF  1A800780           [144] jmp        31           ; to [176]
38E3  53020002           [145] getupval   9   4      
38E7  4E02C604           [146] gettable   9   9   280  ; "reflectDamage"
38EB  4EC2C004           [147] gettable   9   9   259  ; "tag"
fail op	35
38EF  23408200           [148] close      0  
38F3  1A000380           [149] jmp        13           ; to [163]
38F7  4B420000           [150] newtable   9   0   1    ; array=0, hash=1
38FB  9D420100           [151] getglobal  10  5        ; math
38FF  8E824105           [152] gettable   10  10  262  ; -150971781
3903  D3020002           [153] getupval   11  4      
3907  CE02C605           [154] gettable   11  11  280  ; "reflectDamage"
390B  E4C2C105           [155] self       11  11  263  ; 955459000
390F  52030001           [156] move       13  2      
3913  E2828001           [157] call       11  3   2  
3917  C402C205           [158] mul        11  11  264  ; 0
391B  A2820001           [159] call       10  2   2  
391F  4C820282           [160] settable   9   260 10   ; "PERCENT"
3923  D2008004           [161] move       3   9      
3927  1A000380           [162] jmp        13           ; to [176]
392B  53020002           [163] getupval   9   4      
392F  4E42C604           [164] gettable   9   9   281  ; "armourBuff"
3933  4EC2C004           [165] gettable   9   9   259  ; "tag"
fail op	35
3937  23408200           [166] close      0  
393B  1AC00180           [167] jmp        8            ; to [176]
393F  4B420000           [168] newtable   9   0   1    ; array=0, hash=1
3943  93020002           [169] getupval   10  4      
3947  8E424605           [170] gettable   10  10  281  ; "armourBuff"
394B  A4C24105           [171] self       10  10  263  ; 955459000
394F  12030001           [172] move       12  2      
3953  A2828001           [173] call       10  3   2  
3957  4C82028D           [174] settable   9   282 10   ; "VALUE"
395B  D2008004           [175] move       3   9      
395F  DE000001           [176] return     3   2      
3963  1E008000           [177] return     0   1      
                         * constants:
3967  1B                 sizek (27)
3968  04                 const type 4
3969  0B                 string size (11)
396A  4C6F7475735F4761+  "Lotus_Ga"
3972  6D6500             "me\0"
                         const [0]: "Lotus_Game"
3975  04                 const type 4
3976  0A                 string size (10)
3977  41505F4154544143+  "AP_ATTAC"
397F  4B00               "K\0"
                         const [1]: "AP_ATTACK"
3981  01                 const type 3
3982  17DDCF0E           const [2]: (248503575)
3986  04                 const type 4
3987  04                 string size (4)
3988  74616700           "tag\0"
                         const [3]: "tag"
398C  04                 const type 4
398D  08                 string size (8)
398E  50455243454E5400   "PERCENT\0"
                         const [4]: "PERCENT"
3996  04                 const type 4
3997  05                 string size (5)
3998  6D61746800         "math\0"
                         const [5]: "math"
399D  01                 const type 3
399E  7B5A00F7           const [6]: (-150971781)
39A2  01                 const type 3
39A3  B825F338           const [7]: (955459000)
39A7  03                 const type 3
39A8  0000C842           const [8]: (0)
39AC  04                 const type 4
39AD  0B                 string size (11)
39AE  41505F444546454E+  "AP_DEFEN"
39B6  534500             "SE\0"
                         const [9]: "AP_DEFENSE"
39B9  04                 const type 4
39BA  09                 string size (9)
39BB  72616469616C5870+  "radialXp"
39C3  00                 "\0"
                         const [10]: "radialXp"
39C4  04                 const type 4
39C5  07                 string size (7)
39C6  52414449555300     "RADIUS\0"
                         const [11]: "RADIUS"
39CD  04                 const type 4
39CE  0E                 string size (14)
39CF  696E7374616E7452+  "instantR"
39D7  657669766500       "evive\0"
                         const [12]: "instantRevive"
39DD  04                 const type 4
39DE  06                 string size (6)
39DF  434F554E5400       "COUNT\0"
                         const [13]: "COUNT"
39E5  04                 const type 4
39E6  09                 string size (9)
39E7  41505F504F574552+  "AP_POWER"
39EF  00                 "\0"
                         const [14]: "AP_POWER"
39F0  04                 const type 4
39F1  0F                 string size (15)
39F2  656E657267794F76+  "energyOv"
39FA  657254696D6500     "erTime\0"
                         const [15]: "energyOverTime"
3A01  04                 const type 4
3A02  09                 string size (9)
3A03  4455524154494F4E+  "DURATION"
3A0B  00                 "\0"
                         const [16]: "DURATION"
3A0C  01                 const type 3
3A0D  3361953D           const [17]: (1033199923)
3A11  04                 const type 4
3A12  12                 string size (18)
3A13  6368616E6E656C45+  "channelE"
3A1B  6666696369656E63+  "fficienc"
3A23  7900               "y\0"
                         const [18]: "channelEfficiency"
3A25  04                 const type 4
3A26  0A                 string size (10)
3A27  41505F5441435449+  "AP_TACTI"
3A2F  4300               "C\0"
                         const [19]: "AP_TACTIC"
3A31  04                 const type 4
3A32  08                 string size (8)
3A33  6D656C6565587000   "meleeXp\0"
                         const [20]: "meleeXp"
3A3B  04                 const type 4
3A3C  0B                 string size (11)
3A3D  6D656C6565436F6D+  "meleeCom"
3A45  626F00             "bo\0"
                         const [21]: "meleeCombo"
3A48  04                 const type 4
3A49  07                 string size (7)
3A4A  414D4F554E5400     "AMOUNT\0"
                         const [22]: "AMOUNT"
3A51  04                 const type 4
3A52  08                 string size (8)
3A53  41505F5741524400   "AP_WARD\0"
                         const [23]: "AP_WARD"
3A5B  04                 const type 4
3A5C  0E                 string size (14)
3A5D  7265666C65637444+  "reflectD"
3A65  616D61676500       "amage\0"
                         const [24]: "reflectDamage"
3A6B  04                 const type 4
3A6C  0B                 string size (11)
3A6D  61726D6F75724275+  "armourBu"
3A75  666600             "ff\0"
                         const [25]: "armourBuff"
3A78  04                 const type 4
3A79  06                 string size (6)
3A7A  56414C554500       "VALUE\0"
                         const [26]: "VALUE"
                         * functions:
3A80  00                 sizep (0)
                         * lines:
3A82  01                 sizelineinfo (177)
                         [pc] (line)
3A83  23                 [001] (35)
3A84  02                 [002] (37)
3A85  00                 [003] (37)
3A86  00                 [004] (37)
3A87  25                 [005] (37)
3A88  02                 [006] (38)
3A89  00                 [007] (38)
3A8A  00                 [008] (38)
3A8B  25                 [009] (38)
3A8C  02                 [010] (39)
3A8D  00                 [011] (39)
3A8E  00                 [012] (39)
3A8F  25                 [013] (40)
3A90  02                 [014] (41)
3A91  00                 [015] (41)
3A92  00                 [016] (41)
3A93  25                 [017] (41)
3A94  02                 [018] (41)
3A95  00                 [019] (41)
3A96  00                 [020] (41)
3A97  26                 [021] (41)
3A98  02                 [022] (42)
3A99  00                 [023] (43)
3A9A  00                 [024] (38)
3A9B  26                 [025] (44)
3A9C  02                 [026] (45)
3A9D  00                 [027] (46)
3A9E  00                 [028] (46)
3A9F  26                 [029] (46)
3AA0  02                 [030] (46)
3AA1  00                 [031] (47)
3AA2  00                 [032] (47)
3AA3  26                 [033] (47)
3AA4  02                 [034] (47)
3AA5  00                 [035] (47)
3AA6  00                 [036] (48)
3AA7  27                 [037] (49)
3AA8  02                 [038] (49)
3AA9  00                 [039] (49)
3AAA  00                 [040] (49)
3AAB  27                 [041] (49)
3AAC  02                 [042] (49)
3AAD  00                 [043] (50)
3AAE  00                 [044] (50)
3AAF  27                 [045] (51)
3AB0  02                 [046] (51)
3AB1  00                 [047] (51)
3AB2  00                 [048] (51)
3AB3  28                 [049] (51)
3AB4  02                 [050] (52)
3AB5  00                 [051] (53)
3AB6  00                 [052] (53)
3AB7  29                 [053] (53)
3AB8  02                 [054] (53)
3AB9  00                 [055] (53)
3ABA  00                 [056] (53)
3ABB  29                 [057] (54)
3ABC  02                 [058] (55)
3ABD  00                 [059] (56)
3ABE  00                 [060] (56)
3ABF  29                 [061] (56)
3AC0  02                 [062] (56)
3AC1  00                 [063] (57)
3AC2  00                 [064] (57)
3AC3  29                 [065] (57)
3AC4  02                 [066] (57)
3AC5  00                 [067] (57)
3AC6  00                 [068] (58)
3AC7  29                 [069] (59)
3AC8  02                 [070] (59)
3AC9  00                 [071] (59)
3ACA  00                 [072] (59)
3ACB  29                 [073] (59)
3ACC  02                 [074] (59)
3ACD  00                 [075] (59)
3ACE  00                 [076] (59)
3ACF  29                 [077] (59)
3AD0  02                 [078] (59)
3AD1  00                 [079] (60)
3AD2  00                 [080] (60)
3AD3  29                 [081] (60)
3AD4  02                 [082] (60)
3AD5  00                 [083] (60)
3AD6  00                 [084] (60)
3AD7  2A                 [085] (61)
3AD8  02                 [086] (61)
3AD9  00                 [087] (62)
3ADA  00                 [088] (62)
3ADB  2B                 [089] (62)
3ADC  02                 [090] (62)
3ADD  00                 [091] (62)
3ADE  00                 [092] (63)
3ADF  26                 [093] (64)
3AE0  02                 [094] (64)
3AE1  00                 [095] (64)
3AE2  00                 [096] (64)
3AE3  2C                 [097] (64)
3AE4  02                 [098] (64)
3AE5  00                 [099] (64)
3AE6  00                 [100] (64)
3AE7  2D                 [101] (64)
3AE8  02                 [102] (64)
3AE9  00                 [103] (65)
3AEA  00                 [104] (66)
3AEB  2E                 [105] (67)
3AEC  02                 [106] (67)
3AED  00                 [107] (67)
3AEE  00                 [108] (67)
3AEF  2E                 [109] (68)
3AF0  02                 [110] (68)
3AF1  00                 [111] (68)
3AF2  00                 [112] (68)
3AF3  2E                 [113] (68)
3AF4  02                 [114] (69)
3AF5  00                 [115] (70)
3AF6  00                 [116] (70)
3AF7  2E                 [117] (70)
3AF8  02                 [118] (70)
3AF9  00                 [119] (70)
3AFA  00                 [120] (70)
3AFB  2F                 [121] (70)
3AFC  02                 [122] (70)
3AFD  00                 [123] (70)
3AFE  00                 [124] (70)
3AFF  2F                 [125] (71)
3B00  02                 [126] (71)
3B01  00                 [127] (72)
3B02  00                 [128] (72)
3B03  2F                 [129] (72)
3B04  02                 [130] (72)
3B05  00                 [131] (72)
3B06  00                 [132] (73)
3B07  2F                 [133] (74)
3B08  02                 [134] (74)
3B09  00                 [135] (74)
3B0A  00                 [136] (74)
3B0B  2F                 [137] (74)
3B0C  02                 [138] (74)
3B0D  00                 [139] (75)
3B0E  00                 [140] (76)
3B0F  30                 [141] (77)
3B10  02                 [142] (77)
3B11  00                 [143] (77)
3B12  00                 [144] (77)
3B13  31                 [145] (78)
3B14  02                 [146] (78)
3B15  00                 [147] (78)
3B16  00                 [148] (78)
3B17  31                 [149] (78)
3B18  02                 [150] (79)
3B19  00                 [151] (80)
3B1A  00                 [152] (80)
3B1B  31                 [153] (80)
3B1C  02                 [154] (80)
3B1D  00                 [155] (80)
3B1E  00                 [156] (80)
3B1F  31                 [157] (80)
3B20  02                 [158] (80)
3B21  00                 [159] (80)
3B22  00                 [160] (80)
3B23  31                 [161] (81)
3B24  02                 [162] (81)
3B25  00                 [163] (82)
3B26  00                 [164] (82)
3B27  31                 [165] (82)
3B28  02                 [166] (82)
3B29  00                 [167] (82)
3B2A  00                 [168] (83)
3B2B  32                 [169] (84)
3B2C  02                 [170] (84)
3B2D  00                 [171] (84)
3B2E  00                 [172] (84)
3B2F  32                 [173] (84)
3B30  02                 [174] (84)
3B31  00                 [175] (85)
3B32  00                 [176] (89)
3B33  33                 [177] (90)
                         * locals:
3D47  00                 sizelocvars (0)
                         * upvalues:
3D48  00                 sizeupvalues (0)
                         ** end of function **

                         
3D49                     ** function [19] definition (level 2)
                         ** start of function **
3D49  00                 string size (0)
                         source name: (none)
3D4B  04                 line defined (604)
3D4C  F1                 last line defined (625)
3D4D  04                 nups (1)
3D4E  01                 numparams (2)
3D4F  02                 is_vararg (0)
3D50  00                 maxstacksize (14)
                         * code:
3D52  28                 sizecode (40)
3D53  A4004000           [01] self       2   0   256  ; -1917464545
3D57  A2800001           [02] call       2   2   2  
3D5B  E4404001           [03] self       3   2   257  ; -1278728152
3D5F  E2800001           [04] call       3   2   2  
3D63  1D810000           [05] getglobal  4   2        ; 1074689893
3D67  52018001           [06] move       5   3      
3D6B  22810001           [07] call       4   2   2  
3D6F  18010000           [08] test       4       0    ; to [10] if true
3D73  1A000080           [09] jmp        1            ; to [11]
3D77  1E008000           [10] return     0   1      
3D7B  13010000           [11] getupval   4   0      
3D7F  0EC14002           [12] gettable   4   4   259  ; "energyOverTime"
3D83  5D010100           [13] getglobal  5   4        ; math
3D87  4E41C102           [14] gettable   5   5   261  ; 1710846250
3D8B  8E814102           [15] gettable   6   4   262  ; "max"
3D8F  E4C1C101           [16] self       7   3   263  ; 871807058
3D93  4E024202           [17] gettable   9   4   264  ; "tag"
3D97  E2018001           [18] call       7   3   0  
3D9B  62810000           [19] call       5   0   2  
fail op	33
3D9F  2140C202           [20] tforloop   0       265  ; to [22] if exit
3DA3  1A000080           [21] jmp        1            ; to [23]
3DA7  1E008000           [22] return     0   1      
3DAB  A4814202           [23] self       6   4   266  ; 955459000
3DAF  12028002           [24] move       8   5      
3DB3  A2818001           [25] call       6   3   2  
3DB7  84410003           [26] mul        6   6   1  
fail op	33
3DBB  21404203           [27] tforloop   0       265  ; to [29] if exit
3DBF  1A000080           [28] jmp        1            ; to [30]
3DC3  1E008000           [29] return     0   1      
3DC7  E4C14202           [30] self       7   4   267  ; 1033199923
3DCB  52028002           [31] move       9   5      
3DCF  E2818001           [32] call       7   3   2  
3DD3  24024301           [33] self       8   2   268  ; -1341856457
3DD7  92028003           [34] move       10  7      
3DDB  CE424302           [35] gettable   11  4   269  ; "upgradeType"
3DDF  1D830300           [36] getglobal  12  14       ; Game
3DE3  0EC34306           [37] gettable   12  12  271  ; "ADD"
3DE7  5CC30103           [38] div        13  6   7  
3DEB  22420003           [39] call       8   6   1  
3DEF  1E008000           [40] return     0   1      
                         * constants:
3DF3  10                 sizek (16)
3DF4  01                 const type 3
3DF5  1FD0B58D           const [0]: (-1917464545)
3DF9  01                 const type 3
3DFA  2828C8B3           const [1]: (-1278728152)
3DFE  01                 const type 3
3DFF  65770E40           const [2]: (1074689893)
3E03  04                 const type 4
3E04  0F                 string size (15)
3E05  656E657267794F76+  "energyOv"
3E0D  657254696D6500     "erTime\0"
                         const [3]: "energyOverTime"
3E14  04                 const type 4
3E15  05                 string size (5)
3E16  6D61746800         "math\0"
                         const [4]: "math"
3E1B  01                 const type 3
3E1C  2A71F965           const [5]: (1710846250)
3E20  04                 const type 4
3E21  04                 string size (4)
3E22  6D617800           "max\0"
                         const [6]: "max"
3E26  01                 const type 3
3E27  52B8F633           const [7]: (871807058)
3E2B  04                 const type 4
3E2C  04                 string size (4)
3E2D  74616700           "tag\0"
                         const [8]: "tag"
3E31  03                 const type 3
3E32  00000000           const [9]: (0)
3E36  01                 const type 3
3E37  B825F338           const [10]: (955459000)
3E3B  01                 const type 3
3E3C  3361953D           const [11]: (1033199923)
3E40  01                 const type 3
3E41  37E504B0           const [12]: (-1341856457)
3E45  04                 const type 4
3E46  0C                 string size (12)
3E47  7570677261646554+  "upgradeT"
3E4F  79706500           "ype\0"
                         const [13]: "upgradeType"
3E53  04                 const type 4
3E54  05                 string size (5)
3E55  47616D6500         "Game\0"
                         const [14]: "Game"
3E5A  04                 const type 4
3E5B  04                 string size (4)
3E5C  41444400           "ADD\0"
                         const [15]: "ADD"
                         * functions:
3E60  00                 sizep (0)
                         * lines:
3E61  28                 sizelineinfo (40)
                         [pc] (line)
3E62  5D                 [01] (93)
3E63  02                 [02] (93)
3E64  00                 [03] (94)
3E65  00                 [04] (94)
3E66  5D                 [05] (95)
3E67  02                 [06] (95)
3E68  00                 [07] (95)
3E69  00                 [08] (95)
3E6A  5E                 [09] (95)
3E6B  02                 [10] (96)
3E6C  00                 [11] (99)
3E6D  00                 [12] (99)
3E6E  5E                 [13] (100)
3E6F  02                 [14] (100)
3E70  00                 [15] (100)
3E71  00                 [16] (100)
3E72  5F                 [17] (100)
3E73  02                 [18] (100)
3E74  00                 [19] (100)
3E75  00                 [20] (102)
3E76  5F                 [21] (102)
3E77  02                 [22] (103)
3E78  00                 [23] (106)
3E79  00                 [24] (106)
3E7A  5F                 [25] (106)
3E7B  02                 [26] (106)
3E7C  00                 [27] (107)
3E7D  00                 [28] (107)
3E7E  5F                 [29] (108)
3E7F  02                 [30] (111)
3E80  00                 [31] (111)
3E81  00                 [32] (111)
3E82  5F                 [33] (112)
3E83  02                 [34] (112)
3E84  00                 [35] (112)
3E85  00                 [36] (112)
3E86  60                 [37] (112)
3E87  02                 [38] (112)
3E88  00                 [39] (112)
3E89  00                 [40] (113)
                         * locals:
3F02  00                 sizelocvars (0)
                         * upvalues:
3F03  00                 sizeupvalues (0)
                         ** end of function **

                         
3F04                     ** function [20] definition (level 2)
                         ** start of function **
3F04  00                 string size (0)
                         source name: (none)
3F06  04                 line defined (627)
3F07  80                 last line defined (640)
3F08  05                 nups (1)
3F09  01                 numparams (0)
3F0A  00                 is_vararg (0)
3F0B  00                 maxstacksize (8)
                         * code:
3F0D  24                 sizecode (36)
3F0E  1D000000           [01] getglobal  0   0        ; gGameRules
3F12  24404000           [02] self       0   0   257  ; -1957065004
3F16  9D800000           [03] getglobal  2   2        ; gLotusAttractModeGameRulesType
3F1A  22808001           [04] call       0   3   2  
3F1E  18400000           [05] test       0       1    ; to [7] if false
3F22  1A800680           [06] jmp        27           ; to [34]
3F26  1D000000           [07] getglobal  0   0        ; gGameRules
3F2A  24C04000           [08] self       0   0   259  ; -1201441975
3F2E  22800001           [09] call       0   2   2  
3F32  5D000100           [10] getglobal  1   4        ; 1074689893
3F36  92000000           [11] move       2   0      
3F3A  62800001           [12] call       1   2   2  
3F3E  58400000           [13] test       1       1    ; to [15] if false
3F42  1A800480           [14] jmp        19           ; to [34]
3F46  4E404100           [15] gettable   1   0   261  ; "levelKeyName"
3F4A  99800100           [16] loadk      2   6        ; 0
3F4E  D3000000           [17] getupval   3   0      
3F52  CA008001           [18] len        3   3      
3F56  19810100           [19] loadk      4   6        ; 0
3F5A  90C00280           [20] forprep    2   12       ; to [33]
3F5E  9D010100           [21] getglobal  6   4        ; 1074689893
3F62  D3010000           [22] getupval   7   0      
3F66  CE418103           [23] gettable   7   7   5  
3F6A  A2810001           [24] call       6   2   2  
3F6E  98410000           [25] test       6       1    ; to [27] if false
3F72  1A400180           [26] jmp        6            ; to [33]
3F76  93010000           [27] getupval   6   0      
3F7A  8E410103           [28] gettable   6   6   5  
fail op	35
3F7E  23400003           [29] close      0  
3F82  1A400080           [30] jmp        2            ; to [33]
3F86  97018000           [31] loadbool   6   1   0    ; true
3F8A  9E010001           [32] return     6   2      
3F8E  9480FC7F           [33] forloop    2   -13      ; to [21] if loop
3F92  97010000           [34] loadbool   6   0   0    ; false
3F96  9E010001           [35] return     6   2      
3F9A  1E008000           [36] return     0   1      
                         * constants:
3F9E  07                 sizek (7)
3F9F  04                 const type 4
3FA0  0B                 string size (11)
3FA1  6747616D6552756C+  "gGameRul"
3FA9  657300             "es\0"
                         const [0]: "gGameRules"
3FAC  01                 const type 3
3FAD  D48E598B           const [1]: (-1957065004)
3FB1  04                 const type 4
3FB2  1F                 string size (31)
3FB3  674C6F7475734174+  "gLotusAt"
3FBB  74726163744D6F64+  "tractMod"
3FC3  6547616D6552756C+  "eGameRul"
3FCB  65735479706500     "esType\0"
                         const [2]: "gLotusAttractModeGameRulesType"
3FD2  01                 const type 3
3FD3  497363B8           const [3]: (-1201441975)
3FD7  01                 const type 3
3FD8  65770E40           const [4]: (1074689893)
3FDC  04                 const type 4
3FDD  0D                 string size (13)
3FDE  6C6576656C4B6579+  "levelKey"
3FE6  4E616D6500         "Name\0"
                         const [5]: "levelKeyName"
3FEB  03                 const type 3
3FEC  0000803F           const [6]: (0)
                         * functions:
3FF0  00                 sizep (0)
                         * lines:
3FF1  24                 sizelineinfo (36)
                         [pc] (line)
3FF2  74                 [01] (116)
3FF3  02                 [02] (116)
3FF4  00                 [03] (116)
3FF5  00                 [04] (116)
3FF6  74                 [05] (116)
3FF7  02                 [06] (116)
3FF8  00                 [07] (117)
3FF9  00                 [08] (117)
3FFA  74                 [09] (117)
3FFB  02                 [10] (118)
3FFC  00                 [11] (118)
3FFD  00                 [12] (118)
3FFE  74                 [13] (118)
3FFF  02                 [14] (118)
4000  00                 [15] (119)
4001  00                 [16] (120)
4002  74                 [17] (120)
4003  02                 [18] (120)
4004  00                 [19] (120)
4005  00                 [20] (120)
4006  74                 [21] (121)
4007  02                 [22] (121)
4008  00                 [23] (121)
4009  00                 [24] (121)
400A  75                 [25] (121)
400B  02                 [26] (121)
400C  00                 [27] (121)
400D  00                 [28] (121)
400E  75                 [29] (121)
400F  02                 [30] (121)
4010  00                 [31] (122)
4011  00                 [32] (122)
4012  75                 [33] (120)
4013  02                 [34] (127)
4014  00                 [35] (127)
4015  00                 [36] (-128)
                         * locals:
4082  00                 sizelocvars (0)
                         * upvalues:
4083  00                 sizeupvalues (0)
                         ** end of function **

                         
4084                     ** function [21] definition (level 2)
                         ** start of function **
4084  00                 string size (0)
                         source name: (none)
4086  05                 line defined (642)
4087  84                 last line defined (644)
4088  05                 nups (1)
4089  01                 numparams (0)
408A  00                 is_vararg (0)
408B  00                 maxstacksize (2)
                         * code:
408D  04                 sizecode (4)
408E  13000000           [1] getupval   0   0      
4092  22808000           [2] call       0   1   2  
4096  1E000001           [3] return     0   2      
409A  1E008000           [4] return     0   1      
                         * constants:
409E  00                 sizek (0)
                         * functions:
409F  00                 sizep (0)
                         * lines:
40A0  04                 sizelineinfo (4)
                         [pc] (line)
40A1  83                 [1] (-125)
40A2  02                 [2] (-125)
40A3  00                 [3] (-125)
40A4  00                 [4] (-124)
                         * locals:
40B1  00                 sizelocvars (0)
                         * upvalues:
40B2  00                 sizeupvalues (0)
                         ** end of function **

                         
40B3                     ** function [22] definition (level 2)
                         ** start of function **
40B3  00                 string size (0)
                         source name: (none)
40B5  05                 line defined (646)
40B6  9E                 last line defined (670)
40B7  05                 nups (0)
40B8  00                 numparams (2)
40B9  02                 is_vararg (0)
40BA  00                 maxstacksize (6)
                         * code:
40BC  2B                 sizecode (43)
40BD  9D000000           [01] getglobal  2   0        ; 1074689893
40C1  D2000000           [02] move       3   0      
40C5  A2800001           [03] call       2   2   2  
40C9  98400000           [04] test       2       1    ; to [6] if false
40CD  1A000180           [05] jmp        5            ; to [11]
40D1  9D000000           [06] getglobal  2   0        ; 1074689893
40D5  D2008000           [07] move       3   1      
40D9  A2800001           [08] call       2   2   2  
40DD  98000000           [09] test       2       0    ; to [11] if true
40E1  1A400080           [10] jmp        2            ; to [13]
40E5  86000001           [11] loadnil    2   2      
40E9  9E000001           [12] return     2   2      
40ED  A440C000           [13] self       2   1   257  ; -564624675
40F1  A2800001           [14] call       2   2   2  
40F5  DD000000           [15] getglobal  3   0        ; 1074689893
40F9  12010001           [16] move       4   2      
40FD  E2800001           [17] call       3   2   2  
4101  D8000000           [18] test       3       0    ; to [20] if true
4105  1A400080           [19] jmp        2            ; to [22]
4109  C6008001           [20] loadnil    3   3      
410D  DE000001           [21] return     3   2      
4111  E4804000           [22] self       3   0   258  ; -1130691958
4115  E2800001           [23] call       3   2   2  
4119  D8400000           [24] test       3       1    ; to [26] if false
411D  1AC00280           [25] jmp        12           ; to [38]
4121  E4C04001           [26] self       3   2   259  ; -1888201767
4125  E2800001           [27] call       3   2   2  
4129  1D010000           [28] getglobal  4   0        ; 1074689893
412D  52018001           [29] move       5   3      
4131  22810001           [30] call       4   2   2  
4135  18010000           [31] test       4       0    ; to [33] if true
4139  1A800080           [32] jmp        3            ; to [36]
413D  19010100           [33] loadk      4   4        ; 0
4141  1E010001           [34] return     4   2      
4145  1A000180           [35] jmp        5            ; to [41]
4149  DE000001           [36] return     3   2      
414D  1A800080           [37] jmp        3            ; to [41]
4151  1D410100           [38] getglobal  4   5        ; -1817107093
4155  59810100           [39] loadk      5   6        ; "Error: Transference instigated by operator should be evaluated via OperatorTransference, not OperatorLib"
4159  22410001           [40] call       4   2   1  
415D  06010002           [41] loadnil    4   4      
4161  1E010001           [42] return     4   2      
4165  1E008000           [43] return     0   1      
                         * constants:
4169  07                 sizek (7)
416A  01                 const type 3
416B  65770E40           const [0]: (1074689893)
416F  01                 const type 3
4170  DD8258DE           const [1]: (-564624675)
4174  01                 const type 3
4175  8A029BBC           const [2]: (-1130691958)
4179  01                 const type 3
417A  D953748F           const [3]: (-1888201767)
417E  03                 const type 3
417F  0000803F           const [4]: (0)
4183  01                 const type 3
4184  6B25B193           const [5]: (-1817107093)
4188  04                 const type 4
4189  69                 string size (105)
418A  4572726F723A2054+  "Error: T"
4192  72616E7366657265+  "ransfere"
419A  6E636520696E7374+  "nce inst"
41A2  6967617465642062+  "igated b"
41AA  79206F7065726174+  "y operat"
41B2  6F722073686F756C+  "or shoul"
41BA  6420626520657661+  "d be eva"
41C2  6C75617465642076+  "luated v"
41CA  6961204F70657261+  "ia Opera"
41D2  746F725472616E73+  "torTrans"
41DA  666572656E63652C+  "ference,"
41E2  206E6F74204F7065+  " not Ope"
41EA  7261746F724C6962+  "ratorLib"
41F2  00                 "\0"
                         const [6]: "Error: Transference instigated by operator should be evaluated via OperatorTransference, not OperatorLib"
                         * functions:
41F3  00                 sizep (0)
                         * lines:
41F4  2B                 sizelineinfo (43)
                         [pc] (line)
41F5  88                 [01] (-120)
41F6  02                 [02] (-120)
41F7  00                 [03] (-120)
41F8  00                 [04] (-120)
41F9  88                 [05] (-120)
41FA  02                 [06] (-120)
41FB  00                 [07] (-120)
41FC  00                 [08] (-120)
41FD  88                 [09] (-120)
41FE  02                 [10] (-120)
41FF  00                 [11] (-119)
4200  00                 [12] (-119)
4201  88                 [13] (-116)
4202  02                 [14] (-116)
4203  00                 [15] (-115)
4204  00                 [16] (-115)
4205  88                 [17] (-115)
4206  02                 [18] (-115)
4207  00                 [19] (-115)
4208  00                 [20] (-114)
4209  88                 [21] (-114)
420A  02                 [22] (-111)
420B  00                 [23] (-111)
420C  00                 [24] (-111)
420D  88                 [25] (-111)
420E  02                 [26] (-110)
420F  00                 [27] (-110)
4210  00                 [28] (-108)
4211  88                 [29] (-108)
4212  02                 [30] (-108)
4213  00                 [31] (-108)
4214  00                 [32] (-108)
4215  88                 [33] (-107)
4216  02                 [34] (-107)
4217  00                 [35] (-107)
4218  00                 [36] (-105)
4219  88                 [37] (-104)
421A  02                 [38] (-102)
421B  00                 [39] (-102)
421C  00                 [40] (-102)
421D  89                 [41] (-99)
421E  02                 [42] (-99)
421F  00                 [43] (-98)
                         * locals:
42A1  00                 sizelocvars (0)
                         * upvalues:
42A2  00                 sizeupvalues (0)
                         ** end of function **

                         
42A3                     ** function [23] definition (level 2)
                         ** start of function **
42A3  00                 string size (0)
                         source name: (none)
42A5  05                 line defined (672)
42A6  AC                 last line defined (684)
42A7  05                 nups (0)
42A8  00                 numparams (0)
42A9  00                 is_vararg (0)
42AA  00                 maxstacksize (5)
                         * code:
42AC  17                 sizecode (23)
42AD  1D000000           [01] getglobal  0   0        ; Lotus_Game
42B1  0E404000           [02] gettable   0   0   257  ; "OT_NONE"
42B5  5D800000           [03] getglobal  1   2        ; gPlayerProfileMgr
42B9  64C0C000           [04] self       1   1   259  ; 569342746
42BD  D9000100           [05] loadk      3   4        ; 0
42C1  62808001           [06] call       1   3   2  
42C5  9D400100           [07] getglobal  2   5        ; 1074689893
42C9  D2008000           [08] move       3   1      
42CD  A2800001           [09] call       2   2   2  
42D1  98400000           [10] test       2       1    ; to [12] if false
42D5  1A400280           [11] jmp        10           ; to [22]
42D9  A480C100           [12] self       2   1   262  ; 1699680402
42DD  A2800001           [13] call       2   2   2  
42E1  DD400100           [14] getglobal  3   5        ; 1074689893
42E5  12010001           [15] move       4   2      
42E9  E2800001           [16] call       3   2   2  
42ED  D8400000           [17] test       3       1    ; to [19] if false
42F1  1A800080           [18] jmp        3            ; to [22]
42F5  E4C04101           [19] self       3   2   263  ; -1769100871
42F9  E2800001           [20] call       3   2   2  
42FD  12008001           [21] move       0   3      
4301  1E000001           [22] return     0   2      
4305  1E008000           [23] return     0   1      
                         * constants:
4309  08                 sizek (8)
430A  04                 const type 4
430B  0B                 string size (11)
430C  4C6F7475735F4761+  "Lotus_Ga"
4314  6D6500             "me\0"
                         const [0]: "Lotus_Game"
4317  04                 const type 4
4318  08                 string size (8)
4319  4F545F4E4F4E4500   "OT_NONE\0"
                         const [1]: "OT_NONE"
4321  04                 const type 4
4322  12                 string size (18)
4323  67506C6179657250+  "gPlayerP"
432B  726F66696C654D67+  "rofileMg"
4333  7200               "r\0"
                         const [2]: "gPlayerProfileMgr"
4335  01                 const type 3
4336  1A7BEF21           const [3]: (569342746)
433A  03                 const type 3
433B  00000000           const [4]: (0)
433F  01                 const type 3
4340  65770E40           const [5]: (1074689893)
4344  01                 const type 3
4345  92104F65           const [6]: (1699680402)
4349  01                 const type 3
434A  B9A98D96           const [7]: (-1769100871)
                         * functions:
434E  00                 sizep (0)
                         * lines:
434F  17                 sizelineinfo (23)
                         [pc] (line)
4350  A1                 [01] (-95)
4351  02                 [02] (-95)
4352  00                 [03] (-93)
4353  00                 [04] (-93)
4354  A1                 [05] (-93)
4355  02                 [06] (-93)
4356  00                 [07] (-92)
4357  00                 [08] (-92)
4358  A3                 [09] (-92)
4359  02                 [10] (-92)
435A  00                 [11] (-92)
435B  00                 [12] (-91)
435C  A3                 [13] (-91)
435D  02                 [14] (-90)
435E  00                 [15] (-90)
435F  00                 [16] (-90)
4360  A3                 [17] (-90)
4361  02                 [18] (-90)
4362  00                 [19] (-89)
4363  00                 [20] (-89)
4364  A3                 [21] (-89)
4365  02                 [22] (-85)
4366  00                 [23] (-84)
                         * locals:
43AC  00                 sizelocvars (0)
                         * upvalues:
43AD  00                 sizeupvalues (0)
                         ** end of function **

                         
43AE                     ** function [24] definition (level 2)
                         ** start of function **
43AE  00                 string size (0)
                         source name: (none)
43B0  05                 line defined (686)
43B1  B0                 last line defined (688)
43B2  05                 nups (1)
43B3  01                 numparams (0)
43B4  00                 is_vararg (0)
43B5  00                 maxstacksize (2)
                         * code:
43B7  04                 sizecode (4)
43B8  13000000           [1] getupval   0   0      
43BC  07008000           [2] tailcall   0   1   0  
43C0  1E000000           [3] return     0   0      
43C4  1E008000           [4] return     0   1      
                         * constants:
43C8  00                 sizek (0)
                         * functions:
43C9  00                 sizep (0)
                         * lines:
43CA  04                 sizelineinfo (4)
                         [pc] (line)
43CB  AF                 [1] (-81)
43CC  02                 [2] (-81)
43CD  00                 [3] (-81)
43CE  00                 [4] (-80)
                         * locals:
43DB  00                 sizelocvars (0)
                         * upvalues:
43DC  00                 sizeupvalues (0)
                         ** end of function **

                         
43DD                     ** function [25] definition (level 2)
                         ** start of function **
43DD  00                 string size (0)
                         source name: (none)
43DF  05                 line defined (690)
43E0  F9                 last line defined (761)
43E1  05                 nups (5)
43E2  05                 numparams (2)
43E3  02                 is_vararg (0)
43E4  00                 maxstacksize (18)
                         * code:
43E7  01                 sizecode (205)
43E8  97000000           [001] loadbool   2   0   0    ; false
43EC  E400C000           [002] self       3   1   256  ; 263007870
43F0  E2800001           [003] call       3   2   2  
43F4  D8400000           [004] test       3       1    ; to [6] if false
43F8  1AC03080           [005] jmp        196          ; to [202]
43FC  D3000000           [006] getupval   3   0      
4400  E2808000           [007] call       3   1   2  
4404  1D410000           [008] getglobal  4   1        ; Lotus_Game
4408  0E814002           [009] gettable   4   4   258  ; "OT_PHYSICAL"
fail op	35
440C  63008101           [010] close      1  
4410  1AC00080           [011] jmp        4            ; to [16]
4414  1D410000           [012] getglobal  4   1        ; Lotus_Game
4418  0EC14002           [013] gettable   4   4   259  ; "OT_COMBAT"
fail op	35
441C  23008101           [014] close      0  
4420  1A802480           [015] jmp        147          ; to [163]
4424  13018000           [016] getupval   4   1      
4428  52010000           [017] move       5   0      
442C  92018000           [018] move       6   1      
4430  22818001           [019] call       4   3   2  
4434  5D010100           [020] getglobal  5   4        ; 1074689893
4438  92010002           [021] move       6   4      
443C  62810001           [022] call       5   2   2  
4440  58410000           [023] test       5       1    ; to [25] if false
4444  1A002C80           [024] jmp        177          ; to [202]
4448  5D010100           [025] getglobal  5   4        ; 1074689893
444C  9D410100           [026] getglobal  6   5        ; gGameRules
4450  62810001           [027] call       5   2   2  
4454  58410000           [028] test       5       1    ; to [30] if false
4458  1A000780           [029] jmp        29           ; to [59]
445C  5D410100           [030] getglobal  5   5        ; gGameRules
4460  6481C102           [031] self       5   5   262  ; -1957065004
4464  DDC10100           [032] getglobal  7   7        ; gLotusAttractModeGameRulesType
4468  62818001           [033] call       5   3   2  
446C  58410000           [034] test       5       1    ; to [36] if false
4470  1A800380           [035] jmp        15           ; to [51]
4474  5D410100           [036] getglobal  5   5        ; gGameRules
4478  6401C202           [037] self       5   5   264  ; -1201441975
447C  62810001           [038] call       5   2   2  
4480  9D010100           [039] getglobal  6   4        ; 1074689893
4484  D2018002           [040] move       7   5      
4488  A2810001           [041] call       6   2   2  
448C  98410000           [042] test       6       1    ; to [44] if false
4490  1A800380           [043] jmp        15           ; to [59]
4494  8E41C202           [044] gettable   6   5   265  ; "transferenceDisabled"
4498  98010000           [045] test       6       0    ; to [47] if true
449C  1AC00280           [046] jmp        12           ; to [59]
44A0  97010000           [047] loadbool   6   0   0    ; false
44A4  D2010001           [048] move       7   2      
44A8  9E018001           [049] return     6   3      
44AC  1AC00180           [050] jmp        8            ; to [59]
44B0  9D810200           [051] getglobal  6   10       ; gRegion
44B4  A4C14203           [052] self       6   6   267  ; -1520831144
44B8  A2810001           [053] call       6   2   2  
44BC  98410000           [054] test       6       1    ; to [56] if false
44C0  1A800080           [055] jmp        3            ; to [59]
44C4  97010000           [056] loadbool   6   0   0    ; false
44C8  D2010001           [057] move       7   2      
44CC  9E018001           [058] return     6   3      
fail op	35
44D0  63004302           [059] close      1  
44D4  1A000280           [060] jmp        9            ; to [70]
44D8  A4814102           [061] self       6   4   262  ; -1957065004
44DC  1D420300           [062] getglobal  8   13       ; gLotusAvatarType
44E0  A2818001           [063] call       6   3   2  
44E4  98010000           [064] test       6       0    ; to [66] if true
44E8  1AC02180           [065] jmp        136          ; to [202]
44EC  A4014002           [066] self       6   4   256  ; 263007870
44F0  A2810001           [067] call       6   2   2  
44F4  98410000           [068] test       6       1    ; to [70] if false
44F8  1AC02080           [069] jmp        132          ; to [202]
44FC  A481C300           [070] self       6   1   270  ; -947668385
4500  A2810001           [071] call       6   2   2  
4504  98410000           [072] test       6       1    ; to [74] if false
4508  1AC00180           [073] jmp        8            ; to [82]
450C  A4C1C300           [074] self       6   1   271  ; 521725352
4510  1D020400           [075] getglobal  8   16       ; -332969190
4514  59420400           [076] loadk      9   17       ; "/Lotus/Language/Game/AbilityErrorNotReady"
4518  22020001           [077] call       8   2   0  
451C  A2410000           [078] call       6   0   1  
4520  97010000           [079] loadbool   6   0   0    ; false
4524  D2010001           [080] move       7   2      
4528  9E018001           [081] return     6   3      
452C  A4814400           [082] self       6   0   274  ; -340119509
4530  13020001           [083] getupval   8   2      
4534  A2818001           [084] call       6   3   2  
4538  DD010100           [085] getglobal  7   4        ; 1074689893
453C  12020003           [086] move       8   6      
4540  E2810001           [087] call       7   2   2  
4544  D8410000           [088] test       7       1    ; to [90] if false
4548  1A400080           [089] jmp        2            ; to [92]
454C  E4C14403           [090] self       7   6   275  ; -408017483
4550  E2810001           [091] call       7   2   2  
4554  17028000           [092] loadbool   8   1   0    ; true
4558  D8410000           [093] test       7       1    ; to [95] if false
455C  1AC00880           [094] jmp        36           ; to [131]
4560  6402C500           [095] self       9   1   276  ; -1764426596
4564  62820001           [096] call       9   2   2  
4568  9D020100           [097] getglobal  10  4        ; 1074689893
456C  D2028004           [098] move       11  9      
4570  A2820001           [099] call       10  2   2  
4574  98420000           [100] test       10      1    ; to [102] if false
4578  1A000780           [101] jmp        29           ; to [131]
457C  A442C504           [102] self       10  9   277  ; -1888201767
4580  A2820001           [103] call       10  2   2  
4584  DD020100           [104] getglobal  11  4        ; 1074689893
4588  12030005           [105] move       12  10     
458C  E2820001           [106] call       11  2   2  
4590  D8420000           [107] test       11      1    ; to [109] if false
4594  1A400580           [108] jmp        22           ; to [131]
4598  E4824505           [109] self       11  10  278  ; -1917464545
459C  E2820001           [110] call       11  2   2  
45A0  1D030100           [111] getglobal  12  4        ; 1074689893
45A4  52038005           [112] move       13  11     
45A8  22830001           [113] call       12  2   2  
45AC  18430000           [114] test       12      1    ; to [116] if false
45B0  1A800380           [115] jmp        15           ; to [131]
45B4  24C3C505           [116] self       12  11  279  ; 1769516121
45B8  22830001           [117] call       12  2   2  
45BC  5D030100           [118] getglobal  13  4        ; 1074689893
45C0  92030006           [119] move       14  12     
45C4  62830001           [120] call       13  2   2  
45C8  58430000           [121] test       13      1    ; to [123] if false
45CC  1AC00180           [122] jmp        8            ; to [131]
45D0  64034606           [123] self       13  12  280  ; 1722612532
45D4  62830001           [124] call       13  2   2  
45D8  A4434605           [125] self       14  10  281  ; -675391972
45DC  A2830001           [126] call       14  2   2  
fail op	33
45E0  61400307           [127] tforloop   1       13   ; to [129] if exit
45E4  1A000080           [128] jmp        1            ; to [130]
45E8  17420000           [129] loadbool   8   0   1    ; false, to [131]
45EC  17028000           [130] loadbool   8   1   0    ; true
45F0  D8410000           [131] test       7       1    ; to [133] if false
45F4  1A400080           [132] jmp        2            ; to [135]
45F8  18420000           [133] test       8       1    ; to [135] if false
45FC  1AC00180           [134] jmp        8            ; to [143]
4600  64C3C300           [135] self       13  1   271  ; 521725352
4604  DD030400           [136] getglobal  15  16       ; -332969190
4608  19440400           [137] loadk      16  17       ; "/Lotus/Language/Game/AbilityErrorNotReady"
460C  E2030001           [138] call       15  2   0  
4610  62430000           [139] call       13  0   1  
4614  57030000           [140] loadbool   13  0   0    ; false
4618  92030001           [141] move       14  2      
461C  5E038001           [142] return     13  3      
fail op	35
4620  23004302           [143] close      0  
4624  1A000080           [144] jmp        1            ; to [146]
4628  06010002           [145] loadnil    4   4      
462C  64834600           [146] self       13  0   282  ; -1398432575
4630  D2030002           [147] move       15  4      
4634  62438001           [148] call       13  3   1  
4638  64C3C600           [149] self       13  1   283  ; -1143195026
463C  D7038000           [150] loadbool   15  1   0    ; true
4640  62438001           [151] call       13  3   1  
4644  64034700           [152] self       13  0   284  ; -1751772577
4648  D2030003           [153] move       15  6      
464C  17048000           [154] loadbool   16  1   0    ; true
4650  62830002           [155] call       13  4   2  
4654  92008006           [156] move       2   13     
4658  98400000           [157] test       2       1    ; to [159] if false
465C  1A800A80           [158] jmp        43           ; to [202]
4660  64C3C600           [159] self       13  1   283  ; -1143195026
4664  D7030000           [160] loadbool   15  0   0    ; false
4668  62438001           [161] call       13  3   1  
466C  1A800980           [162] jmp        39           ; to [202]
4670  5D430000           [163] getglobal  13  1        ; Lotus_Game
4674  4E43C706           [164] gettable   13  13  285  ; "OT_GHOST"
fail op	35
4678  23408301           [165] close      0  
467C  1A800880           [166] jmp        35           ; to [202]
4680  53038001           [167] getupval   13  3      
4684  4E83C706           [168] gettable   13  13  286  ; -2065906648
4688  62838000           [169] call       13  1   2  
468C  93038001           [170] getupval   14  3      
4690  8EC34707           [171] gettable   14  14  287  ; "UI_MODE_IN_SPACE_SHIP"
fail op	35
4694  63808306           [172] close      1  
4698  1AC00680           [173] jmp        28           ; to [202]
469C  64034800           [174] self       13  0   288  ; -363477704
46A0  D3030002           [175] getupval   15  4      
46A4  62838001           [176] call       13  3   2  
46A8  A443C806           [177] self       14  13  289  ; -1318145181
46AC  A2830001           [178] call       14  2   2  
fail op	21
46B0  55800391           [179] concat     1   290 14 
46B4  1A400280           [180] jmp        10           ; to [191]
46B8  9D030100           [181] getglobal  14  4        ; 1074689893
46BC  DDC30800           [182] getglobal  15  35       ; _T
46C0  CE03C907           [183] gettable   15  15  292  ; "spawningOperator"
46C4  A2830001           [184] call       14  2   2  
46C8  98430000           [185] test       14      1    ; to [187] if false
46CC  1AC00280           [186] jmp        12           ; to [199]
46D0  9DC30800           [187] getglobal  14  35       ; _T
46D4  8E034907           [188] gettable   14  14  292  ; "spawningOperator"
46D8  98030000           [189] test       14      0    ; to [191] if true
46DC  1AC00180           [190] jmp        8            ; to [199]
46E0  A4C3C300           [191] self       14  1   271  ; 521725352
46E4  1D040400           [192] getglobal  16  16       ; -332969190
46E8  59440400           [193] loadk      17  17       ; "/Lotus/Language/Game/AbilityErrorNotReady"
46EC  22040001           [194] call       16  2   0  
46F0  A2430000           [195] call       14  0   1  
46F4  97030000           [196] loadbool   14  0   0    ; false
46F8  D2030001           [197] move       15  2      
46FC  9E038001           [198] return     14  3      
4700  97038000           [199] loadbool   14  1   0    ; true
4704  D2030001           [200] move       15  2      
4708  9E038001           [201] return     14  3      
470C  97030000           [202] loadbool   14  0   0    ; false
4710  D2030001           [203] move       15  2      
4714  9E038001           [204] return     14  3      
4718  1E008000           [205] return     0   1      
                         * constants:
471C  25                 sizek (37)
471D  01                 const type 3
471E  7E2EAD0F           const [0]: (263007870)
4722  04                 const type 4
4723  0B                 string size (11)
4724  4C6F7475735F4761+  "Lotus_Ga"
472C  6D6500             "me\0"
                         const [1]: "Lotus_Game"
472F  04                 const type 4
4730  0C                 string size (12)
4731  4F545F5048595349+  "OT_PHYSI"
4739  43414C00           "CAL\0"
                         const [2]: "OT_PHYSICAL"
473D  04                 const type 4
473E  0A                 string size (10)
473F  4F545F434F4D4241+  "OT_COMBA"
4747  5400               "T\0"
                         const [3]: "OT_COMBAT"
4749  01                 const type 3
474A  65770E40           const [4]: (1074689893)
474E  04                 const type 4
474F  0B                 string size (11)
4750  6747616D6552756C+  "gGameRul"
4758  657300             "es\0"
                         const [5]: "gGameRules"
475B  01                 const type 3
475C  D48E598B           const [6]: (-1957065004)
4760  04                 const type 4
4761  1F                 string size (31)
4762  674C6F7475734174+  "gLotusAt"
476A  74726163744D6F64+  "tractMod"
4772  6547616D6552756C+  "eGameRul"
477A  65735479706500     "esType\0"
                         const [7]: "gLotusAttractModeGameRulesType"
4781  01                 const type 3
4782  497363B8           const [8]: (-1201441975)
4786  04                 const type 4
4787  15                 string size (21)
4788  7472616E73666572+  "transfer"
4790  656E636544697361+  "enceDisa"
4798  626C656400         "bled\0"
                         const [9]: "transferenceDisabled"
479D  04                 const type 4
479E  08                 string size (8)
479F  67526567696F6E00   "gRegion\0"
                         const [10]: "gRegion"
47A7  01                 const type 3
47A8  58F559A5           const [11]: (-1520831144)
47AC  03                 const type 3
47AD  0000803F           const [12]: (0)
47B1  04                 const type 4
47B2  11                 string size (17)
47B3  674C6F7475734176+  "gLotusAv"
47BB  6174617254797065+  "atarType"
47C3  00                 "\0"
                         const [13]: "gLotusAvatarType"
47C4  01                 const type 3
47C5  5FBA83C7           const [14]: (-947668385)
47C9  01                 const type 3
47CA  A8E5181F           const [15]: (521725352)
47CE  01                 const type 3
47CF  1A4B27EC           const [16]: (-332969190)
47D3  04                 const type 4
47D4  2A                 string size (42)
47D5  2F4C6F7475732F4C+  "/Lotus/L"
47DD  616E67756167652F+  "anguage/"
47E5  47616D652F416269+  "Game/Abi"
47ED  6C6974794572726F+  "lityErro"
47F5  724E6F7452656164+  "rNotRead"
47FD  7900               "y\0"
                         const [17]: "/Lotus/Language/Game/AbilityErrorNotReady"
47FF  01                 const type 3
4800  2B30BAEB           const [18]: (-340119509)
4804  01                 const type 3
4805  B525AEE7           const [19]: (-408017483)
4809  01                 const type 3
480A  9CFCD496           const [20]: (-1764426596)
480E  01                 const type 3
480F  D953748F           const [21]: (-1888201767)
4813  01                 const type 3
4814  1FD0B58D           const [22]: (-1917464545)
4818  01                 const type 3
4819  59AC7869           const [23]: (1769516121)
481D  01                 const type 3
481E  34FBAC66           const [24]: (1722612532)
4822  01                 const type 3
4823  1C56BED7           const [25]: (-675391972)
4827  01                 const type 3
4828  C19CA5AC           const [26]: (-1398432575)
482C  01                 const type 3
482D  6E3ADCBB           const [27]: (-1143195026)
4831  01                 const type 3
4832  5F129697           const [28]: (-1751772577)
4836  04                 const type 4
4837  09                 string size (9)
4838  4F545F47484F5354+  "OT_GHOST"
4840  00                 "\0"
                         const [29]: "OT_GHOST"
4841  01                 const type 3
4842  28C4DC84           const [30]: (-2065906648)
4846  04                 const type 4
4847  16                 string size (22)
4848  55495F4D4F44455F+  "UI_MODE_"
4850  494E5F5350414345+  "IN_SPACE"
4858  5F5348495000       "_SHIP\0"
                         const [31]: "UI_MODE_IN_SPACE_SHIP"
485E  01                 const type 3
485F  38C555EA           const [32]: (-363477704)
4863  01                 const type 3
4864  63B36EB1           const [33]: (-1318145181)
4868  03                 const type 3
4869  00000000           const [34]: (0)
486D  04                 const type 4
486E  03                 string size (3)
486F  5F5400             "_T\0"
                         const [35]: "_T"
4872  04                 const type 4
4873  11                 string size (17)
4874  737061776E696E67+  "spawning"
487C  4F70657261746F72+  "Operator"
4884  00                 "\0"
                         const [36]: "spawningOperator"
                         * functions:
4885  00                 sizep (0)
                         * lines:
4887  01                 sizelineinfo (205)
                         [pc] (line)
4888  B3                 [001] (-77)
4889  02                 [002] (-76)
488A  00                 [003] (-76)
488B  00                 [004] (-76)
488C  B4                 [005] (-76)
488D  02                 [006] (-75)
488E  00                 [007] (-75)
488F  00                 [008] (-74)
4890  B4                 [009] (-74)
4891  02                 [010] (-74)
4892  00                 [011] (-74)
4893  00                 [012] (-74)
4894  B4                 [013] (-74)
4895  02                 [014] (-74)
4896  00                 [015] (-74)
4897  00                 [016] (-73)
4898  B4                 [017] (-73)
4899  02                 [018] (-73)
489A  00                 [019] (-73)
489B  00                 [020] (-72)
489C  B5                 [021] (-72)
489D  02                 [022] (-72)
489E  00                 [023] (-72)
489F  00                 [024] (-72)
48A0  B5                 [025] (-71)
48A1  02                 [026] (-71)
48A2  00                 [027] (-71)
48A3  00                 [028] (-71)
48A4  B6                 [029] (-71)
48A5  02                 [030] (-70)
48A6  00                 [031] (-70)
48A7  00                 [032] (-70)
48A8  B6                 [033] (-70)
48A9  02                 [034] (-70)
48AA  00                 [035] (-70)
48AB  00                 [036] (-69)
48AC  B6                 [037] (-69)
48AD  02                 [038] (-69)
48AE  00                 [039] (-68)
48AF  00                 [040] (-68)
48B0  B6                 [041] (-68)
48B1  02                 [042] (-68)
48B2  00                 [043] (-68)
48B3  00                 [044] (-68)
48B4  B6                 [045] (-68)
48B5  02                 [046] (-68)
48B6  00                 [047] (-67)
48B7  00                 [048] (-67)
48B8  B6                 [049] (-67)
48B9  02                 [050] (-66)
48BA  00                 [051] (-65)
48BB  00                 [052] (-65)
48BC  B6                 [053] (-65)
48BD  02                 [054] (-65)
48BE  00                 [055] (-65)
48BF  00                 [056] (-64)
48C0  B6                 [057] (-64)
48C1  02                 [058] (-64)
48C2  00                 [059] (-60)
48C3  00                 [060] (-60)
48C4  B7                 [061] (-60)
48C5  02                 [062] (-60)
48C6  00                 [063] (-60)
48C7  00                 [064] (-60)
48C8  B7                 [065] (-60)
48C9  02                 [066] (-60)
48CA  00                 [067] (-60)
48CB  00                 [068] (-60)
48CC  B7                 [069] (-60)
48CD  02                 [070] (-59)
48CE  00                 [071] (-59)
48CF  00                 [072] (-59)
48D0  B7                 [073] (-59)
48D1  02                 [074] (-58)
48D2  00                 [075] (-58)
48D3  00                 [076] (-58)
48D4  B8                 [077] (-58)
48D5  02                 [078] (-58)
48D6  00                 [079] (-57)
48D7  00                 [080] (-57)
48D8  B8                 [081] (-57)
48D9  02                 [082] (-54)
48DA  00                 [083] (-54)
48DB  00                 [084] (-54)
48DC  B8                 [085] (-53)
48DD  02                 [086] (-53)
48DE  00                 [087] (-53)
48DF  00                 [088] (-53)
48E0  B8                 [089] (-53)
48E1  02                 [090] (-53)
48E2  00                 [091] (-53)
48E3  00                 [092] (-52)
48E4  B8                 [093] (-50)
48E5  02                 [094] (-50)
48E6  00                 [095] (-49)
48E7  00                 [096] (-49)
48E8  B9                 [097] (-48)
48E9  02                 [098] (-48)
48EA  00                 [099] (-48)
48EB  00                 [100] (-48)
48EC  B9                 [101] (-48)
48ED  02                 [102] (-47)
48EE  00                 [103] (-47)
48EF  00                 [104] (-46)
48F0  B9                 [105] (-46)
48F1  02                 [106] (-46)
48F2  00                 [107] (-46)
48F3  00                 [108] (-46)
48F4  B9                 [109] (-45)
48F5  02                 [110] (-45)
48F6  00                 [111] (-44)
48F7  00                 [112] (-44)
48F8  B9                 [113] (-44)
48F9  02                 [114] (-44)
48FA  00                 [115] (-44)
48FB  00                 [116] (-43)
48FC  BA                 [117] (-43)
48FD  02                 [118] (-42)
48FE  00                 [119] (-42)
48FF  00                 [120] (-42)
4900  BA                 [121] (-42)
4901  02                 [122] (-42)
4902  00                 [123] (-41)
4903  00                 [124] (-41)
4904  BA                 [125] (-41)
4905  02                 [126] (-41)
4906  00                 [127] (-41)
4907  00                 [128] (-41)
4908  BA                 [129] (-41)
4909  02                 [130] (-41)
490A  00                 [131] (-34)
490B  00                 [132] (-34)
490C  BA                 [133] (-34)
490D  02                 [134] (-34)
490E  00                 [135] (-33)
490F  00                 [136] (-33)
4910  BA                 [137] (-33)
4911  02                 [138] (-33)
4912  00                 [139] (-33)
4913  00                 [140] (-32)
4914  BB                 [141] (-32)
4915  02                 [142] (-32)
4916  00                 [143] (-29)
4917  00                 [144] (-29)
4918  BB                 [145] (-28)
4919  02                 [146] (-26)
491A  00                 [147] (-26)
491B  00                 [148] (-26)
491C  BB                 [149] (-25)
491D  02                 [150] (-25)
491E  00                 [151] (-25)
491F  00                 [152] (-24)
4920  BC                 [153] (-24)
4921  02                 [154] (-24)
4922  00                 [155] (-24)
4923  00                 [156] (-24)
4924  BC                 [157] (-23)
4925  02                 [158] (-23)
4926  00                 [159] (-22)
4927  00                 [160] (-22)
4928  BC                 [161] (-22)
4929  02                 [162] (-19)
492A  00                 [163] (-18)
492B  00                 [164] (-18)
492C  BC                 [165] (-18)
492D  02                 [166] (-18)
492E  00                 [167] (-18)
492F  00                 [168] (-18)
4930  BC                 [169] (-18)
4931  02                 [170] (-18)
4932  00                 [171] (-18)
4933  00                 [172] (-18)
4934  BC                 [173] (-18)
4935  02                 [174] (-17)
4936  00                 [175] (-17)
4937  00                 [176] (-17)
4938  BC                 [177] (-16)
4939  02                 [178] (-16)
493A  00                 [179] (-16)
493B  00                 [180] (-16)
493C  BC                 [181] (-16)
493D  02                 [182] (-16)
493E  00                 [183] (-16)
493F  00                 [184] (-16)
4940  BD                 [185] (-16)
4941  02                 [186] (-16)
4942  00                 [187] (-16)
4943  00                 [188] (-16)
4944  BD                 [189] (-16)
4945  02                 [190] (-16)
4946  00                 [191] (-15)
4947  00                 [192] (-15)
4948  BD                 [193] (-15)
4949  02                 [194] (-15)
494A  00                 [195] (-15)
494B  00                 [196] (-14)
494C  BE                 [197] (-14)
494D  02                 [198] (-14)
494E  00                 [199] (-12)
494F  00                 [200] (-12)
4950  BF                 [201] (-12)
4951  02                 [202] (-8)
4952  00                 [203] (-8)
4953  00                 [204] (-8)
4954  BF                 [205] (-7)
                         * locals:
4BBC  00                 sizelocvars (0)
                         * upvalues:
4BBD  00                 sizeupvalues (0)
                         ** end of function **

                         
4BBE                     ** function [26] definition (level 2)
                         ** start of function **
4BBE  00                 string size (0)
                         source name: (none)
4BC0  05                 line defined (763)
4BC1  BB                 last line defined (827)
4BC2  06                 nups (2)
4BC3  02                 numparams (3)
4BC4  03                 is_vararg (0)
4BC5  00                 maxstacksize (28)
                         * code:
4BC8  01                 sizecode (181)
4BC9  DD000000           [001] getglobal  3   0        ; gRegion
4BCD  E440C001           [002] self       3   3   257  ; -1485896174
4BD1  5D810000           [003] getglobal  5   2        ; -332969190
4BD5  99C10000           [004] loadk      6   3        ; "OperatorTwinWaypoint"
4BD9  62010001           [005] call       5   2   0  
4BDD  E2800000           [006] call       3   0   2  
4BE1  1D010100           [007] getglobal  4   4        ; 1074689893
4BE5  52018001           [008] move       5   3      
4BE9  22810001           [009] call       4   2   2  
4BED  18410000           [010] test       4       1    ; to [12] if false
4BF1  1A800080           [011] jmp        3            ; to [15]
4BF5  0A018001           [012] len        4   3      
fail op	21
4BF9  55008182           [013] concat     1   261 4  
4BFD  1A400180           [014] jmp        6            ; to [21]
4C01  1D010100           [015] getglobal  4   4        ; 1074689893
4C05  5D810100           [016] getglobal  5   6        ; _T
4C09  4EC1C102           [017] gettable   5   5   263  ; "operatorTwinWaypoint"
4C0D  22810001           [018] call       4   2   2  
4C11  18410000           [019] test       4       1    ; to [21] if false
4C15  1A402780           [020] jmp        158          ; to [179]
4C19  1D010100           [021] getglobal  4   4        ; 1074689893
4C1D  5D810100           [022] getglobal  5   6        ; _T
4C21  4EC1C102           [023] gettable   5   5   263  ; "operatorTwinWaypoint"
4C25  22810001           [024] call       4   2   2  
4C29  18010000           [025] test       4       0    ; to [27] if true
4C2D  1A000D80           [026] jmp        53           ; to [80]
4C31  98000000           [027] test       2       0    ; to [29] if true
4C35  1AC00A80           [028] jmp        44           ; to [73]
4C39  0B010000           [029] newtable   4   0   0    ; array=0, hash=0
4C3D  59010200           [030] loadk      5   8        ; 0
4C41  8A018001           [031] len        6   3      
4C45  D9010200           [032] loadk      7   8        ; 0
4C49  50810480           [033] forprep    5   19       ; to [53]
4C4D  59020200           [034] loadk      9   8        ; 0
4C51  93020000           [035] getupval   10  0      
4C55  8A020005           [036] len        10  10     
4C59  D9020200           [037] loadk      11  8        ; 0
4C5D  50020380           [038] forprep    9   13       ; to [52]
4C61  4E038201           [039] gettable   13  3   8  
4C65  6443C206           [040] self       13  13  265  ; 1857365798
4C69  62830001           [041] call       13  2   2  
4C6D  93030000           [042] getupval   14  0      
4C71  8E030307           [043] gettable   14  14  12 
fail op	35
4C75  23808306           [044] close      0  
4C79  1A400180           [045] jmp        6            ; to [52]
4C7D  5D830200           [046] getglobal  13  10       ; table
4C81  4EC3C206           [047] gettable   13  13  267  ; -431682403
4C85  92030002           [048] move       14  4      
4C89  CE038201           [049] gettable   15  3   8  
4C8D  62438001           [050] call       13  3   1  
4C91  1A000080           [051] jmp        1            ; to [53]
4C95  5442FC7F           [052] forloop    9   -14      ; to [39] if loop
4C99  54C1FA7F           [053] forloop    5   -20      ; to [34] if loop
4C9D  4A030002           [054] len        13  4      
fail op	21
4CA1  15408382           [055] concat     0   261 13 
4CA5  1AC00180           [056] jmp        8            ; to [65]
4CA9  5D030300           [057] getglobal  13  12       ; 2144646525
4CAD  99030200           [058] loadk      14  8        ; 0
4CB1  CA030002           [059] len        15  4      
4CB5  62838001           [060] call       13  3   2  
4CB9  9D830100           [061] getglobal  14  6        ; _T
4CBD  CE430302           [062] gettable   15  4   13 
4CC1  8CC38383           [063] settable   14  263 15   ; "operatorTwinWaypoint"
4CC5  1A800380           [064] jmp        15           ; to [80]
4CC9  9D030300           [065] getglobal  14  12       ; 2144646525
4CCD  D9030200           [066] loadk      15  8        ; 0
4CD1  0A048001           [067] len        16  3      
4CD5  A2838001           [068] call       14  3   2  
4CD9  DD830100           [069] getglobal  15  6        ; _T
4CDD  0E848301           [070] gettable   16  3   14 
4CE1  CC038483           [071] settable   15  263 16   ; "operatorTwinWaypoint"
4CE5  1A800180           [072] jmp        7            ; to [80]
4CE9  DD030300           [073] getglobal  15  12       ; 2144646525
4CED  19040200           [074] loadk      16  8        ; 0
4CF1  4A048001           [075] len        17  3      
4CF5  E2838001           [076] call       15  3   2  
4CF9  1D840100           [077] getglobal  16  6        ; _T
4CFD  4EC48301           [078] gettable   17  3   15 
4D01  0C448483           [079] settable   16  263 17   ; "operatorTwinWaypoint"
4D05  1D840100           [080] getglobal  16  6        ; _T
4D09  0EC44108           [081] gettable   16  16  263  ; "operatorTwinWaypoint"
4D0D  24444308           [082] self       16  16  269  ; 1839670529
4D11  22840001           [083] call       16  2   2  
4D15  5D040000           [084] getglobal  17  0        ; gRegion
4D19  6484C308           [085] self       17  17  270  ; -1875307917
4D1D  DD840000           [086] getglobal  19  2        ; -332969190
4D21  19C50300           [087] loadk      20  15       ; "TwinVisibilityTrigger"
4D25  E2040001           [088] call       19  2   0  
4D29  62840000           [089] call       17  0   2  
4D2D  9D040100           [090] getglobal  18  4        ; 1074689893
4D31  D2048008           [091] move       19  17     
4D35  A2840001           [092] call       18  2   2  
4D39  98040000           [093] test       18      0    ; to [95] if true
4D3D  1A800180           [094] jmp        7            ; to [102]
4D41  9D040000           [095] getglobal  18  0        ; gRegion
4D45  A4044409           [096] self       18  18  272  ; -1110225722
4D49  12058000           [097] move       20  1      
4D4D  52050008           [098] move       21  16     
4D51  9D450400           [099] getglobal  22  17       ; ZERO_ROTATION
4D55  A2848002           [100] call       18  5   2  
4D59  52040009           [101] move       17  18     
4D5D  9D040000           [102] getglobal  18  0        ; gRegion
4D61  A4844409           [103] self       18  18  274  ; 925677844
4D65  A2840001           [104] call       18  2   2  
4D69  E4C44409           [105] self       19  18  275  ; -2135866365
4D6D  E2840001           [106] call       19  2   2  
4D71  1D050100           [107] getglobal  20  4        ; 1074689893
4D75  52058008           [108] move       21  17     
4D79  22850001           [109] call       20  2   2  
4D7D  18450000           [110] test       20      1    ; to [112] if false
4D81  1A000580           [111] jmp        21           ; to [133]
4D85  1D050100           [112] getglobal  20  4        ; 1074689893
4D89  52058009           [113] move       21  19     
4D8D  22850001           [114] call       20  2   2  
4D91  18450000           [115] test       20      1    ; to [117] if false
4D95  1AC00380           [116] jmp        16           ; to [133]
4D99  2405C508           [117] self       20  17  276  ; -2123330418
4D9D  92058009           [118] move       22  19     
4DA1  22858001           [119] call       20  3   2  
4DA5  18050000           [120] test       20      0    ; to [122] if true
4DA9  1A800280           [121] jmp        11           ; to [133]
4DAD  98400000           [122] test       2       1    ; to [124] if false
4DB1  1A400080           [123] jmp        2            ; to [126]
4DB5  17058000           [124] loadbool   20  1   0    ; true
4DB9  1E050001           [125] return     20  2      
4DBD  24C54409           [126] self       20  18  275  ; -2135866365
4DC1  22850001           [127] call       20  2   2  
4DC5  D204000A           [128] move       19  20     
4DC9  1D450500           [129] getglobal  20  21       ; 538022378
4DCD  59450100           [130] loadk      21  5        ; 0
4DD1  22450001           [131] call       20  2   1  
4DD5  1A40F97F           [132] jmp        -26          ; to [107]
4DD9  24854509           [133] self       20  18  278  ; -1888201767
4DDD  22850001           [134] call       20  2   2  
4DE1  5D050100           [135] getglobal  21  4        ; 1074689893
4DE5  9205000A           [136] move       22  20     
4DE9  62850001           [137] call       21  2   2  
4DED  58050000           [138] test       21      0    ; to [140] if true
4DF1  1A800180           [139] jmp        7            ; to [147]
4DF5  5D450500           [140] getglobal  21  21       ; 538022378
4DF9  99450100           [141] loadk      22  5        ; 0
4DFD  62450001           [142] call       21  2   1  
4E01  64854509           [143] self       21  18  278  ; -1888201767
4E05  62850001           [144] call       21  2   2  
4E09  1205800A           [145] move       20  21     
4E0D  1AC0FC7F           [146] jmp        -12          ; to [135]
4E11  64C5450A           [147] self       21  20  279  ; -1284295806
4E15  62850001           [148] call       21  2   2  
fail op	35
4E19  6300C60A           [149] close      1  
4E1D  1A800080           [150] jmp        3            ; to [154]
4E21  8A05800A           [151] len        22  21     
fail op	21
4E25  1540460B           [152] concat     0   22  281
4E29  1A800180           [153] jmp        7            ; to [161]
4E2D  9D450500           [154] getglobal  22  21       ; 538022378
4E31  D9450100           [155] loadk      23  5        ; 0
4E35  A2450001           [156] call       22  2   1  
4E39  A4C5450A           [157] self       22  20  279  ; -1284295806
4E3D  A2850001           [158] call       22  2   2  
4E41  5205000B           [159] move       21  22     
4E45  1AC0FC7F           [160] jmp        -12          ; to [149]
4E49  9D050000           [161] getglobal  22  0        ; gRegion
4E4D  A405440B           [162] self       22  22  272  ; -1110225722
4E51  12060000           [163] move       24  0      
4E55  52060008           [164] move       25  16     
4E59  9D860100           [165] getglobal  26  6        ; _T
4E5D  8EC6410D           [166] gettable   26  26  263  ; "operatorTwinWaypoint"
4E61  A486460D           [167] self       26  26  282  ; -231049143
4E65  A2060001           [168] call       26  2   0  
4E69  A2850000           [169] call       22  0   2  
4E6D  D3058000           [170] getupval   23  1      
4E71  CEC5C60B           [171] gettable   23  23  283  ; -2141632401
4E75  1206000B           [172] move       24  22     
4E79  5206000A           [173] move       25  20     
4E7D  E2458001           [174] call       23  3   1  
4E81  E405C708           [175] self       23  17  284  ; -725453761
4E85  E2450001           [176] call       23  2   1  
4E89  D7050000           [177] loadbool   23  0   0    ; false
4E8D  DE050001           [178] return     23  2      
4E91  D7050000           [179] loadbool   23  0   0    ; false
4E95  DE050001           [180] return     23  2      
4E99  1E008000           [181] return     0   1      
                         * constants:
4E9D  1D                 sizek (29)
4E9E  04                 const type 4
4E9F  08                 string size (8)
4EA0  67526567696F6E00   "gRegion\0"
                         const [0]: "gRegion"
4EA8  01                 const type 3
4EA9  12066FA7           const [1]: (-1485896174)
4EAD  01                 const type 3
4EAE  1A4B27EC           const [2]: (-332969190)
4EB2  04                 const type 4
4EB3  15                 string size (21)
4EB4  4F70657261746F72+  "Operator"
4EBC  5477696E57617970+  "TwinWayp"
4EC4  6F696E7400         "oint\0"
                         const [3]: "OperatorTwinWaypoint"
4EC9  01                 const type 3
4ECA  65770E40           const [4]: (1074689893)
4ECE  03                 const type 3
4ECF  00000000           const [5]: (0)
4ED3  04                 const type 4
4ED4  03                 string size (3)
4ED5  5F5400             "_T\0"
                         const [6]: "_T"
4ED8  04                 const type 4
4ED9  15                 string size (21)
4EDA  6F70657261746F72+  "operator"
4EE2  5477696E57617970+  "TwinWayp"
4EEA  6F696E7400         "oint\0"
                         const [7]: "operatorTwinWaypoint"
4EEF  03                 const type 3
4EF0  0000803F           const [8]: (0)
4EF4  01                 const type 3
4EF5  2627B56E           const [9]: (1857365798)
4EF9  04                 const type 4
4EFA  06                 string size (6)
4EFB  7461626C6500       "table\0"
                         const [10]: "table"
4F01  01                 const type 3
4F02  9D0C45E6           const [11]: (-431682403)
4F06  01                 const type 3
4F07  7DB5D47F           const [12]: (2144646525)
4F0B  01                 const type 3
4F0C  0125A76D           const [13]: (1839670529)
4F10  01                 const type 3
4F11  73123990           const [14]: (-1875307917)
4F15  04                 const type 4
4F16  16                 string size (22)
4F17  5477696E56697369+  "TwinVisi"
4F1F  62696C6974795472+  "bilityTr"
4F27  696767657200       "igger\0"
                         const [15]: "TwinVisibilityTrigger"
4F2D  01                 const type 3
4F2E  C64CD3BD           const [16]: (-1110225722)
4F32  04                 const type 4
4F33  0E                 string size (14)
4F34  5A45524F5F524F54+  "ZERO_ROT"
4F3C  4154494F4E00       "ATION\0"
                         const [17]: "ZERO_ROTATION"
4F42  01                 const type 3
4F43  14B92C37           const [18]: (925677844)
4F47  01                 const type 3
4F48  0344B180           const [19]: (-2135866365)
4F4C  01                 const type 3
4F4D  8E8C7081           const [20]: (-2123330418)
4F51  01                 const type 3
4F52  EA911120           const [21]: (538022378)
4F56  01                 const type 3
4F57  D953748F           const [22]: (-1888201767)
4F5B  01                 const type 3
4F5C  823373B3           const [23]: (-1284295806)
4F60  00                 const type 0
                         const [24]: nil
4F61  03                 const type 3
4F62  00000040           const [25]: (0)
4F66  01                 const type 3
4F67  49783AF2           const [26]: (-231049143)
4F6B  01                 const type 3
4F6C  6F485980           const [27]: (-2141632401)
4F70  01                 const type 3
4F71  3F74C2D4           const [28]: (-725453761)
                         * functions:
4F75  00                 sizep (0)
                         * lines:
4F77  01                 sizelineinfo (181)
                         [pc] (line)
4F78  FC                 [001] (-4)
4F79  02                 [002] (-4)
4F7A  00                 [003] (-4)
4F7B  00                 [004] (-4)
4F7C  FC                 [005] (-4)
4F7D  02                 [006] (-4)
4F7E  00                 [007] (-3)
4F7F  00                 [008] (-3)
4F80  FC                 [009] (-3)
4F81  02                 [010] (-3)
4F82  00                 [011] (-3)
4F83  00                 [012] (-3)
4F84  FC                 [013] (-3)
4F85  02                 [014] (-3)
4F86  00                 [015] (-3)
4F87  00                 [016] (-3)
4F88  FC                 [017] (-3)
4F89  02                 [018] (-3)
4F8A  00                 [019] (-3)
4F8B  00                 [020] (-3)
4F8C  FC                 [021] (-2)
4F8D  02                 [022] (-2)
4F8E  00                 [023] (-2)
4F8F  00                 [024] (-2)
4F90  FD                 [025] (-2)
4F91  02                 [026] (-2)
4F92  00                 [027] (-1)
4F93  00                 [028] (-1)
4F94  FD                 [029] (0)
4F95  02                 [030] (1)
4F96  00                 [031] (1)
4F97  00                 [032] (1)
4F98  FD                 [033] (1)
4F99  02                 [034] (2)
4F9A  00                 [035] (2)
4F9B  00                 [036] (2)
4F9C  FD                 [037] (2)
4F9D  02                 [038] (2)
4F9E  00                 [039] (3)
4F9F  00                 [040] (3)
4FA0  FD                 [041] (3)
4FA1  02                 [042] (3)
4FA2  00                 [043] (3)
4FA3  00                 [044] (3)
4FA4  FD                 [045] (3)
4FA5  02                 [046] (4)
4FA6  00                 [047] (4)
4FA7  00                 [048] (4)
4FA8  FD                 [049] (4)
4FA9  02                 [050] (4)
4FAA  00                 [051] (5)
4FAB  00                 [052] (2)
4FAC  FD                 [053] (1)
4FAD  02                 [054] (9)
4FAE  00                 [055] (9)
4FAF  00                 [056] (9)
4FB0  FD                 [057] (10)
4FB1  02                 [058] (10)
4FB2  00                 [059] (10)
4FB3  00                 [060] (10)
4FB4  FD                 [061] (11)
4FB5  02                 [062] (11)
4FB6  00                 [063] (11)
4FB7  00                 [064] (11)
4FB8  FD                 [065] (13)
4FB9  02                 [066] (13)
4FBA  00                 [067] (13)
4FBB  00                 [068] (13)
4FBC  FD                 [069] (14)
4FBD  02                 [070] (14)
4FBE  00                 [071] (14)
4FBF  00                 [072] (15)
4FC0  FD                 [073] (17)
4FC1  02                 [074] (17)
4FC2  00                 [075] (17)
4FC3  00                 [076] (17)
4FC4  FD                 [077] (18)
4FC5  02                 [078] (18)
4FC6  00                 [079] (18)
4FC7  00                 [080] (22)
4FC8  FE                 [081] (22)
4FC9  02                 [082] (22)
4FCA  00                 [083] (22)
4FCB  00                 [084] (24)
4FCC  FE                 [085] (24)
4FCD  02                 [086] (24)
4FCE  00                 [087] (24)
4FCF  00                 [088] (24)
4FD0  FE                 [089] (24)
4FD1  02                 [090] (25)
4FD2  00                 [091] (25)
4FD3  00                 [092] (25)
4FD4  FE                 [093] (25)
4FD5  02                 [094] (25)
4FD6  00                 [095] (26)
4FD7  00                 [096] (26)
4FD8  FE                 [097] (26)
4FD9  02                 [098] (26)
4FDA  00                 [099] (26)
4FDB  00                 [100] (26)
4FDC  FE                 [101] (26)
4FDD  02                 [102] (29)
4FDE  00                 [103] (29)
4FDF  00                 [104] (29)
4FE0  FF                 [105] (30)
4FE1  02                 [106] (30)
4FE2  00                 [107] (31)
4FE3  00                 [108] (31)
4FE4  FF                 [109] (31)
4FE5  02                 [110] (31)
4FE6  00                 [111] (31)
4FE7  00                 [112] (31)
4FE8  00                 [113] (31)
4FE9  03                 [114] (31)
4FEA  00                 [115] (31)
4FEB  00                 [116] (31)
4FEC  01                 [117] (31)
4FED  03                 [118] (31)
4FEE  00                 [119] (31)
4FEF  00                 [120] (31)
4FF0  01                 [121] (31)
4FF1  03                 [122] (32)
4FF2  00                 [123] (32)
4FF3  00                 [124] (33)
4FF4  01                 [125] (33)
4FF5  03                 [126] (35)
4FF6  00                 [127] (35)
4FF7  00                 [128] (35)
4FF8  01                 [129] (36)
4FF9  03                 [130] (36)
4FFA  00                 [131] (36)
4FFB  00                 [132] (36)
4FFC  02                 [133] (40)
4FFD  03                 [134] (40)
4FFE  00                 [135] (41)
4FFF  00                 [136] (41)
5000  02                 [137] (41)
5001  03                 [138] (41)
5002  00                 [139] (41)
5003  00                 [140] (42)
5004  02                 [141] (42)
5005  03                 [142] (42)
5006  00                 [143] (43)
5007  00                 [144] (43)
5008  02                 [145] (43)
5009  03                 [146] (43)
500A  00                 [147] (47)
500B  00                 [148] (47)
500C  02                 [149] (48)
500D  03                 [150] (48)
500E  00                 [151] (48)
500F  00                 [152] (48)
5010  03                 [153] (48)
5011  03                 [154] (49)
5012  00                 [155] (49)
5013  00                 [156] (49)
5014  03                 [157] (50)
5015  03                 [158] (50)
5016  00                 [159] (50)
5017  00                 [160] (50)
5018  03                 [161] (53)
5019  03                 [162] (53)
501A  00                 [163] (53)
501B  00                 [164] (53)
501C  03                 [165] (53)
501D  03                 [166] (53)
501E  00                 [167] (53)
501F  00                 [168] (53)
5020  03                 [169] (53)
5021  03                 [170] (54)
5022  00                 [171] (54)
5023  00                 [172] (54)
5024  03                 [173] (54)
5025  03                 [174] (54)
5026  00                 [175] (55)
5027  00                 [176] (55)
5028  03                 [177] (56)
5029  03                 [178] (56)
502A  00                 [179] (58)
502B  00                 [180] (58)
502C  04                 [181] (59)
                         * locals:
524C  00                 sizelocvars (0)
                         * upvalues:
524D  00                 sizeupvalues (0)
                         ** end of function **

                         * lines:
524F  01                 sizelineinfo (245)
                         [pc] (line)
5250  01                 [001] (1)
5251  00                 [002] (1)
5252  00                 [003] (1)
5253  00                 [004] (1)
5254  01                 [005] (1)
5255  00                 [006] (3)
5256  00                 [007] (3)
5257  00                 [008] (3)
5258  01                 [009] (6)
5259  00                 [010] (6)
525A  00                 [011] (6)
525B  00                 [012] (6)
525C  01                 [013] (6)
525D  00                 [014] (9)
525E  00                 [015] (9)
525F  00                 [016] (9)
5260  01                 [017] (10)
5261  00                 [018] (12)
5262  00                 [019] (13)
5263  00                 [020] (13)
5264  03                 [021] (13)
5265  00                 [022] (14)
5266  00                 [023] (14)
5267  00                 [024] (14)
5268  03                 [025] (15)
5269  00                 [026] (15)
526A  00                 [027] (15)
526B  00                 [028] (16)
526C  03                 [029] (16)
526D  00                 [030] (16)
526E  00                 [031] (17)
526F  00                 [032] (17)
5270  06                 [033] (17)
5271  00                 [034] (18)
5272  00                 [035] (20)
5273  00                 [036] (20)
5274  06                 [037] (20)
5275  00                 [038] (20)
5276  00                 [039] (20)
5277  00                 [040] (20)
5278  06                 [041] (20)
5279  00                 [042] (20)
527A  00                 [043] (22)
527B  00                 [044] (22)
527C  06                 [045] (22)
527D  00                 [046] (23)
527E  00                 [047] (23)
527F  00                 [048] (23)
5280  06                 [049] (108)
5281  00                 [050] (108)
5282  00                 [051] (108)
5283  00                 [052] (25)
5284  09                 [053] (-96)
5285  00                 [054] (-96)
5286  00                 [055] (-96)
5287  00                 [056] (-96)
5288  09                 [057] (110)
5289  00                 [058] (-78)
528A  00                 [059] (-78)
528B  00                 [060] (-94)
528C  09                 [061] (-48)
528D  00                 [062] (-48)
528E  00                 [063] (-76)
528F  00                 [064] (-35)
5290  0A                 [065] (-35)
5291  00                 [066] (-46)
5292  00                 [067] (-18)
5293  00                 [068] (-18)
5294  0C                 [069] (-33)
5295  00                 [070] (-13)
5296  00                 [071] (-12)
5297  00                 [072] (-11)
5298  0D                 [073] (-11)
5299  00                 [074] (-11)
529A  00                 [075] (-11)
529B  00                 [076] (-10)
529C  0D                 [077] (-10)
529D  00                 [078] (-10)
529E  00                 [079] (-9)
529F  00                 [080] (-8)
52A0  0D                 [081] (-8)
52A1  00                 [082] (-7)
52A2  00                 [083] (-6)
52A3  00                 [084] (-5)
52A4  0E                 [085] (-5)
52A5  00                 [086] (-5)
52A6  00                 [087] (-5)
52A7  00                 [088] (-4)
52A8  0E                 [089] (-4)
52A9  00                 [090] (-4)
52AA  00                 [091] (-3)
52AB  00                 [092] (-2)
52AC  0E                 [093] (-2)
52AD  00                 [094] (-1)
52AE  00                 [095] (2)
52AF  00                 [096] (3)
52B0  0F                 [097] (4)
52B1  00                 [098] (4)
52B2  00                 [099] (4)
52B3  00                 [100] (4)
52B4  0F                 [101] (5)
52B5  00                 [102] (5)
52B6  00                 [103] (5)
52B7  00                 [104] (6)
52B8  0F                 [105] (7)
52B9  00                 [106] (7)
52BA  00                 [107] (8)
52BB  00                 [108] (9)
52BC  10                 [109] (10)
52BD  00                 [110] (10)
52BE  00                 [111] (10)
52BF  00                 [112] (10)
52C0  10                 [113] (11)
52C1  00                 [114] (12)
52C2  00                 [115] (12)
52C3  00                 [116] (13)
52C4  10                 [117] (16)
52C5  00                 [118] (17)
52C6  00                 [119] (18)
52C7  00                 [120] (18)
52C8  11                 [121] (18)
52C9  00                 [122] (18)
52CA  00                 [123] (19)
52CB  00                 [124] (19)
52CC  11                 [125] (19)
52CD  00                 [126] (20)
52CE  00                 [127] (21)
52CF  00                 [128] (21)
52D0  11                 [129] (22)
52D1  00                 [130] (22)
52D2  00                 [131] (23)
52D3  00                 [132] (24)
52D4  12                 [133] (25)
52D5  00                 [134] (25)
52D6  00                 [135] (25)
52D7  00                 [136] (25)
52D8  14                 [137] (26)
52D9  00                 [138] (26)
52DA  00                 [139] (26)
52DB  00                 [140] (27)
52DC  14                 [141] (28)
52DD  00                 [142] (28)
52DE  00                 [143] (29)
52DF  00                 [144] (32)
52E0  14                 [145] (33)
52E1  00                 [146] (34)
52E2  00                 [147] (34)
52E3  00                 [148] (34)
52E4  14                 [149] (34)
52E5  00                 [150] (35)
52E6  00                 [151] (35)
52E7  00                 [152] (35)
52E8  14                 [153] (36)
52E9  00                 [154] (36)
52EA  00                 [155] (36)
52EB  00                 [156] (37)
52EC  14                 [157] (47)
52ED  00                 [158] (47)
52EE  00                 [159] (48)
52EF  00                 [160] (49)
52F0  14                 [161] (50)
52F1  00                 [162] (50)
52F2  00                 [163] (50)
52F3  00                 [164] (50)
52F4  14                 [165] (51)
52F5  00                 [166] (51)
52F6  00                 [167] (51)
52F7  00                 [168] (52)
52F8  16                 [169] (52)
52F9  00                 [170] (52)
52FA  00                 [171] (53)
52FB  00                 [172] (54)
52FC  16                 [173] (54)
52FD  00                 [174] (55)
52FE  00                 [175] (58)
52FF  00                 [176] (59)
5300  16                 [177] (60)
5301  00                 [178] (60)
5302  00                 [179] (60)
5303  00                 [180] (60)
5304  17                 [181] (61)
5305  00                 [182] (61)
5306  00                 [183] (61)
5307  00                 [184] (62)
5308  17                 [185] (74)
5309  00                 [186] (74)
530A  00                 [187] (75)
530B  00                 [188] (76)
530C  17                 [189] (77)
530D  00                 [190] (77)
530E  00                 [191] (77)
530F  00                 [192] (77)
5310  6C                 [193] (78)
5311  00                 [194] (78)
5312  00                 [195] (78)
5313  00                 [196] (79)
5314  6C                 [197] (87)
5315  00                 [198] (87)
5316  00                 [199] (88)
5317  00                 [200] (32)
5318  6C                 [201] (32)
5319  00                 [202] (32)
531A  00                 [203] (32)
531B  00                 [204] (32)
531C  19                 [205] (32)
531D  00                 [206] (32)
531E  00                 [207] (91)
531F  00                 [208] (90)
5320  A0                 [209] (90)
5321  00                 [210] (90)
5322  00                 [211] (90)
5323  00                 [212] (90)
5324  A0                 [213] (90)
5325  00                 [214] (90)
5326  00                 [215] (34)
5327  00                 [216] (113)
5328  A0                 [217] (113)
5329  00                 [218] (113)
532A  00                 [219] (92)
532B  00                 [220] (-128)
532C  A0                 [221] (-128)
532D  00                 [222] (-124)
532E  00                 [223] (-124)
532F  00                 [224] (-124)
5330  6E                 [225] (-126)
5331  00                 [226] (-98)
5332  00                 [227] (-84)
5333  00                 [228] (-80)
5334  B2                 [229] (-80)
5335  00                 [230] (-80)
5336  00                 [231] (-82)
5337  00                 [232] (-7)
5338  B2                 [233] (-7)
5339  00                 [234] (-7)
533A  00                 [235] (-7)
533B  00                 [236] (-7)
533C  A2                 [237] (-7)
533D  00                 [238] (-7)
533E  00                 [239] (-78)
533F  00                 [240] (59)
5340  D0                 [241] (59)
5341  00                 [242] (59)
5342  00                 [243] (59)
5343  00                 [244] (-5)
5344  D0                 [245] (59)
                         * locals:
5624  00                 sizelocvars (0)
                         * upvalues:
5625  00                 sizeupvalues (0)
                         ** end of function **

5626                     ** end of chunk **
