1	C:\wlua_dump\path\Lotus\Powersuits\PowersuitAbilitiesShield.lua
Pos   Hex Data           Description or Code
------------------------------------------------------------------------
0000                     ** source chunk: C:\wlua_dump\path\Lotus\Powersuits\PowersuitAbilitiesShield.lua
                         ** global header start **
0000  7F                 header signature: ""
0001  00                 version (major:minor hex digits)
0002  00                 format (0=official)
0003  00                 endianness (1=little endian)
0004  00                 size of int (bytes)
0005  00                 size of size_t (bytes)
0006  02                 size of Instruction (bytes)
0007  1C                 size of number (bytes)
0008  D6                 integral (1=integral)
4214
                         * number type: single
                         * x86 standard (32-bit, little endian, doubles)
                         ** global header end **
Lotus.Scripts.Libs.AbilitiesLib
Lotus.Scripts.Effects.EffectsColorUtilities
Lotus.Powersuits.PowersuitAbilities.PVPLib
GAME_R1_WEAPON1
GAME_L1_WEAPON1
/EE/Types/Game/Avatar
/EE/Types/Engine/HitProxy
/EE/Types/Physics/Ragdoll
/EE/Types/Game/PickUp
GetAbilityUpgradeLevelInfo
GetAugmentDescriptionInfo
InitializeAbility
EvaluateAbility
NpcEvaluateAbility
ActivateAbility
DeactivateAbility
DeployDeco
AbilityPreMigration
TryPickup
DropShield
PickupShieldLoop
PickupShield
ForceDropShield
AugmentOneEnable
AugmentOneDisable
AvatarInside
AugmentRestoreShields
Game
AVATAR_ABILITY_DURATION
Lotus_Game
PowerSuit_AUGMENT_ONE
PowerSuit_AUGMENT_PVP_ONE
Lotus_Game
PowerSuit_AUGMENT_ONE
Game
AVATAR_ABILITY_STRENGTH
PowerSuit_AUGMENT_PVP_ONE
_T
AbilityLevelQueryParms
Avatar
Ability
Lotus_Game
PowerSuit_AUGMENT_ONE
Modded
table
Label
/Lotus/Language/Suits/ShieldAbilityAugment1Name
Title
/Lotus/Language/Game/ABSORB_AMOUNT
Value
math
ValueUnit
/Lotus/Language/Game/UNIT_PERCENT
PowerSuit_AUGMENT_PVP_ONE
/Lotus/Language/Suits/ShieldAbilityAugment1PvPName
/Lotus/Language/Game/RK_SHIELD
ValueIcon
<SHIELD>
_T
AbilityLevelQueryParms
Level
Modded
Avatar
table
Label
/Lotus/Language/Game/POWER_DURATION
Value
ValueUnit
/Lotus/Language/Game/UNIT_SECOND
/Lotus/Language/Game/EXTRA_DAMAGE
math
ValueIcon
<DT_ELECTRICITY>
/Lotus/Language/Game/UNIT_PERCENT
/Lotus/Language/Game/EPS
SmallerIsBetter
/Lotus/Language/Game/DISTANCE_PER_ENERGY_NO_UNIT
/Lotus/Language/Game/UNIT_METER
AbilityUpgradeLevelInfo
Lotus_Game
PowerSuit_AUGMENT_ONE
PERCENT
math
PowerSuit_AUGMENT_PVP_ONE
SHIELD_INC
cjson
mOwner
gGameRules
_T
voltShield
shield
holder
/Lotus/Language/Game/AbilityInUse
math
instance
entity
visible
duration
shieldInstance
x
Lotus_Game
PowerSuit_AUGMENT_ONE
augmentPctConversion
PowerSuit_AUGMENT_PVP_ONE
mOwner
activateAnim
Shield
Engine
ATMM_PHYSICS_DRIVEN
PRT_ONCE
ShieldCastBurst
GAME_L1_WEAPON1
launchSound
ShieldDeco
ShieldDecoAugment
gRegion
gElementType
_T
VoltShieldElements
table
augmentPvpTriggerType
Scalar2
gLotusHitProxyShieldType
EMPTY_SYMBOL
_T
VoltShieldElements
table
x
math
y
z
gRegion
chargedUpEffect
EMPTY_SYMBOL
ZERO_ROTATION
gLotusHitProxyShieldType
gRegion
Lotus_Game
PowerSuit_AUGMENT_ONE
actionType
EMPTY_SYMBOL
augmentOneAttachEffect
ZERO_VECTOR
ZERO_ROTATION
augmentOneTriggerType
shieldAttachFx
castBeamType
duration
shieldInstance
augmentPctConversion
TryPickup
_T
voltShield
shield
table
terminate
action
instance
holder
shieldElementType
gGameRules
chargedUpEffect
Scalar2
x
y
z
math
chargedUpBeamEffect
Engine
DT_ELECTRICITY
_T
voltShield
holder
Engine
SLOT_2
shield
_T
voltShield
actionType
shield
holder
Lotus_Game
DropShield
action
instance
PickupShield
_T
voltShield
holder
dropSound
shield
gLotusHitProxyShieldType
action
augmentOneAttachEffect
gElementType
knockdownTriggerType
EMPTY_SYMBOL
ZERO_VECTOR
ZERO_ROTATION
holder
pickupSound
mOwner
gRegion
Engine
SLOT_2
Game
AVATAR_MOVEMENT_SPEED
MULTIPLY
AVATAR_PARKOUR_BOOST
AVATAR_POWER_RATE
ADD
ForceDropShield
_T
voltShieldAugment
triggers
holding
bank
y
RUN
MAIN_HAND
TryPickup
_T
voltShield
instance
shield
holder
PickupShieldLoop
gRegion
_T
voltShieldAugment
triggers
holding
TryPickup
table
gRegion
_T
voltShieldAugment
triggers
table
holding
TryPickup
gRegion
Scalar2
Lotus_Game
RestoreShields
                         
0001                     ** function [0] definition (level 1)
                         ** start of function **
0001  00                 string size (0)
                         source name: (none)
0002  00                 line defined (0)
0003  00                 last line defined (0)
0004  00                 nups (0)
0005  00                 numparams (0)
0006  02                 is_vararg (2)
0007  1C                 maxstacksize (28)
                         * code:
0009  01                 sizecode (214)
000A  19000000           [001] loadk      0   0        ; 0
000E  59400000           [002] loadk      1   1        ; 0
0012  99800000           [003] loadk      2   2        ; 0
0016  D9C00000           [004] loadk      3   3        ; 0
001A  19010100           [005] loadk      4   4        ; 0
001E  59410100           [006] loadk      5   5        ; 0
0022  99810100           [007] loadk      6   6        ; 0
0026  D9810000           [008] loadk      7   2        ; 0
002A  19C20100           [009] loadk      8   7        ; 0
002E  59020200           [010] loadk      9   8        ; 0
0032  99020100           [011] loadk      10  4        ; 0
0036  DD420200           [012] getglobal  11  9        ; 849075268
003A  19830200           [013] loadk      12  10       ; "Lotus.Scripts.Libs.AbilitiesLib"
003E  E2820001           [014] call       11  2   2  
0042  1D430200           [015] getglobal  12  9        ; 849075268
0046  59C30200           [016] loadk      13  11       ; "Lotus.Scripts.Effects.EffectsColorUtilities"
004A  22830001           [017] call       12  2   2  
004E  5D430200           [018] getglobal  13  9        ; 849075268
0052  99030300           [019] loadk      14  12       ; "Lotus.Powersuits.PowersuitAbilities.PVPLib"
0056  62830001           [020] call       13  2   2  
005A  8B038003           [021] newtable   14  7   0    ; array=7, hash=0
005E  DD430300           [022] getglobal  15  13       ; 572299008
0062  19840300           [023] loadk      16  14       ; 0
0066  59840100           [024] loadk      17  6        ; 0
006A  99C40300           [025] loadk      18  15       ; -102
006E  E2830002           [026] call       15  4   2  
0072  1D440300           [027] getglobal  16  13       ; 572299008
0076  59040400           [028] loadk      17  16       ; 0
007A  99840100           [029] loadk      18  6        ; 0
007E  D9C40300           [030] loadk      19  15       ; -102
0082  22840002           [031] call       16  4   2  
0086  5D440300           [032] getglobal  17  13       ; 572299008
008A  99040100           [033] loadk      18  4        ; 0
008E  D9440400           [034] loadk      19  17       ; 0
0092  19850400           [035] loadk      20  18       ; 102
0096  62840002           [036] call       17  4   2  
009A  9D440300           [037] getglobal  18  13       ; 572299008
009E  D9C40400           [038] loadk      19  19       ; 0
00A2  19450400           [039] loadk      20  17       ; 0
00A6  59850400           [040] loadk      21  18       ; 102
00AA  A2840002           [041] call       18  4   2  
00AE  DD440300           [042] getglobal  19  13       ; 572299008
00B2  19050500           [043] loadk      20  20       ; 51
00B6  59450500           [044] loadk      21  21       ; 72
00BA  99850500           [045] loadk      22  22       ; -102
00BE  E2840002           [046] call       19  4   2  
00C2  1D450300           [047] getglobal  20  13       ; 572299008
00C6  59050400           [048] loadk      21  16       ; 0
00CA  99450500           [049] loadk      22  21       ; 72
00CE  D9850500           [050] loadk      23  22       ; -102
00D2  22850002           [051] call       20  4   2  
00D6  5D450300           [052] getglobal  21  13       ; 572299008
00DA  99C50500           [053] loadk      22  23       ; 92
00DE  D9050600           [054] loadk      23  24       ; 92
00E2  19460600           [055] loadk      24  25       ; 72
00E6  62850002           [056] call       21  4   2  
00EA  9D450300           [057] getglobal  22  13       ; 572299008
00EE  D9850600           [058] loadk      23  26       ; 92
00F2  19060600           [059] loadk      24  24       ; 92
00F6  59460600           [060] loadk      25  25       ; 72
00FA  A2050002           [061] call       22  4   0  
00FE  9B430000           [062] setlist    14  0   1    ; index 1 to top
0102  DD430300           [063] getglobal  15  13       ; 572299008
0106  19C40600           [064] loadk      16  27       ; 113
010A  59040700           [065] loadk      17  28       ; 51
010E  99440700           [066] loadk      18  29       ; 61
0112  E2830002           [067] call       15  4   2  
0116  0B048000           [068] newtable   16  1   0    ; array=1, hash=0
011A  5D840700           [069] getglobal  17  30       ; -332969190
011E  99C40700           [070] loadk      18  31       ; "GAME_R1_WEAPON1"
0122  62840001           [071] call       17  2   2  
0126  9D840700           [072] getglobal  18  30       ; -332969190
012A  D9040800           [073] loadk      19  32       ; "GAME_L1_WEAPON1"
012E  A2040001           [074] call       18  2   0  
0132  1B440000           [075] setlist    16  0   1    ; index 1 to top
0136  4B048001           [076] newtable   17  3   0    ; array=3, hash=0
013A  9D440800           [077] getglobal  18  33       ; 738251817
013E  D9840800           [078] loadk      19  34       ; "/EE/Types/Game/Avatar"
0142  A2840001           [079] call       18  2   2  
0146  DD440800           [080] getglobal  19  33       ; 738251817
014A  19C50800           [081] loadk      20  35       ; "/EE/Types/Engine/HitProxy"
014E  E2840001           [082] call       19  2   2  
0152  1D450800           [083] getglobal  20  33       ; 738251817
0156  59050900           [084] loadk      21  36       ; "/EE/Types/Physics/Ragdoll"
015A  22850001           [085] call       20  2   2  
015E  5D450800           [086] getglobal  21  33       ; 738251817
0162  99450900           [087] loadk      22  37       ; "/EE/Types/Game/PickUp"
0166  62050001           [088] call       21  2   0  
016A  5B440000           [089] setlist    17  0   1    ; index 1 to top
016E  A5040000           [090] closure    18  0      
0172  12008006           [091] move       0   13     
0176  12008000           [092] move       0   1      
017A  12000003           [093] move       0   6      
017E  12008003           [094] move       0   7      
0182  12000004           [095] move       0   8      
0186  E5440000           [096] closure    19  1      
018A  12008000           [097] move       0   1      
018E  12000003           [098] move       0   6      
0192  12008003           [099] move       0   7      
0196  25850000           [100] closure    20  2      
019A  12000001           [101] move       0   2      
019E  12008001           [102] move       0   3      
01A2  65C50000           [103] closure    21  3      
01A6  12000001           [104] move       0   2      
01AA  12008001           [105] move       0   3      
01AE  A5050100           [106] closure    22  4      
01B2  1200000A           [107] move       0   20     
01B6  12000001           [108] move       0   2      
01BA  1200800A           [109] move       0   21     
01BE  12008001           [110] move       0   3      
01C2  E5450100           [111] closure    23  5      
01C6  12000009           [112] move       0   18     
01CA  12000003           [113] move       0   6      
01CE  12008003           [114] move       0   7      
01D2  12008000           [115] move       0   1      
01D6  12008009           [116] move       0   19     
01DA  12000005           [117] move       0   10     
01DE  1200000B           [118] move       0   22     
01E2  E0850900           [119] setglobal  23  38       ; GetAbilityUpgradeLevelInfo
01E6  E0C50900           [120] setglobal  23  39       ; 1116007653
01EA  E5850100           [121] closure    23  6      
01EE  1200000A           [122] move       0   20     
01F2  12000001           [123] move       0   2      
01F6  12008001           [124] move       0   3      
01FA  E0050A00           [125] setglobal  23  40       ; GetAugmentDescriptionInfo
01FE  E0450A00           [126] setglobal  23  41       ; -1230779966
0202  E5C50100           [127] closure    23  7      
0206  12008006           [128] move       0   13     
020A  E0850A00           [129] setglobal  23  42       ; InitializeAbility
020E  E0C50A00           [130] setglobal  23  43       ; 1004283918
0212  E5050200           [131] closure    23  8      
0216  E0050B00           [132] setglobal  23  44       ; EvaluateAbility
021A  E0450B00           [133] setglobal  23  45       ; -2023457913
021E  E5450200           [134] closure    23  9      
0222  E0850B00           [135] setglobal  23  46       ; NpcEvaluateAbility
0226  E0C50B00           [136] setglobal  23  47       ; -319690153
022A  E5850200           [137] closure    23  10     
022E  12000009           [138] move       0   18     
0232  12008009           [139] move       0   19     
0236  1200000A           [140] move       0   20     
023A  1200800A           [141] move       0   21     
023E  12008001           [142] move       0   3      
0242  12008005           [143] move       0   11     
0246  E0050C00           [144] setglobal  23  48       ; ActivateAbility
024A  E0450C00           [145] setglobal  23  49       ; -871687712
024E  E5C50200           [146] closure    23  11     
0252  E0850C00           [147] setglobal  23  50       ; DeactivateAbility
0256  E0C50C00           [148] setglobal  23  51       ; 33405088
025A  E5050300           [149] closure    23  12     
025E  12008008           [150] move       0   17     
0262  25460300           [151] closure    24  13     
0266  65860300           [152] closure    25  14     
026A  12000000           [153] move       0   0      
026E  1200000A           [154] move       0   20     
0272  12000007           [155] move       0   14     
0276  12000008           [156] move       0   16     
027A  12000009           [157] move       0   18     
027E  12008000           [158] move       0   1      
0282  12008005           [159] move       0   11     
0286  12000001           [160] move       0   2      
028A  12000004           [161] move       0   8      
028E  12000006           [162] move       0   12     
0292  1200000C           [163] move       0   24     
0296  12008007           [164] move       0   15     
029A  1200800B           [165] move       0   23     
029E  12008004           [166] move       0   9      
02A2  60060D00           [167] setglobal  25  52       ; DeployDeco
02A6  60460D00           [168] setglobal  25  53       ; -131851949
02AA  65C60300           [169] closure    25  15     
02AE  60860D00           [170] setglobal  25  54       ; AbilityPreMigration
02B2  60C60D00           [171] setglobal  25  55       ; 1569496228
02B6  65060400           [172] closure    25  16     
02BA  12000000           [173] move       0   0      
02BE  60060E00           [174] setglobal  25  56       ; TryPickup
02C2  60460E00           [175] setglobal  25  57       ; 2060763605
02C6  65460400           [176] closure    25  17     
02CA  A5860400           [177] closure    26  18     
02CE  1200800C           [178] move       0   25     
02D2  A0860E00           [179] setglobal  26  58       ; DropShield
02D6  A0C60E00           [180] setglobal  26  59       ; 209586552
02DA  8606000D           [181] loadnil    26  26     
02DE  E5C60400           [182] closure    27  19     
02E2  1200000D           [183] move       0   26     
02E6  12000002           [184] move       0   4      
02EA  12000009           [185] move       0   18     
02EE  12000003           [186] move       0   6      
02F2  12008003           [187] move       0   7      
02F6  12008002           [188] move       0   5      
02FA  12008005           [189] move       0   11     
02FE  E0060F00           [190] setglobal  27  60       ; PickupShieldLoop
0302  E0460F00           [191] setglobal  27  61       ; 1248300992
0306  E5060500           [192] closure    27  20     
030A  1200000D           [193] move       0   26     
030E  E0860F00           [194] setglobal  27  62       ; PickupShield
0312  E0C60F00           [195] setglobal  27  63       ; 1625420142
0316  E5460500           [196] closure    27  21     
031A  1200800C           [197] move       0   25     
031E  E0061000           [198] setglobal  27  64       ; ForceDropShield
0322  E0461000           [199] setglobal  27  65       ; -1587662770
0326  E5860500           [200] closure    27  22     
032A  12000000           [201] move       0   0      
032E  E0861000           [202] setglobal  27  66       ; AugmentOneEnable
0332  E0C61000           [203] setglobal  27  67       ; 878788114
0336  E5C60500           [204] closure    27  23     
033A  E0061100           [205] setglobal  27  68       ; AugmentOneDisable
033E  E0461100           [206] setglobal  27  69       ; 712947317
0342  E5060600           [207] closure    27  24     
0346  12000000           [208] move       0   0      
034A  E0861100           [209] setglobal  27  70       ; AvatarInside
034E  E0C61100           [210] setglobal  27  71       ; 334839776
0352  E5460600           [211] closure    27  25     
0356  E0061200           [212] setglobal  27  72       ; AugmentRestoreShields
035A  E0461200           [213] setglobal  27  73       ; -274686891
035E  1E008000           [214] return     0   1      
                         * constants:
0362  4A                 sizek (74)
0363  03                 const type 3
0364  00000040           const [0]: (0)
0368  03                 const type 3
0369  00002041           const [1]: (0)
036D  03                 const type 3
036E  0000803E           const [2]: (0)
0372  03                 const type 3
0373  0000C841           const [3]: (0)
0377  03                 const type 3
0378  0000003F           const [4]: (0)
037C  03                 const type 3
037D  0000403F           const [5]: (0)
0381  03                 const type 3
0382  00000000           const [6]: (0)
0386  03                 const type 3
0387  0000C040           const [7]: (0)
038B  03                 const type 3
038C  00007A44           const [8]: (0)
0390  01                 const type 3
0391  44DC9B32           const [9]: (849075268)
0395  04                 const type 4
0396  20                 string size (32)
0397  4C6F7475732E5363+  "Lotus.Sc"
039F  72697074732E4C69+  "ripts.Li"
03A7  62732E4162696C69+  "bs.Abili"
03AF  746965734C696200   "tiesLib\0"
                         const [10]: "Lotus.Scripts.Libs.AbilitiesLib"
03B7  04                 const type 4
03B8  2C                 string size (44)
03B9  4C6F7475732E5363+  "Lotus.Sc"
03C1  72697074732E4566+  "ripts.Ef"
03C9  66656374732E4566+  "fects.Ef"
03D1  6665637473436F6C+  "fectsCol"
03D9  6F725574696C6974+  "orUtilit"
03E1  69657300           "ies\0"
                         const [11]: "Lotus.Scripts.Effects.EffectsColorUtilities"
03E5  04                 const type 4
03E6  2B                 string size (43)
03E7  4C6F7475732E506F+  "Lotus.Po"
03EF  7765727375697473+  "wersuits"
03F7  2E506F7765727375+  ".Powersu"
03FF  69744162696C6974+  "itAbilit"
0407  6965732E5056504C+  "ies.PVPL"
040F  696200             "ib\0"
                         const [12]: "Lotus.Powersuits.PowersuitAbilities.PVPLib"
0412  01                 const type 3
0413  00971C22           const [13]: (572299008)
0417  03                 const type 3
0418  0000C03F           const [14]: (0)
041C  03                 const type 3
041D  9A99193E           const [15]: (-102)
0421  03                 const type 3
0422  0000C0BF           const [16]: (0)
0426  03                 const type 3
0427  0000803F           const [17]: (0)
042B  03                 const type 3
042C  6666E63E           const [18]: (102)
0430  03                 const type 3
0431  000000BF           const [19]: (0)
0435  03                 const type 3
0436  3333933F           const [20]: (51)
043A  03                 const type 3
043B  48E17A3F           const [21]: (72)
043F  03                 const type 3
0440  9A99993E           const [22]: (-102)
0444  03                 const type 3
0445  5C8FC23E           const [23]: (92)
0449  03                 const type 3
044A  5C8F823F           const [24]: (92)
044E  03                 const type 3
044F  48E1FA3E           const [25]: (72)
0453  03                 const type 3
0454  5C8FC2BE           const [26]: (92)
0458  03                 const type 3
0459  713DAA3F           const [27]: (113)
045D  03                 const type 3
045E  3333733F           const [28]: (51)
0462  03                 const type 3
0463  3D0A573E           const [29]: (61)
0467  01                 const type 3
0468  1A4B27EC           const [30]: (-332969190)
046C  04                 const type 4
046D  10                 string size (16)
046E  47414D455F52315F+  "GAME_R1_"
0476  574541504F4E3100   "WEAPON1\0"
                         const [31]: "GAME_R1_WEAPON1"
047E  04                 const type 4
047F  10                 string size (16)
0480  47414D455F4C315F+  "GAME_L1_"
0488  574541504F4E3100   "WEAPON1\0"
                         const [32]: "GAME_L1_WEAPON1"
0490  01                 const type 3
0491  29D4002C           const [33]: (738251817)
0495  04                 const type 4
0496  16                 string size (22)
0497  2F45452F54797065+  "/EE/Type"
049F  732F47616D652F41+  "s/Game/A"
04A7  766174617200       "vatar\0"
                         const [34]: "/EE/Types/Game/Avatar"
04AD  04                 const type 4
04AE  1A                 string size (26)
04AF  2F45452F54797065+  "/EE/Type"
04B7  732F456E67696E65+  "s/Engine"
04BF  2F48697450726F78+  "/HitProx"
04C7  7900               "y\0"
                         const [35]: "/EE/Types/Engine/HitProxy"
04C9  04                 const type 4
04CA  1A                 string size (26)
04CB  2F45452F54797065+  "/EE/Type"
04D3  732F506879736963+  "s/Physic"
04DB  732F526167646F6C+  "s/Ragdol"
04E3  6C00               "l\0"
                         const [36]: "/EE/Types/Physics/Ragdoll"
04E5  04                 const type 4
04E6  16                 string size (22)
04E7  2F45452F54797065+  "/EE/Type"
04EF  732F47616D652F50+  "s/Game/P"
04F7  69636B557000       "ickUp\0"
                         const [37]: "/EE/Types/Game/PickUp"
04FD  04                 const type 4
04FE  1B                 string size (27)
04FF  4765744162696C69+  "GetAbili"
0507  7479557067726164+  "tyUpgrad"
050F  654C6576656C496E+  "eLevelIn"
0517  666F00             "fo\0"
                         const [38]: "GetAbilityUpgradeLevelInfo"
051A  01                 const type 3
051B  E5EC8442           const [39]: (1116007653)
051F  04                 const type 4
0520  1A                 string size (26)
0521  4765744175676D65+  "GetAugme"
0529  6E74446573637269+  "ntDescri"
0531  7074696F6E496E66+  "ptionInf"
0539  6F00               "o\0"
                         const [40]: "GetAugmentDescriptionInfo"
053B  01                 const type 3
053C  C2C9A3B6           const [41]: (-1230779966)
0540  04                 const type 4
0541  12                 string size (18)
0542  496E697469616C69+  "Initiali"
054A  7A654162696C6974+  "zeAbilit"
0552  7900               "y\0"
                         const [42]: "InitializeAbility"
0554  01                 const type 3
0555  0E28DC3B           const [43]: (1004283918)
0559  04                 const type 4
055A  10                 string size (16)
055B  4576616C75617465+  "Evaluate"
0563  4162696C69747900   "Ability\0"
                         const [44]: "EvaluateAbility"
056B  01                 const type 3
056C  877B6487           const [45]: (-2023457913)
0570  04                 const type 4
0571  13                 string size (19)
0572  4E70634576616C75+  "NpcEvalu"
057A  6174654162696C69+  "ateAbili"
0582  747900             "ty\0"
                         const [46]: "NpcEvaluateAbility"
0585  01                 const type 3
0586  57EAF1EC           const [47]: (-319690153)
058A  04                 const type 4
058B  10                 string size (16)
058C  4163746976617465+  "Activate"
0594  4162696C69747900   "Ability\0"
                         const [48]: "ActivateAbility"
059C  01                 const type 3
059D  E0190BCC           const [49]: (-871687712)
05A1  04                 const type 4
05A2  12                 string size (18)
05A3  4465616374697661+  "Deactiva"
05AB  74654162696C6974+  "teAbilit"
05B3  7900               "y\0"
                         const [50]: "DeactivateAbility"
05B5  01                 const type 3
05B6  A0B8FD01           const [51]: (33405088)
05BA  04                 const type 4
05BB  0B                 string size (11)
05BC  4465706C6F794465+  "DeployDe"
05C4  636F00             "co\0"
                         const [52]: "DeployDeco"
05C7  01                 const type 3
05C8  531924F8           const [53]: (-131851949)
05CC  04                 const type 4
05CD  14                 string size (20)
05CE  4162696C69747950+  "AbilityP"
05D6  72654D6967726174+  "reMigrat"
05DE  696F6E00           "ion\0"
                         const [54]: "AbilityPreMigration"
05E2  01                 const type 3
05E3  A49C8C5D           const [55]: (1569496228)
05E7  04                 const type 4
05E8  0A                 string size (10)
05E9  5472795069636B75+  "TryPicku"
05F1  7000               "p\0"
                         const [56]: "TryPickup"
05F3  01                 const type 3
05F4  D5C1D47A           const [57]: (2060763605)
05F8  04                 const type 4
05F9  0B                 string size (11)
05FA  44726F7053686965+  "DropShie"
0602  6C6400             "ld\0"
                         const [58]: "DropShield"
0605  01                 const type 3
0606  78097E0C           const [59]: (209586552)
060A  04                 const type 4
060B  11                 string size (17)
060C  5069636B75705368+  "PickupSh"
0614  69656C644C6F6F70+  "ieldLoop"
061C  00                 "\0"
                         const [60]: "PickupShieldLoop"
061D  01                 const type 3
061E  C08F674A           const [61]: (1248300992)
0622  04                 const type 4
0623  0D                 string size (13)
0624  5069636B75705368+  "PickupSh"
062C  69656C6400         "ield\0"
                         const [62]: "PickupShield"
0631  01                 const type 3
0632  6EF1E160           const [63]: (1625420142)
0636  04                 const type 4
0637  10                 string size (16)
0638  466F72636544726F+  "ForceDro"
0640  70536869656C6400   "pShield\0"
                         const [64]: "ForceDropShield"
0648  01                 const type 3
0649  4E305EA1           const [65]: (-1587662770)
064D  04                 const type 4
064E  11                 string size (17)
064F  4175676D656E744F+  "AugmentO"
0657  6E65456E61626C65+  "neEnable"
065F  00                 "\0"
                         const [66]: "AugmentOneEnable"
0660  01                 const type 3
0661  123E6134           const [67]: (878788114)
0665  04                 const type 4
0666  12                 string size (18)
0667  4175676D656E744F+  "AugmentO"
066F  6E6544697361626C+  "neDisabl"
0677  6500               "e\0"
                         const [68]: "AugmentOneDisable"
0679  01                 const type 3
067A  75B67E2A           const [69]: (712947317)
067E  04                 const type 4
067F  0D                 string size (13)
0680  417661746172496E+  "AvatarIn"
0688  7369646500         "side\0"
                         const [70]: "AvatarInside"
068D  01                 const type 3
068E  E03FF513           const [71]: (334839776)
0692  04                 const type 4
0693  16                 string size (22)
0694  4175676D656E7452+  "AugmentR"
069C  6573746F72655368+  "estoreSh"
06A4  69656C647300       "ields\0"
                         const [72]: "AugmentRestoreShields"
06AA  01                 const type 3
06AB  559CA0EF           const [73]: (-274686891)
                         * functions:
06AF  1A                 sizep (26)
                         
06B0                     ** function [0] definition (level 2)
                         ** start of function **
06B0  00                 string size (0)
                         source name: (none)
06B1  35                 line defined (53)
06B2  4F                 last line defined (79)
06B3  05                 nups (5)
06B4  01                 numparams (1)
06B5  00                 is_vararg (0)
06B6  02                 maxstacksize (2)
                         * code:
06B7  2F                 sizecode (47)
06B8  53000000           [01] getupval   1   0      
06BC  4E00C000           [02] gettable   1   1   256  ; 590154099
06C0  62808000           [03] call       1   1   2  
06C4  58400000           [04] test       1       1    ; to [6] if false
06C8  1A400480           [05] jmp        18           ; to [24]
fail op	35
06CC  23404000           [06] close      0  
06D0  1A800080           [07] jmp        3            ; to [11]
06D4  59800000           [08] loadk      1   2        ; 0
fail op	8
06D8  48008000           [09] setupval   1   1      
06DC  1AC00880           [10] jmp        36           ; to [47]
fail op	35
06E0  23C04000           [11] close      0  
06E4  1A800080           [12] jmp        3            ; to [16]
06E8  59000100           [13] loadk      1   4        ; 0
fail op	8
06EC  48008000           [14] setupval   1   1      
06F0  1A800780           [15] jmp        31           ; to [47]
fail op	35
06F4  23404100           [16] close      0  
06F8  1A800080           [17] jmp        3            ; to [21]
06FC  59800100           [18] loadk      1   6        ; 0
fail op	8
0700  48008000           [19] setupval   1   1      
0704  1A400680           [20] jmp        26           ; to [47]
0708  59C00100           [21] loadk      1   7        ; 0
fail op	8
070C  48008000           [22] setupval   1   1      
0710  1A800580           [23] jmp        23           ; to [47]
0714  59C00000           [24] loadk      1   3        ; 0
fail op	8
0718  48000001           [25] setupval   1   2      
071C  59000200           [26] loadk      1   8        ; 0
fail op	8
0720  48008001           [27] setupval   1   3      
0724  59400000           [28] loadk      1   1        ; 0
fail op	8
0728  48000002           [29] setupval   1   4      
fail op	35
072C  23404000           [30] close      0  
0730  1A800080           [31] jmp        3            ; to [35]
0734  59400200           [32] loadk      1   9        ; 0
fail op	8
0738  48008000           [33] setupval   1   1      
073C  1AC00280           [34] jmp        12           ; to [47]
fail op	35
0740  23C04000           [35] close      0  
0744  1A800080           [36] jmp        3            ; to [40]
0748  59800200           [37] loadk      1   10       ; 0
fail op	8
074C  48008000           [38] setupval   1   1      
0750  1A800180           [39] jmp        7            ; to [47]
fail op	35
0754  23404100           [40] close      0  
0758  1A800080           [41] jmp        3            ; to [45]
075C  59C00200           [42] loadk      1   11       ; 0
fail op	8
0760  48008000           [43] setupval   1   1      
0764  1A400080           [44] jmp        2            ; to [47]
0768  59000300           [45] loadk      1   12       ; 0
fail op	8
076C  48008000           [46] setupval   1   1      
0770  1E008000           [47] return     0   1      
                         * constants:
0774  0D                 sizek (13)
0775  01                 const type 3
0776  73092D23           const [0]: (590154099)
077A  03                 const type 3
077B  0000803F           const [1]: (0)
077F  03                 const type 3
0780  00002041           const [2]: (0)
0784  03                 const type 3
0785  00000040           const [3]: (0)
0789  03                 const type 3
078A  00007041           const [4]: (0)
078E  03                 const type 3
078F  00004040           const [5]: (0)
0793  03                 const type 3
0794  0000A041           const [6]: (0)
0798  03                 const type 3
0799  0000C841           const [7]: (0)
079D  03                 const type 3
079E  00000000           const [8]: (0)
07A2  03                 const type 3
07A3  00003041           const [9]: (0)
07A7  03                 const type 3
07A8  00004041           const [10]: (0)
07AC  03                 const type 3
07AD  00005041           const [11]: (0)
07B1  03                 const type 3
07B2  00006041           const [12]: (0)
                         * functions:
07B6  00                 sizep (0)
                         * lines:
07B7  2F                 sizelineinfo (47)
                         [pc] (line)
07B8  36                 [01] (54)
07B9  00                 [02] (54)
07BA  00                 [03] (54)
07BB  00                 [04] (54)
07BC  36                 [05] (54)
07BD  00                 [06] (55)
07BE  00                 [07] (55)
07BF  00                 [08] (56)
07C0  36                 [09] (56)
07C1  00                 [10] (56)
07C2  00                 [11] (57)
07C3  00                 [12] (57)
07C4  36                 [13] (58)
07C5  00                 [14] (58)
07C6  00                 [15] (58)
07C7  00                 [16] (59)
07C8  36                 [17] (59)
07C9  00                 [18] (60)
07CA  00                 [19] (60)
07CB  00                 [20] (60)
07CC  37                 [21] (62)
07CD  00                 [22] (62)
07CE  00                 [23] (63)
07CF  00                 [24] (65)
07D0  37                 [25] (65)
07D1  00                 [26] (66)
07D2  00                 [27] (66)
07D3  00                 [28] (67)
07D4  38                 [29] (67)
07D5  00                 [30] (69)
07D6  00                 [31] (69)
07D7  00                 [32] (70)
07D8  38                 [33] (70)
07D9  00                 [34] (70)
07DA  00                 [35] (71)
07DB  00                 [36] (71)
07DC  38                 [37] (72)
07DD  00                 [38] (72)
07DE  00                 [39] (72)
07DF  00                 [40] (73)
07E0  39                 [41] (73)
07E1  00                 [42] (74)
07E2  00                 [43] (74)
07E3  00                 [44] (74)
07E4  39                 [45] (76)
07E5  00                 [46] (76)
07E6  00                 [47] (79)
                         * locals:
0874  00                 sizelocvars (0)
                         * upvalues:
0875  00                 sizeupvalues (0)
                         ** end of function **

                         
0876                     ** function [1] definition (level 2)
                         ** start of function **
0876  00                 string size (0)
                         source name: (none)
0877  51                 line defined (81)
0878  62                 last line defined (98)
0879  03                 nups (3)
087A  01                 numparams (1)
087B  00                 is_vararg (0)
087C  0C                 maxstacksize (12)
                         * code:
087D  27                 sizecode (39)
087E  53000000           [01] getupval   1   0      
0882  93008000           [02] getupval   2   1      
0886  D3000001           [03] getupval   3   2      
088A  1D010000           [04] getglobal  4   0        ; 1074689893
088E  52010000           [05] move       5   0      
0892  22810001           [06] call       4   2   2  
0896  18410000           [07] test       4       1    ; to [9] if false
089A  1A400680           [08] jmp        26           ; to [35]
089E  24414000           [09] self       4   0   257  ; -1917464545
08A2  22810001           [10] call       4   2   2  
08A6  64814002           [11] self       5   4   258  ; 1769516121
08AA  62810001           [12] call       5   2   2  
08AE  9D010000           [13] getglobal  6   0        ; 1074689893
08B2  D2018002           [14] move       7   5      
08B6  A2810001           [15] call       6   2   2  
08BA  98410000           [16] test       6       1    ; to [18] if false
08BE  1A000480           [17] jmp        17           ; to [35]
08C2  A4C14002           [18] self       6   4   259  ; -940929887
08C6  13020000           [19] getupval   8   0      
08CA  5D020100           [20] getglobal  9   4        ; Game
08CE  4E42C104           [21] gettable   9   9   261  ; "AVATAR_ABILITY_DURATION"
08D2  A482C102           [22] self       10  5   262  ; -491574171
08D6  A2820001           [23] call       10  2   2  
08DA  D2028002           [24] move       11  5      
08DE  A2810003           [25] call       6   6   2  
08E2  52000003           [26] move       1   6      
08E6  A4C1C102           [27] self       6   5   263  ; -309972691
08EA  13028000           [28] getupval   8   1      
08EE  A2818001           [29] call       6   3   2  
08F2  92000003           [30] move       2   6      
08F6  A401C202           [31] self       6   5   264  ; 1441359513
08FA  13020001           [32] getupval   8   2      
08FE  A2818001           [33] call       6   3   2  
0902  D2000003           [34] move       3   6      
0906  92018000           [35] move       6   1      
090A  D2010001           [36] move       7   2      
090E  12028001           [37] move       8   3      
0912  9E010002           [38] return     6   4      
0916  1E008000           [39] return     0   1      
                         * constants:
091A  09                 sizek (9)
091B  01                 const type 3
091C  65770E40           const [0]: (1074689893)
0920  01                 const type 3
0921  1FD0B58D           const [1]: (-1917464545)
0925  01                 const type 3
0926  59AC7869           const [2]: (1769516121)
092A  01                 const type 3
092B  A18CEAC7           const [3]: (-940929887)
092F  04                 const type 4
0930  05                 string size (5)
0931  47616D6500         "Game\0"
                         const [4]: "Game"
0936  04                 const type 4
0937  18                 string size (24)
0938  4156415441525F41+  "AVATAR_A"
0940  42494C4954595F44+  "BILITY_D"
0948  55524154494F4E00   "URATION\0"
                         const [5]: "AVATAR_ABILITY_DURATION"
0950  01                 const type 3
0951  652CB3E2           const [6]: (-491574171)
0955  01                 const type 3
0956  2D3186ED           const [7]: (-309972691)
095A  01                 const type 3
095B  9966E955           const [8]: (1441359513)
                         * functions:
095F  00                 sizep (0)
                         * lines:
0960  27                 sizelineinfo (39)
                         [pc] (line)
0961  52                 [01] (82)
0962  00                 [02] (83)
0963  00                 [03] (84)
0964  00                 [04] (86)
0965  53                 [05] (86)
0966  00                 [06] (86)
0967  00                 [07] (86)
0968  00                 [08] (86)
0969  54                 [09] (87)
096A  00                 [10] (87)
096B  00                 [11] (88)
096C  00                 [12] (88)
096D  56                 [13] (89)
096E  00                 [14] (89)
096F  00                 [15] (89)
0970  00                 [16] (89)
0971  56                 [17] (89)
0972  00                 [18] (90)
0973  00                 [19] (90)
0974  00                 [20] (90)
0975  56                 [21] (90)
0976  00                 [22] (90)
0977  00                 [23] (90)
0978  00                 [24] (90)
0979  56                 [25] (90)
097A  00                 [26] (90)
097B  00                 [27] (92)
097C  00                 [28] (92)
097D  56                 [29] (92)
097E  00                 [30] (92)
097F  00                 [31] (93)
0980  00                 [32] (93)
0981  57                 [33] (93)
0982  00                 [34] (93)
0983  00                 [35] (97)
0984  00                 [36] (97)
0985  57                 [37] (97)
0986  00                 [38] (97)
0987  00                 [39] (98)
                         * locals:
09FD  00                 sizelocvars (0)
                         * upvalues:
09FE  00                 sizeupvalues (0)
                         ** end of function **

                         
09FF                     ** function [2] definition (level 2)
                         ** start of function **
09FF  00                 string size (0)
                         source name: (none)
0A00  64                 line defined (100)
0A01  7A                 last line defined (122)
0A02  02                 nups (2)
0A03  02                 numparams (2)
0A04  00                 is_vararg (0)
0A05  03                 maxstacksize (3)
                         * code:
0A06  2C                 sizecode (44)
0A07  9D000000           [01] getglobal  2   0        ; Lotus_Game
0A0B  8E404001           [02] gettable   2   2   257  ; "PowerSuit_AUGMENT_ONE"
fail op	35
0A0F  23808000           [03] close      0  
0A13  1A400480           [04] jmp        18           ; to [23]
fail op	35
0A17  23804000           [05] close      0  
0A1B  1A800080           [06] jmp        3            ; to [10]
0A1F  99C00000           [07] loadk      2   3        ; 0
fail op	8
0A23  88000000           [08] setupval   2   0      
0A27  1A400880           [09] jmp        34           ; to [44]
fail op	35
0A2B  23004100           [10] close      0  
0A2F  1A800080           [11] jmp        3            ; to [15]
0A33  99000100           [12] loadk      2   4        ; 0
fail op	8
0A37  88000000           [13] setupval   2   0      
0A3B  1A000780           [14] jmp        29           ; to [44]
fail op	35
0A3F  23404100           [15] close      0  
0A43  1A800080           [16] jmp        3            ; to [20]
0A47  99800100           [17] loadk      2   6        ; 0
fail op	8
0A4B  88000000           [18] setupval   2   0      
0A4F  1AC00580           [19] jmp        24           ; to [44]
0A53  99400100           [20] loadk      2   5        ; 0
fail op	8
0A57  88000000           [21] setupval   2   0      
0A5B  1A000580           [22] jmp        21           ; to [44]
0A5F  9D000000           [23] getglobal  2   0        ; Lotus_Game
0A63  8EC04101           [24] gettable   2   2   263  ; "PowerSuit_AUGMENT_PVP_ONE"
fail op	35
0A67  23808000           [25] close      0  
0A6B  1A000480           [26] jmp        17           ; to [44]
fail op	35
0A6F  23804000           [27] close      0  
0A73  1A800080           [28] jmp        3            ; to [32]
0A77  99000200           [29] loadk      2   8        ; 0
fail op	8
0A7B  88008000           [30] setupval   2   1      
0A7F  1AC00280           [31] jmp        12           ; to [44]
fail op	35
0A83  23004100           [32] close      0  
0A87  1A800080           [33] jmp        3            ; to [37]
0A8B  99400200           [34] loadk      2   9        ; 0
fail op	8
0A8F  88008000           [35] setupval   2   1      
0A93  1A800180           [36] jmp        7            ; to [44]
fail op	35
0A97  23404100           [37] close      0  
0A9B  1A800080           [38] jmp        3            ; to [42]
0A9F  99800200           [39] loadk      2   10       ; 0
fail op	8
0AA3  88008000           [40] setupval   2   1      
0AA7  1A400080           [41] jmp        2            ; to [44]
0AAB  99C00200           [42] loadk      2   11       ; 0
fail op	8
0AAF  88008000           [43] setupval   2   1      
0AB3  1E008000           [44] return     0   1      
                         * constants:
0AB7  0C                 sizek (12)
0AB8  04                 const type 4
0AB9  0B                 string size (11)
0ABA  4C6F7475735F4761+  "Lotus_Ga"
0AC2  6D6500             "me\0"
                         const [0]: "Lotus_Game"
0AC5  04                 const type 4
0AC6  16                 string size (22)
0AC7  506F776572537569+  "PowerSui"
0ACF  745F4155474D454E+  "t_AUGMEN"
0AD7  545F4F4E4500       "T_ONE\0"
                         const [1]: "PowerSuit_AUGMENT_ONE"
0ADD  03                 const type 3
0ADE  0000803F           const [2]: (0)
0AE2  03                 const type 3
0AE3  0000C03F           const [3]: (0)
0AE7  03                 const type 3
0AE8  00000040           const [4]: (0)
0AEC  03                 const type 3
0AED  00004040           const [5]: (0)
0AF1  03                 const type 3
0AF2  00002040           const [6]: (0)
0AF6  04                 const type 4
0AF7  1A                 string size (26)
0AF8  506F776572537569+  "PowerSui"
0B00  745F4155474D454E+  "t_AUGMEN"
0B08  545F5056505F4F4E+  "T_PVP_ON"
0B10  4500               "E\0"
                         const [7]: "PowerSuit_AUGMENT_PVP_ONE"
0B12  03                 const type 3
0B13  00000C42           const [8]: (0)
0B17  03                 const type 3
0B18  00002042           const [9]: (0)
0B1C  03                 const type 3
0B1D  00003442           const [10]: (0)
0B21  03                 const type 3
0B22  00004842           const [11]: (0)
                         * functions:
0B26  00                 sizep (0)
                         * lines:
0B27  2C                 sizelineinfo (44)
                         [pc] (line)
0B28  65                 [01] (101)
0B29  00                 [02] (101)
0B2A  00                 [03] (101)
0B2B  00                 [04] (101)
0B2C  65                 [05] (102)
0B2D  00                 [06] (102)
0B2E  00                 [07] (103)
0B2F  00                 [08] (103)
0B30  65                 [09] (103)
0B31  00                 [10] (104)
0B32  00                 [11] (104)
0B33  00                 [12] (105)
0B34  65                 [13] (105)
0B35  00                 [14] (105)
0B36  00                 [15] (106)
0B37  00                 [16] (106)
0B38  66                 [17] (107)
0B39  00                 [18] (107)
0B3A  00                 [19] (107)
0B3B  00                 [20] (109)
0B3C  66                 [21] (109)
0B3D  00                 [22] (110)
0B3E  00                 [23] (111)
0B3F  00                 [24] (111)
0B40  67                 [25] (111)
0B41  00                 [26] (111)
0B42  00                 [27] (112)
0B43  00                 [28] (112)
0B44  67                 [29] (113)
0B45  00                 [30] (113)
0B46  00                 [31] (113)
0B47  00                 [32] (114)
0B48  67                 [33] (114)
0B49  00                 [34] (115)
0B4A  00                 [35] (115)
0B4B  00                 [36] (115)
0B4C  68                 [37] (116)
0B4D  00                 [38] (116)
0B4E  00                 [39] (117)
0B4F  00                 [40] (117)
0B50  68                 [41] (117)
0B51  00                 [42] (119)
0B52  00                 [43] (119)
0B53  00                 [44] (122)
                         * locals:
0BD8  00                 sizelocvars (0)
                         * upvalues:
0BD9  00                 sizeupvalues (0)
                         ** end of function **

                         
0BDA                     ** function [3] definition (level 2)
                         ** start of function **
0BDA  00                 string size (0)
                         source name: (none)
0BDB  7C                 line defined (124)
0BDC  88                 last line defined (136)
0BDD  01                 nups (2)
0BDE  02                 numparams (2)
0BDF  02                 is_vararg (0)
0BE0  00                 maxstacksize (11)
                         * code:
0BE2  22                 sizecode (34)
0BE3  A4004000           [01] self       2   0   256  ; -1917464545
0BE7  A2800001           [02] call       2   2   2  
0BEB  E4404001           [03] self       3   2   257  ; 1769516121
0BEF  E2800001           [04] call       3   2   2  
0BF3  2481C001           [05] self       4   3   258  ; -491574171
0BF7  22810001           [06] call       4   2   2  
0BFB  5DC10000           [07] getglobal  5   3        ; Lotus_Game
0BFF  4E01C102           [08] gettable   5   5   260  ; "PowerSuit_AUGMENT_ONE"
fail op	35
0C03  23408100           [09] close      0  
0C07  1A000280           [10] jmp        9            ; to [20]
0C0B  64414101           [11] self       5   2   261  ; -940929887
0C0F  D3010000           [12] getupval   7   0      
0C13  1D820100           [13] getglobal  8   6        ; Game
0C17  0EC24104           [14] gettable   8   8   263  ; "AVATAR_ABILITY_STRENGTH"
0C1B  52020002           [15] move       9   4      
0C1F  92028001           [16] move       10  3      
0C23  47010003           [17] tailcall   5   6   0  
0C27  5E010000           [18] return     5   0      
0C2B  1AC00280           [19] jmp        12           ; to [32]
0C2F  5DC10000           [20] getglobal  5   3        ; Lotus_Game
0C33  4E01C202           [21] gettable   5   5   264  ; "PowerSuit_AUGMENT_PVP_ONE"
fail op	35
0C37  23408100           [22] close      0  
0C3B  1AC00180           [23] jmp        8            ; to [32]
0C3F  64414101           [24] self       5   2   261  ; -940929887
0C43  D3018000           [25] getupval   7   1      
0C47  1D820100           [26] getglobal  8   6        ; Game
0C4B  0EC24104           [27] gettable   8   8   263  ; "AVATAR_ABILITY_STRENGTH"
0C4F  52020002           [28] move       9   4      
0C53  92028001           [29] move       10  3      
0C57  47010003           [30] tailcall   5   6   0  
0C5B  5E010000           [31] return     5   0      
0C5F  46018002           [32] loadnil    5   5      
0C63  5E010001           [33] return     5   2      
0C67  1E008000           [34] return     0   1      
                         * constants:
0C6B  09                 sizek (9)
0C6C  01                 const type 3
0C6D  1FD0B58D           const [0]: (-1917464545)
0C71  01                 const type 3
0C72  59AC7869           const [1]: (1769516121)
0C76  01                 const type 3
0C77  652CB3E2           const [2]: (-491574171)
0C7B  04                 const type 4
0C7C  0B                 string size (11)
0C7D  4C6F7475735F4761+  "Lotus_Ga"
0C85  6D6500             "me\0"
                         const [3]: "Lotus_Game"
0C88  04                 const type 4
0C89  16                 string size (22)
0C8A  506F776572537569+  "PowerSui"
0C92  745F4155474D454E+  "t_AUGMEN"
0C9A  545F4F4E4500       "T_ONE\0"
                         const [4]: "PowerSuit_AUGMENT_ONE"
0CA0  01                 const type 3
0CA1  A18CEAC7           const [5]: (-940929887)
0CA5  04                 const type 4
0CA6  05                 string size (5)
0CA7  47616D6500         "Game\0"
                         const [6]: "Game"
0CAC  04                 const type 4
0CAD  18                 string size (24)
0CAE  4156415441525F41+  "AVATAR_A"
0CB6  42494C4954595F53+  "BILITY_S"
0CBE  5452454E47544800   "TRENGTH\0"
                         const [7]: "AVATAR_ABILITY_STRENGTH"
0CC6  04                 const type 4
0CC7  1A                 string size (26)
0CC8  506F776572537569+  "PowerSui"
0CD0  745F4155474D454E+  "t_AUGMEN"
0CD8  545F5056505F4F4E+  "T_PVP_ON"
0CE0  4500               "E\0"
                         const [8]: "PowerSuit_AUGMENT_PVP_ONE"
                         * functions:
0CE2  00                 sizep (0)
                         * lines:
0CE3  22                 sizelineinfo (34)
                         [pc] (line)
0CE4  7D                 [01] (125)
0CE5  00                 [02] (125)
0CE6  00                 [03] (126)
0CE7  00                 [04] (126)
0CE8  7D                 [05] (127)
0CE9  00                 [06] (127)
0CEA  00                 [07] (-127)
0CEB  00                 [08] (-127)
0CEC  7E                 [09] (-127)
0CED  00                 [10] (-127)
0CEE  00                 [11] (-126)
0CEF  00                 [12] (-126)
0CF0  7E                 [13] (-126)
0CF1  00                 [14] (-126)
0CF2  00                 [15] (-126)
0CF3  00                 [16] (-126)
0CF4  7F                 [17] (-126)
0CF5  00                 [18] (-126)
0CF6  00                 [19] (-126)
0CF7  00                 [20] (-125)
0CF8  7F                 [21] (-125)
0CF9  00                 [22] (-125)
0CFA  00                 [23] (-125)
0CFB  00                 [24] (-124)
0CFC  81                 [25] (-124)
0CFD  00                 [26] (-124)
0CFE  00                 [27] (-124)
0CFF  00                 [28] (-124)
0D00  81                 [29] (-124)
0D01  00                 [30] (-124)
0D02  00                 [31] (-124)
0D03  00                 [32] (-121)
0D04  81                 [33] (-121)
0D05  00                 [34] (-120)
                         * locals:
0D6C  00                 sizelocvars (0)
                         * upvalues:
0D6D  00                 sizeupvalues (0)
                         ** end of function **

                         
0D6E                     ** function [4] definition (level 2)
                         ** start of function **
0D6E  00                 string size (0)
                         source name: (none)
0D70  01                 line defined (138)
0D71  B2                 last line defined (178)
0D72  01                 nups (4)
0D73  04                 numparams (1)
0D74  01                 is_vararg (0)
0D75  00                 maxstacksize (12)
                         * code:
0D77  6C                 sizecode (108)
0D78  5D000000           [001] getglobal  1   0        ; _T
0D7C  4E40C000           [002] gettable   1   1   257  ; "AbilityLevelQueryParms"
0D80  4E80C000           [003] gettable   1   1   258  ; "Avatar"
0D84  9DC00000           [004] getglobal  2   3        ; 1074689893
0D88  D2008000           [005] move       3   1      
0D8C  A2800001           [006] call       2   2   2  
0D90  98000000           [007] test       2       0    ; to [9] if true
0D94  1A000080           [008] jmp        1            ; to [10]
0D98  1E008000           [009] return     0   1      
0D9C  A400C100           [010] self       2   1   260  ; -1917464545
0DA0  A2800001           [011] call       2   2   2  
0DA4  E4404101           [012] self       3   2   261  ; 1769516121
0DA8  E2800001           [013] call       3   2   2  
0DAC  1DC10000           [014] getglobal  4   3        ; 1074689893
0DB0  52018001           [015] move       5   3      
0DB4  22810001           [016] call       4   2   2  
0DB8  18010000           [017] test       4       0    ; to [19] if true
0DBC  1A000080           [018] jmp        1            ; to [20]
0DC0  1E008000           [019] return     0   1      
0DC4  2481C101           [020] self       4   3   262  ; 1789415806
0DC8  9D010000           [021] getglobal  6   0        ; _T
0DCC  8E414003           [022] gettable   6   6   257  ; "AbilityLevelQueryParms"
0DD0  8EC14103           [023] gettable   6   6   263  ; "Ability"
0DD4  22818001           [024] call       4   3   2  
0DD8  6401C201           [025] self       5   3   264  ; 1126214973
0DDC  62810001           [026] call       5   2   2  
fail op	33
0DE0  21008102           [027] tforloop   0       4    ; to [29] if exit
0DE4  1A000080           [028] jmp        1            ; to [30]
0DE8  1E008000           [029] return     0   1      
0DEC  6441C201           [030] self       5   3   265  ; -40827644
0DF0  D2010002           [031] move       7   4      
0DF4  62818001           [032] call       5   3   2  
fail op	33
0DF8  2180C202           [033] tforloop   0       266  ; to [35] if exit
0DFC  1A000080           [034] jmp        1            ; to [36]
0E00  1E008000           [035] return     0   1      
0E04  A4C1C201           [036] self       6   3   267  ; 1183093143
0E08  12020002           [037] move       8   4      
0E0C  A2818001           [038] call       6   3   2  
0E10  D3010000           [039] getupval   7   0      
0E14  12028002           [040] move       8   5      
0E18  52020003           [041] move       9   6      
0E1C  E2418001           [042] call       7   3   1  
0E20  DD010300           [043] getglobal  7   12       ; Lotus_Game
0E24  CE41C303           [044] gettable   7   7   269  ; "PowerSuit_AUGMENT_ONE"
fail op	35
0E28  23C00103           [045] close      0  
0E2C  1A800780           [046] jmp        31           ; to [78]
0E30  DD010000           [047] getglobal  7   0        ; _T
0E34  CE41C003           [048] gettable   7   7   257  ; "AbilityLevelQueryParms"
0E38  CE81C303           [049] gettable   7   7   270  ; "Modded"
0E3C  D8010000           [050] test       7       0    ; to [52] if true
0E40  1A000180           [051] jmp        5            ; to [57]
0E44  D3010001           [052] getupval   7   2      
0E48  12028000           [053] move       8   1      
0E4C  52020003           [054] move       9   6      
0E50  E2818001           [055] call       7   3   2  
fail op	8
0E54  C8018000           [056] setupval   7   1      
0E58  DDC10300           [057] getglobal  7   15       ; table
0E5C  CE01C403           [058] gettable   7   7   272  ; -431682403
0E60  12020000           [059] move       8   0      
0E64  4B820000           [060] newtable   9   0   2    ; array=0, hash=2
0E68  4C82C488           [061] settable   9   273 274  ; "Label" "/Lotus/Language/Suits/ShieldAbilityAugment1Name"
0E6C  4C02C589           [062] settable   9   275 276  ; "Title" 1
0E70  E2418001           [063] call       7   3   1  
0E74  DDC10300           [064] getglobal  7   15       ; table
0E78  CE01C403           [065] gettable   7   7   272  ; -431682403
0E7C  12020000           [066] move       8   0      
0E80  4BC20000           [067] newtable   9   0   3    ; array=0, hash=3
0E84  4C42C588           [068] settable   9   273 277  ; "Label" "/Lotus/Language/Game/ABSORB_AMOUNT"
0E88  9DC20500           [069] getglobal  10  23       ; math
0E8C  8E024605           [070] gettable   10  10  280  ; -150971781
0E90  D3028000           [071] getupval   11  1      
0E94  C442C605           [072] mul        11  11  281  ; 0
0E98  A2820001           [073] call       10  2   2  
0E9C  4C82028B           [074] settable   9   278 10   ; "Value"
0EA0  4CC2468D           [075] settable   9   282 283  ; "ValueUnit" "/Lotus/Language/Game/UNIT_PERCENT"
0EA4  E2418001           [076] call       7   3   1  
0EA8  1A400780           [077] jmp        30           ; to [108]
0EAC  DD010300           [078] getglobal  7   12       ; Lotus_Game
0EB0  CE01C703           [079] gettable   7   7   284  ; "PowerSuit_AUGMENT_PVP_ONE"
fail op	35
0EB4  23C00103           [080] close      0  
0EB8  1A400680           [081] jmp        26           ; to [108]
0EBC  DD010000           [082] getglobal  7   0        ; _T
0EC0  CE41C003           [083] gettable   7   7   257  ; "AbilityLevelQueryParms"
0EC4  CE81C303           [084] gettable   7   7   270  ; "Modded"
0EC8  D8010000           [085] test       7       0    ; to [87] if true
0ECC  1A000180           [086] jmp        5            ; to [92]
0ED0  D3010001           [087] getupval   7   2      
0ED4  12028000           [088] move       8   1      
0ED8  52020003           [089] move       9   6      
0EDC  E2818001           [090] call       7   3   2  
fail op	8
0EE0  C8018001           [091] setupval   7   3      
0EE4  DDC10300           [092] getglobal  7   15       ; table
0EE8  CE01C403           [093] gettable   7   7   272  ; -431682403
0EEC  12020000           [094] move       8   0      
0EF0  4B820000           [095] newtable   9   0   2    ; array=0, hash=2
0EF4  4C42C788           [096] settable   9   273 285  ; "Label" "/Lotus/Language/Suits/ShieldAbilityAugment1PvPName"
0EF8  4C02C589           [097] settable   9   275 276  ; "Title" 1
0EFC  E2418001           [098] call       7   3   1  
0F00  DDC10300           [099] getglobal  7   15       ; table
0F04  CE01C403           [100] gettable   7   7   272  ; -431682403
0F08  12020000           [101] move       8   0      
0F0C  4BC20000           [102] newtable   9   0   3    ; array=0, hash=3
0F10  4C82C788           [103] settable   9   273 286  ; "Label" "/Lotus/Language/Game/RK_SHIELD"
0F14  93028001           [104] getupval   10  3      
0F18  4C82028B           [105] settable   9   278 10   ; "Value"
0F1C  4C02C88F           [106] settable   9   287 288  ; "ValueIcon" "<SHIELD>"
0F20  E2418001           [107] call       7   3   1  
0F24  1E008000           [108] return     0   1      
                         * constants:
0F28  21                 sizek (33)
0F29  04                 const type 4
0F2A  03                 string size (3)
0F2B  5F5400             "_T\0"
                         const [0]: "_T"
0F2E  04                 const type 4
0F2F  17                 string size (23)
0F30  4162696C6974794C+  "AbilityL"
0F38  6576656C51756572+  "evelQuer"
0F40  795061726D7300     "yParms\0"
                         const [1]: "AbilityLevelQueryParms"
0F47  04                 const type 4
0F48  07                 string size (7)
0F49  41766174617200     "Avatar\0"
                         const [2]: "Avatar"
0F50  01                 const type 3
0F51  65770E40           const [3]: (1074689893)
0F55  01                 const type 3
0F56  1FD0B58D           const [4]: (-1917464545)
0F5A  01                 const type 3
0F5B  59AC7869           const [5]: (1769516121)
0F5F  01                 const type 3
0F60  7E51A86A           const [6]: (1789415806)
0F64  04                 const type 4
0F65  08                 string size (8)
0F66  4162696C69747900   "Ability\0"
                         const [7]: "Ability"
0F6E  01                 const type 3
0F6F  3DAD2043           const [8]: (1126214973)
0F73  01                 const type 3
0F74  040591FD           const [9]: (-40827644)
0F78  03                 const type 3
0F79  00000000           const [10]: (0)
0F7D  01                 const type 3
0F7E  97918446           const [11]: (1183093143)
0F82  04                 const type 4
0F83  0B                 string size (11)
0F84  4C6F7475735F4761+  "Lotus_Ga"
0F8C  6D6500             "me\0"
                         const [12]: "Lotus_Game"
0F8F  04                 const type 4
0F90  16                 string size (22)
0F91  506F776572537569+  "PowerSui"
0F99  745F4155474D454E+  "t_AUGMEN"
0FA1  545F4F4E4500       "T_ONE\0"
                         const [13]: "PowerSuit_AUGMENT_ONE"
0FA7  04                 const type 4
0FA8  07                 string size (7)
0FA9  4D6F6464656400     "Modded\0"
                         const [14]: "Modded"
0FB0  04                 const type 4
0FB1  06                 string size (6)
0FB2  7461626C6500       "table\0"
                         const [15]: "table"
0FB8  01                 const type 3
0FB9  9D0C45E6           const [16]: (-431682403)
0FBD  04                 const type 4
0FBE  06                 string size (6)
0FBF  4C6162656C00       "Label\0"
                         const [17]: "Label"
0FC5  04                 const type 4
0FC6  30                 string size (48)
0FC7  2F4C6F7475732F4C+  "/Lotus/L"
0FCF  616E67756167652F+  "anguage/"
0FD7  53756974732F5368+  "Suits/Sh"
0FDF  69656C644162696C+  "ieldAbil"
0FE7  6974794175676D65+  "ityAugme"
0FEF  6E74314E616D6500   "nt1Name\0"
                         const [18]: "/Lotus/Language/Suits/ShieldAbilityAugment1Name"
0FF7  04                 const type 4
0FF8  06                 string size (6)
0FF9  5469746C6500       "Title\0"
                         const [19]: "Title"
0FFF  01                 const type 3
1000  01000000           const [20]: (1)
1004  04                 const type 4
1005  23                 string size (35)
1006  2F4C6F7475732F4C+  "/Lotus/L"
100E  616E67756167652F+  "anguage/"
1016  47616D652F414253+  "Game/ABS"
101E  4F52425F414D4F55+  "ORB_AMOU"
1026  4E5400             "NT\0"
                         const [21]: "/Lotus/Language/Game/ABSORB_AMOUNT"
1029  04                 const type 4
102A  06                 string size (6)
102B  56616C756500       "Value\0"
                         const [22]: "Value"
1031  04                 const type 4
1032  05                 string size (5)
1033  6D61746800         "math\0"
                         const [23]: "math"
1038  01                 const type 3
1039  7B5A00F7           const [24]: (-150971781)
103D  03                 const type 3
103E  0000C842           const [25]: (0)
1042  04                 const type 4
1043  0A                 string size (10)
1044  56616C7565556E69+  "ValueUni"
104C  7400               "t\0"
                         const [26]: "ValueUnit"
104E  04                 const type 4
104F  22                 string size (34)
1050  2F4C6F7475732F4C+  "/Lotus/L"
1058  616E67756167652F+  "anguage/"
1060  47616D652F554E49+  "Game/UNI"
1068  545F50455243454E+  "T_PERCEN"
1070  5400               "T\0"
                         const [27]: "/Lotus/Language/Game/UNIT_PERCENT"
1072  04                 const type 4
1073  1A                 string size (26)
1074  506F776572537569+  "PowerSui"
107C  745F4155474D454E+  "t_AUGMEN"
1084  545F5056505F4F4E+  "T_PVP_ON"
108C  4500               "E\0"
                         const [28]: "PowerSuit_AUGMENT_PVP_ONE"
108E  04                 const type 4
108F  33                 string size (51)
1090  2F4C6F7475732F4C+  "/Lotus/L"
1098  616E67756167652F+  "anguage/"
10A0  53756974732F5368+  "Suits/Sh"
10A8  69656C644162696C+  "ieldAbil"
10B0  6974794175676D65+  "ityAugme"
10B8  6E74315076504E61+  "nt1PvPNa"
10C0  6D6500             "me\0"
                         const [29]: "/Lotus/Language/Suits/ShieldAbilityAugment1PvPName"
10C3  04                 const type 4
10C4  1F                 string size (31)
10C5  2F4C6F7475732F4C+  "/Lotus/L"
10CD  616E67756167652F+  "anguage/"
10D5  47616D652F524B5F+  "Game/RK_"
10DD  534849454C4400     "SHIELD\0"
                         const [30]: "/Lotus/Language/Game/RK_SHIELD"
10E4  04                 const type 4
10E5  0A                 string size (10)
10E6  56616C756549636F+  "ValueIco"
10EE  6E00               "n\0"
                         const [31]: "ValueIcon"
10F0  04                 const type 4
10F1  09                 string size (9)
10F2  3C534849454C443E+  "<SHIELD>"
10FA  00                 "\0"
                         const [32]: "<SHIELD>"
                         * functions:
10FB  00                 sizep (0)
                         * lines:
10FC  6C                 sizelineinfo (108)
                         [pc] (line)
10FD  8B                 [001] (-117)
10FE  00                 [002] (-117)
10FF  00                 [003] (-117)
1100  00                 [004] (-116)
1101  8B                 [005] (-116)
1102  00                 [006] (-116)
1103  00                 [007] (-116)
1104  00                 [008] (-116)
1105  8B                 [009] (-115)
1106  00                 [010] (-112)
1107  00                 [011] (-112)
1108  00                 [012] (-111)
1109  8C                 [013] (-111)
110A  00                 [014] (-110)
110B  00                 [015] (-110)
110C  00                 [016] (-110)
110D  8C                 [017] (-110)
110E  00                 [018] (-110)
110F  00                 [019] (-109)
1110  00                 [020] (-106)
1111  8C                 [021] (-106)
1112  00                 [022] (-106)
1113  00                 [023] (-106)
1114  00                 [024] (-106)
1115  8C                 [025] (-105)
1116  00                 [026] (-105)
1117  00                 [027] (-105)
1118  00                 [028] (-105)
1119  8C                 [029] (-104)
111A  00                 [030] (-101)
111B  00                 [031] (-101)
111C  00                 [032] (-101)
111D  8D                 [033] (-100)
111E  00                 [034] (-100)
111F  00                 [035] (-99)
1120  00                 [036] (-96)
1121  90                 [037] (-96)
1122  00                 [038] (-96)
1123  00                 [039] (-95)
1124  00                 [040] (-95)
1125  90                 [041] (-95)
1126  00                 [042] (-95)
1127  00                 [043] (-93)
1128  00                 [044] (-93)
1129  91                 [045] (-93)
112A  00                 [046] (-93)
112B  00                 [047] (-92)
112C  00                 [048] (-92)
112D  91                 [049] (-92)
112E  00                 [050] (-92)
112F  00                 [051] (-92)
1130  00                 [052] (-91)
1131  92                 [053] (-91)
1132  00                 [054] (-91)
1133  00                 [055] (-91)
1134  00                 [056] (-91)
1135  92                 [057] (-88)
1136  00                 [058] (-88)
1137  00                 [059] (-88)
1138  00                 [060] (-88)
1139  92                 [061] (-88)
113A  00                 [062] (-88)
113B  00                 [063] (-88)
113C  00                 [064] (-87)
113D  92                 [065] (-87)
113E  00                 [066] (-87)
113F  00                 [067] (-87)
1140  00                 [068] (-87)
1141  92                 [069] (-87)
1142  00                 [070] (-87)
1143  00                 [071] (-87)
1144  00                 [072] (-87)
1145  93                 [073] (-87)
1146  00                 [074] (-87)
1147  00                 [075] (-87)
1148  00                 [076] (-87)
1149  96                 [077] (-87)
114A  00                 [078] (-86)
114B  00                 [079] (-86)
114C  00                 [080] (-86)
114D  96                 [081] (-86)
114E  00                 [082] (-85)
114F  00                 [083] (-85)
1150  00                 [084] (-85)
1151  96                 [085] (-85)
1152  00                 [086] (-85)
1153  00                 [087] (-84)
1154  00                 [088] (-84)
1155  96                 [089] (-84)
1156  00                 [090] (-84)
1157  00                 [091] (-84)
1158  00                 [092] (-81)
1159  96                 [093] (-81)
115A  00                 [094] (-81)
115B  00                 [095] (-81)
115C  00                 [096] (-81)
115D  97                 [097] (-81)
115E  00                 [098] (-81)
115F  00                 [099] (-80)
1160  00                 [100] (-80)
1161  97                 [101] (-80)
1162  00                 [102] (-80)
1163  00                 [103] (-80)
1164  00                 [104] (-80)
1165  97                 [105] (-80)
1166  00                 [106] (-80)
1167  00                 [107] (-80)
1168  00                 [108] (-78)
                         * locals:
12AD  00                 sizelocvars (0)
                         * upvalues:
12AE  00                 sizeupvalues (0)
                         ** end of function **

                         
12AF                     ** function [5] definition (level 2)
                         ** start of function **
12AF  00                 string size (0)
                         source name: (none)
12B1  01                 line defined (180)
12B2  C9                 last line defined (201)
12B3  01                 nups (7)
12B4  07                 numparams (0)
12B5  00                 is_vararg (0)
12B6  00                 maxstacksize (8)
                         * code:
12B8  49                 sizecode (73)
12B9  13000000           [01] getupval   0   0      
12BD  5D000000           [02] getglobal  1   0        ; _T
12C1  4E40C000           [03] gettable   1   1   257  ; "AbilityLevelQueryParms"
12C5  4E80C000           [04] gettable   1   1   258  ; "Level"
12C9  22400001           [05] call       0   2   1  
12CD  13008000           [06] getupval   0   1      
12D1  53000001           [07] getupval   1   2      
12D5  9D000000           [08] getglobal  2   0        ; _T
12D9  8E404001           [09] gettable   2   2   257  ; "AbilityLevelQueryParms"
12DD  8EC04001           [10] gettable   2   2   259  ; "Modded"
fail op	35
12E1  23004101           [11] close      0  
12E5  1AC00180           [12] jmp        8            ; to [21]
12E9  93000002           [13] getupval   2   4      
12ED  DD000000           [14] getglobal  3   0        ; _T
12F1  CE40C001           [15] gettable   3   3   257  ; "AbilityLevelQueryParms"
12F5  CE40C101           [16] gettable   3   3   261  ; "Avatar"
12F9  A2000101           [17] call       2   2   4  
12FD  52000002           [18] move       1   4      
1301  12008001           [19] move       0   3      
fail op	8
1305  88008001           [20] setupval   2   3      
1309  8B000000           [21] newtable   2   0   0    ; array=0, hash=0
130D  DD800100           [22] getglobal  3   6        ; table
1311  CEC0C101           [23] gettable   3   3   263  ; -431682403
1315  12010001           [24] move       4   2      
1319  4BC10000           [25] newtable   5   0   3    ; array=0, hash=3
131D  4C414284           [26] settable   5   264 265  ; "Label" "/Lotus/Language/Game/POWER_DURATION"
1321  93018001           [27] getupval   6   3      
1325  4C810185           [28] settable   5   266 6    ; "Value"
1329  4C01C385           [29] settable   5   267 268  ; "ValueUnit" "/Lotus/Language/Game/UNIT_SECOND"
132D  E2408001           [30] call       3   3   1  
1331  DD800100           [31] getglobal  3   6        ; table
1335  CEC0C101           [32] gettable   3   3   263  ; -431682403
1339  12010001           [33] move       4   2      
133D  4B010100           [34] newtable   5   0   4    ; array=0, hash=4
1341  4C414384           [35] settable   5   264 269  ; "Label" "/Lotus/Language/Game/EXTRA_DAMAGE"
1345  9D810300           [36] getglobal  6   14       ; math
1349  8EC14303           [37] gettable   6   6   271  ; -150971781
134D  D3018002           [38] getupval   7   5      
1351  C401C403           [39] mul        7   7   272  ; 0
1355  A2810001           [40] call       6   2   2  
1359  4C810185           [41] settable   5   266 6    ; "Value"
135D  4C81C488           [42] settable   5   273 274  ; "ValueIcon" "<DT_ELECTRICITY>"
1361  4CC1C485           [43] settable   5   267 275  ; "ValueUnit" "/Lotus/Language/Game/UNIT_PERCENT"
1365  E2408001           [44] call       3   3   1  
fail op	35
1369  63004500           [45] close      1  
136D  1AC00180           [46] jmp        8            ; to [55]
1371  DD800100           [47] getglobal  3   6        ; table
1375  CEC0C101           [48] gettable   3   3   263  ; -431682403
1379  12010001           [49] move       4   2      
137D  4BC10000           [50] newtable   5   0   3    ; array=0, hash=3
1381  4C414584           [51] settable   5   264 277  ; "Label" "/Lotus/Language/Game/EPS"
1385  4C010085           [52] settable   5   266 0    ; "Value"
1389  4C01418B           [53] settable   5   278 260  ; "SmallerIsBetter" 1
138D  E2408001           [54] call       3   3   1  
1391  DD800100           [55] getglobal  3   6        ; table
1395  CEC0C101           [56] gettable   3   3   263  ; -431682403
1399  12010001           [57] move       4   2      
139D  4BC10000           [58] newtable   5   0   3    ; array=0, hash=3
13A1  4CC14584           [59] settable   5   264 279  ; "Label" "/Lotus/Language/Game/DISTANCE_PER_ENERGY_NO_UNIT"
13A5  9C41008C           [60] div        6   280 1    ; 0
13A9  4C810185           [61] settable   5   266 6    ; "Value"
13AD  4C41C685           [62] settable   5   267 281  ; "ValueUnit" "/Lotus/Language/Game/UNIT_METER"
13B1  E2408001           [63] call       3   3   1  
13B5  D3000003           [64] getupval   3   6      
13B9  12010001           [65] move       4   2      
13BD  E2400001           [66] call       3   2   1  
13C1  DD000000           [67] getglobal  3   0        ; _T
13C5  CE40C001           [68] gettable   3   3   257  ; "AbilityLevelQueryParms"
13C9  CEC0C001           [69] gettable   3   3   259  ; "Modded"
13CD  8CC08081           [70] settable   2   259 3    ; "Modded"
13D1  DD000000           [71] getglobal  3   0        ; _T
13D5  CC80008D           [72] settable   3   282 2    ; "AbilityUpgradeLevelInfo"
13D9  1E008000           [73] return     0   1      
                         * constants:
13DD  1B                 sizek (27)
13DE  04                 const type 4
13DF  03                 string size (3)
13E0  5F5400             "_T\0"
                         const [0]: "_T"
13E3  04                 const type 4
13E4  17                 string size (23)
13E5  4162696C6974794C+  "AbilityL"
13ED  6576656C51756572+  "evelQuer"
13F5  795061726D7300     "yParms\0"
                         const [1]: "AbilityLevelQueryParms"
13FC  04                 const type 4
13FD  06                 string size (6)
13FE  4C6576656C00       "Level\0"
                         const [2]: "Level"
1404  04                 const type 4
1405  07                 string size (7)
1406  4D6F6464656400     "Modded\0"
                         const [3]: "Modded"
140D  01                 const type 3
140E  01000000           const [4]: (1)
1412  04                 const type 4
1413  07                 string size (7)
1414  41766174617200     "Avatar\0"
                         const [5]: "Avatar"
141B  04                 const type 4
141C  06                 string size (6)
141D  7461626C6500       "table\0"
                         const [6]: "table"
1423  01                 const type 3
1424  9D0C45E6           const [7]: (-431682403)
1428  04                 const type 4
1429  06                 string size (6)
142A  4C6162656C00       "Label\0"
                         const [8]: "Label"
1430  04                 const type 4
1431  24                 string size (36)
1432  2F4C6F7475732F4C+  "/Lotus/L"
143A  616E67756167652F+  "anguage/"
1442  47616D652F504F57+  "Game/POW"
144A  45525F4455524154+  "ER_DURAT"
1452  494F4E00           "ION\0"
                         const [9]: "/Lotus/Language/Game/POWER_DURATION"
1456  04                 const type 4
1457  06                 string size (6)
1458  56616C756500       "Value\0"
                         const [10]: "Value"
145E  04                 const type 4
145F  0A                 string size (10)
1460  56616C7565556E69+  "ValueUni"
1468  7400               "t\0"
                         const [11]: "ValueUnit"
146A  04                 const type 4
146B  21                 string size (33)
146C  2F4C6F7475732F4C+  "/Lotus/L"
1474  616E67756167652F+  "anguage/"
147C  47616D652F554E49+  "Game/UNI"
1484  545F5345434F4E44+  "T_SECOND"
148C  00                 "\0"
                         const [12]: "/Lotus/Language/Game/UNIT_SECOND"
148D  04                 const type 4
148E  22                 string size (34)
148F  2F4C6F7475732F4C+  "/Lotus/L"
1497  616E67756167652F+  "anguage/"
149F  47616D652F455854+  "Game/EXT"
14A7  52415F44414D4147+  "RA_DAMAG"
14AF  4500               "E\0"
                         const [13]: "/Lotus/Language/Game/EXTRA_DAMAGE"
14B1  04                 const type 4
14B2  05                 string size (5)
14B3  6D61746800         "math\0"
                         const [14]: "math"
14B8  01                 const type 3
14B9  7B5A00F7           const [15]: (-150971781)
14BD  03                 const type 3
14BE  0000C842           const [16]: (0)
14C2  04                 const type 4
14C3  0A                 string size (10)
14C4  56616C756549636F+  "ValueIco"
14CC  6E00               "n\0"
                         const [17]: "ValueIcon"
14CE  04                 const type 4
14CF  11                 string size (17)
14D0  3C44545F454C4543+  "<DT_ELEC"
14D8  545249434954593E+  "TRICITY>"
14E0  00                 "\0"
                         const [18]: "<DT_ELECTRICITY>"
14E1  04                 const type 4
14E2  22                 string size (34)
14E3  2F4C6F7475732F4C+  "/Lotus/L"
14EB  616E67756167652F+  "anguage/"
14F3  47616D652F554E49+  "Game/UNI"
14FB  545F50455243454E+  "T_PERCEN"
1503  5400               "T\0"
                         const [19]: "/Lotus/Language/Game/UNIT_PERCENT"
1505  03                 const type 3
1506  00000000           const [20]: (0)
150A  04                 const type 4
150B  19                 string size (25)
150C  2F4C6F7475732F4C+  "/Lotus/L"
1514  616E67756167652F+  "anguage/"
151C  47616D652F455053+  "Game/EPS"
1524  00                 "\0"
                         const [21]: "/Lotus/Language/Game/EPS"
1525  04                 const type 4
1526  10                 string size (16)
1527  536D616C6C657249+  "SmallerI"
152F  7342657474657200   "sBetter\0"
                         const [22]: "SmallerIsBetter"
1537  04                 const type 4
1538  31                 string size (49)
1539  2F4C6F7475732F4C+  "/Lotus/L"
1541  616E67756167652F+  "anguage/"
1549  47616D652F444953+  "Game/DIS"
1551  54414E43455F5045+  "TANCE_PE"
1559  525F454E45524759+  "R_ENERGY"
1561  5F4E4F5F554E4954+  "_NO_UNIT"
1569  00                 "\0"
                         const [23]: "/Lotus/Language/Game/DISTANCE_PER_ENERGY_NO_UNIT"
156A  03                 const type 3
156B  0000803F           const [24]: (0)
156F  04                 const type 4
1570  20                 string size (32)
1571  2F4C6F7475732F4C+  "/Lotus/L"
1579  616E67756167652F+  "anguage/"
1581  47616D652F554E49+  "Game/UNI"
1589  545F4D4554455200   "T_METER\0"
                         const [25]: "/Lotus/Language/Game/UNIT_METER"
1591  04                 const type 4
1592  18                 string size (24)
1593  4162696C69747955+  "AbilityU"
159B  7067726164654C65+  "pgradeLe"
15A3  76656C496E666F00   "velInfo\0"
                         const [26]: "AbilityUpgradeLevelInfo"
                         * functions:
15AB  00                 sizep (0)
                         * lines:
15AC  49                 sizelineinfo (73)
                         [pc] (line)
15AD  B5                 [01] (-75)
15AE  00                 [02] (-75)
15AF  00                 [03] (-75)
15B0  00                 [04] (-75)
15B1  B5                 [05] (-75)
15B2  00                 [06] (-74)
15B3  00                 [07] (-73)
15B4  00                 [08] (-72)
15B5  B5                 [09] (-72)
15B6  00                 [10] (-72)
15B7  00                 [11] (-72)
15B8  00                 [12] (-72)
15B9  B5                 [13] (-71)
15BA  00                 [14] (-71)
15BB  00                 [15] (-71)
15BC  00                 [16] (-71)
15BD  B5                 [17] (-71)
15BE  00                 [18] (-71)
15BF  00                 [19] (-71)
15C0  00                 [20] (-71)
15C1  B6                 [21] (-68)
15C2  00                 [22] (-67)
15C3  00                 [23] (-67)
15C4  00                 [24] (-67)
15C5  B7                 [25] (-67)
15C6  00                 [26] (-67)
15C7  00                 [27] (-67)
15C8  00                 [28] (-67)
15C9  B8                 [29] (-67)
15CA  00                 [30] (-67)
15CB  00                 [31] (-66)
15CC  00                 [32] (-66)
15CD  B8                 [33] (-66)
15CE  00                 [34] (-66)
15CF  00                 [35] (-66)
15D0  00                 [36] (-66)
15D1  B8                 [37] (-66)
15D2  00                 [38] (-66)
15D3  00                 [39] (-66)
15D4  00                 [40] (-66)
15D5  B8                 [41] (-66)
15D6  00                 [42] (-66)
15D7  00                 [43] (-66)
15D8  00                 [44] (-66)
15D9  B8                 [45] (-65)
15DA  00                 [46] (-65)
15DB  00                 [47] (-64)
15DC  00                 [48] (-64)
15DD  B9                 [49] (-64)
15DE  00                 [50] (-64)
15DF  00                 [51] (-64)
15E0  00                 [52] (-64)
15E1  B9                 [53] (-64)
15E2  00                 [54] (-64)
15E3  00                 [55] (-62)
15E4  00                 [56] (-62)
15E5  B9                 [57] (-62)
15E6  00                 [58] (-62)
15E7  00                 [59] (-62)
15E8  00                 [60] (-62)
15E9  B9                 [61] (-62)
15EA  00                 [62] (-62)
15EB  00                 [63] (-62)
15EC  00                 [64] (-60)
15ED  B9                 [65] (-60)
15EE  00                 [66] (-60)
15EF  00                 [67] (-58)
15F0  00                 [68] (-58)
15F1  B9                 [69] (-58)
15F2  00                 [70] (-58)
15F3  00                 [71] (-56)
15F4  00                 [72] (-56)
15F5  B9                 [73] (-55)
                         * locals:
16D1  00                 sizelocvars (0)
                         * upvalues:
16D2  00                 sizeupvalues (0)
                         ** end of function **

                         
16D3                     ** function [6] definition (level 2)
                         ** start of function **
16D3  00                 string size (0)
                         source name: (none)
16D5  01                 line defined (203)
16D6  DA                 last line defined (218)
16D7  01                 nups (3)
16D8  03                 numparams (2)
16D9  02                 is_vararg (0)
16DA  00                 maxstacksize (6)
                         * code:
16DC  20                 sizecode (32)
16DD  8B000000           [01] newtable   2   0   0    ; array=0, hash=0
16E1  D3000000           [02] getupval   3   0      
16E5  12010000           [03] move       4   0      
16E9  52018000           [04] move       5   1      
16ED  E2408001           [05] call       3   3   1  
16F1  DD000000           [06] getglobal  3   0        ; Lotus_Game
16F5  CE40C001           [07] gettable   3   3   257  ; "PowerSuit_AUGMENT_ONE"
fail op	35
16F9  23C08000           [08] close      0  
16FD  1A000280           [09] jmp        9            ; to [19]
1701  CB400000           [10] newtable   3   0   1    ; array=0, hash=1
1705  1DC10000           [11] getglobal  4   3        ; math
1709  0E014102           [12] gettable   4   4   260  ; -150971781
170D  53018000           [13] getupval   5   1      
1711  4441C102           [14] mul        5   5   261  ; 0
1715  22810001           [15] call       4   2   2  
1719  CC000181           [16] settable   3   258 4    ; "PERCENT"
171D  92008001           [17] move       2   3      
1721  1AC00180           [18] jmp        8            ; to [27]
1725  DD000000           [19] getglobal  3   0        ; Lotus_Game
1729  CE80C101           [20] gettable   3   3   262  ; "PowerSuit_AUGMENT_PVP_ONE"
fail op	35
172D  23C08000           [21] close      0  
1731  1AC00080           [22] jmp        4            ; to [27]
1735  CB400000           [23] newtable   3   0   1    ; array=0, hash=1
1739  13010001           [24] getupval   4   2      
173D  CC008183           [25] settable   3   263 4    ; "SHIELD_INC"
1741  92008001           [26] move       2   3      
1745  DD000200           [27] getglobal  3   8        ; cjson
1749  CE40C201           [28] gettable   3   3   265  ; -1916729509
174D  12010001           [29] move       4   2      
1751  C7000001           [30] tailcall   3   2   0  
1755  DE000000           [31] return     3   0      
1759  1E008000           [32] return     0   1      
                         * constants:
175D  0A                 sizek (10)
175E  04                 const type 4
175F  0B                 string size (11)
1760  4C6F7475735F4761+  "Lotus_Ga"
1768  6D6500             "me\0"
                         const [0]: "Lotus_Game"
176B  04                 const type 4
176C  16                 string size (22)
176D  506F776572537569+  "PowerSui"
1775  745F4155474D454E+  "t_AUGMEN"
177D  545F4F4E4500       "T_ONE\0"
                         const [1]: "PowerSuit_AUGMENT_ONE"
1783  04                 const type 4
1784  08                 string size (8)
1785  50455243454E5400   "PERCENT\0"
                         const [2]: "PERCENT"
178D  04                 const type 4
178E  05                 string size (5)
178F  6D61746800         "math\0"
                         const [3]: "math"
1794  01                 const type 3
1795  7B5A00F7           const [4]: (-150971781)
1799  03                 const type 3
179A  0000C842           const [5]: (0)
179E  04                 const type 4
179F  1A                 string size (26)
17A0  506F776572537569+  "PowerSui"
17A8  745F4155474D454E+  "t_AUGMEN"
17B0  545F5056505F4F4E+  "T_PVP_ON"
17B8  4500               "E\0"
                         const [6]: "PowerSuit_AUGMENT_PVP_ONE"
17BA  04                 const type 4
17BB  0B                 string size (11)
17BC  534849454C445F49+  "SHIELD_I"
17C4  4E4300             "NC\0"
                         const [7]: "SHIELD_INC"
17C7  04                 const type 4
17C8  06                 string size (6)
17C9  636A736F6E00       "cjson\0"
                         const [8]: "cjson"
17CF  01                 const type 3
17D0  5B07C18D           const [9]: (-1916729509)
                         * functions:
17D4  00                 sizep (0)
                         * lines:
17D5  20                 sizelineinfo (32)
                         [pc] (line)
17D6  CC                 [01] (-52)
17D7  00                 [02] (-50)
17D8  00                 [03] (-50)
17D9  00                 [04] (-50)
17DA  CE                 [05] (-50)
17DB  00                 [06] (-49)
17DC  00                 [07] (-49)
17DD  00                 [08] (-49)
17DE  CE                 [09] (-49)
17DF  00                 [10] (-48)
17E0  00                 [11] (-47)
17E1  00                 [12] (-47)
17E2  CE                 [13] (-47)
17E3  00                 [14] (-47)
17E4  00                 [15] (-47)
17E5  00                 [16] (-47)
17E6  CE                 [17] (-46)
17E7  00                 [18] (-46)
17E8  00                 [19] (-45)
17E9  00                 [20] (-45)
17EA  CF                 [21] (-45)
17EB  00                 [22] (-45)
17EC  00                 [23] (-44)
17ED  00                 [24] (-43)
17EE  CF                 [25] (-43)
17EF  00                 [26] (-42)
17F0  00                 [27] (-39)
17F1  00                 [28] (-39)
17F2  CF                 [29] (-39)
17F3  00                 [30] (-39)
17F4  00                 [31] (-39)
17F5  00                 [32] (-38)
                         * locals:
1856  00                 sizelocvars (0)
                         * upvalues:
1857  00                 sizeupvalues (0)
                         ** end of function **

                         
1858                     ** function [7] definition (level 2)
                         ** start of function **
1858  00                 string size (0)
                         source name: (none)
185A  01                 line defined (220)
185B  E0                 last line defined (224)
185C  01                 nups (1)
185D  01                 numparams (2)
185E  02                 is_vararg (0)
185F  00                 maxstacksize (6)
                         * code:
1861  0D                 sizecode (13)
1862  93000000           [01] getupval   2   0      
1866  8E004001           [02] gettable   2   2   256  ; 105205593
186A  A2808000           [03] call       2   1   2  
186E  98000000           [04] test       2       0    ; to [6] if true
1872  1A800180           [05] jmp        7            ; to [13]
1876  9D400000           [06] getglobal  2   1        ; mOwner
187A  A4804001           [07] self       2   2   258  ; 1492784584
187E  1DC10000           [08] getglobal  4   3        ; gGameRules
1882  24014102           [09] self       4   4   260  ; -1409394412
1886  22810001           [10] call       4   2   2  
188A  03414102           [11] add        4   4   261  ; 0
188E  A2408001           [12] call       2   3   1  
1892  1E008000           [13] return     0   1      
                         * constants:
1896  06                 sizek (6)
1897  01                 const type 3
1898  594F4506           const [0]: (105205593)
189C  04                 const type 4
189D  07                 string size (7)
189E  6D4F776E657200     "mOwner\0"
                         const [1]: "mOwner"
18A5  01                 const type 3
18A6  C815FA58           const [2]: (1492784584)
18AA  04                 const type 4
18AB  0B                 string size (11)
18AC  6747616D6552756C+  "gGameRul"
18B4  657300             "es\0"
                         const [3]: "gGameRules"
18B7  01                 const type 3
18B8  1459FEAB           const [4]: (-1409394412)
18BC  03                 const type 3
18BD  0000C842           const [5]: (0)
                         * functions:
18C1  00                 sizep (0)
                         * lines:
18C2  0D                 sizelineinfo (13)
                         [pc] (line)
18C3  DD                 [01] (-35)
18C4  00                 [02] (-35)
18C5  00                 [03] (-35)
18C6  00                 [04] (-35)
18C7  DD                 [05] (-35)
18C8  00                 [06] (-34)
18C9  00                 [07] (-34)
18CA  00                 [08] (-34)
18CB  DD                 [09] (-34)
18CC  00                 [10] (-34)
18CD  00                 [11] (-34)
18CE  00                 [12] (-34)
18CF  DD                 [13] (-32)
                         * locals:
18F7  00                 sizelocvars (0)
                         * upvalues:
18F8  00                 sizeupvalues (0)
                         ** end of function **

                         
18F9                     ** function [8] definition (level 2)
                         ** start of function **
18F9  00                 string size (0)
                         source name: (none)
18FB  01                 line defined (226)
18FC  F5                 last line defined (245)
18FD  01                 nups (0)
18FE  00                 numparams (3)
18FF  03                 is_vararg (0)
1900  00                 maxstacksize (21)
                         * code:
1902  31                 sizecode (49)
1903  D9000000           [01] loadk      3   0        ; 0
1907  2441C000           [02] self       4   1   257  ; -605089866
190B  22810001           [03] call       4   2   2  
190F  5D810000           [04] getglobal  5   2        ; 248503575
1913  9DC10000           [05] getglobal  6   3        ; _T
1917  8E014103           [06] gettable   6   6   260  ; "voltShield"
191B  62010101           [07] call       5   2   4  
191F  1A000780           [08] jmp        29           ; to [38]
1923  9D420100           [09] getglobal  10  5        ; 1672515847
1927  D2028004           [10] move       11  9      
192B  A2020101           [11] call       10  2   4  
192F  1A800580           [12] jmp        23           ; to [36]
1933  DD830100           [13] getglobal  15  6        ; 1074689893
1937  0EC44107           [14] gettable   16  14  263  ; "shield"
193B  E2830001           [15] call       15  2   2  
193F  D8430000           [16] test       15      1    ; to [18] if false
1943  1A400280           [17] jmp        10           ; to [28]
1947  CE034207           [18] gettable   15  14  264  ; "holder"
fail op	35
194B  23408007           [19] close      0  
194F  1A800180           [20] jmp        7            ; to [28]
1953  E443C200           [21] self       15  1   265  ; 521725352
1957  5D840200           [22] getglobal  17  10       ; -332969190
195B  99C40200           [23] loadk      18  11       ; "/Lotus/Language/Game/AbilityInUse"
195F  62040001           [24] call       17  2   0  
1963  E2430000           [25] call       15  0   1  
1967  D7030000           [26] loadbool   15  0   0    ; false
196B  DE030001           [27] return     15  2      
fail op	35
196F  23000202           [28] close      0  
1973  1A400180           [29] jmp        6            ; to [36]
1977  DD030300           [30] getglobal  15  12       ; math
197B  CE43C307           [31] gettable   15  15  269  ; -1962864584
197F  12048001           [32] move       16  3      
1983  4E844307           [33] gettable   17  14  270  ; "instance"
1987  E2838001           [34] call       15  3   2  
198B  D2008007           [35] move       3   15     
198F  96820000           [36] tforloop   10      2    ; to [38] if exit
1993  1A80F97F           [37] jmp        -25          ; to [13]
1997  56810000           [38] tforloop   5       2    ; to [40] if exit
199B  1A00F87F           [39] jmp        -31          ; to [9]
199F  E4C34300           [40] self       15  0   271  ; -310036159
19A3  5D040400           [41] getglobal  17  16       ; 572299008
19A7  8344C401           [42] add        18  3   273  ; 0
19AB  D9040000           [43] loadk      19  0        ; 0
19AF  19050000           [44] loadk      20  0        ; 0
19B3  62040002           [45] call       17  4   0  
19B7  E2430000           [46] call       15  0   1  
19BB  D7038000           [47] loadbool   15  1   0    ; true
19BF  DE030001           [48] return     15  2      
19C3  1E008000           [49] return     0   1      
                         * constants:
19C7  12                 sizek (18)
19C8  03                 const type 3
19C9  00000000           const [0]: (0)
19CD  01                 const type 3
19CE  B60FEFDB           const [1]: (-605089866)
19D2  01                 const type 3
19D3  17DDCF0E           const [2]: (248503575)
19D7  04                 const type 4
19D8  03                 string size (3)
19D9  5F5400             "_T\0"
                         const [3]: "_T"
19DC  04                 const type 4
19DD  0B                 string size (11)
19DE  766F6C7453686965+  "voltShie"
19E6  6C6400             "ld\0"
                         const [4]: "voltShield"
19E9  01                 const type 3
19EA  0791B063           const [5]: (1672515847)
19EE  01                 const type 3
19EF  65770E40           const [6]: (1074689893)
19F3  04                 const type 4
19F4  07                 string size (7)
19F5  736869656C6400     "shield\0"
                         const [7]: "shield"
19FC  04                 const type 4
19FD  07                 string size (7)
19FE  686F6C64657200     "holder\0"
                         const [8]: "holder"
1A05  01                 const type 3
1A06  A8E5181F           const [9]: (521725352)
1A0A  01                 const type 3
1A0B  1A4B27EC           const [10]: (-332969190)
1A0F  04                 const type 4
1A10  22                 string size (34)
1A11  2F4C6F7475732F4C+  "/Lotus/L"
1A19  616E67756167652F+  "anguage/"
1A21  47616D652F416269+  "Game/Abi"
1A29  6C697479496E5573+  "lityInUs"
1A31  6500               "e\0"
                         const [11]: "/Lotus/Language/Game/AbilityInUse"
1A33  04                 const type 4
1A34  05                 string size (5)
1A35  6D61746800         "math\0"
                         const [12]: "math"
1A3A  01                 const type 3
1A3B  3810018B           const [13]: (-1962864584)
1A3F  04                 const type 4
1A40  09                 string size (9)
1A41  696E7374616E6365+  "instance"
1A49  00                 "\0"
                         const [14]: "instance"
1A4A  01                 const type 3
1A4B  413985ED           const [15]: (-310036159)
1A4F  01                 const type 3
1A50  00971C22           const [16]: (572299008)
1A54  03                 const type 3
1A55  0000803F           const [17]: (0)
                         * functions:
1A59  00                 sizep (0)
                         * lines:
1A5A  31                 sizelineinfo (49)
                         [pc] (line)
1A5B  E3                 [01] (-29)
1A5C  00                 [02] (-28)
1A5D  00                 [03] (-28)
1A5E  00                 [04] (-26)
1A5F  E4                 [05] (-26)
1A60  00                 [06] (-26)
1A61  00                 [07] (-26)
1A62  00                 [08] (-26)
1A63  E4                 [09] (-25)
1A64  00                 [10] (-25)
1A65  00                 [11] (-25)
1A66  00                 [12] (-25)
1A67  E6                 [13] (-24)
1A68  00                 [14] (-24)
1A69  00                 [15] (-24)
1A6A  00                 [16] (-24)
1A6B  E6                 [17] (-24)
1A6C  00                 [18] (-24)
1A6D  00                 [19] (-24)
1A6E  00                 [20] (-24)
1A6F  E6                 [21] (-23)
1A70  00                 [22] (-23)
1A71  00                 [23] (-23)
1A72  00                 [24] (-23)
1A73  E6                 [25] (-23)
1A74  00                 [26] (-22)
1A75  00                 [27] (-22)
1A76  00                 [28] (-19)
1A77  E6                 [29] (-19)
1A78  00                 [30] (-18)
1A79  00                 [31] (-18)
1A7A  00                 [32] (-18)
1A7B  E7                 [33] (-18)
1A7C  00                 [34] (-18)
1A7D  00                 [35] (-18)
1A7E  00                 [36] (-25)
1A7F  E7                 [37] (-17)
1A80  00                 [38] (-26)
1A81  00                 [39] (-16)
1A82  00                 [40] (-13)
1A83  E7                 [41] (-13)
1A84  00                 [42] (-13)
1A85  00                 [43] (-13)
1A86  00                 [44] (-13)
1A87  E7                 [45] (-13)
1A88  00                 [46] (-13)
1A89  00                 [47] (-12)
1A8A  00                 [48] (-12)
1A8B  E8                 [49] (-11)
                         * locals:
1B1F  00                 sizelocvars (0)
                         * upvalues:
1B20  00                 sizeupvalues (0)
                         ** end of function **

                         
1B21                     ** function [9] definition (level 2)
                         ** start of function **
1B21  00                 string size (0)
                         source name: (none)
1B23  01                 line defined (247)
1B24  84                 last line defined (260)
1B25  02                 nups (0)
1B26  00                 numparams (2)
1B27  02                 is_vararg (0)
1B28  00                 maxstacksize (6)
                         * code:
1B2A  17                 sizecode (23)
1B2B  A400C000           [01] self       2   1   256  ; -1411785325
1B2F  A2800001           [02] call       2   2   2  
1B33  E4404001           [03] self       3   2   257  ; -1406292634
1B37  E2800001           [04] call       3   2   2  
1B3B  D8400000           [05] test       3       1    ; to [7] if false
1B3F  1A400080           [06] jmp        2            ; to [9]
1B43  D9800000           [07] loadk      3   2        ; 0
1B47  DE000001           [08] return     3   2      
1B4B  E4C04001           [09] self       3   2   259  ; 276435261
1B4F  E2800001           [10] call       3   2   2  
1B53  1D010100           [11] getglobal  4   4        ; 1074689893
1B57  4E41C101           [12] gettable   5   3   261  ; "entity"
1B5B  22810001           [13] call       4   2   2  
1B5F  18410000           [14] test       4       1    ; to [16] if false
1B63  1A800080           [15] jmp        3            ; to [19]
1B67  0E81C101           [16] gettable   4   3   262  ; "visible"
1B6B  18410000           [17] test       4       1    ; to [19] if false
1B6F  1A400080           [18] jmp        2            ; to [21]
1B73  19810000           [19] loadk      4   2        ; 0
1B77  1E010001           [20] return     4   2      
1B7B  19C10100           [21] loadk      4   7        ; 0
1B7F  1E010001           [22] return     4   2      
1B83  1E008000           [23] return     0   1      
                         * constants:
1B87  08                 sizek (8)
1B88  01                 const type 3
1B89  93DDD9AB           const [0]: (-1411785325)
1B8D  01                 const type 3
1B8E  66AD2DAC           const [1]: (-1406292634)
1B92  03                 const type 3
1B93  00000000           const [2]: (0)
1B97  01                 const type 3
1B98  3D117A10           const [3]: (276435261)
1B9C  01                 const type 3
1B9D  65770E40           const [4]: (1074689893)
1BA1  04                 const type 4
1BA2  07                 string size (7)
1BA3  656E7469747900     "entity\0"
                         const [5]: "entity"
1BAA  04                 const type 4
1BAB  08                 string size (8)
1BAC  76697369626C6500   "visible\0"
                         const [6]: "visible"
1BB4  03                 const type 3
1BB5  0000803F           const [7]: (0)
                         * functions:
1BB9  00                 sizep (0)
                         * lines:
1BBA  17                 sizelineinfo (23)
                         [pc] (line)
1BBB  F8                 [01] (-8)
1BBC  00                 [02] (-8)
1BBD  00                 [03] (-7)
1BBE  00                 [04] (-7)
1BBF  F8                 [05] (-7)
1BC0  00                 [06] (-7)
1BC1  00                 [07] (-6)
1BC2  00                 [08] (-6)
1BC3  F9                 [09] (-3)
1BC4  00                 [10] (-3)
1BC5  00                 [11] (-2)
1BC6  00                 [12] (-2)
1BC7  F9                 [13] (-2)
1BC8  00                 [14] (-2)
1BC9  00                 [15] (-2)
1BCA  00                 [16] (-2)
1BCB  F9                 [17] (-2)
1BCC  00                 [18] (-2)
1BCD  00                 [19] (-1)
1BCE  00                 [20] (-1)
1BCF  F9                 [21] (3)
1BD0  00                 [22] (3)
1BD1  00                 [23] (4)
                         * locals:
1C17  00                 sizelocvars (0)
                         * upvalues:
1C18  00                 sizeupvalues (0)
                         ** end of function **

                         
1C19                     ** function [10] definition (level 2)
                         ** start of function **
1C19  00                 string size (0)
                         source name: (none)
1C1B  02                 line defined (262)
1C1C  CB                 last line defined (331)
1C1D  02                 nups (6)
1C1E  06                 numparams (5)
1C1F  05                 is_vararg (0)
1C20  00                 maxstacksize (26)
                         * code:
1C23  01                 sizecode (193)
1C24  53010000           [001] getupval   5   0      
1C28  92018001           [002] move       6   3      
1C2C  62410001           [003] call       5   2   1  
1C30  53018000           [004] getupval   5   1      
1C34  92018000           [005] move       6   1      
1C38  62810001           [006] call       5   2   2  
1C3C  8B810000           [007] newtable   6   0   2    ; array=0, hash=2
1C40  8C410180           [008] settable   6   256 5    ; "duration"
1C44  CE814002           [009] gettable   7   4   258  ; "x"
1C48  8CC18180           [010] settable   6   257 7    ; "shieldInstance"
1C4C  E4C14000           [011] self       7   0   259  ; -40827644
1C50  E2810001           [012] call       7   2   2  
1C54  24024100           [013] self       8   0   260  ; 1183093143
1C58  22820001           [014] call       8   2   2  
1C5C  46028004           [015] loadnil    9   9      
fail op	21
1C60  15C08182           [016] concat     0   261 7  
1C64  1AC00580           [017] jmp        24           ; to [42]
1C68  93020001           [018] getupval   10  2      
1C6C  D2028003           [019] move       11  7      
1C70  12030004           [020] move       12  8      
1C74  A2428001           [021] call       10  3   1  
1C78  9D820100           [022] getglobal  10  6        ; Lotus_Game
1C7C  8EC24105           [023] gettable   10  10  263  ; "PowerSuit_AUGMENT_ONE"
fail op	35
1C80  23800204           [024] close      0  
1C84  1A400180           [025] jmp        6            ; to [32]
1C88  93028001           [026] getupval   10  3      
1C8C  D2028000           [027] move       11  1      
1C90  12030004           [028] move       12  8      
1C94  A2828001           [029] call       10  3   2  
1C98  8C810284           [030] settable   6   264 10   ; "augmentPctConversion"
1C9C  1A000280           [031] jmp        9            ; to [41]
1CA0  9D820100           [032] getglobal  10  6        ; Lotus_Game
1CA4  8E424205           [033] gettable   10  10  265  ; "PowerSuit_AUGMENT_PVP_ONE"
fail op	35
1CA8  23800204           [034] close      0  
1CAC  1A000180           [035] jmp        5            ; to [41]
1CB0  93028001           [036] getupval   10  3      
1CB4  D2028000           [037] move       11  1      
1CB8  12030004           [038] move       12  8      
1CBC  A2828001           [039] call       10  3   2  
fail op	8
1CC0  88020002           [040] setupval   10  4      
1CC4  52020004           [041] move       9   8      
1CC8  93028002           [042] getupval   10  5      
1CCC  8E824205           [043] gettable   10  10  266  ; 1782903988
1CD0  D2020000           [044] move       11  0      
1CD4  1DC30200           [045] getglobal  12  11       ; mOwner
1CD8  52030003           [046] move       13  6      
1CDC  A2420002           [047] call       10  4   1  
1CE0  A402C300           [048] self       10  1   268  ; 2129303884
1CE4  A2820001           [049] call       10  2   2  
1CE8  E442C300           [050] self       11  1   269  ; 1292478819
1CEC  E2820001           [051] call       11  2   2  
1CF0  E482C305           [052] self       11  11  270  ; 1417583104
1CF4  52030005           [053] move       13  10     
1CF8  E2428001           [054] call       11  3   1  
1CFC  D3028002           [055] getupval   11  5      
1D00  CEC2C305           [056] gettable   11  11  271  ; 952069771
1D04  12030000           [057] move       12  0      
1D08  5D030400           [058] getglobal  13  16       ; activateAnim
1D0C  99430400           [059] loadk      14  17       ; "Shield"
1D10  D7030000           [060] loadbool   15  0   0    ; false
1D14  1D840400           [061] getglobal  16  18       ; Engine
1D18  0EC44408           [062] gettable   16  16  275  ; "ATMM_PHYSICS_DRIVEN"
1D1C  5D840400           [063] getglobal  17  18       ; Engine
1D20  4E04C508           [064] gettable   17  17  276  ; "PRT_ONCE"
1D24  97048000           [065] loadbool   18  1   0    ; true
1D28  E2420004           [066] call       11  8   1  
1D2C  E442C500           [067] self       11  1   277  ; -1421644046
1D30  64834500           [068] self       13  0   278  ; -576819411
1D34  DDC30500           [069] getglobal  15  23       ; -332969190
1D38  19040600           [070] loadk      16  24       ; "ShieldCastBurst"
1D3C  E2030001           [071] call       15  2   0  
1D40  62830000           [072] call       13  0   2  
1D44  9DC30500           [073] getglobal  14  23       ; -332969190
1D48  D9430600           [074] loadk      15  25       ; "GAME_L1_WEAPON1"
1D4C  A2030001           [075] call       14  2   0  
1D50  E2420000           [076] call       11  0   1  
1D54  E482C600           [077] self       11  1   282  ; 630793108
1D58  5DC30600           [078] getglobal  13  27       ; launchSound
1D5C  97030000           [079] loadbool   14  0   0    ; false
1D60  E2420002           [080] call       11  4   1  
1D64  E402C700           [081] self       11  1   284  ; 196800914
1D68  E2820001           [082] call       11  2   2  
1D6C  2403C300           [083] self       12  1   268  ; 2129303884
1D70  22830001           [084] call       12  2   2  
1D74  6443C700           [085] self       13  1   285  ; -1917464545
1D78  62830001           [086] call       13  2   2  
1D7C  6483C706           [087] self       13  13  286  ; -2079759465
1D80  62830001           [088] call       13  2   2  
1D84  4DC38206           [089] sub        13  13  11 
1D88  9DC30700           [090] getglobal  14  31       ; 1166235580
1D8C  D2038006           [091] move       15  13     
1D90  A2430001           [092] call       14  2   1  
1D94  8403C806           [093] mul        14  13  288  ; 0
1D98  DD430800           [094] getglobal  15  33       ; 572299008
1D9C  19440100           [095] loadk      16  5        ; 0
1DA0  59840800           [096] loadk      17  34       ; -51
1DA4  99440100           [097] loadk      18  5        ; 0
1DA8  E2830002           [098] call       15  4   2  
1DAC  19C40800           [099] loadk      16  35       ; "ShieldDeco"
1DB0  5D840100           [100] getglobal  17  6        ; Lotus_Game
1DB4  4EC4C108           [101] gettable   17  17  263  ; "PowerSuit_AUGMENT_ONE"
fail op	35
1DB8  23408404           [102] close      0  
1DBC  1A000080           [103] jmp        1            ; to [105]
1DC0  19040900           [104] loadk      16  36       ; "ShieldDecoAugment"
1DC4  5D440900           [105] getglobal  17  37       ; gRegion
1DC8  6484C908           [106] self       17  17  294  ; -1110225722
1DCC  E4844500           [107] self       19  0   278  ; -576819411
1DD0  5DC50500           [108] getglobal  21  23       ; -332969190
1DD4  92050008           [109] move       22  16     
1DD8  62050001           [110] call       21  2   0  
1DDC  E2840000           [111] call       19  0   2  
1DE0  03C58305           [112] add        20  11  15 
1DE4  52050006           [113] move       21  12     
1DE8  92058000           [114] move       22  1      
1DEC  62840003           [115] call       17  6   2  
1DF0  A4C4C908           [116] self       18  17  295  ; -1625438872
1DF4  1D050A00           [117] getglobal  20  40       ; gElementType
1DF8  A2848001           [118] call       18  3   2  
1DFC  DD440A00           [119] getglobal  19  41       ; 1074689893
1E00  12050009           [120] move       20  18     
1E04  E2840001           [121] call       19  2   2  
1E08  D8440000           [122] test       19      1    ; to [124] if false
1E0C  1A800480           [123] jmp        19           ; to [143]
1E10  E4844A09           [124] self       19  18  298  ; -2049256907
1E14  52050000           [125] move       21  0      
1E18  E2448001           [126] call       19  3   1  
1E1C  E4C44A09           [127] self       19  18  299  ; -484330307
1E20  52058000           [128] move       21  1      
1E24  E2448001           [129] call       19  3   1  
1E28  DD040B00           [130] getglobal  19  44       ; _T
1E2C  CE44CB09           [131] gettable   19  19  301  ; "VoltShieldElements"
fail op	35
1E30  2380CB09           [132] close      0  
1E34  1A800080           [133] jmp        3            ; to [137]
1E38  DD040B00           [134] getglobal  19  44       ; _T
1E3C  0B050000           [135] newtable   20  0   0    ; array=0, hash=0
1E40  CC048596           [136] settable   19  301 20   ; "VoltShieldElements"
1E44  DDC40B00           [137] getglobal  19  47       ; table
1E48  CE04CC09           [138] gettable   19  19  304  ; -431682403
1E4C  1D050B00           [139] getglobal  20  44       ; _T
1E50  0E454B0A           [140] gettable   20  20  301  ; "VoltShieldElements"
1E54  52050009           [141] move       21  18     
1E58  E2448001           [142] call       19  3   1  
1E5C  DD840100           [143] getglobal  19  6        ; Lotus_Game
1E60  CE44C209           [144] gettable   19  19  265  ; "PowerSuit_AUGMENT_PVP_ONE"
fail op	35
1E64  23C08404           [145] close      0  
1E68  1A400B80           [146] jmp        46           ; to [193]
1E6C  E444CC00           [147] self       19  1   305  ; 1800191191
1E70  5D450900           [148] getglobal  21  37       ; gRegion
1E74  6485CC0A           [149] self       21  21  306  ; 65205951
1E78  62050001           [150] call       21  2   0  
1E7C  E2840000           [151] call       19  0   2  
1E80  D8040000           [152] test       19      0    ; to [154] if true
1E84  1A800980           [153] jmp        39           ; to [193]
1E88  DD440900           [154] getglobal  19  37       ; gRegion
1E8C  E484C909           [155] self       19  19  294  ; -1110225722
1E90  5DC50C00           [156] getglobal  21  51       ; augmentPvpTriggerType
1E94  83C58305           [157] add        22  11  15 
1E98  8385030B           [158] add        22  22  14 
1E9C  D2050006           [159] move       23  12     
1EA0  12068000           [160] move       24  1      
1EA4  52068008           [161] move       25  17     
1EA8  E2848003           [162] call       19  7   2  
1EAC  1D450A00           [163] getglobal  20  41       ; 1074689893
1EB0  52058009           [164] move       21  19     
1EB4  22850001           [165] call       20  2   2  
1EB8  18450000           [166] test       20      1    ; to [168] if false
1EBC  1A000680           [167] jmp        25           ; to [193]
1EC0  2405CD08           [168] self       20  17  308  ; -786111647
1EC4  9DC50500           [169] getglobal  22  23       ; -332969190
1EC8  D9450D00           [170] loadk      23  53       ; "Scalar2"
1ECC  A2850001           [171] call       22  2   2  
1ED0  D9850D00           [172] loadk      23  54       ; -102
1ED4  22450002           [173] call       20  4   1  
1ED8  24C5C908           [174] self       20  17  295  ; -1625438872
1EDC  9DC50D00           [175] getglobal  22  55       ; gLotusHitProxyShieldType
1EE0  22858001           [176] call       20  3   2  
1EE4  6405CE09           [177] self       21  19  312  ; -1005242665
1EE8  D2058008           [178] move       23  17     
1EEC  1D460E00           [179] getglobal  24  57       ; EMPTY_SYMBOL
1EF0  62450002           [180] call       21  4   1  
1EF4  6485CE09           [181] self       21  19  314  ; 699694160
1EF8  D3050002           [182] getupval   23  4      
1EFC  62458001           [183] call       21  3   1  
1F00  5D450A00           [184] getglobal  21  41       ; 1074689893
1F04  9205000A           [185] move       22  20     
1F08  62850001           [186] call       21  2   2  
1F0C  58450000           [187] test       21      1    ; to [189] if false
1F10  1AC00080           [188] jmp        4            ; to [193]
1F14  64C5CE09           [189] self       21  19  315  ; 184547030
1F18  E4054F0A           [190] self       23  20  316  ; 301945578
1F1C  E2050001           [191] call       23  2   0  
1F20  62450000           [192] call       21  0   1  
1F24  1E008000           [193] return     0   1      
                         * constants:
1F28  3D                 sizek (61)
1F29  04                 const type 4
1F2A  09                 string size (9)
1F2B  6475726174696F6E+  "duration"
1F33  00                 "\0"
                         const [0]: "duration"
1F34  04                 const type 4
1F35  0F                 string size (15)
1F36  736869656C64496E+  "shieldIn"
1F3E  7374616E636500     "stance\0"
                         const [1]: "shieldInstance"
1F45  04                 const type 4
1F46  02                 string size (2)
1F47  7800               "x\0"
                         const [2]: "x"
1F49  01                 const type 3
1F4A  040591FD           const [3]: (-40827644)
1F4E  01                 const type 3
1F4F  97918446           const [4]: (1183093143)
1F53  03                 const type 3
1F54  00000000           const [5]: (0)
1F58  04                 const type 4
1F59  0B                 string size (11)
1F5A  4C6F7475735F4761+  "Lotus_Ga"
1F62  6D6500             "me\0"
                         const [6]: "Lotus_Game"
1F65  04                 const type 4
1F66  16                 string size (22)
1F67  506F776572537569+  "PowerSui"
1F6F  745F4155474D454E+  "t_AUGMEN"
1F77  545F4F4E4500       "T_ONE\0"
                         const [7]: "PowerSuit_AUGMENT_ONE"
1F7D  04                 const type 4
1F7E  15                 string size (21)
1F7F  6175676D656E7450+  "augmentP"
1F87  6374436F6E766572+  "ctConver"
1F8F  73696F6E00         "sion\0"
                         const [8]: "augmentPctConversion"
1F94  04                 const type 4
1F95  1A                 string size (26)
1F96  506F776572537569+  "PowerSui"
1F9E  745F4155474D454E+  "t_AUGMEN"
1FA6  545F5056505F4F4E+  "T_PVP_ON"
1FAE  4500               "E\0"
                         const [9]: "PowerSuit_AUGMENT_PVP_ONE"
1FB0  01                 const type 3
1FB1  B4F4446A           const [10]: (1782903988)
1FB5  04                 const type 4
1FB6  07                 string size (7)
1FB7  6D4F776E657200     "mOwner\0"
                         const [11]: "mOwner"
1FBE  01                 const type 3
1FBF  4C99EA7E           const [12]: (2129303884)
1FC3  01                 const type 3
1FC4  63A9094D           const [13]: (1292478819)
1FC8  01                 const type 3
1FC9  009A7E54           const [14]: (1417583104)
1FCD  01                 const type 3
1FCE  8B6EBF38           const [15]: (952069771)
1FD2  04                 const type 4
1FD3  0D                 string size (13)
1FD4  6163746976617465+  "activate"
1FDC  416E696D00         "Anim\0"
                         const [16]: "activateAnim"
1FE1  04                 const type 4
1FE2  07                 string size (7)
1FE3  536869656C6400     "Shield\0"
                         const [17]: "Shield"
1FEA  04                 const type 4
1FEB  07                 string size (7)
1FEC  456E67696E6500     "Engine\0"
                         const [18]: "Engine"
1FF3  04                 const type 4
1FF4  14                 string size (20)
1FF5  41544D4D5F504859+  "ATMM_PHY"
1FFD  534943535F445249+  "SICS_DRI"
2005  56454E00           "VEN\0"
                         const [19]: "ATMM_PHYSICS_DRIVEN"
2009  04                 const type 4
200A  09                 string size (9)
200B  5052545F4F4E4345+  "PRT_ONCE"
2013  00                 "\0"
                         const [20]: "PRT_ONCE"
2014  01                 const type 3
2015  F26E43AB           const [21]: (-1421644046)
2019  01                 const type 3
201A  2D6F9EDD           const [22]: (-576819411)
201E  01                 const type 3
201F  1A4B27EC           const [23]: (-332969190)
2023  04                 const type 4
2024  10                 string size (16)
2025  536869656C644361+  "ShieldCa"
202D  7374427572737400   "stBurst\0"
                         const [24]: "ShieldCastBurst"
2035  04                 const type 4
2036  10                 string size (16)
2037  47414D455F4C315F+  "GAME_L1_"
203F  574541504F4E3100   "WEAPON1\0"
                         const [25]: "GAME_L1_WEAPON1"
2047  01                 const type 3
2048  94239925           const [26]: (630793108)
204C  04                 const type 4
204D  0C                 string size (12)
204E  6C61756E6368536F+  "launchSo"
2056  756E6400           "und\0"
                         const [27]: "launchSound"
205A  01                 const type 3
205B  92F1BA0B           const [28]: (196800914)
205F  01                 const type 3
2060  1FD0B58D           const [29]: (-1917464545)
2064  01                 const type 3
2065  97630984           const [30]: (-2079759465)
2069  01                 const type 3
206A  BC578345           const [31]: (1166235580)
206E  03                 const type 3
206F  0000003F           const [32]: (0)
2073  01                 const type 3
2074  00971C22           const [33]: (572299008)
2078  03                 const type 3
2079  CDCC8C3F           const [34]: (-51)
207D  04                 const type 4
207E  0B                 string size (11)
207F  536869656C644465+  "ShieldDe"
2087  636F00             "co\0"
                         const [35]: "ShieldDeco"
208A  04                 const type 4
208B  12                 string size (18)
208C  536869656C644465+  "ShieldDe"
2094  636F4175676D656E+  "coAugmen"
209C  7400               "t\0"
                         const [36]: "ShieldDecoAugment"
209E  04                 const type 4
209F  08                 string size (8)
20A0  67526567696F6E00   "gRegion\0"
                         const [37]: "gRegion"
20A8  01                 const type 3
20A9  C64CD3BD           const [38]: (-1110225722)
20AD  01                 const type 3
20AE  68C51D9F           const [39]: (-1625438872)
20B2  04                 const type 4
20B3  0D                 string size (13)
20B4  67456C656D656E74+  "gElement"
20BC  5479706500         "Type\0"
                         const [40]: "gElementType"
20C1  01                 const type 3
20C2  65770E40           const [41]: (1074689893)
20C6  01                 const type 3
20C7  35D2DA85           const [42]: (-2049256907)
20CB  01                 const type 3
20CC  BDB421E3           const [43]: (-484330307)
20D0  04                 const type 4
20D1  03                 string size (3)
20D2  5F5400             "_T\0"
                         const [44]: "_T"
20D5  04                 const type 4
20D6  13                 string size (19)
20D7  566F6C7453686965+  "VoltShie"
20DF  6C64456C656D656E+  "ldElemen"
20E7  747300             "ts\0"
                         const [45]: "VoltShieldElements"
20EA  00                 const type 0
                         const [46]: nil
20EB  04                 const type 4
20EC  06                 string size (6)
20ED  7461626C6500       "table\0"
                         const [47]: "table"
20F3  01                 const type 3
20F4  9D0C45E6           const [48]: (-431682403)
20F8  01                 const type 3
20F9  D7BC4C6B           const [49]: (1800191191)
20FD  01                 const type 3
20FE  BFF6E203           const [50]: (65205951)
2102  04                 const type 4
2103  16                 string size (22)
2104  6175676D656E7450+  "augmentP"
210C  7670547269676765+  "vpTrigge"
2114  725479706500       "rType\0"
                         const [51]: "augmentPvpTriggerType"
211A  01                 const type 3
211B  61E324D1           const [52]: (-786111647)
211F  04                 const type 4
2120  08                 string size (8)
2121  5363616C61723200   "Scalar2\0"
                         const [53]: "Scalar2"
2129  03                 const type 3
212A  9A99193F           const [54]: (-102)
212E  04                 const type 4
212F  19                 string size (25)
2130  674C6F7475734869+  "gLotusHi"
2138  7450726F78795368+  "tProxySh"
2140  69656C6454797065+  "ieldType"
2148  00                 "\0"
                         const [55]: "gLotusHitProxyShieldType"
2149  01                 const type 3
214A  D73615C4           const [56]: (-1005242665)
214E  04                 const type 4
214F  0D                 string size (13)
2150  454D5054595F5359+  "EMPTY_SY"
2158  4D424F4C00         "MBOL\0"
                         const [57]: "EMPTY_SYMBOL"
215D  01                 const type 3
215E  507CB429           const [58]: (699694160)
2162  01                 const type 3
2163  D6F6FF0A           const [59]: (184547030)
2167  01                 const type 3
2168  EA52FF11           const [60]: (301945578)
                         * functions:
216C  00                 sizep (0)
                         * lines:
216E  01                 sizelineinfo (193)
                         [pc] (line)
216F  07                 [001] (7)
2170  01                 [002] (7)
2171  00                 [003] (7)
2172  00                 [004] (8)
2173  07                 [005] (8)
2174  01                 [006] (8)
2175  00                 [007] (9)
2176  00                 [008] (9)
2177  07                 [009] (9)
2178  01                 [010] (9)
2179  00                 [011] (11)
217A  00                 [012] (11)
217B  08                 [013] (12)
217C  01                 [014] (12)
217D  00                 [015] (13)
217E  00                 [016] (14)
217F  08                 [017] (14)
2180  01                 [018] (15)
2181  00                 [019] (15)
2182  00                 [020] (15)
2183  08                 [021] (15)
2184  01                 [022] (17)
2185  00                 [023] (17)
2186  00                 [024] (17)
2187  09                 [025] (17)
2188  01                 [026] (18)
2189  00                 [027] (18)
218A  00                 [028] (18)
218B  09                 [029] (18)
218C  01                 [030] (18)
218D  00                 [031] (18)
218E  00                 [032] (19)
218F  09                 [033] (19)
2190  01                 [034] (19)
2191  00                 [035] (19)
2192  00                 [036] (20)
2193  09                 [037] (20)
2194  01                 [038] (20)
2195  00                 [039] (20)
2196  00                 [040] (20)
2197  0B                 [041] (23)
2198  01                 [042] (25)
2199  00                 [043] (25)
219A  00                 [044] (25)
219B  0B                 [045] (25)
219C  01                 [046] (25)
219D  00                 [047] (25)
219E  00                 [048] (27)
219F  0C                 [049] (27)
21A0  01                 [050] (28)
21A1  00                 [051] (28)
21A2  00                 [052] (28)
21A3  0C                 [053] (28)
21A4  01                 [054] (28)
21A5  00                 [055] (30)
21A6  00                 [056] (30)
21A7  0D                 [057] (30)
21A8  01                 [058] (30)
21A9  00                 [059] (30)
21AA  00                 [060] (30)
21AB  0E                 [061] (30)
21AC  01                 [062] (30)
21AD  00                 [063] (30)
21AE  00                 [064] (30)
21AF  0E                 [065] (30)
21B0  01                 [066] (30)
21B1  00                 [067] (32)
21B2  00                 [068] (32)
21B3  0F                 [069] (32)
21B4  01                 [070] (32)
21B5  00                 [071] (32)
21B6  00                 [072] (32)
21B7  0F                 [073] (32)
21B8  01                 [074] (32)
21B9  00                 [075] (32)
21BA  00                 [076] (32)
21BB  0F                 [077] (33)
21BC  01                 [078] (33)
21BD  00                 [079] (33)
21BE  00                 [080] (33)
21BF  0F                 [081] (35)
21C0  01                 [082] (35)
21C1  00                 [083] (36)
21C2  00                 [084] (36)
21C3  11                 [085] (37)
21C4  01                 [086] (37)
21C5  00                 [087] (37)
21C6  00                 [088] (37)
21C7  11                 [089] (37)
21C8  01                 [090] (38)
21C9  00                 [091] (38)
21CA  00                 [092] (38)
21CB  11                 [093] (40)
21CC  01                 [094] (41)
21CD  00                 [095] (41)
21CE  00                 [096] (41)
21CF  11                 [097] (41)
21D0  01                 [098] (41)
21D1  00                 [099] (43)
21D2  00                 [100] (44)
21D3  12                 [101] (44)
21D4  01                 [102] (44)
21D5  00                 [103] (44)
21D6  00                 [104] (45)
21D7  12                 [105] (48)
21D8  01                 [106] (48)
21D9  00                 [107] (48)
21DA  00                 [108] (48)
21DB  12                 [109] (48)
21DC  01                 [110] (48)
21DD  00                 [111] (48)
21DE  00                 [112] (48)
21DF  12                 [113] (48)
21E0  01                 [114] (48)
21E1  00                 [115] (48)
21E2  00                 [116] (49)
21E3  12                 [117] (49)
21E4  01                 [118] (49)
21E5  00                 [119] (50)
21E6  00                 [120] (50)
21E7  12                 [121] (50)
21E8  01                 [122] (50)
21E9  00                 [123] (50)
21EA  00                 [124] (51)
21EB  13                 [125] (51)
21EC  01                 [126] (51)
21ED  00                 [127] (52)
21EE  00                 [128] (52)
21EF  13                 [129] (52)
21F0  01                 [130] (54)
21F1  00                 [131] (54)
21F2  00                 [132] (54)
21F3  13                 [133] (54)
21F4  01                 [134] (55)
21F5  00                 [135] (55)
21F6  00                 [136] (55)
21F7  13                 [137] (57)
21F8  01                 [138] (57)
21F9  00                 [139] (57)
21FA  00                 [140] (57)
21FB  14                 [141] (57)
21FC  01                 [142] (57)
21FD  00                 [143] (60)
21FE  00                 [144] (60)
21FF  14                 [145] (60)
2200  01                 [146] (60)
2201  00                 [147] (61)
2202  00                 [148] (61)
2203  14                 [149] (61)
2204  01                 [150] (61)
2205  00                 [151] (61)
2206  00                 [152] (61)
2207  14                 [153] (61)
2208  01                 [154] (62)
2209  00                 [155] (62)
220A  00                 [156] (62)
220B  14                 [157] (62)
220C  01                 [158] (62)
220D  00                 [159] (62)
220E  00                 [160] (62)
220F  17                 [161] (62)
2210  01                 [162] (62)
2211  00                 [163] (63)
2212  00                 [164] (63)
2213  19                 [165] (63)
2214  01                 [166] (63)
2215  00                 [167] (63)
2216  00                 [168] (64)
2217  19                 [169] (64)
2218  01                 [170] (64)
2219  00                 [171] (64)
221A  00                 [172] (64)
221B  19                 [173] (64)
221C  01                 [174] (66)
221D  00                 [175] (66)
221E  00                 [176] (66)
221F  19                 [177] (67)
2220  01                 [178] (67)
2221  00                 [179] (67)
2222  00                 [180] (67)
2223  19                 [181] (68)
2224  01                 [182] (68)
2225  00                 [183] (68)
2226  00                 [184] (69)
2227  19                 [185] (69)
2228  01                 [186] (69)
2229  00                 [187] (69)
222A  00                 [188] (69)
222B  1B                 [189] (70)
222C  01                 [190] (70)
222D  00                 [191] (70)
222E  00                 [192] (70)
222F  1B                 [193] (75)
                         * locals:
2473  00                 sizelocvars (0)
                         * upvalues:
2474  00                 sizeupvalues (0)
                         ** end of function **

                         
2475                     ** function [11] definition (level 2)
                         ** start of function **
2475  00                 string size (0)
                         source name: (none)
2477  02                 line defined (333)
2478  D7                 last line defined (343)
2479  02                 nups (0)
247A  00                 numparams (2)
247B  02                 is_vararg (0)
247C  00                 maxstacksize (10)
                         * code:
247E  16                 sizecode (22)
247F  9D000000           [01] getglobal  2   0        ; _T
2483  8E404001           [02] gettable   2   2   257  ; "VoltShieldElements"
fail op	35
2487  63804001           [03] close      1  
248B  1A000480           [04] jmp        17           ; to [22]
248F  9D000000           [05] getglobal  2   0        ; _T
2493  8E404001           [06] gettable   2   2   257  ; "VoltShieldElements"
2497  CA000001           [07] len        3   2      
249B  19C10000           [08] loadk      4   3        ; 0
249F  59010100           [09] loadk      5   4        ; 0
24A3  D0400280           [10] forprep    3   10       ; to [21]
24A7  DD410100           [11] getglobal  7   5        ; 1074689893
24AB  0E820101           [12] gettable   8   2   6  
24AF  E2810001           [13] call       7   2   2  
24B3  D8010000           [14] test       7       0    ; to [16] if true
24B7  1A000180           [15] jmp        5            ; to [21]
24BB  DD810100           [16] getglobal  7   6        ; table
24BF  CEC1C103           [17] gettable   7   7   263  ; -843973282
24C3  12020001           [18] move       8   2      
24C7  52020003           [19] move       9   6      
24CB  E2418001           [20] call       7   3   1  
24CF  D400FD7F           [21] forloop    3   -11      ; to [11] if loop
24D3  1E008000           [22] return     0   1      
                         * constants:
24D7  08                 sizek (8)
24D8  04                 const type 4
24D9  03                 string size (3)
24DA  5F5400             "_T\0"
                         const [0]: "_T"
24DD  04                 const type 4
24DE  13                 string size (19)
24DF  566F6C7453686965+  "VoltShie"
24E7  6C64456C656D656E+  "ldElemen"
24EF  747300             "ts\0"
                         const [1]: "VoltShieldElements"
24F2  00                 const type 0
                         const [2]: nil
24F3  03                 const type 3
24F4  0000803F           const [3]: (0)
24F8  03                 const type 3
24F9  000080BF           const [4]: (0)
24FD  01                 const type 3
24FE  65770E40           const [5]: (1074689893)
2502  04                 const type 4
2503  06                 string size (6)
2504  7461626C6500       "table\0"
                         const [6]: "table"
250A  01                 const type 3
250B  5EFDB1CD           const [7]: (-843973282)
                         * functions:
250F  00                 sizep (0)
                         * lines:
2510  16                 sizelineinfo (22)
                         [pc] (line)
2511  4E                 [01] (78)
2512  01                 [02] (78)
2513  00                 [03] (78)
2514  00                 [04] (78)
2515  4E                 [05] (80)
2516  01                 [06] (80)
2517  00                 [07] (81)
2518  00                 [08] (81)
2519  4E                 [09] (81)
251A  01                 [10] (81)
251B  00                 [11] (82)
251C  00                 [12] (82)
251D  4E                 [13] (82)
251E  01                 [14] (82)
251F  00                 [15] (82)
2520  00                 [16] (83)
2521  50                 [17] (83)
2522  01                 [18] (83)
2523  00                 [19] (83)
2524  00                 [20] (83)
2525  50                 [21] (81)
2526  01                 [22] (87)
                         * locals:
2569  00                 sizelocvars (0)
                         * upvalues:
256A  00                 sizeupvalues (0)
                         ** end of function **

                         
256B                     ** function [12] definition (level 2)
                         ** start of function **
256B  00                 string size (0)
                         source name: (none)
256D  02                 line defined (345)
256E  E7                 last line defined (359)
256F  02                 nups (1)
2570  01                 numparams (1)
2571  01                 is_vararg (0)
2572  00                 maxstacksize (11)
                         * code:
2574  44                 sizecode (68)
2575  5D000000           [01] getglobal  1   0        ; 572299008
2579  8E404000           [02] gettable   2   0   257  ; "x"
257D  DD800000           [03] getglobal  3   2        ; math
2581  CEC0C001           [04] gettable   3   3   259  ; -2040962569
2585  19010100           [05] loadk      4   4        ; 0
2589  59410100           [06] loadk      5   5        ; 0
258D  E2808001           [07] call       3   3   2  
2591  83C00001           [08] add        2   2   3  
2595  CE804100           [09] gettable   3   0   262  ; "y"
2599  1D810000           [10] getglobal  4   2        ; math
259D  0EC14002           [11] gettable   4   4   259  ; -2040962569
25A1  59010100           [12] loadk      5   4        ; 0
25A5  99410100           [13] loadk      6   5        ; 0
25A9  22818001           [14] call       4   3   2  
25AD  CD008101           [15] sub        3   3   4  
25B1  0EC14100           [16] gettable   4   0   263  ; "z"
25B5  5D810000           [17] getglobal  5   2        ; math
25B9  4EC1C002           [18] gettable   5   5   259  ; -2040962569
25BD  99010100           [19] loadk      6   4        ; 0
25C1  D9410100           [20] loadk      7   5        ; 0
25C5  62818001           [21] call       5   3   2  
25C9  03410102           [22] add        4   4   5  
25CD  62800002           [23] call       1   4   2  
25D1  9D000000           [24] getglobal  2   0        ; 572299008
25D5  A2808000           [25] call       2   1   2  
25D9  D9000200           [26] loadk      3   8        ; 0
fail op	21
25DD  1540C201           [27] concat     0   3   265
25E1  1A400980           [28] jmp        38           ; to [67]
25E5  1D810200           [29] getglobal  4   10       ; gRegion
25E9  24C14202           [30] self       4   4   267  ; -1869767524
25ED  92010000           [31] move       6   0      
25F1  D2018000           [32] move       7   1      
25F5  13020000           [33] getupval   8   0      
25F9  46028004           [34] loadnil    9   9      
25FD  92020001           [35] move       10  2      
2601  22818003           [36] call       4   7   2  
2605  18010000           [37] test       4       0    ; to [39] if true
2609  1A400080           [38] jmp        2            ; to [41]
260D  D9000300           [39] loadk      3   12       ; 0
2611  1A40FC7F           [40] jmp        -14          ; to [27]
2615  C340C301           [41] add        3   3   269  ; 0
2619  1D010000           [42] getglobal  4   0        ; 572299008
261D  4E414000           [43] gettable   5   0   257  ; "x"
2621  9D810000           [44] getglobal  6   2        ; math
2625  8EC14003           [45] gettable   6   6   259  ; -2040962569
2629  D9810300           [46] loadk      7   14       ; 0
262D  19020300           [47] loadk      8   12       ; 0
2631  A2818001           [48] call       6   3   2  
2635  43818102           [49] add        5   5   6  
2639  8E814100           [50] gettable   6   0   262  ; "y"
263D  DD810000           [51] getglobal  7   2        ; math
2641  CEC1C003           [52] gettable   7   7   259  ; -2040962569
2645  19820300           [53] loadk      8   14       ; 0
2649  59020300           [54] loadk      9   12       ; 0
264D  E2818001           [55] call       7   3   2  
2651  83C10103           [56] add        6   6   7  
2655  CEC14100           [57] gettable   7   0   263  ; "z"
2659  1D820000           [58] getglobal  8   2        ; math
265D  0EC24004           [59] gettable   8   8   259  ; -2040962569
2661  59820300           [60] loadk      9   14       ; 0
2665  99020300           [61] loadk      10  12       ; 0
2669  22828001           [62] call       8   3   2  
266D  C3018203           [63] add        7   7   8  
2671  22810002           [64] call       4   4   2  
2675  52000002           [65] move       1   4      
2679  1AC0F57F           [66] jmp        -40          ; to [27]
267D  9E000001           [67] return     2   2      
2681  1E008000           [68] return     0   1      
                         * constants:
2685  0F                 sizek (15)
2686  01                 const type 3
2687  00971C22           const [0]: (572299008)
268B  04                 const type 4
268C  02                 string size (2)
268D  7800               "x\0"
                         const [1]: "x"
268F  04                 const type 4
2690  05                 string size (5)
2691  6D61746800         "math\0"
                         const [2]: "math"
2696  01                 const type 3
2697  F7615986           const [3]: (-2040962569)
269B  03                 const type 3
269C  0000C0C0           const [4]: (0)
26A0  03                 const type 3
26A1  0000C040           const [5]: (0)
26A5  04                 const type 4
26A6  02                 string size (2)
26A7  7900               "y\0"
                         const [6]: "y"
26A9  04                 const type 4
26AA  02                 string size (2)
26AB  7A00               "z\0"
                         const [7]: "z"
26AD  03                 const type 3
26AE  00000000           const [8]: (0)
26B2  03                 const type 3
26B3  00000040           const [9]: (0)
26B7  04                 const type 4
26B8  08                 string size (8)
26B9  67526567696F6E00   "gRegion\0"
                         const [10]: "gRegion"
26C1  01                 const type 3
26C2  9C9C8D90           const [11]: (-1869767524)
26C6  03                 const type 3
26C7  0000A040           const [12]: (0)
26CB  03                 const type 3
26CC  0000803F           const [13]: (0)
26D0  03                 const type 3
26D1  0000A0C0           const [14]: (0)
                         * functions:
26D5  00                 sizep (0)
                         * lines:
26D6  44                 sizelineinfo (68)
                         [pc] (line)
26D7  5A                 [01] (90)
26D8  01                 [02] (90)
26D9  00                 [03] (90)
26DA  00                 [04] (90)
26DB  5A                 [05] (90)
26DC  01                 [06] (90)
26DD  00                 [07] (90)
26DE  00                 [08] (90)
26DF  5A                 [09] (90)
26E0  01                 [10] (90)
26E1  00                 [11] (90)
26E2  00                 [12] (90)
26E3  5A                 [13] (90)
26E4  01                 [14] (90)
26E5  00                 [15] (90)
26E6  00                 [16] (90)
26E7  5A                 [17] (90)
26E8  01                 [18] (90)
26E9  00                 [19] (90)
26EA  00                 [20] (90)
26EB  5A                 [21] (90)
26EC  01                 [22] (90)
26ED  00                 [23] (90)
26EE  00                 [24] (91)
26EF  5A                 [25] (91)
26F0  01                 [26] (92)
26F1  00                 [27] (93)
26F2  00                 [28] (93)
26F3  5A                 [29] (94)
26F4  01                 [30] (94)
26F5  00                 [31] (94)
26F6  00                 [32] (94)
26F7  5A                 [33] (94)
26F8  01                 [34] (94)
26F9  00                 [35] (94)
26FA  00                 [36] (94)
26FB  5A                 [37] (94)
26FC  01                 [38] (94)
26FD  00                 [39] (95)
26FE  00                 [40] (95)
26FF  5A                 [41] (97)
2700  01                 [42] (98)
2701  00                 [43] (98)
2702  00                 [44] (98)
2703  5A                 [45] (98)
2704  01                 [46] (98)
2705  00                 [47] (98)
2706  00                 [48] (98)
2707  5A                 [49] (98)
2708  01                 [50] (98)
2709  00                 [51] (98)
270A  00                 [52] (98)
270B  5A                 [53] (98)
270C  01                 [54] (98)
270D  00                 [55] (98)
270E  00                 [56] (98)
270F  5A                 [57] (98)
2710  01                 [58] (98)
2711  00                 [59] (98)
2712  00                 [60] (98)
2713  5A                 [61] (98)
2714  01                 [62] (98)
2715  00                 [63] (98)
2716  00                 [64] (98)
2717  5A                 [65] (98)
2718  01                 [66] (99)
2719  00                 [67] (102)
271A  00                 [68] (103)
                         * locals:
27E7  00                 sizelocvars (0)
                         * upvalues:
27E8  00                 sizeupvalues (0)
                         ** end of function **

                         
27E9                     ** function [13] definition (level 2)
                         ** start of function **
27E9  00                 string size (0)
                         source name: (none)
27EB  02                 line defined (361)
27EC  EF                 last line defined (367)
27ED  02                 nups (0)
27EE  00                 numparams (4)
27EF  04                 is_vararg (0)
27F0  00                 maxstacksize (11)
                         * code:
27F2  12                 sizecode (18)
27F3  24014000           [01] self       4   0   256  ; -1421644046
27F7  9D410000           [02] getglobal  6   1        ; chargedUpEffect
27FB  DD810000           [03] getglobal  7   2        ; EMPTY_SYMBOL
27FF  12020001           [04] move       8   2      
2803  5DC20000           [05] getglobal  9   3        ; ZERO_ROTATION
2807  92028001           [06] move       10  3      
280B  22818003           [07] call       4   7   2  
280F  5D010100           [08] getglobal  5   4        ; 1074689893
2813  92010002           [09] move       6   4      
2817  62810001           [10] call       5   2   2  
281B  58410000           [11] test       5       1    ; to [13] if false
281F  1A000180           [12] jmp        5            ; to [18]
2823  64414102           [13] self       5   4   261  ; -408095485
2827  D2018000           [14] move       7   1      
282B  1D820000           [15] getglobal  8   2        ; EMPTY_SYMBOL
282F  62410002           [16] call       5   4   1  
2833  1E010001           [17] return     4   2      
2837  1E008000           [18] return     0   1      
                         * constants:
283B  06                 sizek (6)
283C  01                 const type 3
283D  F26E43AB           const [0]: (-1421644046)
2841  04                 const type 4
2842  10                 string size (16)
2843  6368617267656455+  "chargedU"
284B  7045666665637400   "pEffect\0"
                         const [1]: "chargedUpEffect"
2853  04                 const type 4
2854  0D                 string size (13)
2855  454D5054595F5359+  "EMPTY_SY"
285D  4D424F4C00         "MBOL\0"
                         const [2]: "EMPTY_SYMBOL"
2862  04                 const type 4
2863  0E                 string size (14)
2864  5A45524F5F524F54+  "ZERO_ROT"
286C  4154494F4E00       "ATION\0"
                         const [3]: "ZERO_ROTATION"
2872  01                 const type 3
2873  65770E40           const [4]: (1074689893)
2877  01                 const type 3
2878  03F5ACE7           const [5]: (-408095485)
                         * functions:
287C  00                 sizep (0)
                         * lines:
287D  12                 sizelineinfo (18)
                         [pc] (line)
287E  6A                 [01] (106)
287F  01                 [02] (106)
2880  00                 [03] (106)
2881  00                 [04] (106)
2882  6A                 [05] (106)
2883  01                 [06] (106)
2884  00                 [07] (106)
2885  00                 [08] (107)
2886  6A                 [09] (107)
2887  01                 [10] (107)
2888  00                 [11] (107)
2889  00                 [12] (107)
288A  6A                 [13] (108)
288B  01                 [14] (108)
288C  00                 [15] (108)
288D  00                 [16] (108)
288E  6A                 [17] (109)
288F  01                 [18] (111)
                         * locals:
28C6  00                 sizelocvars (0)
                         * upvalues:
28C7  00                 sizeupvalues (0)
                         ** end of function **

                         
28C8                     ** function [14] definition (level 2)
                         ** start of function **
28C8  00                 string size (0)
                         source name: (none)
28CA  02                 line defined (369)
28CB  EB                 last line defined (619)
28CC  04                 nups (14)
28CD  0E                 numparams (1)
28CE  01                 is_vararg (0)
28CF  00                 maxstacksize (59)
                         * code:
28D2  05                 sizecode (750)
28D3  5D000000           [001] getglobal  1   0        ; 538022378
28D7  99400000           [002] loadk      2   1        ; 0
28DB  62400001           [003] call       1   2   1  
28DF  64804000           [004] self       1   0   258  ; 129677183
28E3  62800001           [005] call       1   2   2  
28E7  9DC00000           [006] getglobal  2   3        ; 1074689893
28EB  D2008000           [007] move       3   1      
28EF  A2800001           [008] call       2   2   2  
28F3  98000000           [009] test       2       0    ; to [11] if true
28F7  1A800080           [010] jmp        3            ; to [14]
28FB  A4004100           [011] self       2   0   260  ; -725453761
28FF  A2400001           [012] call       2   2   1  
2903  1E008000           [013] return     0   1      
2907  A440C100           [014] self       2   1   261  ; -1917464545
290B  A2800001           [015] call       2   2   2  
290F  A4804101           [016] self       2   2   262  ; 1769516121
2913  A2800001           [017] call       2   2   2  
2917  DDC00000           [018] getglobal  3   3        ; 1074689893
291B  12010001           [019] move       4   2      
291F  E2800001           [020] call       3   2   2  
2923  D8000000           [021] test       3       0    ; to [23] if true
2927  1A800080           [022] jmp        3            ; to [26]
292B  E4004100           [023] self       3   0   260  ; -725453761
292F  E2400001           [024] call       3   2   1  
2933  1E008000           [025] return     0   1      
2937  E4C04100           [026] self       3   0   263  ; -1625438872
293B  5D010200           [027] getglobal  5   8        ; gLotusHitProxyShieldType
293F  E2808001           [028] call       3   3   2  
2943  1DC10000           [029] getglobal  4   3        ; 1074689893
2947  52018001           [030] move       5   3      
294B  22810001           [031] call       4   2   2  
294F  18410000           [032] test       4       1    ; to [34] if false
2953  1AC00080           [033] jmp        4            ; to [38]
2957  1D410200           [034] getglobal  4   9        ; gRegion
295B  24814202           [035] self       4   4   266  ; 759448671
295F  92018001           [036] move       6   3      
2963  22418001           [037] call       4   3   1  
2967  24C14201           [038] self       4   2   267  ; -40827644
296B  93010000           [039] getupval   6   0      
296F  22818001           [040] call       4   3   2  
2973  64014301           [041] self       5   2   268  ; 1183093143
2977  D3010000           [042] getupval   7   0      
297B  62818001           [043] call       5   3   2  
fail op	21
297F  15008180           [044] concat     0   257 4  
2983  1AC00080           [045] jmp        4            ; to [50]
2987  9D410300           [046] getglobal  6   13       ; Lotus_Game
298B  8E814303           [047] gettable   6   6   270  ; "PowerSuit_AUGMENT_ONE"
fail op	35
298F  63808102           [048] close      1  
2993  1A000080           [049] jmp        1            ; to [51]
2997  97410000           [050] loadbool   6   0   1    ; false, to [52]
299B  97018000           [051] loadbool   6   1   0    ; true
299F  98010000           [052] test       6       0    ; to [54] if true
29A3  1AC00080           [053] jmp        4            ; to [58]
29A7  D3018000           [054] getupval   7   1      
29AB  12020002           [055] move       8   4      
29AF  52028002           [056] move       9   5      
29B3  E2418001           [057] call       7   3   1  
29B7  E4C1C300           [058] self       7   1   271  ; -1201586349
29BB  E2810001           [059] call       7   2   2  
29BF  06020004           [060] loadnil    8   8      
29C3  D8410000           [061] test       7       1    ; to [63] if false
29C7  1A400080           [062] jmp        2            ; to [65]
29CB  98010000           [063] test       6       0    ; to [65] if true
29CF  1A800880           [064] jmp        35           ; to [100]
29D3  64024400           [065] self       9   0   272  ; -1421644046
29D7  DD420400           [066] getglobal  11  17       ; actionType
29DB  1D830400           [067] getglobal  12  18       ; EMPTY_SYMBOL
29DF  62820002           [068] call       9   4   2  
29E3  12028004           [069] move       8   9      
29E7  5DC20000           [070] getglobal  9   3        ; 1074689893
29EB  92020004           [071] move       10  8      
29EF  62820001           [072] call       9   2   2  
29F3  58420000           [073] test       9       1    ; to [75] if false
29F7  1A000680           [074] jmp        25           ; to [100]
29FB  64C24404           [075] self       9   8   275  ; -439244292
29FF  DD420200           [076] getglobal  11  9        ; gRegion
2A03  E402C505           [077] self       11  11  276  ; 925677844
2A07  E2020001           [078] call       11  2   0  
2A0B  62420000           [079] call       9   0   1  
2A0F  98010000           [080] test       6       0    ; to [82] if true
2A13  1A800180           [081] jmp        7            ; to [89]
2A17  64024404           [082] self       9   8   272  ; -1421644046
2A1B  DD420500           [083] getglobal  11  21       ; augmentOneAttachEffect
2A1F  1D830400           [084] getglobal  12  18       ; EMPTY_SYMBOL
2A23  5D830500           [085] getglobal  13  22       ; ZERO_VECTOR
2A27  9DC30500           [086] getglobal  14  23       ; ZERO_ROTATION
2A2B  D2030001           [087] move       15  2      
2A2F  62428003           [088] call       9   7   1  
2A33  D8410000           [089] test       7       1    ; to [91] if false
2A37  1A000280           [090] jmp        9            ; to [100]
2A3B  98010000           [091] test       6       0    ; to [93] if true
2A3F  1A800180           [092] jmp        7            ; to [100]
2A43  64024404           [093] self       9   8   272  ; -1421644046
2A47  DD020600           [094] getglobal  11  24       ; augmentOneTriggerType
2A4B  1D830400           [095] getglobal  12  18       ; EMPTY_SYMBOL
2A4F  5D830500           [096] getglobal  13  22       ; ZERO_VECTOR
2A53  9DC30500           [097] getglobal  14  23       ; ZERO_ROTATION
2A57  D2030001           [098] move       15  2      
2A5B  62428003           [099] call       9   7   1  
2A5F  64024400           [100] self       9   0   272  ; -1421644046
2A63  DD420600           [101] getglobal  11  25       ; shieldAttachFx
2A67  1D830400           [102] getglobal  12  18       ; EMPTY_SYMBOL
2A6B  5D830500           [103] getglobal  13  22       ; ZERO_VECTOR
2A6F  9DC30500           [104] getglobal  14  23       ; ZERO_ROTATION
2A73  D2038000           [105] move       15  1      
2A77  62428003           [106] call       9   7   1  
2A7B  5DC20000           [107] getglobal  9   3        ; 1074689893
2A7F  92020000           [108] move       10  0      
2A83  62820001           [109] call       9   2   2  
2A87  58420000           [110] test       9       1    ; to [112] if false
2A8B  1A000680           [111] jmp        25           ; to [137]
2A8F  59820600           [112] loadk      9   26       ; 0
2A93  99C20600           [113] loadk      10  27       ; 0
2A97  D9820600           [114] loadk      11  26       ; 0
2A9B  50C20480           [115] forprep    9   20       ; to [136]
2A9F  64034400           [116] self       13  0   272  ; -1421644046
2AA3  DD030700           [117] getglobal  15  28       ; castBeamType
2AA7  1D840400           [118] getglobal  16  18       ; EMPTY_SYMBOL
2AAB  53040001           [119] getupval   17  2      
2AAF  4E048308           [120] gettable   17  17  12 
2AB3  9DC40500           [121] getglobal  18  23       ; ZERO_ROTATION
2AB7  D2040001           [122] move       19  2      
2ABB  62838003           [123] call       13  7   2  
2ABF  9DC30000           [124] getglobal  14  3        ; 1074689893
2AC3  D2038006           [125] move       15  13     
2AC7  A2830001           [126] call       14  2   2  
2ACB  98430000           [127] test       14      1    ; to [129] if false
2ACF  1A800180           [128] jmp        7            ; to [136]
2AD3  A443C706           [129] self       14  13  285  ; -408095485
2AD7  12048000           [130] move       16  1      
2ADB  53048001           [131] getupval   17  3      
2ADF  9F844706           [132] mod        18  12  286  ; 0
2AE3  83844609           [133] add        18  18  282  ; 0
2AE7  4E848408           [134] gettable   17  17  18 
2AEB  A2430002           [135] call       14  4   1  
2AEF  5482FA7F           [136] forloop    9   -21      ; to [116] if loop
2AF3  A4C34701           [137] self       14  2   287  ; 345555894
2AF7  13040000           [138] getupval   16  0      
2AFB  A2838001           [139] call       14  3   2  
2AFF  E4034801           [140] self       15  2   288  ; -363477704
2B03  53040000           [141] getupval   17  0      
2B07  E2838001           [142] call       15  3   2  
2B0B  2444C807           [143] self       16  15  289  ; -491574171
2B0F  22840001           [144] call       16  2   2  
2B13  53040002           [145] getupval   17  4      
2B17  92040007           [146] move       18  14     
2B1B  62440001           [147] call       17  2   1  
2B1F  53048002           [148] getupval   17  5      
2B23  99440000           [149] loadk      18  1        ; 0
2B27  D3040003           [150] getupval   19  6      
2B2B  CE84C809           [151] gettable   19  19  290  ; -2033850958
2B2F  12050001           [152] move       20  2      
2B33  52058007           [153] move       21  15     
2B37  97058000           [154] loadbool   22  1   0    ; true
2B3B  E2840002           [155] call       19  4   2  
2B3F  1DC50000           [156] getglobal  20  3        ; 1074689893
2B43  52058009           [157] move       21  19     
2B47  22850001           [158] call       20  2   2  
2B4B  18450000           [159] test       20      1    ; to [161] if false
2B4F  1A400180           [160] jmp        6            ; to [167]
2B53  4EC4C809           [161] gettable   17  19  291  ; "duration"
2B57  8E04C909           [162] gettable   18  19  292  ; "shieldInstance"
2B5B  98010000           [163] test       6       0    ; to [165] if true
2B5F  1A400080           [164] jmp        2            ; to [167]
2B63  0E45C909           [165] gettable   20  19  293  ; "augmentPctConversion"
fail op	8
2B67  08058003           [166] setupval   20  7      
2B6B  D8010000           [167] test       7       0    ; to [169] if true
2B6F  1A400180           [168] jmp        6            ; to [175]
2B73  2485C907           [169] self       20  15  294  ; -985330630
2B77  9DC50900           [170] getglobal  22  39       ; -332969190
2B7B  D9050A00           [171] loadk      23  40       ; "TryPickup"
2B7F  A2850001           [172] call       22  2   2  
2B83  D7058000           [173] loadbool   23  1   0    ; true
2B87  22450002           [174] call       20  4   1  
2B8B  1DC50000           [175] getglobal  20  3        ; 1074689893
2B8F  5D450A00           [176] getglobal  21  41       ; _T
2B93  4E85CA0A           [177] gettable   21  21  298  ; "voltShield"
2B97  22850001           [178] call       20  2   2  
2B9B  18050000           [179] test       20      0    ; to [181] if true
2B9F  1A800080           [180] jmp        3            ; to [184]
2BA3  1D450A00           [181] getglobal  20  41       ; _T
2BA7  4B050000           [182] newtable   21  0   0    ; array=0, hash=0
2BAB  0C450595           [183] settable   20  298 21   ; "voltShield"
2BAF  24C5CA00           [184] self       20  1   299  ; -605089866
2BB3  22850001           [185] call       20  2   2  
2BB7  5DC50000           [186] getglobal  21  3        ; 1074689893
2BBB  9D450A00           [187] getglobal  22  41       ; _T
2BBF  8E854A0B           [188] gettable   22  22  298  ; "voltShield"
2BC3  8E05050B           [189] gettable   22  22  20 
2BC7  62850001           [190] call       21  2   2  
2BCB  58050000           [191] test       21      0    ; to [193] if true
2BCF  1AC00080           [192] jmp        4            ; to [197]
2BD3  5D450A00           [193] getglobal  21  41       ; _T
2BD7  4E85CA0A           [194] gettable   21  21  298  ; "voltShield"
2BDB  8B050000           [195] newtable   22  0   0    ; array=0, hash=0
2BDF  4C85050A           [196] settable   21  20  22 
2BE3  5D450A00           [197] getglobal  21  41       ; _T
2BE7  4E85CA0A           [198] gettable   21  21  298  ; "voltShield"
2BEB  4E05850A           [199] gettable   21  21  20 
2BEF  4A05800A           [200] len        21  21     
2BF3  99850600           [201] loadk      22  26       ; 0
2BF7  D9050B00           [202] loadk      23  44       ; 0
2BFB  50C50380           [203] forprep    21  16       ; to [220]
2BFF  5DC60000           [204] getglobal  25  3        ; 1074689893
2C03  9D460A00           [205] getglobal  26  41       ; _T
2C07  8E864A0D           [206] gettable   26  26  298  ; "voltShield"
2C0B  8E06050D           [207] gettable   26  26  20 
2C0F  8E06060D           [208] gettable   26  26  24 
2C13  8E464B0D           [209] gettable   26  26  301  ; "shield"
2C17  62860001           [210] call       25  2   2  
2C1B  58060000           [211] test       25      0    ; to [213] if true
2C1F  1A800180           [212] jmp        7            ; to [220]
2C23  5D860B00           [213] getglobal  25  46       ; table
2C27  4EC6CB0C           [214] gettable   25  25  303  ; -843973282
2C2B  9D460A00           [215] getglobal  26  41       ; _T
2C2F  8E864A0D           [216] gettable   26  26  298  ; "voltShield"
2C33  8E06050D           [217] gettable   26  26  20 
2C37  D206000C           [218] move       27  24     
2C3B  62468001           [219] call       25  3   1  
2C3F  5485FB7F           [220] forloop    21  -17      ; to [204] if loop
2C43  5D460A00           [221] getglobal  25  41       ; _T
2C47  4E86CA0C           [222] gettable   25  25  298  ; "voltShield"
2C4B  4E06850C           [223] gettable   25  25  20 
2C4F  4A06800C           [224] len        25  25     
2C53  93060004           [225] getupval   26  8      
fail op	33
2C57  2140060D           [226] tforloop   0       25   ; to [228] if exit
2C5B  1AC00280           [227] jmp        12           ; to [240]
2C5F  5D460A00           [228] getglobal  25  41       ; _T
2C63  4E86CA0C           [229] gettable   25  25  298  ; "voltShield"
2C67  4E06850C           [230] gettable   25  25  20 
2C6B  4E86C60C           [231] gettable   25  25  282  ; 0
2C6F  4C464C98           [232] settable   25  304 305  ; "terminate" 1
2C73  5D860B00           [233] getglobal  25  46       ; table
2C77  4EC6CB0C           [234] gettable   25  25  303  ; -843973282
2C7B  9D460A00           [235] getglobal  26  41       ; _T
2C7F  8E864A0D           [236] gettable   26  26  298  ; "voltShield"
2C83  8E06050D           [237] gettable   26  26  20 
2C87  D9860600           [238] loadk      27  26       ; 0
2C8B  62468001           [239] call       25  3   1  
2C8F  5D860B00           [240] getglobal  25  46       ; table
2C93  4E86CC0C           [241] gettable   25  25  306  ; -431682403
2C97  9D460A00           [242] getglobal  26  41       ; _T
2C9B  8E864A0D           [243] gettable   26  26  298  ; "voltShield"
2C9F  8E06050D           [244] gettable   26  26  20 
2CA3  CB460100           [245] newtable   27  0   5    ; array=0, hash=5
2CA7  CC068096           [246] settable   27  301 0    ; "shield"
2CAB  CC068299           [247] settable   27  307 8    ; "action"
2CAF  CC86049A           [248] settable   27  308 18   ; "instance"
2CB3  CC86CD9A           [249] settable   27  309 310  ; "holder" nil
2CB7  CC864D98           [250] settable   27  304 310  ; "terminate" nil
2CBB  62468001           [251] call       25  3   1  
2CBF  5D460A00           [252] getglobal  25  41       ; _T
2CC3  4E86CA0C           [253] gettable   25  25  298  ; "voltShield"
2CC7  4E06850C           [254] gettable   25  25  20 
2CCB  9D460A00           [255] getglobal  26  41       ; _T
2CCF  8E864A0D           [256] gettable   26  26  298  ; "voltShield"
2CD3  8E06050D           [257] gettable   26  26  20 
2CD7  8A06000D           [258] len        26  26     
2CDB  4E86860C           [259] gettable   25  25  26 
2CDF  99460000           [260] loadk      26  1        ; 0
2CE3  D9460000           [261] loadk      27  1        ; 0
2CE7  19470000           [262] loadk      28  1        ; 0
2CEB  98010000           [263] test       6       0    ; to [265] if true
2CEF  1A000280           [264] jmp        9            ; to [274]
2CF3  13078003           [265] getupval   28  7      
2CF7  5DC70000           [266] getglobal  29  3        ; 1074689893
2CFB  92078001           [267] move       30  3      
2CFF  62870001           [268] call       29  2   2  
2D03  58470000           [269] test       29      1    ; to [271] if false
2D07  1A800080           [270] jmp        3            ; to [274]
2D0B  64C7CD01           [271] self       29  3   311  ; 144406968
2D0F  D7078000           [272] loadbool   31  1   0    ; true
2D13  62478001           [273] call       29  3   1  
2D17  53078004           [274] getupval   29  9      
2D1B  4E07CE0E           [275] gettable   29  29  312  ; -1824732170
2D1F  62878000           [276] call       29  1   2  
2D23  A4C74100           [277] self       30  0   263  ; -1625438872
2D27  1D480E00           [278] getglobal  32  57       ; shieldElementType
2D2B  A2878001           [279] call       30  3   2  
2D2F  D7070000           [280] loadbool   31  0   0    ; false
2D33  19880E00           [281] loadk      32  58       ; 0
2D37  59C80E00           [282] loadk      33  59       ; -51
2D3B  99880600           [283] loadk      34  26       ; 0
2D3F  D3080003           [284] getupval   35  6      
2D43  CE08CF11           [285] gettable   35  35  316  ; 292147461
2D47  E2888000           [286] call       35  1   2  
fail op	21
2D4B  15408480           [287] concat     0   257 17 
2D4F  1A800480           [288] jmp        19           ; to [308]
2D53  1DC90000           [289] getglobal  36  3        ; 1074689893
2D57  52098000           [290] move       37  1      
2D5B  22890001           [291] call       36  2   2  
2D5F  18490000           [292] test       36      1    ; to [294] if false
2D63  1A400380           [293] jmp        14           ; to [308]
2D67  2449CF00           [294] self       36  1   317  ; 1511086594
2D6B  22890001           [295] call       36  2   2  
2D6F  18490000           [296] test       36      1    ; to [298] if false
2D73  1A400280           [297] jmp        10           ; to [308]
2D77  0E09CC0C           [298] gettable   36  25  304  ; "terminate"
fail op	35
2D7B  23804D12           [299] close      0  
2D7F  1A800180           [300] jmp        7            ; to [308]
2D83  1D490A00           [301] getglobal  36  41       ; _T
2D87  0E894F12           [302] gettable   36  36  318  ; 414831371
2D8B  52090008           [303] move       37  16     
2D8F  92098000           [304] move       38  1      
2D93  D2098008           [305] move       39  17     
2D97  120A8011           [306] move       40  35     
2D9B  22498002           [307] call       36  5   1  
fail op	21
2D9F  15408480           [308] concat     0   257 17 
2DA3  1A805A80           [309] jmp        363          ; to [673]
2DA7  1DC90000           [310] getglobal  36  3        ; 1074689893
2DAB  52098000           [311] move       37  1      
2DAF  22890001           [312] call       36  2   2  
2DB3  18490000           [313] test       36      1    ; to [315] if false
2DB7  1A405980           [314] jmp        358          ; to [673]
2DBB  2449CF00           [315] self       36  1   317  ; 1511086594
2DBF  22890001           [316] call       36  2   2  
2DC3  18490000           [317] test       36      1    ; to [319] if false
2DC7  1A405880           [318] jmp        354          ; to [673]
2DCB  0E09CC0C           [319] gettable   36  25  304  ; "terminate"
fail op	35
2DCF  23804D12           [320] close      0  
2DD3  1A805780           [321] jmp        351          ; to [673]
2DD7  24C94F00           [322] self       36  0   319  ; -323635054
2DDB  22890001           [323] call       36  2   2  
2DDF  92080012           [324] move       34  36     
fail op	33
2DE3  21404010           [325] tforloop   0       257  ; to [327] if exit
2DE7  1A001080           [326] jmp        65           ; to [392]
2DEB  1DC90000           [327] getglobal  36  3        ; 1074689893
2DEF  5D091000           [328] getglobal  37  64       ; gGameRules
2DF3  22890001           [329] call       36  2   2  
2DF7  18490000           [330] test       36      1    ; to [332] if false
2DFB  1AC00E80           [331] jmp        60           ; to [392]
2DFF  24495000           [332] self       36  0   321  ; 1839670529
2E03  22890001           [333] call       36  2   2  
2E07  5D891000           [334] getglobal  37  66       ; 1287559689
2E0B  9DC91000           [335] getglobal  38  67       ; 572299008
2E0F  D9490000           [336] loadk      39  1        ; 0
2E13  194A0000           [337] loadk      40  1        ; 0
2E17  448A08A2           [338] mul        41  324 34   ; 51
2E1B  A2890002           [339] call       38  4   2  
2E1F  E4495100           [340] self       39  0   325  ; -231049143
2E23  E2090001           [341] call       39  2   0  
2E27  62890000           [342] call       37  0   2  
2E2B  03490912           [343] add        36  36  37 
2E2F  5D891000           [344] getglobal  37  66       ; 1287559689
2E33  9DC91000           [345] getglobal  38  67       ; 572299008
2E37  C48908A3           [346] mul        39  326 34   ; -51
2E3B  194A0000           [347] loadk      40  1        ; 0
2E3F  594A0000           [348] loadk      41  1        ; 0
2E43  A2890002           [349] call       38  4   2  
2E47  E4495100           [350] self       39  0   325  ; -231049143
2E4B  E2090001           [351] call       39  2   0  
2E4F  62890000           [352] call       37  0   2  
2E53  9D891000           [353] getglobal  38  66       ; 1287559689
2E57  DDC91000           [354] getglobal  39  67       ; 572299008
2E5B  194A0000           [355] loadk      40  1        ; 0
2E5F  448A88A3           [356] mul        41  327 34   ; -102
2E63  994A0000           [357] loadk      42  1        ; 0
2E67  E2890002           [358] call       39  4   2  
2E6B  244A5100           [359] self       40  0   325  ; -231049143
2E6F  220A0001           [360] call       40  2   0  
2E73  A2890000           [361] call       38  0   2  
2E77  DD091000           [362] getglobal  39  64       ; gGameRules
2E7B  E409D213           [363] self       39  39  328  ; 597481738
2E7F  520A8000           [364] move       41  1      
2E83  834A0912           [365] add        42  36  37 
2E87  838A0915           [366] add        42  42  38 
2E8B  CD4A0912           [367] sub        43  36  37 
2E8F  C38A8915           [368] add        43  43  38 
2E93  E2898002           [369] call       39  5   2  
2E97  D8490000           [370] test       39      1    ; to [372] if false
2E9B  1A004B80           [371] jmp        301          ; to [673]
2E9F  DD091000           [372] getglobal  39  64       ; gGameRules
2EA3  E409D213           [373] self       39  39  328  ; 597481738
2EA7  520A8000           [374] move       41  1      
2EAB  834A0912           [375] add        42  36  37 
2EAF  8D8A0915           [376] sub        42  42  38 
2EB3  CD4A0912           [377] sub        43  36  37 
2EB7  CD8A8915           [378] sub        43  43  38 
2EBB  E2898002           [379] call       39  5   2  
2EBF  D8490000           [380] test       39      1    ; to [382] if false
2EC3  1A804880           [381] jmp        291          ; to [673]
2EC7  DD091000           [382] getglobal  39  64       ; gGameRules
2ECB  E409D213           [383] self       39  39  328  ; 597481738
2ECF  520A8000           [384] move       41  1      
2ED3  834A0912           [385] add        42  36  37 
2ED7  CD4A0912           [386] sub        43  36  37 
2EDB  E2898002           [387] call       39  5   2  
2EDF  D8090000           [388] test       39      0    ; to [390] if true
2EE3  1A000080           [389] jmp        1            ; to [391]
2EE7  1A404680           [390] jmp        282          ; to [673]
2EEB  19481200           [391] loadk      32  73       ; 0
2EEF  DDC90000           [392] getglobal  39  3        ; 1074689893
2EF3  120A8000           [393] move       40  1      
2EF7  E2890001           [394] call       39  2   2  
2EFB  D8090000           [395] test       39      0    ; to [397] if true
2EFF  1A800180           [396] jmp        7            ; to [404]
2F03  DDC90000           [397] getglobal  39  3        ; 1074689893
2F07  120A0004           [398] move       40  8      
2F0B  E2890001           [399] call       39  2   2  
2F0F  D8490000           [400] test       39      1    ; to [402] if false
2F13  1A400080           [401] jmp        2            ; to [404]
2F17  E4094104           [402] self       39  8   260  ; -725453761
2F1B  E2490001           [403] call       39  2   1  
2F1F  DDC90000           [404] getglobal  39  3        ; 1074689893
2F23  120A000F           [405] move       40  30     
2F27  E2890001           [406] call       39  2   2  
2F2B  D8090000           [407] test       39      0    ; to [409] if true
2F2F  1AC00080           [408] jmp        4            ; to [413]
2F33  E4C94100           [409] self       39  0   263  ; -1625438872
2F37  5D4A0E00           [410] getglobal  41  57       ; shieldElementType
2F3B  E2898001           [411] call       39  3   2  
2F3F  92078013           [412] move       30  39     
2F43  DDC90000           [413] getglobal  39  3        ; 1074689893
2F47  120A000F           [414] move       40  30     
2F4B  E2890001           [415] call       39  2   2  
2F4F  D8490000           [416] test       39      1    ; to [418] if false
2F53  1A401680           [417] jmp        90           ; to [508]
2F57  D8470000           [418] test       31      1    ; to [420] if false
2F5B  1AC01580           [419] jmp        88           ; to [508]
2F5F  E489520F           [420] self       39  30  330  ; -1318948062
2F63  E2890001           [421] call       39  2   2  
2F67  D8090000           [422] test       39      0    ; to [424] if true
2F6B  1AC01480           [423] jmp        84           ; to [508]
2F6F  D7078000           [424] loadbool   31  1   0    ; true
2F73  E4094400           [425] self       39  0   272  ; -1421644046
2F77  5DCA1200           [426] getglobal  41  75       ; chargedUpEffect
2F7B  9D8A0400           [427] getglobal  42  18       ; EMPTY_SYMBOL
2F7F  DD8A0500           [428] getglobal  43  22       ; ZERO_VECTOR
2F83  1DCB0500           [429] getglobal  44  23       ; ZERO_ROTATION
2F87  520B0001           [430] move       45  2      
2F8B  E2498003           [431] call       39  7   1  
2F8F  E4095300           [432] self       39  0   332  ; -786111647
2F93  5DCA0900           [433] getglobal  41  39       ; -332969190
2F97  994A1300           [434] loadk      42  77       ; "Scalar2"
2F9B  628A0001           [435] call       41  2   2  
2F9F  998A1300           [436] loadk      42  78       ; 0
2FA3  E2490002           [437] call       39  4   1  
2FA7  D3090005           [438] getupval   39  10     
2FAB  120A0000           [439] move       40  0      
2FAF  520A0000           [440] move       41  0      
2FB3  9DCA1000           [441] getglobal  42  67       ; 572299008
2FB7  D30A8005           [442] getupval   43  11     
2FBB  CECAD315           [443] gettable   43  43  335  ; "x"
2FBF  130B8005           [444] getupval   44  11     
2FC3  0E0B5416           [445] gettable   44  44  336  ; "y"
fail op	0
2FC7  000B0016           [446] move       44  44     
2FCB  530B8005           [447] getupval   45  11     
2FCF  4E4BD416           [448] gettable   45  45  337  ; "z"
2FD3  A28A0002           [449] call       42  4   2  
2FD7  D20A0001           [450] move       43  2      
2FDB  E2898002           [451] call       39  5   2  
2FDF  130A0005           [452] getupval   40  10     
2FE3  520A0000           [453] move       41  0      
2FE7  920A8013           [454] move       42  39     
2FEB  DDCA1000           [455] getglobal  43  67       ; 572299008
2FEF  130B8005           [456] getupval   44  11     
2FF3  0ECB5316           [457] gettable   44  44  335  ; "x"
2FF7  530B8005           [458] getupval   45  11     
2FFB  4E0BD416           [459] gettable   45  45  336  ; "y"
2FFF  930B8005           [460] getupval   46  11     
3003  8E4B5417           [461] gettable   46  46  337  ; "z"
3007  E28A0002           [462] call       43  4   2  
300B  120B0001           [463] move       44  2      
300F  228A8002           [464] call       40  5   2  
3013  530A0005           [465] getupval   41  10     
3017  920A0000           [466] move       42  0      
301B  D20A0014           [467] move       43  40     
301F  1DCB1000           [468] getglobal  44  67       ; 572299008
3023  530B8005           [469] getupval   45  11     
3027  4ECBD316           [470] gettable   45  45  335  ; "x"
fail op	0
302B  400B8016           [471] move       45  45     
302F  930B8005           [472] getupval   46  11     
3033  8E0B5417           [473] gettable   46  46  336  ; "y"
3037  D30B8005           [474] getupval   47  11     
303B  CE4BD417           [475] gettable   47  47  337  ; "z"
303F  228B0002           [476] call       44  4   2  
3043  520B0001           [477] move       45  2      
3047  628A8002           [478] call       41  5   2  
304B  930A0005           [479] getupval   42  10     
304F  D20A0000           [480] move       43  0      
3053  120B8014           [481] move       44  41     
3057  5DCB1000           [482] getglobal  45  67       ; 572299008
305B  930B8005           [483] getupval   46  11     
305F  8ECB5317           [484] gettable   46  46  335  ; "x"
fail op	0
3063  800B0017           [485] move       46  46     
3067  D30B8005           [486] getupval   47  11     
306B  CE0BD417           [487] gettable   47  47  336  ; "y"
fail op	0
306F  C00B8017           [488] move       47  47     
3073  130C8005           [489] getupval   48  11     
3077  0E4C5418           [490] gettable   48  48  337  ; "z"
307B  628B0002           [491] call       45  4   2  
307F  920B0001           [492] move       46  2      
3083  A28A8002           [493] call       42  5   2  
3087  DDCA0000           [494] getglobal  43  3        ; 1074689893
308B  120B8013           [495] move       44  39     
308F  E28A0001           [496] call       43  2   2  
3093  D84A0000           [497] test       43      1    ; to [499] if false
3097  1A000280           [498] jmp        9            ; to [508]
309B  DDCA0000           [499] getglobal  43  3        ; 1074689893
309F  120B0015           [500] move       44  42     
30A3  E28A0001           [501] call       43  2   2  
30A7  D84A0000           [502] test       43      1    ; to [504] if false
30AB  1AC00080           [503] jmp        4            ; to [508]
30AF  E44AC713           [504] self       43  39  285  ; -408095485
30B3  520B0015           [505] move       45  42     
30B7  9D8B0400           [506] getglobal  46  18       ; EMPTY_SYMBOL
30BB  E24A0002           [507] call       43  4   1  
30BF  DDCA0000           [508] getglobal  43  3        ; 1074689893
30C3  120B0004           [509] move       44  8      
30C7  E28A0001           [510] call       43  2   2  
30CB  D84A0000           [511] test       43      1    ; to [513] if false
30CF  1A800780           [512] jmp        31           ; to [544]
30D3  E48A5404           [513] self       43  8   338  ; 523248122
30D7  E28A0001           [514] call       43  2   2  
30DB  D84A0000           [515] test       43      1    ; to [517] if false
30DF  1A800680           [516] jmp        27           ; to [544]
30E3  DDCA0000           [517] getglobal  43  3        ; 1074689893
30E7  0E4BCD0C           [518] gettable   44  25  309  ; "holder"
30EB  E28A0001           [519] call       43  2   2  
30EF  D84A0000           [520] test       43      1    ; to [522] if false
30F3  1A400580           [521] jmp        22           ; to [544]
30F7  CE4ACD0C           [522] gettable   43  25  309  ; "holder"
30FB  E44AC115           [523] self       43  43  261  ; -1917464545
30FF  E28A0001           [524] call       43  2   2  
3103  E48AC115           [525] self       43  43  262  ; 1769516121
3107  E28A0001           [526] call       43  2   2  
310B  1DCB0000           [527] getglobal  44  3        ; 1074689893
310F  520B8015           [528] move       45  43     
3113  228B0001           [529] call       44  2   2  
3117  184B0000           [530] test       44      1    ; to [532] if false
311B  1AC00080           [531] jmp        4            ; to [536]
311F  24CBD415           [532] self       44  43  339  ; 1722612532
3123  228B0001           [533] call       44  2   2  
fail op	21
3127  55008B80           [534] concat     1   257 44 
312B  1A000080           [535] jmp        1            ; to [537]
312F  174B0000           [536] loadbool   44  0   1    ; false, to [538]
3133  170B8000           [537] loadbool   44  1   0    ; true
3137  648B5204           [538] self       45  8   330  ; -1318948062
313B  628B0001           [539] call       45  2   2  
fail op	35
313F  63400B16           [540] close      1  
3143  1A400080           [541] jmp        2            ; to [544]
3147  240B5504           [542] self       44  8   340  ; 740223543
314B  224B0001           [543] call       44  2   1  
fail op	21
314F  15408780           [544] concat     0   257 29 
3153  1A801280           [545] jmp        75           ; to [621]
fail op	21
3157  1540C010           [546] concat     0   33  257
315B  1A001280           [547] jmp        73           ; to [621]
315F  240B4400           [548] self       44  0   272  ; -1421644046
3163  9D0B0700           [549] getglobal  46  28       ; castBeamType
3167  DD8B0400           [550] getglobal  47  18       ; EMPTY_SYMBOL
316B  130C0001           [551] getupval   48  2      
316F  5D4C1500           [552] getglobal  49  85       ; math
3173  4E8CD518           [553] gettable   49  49  342  ; -2040962569
3177  998C0600           [554] loadk      50  26       ; 0
317B  D30C0001           [555] getupval   51  2      
317F  CA0C8019           [556] len        51  51     
3183  628C8001           [557] call       49  3   2  
3187  0E4C0C18           [558] gettable   48  48  49 
318B  5DCC0500           [559] getglobal  49  23       ; ZERO_ROTATION
318F  920C0001           [560] move       50  2      
3193  228B8003           [561] call       44  7   2  
3197  5DCB0000           [562] getglobal  45  3        ; 1074689893
319B  920B0016           [563] move       46  44     
319F  628B0001           [564] call       45  2   2  
31A3  584B0000           [565] test       45      1    ; to [567] if false
31A7  1A000A80           [566] jmp        41           ; to [608]
31AB  530B0006           [567] getupval   45  12     
31AF  A4CB5516           [568] self       46  44  343  ; 196800914
31B3  A20B0001           [569] call       46  2   0  
31B7  628B0000           [570] call       45  0   2  
31BB  9D8B0500           [571] getglobal  46  22       ; ZERO_VECTOR
fail op	35
31BF  63808B16           [572] close      1  
31C3  1AC00080           [573] jmp        4            ; to [578]
31C7  A40B5616           [574] self       46  44  344  ; 1311555023
31CB  120C8016           [575] move       48  45     
31CF  A24B8001           [576] call       46  3   1  
31D3  1AC00480           [577] jmp        20           ; to [598]
31D7  930B0001           [578] getupval   46  2      
31DB  DD4B1500           [579] getglobal  47  85       ; math
31DF  CE8BD517           [580] gettable   47  47  342  ; -2040962569
31E3  198C0600           [581] loadk      48  26       ; 0
31E7  530C0001           [582] getupval   49  2      
31EB  4A0C8018           [583] len        49  49     
31EF  E28B8001           [584] call       47  3   2  
31F3  8ECB0B17           [585] gettable   46  46  47 
31F7  DD8B1000           [586] getglobal  47  66       ; 1287559689
31FB  120C0017           [587] move       48  46     
31FF  644C5600           [588] self       49  0   345  ; 54877834
3203  620C0001           [589] call       49  2   0  
3207  E28B0000           [590] call       47  0   2  
320B  920B8017           [591] move       46  47     
320F  E40B5616           [592] self       47  44  344  ; 1311555023
3213  644C5000           [593] self       49  0   321  ; 1839670529
3217  628C0001           [594] call       49  2   2  
321B  848C0817           [595] mul        50  46  34 
321F  438C8C18           [596] add        49  49  50 
3223  E24B8001           [597] call       47  3   1  
3227  D8070000           [598] test       31      0    ; to [600] if true
322B  1AC00180           [599] jmp        8            ; to [608]
322F  DD4B0200           [600] getglobal  47  9        ; gRegion
3233  E48BD617           [601] self       47  47  346  ; -1110225722
3237  5DCC1600           [602] getglobal  49  91       ; chargedUpBeamEffect
323B  A4CC5516           [603] self       50  44  343  ; 196800914
323F  A28C0001           [604] call       50  2   2  
3243  DDCC0500           [605] getglobal  51  23       ; ZERO_ROTATION
3247  120D0001           [606] move       52  2      
324B  E24B0003           [607] call       47  6   1  
324F  D8070000           [608] test       31      0    ; to [610] if true
3253  1A400180           [609] jmp        6            ; to [616]
3257  DD0B1700           [610] getglobal  47  92       ; -1941280958
325B  19CC0E00           [611] loadk      48  59       ; -51
325F  594C1700           [612] loadk      49  93       ; -102
3263  E28B8001           [613] call       47  3   2  
3267  52088017           [614] move       33  47     
326B  1A000180           [615] jmp        5            ; to [621]
326F  DD0B1700           [616] getglobal  47  92       ; -1941280958
3273  194C1700           [617] loadk      48  93       ; -102
3277  598C1700           [618] loadk      49  94       ; -102
327B  E28B8001           [619] call       47  3   2  
327F  52088017           [620] move       33  47     
fail op	21
3283  15008780           [621] concat     0   257 28 
3287  1A000980           [622] jmp        37           ; to [660]
328B  DDCB0000           [623] getglobal  47  3        ; 1074689893
328F  120C8001           [624] move       48  3      
3293  E28B0001           [625] call       47  2   2  
3297  D84B0000           [626] test       47      1    ; to [628] if false
329B  1AC00780           [627] jmp        32           ; to [660]
329F  E4CBD701           [628] self       47  3   351  ; -1549061037
32A3  E28B0001           [629] call       47  2   2  
fail op	21
32A7  15C00B0D           [630] concat     0   26  47 
32AB  1AC00680           [631] jmp        28           ; to [660]
32AF  0D8C8617           [632] sub        48  47  26 
32B3  040C0718           [633] mul        48  48  28 
32B7  C3068C0D           [634] add        27  27  48 
fail op	33
32BB  21C0068D           [635] tforloop   0       27   ; to [637] if exit
32BF  1A400580           [636] jmp        22           ; to [659]
32C3  1D4C1500           [637] getglobal  48  85       ; math
32C7  0E0C5818           [638] gettable   48  48  352  ; -150971781
32CB  520C800D           [639] move       49  27     
32CF  228C0001           [640] call       48  2   2  
32D3  CD068C0D           [641] sub        27  27  48 
32D7  5DCC0000           [642] getglobal  49  3        ; 1074689893
32DB  920C8000           [643] move       50  1      
32DF  628C0001           [644] call       49  2   2  
32E3  584C0000           [645] test       49      1    ; to [647] if false
32E7  1AC00280           [646] jmp        12           ; to [659]
32EB  644CD800           [647] self       49  1   353  ; -64490911
32EF  DD8C1800           [648] getglobal  51  98       ; Engine
32F3  CECCD819           [649] gettable   51  51  355  ; "DT_ELECTRICITY"
32F7  1D4D1500           [650] getglobal  52  85       ; math
32FB  0E0D591A           [651] gettable   52  52  356  ; 1710846250
32FF  644DD900           [652] self       53  1   357  ; 838340081
3303  628D0001           [653] call       53  2   2  
3307  430D8C1A           [654] add        53  53  48 
330B  930D8006           [655] getupval   54  13     
330F  228D8001           [656] call       52  3   2  
3313  570D8000           [657] loadbool   53  1   0    ; true
3317  624C8002           [658] call       49  5   1  
331B  92068017           [659] move       26  47     
331F  5D0C0000           [660] getglobal  49  0        ; 538022378
3323  994C0000           [661] loadk      50  1        ; 0
3327  624C0001           [662] call       49  2   1  
332B  5D8C1900           [663] getglobal  49  102      ; 1289681407
332F  628C8000           [664] call       49  1   2  
3333  4D448C08           [665] sub        17  17  49 
3337  5D8C1900           [666] getglobal  49  102      ; 1289681407
333B  628C8000           [667] call       49  1   2  
333F  4D488C10           [668] sub        33  33  49 
3343  5D8C1900           [669] getglobal  49  102      ; 1289681407
3347  628C8000           [670] call       49  1   2  
334B  0D480C10           [671] sub        32  32  49 
334F  1A80A47F           [672] jmp        -365         ; to [308]
3353  5DCC0000           [673] getglobal  49  3        ; 1074689893
3357  920C8001           [674] move       50  3      
335B  628C0001           [675] call       49  2   2  
335F  584C0000           [676] test       49      1    ; to [678] if false
3363  1AC00080           [677] jmp        4            ; to [682]
3367  5D4C0200           [678] getglobal  49  9        ; gRegion
336B  64CCD918           [679] self       49  49  359  ; -644780722
336F  D20C8001           [680] move       51  3      
3373  624C8001           [681] call       49  3   1  
3377  5DCC0000           [682] getglobal  49  3        ; 1074689893
337B  9D4C0A00           [683] getglobal  50  41       ; _T
337F  8E8C4A19           [684] gettable   50  50  298  ; "voltShield"
3383  628C0001           [685] call       49  2   2  
3387  584C0000           [686] test       49      1    ; to [688] if false
338B  1AC00B80           [687] jmp        48           ; to [736]
338F  5D0C1A00           [688] getglobal  49  104      ; 1672515847
3393  9D4C0A00           [689] getglobal  50  41       ; _T
3397  8E8C4A19           [690] gettable   50  50  298  ; "voltShield"
339B  8E0C0519           [691] gettable   50  50  20 
339F  620C0101           [692] call       49  2   4  
33A3  1A400280           [693] jmp        10           ; to [704]
33A7  8E4DCB1A           [694] gettable   54  53  301  ; "shield"
fail op	35
33AB  2300001B           [695] close      0  
33AF  1A800180           [696] jmp        7            ; to [704]
33B3  9D8D0B00           [697] getglobal  54  46       ; table
33B7  8ECD4B1B           [698] gettable   54  54  303  ; -843973282
33BB  DD4D0A00           [699] getglobal  55  41       ; _T
33BF  CE8DCA1B           [700] gettable   55  55  298  ; "voltShield"
33C3  CE0D851B           [701] gettable   55  55  20 
33C7  120E001A           [702] move       56  52     
33CB  A24D8001           [703] call       54  3   1  
33CF  568C0000           [704] tforloop   49      2    ; to [706] if exit
33D3  1AC0FC7F           [705] jmp        -12          ; to [694]
33D7  9D4D0A00           [706] getglobal  54  41       ; _T
33DB  8E8D4A1B           [707] gettable   54  54  298  ; "voltShield"
33DF  8E0D051B           [708] gettable   54  54  20 
33E3  8A0D001B           [709] len        54  54     
fail op	35
33E7  2340401B           [710] close      0  
33EB  1AC00580           [711] jmp        24           ; to [736]
33EF  D8010000           [712] test       7       0    ; to [714] if true
33F3  1A800280           [713] jmp        11           ; to [725]
33F7  9DCD0000           [714] getglobal  54  3        ; 1074689893
33FB  D20D8007           [715] move       55  15     
33FF  A28D0001           [716] call       54  2   2  
3403  984D0000           [717] test       54      1    ; to [719] if false
3407  1A400180           [718] jmp        6            ; to [725]
340B  A48DC907           [719] self       54  15  294  ; -985330630
340F  1DCE0900           [720] getglobal  56  39       ; -332969190
3413  590E0A00           [721] loadk      57  40       ; "TryPickup"
3417  228E0001           [722] call       56  2   2  
341B  570E0000           [723] loadbool   57  0   0    ; false
341F  A24D0002           [724] call       54  4   1  
3423  9D4D0A00           [725] getglobal  54  41       ; _T
3427  8E8D4A1B           [726] gettable   54  54  298  ; "voltShield"
342B  8C8D4D0A           [727] settable   54  20  310  ; nil
342F  9D4D1A00           [728] getglobal  54  105      ; -1442191459
3433  DD4D0A00           [729] getglobal  55  41       ; _T
3437  CE8DCA1B           [730] gettable   55  55  298  ; "voltShield"
343B  A28D0001           [731] call       54  2   2  
fail op	35
343F  23804D1B           [732] close      0  
3443  1A400080           [733] jmp        2            ; to [736]
3447  9D4D0A00           [734] getglobal  54  41       ; _T
344B  8C8D4D95           [735] settable   54  298 310  ; "voltShield" nil
344F  9D4D0A00           [736] getglobal  54  41       ; _T
3453  8E8D4F1B           [737] gettable   54  54  318  ; 414831371
3457  D20D0008           [738] move       55  16     
345B  120E8000           [739] move       56  1      
345F  594E0000           [740] loadk      57  1        ; 0
3463  920E8011           [741] move       58  35     
3467  A24D8002           [742] call       54  5   1  
346B  9DCD0000           [743] getglobal  54  3        ; 1074689893
346F  D20D0000           [744] move       55  0      
3473  A28D0001           [745] call       54  2   2  
3477  984D0000           [746] test       54      1    ; to [748] if false
347B  1A400080           [747] jmp        2            ; to [750]
347F  A48D5A00           [748] self       54  0   362  ; 1521658607
3483  A24D0001           [749] call       54  2   1  
3487  1E008000           [750] return     0   1      
                         * constants:
348B  6B                 sizek (107)
348C  01                 const type 3
348D  EA911120           const [0]: (538022378)
3491  03                 const type 3
3492  00000000           const [1]: (0)
3496  01                 const type 3
3497  7FB7BA07           const [2]: (129677183)
349B  01                 const type 3
349C  65770E40           const [3]: (1074689893)
34A0  01                 const type 3
34A1  3F74C2D4           const [4]: (-725453761)
34A5  01                 const type 3
34A6  1FD0B58D           const [5]: (-1917464545)
34AA  01                 const type 3
34AB  59AC7869           const [6]: (1769516121)
34AF  01                 const type 3
34B0  68C51D9F           const [7]: (-1625438872)
34B4  04                 const type 4
34B5  19                 string size (25)
34B6  674C6F7475734869+  "gLotusHi"
34BE  7450726F78795368+  "tProxySh"
34C6  69656C6454797065+  "ieldType"
34CE  00                 "\0"
                         const [8]: "gLotusHitProxyShieldType"
34CF  04                 const type 4
34D0  08                 string size (8)
34D1  67526567696F6E00   "gRegion\0"
                         const [9]: "gRegion"
34D9  01                 const type 3
34DA  5F44442D           const [10]: (759448671)
34DE  01                 const type 3
34DF  040591FD           const [11]: (-40827644)
34E3  01                 const type 3
34E4  97918446           const [12]: (1183093143)
34E8  04                 const type 4
34E9  0B                 string size (11)
34EA  4C6F7475735F4761+  "Lotus_Ga"
34F2  6D6500             "me\0"
                         const [13]: "Lotus_Game"
34F5  04                 const type 4
34F6  16                 string size (22)
34F7  506F776572537569+  "PowerSui"
34FF  745F4155474D454E+  "t_AUGMEN"
3507  545F4F4E4500       "T_ONE\0"
                         const [14]: "PowerSuit_AUGMENT_ONE"
350D  01                 const type 3
350E  533F61B8           const [15]: (-1201586349)
3512  01                 const type 3
3513  F26E43AB           const [16]: (-1421644046)
3517  04                 const type 4
3518  0B                 string size (11)
3519  616374696F6E5479+  "actionTy"
3521  706500             "pe\0"
                         const [17]: "actionType"
3524  04                 const type 4
3525  0D                 string size (13)
3526  454D5054595F5359+  "EMPTY_SY"
352E  4D424F4C00         "MBOL\0"
                         const [18]: "EMPTY_SYMBOL"
3533  01                 const type 3
3534  FCA9D1E5           const [19]: (-439244292)
3538  01                 const type 3
3539  14B92C37           const [20]: (925677844)
353D  04                 const type 4
353E  17                 string size (23)
353F  6175676D656E744F+  "augmentO"
3547  6E65417474616368+  "neAttach"
354F  45666665637400     "Effect\0"
                         const [21]: "augmentOneAttachEffect"
3556  04                 const type 4
3557  0C                 string size (12)
3558  5A45524F5F564543+  "ZERO_VEC"
3560  544F5200           "TOR\0"
                         const [22]: "ZERO_VECTOR"
3564  04                 const type 4
3565  0E                 string size (14)
3566  5A45524F5F524F54+  "ZERO_ROT"
356E  4154494F4E00       "ATION\0"
                         const [23]: "ZERO_ROTATION"
3574  04                 const type 4
3575  16                 string size (22)
3576  6175676D656E744F+  "augmentO"
357E  6E65547269676765+  "neTrigge"
3586  725479706500       "rType\0"
                         const [24]: "augmentOneTriggerType"
358C  04                 const type 4
358D  0F                 string size (15)
358E  736869656C644174+  "shieldAt"
3596  74616368467800     "tachFx\0"
                         const [25]: "shieldAttachFx"
359D  03                 const type 3
359E  0000803F           const [26]: (0)
35A2  03                 const type 3
35A3  00008040           const [27]: (0)
35A7  04                 const type 4
35A8  0D                 string size (13)
35A9  636173744265616D+  "castBeam"
35B1  5479706500         "Type\0"
                         const [28]: "castBeamType"
35B6  01                 const type 3
35B7  03F5ACE7           const [29]: (-408095485)
35BB  03                 const type 3
35BC  00000040           const [30]: (0)
35C0  01                 const type 3
35C1  B6C39814           const [31]: (345555894)
35C5  01                 const type 3
35C6  38C555EA           const [32]: (-363477704)
35CA  01                 const type 3
35CB  652CB3E2           const [33]: (-491574171)
35CF  01                 const type 3
35D0  B2E5C586           const [34]: (-2033850958)
35D4  04                 const type 4
35D5  09                 string size (9)
35D6  6475726174696F6E+  "duration"
35DE  00                 "\0"
                         const [35]: "duration"
35DF  04                 const type 4
35E0  0F                 string size (15)
35E1  736869656C64496E+  "shieldIn"
35E9  7374616E636500     "stance\0"
                         const [36]: "shieldInstance"
35F0  04                 const type 4
35F1  15                 string size (21)
35F2  6175676D656E7450+  "augmentP"
35FA  6374436F6E766572+  "ctConver"
3602  73696F6E00         "sion\0"
                         const [37]: "augmentPctConversion"
3607  01                 const type 3
3608  3A0C45C5           const [38]: (-985330630)
360C  01                 const type 3
360D  1A4B27EC           const [39]: (-332969190)
3611  04                 const type 4
3612  0A                 string size (10)
3613  5472795069636B75+  "TryPicku"
361B  7000               "p\0"
                         const [40]: "TryPickup"
361D  04                 const type 4
361E  03                 string size (3)
361F  5F5400             "_T\0"
                         const [41]: "_T"
3622  04                 const type 4
3623  0B                 string size (11)
3624  766F6C7453686965+  "voltShie"
362C  6C6400             "ld\0"
                         const [42]: "voltShield"
362F  01                 const type 3
3630  B60FEFDB           const [43]: (-605089866)
3634  03                 const type 3
3635  000080BF           const [44]: (0)
3639  04                 const type 4
363A  07                 string size (7)
363B  736869656C6400     "shield\0"
                         const [45]: "shield"
3642  04                 const type 4
3643  06                 string size (6)
3644  7461626C6500       "table\0"
                         const [46]: "table"
364A  01                 const type 3
364B  5EFDB1CD           const [47]: (-843973282)
364F  04                 const type 4
3650  0A                 string size (10)
3651  7465726D696E6174+  "terminat"
3659  6500               "e\0"
                         const [48]: "terminate"
365B  01                 const type 3
365C  01000000           const [49]: (1)
3660  01                 const type 3
3661  9D0C45E6           const [50]: (-431682403)
3665  04                 const type 4
3666  07                 string size (7)
3667  616374696F6E00     "action\0"
                         const [51]: "action"
366E  04                 const type 4
366F  09                 string size (9)
3670  696E7374616E6365+  "instance"
3678  00                 "\0"
                         const [52]: "instance"
3679  04                 const type 4
367A  07                 string size (7)
367B  686F6C64657200     "holder\0"
                         const [53]: "holder"
3682  00                 const type 0
                         const [54]: nil
3683  01                 const type 3
3684  B8799B08           const [55]: (144406968)
3688  01                 const type 3
3689  F6CB3C93           const [56]: (-1824732170)
368D  04                 const type 4
368E  12                 string size (18)
368F  736869656C64456C+  "shieldEl"
3697  656D656E74547970+  "ementTyp"
369F  6500               "e\0"
                         const [57]: "shieldElementType"
36A1  03                 const type 3
36A2  0000403F           const [58]: (0)
36A6  03                 const type 3
36A7  CDCC4C3E           const [59]: (-51)
36AB  01                 const type 3
36AC  05D16911           const [60]: (292147461)
36B0  01                 const type 3
36B1  025A115A           const [61]: (1511086594)
36B5  01                 const type 3
36B6  0BD3B918           const [62]: (414831371)
36BA  01                 const type 3
36BB  92B8B5EC           const [63]: (-323635054)
36BF  04                 const type 4
36C0  0B                 string size (11)
36C1  6747616D6552756C+  "gGameRul"
36C9  657300             "es\0"
                         const [64]: "gGameRules"
36CC  01                 const type 3
36CD  0125A76D           const [65]: (1839670529)
36D1  01                 const type 3
36D2  099ABE4C           const [66]: (1287559689)
36D6  01                 const type 3
36D7  00971C22           const [67]: (572299008)
36DB  03                 const type 3
36DC  3333B33E           const [68]: (51)
36E0  01                 const type 3
36E1  49783AF2           const [69]: (-231049143)
36E5  03                 const type 3
36E6  CDCCAC3F           const [70]: (-51)
36EA  03                 const type 3
36EB  9A99593F           const [71]: (-102)
36EF  01                 const type 3
36F0  0AD99C23           const [72]: (597481738)
36F4  03                 const type 3
36F5  0000803E           const [73]: (0)
36F9  01                 const type 3
36FA  227362B1           const [74]: (-1318948062)
36FE  04                 const type 4
36FF  10                 string size (16)
3700  6368617267656455+  "chargedU"
3708  7045666665637400   "pEffect\0"
                         const [75]: "chargedUpEffect"
3710  01                 const type 3
3711  61E324D1           const [76]: (-786111647)
3715  04                 const type 4
3716  08                 string size (8)
3717  5363616C61723200   "Scalar2\0"
                         const [77]: "Scalar2"
371F  03                 const type 3
3720  0000C03F           const [78]: (0)
3724  04                 const type 4
3725  02                 string size (2)
3726  7800               "x\0"
                         const [79]: "x"
3728  04                 const type 4
3729  02                 string size (2)
372A  7900               "y\0"
                         const [80]: "y"
372C  04                 const type 4
372D  02                 string size (2)
372E  7A00               "z\0"
                         const [81]: "z"
3730  01                 const type 3
3731  FA21301F           const [82]: (523248122)
3735  01                 const type 3
3736  34FBAC66           const [83]: (1722612532)
373A  01                 const type 3
373B  37EA1E2C           const [84]: (740223543)
373F  04                 const type 4
3740  05                 string size (5)
3741  6D61746800         "math\0"
                         const [85]: "math"
3746  01                 const type 3
3747  F7615986           const [86]: (-2040962569)
374B  01                 const type 3
374C  92F1BA0B           const [87]: (196800914)
3750  01                 const type 3
3751  CFBD2C4E           const [88]: (1311555023)
3755  01                 const type 3
3756  8A5E4503           const [89]: (54877834)
375A  01                 const type 3
375B  C64CD3BD           const [90]: (-1110225722)
375F  04                 const type 4
3760  14                 string size (20)
3761  6368617267656455+  "chargedU"
3769  704265616D456666+  "pBeamEff"
3771  65637400           "ect\0"
                         const [91]: "chargedUpBeamEffect"
3775  01                 const type 3
3776  42674A8C           const [92]: (-1941280958)
377A  03                 const type 3
377B  9A99993E           const [93]: (-102)
377F  03                 const type 3
3780  9A99193F           const [94]: (-102)
3784  01                 const type 3
3785  5334ABA3           const [95]: (-1549061037)
3789  01                 const type 3
378A  7B5A00F7           const [96]: (-150971781)
378E  01                 const type 3
378F  61F227FC           const [97]: (-64490911)
3793  04                 const type 4
3794  07                 string size (7)
3795  456E67696E6500     "Engine\0"
                         const [98]: "Engine"
379C  04                 const type 4
379D  0F                 string size (15)
379E  44545F454C454354+  "DT_ELECT"
37A6  52494349545900     "RICITY\0"
                         const [99]: "DT_ELECTRICITY"
37AD  01                 const type 3
37AE  2A71F965           const [100]: (1710846250)
37B2  01                 const type 3
37B3  F10DF831           const [101]: (838340081)
37B7  01                 const type 3
37B8  FFF9DE4C           const [102]: (1289681407)
37BC  01                 const type 3
37BD  4E6D91D9           const [103]: (-644780722)
37C1  01                 const type 3
37C2  0791B063           const [104]: (1672515847)
37C6  01                 const type 3
37C7  9DE709AA           const [105]: (-1442191459)
37CB  01                 const type 3
37CC  EFAAB25A           const [106]: (1521658607)
                         * functions:
37D0  00                 sizep (0)
                         * lines:
37D2  05                 sizelineinfo (750)
                         [pc] (line)
37D3  72                 [001] (114)
37D4  01                 [002] (114)
37D5  00                 [003] (114)
37D6  00                 [004] (116)
37D7  72                 [005] (116)
37D8  01                 [006] (117)
37D9  00                 [007] (117)
37DA  00                 [008] (117)
37DB  72                 [009] (117)
37DC  01                 [010] (117)
37DD  00                 [011] (118)
37DE  00                 [012] (118)
37DF  74                 [013] (119)
37E0  01                 [014] (122)
37E1  00                 [015] (122)
37E2  00                 [016] (122)
37E3  74                 [017] (122)
37E4  01                 [018] (123)
37E5  00                 [019] (123)
37E6  00                 [020] (123)
37E7  75                 [021] (123)
37E8  01                 [022] (123)
37E9  00                 [023] (124)
37EA  00                 [024] (124)
37EB  75                 [025] (125)
37EC  01                 [026] (-128)
37ED  00                 [027] (-128)
37EE  00                 [028] (-128)
37EF  75                 [029] (-127)
37F0  01                 [030] (-127)
37F1  00                 [031] (-127)
37F2  00                 [032] (-127)
37F3  75                 [033] (-127)
37F4  01                 [034] (-126)
37F5  00                 [035] (-126)
37F6  00                 [036] (-126)
37F7  75                 [037] (-126)
37F8  01                 [038] (-123)
37F9  00                 [039] (-123)
37FA  00                 [040] (-123)
37FB  76                 [041] (-122)
37FC  01                 [042] (-122)
37FD  00                 [043] (-122)
37FE  00                 [044] (-121)
37FF  76                 [045] (-121)
3800  01                 [046] (-121)
3801  00                 [047] (-121)
3802  00                 [048] (-121)
3803  77                 [049] (-121)
3804  01                 [050] (-121)
3805  00                 [051] (-121)
3806  00                 [052] (-120)
3807  7A                 [053] (-120)
3808  01                 [054] (-119)
3809  00                 [055] (-119)
380A  00                 [056] (-119)
380B  7A                 [057] (-119)
380C  01                 [058] (-116)
380D  00                 [059] (-116)
380E  00                 [060] (-115)
380F  7A                 [061] (-114)
3810  01                 [062] (-114)
3811  00                 [063] (-114)
3812  00                 [064] (-114)
3813  7A                 [065] (-113)
3814  01                 [066] (-113)
3815  00                 [067] (-113)
3816  00                 [068] (-113)
3817  7B                 [069] (-113)
3818  01                 [070] (-112)
3819  00                 [071] (-112)
381A  00                 [072] (-112)
381B  7B                 [073] (-112)
381C  01                 [074] (-112)
381D  00                 [075] (-111)
381E  00                 [076] (-111)
381F  7B                 [077] (-111)
3820  01                 [078] (-111)
3821  00                 [079] (-111)
3822  00                 [080] (-109)
3823  7B                 [081] (-109)
3824  01                 [082] (-108)
3825  00                 [083] (-108)
3826  00                 [084] (-108)
3827  7B                 [085] (-108)
3828  01                 [086] (-108)
3829  00                 [087] (-108)
382A  00                 [088] (-108)
382B  7C                 [089] (-106)
382C  01                 [090] (-106)
382D  00                 [091] (-106)
382E  00                 [092] (-106)
382F  7C                 [093] (-105)
3830  01                 [094] (-105)
3831  00                 [095] (-105)
3832  00                 [096] (-105)
3833  7D                 [097] (-105)
3834  01                 [098] (-105)
3835  00                 [099] (-105)
3836  00                 [100] (-100)
3837  80                 [101] (-100)
3838  01                 [102] (-100)
3839  00                 [103] (-100)
383A  00                 [104] (-100)
383B  80                 [105] (-100)
383C  01                 [106] (-100)
383D  00                 [107] (-98)
383E  00                 [108] (-98)
383F  80                 [109] (-98)
3840  01                 [110] (-98)
3841  00                 [111] (-98)
3842  00                 [112] (-97)
3843  81                 [113] (-97)
3844  01                 [114] (-97)
3845  00                 [115] (-97)
3846  00                 [116] (-96)
3847  81                 [117] (-96)
3848  01                 [118] (-96)
3849  00                 [119] (-96)
384A  00                 [120] (-96)
384B  81                 [121] (-96)
384C  01                 [122] (-96)
384D  00                 [123] (-96)
384E  00                 [124] (-95)
384F  81                 [125] (-95)
3850  01                 [126] (-95)
3851  00                 [127] (-95)
3852  00                 [128] (-95)
3853  81                 [129] (-94)
3854  01                 [130] (-94)
3855  00                 [131] (-94)
3856  00                 [132] (-94)
3857  82                 [133] (-94)
3858  01                 [134] (-94)
3859  00                 [135] (-94)
385A  00                 [136] (-97)
385B  82                 [137] (-89)
385C  01                 [138] (-89)
385D  00                 [139] (-89)
385E  00                 [140] (-88)
385F  82                 [141] (-88)
3860  01                 [142] (-88)
3861  00                 [143] (-87)
3862  00                 [144] (-87)
3863  82                 [145] (-85)
3864  01                 [146] (-85)
3865  00                 [147] (-85)
3866  00                 [148] (-84)
3867  85                 [149] (-83)
3868  01                 [150] (-81)
3869  00                 [151] (-81)
386A  00                 [152] (-81)
386B  85                 [153] (-81)
386C  01                 [154] (-81)
386D  00                 [155] (-81)
386E  00                 [156] (-80)
386F  85                 [157] (-80)
3870  01                 [158] (-80)
3871  00                 [159] (-80)
3872  00                 [160] (-80)
3873  86                 [161] (-79)
3874  01                 [162] (-78)
3875  00                 [163] (-76)
3876  00                 [164] (-76)
3877  86                 [165] (-75)
3878  01                 [166] (-75)
3879  00                 [167] (-71)
387A  00                 [168] (-71)
387B  86                 [169] (-70)
387C  01                 [170] (-70)
387D  00                 [171] (-70)
387E  00                 [172] (-70)
387F  87                 [173] (-70)
3880  01                 [174] (-70)
3881  00                 [175] (-67)
3882  00                 [176] (-67)
3883  87                 [177] (-67)
3884  01                 [178] (-67)
3885  00                 [179] (-67)
3886  00                 [180] (-67)
3887  87                 [181] (-66)
3888  01                 [182] (-66)
3889  00                 [183] (-66)
388A  00                 [184] (-63)
388B  87                 [185] (-63)
388C  01                 [186] (-62)
388D  00                 [187] (-62)
388E  00                 [188] (-62)
388F  87                 [189] (-62)
3890  01                 [190] (-62)
3891  00                 [191] (-62)
3892  00                 [192] (-62)
3893  87                 [193] (-61)
3894  01                 [194] (-61)
3895  00                 [195] (-61)
3896  00                 [196] (-61)
3897  87                 [197] (-58)
3898  01                 [198] (-58)
3899  00                 [199] (-58)
389A  00                 [200] (-58)
389B  87                 [201] (-58)
389C  01                 [202] (-58)
389D  00                 [203] (-58)
389E  00                 [204] (-57)
389F  88                 [205] (-57)
38A0  01                 [206] (-57)
38A1  00                 [207] (-57)
38A2  00                 [208] (-57)
38A3  88                 [209] (-57)
38A4  01                 [210] (-57)
38A5  00                 [211] (-57)
38A6  00                 [212] (-57)
38A7  89                 [213] (-56)
38A8  01                 [214] (-56)
38A9  00                 [215] (-56)
38AA  00                 [216] (-56)
38AB  89                 [217] (-56)
38AC  01                 [218] (-56)
38AD  00                 [219] (-56)
38AE  00                 [220] (-58)
38AF  89                 [221] (-52)
38B0  01                 [222] (-52)
38B1  00                 [223] (-52)
38B2  00                 [224] (-52)
38B3  89                 [225] (-52)
38B4  01                 [226] (-52)
38B5  00                 [227] (-52)
38B6  00                 [228] (-51)
38B7  8C                 [229] (-51)
38B8  01                 [230] (-51)
38B9  00                 [231] (-51)
38BA  00                 [232] (-51)
38BB  8C                 [233] (-50)
38BC  01                 [234] (-50)
38BD  00                 [235] (-50)
38BE  00                 [236] (-50)
38BF  8D                 [237] (-50)
38C0  01                 [238] (-50)
38C1  00                 [239] (-50)
38C2  00                 [240] (-47)
38C3  8E                 [241] (-47)
38C4  01                 [242] (-47)
38C5  00                 [243] (-47)
38C6  00                 [244] (-47)
38C7  8E                 [245] (-47)
38C8  01                 [246] (-47)
38C9  00                 [247] (-47)
38CA  00                 [248] (-47)
38CB  8E                 [249] (-47)
38CC  01                 [250] (-47)
38CD  00                 [251] (-47)
38CE  00                 [252] (-46)
38CF  8E                 [253] (-46)
38D0  01                 [254] (-46)
38D1  00                 [255] (-46)
38D2  00                 [256] (-46)
38D3  8F                 [257] (-46)
38D4  01                 [258] (-46)
38D5  00                 [259] (-46)
38D6  00                 [260] (-44)
38D7  8F                 [261] (-43)
38D8  01                 [262] (-42)
38D9  00                 [263] (-41)
38DA  00                 [264] (-41)
38DB  8F                 [265] (-40)
38DC  01                 [266] (-38)
38DD  00                 [267] (-38)
38DE  00                 [268] (-38)
38DF  8F                 [269] (-38)
38E0  01                 [270] (-38)
38E1  00                 [271] (-37)
38E2  00                 [272] (-37)
38E3  8F                 [273] (-37)
38E4  01                 [274] (-33)
38E5  00                 [275] (-33)
38E6  00                 [276] (-33)
38E7  90                 [277] (-31)
38E8  01                 [278] (-31)
38E9  00                 [279] (-31)
38EA  00                 [280] (-30)
38EB  90                 [281] (-28)
38EC  01                 [282] (-27)
38ED  00                 [283] (-26)
38EE  00                 [284] (-25)
38EF  90                 [285] (-25)
38F0  01                 [286] (-25)
38F1  00                 [287] (-24)
38F2  00                 [288] (-24)
38F3  90                 [289] (-24)
38F4  01                 [290] (-24)
38F5  00                 [291] (-24)
38F6  00                 [292] (-24)
38F7  90                 [293] (-24)
38F8  01                 [294] (-24)
38F9  00                 [295] (-24)
38FA  00                 [296] (-24)
38FB  91                 [297] (-24)
38FC  01                 [298] (-24)
38FD  00                 [299] (-24)
38FE  00                 [300] (-24)
38FF  91                 [301] (-23)
3900  01                 [302] (-23)
3901  00                 [303] (-23)
3902  00                 [304] (-23)
3903  91                 [305] (-23)
3904  01                 [306] (-23)
3905  00                 [307] (-23)
3906  00                 [308] (-20)
3907  91                 [309] (-20)
3908  01                 [310] (-19)
3909  00                 [311] (-19)
390A  00                 [312] (-19)
390B  91                 [313] (-19)
390C  01                 [314] (-19)
390D  00                 [315] (-18)
390E  00                 [316] (-18)
390F  93                 [317] (-18)
3910  01                 [318] (-18)
3911  00                 [319] (-17)
3912  00                 [320] (-17)
3913  93                 [321] (-17)
3914  01                 [322] (-15)
3915  00                 [323] (-15)
3916  00                 [324] (-15)
3917  94                 [325] (-13)
3918  01                 [326] (-13)
3919  00                 [327] (-13)
391A  00                 [328] (-13)
391B  94                 [329] (-13)
391C  01                 [330] (-13)
391D  00                 [331] (-13)
391E  00                 [332] (-12)
391F  94                 [333] (-12)
3920  01                 [334] (-12)
3921  00                 [335] (-12)
3922  00                 [336] (-12)
3923  94                 [337] (-12)
3924  01                 [338] (-12)
3925  00                 [339] (-12)
3926  00                 [340] (-12)
3927  94                 [341] (-12)
3928  01                 [342] (-12)
3929  00                 [343] (-12)
392A  00                 [344] (-11)
392B  94                 [345] (-11)
392C  01                 [346] (-11)
392D  00                 [347] (-11)
392E  00                 [348] (-11)
392F  94                 [349] (-11)
3930  01                 [350] (-11)
3931  00                 [351] (-11)
3932  00                 [352] (-11)
3933  96                 [353] (-10)
3934  01                 [354] (-10)
3935  00                 [355] (-10)
3936  00                 [356] (-10)
3937  96                 [357] (-10)
3938  01                 [358] (-10)
3939  00                 [359] (-10)
393A  00                 [360] (-10)
393B  96                 [361] (-10)
393C  01                 [362] (-8)
393D  00                 [363] (-8)
393E  00                 [364] (-8)
393F  96                 [365] (-8)
3940  01                 [366] (-8)
3941  00                 [367] (-8)
3942  00                 [368] (-8)
3943  97                 [369] (-8)
3944  01                 [370] (-8)
3945  00                 [371] (-8)
3946  00                 [372] (-7)
3947  97                 [373] (-7)
3948  01                 [374] (-7)
3949  00                 [375] (-7)
394A  00                 [376] (-7)
394B  97                 [377] (-7)
394C  01                 [378] (-7)
394D  00                 [379] (-7)
394E  00                 [380] (-7)
394F  97                 [381] (-7)
3950  01                 [382] (-6)
3951  00                 [383] (-6)
3952  00                 [384] (-6)
3953  97                 [385] (-6)
3954  01                 [386] (-6)
3955  00                 [387] (-6)
3956  00                 [388] (-6)
3957  97                 [389] (-6)
3958  01                 [390] (-4)
3959  00                 [391] (-2)
395A  00                 [392] (1)
395B  97                 [393] (1)
395C  01                 [394] (1)
395D  00                 [395] (1)
395E  00                 [396] (1)
395F  9C                 [397] (1)
3960  01                 [398] (1)
3961  00                 [399] (1)
3962  00                 [400] (1)
3963  9C                 [401] (1)
3964  01                 [402] (2)
3965  00                 [403] (2)
3966  00                 [404] (5)
3967  9C                 [405] (5)
3968  01                 [406] (5)
3969  00                 [407] (5)
396A  00                 [408] (5)
396B  9C                 [409] (6)
396C  01                 [410] (6)
396D  00                 [411] (6)
396E  00                 [412] (6)
396F  9C                 [413] (9)
3970  01                 [414] (9)
3971  00                 [415] (9)
3972  00                 [416] (9)
3973  9C                 [417] (9)
3974  01                 [418] (10)
3975  00                 [419] (10)
3976  00                 [420] (10)
3977  9C                 [421] (10)
3978  01                 [422] (10)
3979  00                 [423] (10)
397A  00                 [424] (11)
397B  9E                 [425] (12)
397C  01                 [426] (12)
397D  00                 [427] (12)
397E  00                 [428] (12)
397F  9E                 [429] (12)
3980  01                 [430] (12)
3981  00                 [431] (12)
3982  00                 [432] (13)
3983  9E                 [433] (13)
3984  01                 [434] (13)
3985  00                 [435] (13)
3986  00                 [436] (13)
3987  9E                 [437] (13)
3988  01                 [438] (14)
3989  00                 [439] (14)
398A  00                 [440] (14)
398B  9E                 [441] (14)
398C  01                 [442] (14)
398D  00                 [443] (14)
398E  00                 [444] (14)
398F  9F                 [445] (14)
3990  01                 [446] (14)
3991  00                 [447] (14)
3992  00                 [448] (14)
3993  9F                 [449] (14)
3994  01                 [450] (14)
3995  00                 [451] (14)
3996  00                 [452] (15)
3997  9F                 [453] (15)
3998  01                 [454] (15)
3999  00                 [455] (15)
399A  00                 [456] (15)
399B  9F                 [457] (15)
399C  01                 [458] (15)
399D  00                 [459] (15)
399E  00                 [460] (15)
399F  A0                 [461] (15)
39A0  01                 [462] (15)
39A1  00                 [463] (15)
39A2  00                 [464] (15)
39A3  A0                 [465] (16)
39A4  01                 [466] (16)
39A5  00                 [467] (16)
39A6  00                 [468] (16)
39A7  A0                 [469] (16)
39A8  01                 [470] (16)
39A9  00                 [471] (16)
39AA  00                 [472] (16)
39AB  A0                 [473] (16)
39AC  01                 [474] (16)
39AD  00                 [475] (16)
39AE  00                 [476] (16)
39AF  A0                 [477] (16)
39B0  01                 [478] (16)
39B1  00                 [479] (17)
39B2  00                 [480] (17)
39B3  A0                 [481] (17)
39B4  01                 [482] (17)
39B5  00                 [483] (17)
39B6  00                 [484] (17)
39B7  A0                 [485] (17)
39B8  01                 [486] (17)
39B9  00                 [487] (17)
39BA  00                 [488] (17)
39BB  A0                 [489] (17)
39BC  01                 [490] (17)
39BD  00                 [491] (17)
39BE  00                 [492] (17)
39BF  A1                 [493] (17)
39C0  01                 [494] (18)
39C1  00                 [495] (18)
39C2  00                 [496] (18)
39C3  A1                 [497] (18)
39C4  01                 [498] (18)
39C5  00                 [499] (18)
39C6  00                 [500] (18)
39C7  A1                 [501] (18)
39C8  01                 [502] (18)
39C9  00                 [503] (18)
39CA  00                 [504] (19)
39CB  A1                 [505] (19)
39CC  01                 [506] (19)
39CD  00                 [507] (19)
39CE  00                 [508] (24)
39CF  A1                 [509] (24)
39D0  01                 [510] (24)
39D1  00                 [511] (24)
39D2  00                 [512] (24)
39D3  A2                 [513] (25)
39D4  01                 [514] (25)
39D5  00                 [515] (25)
39D6  00                 [516] (25)
39D7  A2                 [517] (25)
39D8  01                 [518] (25)
39D9  00                 [519] (25)
39DA  00                 [520] (25)
39DB  A2                 [521] (25)
39DC  01                 [522] (26)
39DD  00                 [523] (26)
39DE  00                 [524] (26)
39DF  A2                 [525] (26)
39E0  01                 [526] (26)
39E1  00                 [527] (27)
39E2  00                 [528] (27)
39E3  A2                 [529] (27)
39E4  01                 [530] (27)
39E5  00                 [531] (27)
39E6  00                 [532] (27)
39E7  A2                 [533] (27)
39E8  01                 [534] (27)
39E9  00                 [535] (27)
39EA  00                 [536] (27)
39EB  A2                 [537] (27)
39EC  01                 [538] (27)
39ED  00                 [539] (27)
39EE  00                 [540] (27)
39EF  9F                 [541] (27)
39F0  01                 [542] (28)
39F1  00                 [543] (28)
39F2  00                 [544] (33)
39F3  A7                 [545] (33)
39F4  01                 [546] (33)
39F5  00                 [547] (33)
39F6  00                 [548] (34)
39F7  A7                 [549] (34)
39F8  01                 [550] (34)
39F9  00                 [551] (34)
39FA  00                 [552] (34)
39FB  A7                 [553] (34)
39FC  01                 [554] (34)
39FD  00                 [555] (34)
39FE  00                 [556] (34)
39FF  A8                 [557] (34)
3A00  01                 [558] (34)
3A01  00                 [559] (34)
3A02  00                 [560] (34)
3A03  A8                 [561] (34)
3A04  01                 [562] (35)
3A05  00                 [563] (35)
3A06  00                 [564] (35)
3A07  A8                 [565] (35)
3A08  01                 [566] (35)
3A09  00                 [567] (36)
3A0A  00                 [568] (36)
3A0B  A9                 [569] (36)
3A0C  01                 [570] (36)
3A0D  00                 [571] (37)
3A0E  00                 [572] (37)
3A0F  A9                 [573] (37)
3A10  01                 [574] (38)
3A11  00                 [575] (38)
3A12  00                 [576] (38)
3A13  AB                 [577] (38)
3A14  01                 [578] (40)
3A15  00                 [579] (40)
3A16  00                 [580] (40)
3A17  AB                 [581] (40)
3A18  01                 [582] (40)
3A19  00                 [583] (40)
3A1A  00                 [584] (40)
3A1B  AB                 [585] (40)
3A1C  01                 [586] (41)
3A1D  00                 [587] (41)
3A1E  00                 [588] (41)
3A1F  AC                 [589] (41)
3A20  01                 [590] (41)
3A21  00                 [591] (41)
3A22  00                 [592] (42)
3A23  AD                 [593] (42)
3A24  01                 [594] (42)
3A25  00                 [595] (42)
3A26  00                 [596] (42)
3A27  AF                 [597] (42)
3A28  01                 [598] (44)
3A29  00                 [599] (44)
3A2A  00                 [600] (45)
3A2B  AF                 [601] (45)
3A2C  01                 [602] (45)
3A2D  00                 [603] (45)
3A2E  00                 [604] (45)
3A2F  AF                 [605] (45)
3A30  01                 [606] (45)
3A31  00                 [607] (45)
3A32  00                 [608] (48)
3A33  AF                 [609] (48)
3A34  01                 [610] (49)
3A35  00                 [611] (49)
3A36  00                 [612] (49)
3A37  AF                 [613] (49)
3A38  01                 [614] (49)
3A39  00                 [615] (49)
3A3A  00                 [616] (51)
3A3B  AF                 [617] (51)
3A3C  01                 [618] (51)
3A3D  00                 [619] (51)
3A3E  00                 [620] (51)
3A3F  B0                 [621] (55)
3A40  01                 [622] (55)
3A41  00                 [623] (55)
3A42  00                 [624] (55)
3A43  B0                 [625] (55)
3A44  01                 [626] (55)
3A45  00                 [627] (55)
3A46  00                 [628] (56)
3A47  B0                 [629] (56)
3A48  01                 [630] (57)
3A49  00                 [631] (57)
3A4A  00                 [632] (58)
3A4B  B0                 [633] (58)
3A4C  01                 [634] (58)
3A4D  00                 [635] (59)
3A4E  00                 [636] (59)
3A4F  B0                 [637] (60)
3A50  01                 [638] (60)
3A51  00                 [639] (60)
3A52  00                 [640] (60)
3A53  B1                 [641] (61)
3A54  01                 [642] (63)
3A55  00                 [643] (63)
3A56  00                 [644] (63)
3A57  B2                 [645] (63)
3A58  01                 [646] (63)
3A59  00                 [647] (64)
3A5A  00                 [648] (64)
3A5B  B4                 [649] (64)
3A5C  01                 [650] (64)
3A5D  00                 [651] (64)
3A5E  00                 [652] (64)
3A5F  B4                 [653] (64)
3A60  01                 [654] (64)
3A61  00                 [655] (64)
3A62  00                 [656] (64)
3A63  B5                 [657] (64)
3A64  01                 [658] (64)
3A65  00                 [659] (68)
3A66  00                 [660] (72)
3A67  B5                 [661] (72)
3A68  01                 [662] (72)
3A69  00                 [663] (73)
3A6A  00                 [664] (73)
3A6B  B9                 [665] (73)
3A6C  01                 [666] (74)
3A6D  00                 [667] (74)
3A6E  00                 [668] (74)
3A6F  B9                 [669] (75)
3A70  01                 [670] (75)
3A71  00                 [671] (75)
3A72  00                 [672] (75)
3A73  BA                 [673] (78)
3A74  01                 [674] (78)
3A75  00                 [675] (78)
3A76  00                 [676] (78)
3A77  BA                 [677] (78)
3A78  01                 [678] (79)
3A79  00                 [679] (79)
3A7A  00                 [680] (79)
3A7B  BA                 [681] (79)
3A7C  01                 [682] (82)
3A7D  00                 [683] (82)
3A7E  00                 [684] (82)
3A7F  BA                 [685] (82)
3A80  01                 [686] (82)
3A81  00                 [687] (82)
3A82  00                 [688] (83)
3A83  BA                 [689] (83)
3A84  01                 [690] (83)
3A85  00                 [691] (83)
3A86  00                 [692] (83)
3A87  BA                 [693] (83)
3A88  01                 [694] (84)
3A89  00                 [695] (84)
3A8A  00                 [696] (84)
3A8B  BD                 [697] (85)
3A8C  01                 [698] (85)
3A8D  00                 [699] (85)
3A8E  00                 [700] (85)
3A8F  BD                 [701] (85)
3A90  01                 [702] (85)
3A91  00                 [703] (85)
3A92  00                 [704] (83)
3A93  BD                 [705] (86)
3A94  01                 [706] (89)
3A95  00                 [707] (89)
3A96  00                 [708] (89)
3A97  BD                 [709] (89)
3A98  01                 [710] (89)
3A99  00                 [711] (89)
3A9A  00                 [712] (90)
3A9B  BD                 [713] (90)
3A9C  01                 [714] (90)
3A9D  00                 [715] (90)
3A9E  00                 [716] (90)
3A9F  BD                 [717] (90)
3AA0  01                 [718] (90)
3AA1  00                 [719] (91)
3AA2  00                 [720] (91)
3AA3  BE                 [721] (91)
3AA4  01                 [722] (91)
3AA5  00                 [723] (91)
3AA6  00                 [724] (91)
3AA7  BE                 [725] (94)
3AA8  01                 [726] (94)
3AA9  00                 [727] (94)
3AAA  00                 [728] (96)
3AAB  BE                 [729] (96)
3AAC  01                 [730] (96)
3AAD  00                 [731] (96)
3AAE  00                 [732] (96)
3AAF  C1                 [733] (96)
3AB0  01                 [734] (97)
3AB1  00                 [735] (97)
3AB2  00                 [736] (102)
3AB3  C1                 [737] (102)
3AB4  01                 [738] (102)
3AB5  00                 [739] (102)
3AB6  00                 [740] (102)
3AB7  C2                 [741] (102)
3AB8  01                 [742] (102)
3AB9  00                 [743] (104)
3ABA  00                 [744] (104)
3ABB  C2                 [745] (104)
3ABC  01                 [746] (104)
3ABD  00                 [747] (104)
3ABE  00                 [748] (105)
3ABF  C2                 [749] (105)
3AC0  01                 [750] (107)
                         * locals:
438B  00                 sizelocvars (0)
                         * upvalues:
438C  00                 sizeupvalues (0)
                         ** end of function **

                         
438D                     ** function [15] definition (level 2)
                         ** start of function **
438D  00                 string size (0)
                         source name: (none)
438F  04                 line defined (621)
4390  F9                 last line defined (633)
4391  04                 nups (0)
4392  00                 numparams (2)
4393  02                 is_vararg (0)
4394  00                 maxstacksize (15)
                         * code:
4396  1F                 sizecode (31)
4397  9D000000           [01] getglobal  2   0        ; 248503575
439B  DD400000           [02] getglobal  3   1        ; _T
439F  CE80C001           [03] gettable   3   3   258  ; "voltShield"
43A3  A2000101           [04] call       2   2   4  
43A7  1A800580           [05] jmp        23           ; to [29]
43AB  DDC10000           [06] getglobal  7   3        ; 1672515847
43AF  12020003           [07] move       8   6      
43B3  E2010101           [08] call       7   2   4  
43B7  1A000480           [09] jmp        17           ; to [27]
43BB  0E03C105           [10] gettable   12  11  260  ; "holder"
fail op	35
43BF  23400006           [11] close      0  
43C3  1A400180           [12] jmp        6            ; to [19]
43C7  2443C100           [13] self       12  1   261  ; -1917464545
43CB  22830001           [14] call       12  2   2  
43CF  24834106           [15] self       12  12  262  ; -1895507148
43D3  9DC30100           [16] getglobal  14  7        ; Engine
43D7  8E034207           [17] gettable   14  14  264  ; "SLOT_2"
43DB  22438001           [18] call       12  3   1  
43DF  1D430200           [19] getglobal  12  9        ; 1074689893
43E3  4E83C205           [20] gettable   13  11  266  ; "shield"
43E7  22830001           [21] call       12  2   2  
43EB  18430000           [22] test       12      1    ; to [24] if false
43EF  1A800080           [23] jmp        3            ; to [27]
43F3  0E83C205           [24] gettable   12  11  266  ; "shield"
43F7  24C34206           [25] self       12  12  267  ; -725453761
43FB  22430001           [26] call       12  2   1  
43FF  D6810000           [27] tforloop   7       2    ; to [29] if exit
4403  1A00FB7F           [28] jmp        -19          ; to [10]
4407  96800000           [29] tforloop   2       2    ; to [31] if exit
440B  1A80F97F           [30] jmp        -25          ; to [6]
440F  1E008000           [31] return     0   1      
                         * constants:
4413  0C                 sizek (12)
4414  01                 const type 3
4415  17DDCF0E           const [0]: (248503575)
4419  04                 const type 4
441A  03                 string size (3)
441B  5F5400             "_T\0"
                         const [1]: "_T"
441E  04                 const type 4
441F  0B                 string size (11)
4420  766F6C7453686965+  "voltShie"
4428  6C6400             "ld\0"
                         const [2]: "voltShield"
442B  01                 const type 3
442C  0791B063           const [3]: (1672515847)
4430  04                 const type 4
4431  07                 string size (7)
4432  686F6C64657200     "holder\0"
                         const [4]: "holder"
4439  01                 const type 3
443A  1FD0B58D           const [5]: (-1917464545)
443E  01                 const type 3
443F  34DB048F           const [6]: (-1895507148)
4443  04                 const type 4
4444  07                 string size (7)
4445  456E67696E6500     "Engine\0"
                         const [7]: "Engine"
444C  04                 const type 4
444D  07                 string size (7)
444E  534C4F545F3200     "SLOT_2\0"
                         const [8]: "SLOT_2"
4455  01                 const type 3
4456  65770E40           const [9]: (1074689893)
445A  04                 const type 4
445B  07                 string size (7)
445C  736869656C6400     "shield\0"
                         const [10]: "shield"
4463  01                 const type 3
4464  3F74C2D4           const [11]: (-725453761)
                         * functions:
4468  00                 sizep (0)
                         * lines:
4469  1F                 sizelineinfo (31)
                         [pc] (line)
446A  6E                 [01] (110)
446B  02                 [02] (110)
446C  00                 [03] (110)
446D  00                 [04] (110)
446E  6E                 [05] (110)
446F  02                 [06] (111)
4470  00                 [07] (111)
4471  00                 [08] (111)
4472  6E                 [09] (111)
4473  02                 [10] (112)
4474  00                 [11] (112)
4475  00                 [12] (112)
4476  6E                 [13] (113)
4477  02                 [14] (113)
4478  00                 [15] (113)
4479  00                 [16] (113)
447A  6E                 [17] (113)
447B  02                 [18] (113)
447C  00                 [19] (116)
447D  00                 [20] (116)
447E  6F                 [21] (116)
447F  02                 [22] (116)
4480  00                 [23] (116)
4481  00                 [24] (117)
4482  6F                 [25] (117)
4483  02                 [26] (117)
4484  00                 [27] (111)
4485  00                 [28] (118)
4486  6F                 [29] (110)
4487  02                 [30] (119)
4488  00                 [31] (121)
                         * locals:
44E6  00                 sizelocvars (0)
                         * upvalues:
44E7  00                 sizeupvalues (0)
                         ** end of function **

                         
44E8                     ** function [16] definition (level 2)
                         ** start of function **
44E8  00                 string size (0)
                         source name: (none)
44EA  04                 line defined (638)
44EB  C5                 last line defined (709)
44EC  05                 nups (1)
44ED  01                 numparams (2)
44EE  02                 is_vararg (0)
44EF  00                 maxstacksize (37)
                         * code:
44F2  01                 sizecode (170)
44F3  A4004000           [001] self       2   0   256  ; 1722612532
44F7  A2800001           [002] call       2   2   2  
fail op	33
44FB  21404001           [003] tforloop   0       257  ; to [5] if exit
44FF  1A000080           [004] jmp        1            ; to [6]
4503  1E008000           [005] return     0   1      
4507  A4804000           [006] self       2   0   258  ; -1538682285
450B  A2800001           [007] call       2   2   2  
450F  E4C04001           [008] self       3   2   259  ; -605089866
4513  E2800001           [009] call       3   2   2  
4517  1D010100           [010] getglobal  4   4        ; 1074689893
451B  5D410100           [011] getglobal  5   5        ; _T
451F  4E81C102           [012] gettable   5   5   262  ; "voltShield"
4523  22810001           [013] call       4   2   2  
4527  18410000           [014] test       4       1    ; to [16] if false
452B  1A400280           [015] jmp        10           ; to [26]
452F  1D010100           [016] getglobal  4   4        ; 1074689893
4533  5D410100           [017] getglobal  5   5        ; _T
4537  4E81C102           [018] gettable   5   5   262  ; "voltShield"
453B  4EC18002           [019] gettable   5   5   3  
453F  22810001           [020] call       4   2   2  
4543  18410000           [021] test       4       1    ; to [23] if false
4547  1A800080           [022] jmp        3            ; to [26]
fail op	35
454B  23C0C100           [023] close      0  
454F  1A000080           [024] jmp        1            ; to [26]
4553  1E008000           [025] return     0   1      
4557  24014201           [026] self       4   2   264  ; 634817106
455B  22810001           [027] call       4   2   2  
455F  64414202           [028] self       5   4   265  ; 2089383273
4563  62810001           [029] call       5   2   2  
4567  9D010100           [030] getglobal  6   4        ; 1074689893
456B  D2018002           [031] move       7   5      
456F  A2810001           [032] call       6   2   2  
4573  98410000           [033] test       6       1    ; to [35] if false
4577  1A400180           [034] jmp        6            ; to [41]
457B  A481C202           [035] self       6   5   266  ; -491574171
457F  A2810001           [036] call       6   2   2  
4583  DDC10200           [037] getglobal  7   11       ; actionType
fail op	35
4587  63C00103           [038] close      1  
458B  1A000080           [039] jmp        1            ; to [41]
458F  1E008000           [040] return     0   1      
4593  9D010300           [041] getglobal  6   12       ; 248503575
4597  DD410100           [042] getglobal  7   5        ; _T
459B  CE81C103           [043] gettable   7   7   262  ; "voltShield"
459F  A2010101           [044] call       6   2   4  
45A3  1A400C80           [045] jmp        50           ; to [96]
45A7  DD420300           [046] getglobal  11  13       ; 1672515847
45AB  12030005           [047] move       12  10     
45AF  E2020101           [048] call       11  2   4  
45B3  1AC00A80           [049] jmp        44           ; to [94]
45B7  1D040100           [050] getglobal  16  4        ; 1074689893
45BB  4E84C307           [051] gettable   17  15  270  ; "shield"
45BF  22840001           [052] call       16  2   2  
45C3  18440000           [053] test       16      1    ; to [55] if false
45C7  1A800980           [054] jmp        39           ; to [94]
45CB  0EC4C307           [055] gettable   16  15  271  ; "holder"
fail op	35
45CF  23800008           [056] close      0  
45D3  1AC00880           [057] jmp        36           ; to [94]
45D7  0E84C307           [058] gettable   16  15  270  ; "shield"
45DB  24044408           [059] self       16  16  272  ; 129677183
45DF  22840001           [060] call       16  2   2  
45E3  5D040100           [061] getglobal  17  4        ; 1074689893
45E7  92040008           [062] move       18  16     
45EB  62840001           [063] call       17  2   2  
45EF  58040000           [064] test       17      0    ; to [66] if true
45F3  1A000080           [065] jmp        1            ; to [67]
45F7  1A000780           [066] jmp        29           ; to [96]
45FB  64444408           [067] self       17  16  273  ; -1917464545
45FF  62840001           [068] call       17  2   2  
4603  6484C408           [069] self       17  17  274  ; 1769516121
4607  62840001           [070] call       17  2   2  
460B  9D040100           [071] getglobal  18  4        ; 1074689893
460F  D2048008           [072] move       19  17     
4613  A2840001           [073] call       18  2   2  
4617  98040000           [074] test       18      0    ; to [76] if true
461B  1A000080           [075] jmp        1            ; to [77]
461F  1A800480           [076] jmp        19           ; to [96]
4623  9DC40400           [077] getglobal  18  19       ; Lotus_Game
4627  8E044509           [078] gettable   18  18  276  ; 1305134297
462B  D7048000           [079] loadbool   19  1   0    ; true
462F  A2840001           [080] call       18  2   2  
4633  E4444509           [081] self       19  18  277  ; -1705141593
4637  52050001           [082] move       21  2      
463B  E2448001           [083] call       19  3   1  
463F  E484C508           [084] self       19  17  278  ; -721628113
4643  64C5C508           [085] self       21  17  279  ; -363477704
4647  D3050000           [086] getupval   23  0      
464B  62858001           [087] call       21  3   2  
464F  9D050600           [088] getglobal  22  24       ; -332969190
4653  D9450600           [089] loadk      23  25       ; "DropShield"
4657  A2850001           [090] call       22  2   2  
465B  D2050009           [091] move       23  18     
465F  E2448002           [092] call       19  5   1  
4663  1E008000           [093] return     0   1      
4667  D6820000           [094] tforloop   11      2    ; to [96] if exit
466B  1A40F47F           [095] jmp        -46          ; to [50]
466F  96810000           [096] tforloop   6       2    ; to [98] if exit
4673  1AC0F27F           [097] jmp        -52          ; to [46]
4677  DD040300           [098] getglobal  19  12       ; 248503575
467B  1D450100           [099] getglobal  20  5        ; _T
467F  0E85410A           [100] gettable   20  20  262  ; "voltShield"
4683  E2040101           [101] call       19  2   4  
4687  1A001080           [102] jmp        65           ; to [168]
468B  1D460300           [103] getglobal  24  13       ; 1672515847
468F  5206800B           [104] move       25  23     
4693  22060101           [105] call       24  2   4  
4697  1A800E80           [106] jmp        59           ; to [166]
469B  5D070100           [107] getglobal  29  4        ; 1074689893
469F  8E87430E           [108] gettable   30  28  270  ; "shield"
46A3  62870001           [109] call       29  2   2  
46A7  58470000           [110] test       29      1    ; to [112] if false
46AB  1A400D80           [111] jmp        54           ; to [166]
46AF  5D070100           [112] getglobal  29  4        ; 1074689893
46B3  8E87460E           [113] gettable   30  28  282  ; "action"
46B7  62870001           [114] call       29  2   2  
46BB  58470000           [115] test       29      1    ; to [117] if false
46BF  1A000C80           [116] jmp        49           ; to [166]
46C3  4E87460E           [117] gettable   29  28  282  ; "action"
46C7  64C7C60E           [118] self       29  29  283  ; -1318948062
46CB  62870001           [119] call       29  2   2  
46CF  58070000           [120] test       29      0    ; to [122] if true
46D3  1AC00A80           [121] jmp        44           ; to [166]
46D7  64074702           [122] self       29  4   284  ; -55716224
46DB  CE87460E           [123] gettable   31  28  282  ; "action"
46DF  62878001           [124] call       29  3   2  
46E3  58070000           [125] test       29      0    ; to [127] if true
46E7  1A800980           [126] jmp        39           ; to [166]
46EB  4E87430E           [127] gettable   29  28  270  ; "shield"
46EF  6407C40E           [128] self       29  29  272  ; 129677183
46F3  62870001           [129] call       29  2   2  
46F7  9D070100           [130] getglobal  30  4        ; 1074689893
46FB  D207800E           [131] move       31  29     
46FF  A2870001           [132] call       30  2   2  
4703  98070000           [133] test       30      0    ; to [135] if true
4707  1A000080           [134] jmp        1            ; to [136]
470B  1AC00780           [135] jmp        32           ; to [168]
470F  A447C40E           [136] self       30  29  273  ; -1917464545
4713  A2870001           [137] call       30  2   2  
4717  A487440F           [138] self       30  30  274  ; 1769516121
471B  A2870001           [139] call       30  2   2  
471F  DD070100           [140] getglobal  31  4        ; 1074689893
4723  1208000F           [141] move       32  30     
4727  E2870001           [142] call       31  2   2  
472B  D8070000           [143] test       31      0    ; to [145] if true
472F  1A000080           [144] jmp        1            ; to [146]
4733  1A400580           [145] jmp        22           ; to [168]
4737  DDC70400           [146] getglobal  31  19       ; Lotus_Game
473B  CE07C50F           [147] gettable   31  31  276  ; 1305134297
473F  17088000           [148] loadbool   32  1   0    ; true
4743  E2870001           [149] call       31  2   2  
4747  2448C50F           [150] self       32  31  277  ; -1705141593
474B  92080001           [151] move       34  2      
474F  22488001           [152] call       32  3   1  
4753  2448C70F           [153] self       32  31  285  ; 1255461283
4757  8E88470E           [154] gettable   34  28  286  ; "instance"
475B  22488001           [155] call       32  3   1  
475F  2488450F           [156] self       32  30  278  ; -721628113
4763  A4C8450F           [157] self       34  30  279  ; -363477704
4767  13090000           [158] getupval   36  0      
476B  A2888001           [159] call       34  3   2  
476F  DD080600           [160] getglobal  35  24       ; -332969190
4773  19C90700           [161] loadk      36  31       ; "PickupShield"
4777  E2880001           [162] call       35  2   2  
477B  1209800F           [163] move       36  31     
477F  22488002           [164] call       32  5   1  
4783  1E008000           [165] return     0   1      
4787  16860000           [166] tforloop   24      2    ; to [168] if exit
478B  1A80F07F           [167] jmp        -61          ; to [107]
478F  D6840000           [168] tforloop   19      2    ; to [170] if exit
4793  1A00EF7F           [169] jmp        -67          ; to [103]
4797  1E008000           [170] return     0   1      
                         * constants:
479B  20                 sizek (32)
479C  01                 const type 3
479D  34FBAC66           const [0]: (1722612532)
47A1  03                 const type 3
47A2  00000000           const [1]: (0)
47A6  01                 const type 3
47A7  539249A4           const [2]: (-1538682285)
47AB  01                 const type 3
47AC  B60FEFDB           const [3]: (-605089866)
47B0  01                 const type 3
47B1  65770E40           const [4]: (1074689893)
47B5  04                 const type 4
47B6  03                 string size (3)
47B7  5F5400             "_T\0"
                         const [5]: "_T"
47BA  04                 const type 4
47BB  0B                 string size (11)
47BC  766F6C7453686965+  "voltShie"
47C4  6C6400             "ld\0"
                         const [6]: "voltShield"
47C7  00                 const type 0
                         const [7]: nil
47C8  01                 const type 3
47C9  528AD625           const [8]: (634817106)
47CD  01                 const type 3
47CE  6975897C           const [9]: (2089383273)
47D2  01                 const type 3
47D3  652CB3E2           const [10]: (-491574171)
47D7  04                 const type 4
47D8  0B                 string size (11)
47D9  616374696F6E5479+  "actionTy"
47E1  706500             "pe\0"
                         const [11]: "actionType"
47E4  01                 const type 3
47E5  17DDCF0E           const [12]: (248503575)
47E9  01                 const type 3
47EA  0791B063           const [13]: (1672515847)
47EE  04                 const type 4
47EF  07                 string size (7)
47F0  736869656C6400     "shield\0"
                         const [14]: "shield"
47F7  04                 const type 4
47F8  07                 string size (7)
47F9  686F6C64657200     "holder\0"
                         const [15]: "holder"
4800  01                 const type 3
4801  7FB7BA07           const [16]: (129677183)
4805  01                 const type 3
4806  1FD0B58D           const [17]: (-1917464545)
480A  01                 const type 3
480B  59AC7869           const [18]: (1769516121)
480F  04                 const type 4
4810  0B                 string size (11)
4811  4C6F7475735F4761+  "Lotus_Ga"
4819  6D6500             "me\0"
                         const [19]: "Lotus_Game"
481C  01                 const type 3
481D  D9C4CA4D           const [20]: (1305134297)
4821  01                 const type 3
4822  A79A5D9A           const [21]: (-1705141593)
4826  01                 const type 3
4827  2FD4FCD4           const [22]: (-721628113)
482B  01                 const type 3
482C  38C555EA           const [23]: (-363477704)
4830  01                 const type 3
4831  1A4B27EC           const [24]: (-332969190)
4835  04                 const type 4
4836  0B                 string size (11)
4837  44726F7053686965+  "DropShie"
483F  6C6400             "ld\0"
                         const [25]: "DropShield"
4842  04                 const type 4
4843  07                 string size (7)
4844  616374696F6E00     "action\0"
                         const [26]: "action"
484B  01                 const type 3
484C  227362B1           const [27]: (-1318948062)
4850  01                 const type 3
4851  80D6ADFC           const [28]: (-55716224)
4855  01                 const type 3
4856  A3D1D44A           const [29]: (1255461283)
485A  04                 const type 4
485B  09                 string size (9)
485C  696E7374616E6365+  "instance"
4864  00                 "\0"
                         const [30]: "instance"
4865  04                 const type 4
4866  0D                 string size (13)
4867  5069636B75705368+  "PickupSh"
486F  69656C6400         "ield\0"
                         const [31]: "PickupShield"
                         * functions:
4874  00                 sizep (0)
                         * lines:
4876  01                 sizelineinfo (170)
                         [pc] (line)
4877  7F                 [001] (127)
4878  02                 [002] (127)
4879  00                 [003] (127)
487A  00                 [004] (127)
487B  7F                 [005] (-128)
487C  02                 [006] (-125)
487D  00                 [007] (-125)
487E  00                 [008] (-124)
487F  7F                 [009] (-124)
4880  02                 [010] (-122)
4881  00                 [011] (-122)
4882  00                 [012] (-122)
4883  7F                 [013] (-122)
4884  02                 [014] (-122)
4885  00                 [015] (-122)
4886  00                 [016] (-122)
4887  80                 [017] (-122)
4888  02                 [018] (-122)
4889  00                 [019] (-122)
488A  00                 [020] (-122)
488B  83                 [021] (-122)
488C  02                 [022] (-122)
488D  00                 [023] (-122)
488E  00                 [024] (-122)
488F  83                 [025] (-120)
4890  02                 [026] (-117)
4891  00                 [027] (-117)
4892  00                 [028] (-116)
4893  84                 [029] (-116)
4894  02                 [030] (-115)
4895  00                 [031] (-115)
4896  00                 [032] (-115)
4897  84                 [033] (-115)
4898  02                 [034] (-115)
4899  00                 [035] (-115)
489A  00                 [036] (-115)
489B  86                 [037] (-115)
489C  02                 [038] (-115)
489D  00                 [039] (-115)
489E  00                 [040] (-113)
489F  86                 [041] (-109)
48A0  02                 [042] (-109)
48A1  00                 [043] (-109)
48A2  00                 [044] (-109)
48A3  86                 [045] (-109)
48A4  02                 [046] (-108)
48A5  00                 [047] (-108)
48A6  00                 [048] (-108)
48A7  86                 [049] (-108)
48A8  02                 [050] (-107)
48A9  00                 [051] (-107)
48AA  00                 [052] (-107)
48AB  86                 [053] (-107)
48AC  02                 [054] (-107)
48AD  00                 [055] (-107)
48AE  00                 [056] (-107)
48AF  86                 [057] (-107)
48B0  02                 [058] (-106)
48B1  00                 [059] (-106)
48B2  00                 [060] (-106)
48B3  86                 [061] (-105)
48B4  02                 [062] (-105)
48B5  00                 [063] (-105)
48B6  00                 [064] (-105)
48B7  86                 [065] (-105)
48B8  02                 [066] (-104)
48B9  00                 [067] (-101)
48BA  00                 [068] (-101)
48BB  86                 [069] (-101)
48BC  02                 [070] (-101)
48BD  00                 [071] (-100)
48BE  00                 [072] (-100)
48BF  86                 [073] (-100)
48C0  02                 [074] (-100)
48C1  00                 [075] (-100)
48C2  00                 [076] (-99)
48C3  86                 [077] (-96)
48C4  02                 [078] (-96)
48C5  00                 [079] (-96)
48C6  00                 [080] (-96)
48C7  86                 [081] (-95)
48C8  02                 [082] (-95)
48C9  00                 [083] (-95)
48CA  00                 [084] (-94)
48CB  86                 [085] (-94)
48CC  02                 [086] (-94)
48CD  00                 [087] (-94)
48CE  00                 [088] (-94)
48CF  86                 [089] (-94)
48D0  02                 [090] (-94)
48D1  00                 [091] (-94)
48D2  00                 [092] (-94)
48D3  86                 [093] (-92)
48D4  02                 [094] (-108)
48D5  00                 [095] (-91)
48D6  00                 [096] (-109)
48D7  88                 [097] (-90)
48D8  02                 [098] (-86)
48D9  00                 [099] (-86)
48DA  00                 [100] (-86)
48DB  8B                 [101] (-86)
48DC  02                 [102] (-86)
48DD  00                 [103] (-85)
48DE  00                 [104] (-85)
48DF  8B                 [105] (-85)
48E0  02                 [106] (-85)
48E1  00                 [107] (-83)
48E2  00                 [108] (-83)
48E3  8C                 [109] (-83)
48E4  02                 [110] (-83)
48E5  00                 [111] (-83)
48E6  00                 [112] (-82)
48E7  8C                 [113] (-82)
48E8  02                 [114] (-82)
48E9  00                 [115] (-82)
48EA  00                 [116] (-82)
48EB  8D                 [117] (-81)
48EC  02                 [118] (-81)
48ED  00                 [119] (-81)
48EE  00                 [120] (-81)
48EF  8D                 [121] (-81)
48F0  02                 [122] (-80)
48F1  00                 [123] (-80)
48F2  00                 [124] (-80)
48F3  8D                 [125] (-80)
48F4  02                 [126] (-80)
48F5  00                 [127] (-78)
48F6  00                 [128] (-78)
48F7  8D                 [129] (-78)
48F8  02                 [130] (-77)
48F9  00                 [131] (-77)
48FA  00                 [132] (-77)
48FB  8D                 [133] (-77)
48FC  02                 [134] (-77)
48FD  00                 [135] (-76)
48FE  00                 [136] (-73)
48FF  8D                 [137] (-73)
4900  02                 [138] (-73)
4901  00                 [139] (-73)
4902  00                 [140] (-72)
4903  8D                 [141] (-72)
4904  02                 [142] (-72)
4905  00                 [143] (-72)
4906  00                 [144] (-72)
4907  8D                 [145] (-71)
4908  02                 [146] (-68)
4909  00                 [147] (-68)
490A  00                 [148] (-68)
490B  8D                 [149] (-68)
490C  02                 [150] (-67)
490D  00                 [151] (-67)
490E  00                 [152] (-67)
490F  8D                 [153] (-66)
4910  02                 [154] (-66)
4911  00                 [155] (-66)
4912  00                 [156] (-65)
4913  8F                 [157] (-65)
4914  02                 [158] (-65)
4915  00                 [159] (-65)
4916  00                 [160] (-65)
4917  93                 [161] (-65)
4918  02                 [162] (-65)
4919  00                 [163] (-65)
491A  00                 [164] (-65)
491B  93                 [165] (-63)
491C  02                 [166] (-85)
491D  00                 [167] (-62)
491E  00                 [168] (-86)
491F  93                 [169] (-61)
4920  02                 [170] (-59)
                         * locals:
4B1F  00                 sizelocvars (0)
                         * upvalues:
4B20  00                 sizeupvalues (0)
                         ** end of function **

                         
4B21                     ** function [17] definition (level 2)
                         ** start of function **
4B21  00                 string size (0)
                         source name: (none)
4B23  05                 line defined (711)
4B24  D5                 last line defined (725)
4B25  05                 nups (0)
4B26  00                 numparams (1)
4B27  01                 is_vararg (0)
4B28  00                 maxstacksize (17)
                         * code:
4B2A  23                 sizecode (35)
4B2B  5D000000           [01] getglobal  1   0        ; 1074689893
4B2F  92000000           [02] move       2   0      
4B33  62800001           [03] call       1   2   2  
4B37  58400000           [04] test       1       1    ; to [6] if false
4B3B  1AC00080           [05] jmp        4            ; to [10]
4B3F  64404000           [06] self       1   0   257  ; 1511086594
4B43  62800001           [07] call       1   2   2  
4B47  58000000           [08] test       1       0    ; to [10] if true
4B4B  1A000080           [09] jmp        1            ; to [11]
4B4F  1E008000           [10] return     0   1      
4B53  5D800000           [11] getglobal  1   2        ; 248503575
4B57  9DC00000           [12] getglobal  2   3        ; _T
4B5B  8E004101           [13] gettable   2   2   260  ; "voltShield"
4B5F  62000101           [14] call       1   2   4  
4B63  1A000480           [15] jmp        17           ; to [33]
4B67  9D410100           [16] getglobal  6   5        ; 1672515847
4B6B  D2018002           [17] move       7   5      
4B6F  A2010101           [18] call       6   2   4  
4B73  1A800280           [19] jmp        11           ; to [31]
4B77  CE824105           [20] gettable   11  10  262  ; "holder"
fail op	35
4B7B  23008005           [21] close      0  
4B7F  1AC00180           [22] jmp        8            ; to [31]
4B83  E4C24100           [23] self       11  0   263  ; 630793108
4B87  5D030200           [24] getglobal  13  8        ; dropSound
4B8B  97030000           [25] loadbool   14  0   0    ; false
4B8F  D9430200           [26] loadk      15  9        ; 0
4B93  17040000           [27] loadbool   16  0   0    ; false
4B97  E2420003           [28] call       11  6   1  
4B9B  8C824283           [29] settable   10  262 266  ; "holder" nil
4B9F  1E008000           [30] return     0   1      
4BA3  96810000           [31] tforloop   6       2    ; to [33] if exit
4BA7  1A80FC7F           [32] jmp        -13          ; to [20]
4BAB  56800000           [33] tforloop   1       2    ; to [35] if exit
4BAF  1A00FB7F           [34] jmp        -19          ; to [16]
4BB3  1E008000           [35] return     0   1      
                         * constants:
4BB7  0B                 sizek (11)
4BB8  01                 const type 3
4BB9  65770E40           const [0]: (1074689893)
4BBD  01                 const type 3
4BBE  025A115A           const [1]: (1511086594)
4BC2  01                 const type 3
4BC3  17DDCF0E           const [2]: (248503575)
4BC7  04                 const type 4
4BC8  03                 string size (3)
4BC9  5F5400             "_T\0"
                         const [3]: "_T"
4BCC  04                 const type 4
4BCD  0B                 string size (11)
4BCE  766F6C7453686965+  "voltShie"
4BD6  6C6400             "ld\0"
                         const [4]: "voltShield"
4BD9  01                 const type 3
4BDA  0791B063           const [5]: (1672515847)
4BDE  04                 const type 4
4BDF  07                 string size (7)
4BE0  686F6C64657200     "holder\0"
                         const [6]: "holder"
4BE7  01                 const type 3
4BE8  94239925           const [7]: (630793108)
4BEC  04                 const type 4
4BED  0A                 string size (10)
4BEE  64726F70536F756E+  "dropSoun"
4BF6  6400               "d\0"
                         const [8]: "dropSound"
4BF8  03                 const type 3
4BF9  00000000           const [9]: (0)
4BFD  00                 const type 0
                         const [10]: nil
                         * functions:
4BFE  00                 sizep (0)
                         * lines:
4BFF  23                 sizelineinfo (35)
                         [pc] (line)
4C00  C8                 [01] (-56)
4C01  02                 [02] (-56)
4C02  00                 [03] (-56)
4C03  00                 [04] (-56)
4C04  C8                 [05] (-56)
4C05  02                 [06] (-56)
4C06  00                 [07] (-56)
4C07  00                 [08] (-56)
4C08  C8                 [09] (-56)
4C09  02                 [10] (-55)
4C0A  00                 [11] (-52)
4C0B  00                 [12] (-52)
4C0C  C8                 [13] (-52)
4C0D  02                 [14] (-52)
4C0E  00                 [15] (-52)
4C0F  00                 [16] (-51)
4C10  C8                 [17] (-51)
4C11  02                 [18] (-51)
4C12  00                 [19] (-51)
4C13  00                 [20] (-50)
4C14  C8                 [21] (-50)
4C15  02                 [22] (-50)
4C16  00                 [23] (-49)
4C17  00                 [24] (-49)
4C18  C8                 [25] (-49)
4C19  02                 [26] (-49)
4C1A  00                 [27] (-49)
4C1B  00                 [28] (-49)
4C1C  C8                 [29] (-48)
4C1D  02                 [30] (-47)
4C1E  00                 [31] (-51)
4C1F  00                 [32] (-46)
4C20  C8                 [33] (-52)
4C21  02                 [34] (-45)
4C22  00                 [35] (-43)
                         * locals:
4C8C  00                 sizelocvars (0)
                         * upvalues:
4C8D  00                 sizeupvalues (0)
                         ** end of function **

                         
4C8E                     ** function [18] definition (level 2)
                         ** start of function **
4C8E  00                 string size (0)
                         source name: (none)
4C90  05                 line defined (727)
4C91  D9                 last line defined (729)
4C92  05                 nups (1)
4C93  01                 numparams (3)
4C94  03                 is_vararg (0)
4C95  00                 maxstacksize (5)
                         * code:
4C97  04                 sizecode (4)
4C98  D3000000           [1] getupval   3   0      
4C9C  12010001           [2] move       4   2      
4CA0  E2400001           [3] call       3   2   1  
4CA4  1E008000           [4] return     0   1      
                         * constants:
4CA8  00                 sizek (0)
                         * functions:
4CA9  00                 sizep (0)
                         * lines:
4CAA  04                 sizelineinfo (4)
                         [pc] (line)
4CAB  D8                 [1] (-40)
4CAC  02                 [2] (-40)
4CAD  00                 [3] (-40)
4CAE  00                 [4] (-39)
                         * locals:
4CBB  00                 sizelocvars (0)
                         * upvalues:
4CBC  00                 sizeupvalues (0)
                         ** end of function **

                         
4CBD                     ** function [19] definition (level 2)
                         ** start of function **
4CBD  00                 string size (0)
                         source name: (none)
4CBF  05                 line defined (732)
4CC0  B8                 last line defined (952)
4CC1  07                 nups (7)
4CC2  07                 numparams (1)
4CC3  01                 is_vararg (0)
4CC4  00                 maxstacksize (37)
                         * code:
4CC7  04                 sizecode (556)
4CC8  64004000           [001] self       1   0   256  ; -605089866
4CCC  62800001           [002] call       1   2   2  
4CD0  A4404000           [003] self       2   0   257  ; -1917464545
4CD4  A2800001           [004] call       2   2   2  
4CD8  E4804001           [005] self       3   2   258  ; 1769516121
4CDC  E2800001           [006] call       3   2   2  
4CE0  13010000           [007] getupval   4   0      
4CE4  0EC14002           [008] gettable   4   4   259  ; "shield"
4CE8  64014102           [009] self       5   4   260  ; 1786666898
4CEC  E4414102           [010] self       7   4   261  ; -323635054
4CF0  E2810001           [011] call       7   2   2  
4CF4  13028000           [012] getupval   8   1      
4CF8  C4018203           [013] mul        7   7   8  
4CFC  17028000           [014] loadbool   8   1   0    ; true
4D00  62410002           [015] call       5   4   1  
4D04  64814102           [016] self       5   4   262  ; -1625438872
4D08  DDC10100           [017] getglobal  7   7        ; gLotusHitProxyShieldType
4D0C  62818001           [018] call       5   3   2  
4D10  9D010200           [019] getglobal  6   8        ; 1074689893
4D14  D2018002           [020] move       7   5      
4D18  A2810001           [021] call       6   2   2  
4D1C  98410000           [022] test       6       1    ; to [24] if false
4D20  1A800180           [023] jmp        7            ; to [31]
4D24  A401C102           [024] self       6   5   260  ; 1786666898
4D28  2442C102           [025] self       8   5   261  ; -323635054
4D2C  22820001           [026] call       8   2   2  
4D30  53028000           [027] getupval   9   1      
4D34  04420204           [028] mul        8   8   9  
4D38  57028000           [029] loadbool   9   1   0    ; true
4D3C  A2410002           [030] call       6   4   1  
4D40  93010000           [031] getupval   6   0      
4D44  8E414203           [032] gettable   6   6   265  ; "action"
4D48  D7010000           [033] loadbool   7   0   0    ; false
4D4C  1D020200           [034] getglobal  8   8        ; 1074689893
4D50  52020003           [035] move       9   6      
4D54  22820001           [036] call       8   2   2  
4D58  18420000           [037] test       8       1    ; to [39] if false
4D5C  1A800380           [038] jmp        15           ; to [54]
4D60  24824203           [039] self       8   6   266  ; 521073972
4D64  22420001           [040] call       8   2   1  
4D68  24C24203           [041] self       8   6   267  ; 766584623
4D6C  22420001           [042] call       8   2   1  
4D70  24824103           [043] self       8   6   262  ; -1625438872
4D74  9D020300           [044] getglobal  10  12       ; augmentOneAttachEffect
4D78  22828001           [045] call       8   3   2  
4D7C  5D020200           [046] getglobal  9   8        ; 1074689893
4D80  92020004           [047] move       10  8      
4D84  62820001           [048] call       9   2   2  
4D88  58420000           [049] test       9       1    ; to [51] if false
4D8C  1A800080           [050] jmp        3            ; to [54]
4D90  D7018000           [051] loadbool   7   1   0    ; true
4D94  64424304           [052] self       9   8   269  ; -725453761
4D98  62420001           [053] call       9   2   1  
4D9C  46028004           [054] loadnil    9   9      
4DA0  A4824102           [055] self       10  4   262  ; -1625438872
4DA4  1D830300           [056] getglobal  12  14       ; gElementType
4DA8  A2828001           [057] call       10  3   2  
4DAC  DD020200           [058] getglobal  11  8        ; 1074689893
4DB0  12030005           [059] move       12  10     
4DB4  E2820001           [060] call       11  2   2  
4DB8  D8420000           [061] test       11      1    ; to [63] if false
4DBC  1AC00B80           [062] jmp        48           ; to [111]
4DC0  E4C24305           [063] self       11  10  271  ; 184547030
4DC4  64034405           [064] self       13  10  272  ; 301945578
4DC8  62830001           [065] call       13  2   2  
4DCC  93038000           [066] getupval   14  1      
4DD0  44838306           [067] mul        13  13  14 
4DD4  E2428001           [068] call       11  3   1  
4DD8  E4824205           [069] self       11  10  266  ; 521073972
4DDC  E2420001           [070] call       11  2   1  
4DE0  E4424402           [071] self       11  4   273  ; -1421644046
4DE4  5D830400           [072] getglobal  13  18       ; knockdownTriggerType
4DE8  9DC30400           [073] getglobal  14  19       ; EMPTY_SYMBOL
4DEC  DD030500           [074] getglobal  15  20       ; ZERO_VECTOR
4DF0  1D440500           [075] getglobal  16  21       ; ZERO_ROTATION
4DF4  52040000           [076] move       17  0      
4DF8  E2828003           [077] call       11  7   2  
4DFC  52028005           [078] move       9   11     
4E00  DD020200           [079] getglobal  11  8        ; 1074689893
4E04  12038004           [080] move       12  9      
4E08  E2820001           [081] call       11  2   2  
4E0C  D8420000           [082] test       11      1    ; to [84] if false
4E10  1A800680           [083] jmp        27           ; to [111]
4E14  E482C504           [084] self       11  9   278  ; -484330307
4E18  52030000           [085] move       13  0      
4E1C  E2428001           [086] call       11  3   1  
4E20  E4C2C504           [087] self       11  9   279  ; -2049256907
4E24  52038001           [088] move       13  3      
4E28  E2428001           [089] call       11  3   1  
4E2C  E402C604           [090] self       11  9   280  ; -1484030041
4E30  64434605           [091] self       13  10  281  ; 917683095
4E34  62830001           [092] call       13  2   2  
4E38  9D830600           [093] getglobal  14  26       ; 572299008
4E3C  D9C30600           [094] loadk      15  27       ; 0
4E40  19C40600           [095] loadk      16  27       ; 0
4E44  59040700           [096] loadk      17  28       ; 0
4E48  A2830002           [097] call       14  4   2  
4E4C  43838306           [098] add        13  13  14 
4E50  9D430500           [099] getglobal  14  21       ; ZERO_ROTATION
4E54  E2420002           [100] call       11  4   1  
4E58  E4C2C304           [101] self       11  9   271  ; 184547030
4E5C  64034405           [102] self       13  10  272  ; 301945578
4E60  62830001           [103] call       13  2   2  
4E64  9D830600           [104] getglobal  14  26       ; 572299008
4E68  D9C30600           [105] loadk      15  27       ; 0
4E6C  19C40600           [106] loadk      16  27       ; 0
4E70  59440700           [107] loadk      17  29       ; 0
4E74  A2830002           [108] call       14  4   2  
4E78  43838306           [109] add        13  13  14 
4E7C  E2428001           [110] call       11  3   1  
4E80  D3020000           [111] getupval   11  0      
4E84  CC02008F           [112] settable   11  286 0    ; "holder"
4E88  E4C24700           [113] self       11  0   287  ; 630793108
4E8C  5D030800           [114] getglobal  13  32       ; pickupSound
4E90  97030000           [115] loadbool   14  0   0    ; false
4E94  D9C30600           [116] loadk      15  27       ; 0
4E98  17040000           [117] loadbool   16  0   0    ; false
4E9C  E2420003           [118] call       11  6   1  
4EA0  E4424802           [119] self       11  4   289  ; 129677183
4EA4  E2820001           [120] call       11  2   2  
fail op	35
4EA8  63008005           [121] close      1  
4EAC  1A000080           [122] jmp        1            ; to [124]
4EB0  17430000           [123] loadbool   12  0   1    ; false, to [125]
4EB4  17038000           [124] loadbool   12  1   0    ; true
4EB8  53030001           [125] getupval   13  2      
4EBC  9D830800           [126] getglobal  14  34       ; mOwner
4EC0  A4C34807           [127] self       14  14  291  ; 1250786858
4EC4  A2030001           [128] call       14  2   0  
4EC8  62430000           [129] call       13  0   1  
4ECC  6403C901           [130] self       13  3   292  ; -309972691
4ED0  D3038001           [131] getupval   15  3      
4ED4  62838001           [132] call       13  3   2  
4ED8  A443C901           [133] self       14  3   293  ; 1441359513
4EDC  13040002           [134] getupval   16  4      
4EE0  A2838001           [135] call       14  3   2  
4EE4  DD830900           [136] getglobal  15  38       ; gRegion
4EE8  E4C3C907           [137] self       15  15  295  ; -1520831144
4EEC  E2830001           [138] call       15  2   2  
4EF0  D8030000           [139] test       15      0    ; to [141] if true
4EF4  1A800680           [140] jmp        27           ; to [168]
4EF8  E4034A01           [141] self       15  2   296  ; -1572901801
4EFC  5D440A00           [142] getglobal  17  41       ; Engine
4F00  4E84CA08           [143] gettable   17  17  298  ; "SLOT_2"
4F04  E2438001           [144] call       15  3   1  
4F08  E4C34A01           [145] self       15  2   299  ; 991629753
4F0C  5D040B00           [146] getglobal  17  44       ; Game
4F10  4E44CB08           [147] gettable   17  17  301  ; "AVATAR_MOVEMENT_SPEED"
4F14  9D040B00           [148] getglobal  18  44       ; Game
4F18  8E844B09           [149] gettable   18  18  302  ; "MULTIPLY"
4F1C  D3048002           [150] getupval   19  5      
4F20  E2438002           [151] call       15  5   1  
4F24  E4C34A01           [152] self       15  2   299  ; 991629753
4F28  5D040B00           [153] getglobal  17  44       ; Game
4F2C  4EC4CB08           [154] gettable   17  17  303  ; "AVATAR_PARKOUR_BOOST"
4F30  9D040B00           [155] getglobal  18  44       ; Game
4F34  8E844B09           [156] gettable   18  18  302  ; "MULTIPLY"
4F38  D3048002           [157] getupval   19  5      
4F3C  E2438002           [158] call       15  5   1  
4F40  18030000           [159] test       12      0    ; to [161] if true
4F44  1A800180           [160] jmp        7            ; to [168]
4F48  E4C34A01           [161] self       15  2   299  ; 991629753
4F4C  5D040B00           [162] getglobal  17  44       ; Game
4F50  4E04CC08           [163] gettable   17  17  304  ; "AVATAR_POWER_RATE"
4F54  9D040B00           [164] getglobal  18  44       ; Game
4F58  8E444C09           [165] gettable   18  18  305  ; "ADD"
fail op	0
4F5C  C0048006           [166] move       19  13     
4F60  E2438002           [167] call       15  5   1  
4F64  D3030003           [168] getupval   15  6      
4F68  CE83CC07           [169] gettable   15  15  306  ; -559949506
4F6C  12040000           [170] move       16  0      
4F70  57048000           [171] loadbool   17  1   0    ; true
4F74  E2438001           [172] call       15  3   1  
4F78  DDC30C00           [173] getglobal  15  51       ; -332969190
4F7C  19040D00           [174] loadk      16  52       ; "ForceDropShield"
4F80  E2830001           [175] call       15  2   2  
4F84  18030000           [176] test       12      0    ; to [178] if true
4F88  1A400180           [177] jmp        6            ; to [184]
4F8C  1D840800           [178] getglobal  16  34       ; mOwner
4F90  24444D08           [179] self       16  16  309  ; -722806278
4F94  92048007           [180] move       18  15     
4F98  D7048000           [181] loadbool   19  1   0    ; true
4F9C  22440002           [182] call       16  4   1  
4FA0  1AC00680           [183] jmp        28           ; to [212]
4FA4  2484CD01           [184] self       16  3   310  ; -1254670509
4FA8  9D840800           [185] getglobal  18  34       ; mOwner
4FAC  D2048007           [186] move       19  15     
4FB0  22440002           [187] call       16  4   1  
4FB4  1DC40D00           [188] getglobal  16  55       ; _T
4FB8  0E044E08           [189] gettable   16  16  312  ; "voltShieldAugment"
fail op	35
4FBC  23404E08           [190] close      0  
4FC0  1A800080           [191] jmp        3            ; to [195]
4FC4  1DC40D00           [192] getglobal  16  55       ; _T
4FC8  4B040000           [193] newtable   17  0   0    ; array=0, hash=0
4FCC  0C44049C           [194] settable   16  312 17   ; "voltShieldAugment"
4FD0  1DC40D00           [195] getglobal  16  55       ; _T
4FD4  0E044E08           [196] gettable   16  16  312  ; "voltShieldAugment"
4FD8  0E440008           [197] gettable   16  16  1  
fail op	35
4FDC  23404E08           [198] close      0  
4FE0  1AC00180           [199] jmp        8            ; to [208]
4FE4  1DC40D00           [200] getglobal  16  55       ; _T
4FE8  0E044E08           [201] gettable   16  16  312  ; "voltShieldAugment"
4FEC  4B840000           [202] newtable   17  0   2    ; array=0, hash=2
4FF0  8B040000           [203] newtable   18  0   0    ; array=0, hash=0
4FF4  4C84049D           [204] settable   17  314 18   ; "triggers"
4FF8  4C04CF9D           [205] settable   17  315 316  ; "holding" 1
4FFC  0C448400           [206] settable   16  1   17 
5000  1AC00080           [207] jmp        4            ; to [212]
5004  1DC40D00           [208] getglobal  16  55       ; _T
5008  0E044E08           [209] gettable   16  16  312  ; "voltShieldAugment"
500C  0E440008           [210] gettable   16  16  1  
5010  0C04CF9D           [211] settable   16  315 316  ; "holding" 1
5014  1D840600           [212] getglobal  16  26       ; 572299008
5018  59C40600           [213] loadk      17  27       ; 0
501C  99440F00           [214] loadk      18  61       ; -51
5020  D9C40600           [215] loadk      19  27       ; 0
5024  22840002           [216] call       16  4   2  
5028  5D840600           [217] getglobal  17  26       ; 572299008
502C  99C40600           [218] loadk      18  27       ; 0
5030  D9C40600           [219] loadk      19  27       ; 0
5034  19450700           [220] loadk      20  29       ; 0
5038  62840002           [221] call       17  4   2  
503C  A4844F00           [222] self       18  0   318  ; 1839670529
5040  A2840001           [223] call       18  2   2  
5044  DD840800           [224] getglobal  19  34       ; mOwner
5048  E4C4CF09           [225] self       19  19  319  ; 1126846059
504C  E2840001           [226] call       19  2   2  
5050  24055000           [227] self       20  0   320  ; 1292478819
5054  22850001           [228] call       20  2   2  
5058  57050000           [229] loadbool   21  0   0    ; false
505C  A4455002           [230] self       22  4   321  ; -231049143
5060  A2850001           [231] call       22  2   2  
5064  8CC550A1           [232] settable   22  322 323  ; "bank" 0
5068  E4055102           [233] self       23  4   324  ; 1352138124
506C  5206000B           [234] move       25  22     
5070  E2458001           [235] call       23  3   1  
5074  DD050200           [236] getglobal  23  8        ; 1074689893
5078  12060002           [237] move       24  4      
507C  E2850001           [238] call       23  2   2  
5080  D8450000           [239] test       23      1    ; to [241] if false
5084  1A802480           [240] jmp        147          ; to [388]
5088  DD050200           [241] getglobal  23  8        ; 1074689893
508C  12060000           [242] move       24  0      
5090  E2850001           [243] call       23  2   2  
5094  D8450000           [244] test       23      1    ; to [246] if false
5098  1A402380           [245] jmp        142          ; to [388]
509C  E4455100           [246] self       23  0   325  ; 1511086594
50A0  E2850001           [247] call       23  2   2  
50A4  D8450000           [248] test       23      1    ; to [250] if false
50A8  1A402280           [249] jmp        138          ; to [388]
50AC  E4855100           [250] self       23  0   326  ; -1519595333
50B0  E2850001           [251] call       23  2   2  
50B4  D8450000           [252] test       23      1    ; to [254] if false
50B8  1A402180           [253] jmp        134          ; to [388]
50BC  DD050200           [254] getglobal  23  8        ; 1074689893
50C0  12068001           [255] move       24  3      
50C4  E2850001           [256] call       23  2   2  
50C8  D8450000           [257] test       23      1    ; to [259] if false
50CC  1A002080           [258] jmp        129          ; to [388]
50D0  E4C5D101           [259] self       23  3   327  ; 1722612532
50D4  E2850001           [260] call       23  2   2  
fail op	21
50D8  15C0858D           [261] concat     0   283 23 
50DC  1A001F80           [262] jmp        125          ; to [388]
50E0  E405D201           [263] self       23  3   328  ; -394710263
50E4  52068009           [264] move       25  19     
50E8  E2858001           [265] call       23  3   2  
50EC  D8450000           [266] test       23      1    ; to [268] if false
50F0  1AC01D80           [267] jmp        120          ; to [388]
50F4  D3050000           [268] getupval   23  0      
50F8  CE85C70B           [269] gettable   23  23  286  ; "holder"
fail op	35
50FC  2300800B           [270] close      0  
5100  1AC01C80           [271] jmp        116          ; to [388]
5104  E4455200           [272] self       23  0   329  ; 2129303884
5108  E2850001           [273] call       23  2   2  
510C  CCC550A1           [274] settable   23  322 323  ; "bank" 0
5110  24865200           [275] self       24  0   330  ; -717859730
5114  22860001           [276] call       24  2   2  
5118  18460000           [277] test       24      1    ; to [279] if false
511C  1A800280           [278] jmp        11           ; to [290]
5120  1DC61200           [279] getglobal  24  75       ; 1289681407
5124  22868000           [280] call       24  1   2  
5128  0406530C           [281] mul        24  24  332  ; 0
512C  64465002           [282] self       25  4   321  ; -231049143
5130  62860001           [283] call       25  2   2  
5134  9D461300           [284] getglobal  26  77       ; -617282374
5138  D206800C           [285] move       27  25     
513C  1207800B           [286] move       28  23     
5140  5207000C           [287] move       29  24     
5144  A2860002           [288] call       26  4   2  
5148  D205000D           [289] move       23  26     
514C  A4865302           [290] self       26  4   334  ; -333955620
5150  24C75300           [291] self       28  0   335  ; 196800914
5154  22870001           [292] call       28  2   2  
5158  0307040E           [293] add        28  28  16 
515C  5D071400           [294] getglobal  29  80       ; 1287559689
5160  92078008           [295] move       30  17     
5164  D207800B           [296] move       31  23     
5168  62878001           [297] call       29  3   2  
516C  0347070E           [298] add        28  28  29 
5170  A2468001           [299] call       26  3   1  
5174  A4065102           [300] self       26  4   324  ; 1352138124
5178  1207800B           [301] move       28  23     
517C  A2468001           [302] call       26  3   1  
5180  A4864F00           [303] self       26  0   318  ; 1839670529
5184  A2860001           [304] call       26  2   2  
5188  DD060200           [305] getglobal  27  8        ; 1074689893
518C  1207000A           [306] move       28  20     
5190  E2860001           [307] call       27  2   2  
5194  D8460000           [308] test       27      1    ; to [310] if false
5198  1A400180           [309] jmp        6            ; to [316]
519C  E446540A           [310] self       27  20  337  ; 690968826
51A0  E2860001           [311] call       27  2   2  
51A4  D8060000           [312] test       27      0    ; to [314] if true
51A8  1A400080           [313] jmp        2            ; to [316]
51AC  CE86540D           [314] gettable   27  26  338  ; "y"
51B0  8CC406A9           [315] settable   18  338 27   ; "y"
51B4  18030000           [316] test       12      0    ; to [318] if true
51B8  1A800380           [317] jmp        15           ; to [333]
51BC  DDC61400           [318] getglobal  27  83       ; -1331746705
51C0  1207000D           [319] move       28  26     
51C4  52070009           [320] move       29  18     
51C8  E2868001           [321] call       27  3   2  
51CC  C486830D           [322] mul        27  27  14 
fail op	21
51D0  15C0868D           [323] concat     0   283 27 
51D4  1AC00180           [324] jmp        8            ; to [333]
51D8  2407D501           [325] self       28  3   340  ; -338878752
fail op	0
51DC  8007800D           [326] move       30  27     
51E0  22478001           [327] call       28  3   1  
51E4  24C7D101           [328] self       28  3   327  ; 1722612532
51E8  22870001           [329] call       28  2   2  
fail op	33
51EC  21C0460E           [330] tforloop   0       283  ; to [332] if exit
51F0  1A000080           [331] jmp        1            ; to [333]
51F4  1A800D80           [332] jmp        55           ; to [388]
51F8  9204000D           [333] move       18  26     
51FC  1D070200           [334] getglobal  28  8        ; 1074689893
5200  52078004           [335] move       29  9      
5204  22870001           [336] call       28  2   2  
5208  18470000           [337] test       28      1    ; to [339] if false
520C  1AC00580           [338] jmp        24           ; to [363]
5210  24475500           [339] self       28  0   341  ; -49551937
5214  22870001           [340] call       28  2   2  
5218  5D470A00           [341] getglobal  29  41       ; Engine
521C  4E87D50E           [342] gettable   29  29  342  ; "RUN"
fail op	35
5220  2340070E           [343] close      0  
5224  1AC00280           [344] jmp        12           ; to [357]
5228  24C75500           [345] self       28  0   343  ; -679039139
522C  22870001           [346] call       28  2   2  
5230  5D070500           [347] getglobal  29  20       ; ZERO_VECTOR
fail op	35
5234  6340070E           [348] close      1  
5238  1A800180           [349] jmp        7            ; to [357]
523C  2407D604           [350] self       28  9   344  ; -1318948062
5240  22870001           [351] call       28  2   2  
5244  18470000           [352] test       28      1    ; to [354] if false
5248  1A000280           [353] jmp        9            ; to [363]
524C  2447D604           [354] self       28  9   345  ; -974578778
5250  22470001           [355] call       28  2   1  
5254  1A400180           [356] jmp        6            ; to [363]
5258  2407D604           [357] self       28  9   344  ; -1318948062
525C  22870001           [358] call       28  2   2  
5260  18070000           [359] test       28      0    ; to [361] if true
5264  1A400080           [360] jmp        2            ; to [363]
5268  24C7C204           [361] self       28  9   267  ; 766584623
526C  22470001           [362] call       28  2   1  
5270  24875601           [363] self       28  2   346  ; 731035688
5274  9D470A00           [364] getglobal  30  41       ; Engine
5278  8EC7560F           [365] gettable   30  30  347  ; "MAIN_HAND"
527C  22878001           [366] call       28  3   2  
5280  58450000           [367] test       21      1    ; to [369] if false
5284  1A400280           [368] jmp        10           ; to [379]
5288  5D470A00           [369] getglobal  29  41       ; Engine
528C  4E87CA0E           [370] gettable   29  29  298  ; "SLOT_2"
fail op	35
5290  6340070E           [371] close      1  
5294  1A800280           [372] jmp        11           ; to [384]
5298  64075701           [373] self       29  2   348  ; -1895507148
529C  DD470A00           [374] getglobal  31  41       ; Engine
52A0  CE87CA0F           [375] gettable   31  31  298  ; "SLOT_2"
52A4  62478001           [376] call       29  3   1  
52A8  57058000           [377] loadbool   21  1   0    ; true
52AC  1A000180           [378] jmp        5            ; to [384]
52B0  5D470A00           [379] getglobal  29  41       ; Engine
52B4  4E87CA0E           [380] gettable   29  29  298  ; "SLOT_2"
fail op	35
52B8  2340070E           [381] close      0  
52BC  1A000080           [382] jmp        1            ; to [384]
52C0  1AC00080           [383] jmp        4            ; to [388]
52C4  5D471700           [384] getglobal  29  93       ; 538022378
52C8  99C70600           [385] loadk      30  27       ; 0
52CC  62470001           [386] call       29  2   1  
52D0  1AC0D97F           [387] jmp        -152         ; to [236]
52D4  5D870900           [388] getglobal  29  38       ; gRegion
52D8  64C7C90E           [389] self       29  29  295  ; -1520831144
52DC  62870001           [390] call       29  2   2  
52E0  58070000           [391] test       29      0    ; to [393] if true
52E4  1A800680           [392] jmp        27           ; to [420]
52E8  64875701           [393] self       29  2   350  ; -233482841
52EC  DD070B00           [394] getglobal  31  44       ; Game
52F0  CE47CB0F           [395] gettable   31  31  301  ; "AVATAR_MOVEMENT_SPEED"
52F4  1D080B00           [396] getglobal  32  44       ; Game
52F8  0E884B10           [397] gettable   32  32  302  ; "MULTIPLY"
52FC  53088002           [398] getupval   33  5      
5300  62478002           [399] call       29  5   1  
5304  64875701           [400] self       29  2   350  ; -233482841
5308  DD070B00           [401] getglobal  31  44       ; Game
530C  CEC7CB0F           [402] gettable   31  31  303  ; "AVATAR_PARKOUR_BOOST"
5310  1D080B00           [403] getglobal  32  44       ; Game
5314  0E884B10           [404] gettable   32  32  302  ; "MULTIPLY"
5318  53088002           [405] getupval   33  5      
531C  62478002           [406] call       29  5   1  
5320  18030000           [407] test       12      0    ; to [409] if true
5324  1A800180           [408] jmp        7            ; to [416]
5328  64875701           [409] self       29  2   350  ; -233482841
532C  DD070B00           [410] getglobal  31  44       ; Game
5330  CE07CC0F           [411] gettable   31  31  304  ; "AVATAR_POWER_RATE"
5334  1D080B00           [412] getglobal  32  44       ; Game
5338  0E484C10           [413] gettable   32  32  305  ; "ADD"
fail op	0
533C  40088006           [414] move       33  13     
5340  62478002           [415] call       29  5   1  
5344  64075701           [416] self       29  2   348  ; -1895507148
5348  DD470A00           [417] getglobal  31  41       ; Engine
534C  CE87CA0F           [418] gettable   31  31  298  ; "SLOT_2"
5350  62478001           [419] call       29  3   1  
5354  53070003           [420] getupval   29  6      
5358  4E87CC0E           [421] gettable   29  29  306  ; -559949506
535C  92070000           [422] move       30  0      
5360  D7070000           [423] loadbool   31  0   0    ; false
5364  62478001           [424] call       29  3   1  
5368  18030000           [425] test       12      0    ; to [427] if true
536C  1A800280           [426] jmp        11           ; to [438]
5370  5D070200           [427] getglobal  29  8        ; 1074689893
5374  9D870800           [428] getglobal  30  34       ; mOwner
5378  62870001           [429] call       29  2   2  
537C  58470000           [430] test       29      1    ; to [432] if false
5380  1A400C80           [431] jmp        50           ; to [482]
5384  5D870800           [432] getglobal  29  34       ; mOwner
5388  6447CD0E           [433] self       29  29  309  ; -722806278
538C  D2078007           [434] move       31  15     
5390  17080000           [435] loadbool   32  0   0    ; false
5394  62470002           [436] call       29  4   1  
5398  1AC00A80           [437] jmp        44           ; to [482]
539C  5D070200           [438] getglobal  29  8        ; 1074689893
53A0  92078001           [439] move       30  3      
53A4  62870001           [440] call       29  2   2  
53A8  58470000           [441] test       29      1    ; to [443] if false
53AC  1A800080           [442] jmp        3            ; to [446]
53B0  64C7D701           [443] self       29  3   351  ; 954588140
53B4  D2078007           [444] move       31  15     
53B8  62478001           [445] call       29  3   1  
53BC  5DC70D00           [446] getglobal  29  55       ; _T
53C0  4E07CE0E           [447] gettable   29  29  312  ; "voltShieldAugment"
fail op	35
53C4  6340CE0E           [448] close      1  
53C8  1AC00780           [449] jmp        32           ; to [482]
53CC  5DC70D00           [450] getglobal  29  55       ; _T
53D0  4E07CE0E           [451] gettable   29  29  312  ; "voltShieldAugment"
53D4  4E47800E           [452] gettable   29  29  1  
fail op	35
53D8  6340CE0E           [453] close      1  
53DC  1A800480           [454] jmp        19           ; to [474]
53E0  5DC70D00           [455] getglobal  29  55       ; _T
53E4  4E07CE0E           [456] gettable   29  29  312  ; "voltShieldAugment"
53E8  4E47800E           [457] gettable   29  29  1  
53EC  4C07D89D           [458] settable   29  315 352  ; "holding" 0
53F0  5DC70D00           [459] getglobal  29  55       ; _T
53F4  4E07CE0E           [460] gettable   29  29  312  ; "voltShieldAugment"
53F8  4E47800E           [461] gettable   29  29  1  
53FC  4E87CE0E           [462] gettable   29  29  314  ; "triggers"
5400  4A07800E           [463] len        29  29     
fail op	35
5404  23C0C60E           [464] close      0  
5408  1AC00180           [465] jmp        8            ; to [474]
540C  5DC70D00           [466] getglobal  29  55       ; _T
5410  4E07CE0E           [467] gettable   29  29  312  ; "voltShieldAugment"
5414  4C47CE00           [468] settable   29  1   313  ; nil
5418  6447D801           [469] self       29  3   353  ; -1665949819
541C  DDC70C00           [470] getglobal  31  51       ; -332969190
5420  19881800           [471] loadk      32  98       ; "TryPickup"
5424  E2070001           [472] call       31  2   0  
5428  62470000           [473] call       29  0   1  
542C  5DC71800           [474] getglobal  29  99       ; -1442191459
5430  9DC70D00           [475] getglobal  30  55       ; _T
5434  8E074E0F           [476] gettable   30  30  312  ; "voltShieldAugment"
5438  62870001           [477] call       29  2   2  
fail op	35
543C  2340CE0E           [478] close      0  
5440  1A400080           [479] jmp        2            ; to [482]
5444  5DC70D00           [480] getglobal  29  55       ; _T
5448  4C474E9C           [481] settable   29  312 313  ; "voltShieldAugment" nil
544C  5D070200           [482] getglobal  29  8        ; 1074689893
5450  92070005           [483] move       30  10     
5454  62870001           [484] call       29  2   2  
5458  58470000           [485] test       29      1    ; to [487] if false
545C  1A400180           [486] jmp        6            ; to [493]
5460  64C74305           [487] self       29  10  271  ; 184547030
5464  E4074405           [488] self       31  10  272  ; 301945578
5468  E2870001           [489] call       31  2   2  
546C  13088000           [490] getupval   32  1      
5470  DC07880F           [491] div        31  31  32 
5474  62478001           [492] call       29  3   1  
5478  5D070200           [493] getglobal  29  8        ; 1074689893
547C  92078002           [494] move       30  5      
5480  62870001           [495] call       29  2   2  
5484  58470000           [496] test       29      1    ; to [498] if false
5488  1A800180           [497] jmp        7            ; to [505]
548C  6407C102           [498] self       29  5   260  ; 1786666898
5490  E447C102           [499] self       31  5   261  ; -323635054
5494  E2870001           [500] call       31  2   2  
5498  13088000           [501] getupval   32  1      
549C  DC07880F           [502] div        31  31  32 
54A0  17088000           [503] loadbool   32  1   0    ; true
54A4  62470002           [504] call       29  4   1  
54A8  5D070200           [505] getglobal  29  8        ; 1074689893
54AC  92070002           [506] move       30  4      
54B0  62870001           [507] call       29  2   2  
54B4  58470000           [508] test       29      1    ; to [510] if false
54B8  1AC00280           [509] jmp        12           ; to [522]
54BC  64475002           [510] self       29  4   321  ; -231049143
54C0  62870001           [511] call       29  2   2  
54C4  4CC746A1           [512] settable   29  322 283  ; "bank" 0
54C8  A4075102           [513] self       30  4   324  ; 1352138124
54CC  1208800E           [514] move       32  29     
54D0  A2478001           [515] call       30  3   1  
54D4  A4074102           [516] self       30  4   260  ; 1786666898
54D8  24484102           [517] self       32  4   261  ; -323635054
54DC  22880001           [518] call       32  2   2  
54E0  53088000           [519] getupval   33  1      
54E4  1C480810           [520] div        32  32  33 
54E8  A2478001           [521] call       30  3   1  
54EC  9D070200           [522] getglobal  30  8        ; 1074689893
54F0  D2078004           [523] move       31  9      
54F4  A2870001           [524] call       30  2   2  
54F8  98470000           [525] test       30      1    ; to [527] if false
54FC  1A400080           [526] jmp        2            ; to [529]
5500  A447C304           [527] self       30  9   269  ; -725453761
5504  A2470001           [528] call       30  2   1  
5508  9D070200           [529] getglobal  30  8        ; 1074689893
550C  D2070003           [530] move       31  6      
5510  A2870001           [531] call       30  2   2  
5514  98470000           [532] test       30      1    ; to [534] if false
5518  1A000380           [533] jmp        13           ; to [547]
551C  A4475603           [534] self       30  6   345  ; -974578778
5520  A2470001           [535] call       30  2   1  
5524  A4075903           [536] self       30  6   356  ; -1029684434
5528  A2470001           [537] call       30  2   1  
552C  D8010000           [538] test       7       0    ; to [540] if true
5530  1A800180           [539] jmp        7            ; to [547]
5534  A4474403           [540] self       30  6   273  ; -1421644046
5538  1D080300           [541] getglobal  32  12       ; augmentOneAttachEffect
553C  5DC80400           [542] getglobal  33  19       ; EMPTY_SYMBOL
5540  9D080500           [543] getglobal  34  20       ; ZERO_VECTOR
5544  DD480500           [544] getglobal  35  21       ; ZERO_ROTATION
5548  12098001           [545] move       36  3      
554C  A2478003           [546] call       30  7   1  
5550  9D070200           [547] getglobal  30  8        ; 1074689893
5554  D2070005           [548] move       31  10     
5558  A2870001           [549] call       30  2   2  
555C  98470000           [550] test       30      1    ; to [552] if false
5560  1A400080           [551] jmp        2            ; to [554]
5564  A4075905           [552] self       30  10  356  ; -1029684434
5568  A2470001           [553] call       30  2   1  
556C  93070000           [554] getupval   30  0      
5570  8C474E8F           [555] settable   30  286 313  ; "holder" nil
5574  1E008000           [556] return     0   1      
                         * constants:
5578  65                 sizek (101)
5579  01                 const type 3
557A  B60FEFDB           const [0]: (-605089866)
557E  01                 const type 3
557F  1FD0B58D           const [1]: (-1917464545)
5583  01                 const type 3
5584  59AC7869           const [2]: (1769516121)
5588  04                 const type 4
5589  07                 string size (7)
558A  736869656C6400     "shield\0"
                         const [3]: "shield"
5591  01                 const type 3
5592  925F7E6A           const [4]: (1786666898)
5596  01                 const type 3
5597  92B8B5EC           const [5]: (-323635054)
559B  01                 const type 3
559C  68C51D9F           const [6]: (-1625438872)
55A0  04                 const type 4
55A1  19                 string size (25)
55A2  674C6F7475734869+  "gLotusHi"
55AA  7450726F78795368+  "tProxySh"
55B2  69656C6454797065+  "ieldType"
55BA  00                 "\0"
                         const [7]: "gLotusHitProxyShieldType"
55BB  01                 const type 3
55BC  65770E40           const [8]: (1074689893)
55C0  04                 const type 4
55C1  07                 string size (7)
55C2  616374696F6E00     "action\0"
                         const [9]: "action"
55C9  01                 const type 3
55CA  34F50E1F           const [10]: (521073972)
55CE  01                 const type 3
55CF  2F27B12D           const [11]: (766584623)
55D3  04                 const type 4
55D4  17                 string size (23)
55D5  6175676D656E744F+  "augmentO"
55DD  6E65417474616368+  "neAttach"
55E5  45666665637400     "Effect\0"
                         const [12]: "augmentOneAttachEffect"
55EC  01                 const type 3
55ED  3F74C2D4           const [13]: (-725453761)
55F1  04                 const type 4
55F2  0D                 string size (13)
55F3  67456C656D656E74+  "gElement"
55FB  5479706500         "Type\0"
                         const [14]: "gElementType"
5600  01                 const type 3
5601  D6F6FF0A           const [15]: (184547030)
5605  01                 const type 3
5606  EA52FF11           const [16]: (301945578)
560A  01                 const type 3
560B  F26E43AB           const [17]: (-1421644046)
560F  04                 const type 4
5610  15                 string size (21)
5611  6B6E6F636B646F77+  "knockdow"
5619  6E54726967676572+  "nTrigger"
5621  5479706500         "Type\0"
                         const [18]: "knockdownTriggerType"
5626  04                 const type 4
5627  0D                 string size (13)
5628  454D5054595F5359+  "EMPTY_SY"
5630  4D424F4C00         "MBOL\0"
                         const [19]: "EMPTY_SYMBOL"
5635  04                 const type 4
5636  0C                 string size (12)
5637  5A45524F5F564543+  "ZERO_VEC"
563F  544F5200           "TOR\0"
                         const [20]: "ZERO_VECTOR"
5643  04                 const type 4
5644  0E                 string size (14)
5645  5A45524F5F524F54+  "ZERO_ROT"
564D  4154494F4E00       "ATION\0"
                         const [21]: "ZERO_ROTATION"
5653  01                 const type 3
5654  BDB421E3           const [22]: (-484330307)
5658  01                 const type 3
5659  35D2DA85           const [23]: (-2049256907)
565D  01                 const type 3
565E  A77F8BA7           const [24]: (-1484030041)
5662  01                 const type 3
5663  97BBB236           const [25]: (917683095)
5667  01                 const type 3
5668  00971C22           const [26]: (572299008)
566C  03                 const type 3
566D  00000000           const [27]: (0)
5671  03                 const type 3
5672  0000003F           const [28]: (0)
5676  03                 const type 3
5677  0000803F           const [29]: (0)
567B  04                 const type 4
567C  07                 string size (7)
567D  686F6C64657200     "holder\0"
                         const [30]: "holder"
5684  01                 const type 3
5685  94239925           const [31]: (630793108)
5689  04                 const type 4
568A  0C                 string size (12)
568B  7069636B7570536F+  "pickupSo"
5693  756E6400           "und\0"
                         const [32]: "pickupSound"
5697  01                 const type 3
5698  7FB7BA07           const [33]: (129677183)
569C  04                 const type 4
569D  07                 string size (7)
569E  6D4F776E657200     "mOwner\0"
                         const [34]: "mOwner"
56A5  01                 const type 3
56A6  2A7E8D4A           const [35]: (1250786858)
56AA  01                 const type 3
56AB  2D3186ED           const [36]: (-309972691)
56AF  01                 const type 3
56B0  9966E955           const [37]: (1441359513)
56B4  04                 const type 4
56B5  08                 string size (8)
56B6  67526567696F6E00   "gRegion\0"
                         const [38]: "gRegion"
56BE  01                 const type 3
56BF  58F559A5           const [39]: (-1520831144)
56C3  01                 const type 3
56C4  576C3FA2           const [40]: (-1572901801)
56C8  04                 const type 4
56C9  07                 string size (7)
56CA  456E67696E6500     "Engine\0"
                         const [41]: "Engine"
56D1  04                 const type 4
56D2  07                 string size (7)
56D3  534C4F545F3200     "SLOT_2\0"
                         const [42]: "SLOT_2"
56DA  01                 const type 3
56DB  B9111B3B           const [43]: (991629753)
56DF  04                 const type 4
56E0  05                 string size (5)
56E1  47616D6500         "Game\0"
                         const [44]: "Game"
56E6  04                 const type 4
56E7  16                 string size (22)
56E8  4156415441525F4D+  "AVATAR_M"
56F0  4F56454D454E545F+  "OVEMENT_"
56F8  535045454400       "SPEED\0"
                         const [45]: "AVATAR_MOVEMENT_SPEED"
56FE  04                 const type 4
56FF  09                 string size (9)
5700  4D554C5449504C59+  "MULTIPLY"
5708  00                 "\0"
                         const [46]: "MULTIPLY"
5709  04                 const type 4
570A  15                 string size (21)
570B  4156415441525F50+  "AVATAR_P"
5713  41524B4F55525F42+  "ARKOUR_B"
571B  4F4F535400         "OOST\0"
                         const [47]: "AVATAR_PARKOUR_BOOST"
5720  04                 const type 4
5721  12                 string size (18)
5722  4156415441525F50+  "AVATAR_P"
572A  4F5745525F524154+  "OWER_RAT"
5732  4500               "E\0"
                         const [48]: "AVATAR_POWER_RATE"
5734  04                 const type 4
5735  04                 string size (4)
5736  41444400           "ADD\0"
                         const [49]: "ADD"
573A  01                 const type 3
573B  3ED99FDE           const [50]: (-559949506)
573F  01                 const type 3
5740  1A4B27EC           const [51]: (-332969190)
5744  04                 const type 4
5745  10                 string size (16)
5746  466F72636544726F+  "ForceDro"
574E  70536869656C6400   "pShield\0"
                         const [52]: "ForceDropShield"
5756  01                 const type 3
5757  FAD9EAD4           const [53]: (-722806278)
575B  01                 const type 3
575C  533F37B5           const [54]: (-1254670509)
5760  04                 const type 4
5761  03                 string size (3)
5762  5F5400             "_T\0"
                         const [55]: "_T"
5765  04                 const type 4
5766  12                 string size (18)
5767  766F6C7453686965+  "voltShie"
576F  6C644175676D656E+  "ldAugmen"
5777  7400               "t\0"
                         const [56]: "voltShieldAugment"
5779  00                 const type 0
                         const [57]: nil
577A  04                 const type 4
577B  09                 string size (9)
577C  7472696767657273+  "triggers"
5784  00                 "\0"
                         const [58]: "triggers"
5785  04                 const type 4
5786  08                 string size (8)
5787  686F6C64696E6700   "holding\0"
                         const [59]: "holding"
578F  01                 const type 3
5790  01000000           const [60]: (1)
5794  03                 const type 3
5795  CDCC8C3F           const [61]: (-51)
5799  01                 const type 3
579A  0125A76D           const [62]: (1839670529)
579E  01                 const type 3
579F  6B4E2A43           const [63]: (1126846059)
57A3  01                 const type 3
57A4  63A9094D           const [64]: (1292478819)
57A8  01                 const type 3
57A9  49783AF2           const [65]: (-231049143)
57AD  04                 const type 4
57AE  05                 string size (5)
57AF  62616E6B00         "bank\0"
                         const [66]: "bank"
57B4  03                 const type 3
57B5  0000B442           const [67]: (0)
57B9  01                 const type 3
57BA  8CFD9750           const [68]: (1352138124)
57BE  01                 const type 3
57BF  025A115A           const [69]: (1511086594)
57C3  01                 const type 3
57C4  BBD06CA5           const [70]: (-1519595333)
57C8  01                 const type 3
57C9  34FBAC66           const [71]: (1722612532)
57CD  01                 const type 3
57CE  093379E8           const [72]: (-394710263)
57D2  01                 const type 3
57D3  4C99EA7E           const [73]: (2129303884)
57D7  01                 const type 3
57D8  6E5436D5           const [74]: (-717859730)
57DC  01                 const type 3
57DD  FFF9DE4C           const [75]: (1289681407)
57E1  03                 const type 3
57E2  00000041           const [76]: (0)
57E6  01                 const type 3
57E7  BA0435DB           const [77]: (-617282374)
57EB  01                 const type 3
57EC  DC3D18EC           const [78]: (-333955620)
57F0  01                 const type 3
57F1  92F1BA0B           const [79]: (196800914)
57F5  01                 const type 3
57F6  099ABE4C           const [80]: (1287559689)
57FA  01                 const type 3
57FB  FA582F29           const [81]: (690968826)
57FF  04                 const type 4
5800  02                 string size (2)
5801  7900               "y\0"
                         const [82]: "y"
5803  01                 const type 3
5804  6F289FB0           const [83]: (-1331746705)
5808  01                 const type 3
5809  E01ECDEB           const [84]: (-338878752)
580D  01                 const type 3
580E  BFE50BFD           const [85]: (-49551937)
5812  04                 const type 4
5813  04                 string size (4)
5814  52554E00           "RUN\0"
                         const [86]: "RUN"
5818  01                 const type 3
5819  5DAF86D7           const [87]: (-679039139)
581D  01                 const type 3
581E  227362B1           const [88]: (-1318948062)
5822  01                 const type 3
5823  A61BE9C5           const [89]: (-974578778)
5827  01                 const type 3
5828  28B8922B           const [90]: (731035688)
582C  04                 const type 4
582D  0A                 string size (10)
582E  4D41494E5F48414E+  "MAIN_HAN"
5836  4400               "D\0"
                         const [91]: "MAIN_HAND"
5838  01                 const type 3
5839  34DB048F           const [92]: (-1895507148)
583D  01                 const type 3
583E  EA911120           const [93]: (538022378)
5842  01                 const type 3
5843  A75515F2           const [94]: (-233482841)
5847  01                 const type 3
5848  ECDBE538           const [95]: (954588140)
584C  01                 const type 3
584D  00000000           const [96]: (0)
5851  01                 const type 3
5852  859FB39C           const [97]: (-1665949819)
5856  04                 const type 4
5857  0A                 string size (10)
5858  5472795069636B75+  "TryPicku"
5860  7000               "p\0"
                         const [98]: "TryPickup"
5862  01                 const type 3
5863  9DE709AA           const [99]: (-1442191459)
5867  01                 const type 3
5868  2E43A0C2           const [100]: (-1029684434)
                         * functions:
586C  00                 sizep (0)
                         * lines:
586E  04                 sizelineinfo (556)
                         [pc] (line)
586F  DD                 [001] (-35)
5870  02                 [002] (-35)
5871  00                 [003] (-34)
5872  00                 [004] (-34)
5873  DD                 [005] (-33)
5874  02                 [006] (-33)
5875  00                 [007] (-31)
5876  00                 [008] (-31)
5877  DE                 [009] (-30)
5878  02                 [010] (-30)
5879  00                 [011] (-30)
587A  00                 [012] (-30)
587B  DE                 [013] (-30)
587C  02                 [014] (-30)
587D  00                 [015] (-30)
587E  00                 [016] (-28)
587F  DF                 [017] (-28)
5880  02                 [018] (-28)
5881  00                 [019] (-27)
5882  00                 [020] (-27)
5883  DF                 [021] (-27)
5884  02                 [022] (-27)
5885  00                 [023] (-27)
5886  00                 [024] (-26)
5887  E1                 [025] (-26)
5888  02                 [026] (-26)
5889  00                 [027] (-26)
588A  00                 [028] (-26)
588B  E1                 [029] (-26)
588C  02                 [030] (-26)
588D  00                 [031] (-23)
588E  00                 [032] (-23)
588F  E2                 [033] (-22)
5890  02                 [034] (-21)
5891  00                 [035] (-21)
5892  00                 [036] (-21)
5893  E2                 [037] (-21)
5894  02                 [038] (-21)
5895  00                 [039] (-20)
5896  00                 [040] (-20)
5897  E2                 [041] (-19)
5898  02                 [042] (-19)
5899  00                 [043] (-18)
589A  00                 [044] (-18)
589B  E2                 [045] (-18)
589C  02                 [046] (-17)
589D  00                 [047] (-17)
589E  00                 [048] (-17)
589F  E2                 [049] (-17)
58A0  02                 [050] (-17)
58A1  00                 [051] (-16)
58A2  00                 [052] (-15)
58A3  E2                 [053] (-15)
58A4  02                 [054] (-11)
58A5  00                 [055] (-10)
58A6  00                 [056] (-10)
58A7  E2                 [057] (-10)
58A8  02                 [058] (-9)
58A9  00                 [059] (-9)
58AA  00                 [060] (-9)
58AB  E4                 [061] (-9)
58AC  02                 [062] (-9)
58AD  00                 [063] (-8)
58AE  00                 [064] (-8)
58AF  E4                 [065] (-8)
58B0  02                 [066] (-8)
58B1  00                 [067] (-8)
58B2  00                 [068] (-8)
58B3  E4                 [069] (-7)
58B4  02                 [070] (-7)
58B5  00                 [071] (-5)
58B6  00                 [072] (-5)
58B7  E5                 [073] (-5)
58B8  02                 [074] (-5)
58B9  00                 [075] (-5)
58BA  00                 [076] (-5)
58BB  E5                 [077] (-5)
58BC  02                 [078] (-5)
58BD  00                 [079] (-4)
58BE  00                 [080] (-4)
58BF  E5                 [081] (-4)
58C0  02                 [082] (-4)
58C1  00                 [083] (-4)
58C2  00                 [084] (-3)
58C3  E5                 [085] (-3)
58C4  02                 [086] (-3)
58C5  00                 [087] (-2)
58C6  00                 [088] (-2)
58C7  E5                 [089] (-2)
58C8  02                 [090] (-1)
58C9  00                 [091] (-1)
58CA  00                 [092] (-1)
58CB  E6                 [093] (-1)
58CC  02                 [094] (-1)
58CD  00                 [095] (-1)
58CE  00                 [096] (-1)
58CF  E6                 [097] (-1)
58D0  02                 [098] (-1)
58D1  00                 [099] (-1)
58D2  00                 [100] (-1)
58D3  E6                 [101] (0)
58D4  02                 [102] (0)
58D5  00                 [103] (0)
58D6  00                 [104] (0)
58D7  E6                 [105] (0)
58D8  02                 [106] (0)
58D9  00                 [107] (0)
58DA  00                 [108] (0)
58DB  E6                 [109] (0)
58DC  02                 [110] (0)
58DD  00                 [111] (4)
58DE  00                 [112] (4)
58DF  E6                 [113] (5)
58E0  02                 [114] (5)
58E1  00                 [115] (5)
58E2  00                 [116] (5)
58E3  E6                 [117] (5)
58E4  02                 [118] (5)
58E5  00                 [119] (7)
58E6  00                 [120] (7)
58E7  E9                 [121] (8)
58E8  02                 [122] (8)
58E9  00                 [123] (8)
58EA  00                 [124] (8)
58EB  E9                 [125] (10)
58EC  02                 [126] (10)
58ED  00                 [127] (10)
58EE  00                 [128] (10)
58EF  EA                 [129] (10)
58F0  02                 [130] (11)
58F1  00                 [131] (11)
58F2  00                 [132] (11)
58F3  EB                 [133] (12)
58F4  02                 [134] (12)
58F5  00                 [135] (12)
58F6  00                 [136] (14)
58F7  EB                 [137] (14)
58F8  02                 [138] (14)
58F9  00                 [139] (14)
58FA  00                 [140] (14)
58FB  EB                 [141] (15)
58FC  02                 [142] (15)
58FD  00                 [143] (15)
58FE  00                 [144] (15)
58FF  EB                 [145] (17)
5900  02                 [146] (17)
5901  00                 [147] (17)
5902  00                 [148] (17)
5903  EB                 [149] (17)
5904  02                 [150] (17)
5905  00                 [151] (17)
5906  00                 [152] (18)
5907  EC                 [153] (18)
5908  02                 [154] (18)
5909  00                 [155] (18)
590A  00                 [156] (18)
590B  EC                 [157] (18)
590C  02                 [158] (18)
590D  00                 [159] (19)
590E  00                 [160] (19)
590F  ED                 [161] (20)
5910  02                 [162] (20)
5911  00                 [163] (20)
5912  00                 [164] (20)
5913  ED                 [165] (20)
5914  02                 [166] (20)
5915  00                 [167] (20)
5916  00                 [168] (24)
5917  EE                 [169] (24)
5918  02                 [170] (24)
5919  00                 [171] (24)
591A  00                 [172] (24)
591B  EE                 [173] (26)
591C  02                 [174] (26)
591D  00                 [175] (26)
591E  00                 [176] (27)
591F  EE                 [177] (27)
5920  02                 [178] (28)
5921  00                 [179] (28)
5922  00                 [180] (28)
5923  EF                 [181] (28)
5924  02                 [182] (28)
5925  00                 [183] (28)
5926  00                 [184] (30)
5927  EF                 [185] (30)
5928  02                 [186] (30)
5929  00                 [187] (30)
592A  00                 [188] (32)
592B  EF                 [189] (32)
592C  02                 [190] (32)
592D  00                 [191] (32)
592E  00                 [192] (33)
592F  EF                 [193] (33)
5930  02                 [194] (33)
5931  00                 [195] (36)
5932  00                 [196] (36)
5933  EF                 [197] (36)
5934  02                 [198] (36)
5935  00                 [199] (36)
5936  00                 [200] (37)
5937  F0                 [201] (37)
5938  02                 [202] (37)
5939  00                 [203] (37)
593A  00                 [204] (37)
593B  F1                 [205] (37)
593C  02                 [206] (37)
593D  00                 [207] (37)
593E  00                 [208] (39)
593F  F1                 [209] (39)
5940  02                 [210] (39)
5941  00                 [211] (39)
5942  00                 [212] (43)
5943  F5                 [213] (43)
5944  02                 [214] (43)
5945  00                 [215] (43)
5946  00                 [216] (43)
5947  F6                 [217] (44)
5948  02                 [218] (44)
5949  00                 [219] (44)
594A  00                 [220] (44)
594B  F6                 [221] (44)
594C  02                 [222] (45)
594D  00                 [223] (45)
594E  00                 [224] (46)
594F  F6                 [225] (46)
5950  02                 [226] (46)
5951  00                 [227] (47)
5952  00                 [228] (47)
5953  F7                 [229] (48)
5954  02                 [230] (50)
5955  00                 [231] (50)
5956  00                 [232] (51)
5957  F7                 [233] (52)
5958  02                 [234] (52)
5959  00                 [235] (52)
595A  00                 [236] (55)
595B  F7                 [237] (55)
595C  02                 [238] (55)
595D  00                 [239] (55)
595E  00                 [240] (55)
595F  F7                 [241] (56)
5960  02                 [242] (56)
5961  00                 [243] (56)
5962  00                 [244] (56)
5963  F7                 [245] (56)
5964  02                 [246] (57)
5965  00                 [247] (57)
5966  00                 [248] (57)
5967  F8                 [249] (57)
5968  02                 [250] (58)
5969  00                 [251] (58)
596A  00                 [252] (58)
596B  F8                 [253] (58)
596C  02                 [254] (59)
596D  00                 [255] (59)
596E  00                 [256] (59)
596F  F8                 [257] (59)
5970  02                 [258] (59)
5971  00                 [259] (60)
5972  00                 [260] (60)
5973  F8                 [261] (60)
5974  02                 [262] (60)
5975  00                 [263] (61)
5976  00                 [264] (61)
5977  F8                 [265] (61)
5978  02                 [266] (61)
5979  00                 [267] (61)
597A  00                 [268] (62)
597B  F8                 [269] (62)
597C  02                 [270] (62)
597D  00                 [271] (62)
597E  00                 [272] (64)
597F  F9                 [273] (64)
5980  02                 [274] (65)
5981  00                 [275] (67)
5982  00                 [276] (67)
5983  F9                 [277] (67)
5984  02                 [278] (67)
5985  00                 [279] (68)
5986  00                 [280] (68)
5987  FB                 [281] (68)
5988  02                 [282] (69)
5989  00                 [283] (69)
598A  00                 [284] (70)
598B  FB                 [285] (70)
598C  02                 [286] (70)
598D  00                 [287] (70)
598E  00                 [288] (70)
598F  FB                 [289] (70)
5990  02                 [290] (73)
5991  00                 [291] (73)
5992  00                 [292] (73)
5993  FB                 [293] (73)
5994  02                 [294] (73)
5995  00                 [295] (73)
5996  00                 [296] (73)
5997  FB                 [297] (73)
5998  02                 [298] (73)
5999  00                 [299] (73)
599A  00                 [300] (74)
599B  FB                 [301] (74)
599C  02                 [302] (74)
599D  00                 [303] (76)
599E  00                 [304] (76)
599F  FB                 [305] (77)
59A0  02                 [306] (77)
59A1  00                 [307] (77)
59A2  00                 [308] (77)
59A3  FB                 [309] (77)
59A4  02                 [310] (77)
59A5  00                 [311] (77)
59A6  00                 [312] (77)
59A7  FC                 [313] (77)
59A8  02                 [314] (78)
59A9  00                 [315] (78)
59AA  00                 [316] (81)
59AB  FC                 [317] (81)
59AC  02                 [318] (82)
59AD  00                 [319] (82)
59AE  00                 [320] (82)
59AF  FC                 [321] (82)
59B0  02                 [322] (82)
59B1  00                 [323] (83)
59B2  00                 [324] (83)
59B3  FC                 [325] (84)
59B4  02                 [326] (84)
59B5  00                 [327] (84)
59B6  00                 [328] (85)
59B7  FC                 [329] (85)
59B8  02                 [330] (85)
59B9  00                 [331] (85)
59BA  00                 [332] (86)
59BB  FD                 [333] (90)
59BC  02                 [334] (92)
59BD  00                 [335] (92)
59BE  00                 [336] (92)
59BF  FD                 [337] (92)
59C0  02                 [338] (92)
59C1  00                 [339] (93)
59C2  00                 [340] (93)
59C3  FD                 [341] (93)
59C4  02                 [342] (93)
59C5  00                 [343] (93)
59C6  00                 [344] (93)
59C7  FE                 [345] (93)
59C8  02                 [346] (93)
59C9  00                 [347] (93)
59CA  00                 [348] (93)
59CB  FE                 [349] (93)
59CC  02                 [350] (94)
59CD  00                 [351] (94)
59CE  00                 [352] (94)
59CF  FE                 [353] (94)
59D0  02                 [354] (95)
59D1  00                 [355] (95)
59D2  00                 [356] (96)
59D3  FF                 [357] (98)
59D4  02                 [358] (98)
59D5  00                 [359] (98)
59D6  00                 [360] (98)
59D7  FF                 [361] (99)
59D8  02                 [362] (99)
59D9  00                 [363] (104)
59DA  00                 [364] (104)
59DB  FF                 [365] (104)
59DC  02                 [366] (104)
59DD  00                 [367] (105)
59DE  00                 [368] (105)
59DF  FF                 [369] (106)
59E0  02                 [370] (106)
59E1  00                 [371] (106)
59E2  00                 [372] (106)
59E3  FF                 [373] (107)
59E4  02                 [374] (107)
59E5  00                 [375] (107)
59E6  00                 [376] (107)
59E7  FF                 [377] (108)
59E8  02                 [378] (109)
59E9  00                 [379] (110)
59EA  00                 [380] (110)
59EB  FF                 [381] (110)
59EC  02                 [382] (110)
59ED  00                 [383] (111)
59EE  00                 [384] (114)
59EF  FF                 [385] (114)
59F0  02                 [386] (114)
59F1  00                 [387] (114)
59F2  00                 [388] (117)
59F3  FF                 [389] (117)
59F4  02                 [390] (117)
59F5  00                 [391] (117)
59F6  00                 [392] (117)
59F7  FF                 [393] (118)
59F8  02                 [394] (118)
59F9  00                 [395] (118)
59FA  00                 [396] (118)
59FB  FF                 [397] (118)
59FC  02                 [398] (118)
59FD  00                 [399] (118)
59FE  00                 [400] (119)
59FF  00                 [401] (119)
5A00  03                 [402] (119)
5A01  00                 [403] (119)
5A02  00                 [404] (119)
5A03  00                 [405] (119)
5A04  03                 [406] (119)
5A05  00                 [407] (120)
5A06  00                 [408] (120)
5A07  00                 [409] (121)
5A08  03                 [410] (121)
5A09  00                 [411] (121)
5A0A  00                 [412] (121)
5A0B  00                 [413] (121)
5A0C  03                 [414] (121)
5A0D  00                 [415] (121)
5A0E  00                 [416] (123)
5A0F  00                 [417] (123)
5A10  03                 [418] (123)
5A11  00                 [419] (123)
5A12  00                 [420] (126)
5A13  00                 [421] (126)
5A14  03                 [422] (126)
5A15  00                 [423] (126)
5A16  00                 [424] (126)
5A17  00                 [425] (-128)
5A18  03                 [426] (-128)
5A19  00                 [427] (-127)
5A1A  00                 [428] (-127)
5A1B  00                 [429] (-127)
5A1C  03                 [430] (-127)
5A1D  00                 [431] (-127)
5A1E  00                 [432] (-126)
5A1F  00                 [433] (-126)
5A20  03                 [434] (-126)
5A21  00                 [435] (-126)
5A22  00                 [436] (-126)
5A23  00                 [437] (-125)
5A24  03                 [438] (-123)
5A25  00                 [439] (-123)
5A26  00                 [440] (-123)
5A27  04                 [441] (-123)
5A28  03                 [442] (-123)
5A29  00                 [443] (-122)
5A2A  00                 [444] (-122)
5A2B  04                 [445] (-122)
5A2C  03                 [446] (-119)
5A2D  00                 [447] (-119)
5A2E  00                 [448] (-119)
5A2F  05                 [449] (-119)
5A30  03                 [450] (-118)
5A31  00                 [451] (-118)
5A32  00                 [452] (-118)
5A33  05                 [453] (-118)
5A34  03                 [454] (-118)
5A35  00                 [455] (-117)
5A36  00                 [456] (-117)
5A37  05                 [457] (-117)
5A38  03                 [458] (-117)
5A39  00                 [459] (-116)
5A3A  00                 [460] (-116)
5A3B  05                 [461] (-116)
5A3C  03                 [462] (-116)
5A3D  00                 [463] (-116)
5A3E  00                 [464] (-116)
5A3F  05                 [465] (-116)
5A40  03                 [466] (-115)
5A41  00                 [467] (-115)
5A42  00                 [468] (-115)
5A43  05                 [469] (-114)
5A44  03                 [470] (-114)
5A45  00                 [471] (-114)
5A46  00                 [472] (-114)
5A47  07                 [473] (-114)
5A48  03                 [474] (-110)
5A49  00                 [475] (-110)
5A4A  00                 [476] (-110)
5A4B  07                 [477] (-110)
5A4C  03                 [478] (-110)
5A4D  00                 [479] (-110)
5A4E  00                 [480] (-109)
5A4F  08                 [481] (-109)
5A50  03                 [482] (-104)
5A51  00                 [483] (-104)
5A52  00                 [484] (-104)
5A53  08                 [485] (-104)
5A54  03                 [486] (-104)
5A55  00                 [487] (-103)
5A56  00                 [488] (-103)
5A57  08                 [489] (-103)
5A58  03                 [490] (-103)
5A59  00                 [491] (-103)
5A5A  00                 [492] (-103)
5A5B  08                 [493] (-100)
5A5C  03                 [494] (-100)
5A5D  00                 [495] (-100)
5A5E  00                 [496] (-100)
5A5F  0A                 [497] (-100)
5A60  03                 [498] (-99)
5A61  00                 [499] (-99)
5A62  00                 [500] (-99)
5A63  0A                 [501] (-99)
5A64  03                 [502] (-99)
5A65  00                 [503] (-99)
5A66  00                 [504] (-99)
5A67  0A                 [505] (-96)
5A68  03                 [506] (-96)
5A69  00                 [507] (-96)
5A6A  00                 [508] (-96)
5A6B  0A                 [509] (-96)
5A6C  03                 [510] (-95)
5A6D  00                 [511] (-95)
5A6E  00                 [512] (-94)
5A6F  0A                 [513] (-93)
5A70  03                 [514] (-93)
5A71  00                 [515] (-93)
5A72  00                 [516] (-92)
5A73  0B                 [517] (-92)
5A74  03                 [518] (-92)
5A75  00                 [519] (-92)
5A76  00                 [520] (-92)
5A77  0B                 [521] (-92)
5A78  03                 [522] (-89)
5A79  00                 [523] (-89)
5A7A  00                 [524] (-89)
5A7B  0B                 [525] (-89)
5A7C  03                 [526] (-89)
5A7D  00                 [527] (-88)
5A7E  00                 [528] (-88)
5A7F  0C                 [529] (-85)
5A80  03                 [530] (-85)
5A81  00                 [531] (-85)
5A82  00                 [532] (-85)
5A83  0C                 [533] (-85)
5A84  03                 [534] (-84)
5A85  00                 [535] (-84)
5A86  00                 [536] (-83)
5A87  0C                 [537] (-83)
5A88  03                 [538] (-82)
5A89  00                 [539] (-82)
5A8A  00                 [540] (-81)
5A8B  0E                 [541] (-81)
5A8C  03                 [542] (-81)
5A8D  00                 [543] (-81)
5A8E  00                 [544] (-81)
5A8F  0E                 [545] (-81)
5A90  03                 [546] (-81)
5A91  00                 [547] (-77)
5A92  00                 [548] (-77)
5A93  0E                 [549] (-77)
5A94  03                 [550] (-77)
5A95  00                 [551] (-77)
5A96  00                 [552] (-76)
5A97  0E                 [553] (-76)
5A98  03                 [554] (-73)
5A99  00                 [555] (-73)
5A9A  00                 [556] (-72)
                         * locals:
611F  00                 sizelocvars (0)
                         * upvalues:
6120  00                 sizeupvalues (0)
                         ** end of function **

                         
6121                     ** function [20] definition (level 2)
                         ** start of function **
6121  00                 string size (0)
                         source name: (none)
6123  07                 line defined (954)
6124  D2                 last line defined (978)
6125  07                 nups (1)
6126  01                 numparams (4)
6127  04                 is_vararg (0)
6128  00                 maxstacksize (15)
                         * code:
612A  48                 sizecode (72)
612B  1D010000           [01] getglobal  4   0        ; 1074689893
612F  52010001           [02] move       5   2      
6133  22810001           [03] call       4   2   2  
6137  18410000           [04] test       4       1    ; to [6] if false
613B  1AC00280           [05] jmp        12           ; to [18]
613F  24414001           [06] self       4   2   257  ; 1511086594
6143  22810001           [07] call       4   2   2  
6147  18410000           [08] test       4       1    ; to [10] if false
614B  1AC00180           [09] jmp        8            ; to [18]
614F  1D010000           [10] getglobal  4   0        ; 1074689893
6153  64814001           [11] self       5   2   258  ; -1917464545
6157  62810001           [12] call       5   2   2  
615B  64C1C002           [13] self       5   5   259  ; 1769516121
615F  62010001           [14] call       5   2   0  
6163  22810000           [15] call       4   0   2  
6167  18010000           [16] test       4       0    ; to [18] if true
616B  1A000080           [17] jmp        1            ; to [19]
616F  1E008000           [18] return     0   1      
6173  24014100           [19] self       4   0   260  ; -1538682285
6177  22810001           [20] call       4   2   2  
617B  64414102           [21] self       5   4   261  ; -605089866
617F  62810001           [22] call       5   2   2  
6183  9D010000           [23] getglobal  6   0        ; 1074689893
6187  DD810100           [24] getglobal  7   6        ; _T
618B  CEC1C103           [25] gettable   7   7   263  ; "voltShield"
618F  A2810001           [26] call       6   2   2  
6193  98410000           [27] test       6       1    ; to [29] if false
6197  1A800180           [28] jmp        7            ; to [36]
619B  9D010000           [29] getglobal  6   0        ; 1074689893
619F  DD810100           [30] getglobal  7   6        ; _T
61A3  CEC1C103           [31] gettable   7   7   263  ; "voltShield"
61A7  CE418103           [32] gettable   7   7   5  
61AB  A2810001           [33] call       6   2   2  
61AF  98010000           [34] test       6       0    ; to [36] if true
61B3  1A000080           [35] jmp        1            ; to [37]
61B7  1E008000           [36] return     0   1      
61BB  9D010200           [37] getglobal  6   8        ; 1672515847
61BF  DD810100           [38] getglobal  7   6        ; _T
61C3  CEC1C103           [39] gettable   7   7   263  ; "voltShield"
61C7  CE418103           [40] gettable   7   7   5  
61CB  A2010101           [41] call       6   2   4  
61CF  1A000180           [42] jmp        5            ; to [48]
61D3  CE424205           [43] gettable   11  10  265  ; "instance"
fail op	35
61D7  23C08005           [44] close      0  
61DB  1A400080           [45] jmp        2            ; to [48]
fail op	8
61DF  88020000           [46] setupval   10  0      
61E3  1A400080           [47] jmp        2            ; to [50]
61E7  96810000           [48] tforloop   6       2    ; to [50] if exit
61EB  1A00FE7F           [49] jmp        -7           ; to [43]
61EF  D3020000           [50] getupval   11  0      
fail op	35
61F3  6380C205           [51] close      1  
61F7  1AC00280           [52] jmp        12           ; to [65]
61FB  DD020000           [53] getglobal  11  0        ; 1074689893
61FF  13030000           [54] getupval   12  0      
6203  0EC34206           [55] gettable   12  12  267  ; "shield"
6207  E2820001           [56] call       11  2   2  
620B  D8420000           [57] test       11      1    ; to [59] if false
620F  1A400180           [58] jmp        6            ; to [65]
6213  DD020000           [59] getglobal  11  0        ; 1074689893
6217  13030000           [60] getupval   12  0      
621B  0E034306           [61] gettable   12  12  268  ; "holder"
621F  E2820001           [62] call       11  2   2  
6223  D8420000           [63] test       11      1    ; to [65] if false
6227  1A000080           [64] jmp        1            ; to [66]
622B  1E008000           [65] return     0   1      
622F  E4424301           [66] self       11  2   269  ; -1302048094
6233  5D830300           [67] getglobal  13  14       ; -332969190
6237  99C30300           [68] loadk      14  15       ; "PickupShieldLoop"
623B  62830001           [69] call       13  2   2  
623F  97030000           [70] loadbool   14  0   0    ; false
6243  E2420002           [71] call       11  4   1  
6247  1E008000           [72] return     0   1      
                         * constants:
624B  10                 sizek (16)
624C  01                 const type 3
624D  65770E40           const [0]: (1074689893)
6251  01                 const type 3
6252  025A115A           const [1]: (1511086594)
6256  01                 const type 3
6257  1FD0B58D           const [2]: (-1917464545)
625B  01                 const type 3
625C  59AC7869           const [3]: (1769516121)
6260  01                 const type 3
6261  539249A4           const [4]: (-1538682285)
6265  01                 const type 3
6266  B60FEFDB           const [5]: (-605089866)
626A  04                 const type 4
626B  03                 string size (3)
626C  5F5400             "_T\0"
                         const [6]: "_T"
626F  04                 const type 4
6270  0B                 string size (11)
6271  766F6C7453686965+  "voltShie"
6279  6C6400             "ld\0"
                         const [7]: "voltShield"
627C  01                 const type 3
627D  0791B063           const [8]: (1672515847)
6281  04                 const type 4
6282  09                 string size (9)
6283  696E7374616E6365+  "instance"
628B  00                 "\0"
                         const [9]: "instance"
628C  00                 const type 0
                         const [10]: nil
628D  04                 const type 4
628E  07                 string size (7)
628F  736869656C6400     "shield\0"
                         const [11]: "shield"
6296  04                 const type 4
6297  07                 string size (7)
6298  686F6C64657200     "holder\0"
                         const [12]: "holder"
629F  01                 const type 3
62A0  A25264B2           const [13]: (-1302048094)
62A4  01                 const type 3
62A5  1A4B27EC           const [14]: (-332969190)
62A9  04                 const type 4
62AA  11                 string size (17)
62AB  5069636B75705368+  "PickupSh"
62B3  69656C644C6F6F70+  "ieldLoop"
62BB  00                 "\0"
                         const [15]: "PickupShieldLoop"
                         * functions:
62BC  00                 sizep (0)
                         * lines:
62BD  48                 sizelineinfo (72)
                         [pc] (line)
62BE  BB                 [01] (-69)
62BF  03                 [02] (-69)
62C0  00                 [03] (-69)
62C1  00                 [04] (-69)
62C2  BB                 [05] (-69)
62C3  03                 [06] (-69)
62C4  00                 [07] (-69)
62C5  00                 [08] (-69)
62C6  BB                 [09] (-69)
62C7  03                 [10] (-69)
62C8  00                 [11] (-69)
62C9  00                 [12] (-69)
62CA  BB                 [13] (-69)
62CB  03                 [14] (-69)
62CC  00                 [15] (-69)
62CD  00                 [16] (-69)
62CE  BB                 [17] (-69)
62CF  03                 [18] (-68)
62D0  00                 [19] (-65)
62D1  00                 [20] (-65)
62D2  BB                 [21] (-64)
62D3  03                 [22] (-64)
62D4  00                 [23] (-62)
62D5  00                 [24] (-62)
62D6  BB                 [25] (-62)
62D7  03                 [26] (-62)
62D8  00                 [27] (-62)
62D9  00                 [28] (-62)
62DA  BB                 [29] (-62)
62DB  03                 [30] (-62)
62DC  00                 [31] (-62)
62DD  00                 [32] (-62)
62DE  BB                 [33] (-62)
62DF  03                 [34] (-62)
62E0  00                 [35] (-62)
62E1  00                 [36] (-61)
62E2  BB                 [37] (-58)
62E3  03                 [38] (-58)
62E4  00                 [39] (-58)
62E5  00                 [40] (-58)
62E6  BB                 [41] (-58)
62E7  03                 [42] (-58)
62E8  00                 [43] (-57)
62E9  00                 [44] (-57)
62EA  BB                 [45] (-57)
62EB  03                 [46] (-56)
62EC  00                 [47] (-55)
62ED  00                 [48] (-58)
62EE  BB                 [49] (-54)
62EF  03                 [50] (-51)
62F0  00                 [51] (-51)
62F1  00                 [52] (-51)
62F2  BB                 [53] (-51)
62F3  03                 [54] (-51)
62F4  00                 [55] (-51)
62F5  00                 [56] (-51)
62F6  BB                 [57] (-51)
62F7  03                 [58] (-51)
62F8  00                 [59] (-51)
62F9  00                 [60] (-51)
62FA  BB                 [61] (-51)
62FB  03                 [62] (-51)
62FC  00                 [63] (-51)
62FD  00                 [64] (-51)
62FE  BB                 [65] (-50)
62FF  03                 [66] (-47)
6300  00                 [67] (-47)
6301  00                 [68] (-47)
6302  BC                 [69] (-47)
6303  03                 [70] (-47)
6304  00                 [71] (-47)
6305  00                 [72] (-46)
                         * locals:
63DE  00                 sizelocvars (0)
                         * upvalues:
63DF  00                 sizeupvalues (0)
                         ** end of function **

                         
63E0                     ** function [21] definition (level 2)
                         ** start of function **
63E0  00                 string size (0)
                         source name: (none)
63E2  07                 line defined (980)
63E3  DC                 last line defined (988)
63E4  07                 nups (1)
63E5  01                 numparams (3)
63E6  03                 is_vararg (0)
63E7  00                 maxstacksize (7)
                         * code:
63E9  12                 sizecode (18)
63EA  E4004000           [01] self       3   0   256  ; -363477704
63EE  52010001           [02] move       5   2      
63F2  E2808001           [03] call       3   3   2  
63F6  1D410000           [04] getglobal  4   1        ; 1074689893
63FA  52018001           [05] move       5   3      
63FE  22810001           [06] call       4   2   2  
6402  18410000           [07] test       4       1    ; to [9] if false
6406  1AC00080           [08] jmp        4            ; to [13]
640A  2481C001           [09] self       4   3   258  ; -478876101
640E  22810001           [10] call       4   2   2  
6412  18410000           [11] test       4       1    ; to [13] if false
6416  1A000080           [12] jmp        1            ; to [14]
641A  1E008000           [13] return     0   1      
641E  13010000           [14] getupval   4   0      
6422  64C14000           [15] self       5   0   259  ; -1538682285
6426  62010001           [16] call       5   2   0  
642A  22410000           [17] call       4   0   1  
642E  1E008000           [18] return     0   1      
                         * constants:
6432  04                 sizek (4)
6433  01                 const type 3
6434  38C555EA           const [0]: (-363477704)
6438  01                 const type 3
6439  65770E40           const [1]: (1074689893)
643D  01                 const type 3
643E  3BEE74E3           const [2]: (-478876101)
6442  01                 const type 3
6443  539249A4           const [3]: (-1538682285)
                         * functions:
6447  00                 sizep (0)
                         * lines:
6448  12                 sizelineinfo (18)
                         [pc] (line)
6449  D6                 [01] (-42)
644A  03                 [02] (-42)
644B  00                 [03] (-42)
644C  00                 [04] (-41)
644D  D6                 [05] (-41)
644E  03                 [06] (-41)
644F  00                 [07] (-41)
6450  00                 [08] (-41)
6451  D6                 [09] (-41)
6452  03                 [10] (-41)
6453  00                 [11] (-41)
6454  00                 [12] (-41)
6455  D7                 [13] (-40)
6456  03                 [14] (-37)
6457  00                 [15] (-37)
6458  00                 [16] (-37)
6459  D7                 [17] (-37)
645A  03                 [18] (-36)
                         * locals:
6491  00                 sizelocvars (0)
                         * upvalues:
6492  00                 sizeupvalues (0)
                         ** end of function **

                         
6493                     ** function [22] definition (level 2)
                         ** start of function **
6493  00                 string size (0)
                         source name: (none)
6495  07                 line defined (993)
6496  F7                 last line defined (1015)
6497  07                 nups (1)
6498  01                 numparams (2)
6499  02                 is_vararg (0)
649A  00                 maxstacksize (10)
                         * code:
649C  44                 sizecode (68)
649D  9D000000           [01] getglobal  2   0        ; 1074689893
64A1  D2008000           [02] move       3   1      
64A5  A2800001           [03] call       2   2   2  
64A9  98400000           [04] test       2       1    ; to [6] if false
64AD  1A800180           [05] jmp        7            ; to [13]
64B1  9D400000           [06] getglobal  2   1        ; gRegion
64B5  A4804001           [07] self       2   2   258  ; 925677844
64B9  A2800001           [08] call       2   2   2  
64BD  A4C04001           [09] self       2   2   259  ; -1813551355
64C1  A2800001           [10] call       2   2   2  
fail op	35
64C5  63808000           [11] close      1  
64C9  1A000080           [12] jmp        1            ; to [14]
64CD  1E008000           [13] return     0   1      
64D1  A4004100           [14] self       2   0   260  ; 129677183
64D5  A2800001           [15] call       2   2   2  
64D9  E440C100           [16] self       3   1   261  ; -1917464545
64DD  E2800001           [17] call       3   2   2  
64E1  E480C101           [18] self       3   3   262  ; 1769516121
64E5  E2800001           [19] call       3   2   2  
64E9  1D010000           [20] getglobal  4   0        ; 1074689893
64ED  52010001           [21] move       5   2      
64F1  22810001           [22] call       4   2   2  
64F5  18410000           [23] test       4       1    ; to [25] if false
64F9  1A000180           [24] jmp        5            ; to [30]
64FD  1D010000           [25] getglobal  4   0        ; 1074689893
6501  52018001           [26] move       5   3      
6505  22810001           [27] call       4   2   2  
6509  18010000           [28] test       4       0    ; to [30] if true
650D  1A000080           [29] jmp        1            ; to [31]
6511  1E008000           [30] return     0   1      
6515  1DC10100           [31] getglobal  4   7        ; _T
6519  0E014202           [32] gettable   4   4   264  ; "voltShieldAugment"
fail op	35
651D  23404202           [33] close      0  
6521  1A800080           [34] jmp        3            ; to [38]
6525  1DC10100           [35] getglobal  4   7        ; _T
6529  4B010000           [36] newtable   5   0   0    ; array=0, hash=0
652D  0C410184           [37] settable   4   264 5    ; "voltShieldAugment"
6531  2481C200           [38] self       4   1   266  ; -605089866
6535  22810001           [39] call       4   2   2  
6539  5DC10100           [40] getglobal  5   7        ; _T
653D  4E01C202           [41] gettable   5   5   264  ; "voltShieldAugment"
6541  4E018102           [42] gettable   5   5   4  
fail op	35
6545  2340C202           [43] close      0  
6549  1A800380           [44] jmp        15           ; to [60]
654D  5DC10100           [45] getglobal  5   7        ; _T
6551  4E01C202           [46] gettable   5   5   264  ; "voltShieldAugment"
6555  8B810000           [47] newtable   6   0   2    ; array=0, hash=2
6559  CB010000           [48] newtable   7   0   0    ; array=0, hash=0
655D  8CC18185           [49] settable   6   267 7    ; "triggers"
6561  8C414386           [50] settable   6   268 269  ; "holding" 0
6565  4C810102           [51] settable   5   4   6  
6569  6481C301           [52] self       5   3   270  ; -276619804
656D  E4C14301           [53] self       7   2   271  ; -363477704
6571  53020000           [54] getupval   9   0      
6575  E2818001           [55] call       7   3   2  
6579  1D020400           [56] getglobal  8   16       ; -332969190
657D  59420400           [57] loadk      9   17       ; "TryPickup"
6581  22020001           [58] call       8   2   0  
6585  62410000           [59] call       5   0   1  
6589  5D810400           [60] getglobal  5   18       ; table
658D  4EC1C402           [61] gettable   5   5   275  ; -431682403
6591  9DC10100           [62] getglobal  6   7        ; _T
6595  8E014203           [63] gettable   6   6   264  ; "voltShieldAugment"
6599  8E010103           [64] gettable   6   6   4  
659D  8EC14203           [65] gettable   6   6   267  ; "triggers"
65A1  D2010000           [66] move       7   0      
65A5  62418001           [67] call       5   3   1  
65A9  1E008000           [68] return     0   1      
                         * constants:
65AD  14                 sizek (20)
65AE  01                 const type 3
65AF  65770E40           const [0]: (1074689893)
65B3  04                 const type 4
65B4  08                 string size (8)
65B5  67526567696F6E00   "gRegion\0"
                         const [1]: "gRegion"
65BD  01                 const type 3
65BE  14B92C37           const [2]: (925677844)
65C2  01                 const type 3
65C3  0567E793           const [3]: (-1813551355)
65C7  01                 const type 3
65C8  7FB7BA07           const [4]: (129677183)
65CC  01                 const type 3
65CD  1FD0B58D           const [5]: (-1917464545)
65D1  01                 const type 3
65D2  59AC7869           const [6]: (1769516121)
65D6  04                 const type 4
65D7  03                 string size (3)
65D8  5F5400             "_T\0"
                         const [7]: "_T"
65DB  04                 const type 4
65DC  12                 string size (18)
65DD  766F6C7453686965+  "voltShie"
65E5  6C644175676D656E+  "ldAugmen"
65ED  7400               "t\0"
                         const [8]: "voltShieldAugment"
65EF  00                 const type 0
                         const [9]: nil
65F0  01                 const type 3
65F1  B60FEFDB           const [10]: (-605089866)
65F5  04                 const type 4
65F6  09                 string size (9)
65F7  7472696767657273+  "triggers"
65FF  00                 "\0"
                         const [11]: "triggers"
6600  04                 const type 4
6601  08                 string size (8)
6602  686F6C64696E6700   "holding\0"
                         const [12]: "holding"
660A  01                 const type 3
660B  00000000           const [13]: (0)
660F  01                 const type 3
6610  E41D83EF           const [14]: (-276619804)
6614  01                 const type 3
6615  38C555EA           const [15]: (-363477704)
6619  01                 const type 3
661A  1A4B27EC           const [16]: (-332969190)
661E  04                 const type 4
661F  0A                 string size (10)
6620  5472795069636B75+  "TryPicku"
6628  7000               "p\0"
                         const [17]: "TryPickup"
662A  04                 const type 4
662B  06                 string size (6)
662C  7461626C6500       "table\0"
                         const [18]: "table"
6632  01                 const type 3
6633  9D0C45E6           const [19]: (-431682403)
                         * functions:
6637  00                 sizep (0)
                         * lines:
6638  44                 sizelineinfo (68)
                         [pc] (line)
6639  E2                 [01] (-30)
663A  03                 [02] (-30)
663B  00                 [03] (-30)
663C  00                 [04] (-30)
663D  E2                 [05] (-30)
663E  03                 [06] (-30)
663F  00                 [07] (-30)
6640  00                 [08] (-30)
6641  E2                 [09] (-30)
6642  03                 [10] (-30)
6643  00                 [11] (-30)
6644  00                 [12] (-30)
6645  E2                 [13] (-29)
6646  03                 [14] (-26)
6647  00                 [15] (-26)
6648  00                 [16] (-25)
6649  E2                 [17] (-25)
664A  03                 [18] (-25)
664B  00                 [19] (-25)
664C  00                 [20] (-24)
664D  E2                 [21] (-24)
664E  03                 [22] (-24)
664F  00                 [23] (-24)
6650  00                 [24] (-24)
6651  E2                 [25] (-24)
6652  03                 [26] (-24)
6653  00                 [27] (-24)
6654  00                 [28] (-24)
6655  E2                 [29] (-24)
6656  03                 [30] (-23)
6657  00                 [31] (-20)
6658  00                 [32] (-20)
6659  E2                 [33] (-20)
665A  03                 [34] (-20)
665B  00                 [35] (-19)
665C  00                 [36] (-19)
665D  E2                 [37] (-19)
665E  03                 [38] (-16)
665F  00                 [39] (-16)
6660  00                 [40] (-15)
6661  E2                 [41] (-15)
6662  03                 [42] (-15)
6663  00                 [43] (-15)
6664  00                 [44] (-15)
6665  E2                 [45] (-14)
6666  03                 [46] (-14)
6667  00                 [47] (-14)
6668  00                 [48] (-14)
6669  E3                 [49] (-14)
666A  03                 [50] (-14)
666B  00                 [51] (-14)
666C  00                 [52] (-13)
666D  E6                 [53] (-13)
666E  03                 [54] (-13)
666F  00                 [55] (-13)
6670  00                 [56] (-13)
6671  E6                 [57] (-13)
6672  03                 [58] (-13)
6673  00                 [59] (-13)
6674  00                 [60] (-10)
6675  E7                 [61] (-10)
6676  03                 [62] (-10)
6677  00                 [63] (-10)
6678  00                 [64] (-10)
6679  E7                 [65] (-10)
667A  03                 [66] (-10)
667B  00                 [67] (-10)
667C  00                 [68] (-9)
                         * locals:
6749  00                 sizelocvars (0)
                         * upvalues:
674A  00                 sizeupvalues (0)
                         ** end of function **

                         
674B                     ** function [23] definition (level 2)
                         ** start of function **
674B  00                 string size (0)
                         source name: (none)
674D  07                 line defined (1017)
674E  99                 last line defined (1049)
674F  08                 nups (0)
6750  00                 numparams (2)
6751  02                 is_vararg (0)
6752  00                 maxstacksize (13)
                         * code:
6754  52                 sizecode (82)
6755  9D000000           [01] getglobal  2   0        ; 1074689893
6759  D2008000           [02] move       3   1      
675D  A2800001           [03] call       2   2   2  
6761  98400000           [04] test       2       1    ; to [6] if false
6765  1A800180           [05] jmp        7            ; to [13]
6769  9D400000           [06] getglobal  2   1        ; gRegion
676D  A4804001           [07] self       2   2   258  ; 925677844
6771  A2800001           [08] call       2   2   2  
6775  A4C04001           [09] self       2   2   259  ; -1813551355
6779  A2800001           [10] call       2   2   2  
fail op	35
677D  63808000           [11] close      1  
6781  1A000080           [12] jmp        1            ; to [14]
6785  1E008000           [13] return     0   1      
6789  A400C100           [14] self       2   1   260  ; -1917464545
678D  A2800001           [15] call       2   2   2  
6791  A4404101           [16] self       2   2   261  ; 1769516121
6795  A2800001           [17] call       2   2   2  
6799  DD000000           [18] getglobal  3   0        ; 1074689893
679D  12010001           [19] move       4   2      
67A1  E2800001           [20] call       3   2   2  
67A5  D8000000           [21] test       3       0    ; to [23] if true
67A9  1A000080           [22] jmp        1            ; to [24]
67AD  1E008000           [23] return     0   1      
67B1  DD800100           [24] getglobal  3   6        ; _T
67B5  CEC0C101           [25] gettable   3   3   263  ; "voltShieldAugment"
fail op	35
67B9  6300C201           [26] close      1  
67BD  1A400D80           [27] jmp        54           ; to [82]
67C1  E440C200           [28] self       3   1   265  ; -605089866
67C5  E2800001           [29] call       3   2   2  
67C9  1D810100           [30] getglobal  4   6        ; _T
67CD  0EC14102           [31] gettable   4   4   263  ; "voltShieldAugment"
67D1  0EC10002           [32] gettable   4   4   3  
fail op	35
67D5  63004202           [33] close      1  
67D9  1A800980           [34] jmp        39           ; to [74]
67DD  1D810100           [35] getglobal  4   6        ; _T
67E1  0EC14102           [36] gettable   4   4   263  ; "voltShieldAugment"
67E5  0EC10002           [37] gettable   4   4   3  
67E9  0E814202           [38] gettable   4   4   266  ; "triggers"
67ED  4A010002           [39] len        5   4      
67F1  99C10200           [40] loadk      6   11       ; 0
67F5  D9010300           [41] loadk      7   12       ; 0
67F9  50010380           [42] forprep    5   13       ; to [56]
67FD  5D020000           [43] getglobal  9   0        ; 1074689893
6801  8E020202           [44] gettable   10  4   8  
6805  62820001           [45] call       9   2   2  
6809  58420000           [46] test       9       1    ; to [48] if false
680D  1A800080           [47] jmp        3            ; to [51]
6811  4E020202           [48] gettable   9   4   8  
fail op	35
6815  23008004           [49] close      0  
6819  1A000180           [50] jmp        5            ; to [56]
681D  5D420300           [51] getglobal  9   13       ; table
6821  4E82C304           [52] gettable   9   9   270  ; -843973282
6825  92020002           [53] move       10  4      
6829  D2020004           [54] move       11  8      
682D  62428001           [55] call       9   3   1  
6831  5441FC7F           [56] forloop    5   -14      ; to [43] if loop
6835  4A020002           [57] len        9   4      
fail op	35
6839  23C0C304           [58] close      0  
683D  1A400380           [59] jmp        14           ; to [74]
6841  5D820100           [60] getglobal  9   6        ; _T
6845  4EC2C104           [61] gettable   9   9   263  ; "voltShieldAugment"
6849  4EC28004           [62] gettable   9   9   3  
684D  4E02C404           [63] gettable   9   9   272  ; "holding"
fail op	35
6851  2340C404           [64] close      0  
6855  1AC00180           [65] jmp        8            ; to [74]
6859  5D820100           [66] getglobal  9   6        ; _T
685D  4EC2C104           [67] gettable   9   9   263  ; "voltShieldAugment"
6861  4C02C201           [68] settable   9   3   264  ; nil
6865  64824401           [69] self       9   2   274  ; -1665949819
6869  DDC20400           [70] getglobal  11  19       ; -332969190
686D  19030500           [71] loadk      12  20       ; "TryPickup"
6871  E2020001           [72] call       11  2   0  
6875  62420000           [73] call       9   0   1  
6879  5D420500           [74] getglobal  9   21       ; -1442191459
687D  9D820100           [75] getglobal  10  6        ; _T
6881  8EC24105           [76] gettable   10  10  263  ; "voltShieldAugment"
6885  62820001           [77] call       9   2   2  
fail op	35
6889  2300C204           [78] close      0  
688D  1A400080           [79] jmp        2            ; to [82]
6891  5D820100           [80] getglobal  9   6        ; _T
6895  4C02C283           [81] settable   9   263 264  ; "voltShieldAugment" nil
6899  1E008000           [82] return     0   1      
                         * constants:
689D  16                 sizek (22)
689E  01                 const type 3
689F  65770E40           const [0]: (1074689893)
68A3  04                 const type 4
68A4  08                 string size (8)
68A5  67526567696F6E00   "gRegion\0"
                         const [1]: "gRegion"
68AD  01                 const type 3
68AE  14B92C37           const [2]: (925677844)
68B2  01                 const type 3
68B3  0567E793           const [3]: (-1813551355)
68B7  01                 const type 3
68B8  1FD0B58D           const [4]: (-1917464545)
68BC  01                 const type 3
68BD  59AC7869           const [5]: (1769516121)
68C1  04                 const type 4
68C2  03                 string size (3)
68C3  5F5400             "_T\0"
                         const [6]: "_T"
68C6  04                 const type 4
68C7  12                 string size (18)
68C8  766F6C7453686965+  "voltShie"
68D0  6C644175676D656E+  "ldAugmen"
68D8  7400               "t\0"
                         const [7]: "voltShieldAugment"
68DA  00                 const type 0
                         const [8]: nil
68DB  01                 const type 3
68DC  B60FEFDB           const [9]: (-605089866)
68E0  04                 const type 4
68E1  09                 string size (9)
68E2  7472696767657273+  "triggers"
68EA  00                 "\0"
                         const [10]: "triggers"
68EB  03                 const type 3
68EC  0000803F           const [11]: (0)
68F0  03                 const type 3
68F1  000080BF           const [12]: (0)
68F5  04                 const type 4
68F6  06                 string size (6)
68F7  7461626C6500       "table\0"
                         const [13]: "table"
68FD  01                 const type 3
68FE  5EFDB1CD           const [14]: (-843973282)
6902  03                 const type 3
6903  00000000           const [15]: (0)
6907  04                 const type 4
6908  08                 string size (8)
6909  686F6C64696E6700   "holding\0"
                         const [16]: "holding"
6911  01                 const type 3
6912  00000000           const [17]: (0)
6916  01                 const type 3
6917  859FB39C           const [18]: (-1665949819)
691B  01                 const type 3
691C  1A4B27EC           const [19]: (-332969190)
6920  04                 const type 4
6921  0A                 string size (10)
6922  5472795069636B75+  "TryPicku"
692A  7000               "p\0"
                         const [20]: "TryPickup"
692C  01                 const type 3
692D  9DE709AA           const [21]: (-1442191459)
                         * functions:
6931  00                 sizep (0)
                         * lines:
6932  52                 sizelineinfo (82)
                         [pc] (line)
6933  FA                 [01] (-6)
6934  03                 [02] (-6)
6935  00                 [03] (-6)
6936  00                 [04] (-6)
6937  FA                 [05] (-6)
6938  03                 [06] (-6)
6939  00                 [07] (-6)
693A  00                 [08] (-6)
693B  FA                 [09] (-6)
693C  03                 [10] (-6)
693D  00                 [11] (-6)
693E  00                 [12] (-6)
693F  FA                 [13] (-5)
6940  03                 [14] (-2)
6941  00                 [15] (-2)
6942  00                 [16] (-2)
6943  FA                 [17] (-2)
6944  03                 [18] (-1)
6945  00                 [19] (-1)
6946  00                 [20] (-1)
6947  FA                 [21] (-1)
6948  03                 [22] (-1)
6949  00                 [23] (0)
694A  00                 [24] (3)
694B  FA                 [25] (3)
694C  03                 [26] (3)
694D  00                 [27] (3)
694E  00                 [28] (4)
694F  FA                 [29] (4)
6950  03                 [30] (5)
6951  00                 [31] (5)
6952  00                 [32] (5)
6953  FA                 [33] (5)
6954  03                 [34] (5)
6955  00                 [35] (6)
6956  00                 [36] (6)
6957  FA                 [37] (6)
6958  03                 [38] (6)
6959  00                 [39] (7)
695A  00                 [40] (7)
695B  FA                 [41] (7)
695C  03                 [42] (7)
695D  00                 [43] (8)
695E  00                 [44] (8)
695F  FA                 [45] (8)
6960  03                 [46] (8)
6961  00                 [47] (8)
6962  00                 [48] (8)
6963  FB                 [49] (8)
6964  03                 [50] (8)
6965  00                 [51] (9)
6966  00                 [52] (9)
6967  FE                 [53] (9)
6968  03                 [54] (9)
6969  00                 [55] (9)
696A  00                 [56] (7)
696B  FE                 [57] (13)
696C  03                 [58] (13)
696D  00                 [59] (13)
696E  00                 [60] (14)
696F  FE                 [61] (14)
6970  03                 [62] (14)
6971  00                 [63] (14)
6972  00                 [64] (14)
6973  FE                 [65] (14)
6974  03                 [66] (15)
6975  00                 [67] (15)
6976  00                 [68] (15)
6977  FF                 [69] (16)
6978  03                 [70] (16)
6979  00                 [71] (16)
697A  00                 [72] (16)
697B  FF                 [73] (16)
697C  03                 [74] (21)
697D  00                 [75] (21)
697E  00                 [76] (21)
697F  FF                 [77] (21)
6980  03                 [78] (21)
6981  00                 [79] (21)
6982  00                 [80] (22)
6983  FF                 [81] (22)
6984  03                 [82] (25)
                         * locals:
6A7B  00                 sizelocvars (0)
                         * upvalues:
6A7C  00                 sizeupvalues (0)
                         ** end of function **

                         
6A7D                     ** function [24] definition (level 2)
                         ** start of function **
6A7D  00                 string size (0)
                         source name: (none)
6A7F  08                 line defined (1054)
6A80  B9                 last line defined (1081)
6A81  08                 nups (1)
6A82  01                 numparams (2)
6A83  02                 is_vararg (0)
6A84  00                 maxstacksize (11)
                         * code:
6A86  50                 sizecode (80)
6A87  9D000000           [01] getglobal  2   0        ; 1074689893
6A8B  D2000000           [02] move       3   0      
6A8F  A2800001           [03] call       2   2   2  
6A93  98400000           [04] test       2       1    ; to [6] if false
6A97  1A800380           [05] jmp        15           ; to [21]
6A9B  9D400000           [06] getglobal  2   1        ; gRegion
6A9F  A4804001           [07] self       2   2   258  ; 65205951
6AA3  A2800001           [08] call       2   2   2  
fail op	35
6AA7  23400001           [09] close      0  
6AAB  1A400280           [10] jmp        10           ; to [21]
6AAF  A4C0C000           [11] self       2   1   259  ; 1511086594
6AB3  A2800001           [12] call       2   2   2  
6AB7  98400000           [13] test       2       1    ; to [15] if false
6ABB  1A400180           [14] jmp        6            ; to [21]
6ABF  A400C100           [15] self       2   1   260  ; -1544157541
6AC3  A2800001           [16] call       2   2   2  
6AC7  A4404101           [17] self       2   2   261  ; 1576943691
6ACB  A2800001           [18] call       2   2   2  
fail op	33
6ACF  21800083           [19] tforloop   0       2    ; to [21] if exit
6AD3  1A000080           [20] jmp        1            ; to [22]
6AD7  1E008000           [21] return     0   1      
6ADB  A4C04100           [22] self       2   0   263  ; 129677183
6ADF  A2800001           [23] call       2   2   2  
6AE3  DD000000           [24] getglobal  3   0        ; 1074689893
6AE7  12010001           [25] move       4   2      
6AEB  E2800001           [26] call       3   2   2  
6AEF  D8400000           [27] test       3       1    ; to [29] if false
6AF3  1A000180           [28] jmp        5            ; to [34]
6AF7  E4004201           [29] self       3   2   264  ; 1800191191
6AFB  52018000           [30] move       5   1      
6AFF  E2808001           [31] call       3   3   2  
6B03  D8400000           [32] test       3       1    ; to [34] if false
6B07  1A000080           [33] jmp        1            ; to [35]
6B0B  1E008000           [34] return     0   1      
6B0F  E4404201           [35] self       3   2   265  ; -1917464545
6B13  E2800001           [36] call       3   2   2  
6B17  E480C201           [37] self       3   3   266  ; 1769516121
6B1B  E2800001           [38] call       3   2   2  
6B1F  1D010000           [39] getglobal  4   0        ; 1074689893
6B23  52018001           [40] move       5   3      
6B27  22810001           [41] call       4   2   2  
6B2B  18010000           [42] test       4       0    ; to [44] if true
6B2F  1A000080           [43] jmp        1            ; to [45]
6B33  1E008000           [44] return     0   1      
6B37  24C14200           [45] self       4   0   267  ; -1870903749
6B3B  22810001           [46] call       4   2   2  
6B3F  5D010000           [47] getglobal  5   0        ; 1074689893
6B43  92010002           [48] move       6   4      
6B47  62810001           [49] call       5   2   2  
6B4B  58410000           [50] test       5       1    ; to [52] if false
6B4F  1A400180           [51] jmp        6            ; to [58]
6B53  64014302           [52] self       5   4   268  ; -786111647
6B57  DD410300           [53] getglobal  7   13       ; -332969190
6B5B  19820300           [54] loadk      8   14       ; "Scalar2"
6B5F  E2810001           [55] call       7   2   2  
6B63  19C20300           [56] loadk      8   15       ; 0
6B67  62410002           [57] call       5   4   1  
6B6B  5D010400           [58] getglobal  5   16       ; Lotus_Game
6B6F  4E41C402           [59] gettable   5   5   273  ; 1305134297
6B73  97018000           [60] loadbool   6   1   0    ; true
6B77  62810001           [61] call       5   2   2  
6B7B  A481C402           [62] self       6   5   274  ; -1705141593
6B7F  12028000           [63] move       8   1      
6B83  A2418001           [64] call       6   3   1  
6B87  A4C1C402           [65] self       6   5   275  ; 1255461283
6B8B  24024500           [66] self       8   0   276  ; -803264084
6B8F  22020001           [67] call       8   2   0  
6B93  A2410000           [68] call       6   0   1  
6B97  A441C501           [69] self       6   3   277  ; -123998960
6B9B  2482C501           [70] self       8   3   278  ; 269067035
6B9F  93020000           [71] getupval   10  0      
6BA3  22828001           [72] call       8   3   2  
6BA7  5D420300           [73] getglobal  9   13       ; -332969190
6BAB  99C20500           [74] loadk      10  23       ; "RestoreShields"
6BAF  62820001           [75] call       9   2   2  
6BB3  92028002           [76] move       10  5      
6BB7  A2418002           [77] call       6   5   1  
6BBB  A4014600           [78] self       6   0   280  ; -725453761
6BBF  A2410001           [79] call       6   2   1  
6BC3  1E008000           [80] return     0   1      
                         * constants:
6BC7  19                 sizek (25)
6BC8  01                 const type 3
6BC9  65770E40           const [0]: (1074689893)
6BCD  04                 const type 4
6BCE  08                 string size (8)
6BCF  67526567696F6E00   "gRegion\0"
                         const [1]: "gRegion"
6BD7  01                 const type 3
6BD8  BFF6E203           const [2]: (65205951)
6BDC  01                 const type 3
6BDD  025A115A           const [3]: (1511086594)
6BE1  01                 const type 3
6BE2  9B06F6A3           const [4]: (-1544157541)
6BE6  01                 const type 3
6BE7  4B40FE5D           const [5]: (1576943691)
6BEB  03                 const type 3
6BEC  0000803F           const [6]: (0)
6BF0  01                 const type 3
6BF1  7FB7BA07           const [7]: (129677183)
6BF5  01                 const type 3
6BF6  D7BC4C6B           const [8]: (1800191191)
6BFA  01                 const type 3
6BFB  1FD0B58D           const [9]: (-1917464545)
6BFF  01                 const type 3
6C00  59AC7869           const [10]: (1769516121)
6C04  01                 const type 3
6C05  3B467C90           const [11]: (-1870903749)
6C09  01                 const type 3
6C0A  61E324D1           const [12]: (-786111647)
6C0E  01                 const type 3
6C0F  1A4B27EC           const [13]: (-332969190)
6C13  04                 const type 4
6C14  08                 string size (8)
6C15  5363616C61723200   "Scalar2\0"
                         const [14]: "Scalar2"
6C1D  03                 const type 3
6C1E  00000040           const [15]: (0)
6C22  04                 const type 4
6C23  0B                 string size (11)
6C24  4C6F7475735F4761+  "Lotus_Ga"
6C2C  6D6500             "me\0"
                         const [16]: "Lotus_Game"
6C2F  01                 const type 3
6C30  D9C4CA4D           const [17]: (1305134297)
6C34  01                 const type 3
6C35  A79A5D9A           const [18]: (-1705141593)
6C39  01                 const type 3
6C3A  A3D1D44A           const [19]: (1255461283)
6C3E  01                 const type 3
6C3F  AC291FD0           const [20]: (-803264084)
6C43  01                 const type 3
6C44  10ED9BF8           const [21]: (-123998960)
6C48  01                 const type 3
6C49  1BA30910           const [22]: (269067035)
6C4D  04                 const type 4
6C4E  0F                 string size (15)
6C4F  526573746F726553+  "RestoreS"
6C57  6869656C647300     "hields\0"
                         const [23]: "RestoreShields"
6C5E  01                 const type 3
6C5F  3F74C2D4           const [24]: (-725453761)
                         * functions:
6C63  00                 sizep (0)
                         * lines:
6C64  50                 sizelineinfo (80)
                         [pc] (line)
6C65  1F                 [01] (31)
6C66  04                 [02] (31)
6C67  00                 [03] (31)
6C68  00                 [04] (31)
6C69  1F                 [05] (31)
6C6A  04                 [06] (31)
6C6B  00                 [07] (31)
6C6C  00                 [08] (31)
6C6D  1F                 [09] (31)
6C6E  04                 [10] (31)
6C6F  00                 [11] (31)
6C70  00                 [12] (31)
6C71  1F                 [13] (31)
6C72  04                 [14] (31)
6C73  00                 [15] (31)
6C74  00                 [16] (31)
6C75  1F                 [17] (31)
6C76  04                 [18] (31)
6C77  00                 [19] (31)
6C78  00                 [20] (31)
6C79  1F                 [21] (32)
6C7A  04                 [22] (35)
6C7B  00                 [23] (35)
6C7C  00                 [24] (36)
6C7D  1F                 [25] (36)
6C7E  04                 [26] (36)
6C7F  00                 [27] (36)
6C80  00                 [28] (36)
6C81  1F                 [29] (36)
6C82  04                 [30] (36)
6C83  00                 [31] (36)
6C84  00                 [32] (36)
6C85  1F                 [33] (36)
6C86  04                 [34] (37)
6C87  00                 [35] (40)
6C88  00                 [36] (40)
6C89  1F                 [37] (40)
6C8A  04                 [38] (40)
6C8B  00                 [39] (41)
6C8C  00                 [40] (41)
6C8D  1F                 [41] (41)
6C8E  04                 [42] (41)
6C8F  00                 [43] (41)
6C90  00                 [44] (42)
6C91  1F                 [45] (46)
6C92  04                 [46] (46)
6C93  00                 [47] (47)
6C94  00                 [48] (47)
6C95  1F                 [49] (47)
6C96  04                 [50] (47)
6C97  00                 [51] (47)
6C98  00                 [52] (48)
6C99  1F                 [53] (48)
6C9A  04                 [54] (48)
6C9B  00                 [55] (48)
6C9C  00                 [56] (48)
6C9D  1F                 [57] (48)
6C9E  04                 [58] (51)
6C9F  00                 [59] (51)
6CA0  00                 [60] (51)
6CA1  1F                 [61] (51)
6CA2  04                 [62] (52)
6CA3  00                 [63] (52)
6CA4  00                 [64] (52)
6CA5  1F                 [65] (53)
6CA6  04                 [66] (53)
6CA7  00                 [67] (53)
6CA8  00                 [68] (53)
6CA9  1F                 [69] (54)
6CAA  04                 [70] (54)
6CAB  00                 [71] (54)
6CAC  00                 [72] (54)
6CAD  1F                 [73] (54)
6CAE  04                 [74] (54)
6CAF  00                 [75] (54)
6CB0  00                 [76] (54)
6CB1  1F                 [77] (54)
6CB2  04                 [78] (56)
6CB3  00                 [79] (56)
6CB4  00                 [80] (57)
                         * locals:
6DA5  00                 sizelocvars (0)
                         * upvalues:
6DA6  00                 sizeupvalues (0)
                         ** end of function **

                         
6DA7                     ** function [25] definition (level 2)
                         ** start of function **
6DA7  00                 string size (0)
                         source name: (none)
6DA9  08                 line defined (1083)
6DAA  C1                 last line defined (1089)
6DAB  08                 nups (0)
6DAC  00                 numparams (4)
6DAD  04                 is_vararg (0)
6DAE  00                 maxstacksize (8)
                         * code:
6DB0  11                 sizecode (17)
6DB1  1D010000           [01] getglobal  4   0        ; 1074689893
6DB5  52010001           [02] move       5   2      
6DB9  22810001           [03] call       4   2   2  
6DBD  18410000           [04] test       4       1    ; to [6] if false
6DC1  1AC00080           [05] jmp        4            ; to [10]
6DC5  24414001           [06] self       4   2   257  ; 1511086594
6DC9  22810001           [07] call       4   2   2  
6DCD  18010000           [08] test       4       0    ; to [10] if true
6DD1  1A000080           [09] jmp        1            ; to [11]
6DD5  1E008000           [10] return     0   1      
6DD9  24814001           [11] self       4   2   258  ; -1544157541
6DDD  22810001           [12] call       4   2   2  
6DE1  24C14002           [13] self       4   4   259  ; -1877044716
6DE5  92018001           [14] move       6   3      
6DE9  D7010000           [15] loadbool   7   0   0    ; false
6DED  22410002           [16] call       4   4   1  
6DF1  1E008000           [17] return     0   1      
                         * constants:
6DF5  04                 sizek (4)
6DF6  01                 const type 3
6DF7  65770E40           const [0]: (1074689893)
6DFB  01                 const type 3
6DFC  025A115A           const [1]: (1511086594)
6E00  01                 const type 3
6E01  9B06F6A3           const [2]: (-1544157541)
6E05  01                 const type 3
6E06  14921E90           const [3]: (-1877044716)
                         * functions:
6E0A  00                 sizep (0)
                         * lines:
6E0B  11                 sizelineinfo (17)
                         [pc] (line)
6E0C  3C                 [01] (60)
6E0D  04                 [02] (60)
6E0E  00                 [03] (60)
6E0F  00                 [04] (60)
6E10  3C                 [05] (60)
6E11  04                 [06] (60)
6E12  00                 [07] (60)
6E13  00                 [08] (60)
6E14  3C                 [09] (60)
6E15  04                 [10] (61)
6E16  00                 [11] (64)
6E17  00                 [12] (64)
6E18  3C                 [13] (64)
6E19  04                 [14] (64)
6E1A  00                 [15] (64)
6E1B  00                 [16] (64)
6E1C  3C                 [17] (65)
                         * locals:
6E50  00                 sizelocvars (0)
                         * upvalues:
6E51  00                 sizeupvalues (0)
                         ** end of function **

                         * lines:
6E53  01                 sizelineinfo (214)
                         [pc] (line)
6E54  11                 [001] (17)
6E55  00                 [002] (19)
6E56  00                 [003] (21)
6E57  00                 [004] (23)
6E58  13                 [005] (25)
6E59  00                 [006] (26)
6E5A  00                 [007] (27)
6E5B  00                 [008] (28)
6E5C  15                 [009] (29)
6E5D  00                 [010] (30)
6E5E  00                 [011] (31)
6E5F  00                 [012] (33)
6E60  17                 [013] (33)
6E61  00                 [014] (33)
6E62  00                 [015] (35)
6E63  00                 [016] (35)
6E64  19                 [017] (35)
6E65  00                 [018] (36)
6E66  00                 [019] (36)
6E67  00                 [020] (36)
6E68  1A                 [021] (38)
6E69  00                 [022] (38)
6E6A  00                 [023] (38)
6E6B  00                 [024] (38)
6E6C  1B                 [025] (38)
6E6D  00                 [026] (38)
6E6E  00                 [027] (38)
6E6F  00                 [028] (38)
6E70  1C                 [029] (38)
6E71  00                 [030] (38)
6E72  00                 [031] (38)
6E73  00                 [032] (39)
6E74  1D                 [033] (39)
6E75  00                 [034] (39)
6E76  00                 [035] (39)
6E77  00                 [036] (39)
6E78  1E                 [037] (39)
6E79  00                 [038] (39)
6E7A  00                 [039] (39)
6E7B  00                 [040] (39)
6E7C  1F                 [041] (39)
6E7D  00                 [042] (40)
6E7E  00                 [043] (40)
6E7F  00                 [044] (40)
6E80  21                 [045] (40)
6E81  00                 [046] (40)
6E82  00                 [047] (40)
6E83  00                 [048] (40)
6E84  21                 [049] (40)
6E85  00                 [050] (40)
6E86  00                 [051] (40)
6E87  00                 [052] (41)
6E88  21                 [053] (41)
6E89  00                 [054] (41)
6E8A  00                 [055] (41)
6E8B  00                 [056] (41)
6E8C  23                 [057] (41)
6E8D  00                 [058] (41)
6E8E  00                 [059] (41)
6E8F  00                 [060] (41)
6E90  23                 [061] (41)
6E91  00                 [062] (41)
6E92  00                 [063] (43)
6E93  00                 [064] (43)
6E94  23                 [065] (43)
6E95  00                 [066] (43)
6E96  00                 [067] (43)
6E97  00                 [068] (45)
6E98  24                 [069] (45)
6E99  00                 [070] (45)
6E9A  00                 [071] (45)
6E9B  00                 [072] (45)
6E9C  24                 [073] (45)
6E9D  00                 [074] (45)
6E9E  00                 [075] (45)
6E9F  00                 [076] (46)
6EA0  24                 [077] (47)
6EA1  00                 [078] (47)
6EA2  00                 [079] (47)
6EA3  00                 [080] (48)
6EA4  26                 [081] (48)
6EA5  00                 [082] (48)
6EA6  00                 [083] (49)
6EA7  00                 [084] (49)
6EA8  26                 [085] (49)
6EA9  00                 [086] (50)
6EAA  00                 [087] (50)
6EAB  00                 [088] (50)
6EAC  26                 [089] (51)
6EAD  00                 [090] (79)
6EAE  00                 [091] (79)
6EAF  00                 [092] (79)
6EB0  26                 [093] (79)
6EB1  00                 [094] (79)
6EB2  00                 [095] (79)
6EB3  00                 [096] (98)
6EB4  26                 [097] (98)
6EB5  00                 [098] (98)
6EB6  00                 [099] (98)
6EB7  00                 [100] (122)
6EB8  26                 [101] (122)
6EB9  00                 [102] (122)
6EBA  00                 [103] (-120)
6EBB  00                 [104] (-120)
6EBC  26                 [105] (-120)
6EBD  00                 [106] (-78)
6EBE  00                 [107] (-78)
6EBF  00                 [108] (-78)
6EC0  26                 [109] (-78)
6EC1  00                 [110] (-78)
6EC2  00                 [111] (-55)
6EC3  00                 [112] (-55)
6EC4  26                 [113] (-55)
6EC5  00                 [114] (-55)
6EC6  00                 [115] (-55)
6EC7  00                 [116] (-55)
6EC8  26                 [117] (-55)
6EC9  00                 [118] (-55)
6ECA  00                 [119] (-55)
6ECB  00                 [120] (-76)
6ECC  26                 [121] (-38)
6ECD  00                 [122] (-38)
6ECE  00                 [123] (-38)
6ECF  00                 [124] (-38)
6ED0  27                 [125] (-38)
6ED1  00                 [126] (-53)
6ED2  00                 [127] (-32)
6ED3  00                 [128] (-32)
6ED4  27                 [129] (-32)
6ED5  00                 [130] (-36)
6ED6  00                 [131] (-11)
6ED7  00                 [132] (-11)
6ED8  27                 [133] (-30)
6ED9  00                 [134] (4)
6EDA  00                 [135] (4)
6EDB  00                 [136] (-9)
6EDC  27                 [137] (75)
6EDD  00                 [138] (75)
6EDE  00                 [139] (75)
6EDF  00                 [140] (75)
6EE0  27                 [141] (75)
6EE1  00                 [142] (75)
6EE2  00                 [143] (75)
6EE3  00                 [144] (75)
6EE4  27                 [145] (6)
6EE5  00                 [146] (87)
6EE6  00                 [147] (87)
6EE7  00                 [148] (77)
6EE8  27                 [149] (103)
6EE9  00                 [150] (103)
6EEA  00                 [151] (111)
6EEB  00                 [152] (107)
6EEC  27                 [153] (107)
6EED  00                 [154] (107)
6EEE  00                 [155] (107)
6EEF  00                 [156] (107)
6EF0  27                 [157] (107)
6EF1  00                 [158] (107)
6EF2  00                 [159] (107)
6EF3  00                 [160] (107)
6EF4  27                 [161] (107)
6EF5  00                 [162] (107)
6EF6  00                 [163] (107)
6EF7  00                 [164] (107)
6EF8  28                 [165] (107)
6EF9  00                 [166] (107)
6EFA  00                 [167] (107)
6EFB  00                 [168] (113)
6EFC  28                 [169] (121)
6EFD  00                 [170] (121)
6EFE  00                 [171] (109)
6EFF  00                 [172] (-59)
6F00  28                 [173] (-59)
6F01  00                 [174] (-59)
6F02  00                 [175] (126)
6F03  00                 [176] (-43)
6F04  28                 [177] (-39)
6F05  00                 [178] (-39)
6F06  00                 [179] (-39)
6F07  00                 [180] (-41)
6F08  28                 [181] (-37)
6F09  00                 [182] (-72)
6F0A  00                 [183] (-72)
6F0B  00                 [184] (-72)
6F0C  28                 [185] (-72)
6F0D  00                 [186] (-72)
6F0E  00                 [187] (-72)
6F0F  00                 [188] (-72)
6F10  28                 [189] (-72)
6F11  00                 [190] (-72)
6F12  00                 [191] (-36)
6F13  00                 [192] (-46)
6F14  28                 [193] (-46)
6F15  00                 [194] (-46)
6F16  00                 [195] (-70)
6F17  00                 [196] (-36)
6F18  28                 [197] (-36)
6F19  00                 [198] (-36)
6F1A  00                 [199] (-44)
6F1B  00                 [200] (-9)
6F1C  28                 [201] (-9)
6F1D  00                 [202] (-9)
6F1E  00                 [203] (-31)
6F1F  00                 [204] (25)
6F20  29                 [205] (25)
6F21  00                 [206] (-7)
6F22  00                 [207] (57)
6F23  00                 [208] (57)
6F24  29                 [209] (57)
6F25  00                 [210] (30)
6F26  00                 [211] (65)
6F27  00                 [212] (65)
6F28  29                 [213] (59)
6F29  00                 [214] (65)
                         * locals:
71AC  00                 sizelocvars (0)
                         * upvalues:
71AD  00                 sizeupvalues (0)
                         ** end of function **

71AE                     ** end of chunk **
