1	C:\wlua_dump\path\Lotus\Powersuits\PowersuitAbilitiesOverLoad.lua
Pos   Hex Data           Description or Code
------------------------------------------------------------------------
0000                     ** source chunk: C:\wlua_dump\path\Lotus\Powersuits\PowersuitAbilitiesOverLoad.lua
                         ** global header start **
0000  7F                 header signature: ""
0001  00                 version (major:minor hex digits)
0002  00                 format (0=official)
0003  00                 endianness (1=little endian)
0004  00                 size of int (bytes)
0005  00                 size of size_t (bytes)
0006  02                 size of Instruction (bytes)
0007  18                 size of number (bytes)
0008  85                 integral (1=integral)
4133
                         * number type: single
                         * x86 standard (32-bit, little endian, doubles)
                         ** global header end **
Lotus.Powersuits.PowersuitAbilities.PVPLib
/EE/Types/Game/Avatar
/EE/Types/Engine/HitProxy
/EE/Types/Physics/Ragdoll
/EE/Types/Game/PickUp
UnlitAtten
Lotus.Scripts.Libs.AbilitiesLib
GetAbilityUpgradeLevelInfo
GetAugmentDescriptionInfo
InitializeAbility
NpcEvaluateAbility
instigatorAvatar
spawner
distance
TeslaCoil
ActivateAbility
AmbientLightning
TeslaCoilSpawner
x
math
y
z
gRegion
ShockAmbientBeam
mBoneName
ZERO_VECTOR
ZERO_ROTATION
gRegion
ambientBeamEffectType
Game
AVATAR_ABILITY_RANGE
AVATAR_ABILITY_STRENGTH
AVATAR_ABILITY_DURATION
Lotus_Game
PowerSuit_AUGMENT_ONE
Lotus_Game
PowerSuit_AUGMENT_ONE
_T
AbilityLevelQueryParms
Avatar
Ability
Lotus_Game
PowerSuit_AUGMENT_ONE
Modded
table
Label
/Lotus/Language/Suits/OverloadAbilityAugment1Name
Title
/Lotus/Language/Game/ABSORB_AMOUNT
Value
ValueIcon
<SHIELD>
ValueUnit
/Lotus/Language/Game/UNIT_PERCENT
_T
AbilityLevelQueryParms
Level
Modded
Avatar
table
Label
/Lotus/Language/Game/ABILITY_RADIUS
Value
ValueUnit
/Lotus/Language/Game/UNIT_METER
/Lotus/Language/Game/EFFECT_RADIUS
/Lotus/Language/Game/POWER_DURATION
/Lotus/Language/Game/UNIT_SECOND
/Lotus/Language/Game/DPS
ValueIcon
<DT_ELECTRICITY>
/Lotus/Language/Game/EFFECT_DURATION
AbilityUpgradeLevelInfo
Lotus_Game
PowerSuit_AUGMENT_ONE
SHIELD_PCT
string

cjson
mOwner
gGameRules
gLotusAvatarType
instigatorAvatar
spawner
distance
lootCrateType
gLotusNpcAvatarType
gRegion
table
_T
voltOverload
crateVictims
avatarVictims
ABILITY_INDEX
Lotus_Game
PowerSuit_AUGMENT_ONE
gClient
particleSysQuality
Engine
TORSO
DT_ELECTRICITY
minValue
math
maxValue
ELECTRIFIED_LOOP
AR_IMMUNE_ALL
ATMM_ANIMATION_DRIVEN
PRT_LOOP
bonusDamage
baseAmount
gLotusAvatarType
coilAttackBeam
ZERO_VECTOR
ZERO_ROTATION
ELECTRIFIED_END
PRT_ONCE
gRegion
pathBeamType
ZERO_ROTATION
pathPointEffect
table
gRegion
pathBeamType
ZERO_ROTATION
pathPointEffect
math
radius
dps
coilDuration
radiusMult
Lotus_Game
PowerSuit_AUGMENT_ONE
augmentConversionPct
mOwner
AmbientLightning
OverloadCast
EMPTY_SYMBOL
activateAnim
OverloadAttackStart
Engine
ATMM_PHYSICS_DRIVEN
PRT_ONCE
gRegion
OverloadCastBurst
ZERO_ROTATION
OverloadSphere
pos
_T
voltOverload
crateVictims
avatarVictims
bonusDamage
OverloadEnemyAttach
lootCrateType
distance
ZERO_VECTOR
gLotusNpcAvatarType
AR_IMMUNE_ALL
gTennoAvatarType
math
gClient
particleSysQuality
Game
AVATAR_CASTING_SPEED
ShockAmbientBeam
mBoneName
ZERO_VECTOR
ZERO_ROTATION
gRegion
ambientBeamEffectType
ABILITY_INDEX
Lotus_Game
PowerSuit_AUGMENT_ONE
radius
dps
coilDuration
minValue
radiusMult
maxValue
augmentConversionPct
gRegion
distance
pos
FLT_MAX
instigatorAvatar
spawner
TeslaCoil
gClient
particleSysQuality
gBaseAvatarType
ShockAmbientBeam
mBoneName
ZERO_VECTOR
ZERO_ROTATION
ambientBeamEffectType
                         
0001                     ** function [0] definition (level 1)
                         ** start of function **
0001  00                 string size (0)
                         source name: (none)
0002  00                 line defined (0)
0003  00                 last line defined (0)
0004  00                 nups (0)
0005  00                 numparams (0)
0006  02                 is_vararg (2)
0007  18                 maxstacksize (24)
                         * code:
0009  01                 sizecode (133)
000A  1D000000           [001] getglobal  0   0        ; 849075268
000E  59400000           [002] loadk      1   1        ; "Lotus.Powersuits.PowersuitAbilities.PVPLib"
0012  22800001           [003] call       0   2   2  
0016  4B008001           [004] newtable   1   3   0    ; array=3, hash=0
001A  9D800000           [005] getglobal  2   2        ; 738251817
001E  D9C00000           [006] loadk      3   3        ; "/EE/Types/Game/Avatar"
0022  A2800001           [007] call       2   2   2  
0026  DD800000           [008] getglobal  3   2        ; 738251817
002A  19010100           [009] loadk      4   4        ; "/EE/Types/Engine/HitProxy"
002E  E2800001           [010] call       3   2   2  
0032  1D810000           [011] getglobal  4   2        ; 738251817
0036  59410100           [012] loadk      5   5        ; "/EE/Types/Physics/Ragdoll"
003A  22810001           [013] call       4   2   2  
003E  5D810000           [014] getglobal  5   2        ; 738251817
0042  99810100           [015] loadk      6   6        ; "/EE/Types/Game/PickUp"
0046  62010001           [016] call       5   2   0  
004A  5B400000           [017] setlist    1   0   1    ; index 1 to top
004E  9DC00100           [018] getglobal  2   7        ; -332969190
0052  D9000200           [019] loadk      3   8        ; "UnlitAtten"
0056  A2800001           [020] call       2   2   2  
005A  DD000000           [021] getglobal  3   0        ; 849075268
005E  19410200           [022] loadk      4   9        ; "Lotus.Scripts.Libs.AbilitiesLib"
0062  E2800001           [023] call       3   2   2  
0066  19810200           [024] loadk      4   10       ; 0
006A  59C10200           [025] loadk      5   11       ; 0
006E  9D010300           [026] getglobal  6   12       ; 160735655
0072  D9810200           [027] loadk      7   10       ; 0
0076  19420300           [028] loadk      8   13       ; 0
007A  A2818001           [029] call       6   3   2  
007E  D9810300           [030] loadk      7   14       ; 0
0082  19C20300           [031] loadk      8   15       ; 0
0086  59820300           [032] loadk      9   14       ; 0
008A  99020400           [033] loadk      10  16       ; 0
008E  D9820300           [034] loadk      11  14       ; 0
0092  19430400           [035] loadk      12  17       ; -51
0096  65030000           [036] closure    13  0      
009A  12000000           [037] move       0   0      
009E  12008003           [038] move       0   7      
00A2  12000004           [039] move       0   8      
00A6  12008004           [040] move       0   9      
00AA  12000005           [041] move       0   10     
00AE  12008005           [042] move       0   11     
00B2  12000002           [043] move       0   4      
00B6  A5430000           [044] closure    14  1      
00BA  12008000           [045] move       0   1      
00BE  E5830000           [046] closure    15  2      
00C2  12000007           [047] move       0   14     
00C6  25C40000           [048] closure    16  3      
00CA  12008003           [049] move       0   7      
00CE  12000004           [050] move       0   8      
00D2  12008004           [051] move       0   9      
00D6  12008005           [052] move       0   11     
00DA  65040100           [053] closure    17  4      
00DE  12000006           [054] move       0   12     
00E2  A5440100           [055] closure    18  5      
00E6  12000006           [056] move       0   12     
00EA  E5840100           [057] closure    19  6      
00EE  12008008           [058] move       0   17     
00F2  12000006           [059] move       0   12     
00F6  12000009           [060] move       0   18     
00FA  25C50100           [061] closure    20  7      
00FE  12008006           [062] move       0   13     
0102  12008003           [063] move       0   7      
0106  12000004           [064] move       0   8      
010A  12008004           [065] move       0   9      
010E  12008005           [066] move       0   11     
0112  12000008           [067] move       0   16     
0116  12000005           [068] move       0   10     
011A  12008009           [069] move       0   19     
011E  20850400           [070] setglobal  20  18       ; GetAbilityUpgradeLevelInfo
0122  20C50400           [071] setglobal  20  19       ; 1116007653
0126  25050200           [072] closure    20  8      
012A  12008008           [073] move       0   17     
012E  12000006           [074] move       0   12     
0132  20050500           [075] setglobal  20  20       ; GetAugmentDescriptionInfo
0136  20450500           [076] setglobal  20  21       ; -1230779966
013A  25450200           [077] closure    20  9      
013E  12000000           [078] move       0   0      
0142  20850500           [079] setglobal  20  22       ; InitializeAbility
0146  20C50500           [080] setglobal  20  23       ; 1004283918
014A  25850200           [081] closure    20  10     
014E  20050600           [082] setglobal  20  24       ; NpcEvaluateAbility
0152  20450600           [083] setglobal  20  25       ; -319690153
0156  0BC50000           [084] newtable   20  0   3    ; array=0, hash=3
015A  0CC5468D           [085] settable   20  282 283  ; "instigatorAvatar" nil
015E  0CC5468E           [086] settable   20  284 283  ; "spawner" nil
0162  0C85C78E           [087] settable   20  285 286  ; "distance" 0
0166  65C50200           [088] closure    21  11     
016A  1200000A           [089] move       0   20     
016E  12008007           [090] move       0   15     
0172  12008005           [091] move       0   11     
0176  12000003           [092] move       0   6      
017A  12008002           [093] move       0   5      
017E  12008004           [094] move       0   9      
0182  12000002           [095] move       0   4      
0186  12000004           [096] move       0   8      
018A  12000006           [097] move       0   12     
018E  60C50700           [098] setglobal  21  31       ; TeslaCoil
0192  60050800           [099] setglobal  21  32       ; 1375380885
0196  65050300           [100] closure    21  12     
019A  A5450300           [101] closure    22  13     
019E  E5850300           [102] closure    23  14     
01A2  12008006           [103] move       0   13     
01A6  12000008           [104] move       0   16     
01AA  12000004           [105] move       0   8      
01AE  12008008           [106] move       0   17     
01B2  12000009           [107] move       0   18     
01B6  12008001           [108] move       0   3      
01BA  12000000           [109] move       0   0      
01BE  12000005           [110] move       0   10     
01C2  1200000B           [111] move       0   22     
01C6  12000001           [112] move       0   2      
01CA  E0450800           [113] setglobal  23  33       ; ActivateAbility
01CE  E0850800           [114] setglobal  23  34       ; -871687712
01D2  E5C50300           [115] closure    23  15     
01D6  12000007           [116] move       0   14     
01DA  E0C50800           [117] setglobal  23  35       ; AmbientLightning
01DE  E0050900           [118] setglobal  23  36       ; -689780759
01E2  E5050400           [119] closure    23  16     
01E6  12008006           [120] move       0   13     
01EA  12008008           [121] move       0   17     
01EE  12008001           [122] move       0   3      
01F2  12000004           [123] move       0   8      
01F6  12008004           [124] move       0   9      
01FA  12008005           [125] move       0   11     
01FE  12000003           [126] move       0   6      
0202  12000006           [127] move       0   12     
0206  1200000B           [128] move       0   22     
020A  1200000A           [129] move       0   20     
020E  12000007           [130] move       0   14     
0212  E0450900           [131] setglobal  23  37       ; TeslaCoilSpawner
0216  E0850900           [132] setglobal  23  38       ; -638741795
021A  1E008000           [133] return     0   1      
                         * constants:
021E  27                 sizek (39)
021F  01                 const type 3
0220  44DC9B32           const [0]: (849075268)
0224  04                 const type 4
0225  2B                 string size (43)
0226  4C6F7475732E506F+  "Lotus.Po"
022E  7765727375697473+  "wersuits"
0236  2E506F7765727375+  ".Powersu"
023E  69744162696C6974+  "itAbilit"
0246  6965732E5056504C+  "ies.PVPL"
024E  696200             "ib\0"
                         const [1]: "Lotus.Powersuits.PowersuitAbilities.PVPLib"
0251  01                 const type 3
0252  29D4002C           const [2]: (738251817)
0256  04                 const type 4
0257  16                 string size (22)
0258  2F45452F54797065+  "/EE/Type"
0260  732F47616D652F41+  "s/Game/A"
0268  766174617200       "vatar\0"
                         const [3]: "/EE/Types/Game/Avatar"
026E  04                 const type 4
026F  1A                 string size (26)
0270  2F45452F54797065+  "/EE/Type"
0278  732F456E67696E65+  "s/Engine"
0280  2F48697450726F78+  "/HitProx"
0288  7900               "y\0"
                         const [4]: "/EE/Types/Engine/HitProxy"
028A  04                 const type 4
028B  1A                 string size (26)
028C  2F45452F54797065+  "/EE/Type"
0294  732F506879736963+  "s/Physic"
029C  732F526167646F6C+  "s/Ragdol"
02A4  6C00               "l\0"
                         const [5]: "/EE/Types/Physics/Ragdoll"
02A6  04                 const type 4
02A7  16                 string size (22)
02A8  2F45452F54797065+  "/EE/Type"
02B0  732F47616D652F50+  "s/Game/P"
02B8  69636B557000       "ickUp\0"
                         const [6]: "/EE/Types/Game/PickUp"
02BE  01                 const type 3
02BF  1A4B27EC           const [7]: (-332969190)
02C3  04                 const type 4
02C4  0B                 string size (11)
02C5  556E6C6974417474+  "UnlitAtt"
02CD  656E00             "en\0"
                         const [8]: "UnlitAtten"
02D0  04                 const type 4
02D1  20                 string size (32)
02D2  4C6F7475732E5363+  "Lotus.Sc"
02DA  72697074732E4C69+  "ripts.Li"
02E2  62732E4162696C69+  "bs.Abili"
02EA  746965734C696200   "tiesLib\0"
                         const [9]: "Lotus.Scripts.Libs.AbilitiesLib"
02F2  03                 const type 3
02F3  0000A040           const [10]: (0)
02F7  03                 const type 3
02F8  0000003F           const [11]: (0)
02FC  01                 const type 3
02FD  A7A19409           const [12]: (160735655)
0301  03                 const type 3
0302  00007041           const [13]: (0)
0306  03                 const type 3
0307  00002041           const [14]: (0)
030B  03                 const type 3
030C  00008040           const [15]: (0)
0310  03                 const type 3
0311  00004040           const [16]: (0)
0315  03                 const type 3
0316  CDCCCC3C           const [17]: (-51)
031A  04                 const type 4
031B  1B                 string size (27)
031C  4765744162696C69+  "GetAbili"
0324  7479557067726164+  "tyUpgrad"
032C  654C6576656C496E+  "eLevelIn"
0334  666F00             "fo\0"
                         const [18]: "GetAbilityUpgradeLevelInfo"
0337  01                 const type 3
0338  E5EC8442           const [19]: (1116007653)
033C  04                 const type 4
033D  1A                 string size (26)
033E  4765744175676D65+  "GetAugme"
0346  6E74446573637269+  "ntDescri"
034E  7074696F6E496E66+  "ptionInf"
0356  6F00               "o\0"
                         const [20]: "GetAugmentDescriptionInfo"
0358  01                 const type 3
0359  C2C9A3B6           const [21]: (-1230779966)
035D  04                 const type 4
035E  12                 string size (18)
035F  496E697469616C69+  "Initiali"
0367  7A654162696C6974+  "zeAbilit"
036F  7900               "y\0"
                         const [22]: "InitializeAbility"
0371  01                 const type 3
0372  0E28DC3B           const [23]: (1004283918)
0376  04                 const type 4
0377  13                 string size (19)
0378  4E70634576616C75+  "NpcEvalu"
0380  6174654162696C69+  "ateAbili"
0388  747900             "ty\0"
                         const [24]: "NpcEvaluateAbility"
038B  01                 const type 3
038C  57EAF1EC           const [25]: (-319690153)
0390  04                 const type 4
0391  11                 string size (17)
0392  696E737469676174+  "instigat"
039A  6F72417661746172+  "orAvatar"
03A2  00                 "\0"
                         const [26]: "instigatorAvatar"
03A3  00                 const type 0
                         const [27]: nil
03A4  04                 const type 4
03A5  08                 string size (8)
03A6  737061776E657200   "spawner\0"
                         const [28]: "spawner"
03AE  04                 const type 4
03AF  09                 string size (9)
03B0  64697374616E6365+  "distance"
03B8  00                 "\0"
                         const [29]: "distance"
03B9  03                 const type 3
03BA  00000000           const [30]: (0)
03BE  04                 const type 4
03BF  0A                 string size (10)
03C0  5465736C61436F69+  "TeslaCoi"
03C8  6C00               "l\0"
                         const [31]: "TeslaCoil"
03CA  01                 const type 3
03CB  95A5FA51           const [32]: (1375380885)
03CF  04                 const type 4
03D0  10                 string size (16)
03D1  4163746976617465+  "Activate"
03D9  4162696C69747900   "Ability\0"
                         const [33]: "ActivateAbility"
03E1  01                 const type 3
03E2  E0190BCC           const [34]: (-871687712)
03E6  04                 const type 4
03E7  11                 string size (17)
03E8  416D6269656E744C+  "AmbientL"
03F0  696768746E696E67+  "ightning"
03F8  00                 "\0"
                         const [35]: "AmbientLightning"
03F9  01                 const type 3
03FA  E9C7E2D6           const [36]: (-689780759)
03FE  04                 const type 4
03FF  11                 string size (17)
0400  5465736C61436F69+  "TeslaCoi"
0408  6C537061776E6572+  "lSpawner"
0410  00                 "\0"
                         const [37]: "TeslaCoilSpawner"
0411  01                 const type 3
0412  DD92EDD9           const [38]: (-638741795)
                         * functions:
0416  11                 sizep (17)
                         
0417                     ** function [0] definition (level 2)
                         ** start of function **
0417  00                 string size (0)
                         source name: (none)
0418  20                 line defined (32)
0419  58                 last line defined (88)
041A  07                 nups (7)
041B  01                 numparams (1)
041C  00                 is_vararg (0)
041D  02                 maxstacksize (2)
                         * code:
041E  6B                 sizecode (107)
041F  53000000           [001] getupval   1   0      
0423  4E00C000           [002] gettable   1   1   256  ; 590154099
0427  62808000           [003] call       1   1   2  
042B  58400000           [004] test       1       1    ; to [6] if false
042F  1A400C80           [005] jmp        50           ; to [56]
fail op	35
0433  23404000           [006] close      0  
0437  1A800280           [007] jmp        11           ; to [19]
043B  59800000           [008] loadk      1   2        ; 0
fail op	8
043F  48008000           [009] setupval   1   1      
0443  59C00000           [010] loadk      1   3        ; 0
fail op	8
0447  48000001           [011] setupval   1   2      
044B  59000100           [012] loadk      1   4        ; 0
fail op	8
044F  48008001           [013] setupval   1   3      
0453  59400100           [014] loadk      1   5        ; 0
fail op	8
0457  48000002           [015] setupval   1   4      
045B  59400100           [016] loadk      1   5        ; 0
fail op	8
045F  48008002           [017] setupval   1   5      
0463  1AC01580           [018] jmp        88           ; to [107]
fail op	35
0467  23804100           [019] close      0  
046B  1A800280           [020] jmp        11           ; to [32]
046F  59C00100           [021] loadk      1   7        ; 0
fail op	8
0473  48008000           [022] setupval   1   1      
0477  59C00000           [023] loadk      1   3        ; 0
fail op	8
047B  48000001           [024] setupval   1   2      
047F  59000200           [025] loadk      1   8        ; 0
fail op	8
0483  48008001           [026] setupval   1   3      
0487  59400100           [027] loadk      1   5        ; 0
fail op	8
048B  48000002           [028] setupval   1   4      
048F  59C00000           [029] loadk      1   3        ; 0
fail op	8
0493  48008002           [030] setupval   1   5      
0497  1A801280           [031] jmp        75           ; to [107]
fail op	35
049B  23404100           [032] close      0  
049F  1A800280           [033] jmp        11           ; to [45]
04A3  59400200           [034] loadk      1   9        ; 0
fail op	8
04A7  48008000           [035] setupval   1   1      
04AB  59800200           [036] loadk      1   10       ; 0
fail op	8
04AF  48000001           [037] setupval   1   2      
04B3  59C00200           [038] loadk      1   11       ; 0
fail op	8
04B7  48008001           [039] setupval   1   3      
04BB  59C00000           [040] loadk      1   3        ; 0
fail op	8
04BF  48000002           [041] setupval   1   4      
04C3  59000300           [042] loadk      1   12       ; 0
fail op	8
04C7  48008002           [043] setupval   1   5      
04CB  1A400F80           [044] jmp        62           ; to [107]
04CF  59400300           [045] loadk      1   13       ; 0
fail op	8
04D3  48008000           [046] setupval   1   1      
04D7  59800300           [047] loadk      1   14       ; 0
fail op	8
04DB  48000001           [048] setupval   1   2      
04DF  59C00300           [049] loadk      1   15       ; 0
fail op	8
04E3  48008001           [050] setupval   1   3      
04E7  59C00000           [051] loadk      1   3        ; 0
fail op	8
04EB  48000002           [052] setupval   1   4      
04EF  59800200           [053] loadk      1   10       ; 0
fail op	8
04F3  48008002           [054] setupval   1   5      
04F7  1A800C80           [055] jmp        51           ; to [107]
04FB  59400000           [056] loadk      1   1        ; 0
fail op	8
04FF  48000003           [057] setupval   1   6      
fail op	35
0503  23404000           [058] close      0  
0507  1A800280           [059] jmp        11           ; to [71]
050B  59000300           [060] loadk      1   12       ; 0
fail op	8
050F  48008000           [061] setupval   1   1      
0513  59C00000           [062] loadk      1   3        ; 0
fail op	8
0517  48000001           [063] setupval   1   2      
051B  59000400           [064] loadk      1   16       ; 0
fail op	8
051F  48008001           [065] setupval   1   3      
0523  59400000           [066] loadk      1   1        ; 0
fail op	8
0527  48000002           [067] setupval   1   4      
052B  59400100           [068] loadk      1   5        ; 0
fail op	8
052F  48008002           [069] setupval   1   5      
0533  1AC00880           [070] jmp        36           ; to [107]
fail op	35
0537  23804100           [071] close      0  
053B  1A800280           [072] jmp        11           ; to [84]
053F  59800200           [073] loadk      1   10       ; 0
fail op	8
0543  48008000           [074] setupval   1   1      
0547  59C00000           [075] loadk      1   3        ; 0
fail op	8
054B  48000001           [076] setupval   1   2      
054F  59400400           [077] loadk      1   17       ; 0
fail op	8
0553  48008001           [078] setupval   1   3      
0557  59400000           [079] loadk      1   1        ; 0
fail op	8
055B  48000002           [080] setupval   1   4      
055F  59400100           [081] loadk      1   5        ; 0
fail op	8
0563  48008002           [082] setupval   1   5      
0567  1A800580           [083] jmp        23           ; to [107]
fail op	35
056B  23404100           [084] close      0  
056F  1A800280           [085] jmp        11           ; to [97]
0573  59800400           [086] loadk      1   18       ; 0
fail op	8
0577  48008000           [087] setupval   1   1      
057B  59C00000           [088] loadk      1   3        ; 0
fail op	8
057F  48000001           [089] setupval   1   2      
0583  59C00400           [090] loadk      1   19       ; 0
fail op	8
0587  48008001           [091] setupval   1   3      
058B  59400000           [092] loadk      1   1        ; 0
fail op	8
058F  48000002           [093] setupval   1   4      
0593  59400100           [094] loadk      1   5        ; 0
fail op	8
0597  48008002           [095] setupval   1   5      
059B  1A400280           [096] jmp        10           ; to [107]
059F  59800300           [097] loadk      1   14       ; 0
fail op	8
05A3  48008000           [098] setupval   1   1      
05A7  59C00000           [099] loadk      1   3        ; 0
fail op	8
05AB  48000001           [100] setupval   1   2      
05AF  59000500           [101] loadk      1   20       ; 0
fail op	8
05B3  48008001           [102] setupval   1   3      
05B7  59400000           [103] loadk      1   1        ; 0
fail op	8
05BB  48000002           [104] setupval   1   4      
05BF  59400100           [105] loadk      1   5        ; 0
fail op	8
05C3  48008002           [106] setupval   1   5      
05C7  1E008000           [107] return     0   1      
                         * constants:
05CB  15                 sizek (21)
05CC  01                 const type 3
05CD  73092D23           const [0]: (590154099)
05D1  03                 const type 3
05D2  0000803F           const [1]: (0)
05D6  03                 const type 3
05D7  00004041           const [2]: (0)
05DB  03                 const type 3
05DC  00008040           const [3]: (0)
05E0  03                 const type 3
05E1  0000FA43           const [4]: (0)
05E5  03                 const type 3
05E6  00004040           const [5]: (0)
05EA  03                 const type 3
05EB  00000040           const [6]: (0)
05EF  03                 const type 3
05F0  00007041           const [7]: (0)
05F4  03                 const type 3
05F5  00803B44           const [8]: (0)
05F9  03                 const type 3
05FA  00009041           const [9]: (0)
05FE  03                 const type 3
05FF  0000C040           const [10]: (0)
0603  03                 const type 3
0604  00007A44           const [11]: (0)
0608  03                 const type 3
0609  0000A040           const [12]: (0)
060D  03                 const type 3
060E  0000A041           const [13]: (0)
0612  03                 const type 3
0613  00000041           const [14]: (0)
0617  03                 const type 3
0618  00009644           const [15]: (0)
061C  03                 const type 3
061D  00008C42           const [16]: (0)
0621  03                 const type 3
0622  0000A042           const [17]: (0)
0626  03                 const type 3
0627  0000E040           const [18]: (0)
062B  03                 const type 3
062C  0000B442           const [19]: (0)
0630  03                 const type 3
0631  0000C842           const [20]: (0)
                         * functions:
0635  00                 sizep (0)
                         * lines:
0636  6B                 sizelineinfo (107)
                         [pc] (line)
0637  21                 [001] (33)
0638  00                 [002] (33)
0639  00                 [003] (33)
063A  00                 [004] (33)
063B  21                 [005] (33)
063C  00                 [006] (34)
063D  00                 [007] (34)
063E  00                 [008] (35)
063F  21                 [009] (35)
0640  00                 [010] (36)
0641  00                 [011] (36)
0642  00                 [012] (37)
0643  21                 [013] (37)
0644  00                 [014] (38)
0645  00                 [015] (38)
0646  00                 [016] (39)
0647  21                 [017] (39)
0648  00                 [018] (39)
0649  00                 [019] (40)
064A  00                 [020] (40)
064B  22                 [021] (41)
064C  00                 [022] (41)
064D  00                 [023] (42)
064E  00                 [024] (42)
064F  22                 [025] (43)
0650  00                 [026] (43)
0651  00                 [027] (44)
0652  00                 [028] (44)
0653  23                 [029] (45)
0654  00                 [030] (45)
0655  00                 [031] (45)
0656  00                 [032] (46)
0657  23                 [033] (46)
0658  00                 [034] (47)
0659  00                 [035] (47)
065A  00                 [036] (48)
065B  24                 [037] (48)
065C  00                 [038] (49)
065D  00                 [039] (49)
065E  00                 [040] (50)
065F  24                 [041] (50)
0660  00                 [042] (51)
0661  00                 [043] (51)
0662  00                 [044] (51)
0663  25                 [045] (53)
0664  00                 [046] (53)
0665  00                 [047] (54)
0666  00                 [048] (54)
0667  25                 [049] (55)
0668  00                 [050] (55)
0669  00                 [051] (56)
066A  00                 [052] (56)
066B  26                 [053] (57)
066C  00                 [054] (57)
066D  00                 [055] (58)
066E  00                 [056] (60)
066F  26                 [057] (60)
0670  00                 [058] (62)
0671  00                 [059] (62)
0672  00                 [060] (63)
0673  27                 [061] (63)
0674  00                 [062] (64)
0675  00                 [063] (64)
0676  00                 [064] (65)
0677  27                 [065] (65)
0678  00                 [066] (66)
0679  00                 [067] (66)
067A  00                 [068] (67)
067B  27                 [069] (67)
067C  00                 [070] (67)
067D  00                 [071] (68)
067E  00                 [072] (68)
067F  28                 [073] (69)
0680  00                 [074] (69)
0681  00                 [075] (70)
0682  00                 [076] (70)
0683  28                 [077] (71)
0684  00                 [078] (71)
0685  00                 [079] (72)
0686  00                 [080] (72)
0687  29                 [081] (73)
0688  00                 [082] (73)
0689  00                 [083] (73)
068A  00                 [084] (74)
068B  29                 [085] (74)
068C  00                 [086] (75)
068D  00                 [087] (75)
068E  00                 [088] (76)
068F  2A                 [089] (76)
0690  00                 [090] (77)
0691  00                 [091] (77)
0692  00                 [092] (78)
0693  2A                 [093] (78)
0694  00                 [094] (79)
0695  00                 [095] (79)
0696  00                 [096] (79)
0697  2B                 [097] (81)
0698  00                 [098] (81)
0699  00                 [099] (82)
069A  00                 [100] (82)
069B  2B                 [101] (83)
069C  00                 [102] (83)
069D  00                 [103] (84)
069E  00                 [104] (84)
069F  2C                 [105] (85)
06A0  00                 [106] (85)
06A1  00                 [107] (88)
                         * locals:
07E3  00                 sizelocvars (0)
                         * upvalues:
07E4  00                 sizeupvalues (0)
                         ** end of function **

                         
07E5                     ** function [1] definition (level 2)
                         ** start of function **
07E5  00                 string size (0)
                         source name: (none)
07E6  5A                 line defined (90)
07E7  68                 last line defined (104)
07E8  01                 nups (1)
07E9  01                 numparams (1)
07EA  00                 is_vararg (0)
07EB  0B                 maxstacksize (11)
                         * code:
07EC  44                 sizecode (68)
07ED  5D000000           [01] getglobal  1   0        ; 572299008
07F1  8E404000           [02] gettable   2   0   257  ; "x"
07F5  DD800000           [03] getglobal  3   2        ; math
07F9  CEC0C001           [04] gettable   3   3   259  ; -2040962569
07FD  19010100           [05] loadk      4   4        ; 0
0801  59410100           [06] loadk      5   5        ; 0
0805  E2808001           [07] call       3   3   2  
0809  83C00001           [08] add        2   2   3  
080D  CE804100           [09] gettable   3   0   262  ; "y"
0811  1D810000           [10] getglobal  4   2        ; math
0815  0EC14002           [11] gettable   4   4   259  ; -2040962569
0819  59010100           [12] loadk      5   4        ; 0
081D  99410100           [13] loadk      6   5        ; 0
0821  22818001           [14] call       4   3   2  
0825  CD008101           [15] sub        3   3   4  
0829  0EC14100           [16] gettable   4   0   263  ; "z"
082D  5D810000           [17] getglobal  5   2        ; math
0831  4EC1C002           [18] gettable   5   5   259  ; -2040962569
0835  99010100           [19] loadk      6   4        ; 0
0839  D9410100           [20] loadk      7   5        ; 0
083D  62818001           [21] call       5   3   2  
0841  03410102           [22] add        4   4   5  
0845  62800002           [23] call       1   4   2  
0849  9D000000           [24] getglobal  2   0        ; 572299008
084D  A2808000           [25] call       2   1   2  
0851  D9000200           [26] loadk      3   8        ; 0
fail op	21
0855  1540C201           [27] concat     0   3   265
0859  1A400980           [28] jmp        38           ; to [67]
085D  1D810200           [29] getglobal  4   10       ; gRegion
0861  24C14202           [30] self       4   4   267  ; -1869767524
0865  92010000           [31] move       6   0      
0869  D2018000           [32] move       7   1      
086D  13020000           [33] getupval   8   0      
0871  46028004           [34] loadnil    9   9      
0875  92020001           [35] move       10  2      
0879  22818003           [36] call       4   7   2  
087D  18010000           [37] test       4       0    ; to [39] if true
0881  1A400080           [38] jmp        2            ; to [41]
0885  D9000300           [39] loadk      3   12       ; 0
0889  1A40FC7F           [40] jmp        -14          ; to [27]
088D  C340C301           [41] add        3   3   269  ; 0
0891  1D010000           [42] getglobal  4   0        ; 572299008
0895  4E414000           [43] gettable   5   0   257  ; "x"
0899  9D810000           [44] getglobal  6   2        ; math
089D  8EC14003           [45] gettable   6   6   259  ; -2040962569
08A1  D9810300           [46] loadk      7   14       ; 0
08A5  19020300           [47] loadk      8   12       ; 0
08A9  A2818001           [48] call       6   3   2  
08AD  43818102           [49] add        5   5   6  
08B1  8E814100           [50] gettable   6   0   262  ; "y"
08B5  DD810000           [51] getglobal  7   2        ; math
08B9  CEC1C003           [52] gettable   7   7   259  ; -2040962569
08BD  19820300           [53] loadk      8   14       ; 0
08C1  59020300           [54] loadk      9   12       ; 0
08C5  E2818001           [55] call       7   3   2  
08C9  83C10103           [56] add        6   6   7  
08CD  CEC14100           [57] gettable   7   0   263  ; "z"
08D1  1D820000           [58] getglobal  8   2        ; math
08D5  0EC24004           [59] gettable   8   8   259  ; -2040962569
08D9  59820300           [60] loadk      9   14       ; 0
08DD  99020300           [61] loadk      10  12       ; 0
08E1  22828001           [62] call       8   3   2  
08E5  C3018203           [63] add        7   7   8  
08E9  22810002           [64] call       4   4   2  
08ED  52000002           [65] move       1   4      
08F1  1AC0F57F           [66] jmp        -40          ; to [27]
08F5  9E000001           [67] return     2   2      
08F9  1E008000           [68] return     0   1      
                         * constants:
08FD  0F                 sizek (15)
08FE  01                 const type 3
08FF  00971C22           const [0]: (572299008)
0903  04                 const type 4
0904  02                 string size (2)
0905  7800               "x\0"
                         const [1]: "x"
0907  04                 const type 4
0908  05                 string size (5)
0909  6D61746800         "math\0"
                         const [2]: "math"
090E  01                 const type 3
090F  F7615986           const [3]: (-2040962569)
0913  03                 const type 3
0914  0000C0C0           const [4]: (0)
0918  03                 const type 3
0919  0000C040           const [5]: (0)
091D  04                 const type 4
091E  02                 string size (2)
091F  7900               "y\0"
                         const [6]: "y"
0921  04                 const type 4
0922  02                 string size (2)
0923  7A00               "z\0"
                         const [7]: "z"
0925  03                 const type 3
0926  00000000           const [8]: (0)
092A  03                 const type 3
092B  00000040           const [9]: (0)
092F  04                 const type 4
0930  08                 string size (8)
0931  67526567696F6E00   "gRegion\0"
                         const [10]: "gRegion"
0939  01                 const type 3
093A  9C9C8D90           const [11]: (-1869767524)
093E  03                 const type 3
093F  0000A040           const [12]: (0)
0943  03                 const type 3
0944  0000803F           const [13]: (0)
0948  03                 const type 3
0949  0000A0C0           const [14]: (0)
                         * functions:
094D  00                 sizep (0)
                         * lines:
094E  44                 sizelineinfo (68)
                         [pc] (line)
094F  5B                 [01] (91)
0950  00                 [02] (91)
0951  00                 [03] (91)
0952  00                 [04] (91)
0953  5B                 [05] (91)
0954  00                 [06] (91)
0955  00                 [07] (91)
0956  00                 [08] (91)
0957  5B                 [09] (91)
0958  00                 [10] (91)
0959  00                 [11] (91)
095A  00                 [12] (91)
095B  5B                 [13] (91)
095C  00                 [14] (91)
095D  00                 [15] (91)
095E  00                 [16] (91)
095F  5B                 [17] (91)
0960  00                 [18] (91)
0961  00                 [19] (91)
0962  00                 [20] (91)
0963  5B                 [21] (91)
0964  00                 [22] (91)
0965  00                 [23] (91)
0966  00                 [24] (92)
0967  5B                 [25] (92)
0968  00                 [26] (93)
0969  00                 [27] (94)
096A  00                 [28] (94)
096B  5B                 [29] (95)
096C  00                 [30] (95)
096D  00                 [31] (95)
096E  00                 [32] (95)
096F  5B                 [33] (95)
0970  00                 [34] (95)
0971  00                 [35] (95)
0972  00                 [36] (95)
0973  5B                 [37] (95)
0974  00                 [38] (95)
0975  00                 [39] (96)
0976  00                 [40] (96)
0977  5B                 [41] (98)
0978  00                 [42] (99)
0979  00                 [43] (99)
097A  00                 [44] (99)
097B  5B                 [45] (99)
097C  00                 [46] (99)
097D  00                 [47] (99)
097E  00                 [48] (99)
097F  5B                 [49] (99)
0980  00                 [50] (99)
0981  00                 [51] (99)
0982  00                 [52] (99)
0983  5B                 [53] (99)
0984  00                 [54] (99)
0985  00                 [55] (99)
0986  00                 [56] (99)
0987  5B                 [57] (99)
0988  00                 [58] (99)
0989  00                 [59] (99)
098A  00                 [60] (99)
098B  5B                 [61] (99)
098C  00                 [62] (99)
098D  00                 [63] (99)
098E  00                 [64] (99)
098F  5B                 [65] (99)
0990  00                 [66] (100)
0991  00                 [67] (103)
0992  00                 [68] (104)
                         * locals:
0A5F  00                 sizelocvars (0)
                         * upvalues:
0A60  00                 sizeupvalues (0)
                         ** end of function **

                         
0A61                     ** function [2] definition (level 2)
                         ** start of function **
0A61  00                 string size (0)
                         source name: (none)
0A62  6A                 line defined (106)
0A63  83                 last line defined (131)
0A64  01                 nups (1)
0A65  01                 numparams (2)
0A66  02                 is_vararg (0)
0A67  00                 maxstacksize (14)
                         * code:
0A69  41                 sizecode (65)
0A6A  A400C000           [01] self       2   1   256  ; -1917464545
0A6E  A2800001           [02] call       2   2   2  
0A72  A4404001           [03] self       2   2   257  ; 1769516121
0A76  A2800001           [04] call       2   2   2  
0A7A  DD800000           [05] getglobal  3   2        ; 1074689893
0A7E  12010001           [06] move       4   2      
0A82  E2800001           [07] call       3   2   2  
0A86  D8000000           [08] test       3       0    ; to [10] if true
0A8A  1A000080           [09] jmp        1            ; to [11]
0A8E  1E008000           [10] return     0   1      
0A92  E4C04000           [11] self       3   0   259  ; -1625438872
0A96  64014101           [12] self       5   2   260  ; -576819411
0A9A  DD410100           [13] getglobal  7   5        ; -332969190
0A9E  19820100           [14] loadk      8   6        ; "ShockAmbientBeam"
0AA2  E2010001           [15] call       7   2   0  
0AA6  62010000           [16] call       5   0   0  
0AAA  E2800000           [17] call       3   0   2  
0AAE  1D810000           [18] getglobal  4   2        ; 1074689893
0AB2  52018001           [19] move       5   3      
0AB6  22810001           [20] call       4   2   2  
0ABA  18410000           [21] test       4       1    ; to [23] if false
0ABE  1A000080           [22] jmp        1            ; to [24]
0AC2  1E008000           [23] return     0   1      
0AC6  24C14100           [24] self       4   0   263  ; -1544157541
0ACA  22810001           [25] call       4   2   2  
0ACE  24014202           [26] self       4   4   264  ; -342897303
0AD2  22810001           [27] call       4   2   2  
fail op	35
0AD6  23404202           [28] close      0  
0ADA  1A000080           [29] jmp        1            ; to [31]
0ADE  1E008000           [30] return     0   1      
0AE2  4E814202           [31] gettable   5   4   266  ; "mBoneName"
0AE6  93010000           [32] getupval   6   0      
0AEA  E4C14200           [33] self       7   0   267  ; -1565518332
0AEE  52028002           [34] move       9   5      
0AF2  E2018001           [35] call       7   3   0  
0AF6  A2810000           [36] call       6   0   2  
0AFA  DD010300           [37] getglobal  7   12       ; ZERO_VECTOR
fail op	35
0AFE  63C00103           [38] close      1  
0B02  1A000680           [39] jmp        25           ; to [65]
0B06  E4414300           [40] self       7   0   269  ; -1421644046
0B0A  64024101           [41] self       9   2   260  ; -576819411
0B0E  DD420100           [42] getglobal  11  5        ; -332969190
0B12  19830100           [43] loadk      12  6        ; "ShockAmbientBeam"
0B16  E2020001           [44] call       11  2   0  
0B1A  62820000           [45] call       9   0   2  
0B1E  92028002           [46] move       10  5      
0B22  DD020300           [47] getglobal  11  12       ; ZERO_VECTOR
0B26  1D830300           [48] getglobal  12  14       ; ZERO_ROTATION
0B2A  52038000           [49] move       13  1      
0B2E  E2818003           [50] call       7   7   2  
0B32  1D820000           [51] getglobal  8   2        ; 1074689893
0B36  52028003           [52] move       9   7      
0B3A  22820001           [53] call       8   2   2  
0B3E  18420000           [54] test       8       1    ; to [56] if false
0B42  1A000280           [55] jmp        9            ; to [65]
0B46  24C2C303           [56] self       8   7   271  ; 1311555023
0B4A  92020003           [57] move       10  6      
0B4E  22428001           [58] call       8   3   1  
0B52  1D020400           [59] getglobal  8   16       ; gRegion
0B56  24424404           [60] self       8   8   273  ; -47858664
0B5A  9D820400           [61] getglobal  10  18       ; ambientBeamEffectType
0B5E  D2020003           [62] move       11  6      
0B62  1D830300           [63] getglobal  12  14       ; ZERO_ROTATION
0B66  22428002           [64] call       8   5   1  
0B6A  1E008000           [65] return     0   1      
                         * constants:
0B6E  13                 sizek (19)
0B6F  01                 const type 3
0B70  1FD0B58D           const [0]: (-1917464545)
0B74  01                 const type 3
0B75  59AC7869           const [1]: (1769516121)
0B79  01                 const type 3
0B7A  65770E40           const [2]: (1074689893)
0B7E  01                 const type 3
0B7F  68C51D9F           const [3]: (-1625438872)
0B83  01                 const type 3
0B84  2D6F9EDD           const [4]: (-576819411)
0B88  01                 const type 3
0B89  1A4B27EC           const [5]: (-332969190)
0B8D  04                 const type 4
0B8E  11                 string size (17)
0B8F  53686F636B416D62+  "ShockAmb"
0B97  69656E744265616D+  "ientBeam"
0B9F  00                 "\0"
                         const [6]: "ShockAmbientBeam"
0BA0  01                 const type 3
0BA1  9B06F6A3           const [7]: (-1544157541)
0BA5  01                 const type 3
0BA6  69CD8FEB           const [8]: (-342897303)
0BAA  00                 const type 0
                         const [9]: nil
0BAB  04                 const type 4
0BAC  0A                 string size (10)
0BAD  6D426F6E654E616D+  "mBoneNam"
0BB5  6500               "e\0"
                         const [10]: "mBoneName"
0BB7  01                 const type 3
0BB8  0416B0A2           const [11]: (-1565518332)
0BBC  04                 const type 4
0BBD  0C                 string size (12)
0BBE  5A45524F5F564543+  "ZERO_VEC"
0BC6  544F5200           "TOR\0"
                         const [12]: "ZERO_VECTOR"
0BCA  01                 const type 3
0BCB  F26E43AB           const [13]: (-1421644046)
0BCF  04                 const type 4
0BD0  0E                 string size (14)
0BD1  5A45524F5F524F54+  "ZERO_ROT"
0BD9  4154494F4E00       "ATION\0"
                         const [14]: "ZERO_ROTATION"
0BDF  01                 const type 3
0BE0  CFBD2C4E           const [15]: (1311555023)
0BE4  04                 const type 4
0BE5  08                 string size (8)
0BE6  67526567696F6E00   "gRegion\0"
                         const [16]: "gRegion"
0BEE  01                 const type 3
0BEF  18BC25FD           const [17]: (-47858664)
0BF3  04                 const type 4
0BF4  16                 string size (22)
0BF5  616D6269656E7442+  "ambientB"
0BFD  65616D4566666563+  "eamEffec"
0C05  745479706500       "tType\0"
                         const [18]: "ambientBeamEffectType"
                         * functions:
0C0B  00                 sizep (0)
                         * lines:
0C0C  41                 sizelineinfo (65)
                         [pc] (line)
0C0D  6B                 [01] (107)
0C0E  00                 [02] (107)
0C0F  00                 [03] (107)
0C10  00                 [04] (107)
0C11  6B                 [05] (108)
0C12  00                 [06] (108)
0C13  00                 [07] (108)
0C14  00                 [08] (108)
0C15  6B                 [09] (108)
0C16  00                 [10] (109)
0C17  00                 [11] (111)
0C18  00                 [12] (111)
0C19  6B                 [13] (111)
0C1A  00                 [14] (111)
0C1B  00                 [15] (111)
0C1C  00                 [16] (111)
0C1D  6C                 [17] (111)
0C1E  00                 [18] (112)
0C1F  00                 [19] (112)
0C20  00                 [20] (112)
0C21  6C                 [21] (112)
0C22  00                 [22] (112)
0C23  00                 [23] (113)
0C24  00                 [24] (116)
0C25  6C                 [25] (116)
0C26  00                 [26] (116)
0C27  00                 [27] (116)
0C28  00                 [28] (118)
0C29  6C                 [29] (118)
0C2A  00                 [30] (119)
0C2B  00                 [31] (122)
0C2C  00                 [32] (123)
0C2D  6C                 [33] (123)
0C2E  00                 [34] (123)
0C2F  00                 [35] (123)
0C30  00                 [36] (123)
0C31  6D                 [37] (124)
0C32  00                 [38] (124)
0C33  00                 [39] (124)
0C34  00                 [40] (125)
0C35  6F                 [41] (125)
0C36  00                 [42] (125)
0C37  00                 [43] (125)
0C38  00                 [44] (125)
0C39  6F                 [45] (125)
0C3A  00                 [46] (125)
0C3B  00                 [47] (125)
0C3C  00                 [48] (125)
0C3D  6F                 [49] (125)
0C3E  00                 [50] (125)
0C3F  00                 [51] (126)
0C40  00                 [52] (126)
0C41  6F                 [53] (126)
0C42  00                 [54] (126)
0C43  00                 [55] (126)
0C44  00                 [56] (127)
0C45  6F                 [57] (127)
0C46  00                 [58] (127)
0C47  00                 [59] (-128)
0C48  00                 [60] (-128)
0C49  6F                 [61] (-128)
0C4A  00                 [62] (-128)
0C4B  00                 [63] (-128)
0C4C  00                 [64] (-128)
0C4D  6F                 [65] (-125)
                         * locals:
0D11  00                 sizelocvars (0)
                         * upvalues:
0D12  00                 sizeupvalues (0)
                         ** end of function **

                         
0D13                     ** function [3] definition (level 2)
                         ** start of function **
0D13  00                 string size (0)
                         source name: (none)
0D15  01                 line defined (133)
0D16  97                 last line defined (151)
0D17  01                 nups (4)
0D18  04                 numparams (1)
0D19  01                 is_vararg (0)
0D1A  00                 maxstacksize (13)
                         * code:
0D1C  3C                 sizecode (60)
0D1D  53000000           [01] getupval   1   0      
0D21  93008000           [02] getupval   2   1      
0D25  D3000001           [03] getupval   3   2      
0D29  13018001           [04] getupval   4   3      
0D2D  5D010000           [05] getglobal  5   0        ; 1074689893
0D31  92010000           [06] move       6   0      
0D35  62810001           [07] call       5   2   2  
0D39  58410000           [08] test       5       1    ; to [10] if false
0D3D  1A000B80           [09] jmp        45           ; to [55]
0D41  64414000           [10] self       5   0   257  ; -1917464545
0D45  62810001           [11] call       5   2   2  
0D49  A481C002           [12] self       6   5   258  ; 1769516121
0D4D  A2810001           [13] call       6   2   2  
0D51  DD010000           [14] getglobal  7   0        ; 1074689893
0D55  12020003           [15] move       8   6      
0D59  E2810001           [16] call       7   2   2  
0D5D  D8410000           [17] test       7       1    ; to [19] if false
0D61  1AC00880           [18] jmp        36           ; to [55]
0D65  E4C1C002           [19] self       7   5   259  ; -940929887
0D69  53020000           [20] getupval   9   0      
0D6D  9D020100           [21] getglobal  10  4        ; Game
0D71  8E424105           [22] gettable   10  10  261  ; "AVATAR_ABILITY_RANGE"
0D75  E4824103           [23] self       11  6   262  ; -491574171
0D79  E2820001           [24] call       11  2   2  
0D7D  12030003           [25] move       12  6      
0D81  E2810003           [26] call       7   6   2  
0D85  52008003           [27] move       1   7      
0D89  E4C1C002           [28] self       7   5   259  ; -940929887
0D8D  53028000           [29] getupval   9   1      
0D91  9D020100           [30] getglobal  10  4        ; Game
0D95  8E424105           [31] gettable   10  10  261  ; "AVATAR_ABILITY_RANGE"
0D99  E4824103           [32] self       11  6   262  ; -491574171
0D9D  E2820001           [33] call       11  2   2  
0DA1  12030003           [34] move       12  6      
0DA5  E2810003           [35] call       7   6   2  
0DA9  92008003           [36] move       2   7      
0DAD  E4C1C002           [37] self       7   5   259  ; -940929887
0DB1  53020001           [38] getupval   9   2      
0DB5  9D020100           [39] getglobal  10  4        ; Game
0DB9  8EC24105           [40] gettable   10  10  263  ; "AVATAR_ABILITY_STRENGTH"
0DBD  E4824103           [41] self       11  6   262  ; -491574171
0DC1  E2820001           [42] call       11  2   2  
0DC5  12030003           [43] move       12  6      
0DC9  E2810003           [44] call       7   6   2  
0DCD  D2008003           [45] move       3   7      
0DD1  E4C1C002           [46] self       7   5   259  ; -940929887
0DD5  53028001           [47] getupval   9   3      
0DD9  9D020100           [48] getglobal  10  4        ; Game
0DDD  8E024205           [49] gettable   10  10  264  ; "AVATAR_ABILITY_DURATION"
0DE1  E4824103           [50] self       11  6   262  ; -491574171
0DE5  E2820001           [51] call       11  2   2  
0DE9  12030003           [52] move       12  6      
0DED  E2810003           [53] call       7   6   2  
0DF1  12018003           [54] move       4   7      
0DF5  D2018000           [55] move       7   1      
0DF9  12020001           [56] move       8   2      
0DFD  52028001           [57] move       9   3      
0E01  92020002           [58] move       10  4      
0E05  DE018002           [59] return     7   5      
0E09  1E008000           [60] return     0   1      
                         * constants:
0E0D  09                 sizek (9)
0E0E  01                 const type 3
0E0F  65770E40           const [0]: (1074689893)
0E13  01                 const type 3
0E14  1FD0B58D           const [1]: (-1917464545)
0E18  01                 const type 3
0E19  59AC7869           const [2]: (1769516121)
0E1D  01                 const type 3
0E1E  A18CEAC7           const [3]: (-940929887)
0E22  04                 const type 4
0E23  05                 string size (5)
0E24  47616D6500         "Game\0"
                         const [4]: "Game"
0E29  04                 const type 4
0E2A  15                 string size (21)
0E2B  4156415441525F41+  "AVATAR_A"
0E33  42494C4954595F52+  "BILITY_R"
0E3B  414E474500         "ANGE\0"
                         const [5]: "AVATAR_ABILITY_RANGE"
0E40  01                 const type 3
0E41  652CB3E2           const [6]: (-491574171)
0E45  04                 const type 4
0E46  18                 string size (24)
0E47  4156415441525F41+  "AVATAR_A"
0E4F  42494C4954595F53+  "BILITY_S"
0E57  5452454E47544800   "TRENGTH\0"
                         const [7]: "AVATAR_ABILITY_STRENGTH"
0E5F  04                 const type 4
0E60  18                 string size (24)
0E61  4156415441525F41+  "AVATAR_A"
0E69  42494C4954595F44+  "BILITY_D"
0E71  55524154494F4E00   "URATION\0"
                         const [8]: "AVATAR_ABILITY_DURATION"
                         * functions:
0E79  00                 sizep (0)
                         * lines:
0E7A  3C                 sizelineinfo (60)
                         [pc] (line)
0E7B  86                 [01] (-122)
0E7C  00                 [02] (-121)
0E7D  00                 [03] (-120)
0E7E  00                 [04] (-119)
0E7F  87                 [05] (-117)
0E80  00                 [06] (-117)
0E81  00                 [07] (-117)
0E82  00                 [08] (-117)
0E83  88                 [09] (-117)
0E84  00                 [10] (-116)
0E85  00                 [11] (-116)
0E86  00                 [12] (-115)
0E87  89                 [13] (-115)
0E88  00                 [14] (-114)
0E89  00                 [15] (-114)
0E8A  00                 [16] (-114)
0E8B  8B                 [17] (-114)
0E8C  00                 [18] (-114)
0E8D  00                 [19] (-113)
0E8E  00                 [20] (-113)
0E8F  8B                 [21] (-113)
0E90  00                 [22] (-113)
0E91  00                 [23] (-113)
0E92  00                 [24] (-113)
0E93  8B                 [25] (-113)
0E94  00                 [26] (-113)
0E95  00                 [27] (-113)
0E96  00                 [28] (-112)
0E97  8B                 [29] (-112)
0E98  00                 [30] (-112)
0E99  00                 [31] (-112)
0E9A  00                 [32] (-112)
0E9B  8B                 [33] (-112)
0E9C  00                 [34] (-112)
0E9D  00                 [35] (-112)
0E9E  00                 [36] (-112)
0E9F  8C                 [37] (-111)
0EA0  00                 [38] (-111)
0EA1  00                 [39] (-111)
0EA2  00                 [40] (-111)
0EA3  8C                 [41] (-111)
0EA4  00                 [42] (-111)
0EA5  00                 [43] (-111)
0EA6  00                 [44] (-111)
0EA7  8D                 [45] (-111)
0EA8  00                 [46] (-110)
0EA9  00                 [47] (-110)
0EAA  00                 [48] (-110)
0EAB  8D                 [49] (-110)
0EAC  00                 [50] (-110)
0EAD  00                 [51] (-110)
0EAE  00                 [52] (-110)
0EAF  8E                 [53] (-110)
0EB0  00                 [54] (-110)
0EB1  00                 [55] (-106)
0EB2  00                 [56] (-106)
0EB3  8E                 [57] (-106)
0EB4  00                 [58] (-106)
0EB5  00                 [59] (-106)
0EB6  00                 [60] (-105)
                         * locals:
0F6B  00                 sizelocvars (0)
                         * upvalues:
0F6C  00                 sizeupvalues (0)
                         ** end of function **

                         
0F6D                     ** function [4] definition (level 2)
                         ** start of function **
0F6D  00                 string size (0)
                         source name: (none)
0F6F  01                 line defined (153)
0F70  A5                 last line defined (165)
0F71  01                 nups (1)
0F72  01                 numparams (2)
0F73  02                 is_vararg (0)
0F74  00                 maxstacksize (3)
                         * code:
0F76  16                 sizecode (22)
0F77  9D000000           [01] getglobal  2   0        ; Lotus_Game
0F7B  8E404001           [02] gettable   2   2   257  ; "PowerSuit_AUGMENT_ONE"
fail op	35
0F7F  23808000           [03] close      0  
0F83  1A000480           [04] jmp        17           ; to [22]
fail op	35
0F87  23804000           [05] close      0  
0F8B  1A800080           [06] jmp        3            ; to [10]
0F8F  99C00000           [07] loadk      2   3        ; -113
fail op	8
0F93  88000000           [08] setupval   2   0      
0F97  1AC00280           [09] jmp        12           ; to [22]
fail op	35
0F9B  23004100           [10] close      0  
0F9F  1A800080           [11] jmp        3            ; to [15]
0FA3  99400100           [12] loadk      2   5        ; 10
fail op	8
0FA7  88000000           [13] setupval   2   0      
0FAB  1A800180           [14] jmp        7            ; to [22]
fail op	35
0FAF  23804100           [15] close      0  
0FB3  1A800080           [16] jmp        3            ; to [20]
0FB7  99C00100           [17] loadk      2   7        ; -51
fail op	8
0FBB  88000000           [18] setupval   2   0      
0FBF  1A400080           [19] jmp        2            ; to [22]
0FC3  99000200           [20] loadk      2   8        ; -113
fail op	8
0FC7  88000000           [21] setupval   2   0      
0FCB  1E008000           [22] return     0   1      
                         * constants:
0FCF  09                 sizek (9)
0FD0  04                 const type 4
0FD1  0B                 string size (11)
0FD2  4C6F7475735F4761+  "Lotus_Ga"
0FDA  6D6500             "me\0"
                         const [0]: "Lotus_Game"
0FDD  04                 const type 4
0FDE  16                 string size (22)
0FDF  506F776572537569+  "PowerSui"
0FE7  745F4155474D454E+  "t_AUGMEN"
0FEF  545F4F4E4500       "T_ONE\0"
                         const [1]: "PowerSuit_AUGMENT_ONE"
0FF5  03                 const type 3
0FF6  0000803F           const [2]: (0)
0FFA  03                 const type 3
0FFB  8FC2753C           const [3]: (-113)
0FFF  03                 const type 3
1000  00000040           const [4]: (0)
1004  03                 const type 3
1005  0AD7A33C           const [5]: (10)
1009  03                 const type 3
100A  00004040           const [6]: (0)
100E  03                 const type 3
100F  CDCCCC3C           const [7]: (-51)
1013  03                 const type 3
1014  8FC2F53C           const [8]: (-113)
                         * functions:
1018  00                 sizep (0)
                         * lines:
1019  16                 sizelineinfo (22)
                         [pc] (line)
101A  9A                 [01] (-102)
101B  00                 [02] (-102)
101C  00                 [03] (-102)
101D  00                 [04] (-102)
101E  9A                 [05] (-101)
101F  00                 [06] (-101)
1020  00                 [07] (-100)
1021  00                 [08] (-100)
1022  9A                 [09] (-100)
1023  00                 [10] (-99)
1024  00                 [11] (-99)
1025  00                 [12] (-98)
1026  9A                 [13] (-98)
1027  00                 [14] (-98)
1028  00                 [15] (-97)
1029  00                 [16] (-97)
102A  9B                 [17] (-96)
102B  00                 [18] (-96)
102C  00                 [19] (-96)
102D  00                 [20] (-94)
102E  9B                 [21] (-94)
102F  00                 [22] (-91)
                         * locals:
1072  00                 sizelocvars (0)
                         * upvalues:
1073  00                 sizeupvalues (0)
                         ** end of function **

                         
1074                     ** function [5] definition (level 2)
                         ** start of function **
1074  00                 string size (0)
                         source name: (none)
1076  01                 line defined (167)
1077  B1                 last line defined (177)
1078  01                 nups (1)
1079  01                 numparams (2)
107A  02                 is_vararg (0)
107B  00                 maxstacksize (3)
                         * code:
107D  09                 sizecode (9)
107E  9D000000           [1] getglobal  2   0        ; Lotus_Game
1082  8E404001           [2] gettable   2   2   257  ; "PowerSuit_AUGMENT_ONE"
fail op	35
1086  23808000           [3] close      0  
108A  1A400080           [4] jmp        2            ; to [7]
108E  93000000           [5] getupval   2   0      
1092  9E000001           [6] return     2   2      
1096  86000001           [7] loadnil    2   2      
109A  9E000001           [8] return     2   2      
109E  1E008000           [9] return     0   1      
                         * constants:
10A2  02                 sizek (2)
10A3  04                 const type 4
10A4  0B                 string size (11)
10A5  4C6F7475735F4761+  "Lotus_Ga"
10AD  6D6500             "me\0"
                         const [0]: "Lotus_Game"
10B0  04                 const type 4
10B1  16                 string size (22)
10B2  506F776572537569+  "PowerSui"
10BA  745F4155474D454E+  "t_AUGMEN"
10C2  545F4F4E4500       "T_ONE\0"
                         const [1]: "PowerSuit_AUGMENT_ONE"
                         * functions:
10C8  00                 sizep (0)
                         * lines:
10C9  09                 sizelineinfo (9)
                         [pc] (line)
10CA  AC                 [1] (-84)
10CB  00                 [2] (-84)
10CC  00                 [3] (-84)
10CD  00                 [4] (-84)
10CE  AC                 [5] (-83)
10CF  00                 [6] (-83)
10D0  00                 [7] (-80)
10D1  00                 [8] (-80)
10D2  AC                 [9] (-79)
                         * locals:
10EE  00                 sizelocvars (0)
                         * upvalues:
10EF  00                 sizeupvalues (0)
                         ** end of function **

                         
10F0                     ** function [6] definition (level 2)
                         ** start of function **
10F0  00                 string size (0)
                         source name: (none)
10F2  01                 line defined (179)
10F3  D4                 last line defined (212)
10F4  01                 nups (3)
10F5  03                 numparams (1)
10F6  01                 is_vararg (0)
10F7  00                 maxstacksize (11)
                         * code:
10F9  4B                 sizecode (75)
10FA  5D000000           [01] getglobal  1   0        ; _T
10FE  4E40C000           [02] gettable   1   1   257  ; "AbilityLevelQueryParms"
1102  4E80C000           [03] gettable   1   1   258  ; "Avatar"
1106  9DC00000           [04] getglobal  2   3        ; 1074689893
110A  D2008000           [05] move       3   1      
110E  A2800001           [06] call       2   2   2  
1112  98000000           [07] test       2       0    ; to [9] if true
1116  1A000080           [08] jmp        1            ; to [10]
111A  1E008000           [09] return     0   1      
111E  A400C100           [10] self       2   1   260  ; -1917464545
1122  A2800001           [11] call       2   2   2  
1126  E4404101           [12] self       3   2   261  ; 1769516121
112A  E2800001           [13] call       3   2   2  
112E  1DC10000           [14] getglobal  4   3        ; 1074689893
1132  52018001           [15] move       5   3      
1136  22810001           [16] call       4   2   2  
113A  18010000           [17] test       4       0    ; to [19] if true
113E  1A000080           [18] jmp        1            ; to [20]
1142  1E008000           [19] return     0   1      
1146  2481C101           [20] self       4   3   262  ; 1789415806
114A  9D010000           [21] getglobal  6   0        ; _T
114E  8E414003           [22] gettable   6   6   257  ; "AbilityLevelQueryParms"
1152  8EC14103           [23] gettable   6   6   263  ; "Ability"
1156  22818001           [24] call       4   3   2  
115A  6401C201           [25] self       5   3   264  ; 1126214973
115E  62810001           [26] call       5   2   2  
fail op	33
1162  21008102           [27] tforloop   0       4    ; to [29] if exit
1166  1A000080           [28] jmp        1            ; to [30]
116A  1E008000           [29] return     0   1      
116E  6441C201           [30] self       5   3   265  ; -40827644
1172  D2010002           [31] move       7   4      
1176  62818001           [32] call       5   3   2  
fail op	33
117A  2180C202           [33] tforloop   0       266  ; to [35] if exit
117E  1A000080           [34] jmp        1            ; to [36]
1182  1E008000           [35] return     0   1      
1186  A4C1C201           [36] self       6   3   267  ; 1183093143
118A  12020002           [37] move       8   4      
118E  A2818001           [38] call       6   3   2  
1192  D3010000           [39] getupval   7   0      
1196  12028002           [40] move       8   5      
119A  52020003           [41] move       9   6      
119E  E2418001           [42] call       7   3   1  
11A2  DD010300           [43] getglobal  7   12       ; Lotus_Game
11A6  CE41C303           [44] gettable   7   7   269  ; "PowerSuit_AUGMENT_ONE"
fail op	35
11AA  23C00103           [45] close      0  
11AE  1AC00680           [46] jmp        28           ; to [75]
11B2  DD010000           [47] getglobal  7   0        ; _T
11B6  CE41C003           [48] gettable   7   7   257  ; "AbilityLevelQueryParms"
11BA  CE81C303           [49] gettable   7   7   270  ; "Modded"
11BE  D8010000           [50] test       7       0    ; to [52] if true
11C2  1A000180           [51] jmp        5            ; to [57]
11C6  D3010001           [52] getupval   7   2      
11CA  12028000           [53] move       8   1      
11CE  52020003           [54] move       9   6      
11D2  E2818001           [55] call       7   3   2  
fail op	8
11D6  C8018000           [56] setupval   7   1      
11DA  DDC10300           [57] getglobal  7   15       ; table
11DE  CE01C403           [58] gettable   7   7   272  ; -431682403
11E2  12020000           [59] move       8   0      
11E6  4B820000           [60] newtable   9   0   2    ; array=0, hash=2
11EA  4C82C488           [61] settable   9   273 274  ; "Label" "/Lotus/Language/Suits/OverloadAbilityAugment1Name"
11EE  4C02C589           [62] settable   9   275 276  ; "Title" 1
11F2  E2418001           [63] call       7   3   1  
11F6  DDC10300           [64] getglobal  7   15       ; table
11FA  CE01C403           [65] gettable   7   7   272  ; -431682403
11FE  12020000           [66] move       8   0      
1202  4B020100           [67] newtable   9   0   4    ; array=0, hash=4
1206  4C42C588           [68] settable   9   273 277  ; "Label" "/Lotus/Language/Game/ABSORB_AMOUNT"
120A  93028000           [69] getupval   10  1      
120E  84C24505           [70] mul        10  10  279  ; 0
1212  4C82028B           [71] settable   9   278 10   ; "Value"
1216  4C42468C           [72] settable   9   280 281  ; "ValueIcon" "<SHIELD>"
121A  4CC2468D           [73] settable   9   282 283  ; "ValueUnit" "/Lotus/Language/Game/UNIT_PERCENT"
121E  E2418001           [74] call       7   3   1  
1222  1E008000           [75] return     0   1      
                         * constants:
1226  1C                 sizek (28)
1227  04                 const type 4
1228  03                 string size (3)
1229  5F5400             "_T\0"
                         const [0]: "_T"
122C  04                 const type 4
122D  17                 string size (23)
122E  4162696C6974794C+  "AbilityL"
1236  6576656C51756572+  "evelQuer"
123E  795061726D7300     "yParms\0"
                         const [1]: "AbilityLevelQueryParms"
1245  04                 const type 4
1246  07                 string size (7)
1247  41766174617200     "Avatar\0"
                         const [2]: "Avatar"
124E  01                 const type 3
124F  65770E40           const [3]: (1074689893)
1253  01                 const type 3
1254  1FD0B58D           const [4]: (-1917464545)
1258  01                 const type 3
1259  59AC7869           const [5]: (1769516121)
125D  01                 const type 3
125E  7E51A86A           const [6]: (1789415806)
1262  04                 const type 4
1263  08                 string size (8)
1264  4162696C69747900   "Ability\0"
                         const [7]: "Ability"
126C  01                 const type 3
126D  3DAD2043           const [8]: (1126214973)
1271  01                 const type 3
1272  040591FD           const [9]: (-40827644)
1276  03                 const type 3
1277  00000000           const [10]: (0)
127B  01                 const type 3
127C  97918446           const [11]: (1183093143)
1280  04                 const type 4
1281  0B                 string size (11)
1282  4C6F7475735F4761+  "Lotus_Ga"
128A  6D6500             "me\0"
                         const [12]: "Lotus_Game"
128D  04                 const type 4
128E  16                 string size (22)
128F  506F776572537569+  "PowerSui"
1297  745F4155474D454E+  "t_AUGMEN"
129F  545F4F4E4500       "T_ONE\0"
                         const [13]: "PowerSuit_AUGMENT_ONE"
12A5  04                 const type 4
12A6  07                 string size (7)
12A7  4D6F6464656400     "Modded\0"
                         const [14]: "Modded"
12AE  04                 const type 4
12AF  06                 string size (6)
12B0  7461626C6500       "table\0"
                         const [15]: "table"
12B6  01                 const type 3
12B7  9D0C45E6           const [16]: (-431682403)
12BB  04                 const type 4
12BC  06                 string size (6)
12BD  4C6162656C00       "Label\0"
                         const [17]: "Label"
12C3  04                 const type 4
12C4  32                 string size (50)
12C5  2F4C6F7475732F4C+  "/Lotus/L"
12CD  616E67756167652F+  "anguage/"
12D5  53756974732F4F76+  "Suits/Ov"
12DD  65726C6F61644162+  "erloadAb"
12E5  696C697479417567+  "ilityAug"
12ED  6D656E74314E616D+  "ment1Nam"
12F5  6500               "e\0"
                         const [18]: "/Lotus/Language/Suits/OverloadAbilityAugment1Name"
12F7  04                 const type 4
12F8  06                 string size (6)
12F9  5469746C6500       "Title\0"
                         const [19]: "Title"
12FF  01                 const type 3
1300  01000000           const [20]: (1)
1304  04                 const type 4
1305  23                 string size (35)
1306  2F4C6F7475732F4C+  "/Lotus/L"
130E  616E67756167652F+  "anguage/"
1316  47616D652F414253+  "Game/ABS"
131E  4F52425F414D4F55+  "ORB_AMOU"
1326  4E5400             "NT\0"
                         const [21]: "/Lotus/Language/Game/ABSORB_AMOUNT"
1329  04                 const type 4
132A  06                 string size (6)
132B  56616C756500       "Value\0"
                         const [22]: "Value"
1331  03                 const type 3
1332  0000C842           const [23]: (0)
1336  04                 const type 4
1337  0A                 string size (10)
1338  56616C756549636F+  "ValueIco"
1340  6E00               "n\0"
                         const [24]: "ValueIcon"
1342  04                 const type 4
1343  09                 string size (9)
1344  3C534849454C443E+  "<SHIELD>"
134C  00                 "\0"
                         const [25]: "<SHIELD>"
134D  04                 const type 4
134E  0A                 string size (10)
134F  56616C7565556E69+  "ValueUni"
1357  7400               "t\0"
                         const [26]: "ValueUnit"
1359  04                 const type 4
135A  22                 string size (34)
135B  2F4C6F7475732F4C+  "/Lotus/L"
1363  616E67756167652F+  "anguage/"
136B  47616D652F554E49+  "Game/UNI"
1373  545F50455243454E+  "T_PERCEN"
137B  5400               "T\0"
                         const [27]: "/Lotus/Language/Game/UNIT_PERCENT"
                         * functions:
137D  00                 sizep (0)
                         * lines:
137E  4B                 sizelineinfo (75)
                         [pc] (line)
137F  B4                 [01] (-76)
1380  00                 [02] (-76)
1381  00                 [03] (-76)
1382  00                 [04] (-75)
1383  B4                 [05] (-75)
1384  00                 [06] (-75)
1385  00                 [07] (-75)
1386  00                 [08] (-75)
1387  B4                 [09] (-74)
1388  00                 [10] (-71)
1389  00                 [11] (-71)
138A  00                 [12] (-70)
138B  B5                 [13] (-70)
138C  00                 [14] (-69)
138D  00                 [15] (-69)
138E  00                 [16] (-69)
138F  B5                 [17] (-69)
1390  00                 [18] (-69)
1391  00                 [19] (-68)
1392  00                 [20] (-65)
1393  B5                 [21] (-65)
1394  00                 [22] (-65)
1395  00                 [23] (-65)
1396  00                 [24] (-65)
1397  B5                 [25] (-64)
1398  00                 [26] (-64)
1399  00                 [27] (-64)
139A  00                 [28] (-64)
139B  B5                 [29] (-63)
139C  00                 [30] (-60)
139D  00                 [31] (-60)
139E  00                 [32] (-60)
139F  B6                 [33] (-59)
13A0  00                 [34] (-59)
13A1  00                 [35] (-58)
13A2  00                 [36] (-55)
13A3  B9                 [37] (-55)
13A4  00                 [38] (-55)
13A5  00                 [39] (-54)
13A6  00                 [40] (-54)
13A7  B9                 [41] (-54)
13A8  00                 [42] (-54)
13A9  00                 [43] (-52)
13AA  00                 [44] (-52)
13AB  BA                 [45] (-52)
13AC  00                 [46] (-52)
13AD  00                 [47] (-51)
13AE  00                 [48] (-51)
13AF  BA                 [49] (-51)
13B0  00                 [50] (-51)
13B1  00                 [51] (-51)
13B2  00                 [52] (-50)
13B3  BB                 [53] (-50)
13B4  00                 [54] (-50)
13B5  00                 [55] (-50)
13B6  00                 [56] (-50)
13B7  BB                 [57] (-47)
13B8  00                 [58] (-47)
13B9  00                 [59] (-47)
13BA  00                 [60] (-47)
13BB  BB                 [61] (-47)
13BC  00                 [62] (-47)
13BD  00                 [63] (-47)
13BE  00                 [64] (-46)
13BF  BB                 [65] (-46)
13C0  00                 [66] (-46)
13C1  00                 [67] (-46)
13C2  00                 [68] (-46)
13C3  BB                 [69] (-46)
13C4  00                 [70] (-46)
13C5  00                 [71] (-46)
13C6  00                 [72] (-46)
13C7  BC                 [73] (-46)
13C8  00                 [74] (-46)
13C9  00                 [75] (-44)
                         * locals:
14AB  00                 sizelocvars (0)
                         * upvalues:
14AC  00                 sizeupvalues (0)
                         ** end of function **

                         
14AD                     ** function [7] definition (level 2)
                         ** start of function **
14AD  00                 string size (0)
                         source name: (none)
14AF  01                 line defined (214)
14B0  E8                 last line defined (232)
14B1  01                 nups (8)
14B2  08                 numparams (0)
14B3  00                 is_vararg (0)
14B4  00                 maxstacksize (5)
                         * code:
14B6  4B                 sizecode (75)
14B7  13000000           [01] getupval   0   0      
14BB  5D000000           [02] getglobal  1   0        ; _T
14BF  4E40C000           [03] gettable   1   1   257  ; "AbilityLevelQueryParms"
14C3  4E80C000           [04] gettable   1   1   258  ; "Level"
14C7  22400001           [05] call       0   2   1  
14CB  1D000000           [06] getglobal  0   0        ; _T
14CF  0E404000           [07] gettable   0   0   257  ; "AbilityLevelQueryParms"
14D3  0EC04000           [08] gettable   0   0   259  ; "Modded"
fail op	35
14D7  23004100           [09] close      0  
14DB  1A000280           [10] jmp        9            ; to [20]
14DF  13008002           [11] getupval   0   5      
14E3  5D000000           [12] getglobal  1   0        ; _T
14E7  4E40C000           [13] gettable   1   1   257  ; "AbilityLevelQueryParms"
14EB  4E40C100           [14] gettable   1   1   261  ; "Avatar"
14EF  22400101           [15] call       0   2   5  
fail op	8
14F3  C8000002           [16] setupval   3   4      
fail op	8
14F7  88008001           [17] setupval   2   3      
fail op	8
14FB  48000001           [18] setupval   1   2      
fail op	8
14FF  08008000           [19] setupval   0   1      
1503  0B000000           [20] newtable   0   0   0    ; array=0, hash=0
1507  5D800100           [21] getglobal  1   6        ; table
150B  4EC0C100           [22] gettable   1   1   263  ; -431682403
150F  92000000           [23] move       2   0      
1513  CBC00000           [24] newtable   3   0   3    ; array=0, hash=3
1517  CC404284           [25] settable   3   264 265  ; "Label" "/Lotus/Language/Game/ABILITY_RADIUS"
151B  13018000           [26] getupval   4   1      
151F  CC000185           [27] settable   3   266 4    ; "Value"
1523  CC00C385           [28] settable   3   267 268  ; "ValueUnit" "/Lotus/Language/Game/UNIT_METER"
1527  62408001           [29] call       1   3   1  
152B  5D800100           [30] getglobal  1   6        ; table
152F  4EC0C100           [31] gettable   1   1   263  ; -431682403
1533  92000000           [32] move       2   0      
1537  CBC00000           [33] newtable   3   0   3    ; array=0, hash=3
153B  CC404384           [34] settable   3   264 269  ; "Label" "/Lotus/Language/Game/EFFECT_RADIUS"
153F  13010001           [35] getupval   4   2      
1543  CC000185           [36] settable   3   266 4    ; "Value"
1547  CC00C385           [37] settable   3   267 268  ; "ValueUnit" "/Lotus/Language/Game/UNIT_METER"
154B  62408001           [38] call       1   3   1  
154F  5D800100           [39] getglobal  1   6        ; table
1553  4EC0C100           [40] gettable   1   1   263  ; -431682403
1557  92000000           [41] move       2   0      
155B  CBC00000           [42] newtable   3   0   3    ; array=0, hash=3
155F  CC804384           [43] settable   3   264 270  ; "Label" "/Lotus/Language/Game/POWER_DURATION"
1563  13010003           [44] getupval   4   6      
1567  CC000185           [45] settable   3   266 4    ; "Value"
156B  CCC0C385           [46] settable   3   267 271  ; "ValueUnit" "/Lotus/Language/Game/UNIT_SECOND"
156F  62408001           [47] call       1   3   1  
1573  5D800100           [48] getglobal  1   6        ; table
1577  4EC0C100           [49] gettable   1   1   263  ; -431682403
157B  92000000           [50] move       2   0      
157F  CBC00000           [51] newtable   3   0   3    ; array=0, hash=3
1583  CC004484           [52] settable   3   264 272  ; "Label" "/Lotus/Language/Game/DPS"
1587  13018001           [53] getupval   4   3      
158B  CC000185           [54] settable   3   266 4    ; "Value"
158F  CC80C488           [55] settable   3   273 274  ; "ValueIcon" "<DT_ELECTRICITY>"
1593  62408001           [56] call       1   3   1  
1597  5D800100           [57] getglobal  1   6        ; table
159B  4EC0C100           [58] gettable   1   1   263  ; -431682403
159F  92000000           [59] move       2   0      
15A3  CBC00000           [60] newtable   3   0   3    ; array=0, hash=3
15A7  CCC04484           [61] settable   3   264 275  ; "Label" "/Lotus/Language/Game/EFFECT_DURATION"
15AB  13010002           [62] getupval   4   4      
15AF  CC000185           [63] settable   3   266 4    ; "Value"
15B3  CCC0C385           [64] settable   3   267 271  ; "ValueUnit" "/Lotus/Language/Game/UNIT_SECOND"
15B7  62408001           [65] call       1   3   1  
15BB  53008003           [66] getupval   1   7      
15BF  92000000           [67] move       2   0      
15C3  62400001           [68] call       1   2   1  
15C7  5D000000           [69] getglobal  1   0        ; _T
15CB  4E40C000           [70] gettable   1   1   257  ; "AbilityLevelQueryParms"
15CF  4EC0C000           [71] gettable   1   1   259  ; "Modded"
15D3  0C408081           [72] settable   0   259 1    ; "Modded"
15D7  5D000000           [73] getglobal  1   0        ; _T
15DB  4C00008A           [74] settable   1   276 0    ; "AbilityUpgradeLevelInfo"
15DF  1E008000           [75] return     0   1      
                         * constants:
15E3  15                 sizek (21)
15E4  04                 const type 4
15E5  03                 string size (3)
15E6  5F5400             "_T\0"
                         const [0]: "_T"
15E9  04                 const type 4
15EA  17                 string size (23)
15EB  4162696C6974794C+  "AbilityL"
15F3  6576656C51756572+  "evelQuer"
15FB  795061726D7300     "yParms\0"
                         const [1]: "AbilityLevelQueryParms"
1602  04                 const type 4
1603  06                 string size (6)
1604  4C6576656C00       "Level\0"
                         const [2]: "Level"
160A  04                 const type 4
160B  07                 string size (7)
160C  4D6F6464656400     "Modded\0"
                         const [3]: "Modded"
1613  01                 const type 3
1614  01000000           const [4]: (1)
1618  04                 const type 4
1619  07                 string size (7)
161A  41766174617200     "Avatar\0"
                         const [5]: "Avatar"
1621  04                 const type 4
1622  06                 string size (6)
1623  7461626C6500       "table\0"
                         const [6]: "table"
1629  01                 const type 3
162A  9D0C45E6           const [7]: (-431682403)
162E  04                 const type 4
162F  06                 string size (6)
1630  4C6162656C00       "Label\0"
                         const [8]: "Label"
1636  04                 const type 4
1637  24                 string size (36)
1638  2F4C6F7475732F4C+  "/Lotus/L"
1640  616E67756167652F+  "anguage/"
1648  47616D652F414249+  "Game/ABI"
1650  4C4954595F524144+  "LITY_RAD"
1658  49555300           "IUS\0"
                         const [9]: "/Lotus/Language/Game/ABILITY_RADIUS"
165C  04                 const type 4
165D  06                 string size (6)
165E  56616C756500       "Value\0"
                         const [10]: "Value"
1664  04                 const type 4
1665  0A                 string size (10)
1666  56616C7565556E69+  "ValueUni"
166E  7400               "t\0"
                         const [11]: "ValueUnit"
1670  04                 const type 4
1671  20                 string size (32)
1672  2F4C6F7475732F4C+  "/Lotus/L"
167A  616E67756167652F+  "anguage/"
1682  47616D652F554E49+  "Game/UNI"
168A  545F4D4554455200   "T_METER\0"
                         const [12]: "/Lotus/Language/Game/UNIT_METER"
1692  04                 const type 4
1693  23                 string size (35)
1694  2F4C6F7475732F4C+  "/Lotus/L"
169C  616E67756167652F+  "anguage/"
16A4  47616D652F454646+  "Game/EFF"
16AC  4543545F52414449+  "ECT_RADI"
16B4  555300             "US\0"
                         const [13]: "/Lotus/Language/Game/EFFECT_RADIUS"
16B7  04                 const type 4
16B8  24                 string size (36)
16B9  2F4C6F7475732F4C+  "/Lotus/L"
16C1  616E67756167652F+  "anguage/"
16C9  47616D652F504F57+  "Game/POW"
16D1  45525F4455524154+  "ER_DURAT"
16D9  494F4E00           "ION\0"
                         const [14]: "/Lotus/Language/Game/POWER_DURATION"
16DD  04                 const type 4
16DE  21                 string size (33)
16DF  2F4C6F7475732F4C+  "/Lotus/L"
16E7  616E67756167652F+  "anguage/"
16EF  47616D652F554E49+  "Game/UNI"
16F7  545F5345434F4E44+  "T_SECOND"
16FF  00                 "\0"
                         const [15]: "/Lotus/Language/Game/UNIT_SECOND"
1700  04                 const type 4
1701  19                 string size (25)
1702  2F4C6F7475732F4C+  "/Lotus/L"
170A  616E67756167652F+  "anguage/"
1712  47616D652F445053+  "Game/DPS"
171A  00                 "\0"
                         const [16]: "/Lotus/Language/Game/DPS"
171B  04                 const type 4
171C  0A                 string size (10)
171D  56616C756549636F+  "ValueIco"
1725  6E00               "n\0"
                         const [17]: "ValueIcon"
1727  04                 const type 4
1728  11                 string size (17)
1729  3C44545F454C4543+  "<DT_ELEC"
1731  545249434954593E+  "TRICITY>"
1739  00                 "\0"
                         const [18]: "<DT_ELECTRICITY>"
173A  04                 const type 4
173B  25                 string size (37)
173C  2F4C6F7475732F4C+  "/Lotus/L"
1744  616E67756167652F+  "anguage/"
174C  47616D652F454646+  "Game/EFF"
1754  4543545F44555241+  "ECT_DURA"
175C  54494F4E00         "TION\0"
                         const [19]: "/Lotus/Language/Game/EFFECT_DURATION"
1761  04                 const type 4
1762  18                 string size (24)
1763  4162696C69747955+  "AbilityU"
176B  7067726164654C65+  "pgradeLe"
1773  76656C496E666F00   "velInfo\0"
                         const [20]: "AbilityUpgradeLevelInfo"
                         * functions:
177B  00                 sizep (0)
                         * lines:
177C  4B                 sizelineinfo (75)
                         [pc] (line)
177D  D7                 [01] (-41)
177E  00                 [02] (-41)
177F  00                 [03] (-41)
1780  00                 [04] (-41)
1781  D7                 [05] (-41)
1782  00                 [06] (-40)
1783  00                 [07] (-40)
1784  00                 [08] (-40)
1785  D7                 [09] (-40)
1786  00                 [10] (-40)
1787  00                 [11] (-39)
1788  00                 [12] (-39)
1789  D7                 [13] (-39)
178A  00                 [14] (-39)
178B  00                 [15] (-39)
178C  00                 [16] (-39)
178D  D7                 [17] (-39)
178E  00                 [18] (-39)
178F  00                 [19] (-39)
1790  00                 [20] (-36)
1791  D8                 [21] (-35)
1792  00                 [22] (-35)
1793  00                 [23] (-35)
1794  00                 [24] (-35)
1795  D8                 [25] (-35)
1796  00                 [26] (-35)
1797  00                 [27] (-35)
1798  00                 [28] (-35)
1799  D8                 [29] (-35)
179A  00                 [30] (-34)
179B  00                 [31] (-34)
179C  00                 [32] (-34)
179D  D8                 [33] (-34)
179E  00                 [34] (-34)
179F  00                 [35] (-34)
17A0  00                 [36] (-34)
17A1  D8                 [37] (-34)
17A2  00                 [38] (-34)
17A3  00                 [39] (-33)
17A4  00                 [40] (-33)
17A5  D9                 [41] (-33)
17A6  00                 [42] (-33)
17A7  00                 [43] (-33)
17A8  00                 [44] (-33)
17A9  D9                 [45] (-33)
17AA  00                 [46] (-33)
17AB  00                 [47] (-33)
17AC  00                 [48] (-32)
17AD  D9                 [49] (-32)
17AE  00                 [50] (-32)
17AF  00                 [51] (-32)
17B0  00                 [52] (-32)
17B1  D9                 [53] (-32)
17B2  00                 [54] (-32)
17B3  00                 [55] (-32)
17B4  00                 [56] (-32)
17B5  D9                 [57] (-31)
17B6  00                 [58] (-31)
17B7  00                 [59] (-31)
17B8  00                 [60] (-31)
17B9  D9                 [61] (-31)
17BA  00                 [62] (-31)
17BB  00                 [63] (-31)
17BC  00                 [64] (-31)
17BD  D9                 [65] (-31)
17BE  00                 [66] (-29)
17BF  00                 [67] (-29)
17C0  00                 [68] (-29)
17C1  D9                 [69] (-27)
17C2  00                 [70] (-27)
17C3  00                 [71] (-27)
17C4  00                 [72] (-27)
17C5  D9                 [73] (-25)
17C6  00                 [74] (-25)
17C7  00                 [75] (-24)
                         * locals:
18A9  00                 sizelocvars (0)
                         * upvalues:
18AA  00                 sizeupvalues (0)
                         ** end of function **

                         
18AB                     ** function [8] definition (level 2)
                         ** start of function **
18AB  00                 string size (0)
                         source name: (none)
18AD  01                 line defined (234)
18AE  F5                 last line defined (245)
18AF  01                 nups (2)
18B0  02                 numparams (2)
18B1  02                 is_vararg (0)
18B2  00                 maxstacksize (8)
                         * code:
18B4  1B                 sizecode (27)
18B5  8B000000           [01] newtable   2   0   0    ; array=0, hash=0
18B9  D3000000           [02] getupval   3   0      
18BD  12010000           [03] move       4   0      
18C1  52018000           [04] move       5   1      
18C5  E2408001           [05] call       3   3   1  
18C9  DD000000           [06] getglobal  3   0        ; Lotus_Game
18CD  CE40C001           [07] gettable   3   3   257  ; "PowerSuit_AUGMENT_ONE"
fail op	35
18D1  23C08000           [08] close      0  
18D5  1AC00280           [09] jmp        12           ; to [22]
18D9  CB400000           [10] newtable   3   0   1    ; array=0, hash=1
18DD  1DC10000           [11] getglobal  4   3        ; string
18E1  0E014102           [12] gettable   4   4   260  ; 2071470131
18E5  59410100           [13] loadk      5   5        ; ""
18E9  93018000           [14] getupval   6   1      
18ED  84814103           [15] mul        6   6   262  ; 0
18F1  42818102           [16] concat     5   5   6  
18F5  99C10100           [17] loadk      6   7        ; 0
18F9  D9010200           [18] loadk      7   8        ; 0
18FD  22810002           [19] call       4   4   2  
1901  CC000181           [20] settable   3   258 4    ; "SHIELD_PCT"
1905  92008001           [21] move       2   3      
1909  DD400200           [22] getglobal  3   9        ; cjson
190D  CE80C201           [23] gettable   3   3   266  ; -1916729509
1911  12010001           [24] move       4   2      
1915  C7000001           [25] tailcall   3   2   0  
1919  DE000000           [26] return     3   0      
191D  1E008000           [27] return     0   1      
                         * constants:
1921  0B                 sizek (11)
1922  04                 const type 4
1923  0B                 string size (11)
1924  4C6F7475735F4761+  "Lotus_Ga"
192C  6D6500             "me\0"
                         const [0]: "Lotus_Game"
192F  04                 const type 4
1930  16                 string size (22)
1931  506F776572537569+  "PowerSui"
1939  745F4155474D454E+  "t_AUGMEN"
1941  545F4F4E4500       "T_ONE\0"
                         const [1]: "PowerSuit_AUGMENT_ONE"
1947  04                 const type 4
1948  0B                 string size (11)
1949  534849454C445F50+  "SHIELD_P"
1951  435400             "CT\0"
                         const [2]: "SHIELD_PCT"
1954  04                 const type 4
1955  07                 string size (7)
1956  737472696E6700     "string\0"
                         const [3]: "string"
195D  01                 const type 3
195E  3320787B           const [4]: (2071470131)
1962  04                 const type 4
1963  01                 string size (0)
                         const [5]: ""
1965  03                 const type 3
1966  0000C842           const [6]: (0)
196A  03                 const type 3
196B  00000000           const [7]: (0)
196F  03                 const type 3
1970  00004040           const [8]: (0)
1974  04                 const type 4
1975  06                 string size (6)
1976  636A736F6E00       "cjson\0"
                         const [9]: "cjson"
197C  01                 const type 3
197D  5B07C18D           const [10]: (-1916729509)
                         * functions:
1981  00                 sizep (0)
                         * lines:
1982  1B                 sizelineinfo (27)
                         [pc] (line)
1983  EB                 [01] (-21)
1984  00                 [02] (-19)
1985  00                 [03] (-19)
1986  00                 [04] (-19)
1987  ED                 [05] (-19)
1988  00                 [06] (-18)
1989  00                 [07] (-18)
198A  00                 [08] (-18)
198B  ED                 [09] (-18)
198C  00                 [10] (-17)
198D  00                 [11] (-16)
198E  00                 [12] (-16)
198F  ED                 [13] (-16)
1990  00                 [14] (-16)
1991  00                 [15] (-16)
1992  00                 [16] (-16)
1993  ED                 [17] (-16)
1994  00                 [18] (-16)
1995  00                 [19] (-16)
1996  00                 [20] (-16)
1997  EE                 [21] (-15)
1998  00                 [22] (-12)
1999  00                 [23] (-12)
199A  00                 [24] (-12)
199B  EE                 [25] (-12)
199C  00                 [26] (-12)
199D  00                 [27] (-11)
                         * locals:
19EF  00                 sizelocvars (0)
                         * upvalues:
19F0  00                 sizeupvalues (0)
                         ** end of function **

                         
19F1                     ** function [9] definition (level 2)
                         ** start of function **
19F1  00                 string size (0)
                         source name: (none)
19F3  01                 line defined (247)
19F4  FB                 last line defined (251)
19F5  01                 nups (1)
19F6  01                 numparams (2)
19F7  02                 is_vararg (0)
19F8  00                 maxstacksize (6)
                         * code:
19FA  0D                 sizecode (13)
19FB  93000000           [01] getupval   2   0      
19FF  8E004001           [02] gettable   2   2   256  ; 105205593
1A03  A2808000           [03] call       2   1   2  
1A07  98000000           [04] test       2       0    ; to [6] if true
1A0B  1A800180           [05] jmp        7            ; to [13]
1A0F  9D400000           [06] getglobal  2   1        ; mOwner
1A13  A4804001           [07] self       2   2   258  ; 1492784584
1A17  1DC10000           [08] getglobal  4   3        ; gGameRules
1A1B  24014102           [09] self       4   4   260  ; -1409394412
1A1F  22810001           [10] call       4   2   2  
1A23  03414102           [11] add        4   4   261  ; 0
1A27  A2408001           [12] call       2   3   1  
1A2B  1E008000           [13] return     0   1      
                         * constants:
1A2F  06                 sizek (6)
1A30  01                 const type 3
1A31  594F4506           const [0]: (105205593)
1A35  04                 const type 4
1A36  07                 string size (7)
1A37  6D4F776E657200     "mOwner\0"
                         const [1]: "mOwner"
1A3E  01                 const type 3
1A3F  C815FA58           const [2]: (1492784584)
1A43  04                 const type 4
1A44  0B                 string size (11)
1A45  6747616D6552756C+  "gGameRul"
1A4D  657300             "es\0"
                         const [3]: "gGameRules"
1A50  01                 const type 3
1A51  1459FEAB           const [4]: (-1409394412)
1A55  03                 const type 3
1A56  0000C842           const [5]: (0)
                         * functions:
1A5A  00                 sizep (0)
                         * lines:
1A5B  0D                 sizelineinfo (13)
                         [pc] (line)
1A5C  F8                 [01] (-8)
1A5D  00                 [02] (-8)
1A5E  00                 [03] (-8)
1A5F  00                 [04] (-8)
1A60  F8                 [05] (-8)
1A61  00                 [06] (-7)
1A62  00                 [07] (-7)
1A63  00                 [08] (-7)
1A64  F8                 [09] (-7)
1A65  00                 [10] (-7)
1A66  00                 [11] (-7)
1A67  00                 [12] (-7)
1A68  F8                 [13] (-5)
                         * locals:
1A90  00                 sizelocvars (0)
                         * upvalues:
1A91  00                 sizeupvalues (0)
                         ** end of function **

                         
1A92                     ** function [10] definition (level 2)
                         ** start of function **
1A92  00                 string size (0)
                         source name: (none)
1A94  01                 line defined (253)
1A95  89                 last line defined (265)
1A96  02                 nups (0)
1A97  00                 numparams (2)
1A98  02                 is_vararg (0)
1A99  00                 maxstacksize (7)
                         * code:
1A9B  11                 sizecode (17)
1A9C  8B008000           [01] newtable   2   1   0    ; array=1, hash=0
1AA0  DD000000           [02] getglobal  3   0        ; gLotusAvatarType
1AA4  9B408000           [03] setlist    2   1   1    ; index 1 to 1
1AA8  E440C000           [04] self       3   1   257  ; -1411785325
1AAC  E2800001           [05] call       3   2   2  
1AB0  E480C001           [06] self       3   3   258  ; 1521467102
1AB4  59C10000           [07] loadk      5   3        ; 0
1AB8  92010001           [08] move       6   2      
1ABC  E2800002           [09] call       3   4   2  
1AC0  1C01C101           [10] div        4   3   260  ; 0
1AC4  6441C100           [11] self       5   1   261  ; -1903333237
1AC8  62810001           [12] call       5   2   2  
fail op	21
1ACC  1580C102           [13] concat     0   5   262
1AD0  1A000080           [14] jmp        1            ; to [16]
1AD4  04014102           [15] mul        4   4   260  ; 0
1AD8  1E010001           [16] return     4   2      
1ADC  1E008000           [17] return     0   1      
                         * constants:
1AE0  07                 sizek (7)
1AE1  04                 const type 4
1AE2  11                 string size (17)
1AE3  674C6F7475734176+  "gLotusAv"
1AEB  6174617254797065+  "atarType"
1AF3  00                 "\0"
                         const [0]: "gLotusAvatarType"
1AF4  01                 const type 3
1AF5  93DDD9AB           const [1]: (-1411785325)
1AF9  01                 const type 3
1AFA  DEBEAF5A           const [2]: (1521467102)
1AFE  03                 const type 3
1AFF  00002041           const [3]: (0)
1B03  03                 const type 3
1B04  00000040           const [4]: (0)
1B08  01                 const type 3
1B09  8B708D8E           const [5]: (-1903333237)
1B0D  03                 const type 3
1B0E  0000003F           const [6]: (0)
                         * functions:
1B12  00                 sizep (0)
                         * lines:
1B13  11                 sizelineinfo (17)
                         [pc] (line)
1B14  FE                 [01] (-2)
1B15  00                 [02] (-2)
1B16  00                 [03] (-2)
1B17  00                 [04] (-1)
1B18  FE                 [05] (-1)
1B19  00                 [06] (-1)
1B1A  00                 [07] (-1)
1B1B  00                 [08] (-1)
1B1C  FE                 [09] (-1)
1B1D  00                 [10] (1)
1B1E  00                 [11] (3)
1B1F  00                 [12] (3)
1B20  FF                 [13] (4)
1B21  00                 [14] (4)
1B22  00                 [15] (5)
1B23  00                 [16] (8)
1B24  FF                 [17] (9)
                         * locals:
1B58  00                 sizelocvars (0)
                         * upvalues:
1B59  00                 sizeupvalues (0)
                         ** end of function **

                         
1B5A                     ** function [11] definition (level 2)
                         ** start of function **
1B5A  00                 string size (0)
                         source name: (none)
1B5C  02                 line defined (272)
1B5D  E2                 last line defined (482)
1B5E  03                 nups (9)
1B5F  09                 numparams (1)
1B60  01                 is_vararg (0)
1B61  00                 maxstacksize (62)
                         * code:
1B64  04                 sizecode (598)
1B65  53000000           [001] getupval   1   0      
1B69  4E00C000           [002] gettable   1   1   256  ; "instigatorAvatar"
1B6D  93000000           [003] getupval   2   0      
1B71  8E404001           [004] gettable   2   2   257  ; "spawner"
1B75  D3000000           [005] getupval   3   0      
1B79  CE80C001           [006] gettable   3   3   258  ; "distance"
1B7D  24C14000           [007] self       4   0   259  ; -1957065004
1B81  9D010100           [008] getglobal  6   4        ; lootCrateType
1B85  22818001           [009] call       4   3   2  
1B89  64C14000           [010] self       5   0   259  ; -1957065004
1B8D  DD410100           [011] getglobal  7   5        ; gLotusNpcAvatarType
1B91  62818001           [012] call       5   3   2  
1B95  A4814100           [013] self       6   0   262  ; -605089866
1B99  A2810001           [014] call       6   2   2  
1B9D  DDC10100           [015] getglobal  7   7        ; gRegion
1BA1  E401C203           [016] self       7   7   264  ; -1520831144
1BA5  E2810001           [017] call       7   2   2  
1BA9  D8010000           [018] test       7       0    ; to [20] if true
1BAD  1A400380           [019] jmp        14           ; to [34]
1BB1  18010000           [020] test       4       0    ; to [22] if true
1BB5  1AC00180           [021] jmp        8            ; to [30]
1BB9  DD410200           [022] getglobal  7   9        ; table
1BBD  CE81C203           [023] gettable   7   7   266  ; -431682403
1BC1  1DC20200           [024] getglobal  8   11       ; _T
1BC5  0E024304           [025] gettable   8   8   268  ; "voltOverload"
1BC9  0E424304           [026] gettable   8   8   269  ; "crateVictims"
1BCD  52020000           [027] move       9   0      
1BD1  E2418001           [028] call       7   3   1  
1BD5  1AC00080           [029] jmp        4            ; to [34]
1BD9  DDC10200           [030] getglobal  7   11       ; _T
1BDD  CE01C303           [031] gettable   7   7   268  ; "voltOverload"
1BE1  CE81C303           [032] gettable   7   7   270  ; "avatarVictims"
1BE5  CC010003           [033] settable   7   6   0  
1BE9  E4C1C300           [034] self       7   1   271  ; -1917464545
1BED  E2810001           [035] call       7   2   2  
1BF1  E401C403           [036] self       7   7   272  ; 1769516121
1BF5  E2810001           [037] call       7   2   2  
1BF9  2442C403           [038] self       8   7   273  ; -363477704
1BFD  9D820400           [039] getglobal  10  18       ; ABILITY_INDEX
1C01  22828001           [040] call       8   3   2  
1C05  64C2C403           [041] self       9   7   275  ; -40827644
1C09  DD820400           [042] getglobal  11  18       ; ABILITY_INDEX
1C0D  62828001           [043] call       9   3   2  
fail op	21
1C11  1540028A           [044] concat     0   276 9  
1C15  1A800180           [045] jmp        7            ; to [53]
1C19  6442C503           [046] self       9   7   277  ; 1183093143
1C1D  DD820400           [047] getglobal  11  18       ; ABILITY_INDEX
1C21  62828001           [048] call       9   3   2  
1C25  9D820500           [049] getglobal  10  22       ; Lotus_Game
1C29  8EC24505           [050] gettable   10  10  279  ; "PowerSuit_AUGMENT_ONE"
fail op	35
1C2D  63808204           [051] close      1  
1C31  1A000080           [052] jmp        1            ; to [54]
1C35  57420000           [053] loadbool   9   0   1    ; false, to [55]
1C39  57028000           [054] loadbool   9   1   0    ; true
1C3D  86020005           [055] loadnil    10  10     
1C41  18410000           [056] test       4       1    ; to [58] if false
1C45  1A400780           [057] jmp        30           ; to [88]
1C49  E4024600           [058] self       11  0   280  ; -1411785325
1C4D  E2820001           [059] call       11  2   2  
1C51  92028005           [060] move       10  11     
1C55  DD420600           [061] getglobal  11  25       ; 1074689893
1C59  1D830600           [062] getglobal  12  26       ; gClient
1C5D  E2820001           [063] call       11  2   2  
1C61  D8420000           [064] test       11      1    ; to [66] if false
1C65  1AC00280           [065] jmp        12           ; to [78]
1C69  DD820600           [066] getglobal  11  26       ; gClient
1C6D  E4C2C605           [067] self       11  11  283  ; 1932938530
1C71  E2820001           [068] call       11  2   2  
1C75  E402C705           [069] self       11  11  284  ; -752543200
1C79  E2820001           [070] call       11  2   2  
1C7D  CE42C705           [071] gettable   11  11  285  ; "particleSysQuality"
fail op	35
1C81  2380C705           [072] close      0  
1C85  1AC00080           [073] jmp        4            ; to [78]
1C89  D3028000           [074] getupval   11  1      
1C8D  12030000           [075] move       12  0      
1C91  52038000           [076] move       13  1      
1C95  E2428001           [077] call       11  3   1  
1C99  E4C24700           [078] self       11  0   287  ; 10587382
1C9D  64034804           [079] self       13  8   288  ; 330393050
1CA1  62830001           [080] call       13  2   2  
1CA5  93030001           [081] getupval   14  2      
1CA9  E2820002           [082] call       11  4   2  
fail op	8
1CAD  C8020001           [083] setupval   11  2      
1CB1  E4424800           [084] self       11  0   289  ; 494169954
1CB5  64034804           [085] self       13  8   288  ; 330393050
1CB9  62030001           [086] call       13  2   0  
1CBD  E2420000           [087] call       11  0   1  
1CC1  E4824800           [088] self       11  0   290  ; -427739093
1CC5  E2820001           [089] call       11  2   2  
1CC9  06030006           [090] loadnil    12  12     
1CCD  18410000           [091] test       4       1    ; to [93] if false
1CD1  1A800180           [092] jmp        7            ; to [100]
1CD5  64C34800           [093] self       13  0   291  ; -1544157541
1CD9  62830001           [094] call       13  2   2  
1CDD  6403C906           [095] self       13  13  292  ; 384745901
1CE1  DD430900           [096] getglobal  15  37       ; Engine
1CE5  CE83C907           [097] gettable   15  15  294  ; "TORSO"
1CE9  62838001           [098] call       13  3   2  
1CED  12038006           [099] move       12  13     
1CF1  64C3C900           [100] self       13  1   295  ; 838340081
1CF5  62830001           [101] call       13  2   2  
1CF9  A403CA00           [102] self       14  1   296  ; -64490911
1CFD  1D440900           [103] getglobal  16  37       ; Engine
1D01  0E444A08           [104] gettable   16  16  297  ; "DT_ELECTRICITY"
1D05  59040500           [105] loadk      17  20       ; 0
1D09  A2430002           [106] call       14  4   1  
1D0D  93038001           [107] getupval   14  3      
1D11  8E834A07           [108] gettable   14  14  298  ; "minValue"
fail op	21
1D15  15C00007           [109] concat     0   14  3  
1D19  1A000580           [110] jmp        21           ; to [132]
1D1D  93038001           [111] getupval   14  3      
1D21  A4C34A07           [112] self       14  14  299  ; 62144293
1D25  1D040B00           [113] getglobal  16  44       ; math
1D29  0E444B08           [114] gettable   16  16  301  ; 1710846250
1D2D  52048001           [115] move       17  3      
1D31  93048001           [116] getupval   18  3      
1D35  8E844B09           [117] gettable   18  18  302  ; "maxValue"
1D39  22048001           [118] call       16  3   0  
1D3D  A2830000           [119] call       14  0   2  
1D41  DDC30B00           [120] getglobal  15  47       ; -1828500651
1D45  19040C00           [121] loadk      16  48       ; 0
1D49  53040002           [122] getupval   17  4      
1D4D  92040007           [123] move       18  14     
1D51  E2830002           [124] call       15  4   2  
1D55  13048002           [125] getupval   16  5      
1D59  04C40308           [126] mul        16  16  15 
fail op	8
1D5D  08048002           [127] setupval   16  5      
1D61  44C38306           [128] mul        13  13  15 
1D65  13040001           [129] getupval   16  2      
1D69  04C40308           [130] mul        16  16  15 
fail op	8
1D6D  08040001           [131] setupval   16  2      
1D71  1D440900           [132] getglobal  16  37       ; Engine
1D75  0E444C08           [133] gettable   16  16  305  ; -98643418
1D79  22848000           [134] call       16  1   2  
1D7D  64844C08           [135] self       17  16  306  ; -995861768
1D81  DD440900           [136] getglobal  19  37       ; Engine
1D85  CE44CA09           [137] gettable   19  19  297  ; "DT_ELECTRICITY"
1D89  19050C00           [138] loadk      20  48       ; 0
1D8D  62440002           [139] call       17  4   1  
1D91  64C44C08           [140] self       17  16  307  ; -420630141
1D95  D2048000           [141] move       19  1      
1D99  62448001           [142] call       17  3   1  
1D9D  64044D08           [143] self       17  16  308  ; -2049256907
1DA1  D2048003           [144] move       19  7      
1DA5  62448001           [145] call       17  3   1  
1DA9  64444D04           [146] self       17  8   309  ; -491574171
1DAD  62840001           [147] call       17  2   2  
1DB1  A484CD00           [148] self       18  1   310  ; -1081228973
1DB5  A2840001           [149] call       18  2   2  
1DB9  DDC40D00           [150] getglobal  19  55       ; -332969190
1DBD  19050E00           [151] loadk      20  56       ; "ELECTRIFIED_LOOP"
1DC1  E2840001           [152] call       19  2   2  
1DC5  1D450E00           [153] getglobal  20  57       ; 2144646525
1DC9  59050500           [154] loadk      21  20       ; 0
1DCD  99850E00           [155] loadk      22  58       ; 0
1DD1  22858001           [156] call       20  3   2  
1DD5  59050500           [157] loadk      21  20       ; 0
1DD9  99C50E00           [158] loadk      22  59       ; 0
1DDD  D3058002           [159] getupval   23  5      
1DE1  C485850B           [160] mul        23  23  22 
1DE5  C345830B           [161] add        23  23  13 
1DE9  19060500           [162] loadk      24  20       ; 0
1DED  53068002           [163] getupval   25  5      
1DF1  93060003           [164] getupval   26  6      
1DF5  4486860C           [165] mul        25  25  26 
1DF9  93060001           [166] getupval   26  2      
fail op	21
1DFD  1580068A           [167] concat     0   276 26 
1E01  1A005580           [168] jmp        341          ; to [510]
1E05  9D460600           [169] getglobal  26  25       ; 1074689893
1E09  D2060001           [170] move       27  2      
1E0D  A2860001           [171] call       26  2   2  
1E11  98460000           [172] test       26      1    ; to [174] if false
1E15  1AC05380           [173] jmp        336          ; to [510]
1E19  9D460600           [174] getglobal  26  25       ; 1074689893
1E1D  D2060000           [175] move       27  0      
1E21  A2860001           [176] call       26  2   2  
1E25  98460000           [177] test       26      1    ; to [179] if false
1E29  1A805280           [178] jmp        331          ; to [510]
1E2D  18010000           [179] test       4       0    ; to [181] if true
1E31  1AC00080           [180] jmp        4            ; to [185]
1E35  A4064F00           [181] self       26  0   316  ; 796523475
1E39  A2860001           [182] call       26  2   2  
fail op	21
1E3D  5580068A           [183] concat     1   276 26 
1E41  1AC00280           [184] jmp        12           ; to [197]
1E45  18410000           [185] test       4       1    ; to [187] if false
1E49  1A805080           [186] jmp        323          ; to [510]
1E4D  A4464F00           [187] self       26  0   317  ; 1511086594
1E51  A2860001           [188] call       26  2   2  
1E55  98460000           [189] test       26      1    ; to [191] if false
1E59  1A804F80           [190] jmp        319          ; to [510]
1E5D  A4864F00           [191] self       26  0   318  ; 1230984527
1E61  1D870500           [192] getglobal  28  22       ; Lotus_Game
1E65  0EC74F0E           [193] gettable   28  28  319  ; "AR_IMMUNE_ALL"
1E69  A2868001           [194] call       26  3   2  
1E6D  98460000           [195] test       26      1    ; to [197] if false
1E71  1A004E80           [196] jmp        313          ; to [510]
1E75  9DC60200           [197] getglobal  26  11       ; _T
1E79  8E06500D           [198] gettable   26  26  320  ; -608285432
1E7D  D2068008           [199] move       27  17     
1E81  12078000           [200] move       28  1      
1E85  53070001           [201] getupval   29  2      
1E89  A2460002           [202] call       26  4   1  
1E8D  9D460600           [203] getglobal  26  25       ; 1074689893
1E91  D2060005           [204] move       27  10     
1E95  A2860001           [205] call       26  2   2  
1E99  98460000           [206] test       26      1    ; to [208] if false
1E9D  1A400080           [207] jmp        2            ; to [210]
1EA1  A4465005           [208] self       26  10  321  ; -1167676648
1EA5  A2460001           [209] call       26  2   1  
1EA9  58010000           [210] test       5       0    ; to [212] if true
1EAD  1A800380           [211] jmp        15           ; to [227]
1EB1  A4865000           [212] self       26  0   322  ; 1062964318
1EB5  12078009           [213] move       28  19     
1EB9  A2868001           [214] call       26  3   2  
1EBD  98460000           [215] test       26      1    ; to [217] if false
1EC1  1A400280           [216] jmp        10           ; to [227]
1EC5  A4C65000           [217] self       26  0   323  ; -1174384187
1EC9  12078009           [218] move       28  19     
1ECD  57070000           [219] loadbool   29  0   0    ; false
1ED1  9D470900           [220] getglobal  30  37       ; Engine
1ED5  8E07510F           [221] gettable   30  30  324  ; "ATMM_ANIMATION_DRIVEN"
1ED9  DD470900           [222] getglobal  31  37       ; Engine
1EDD  CE47D10F           [223] gettable   31  31  325  ; "PRT_LOOP"
1EE1  17088000           [224] loadbool   32  1   0    ; true
1EE5  5208000A           [225] move       33  20     
1EE9  A2460004           [226] call       26  8   1  
fail op	33
1EED  2100C50A           [227] tforloop   0       276  ; to [229] if exit
1EF1  1A804080           [228] jmp        259          ; to [488]
fail op	21
1EF5  15C0058A           [229] concat     0   276 23 
1EF9  1A004080           [230] jmp        257          ; to [488]
1EFD  9DC60100           [231] getglobal  26  7        ; gRegion
1F01  A406420D           [232] self       26  26  264  ; -1520831144
1F05  A2860001           [233] call       26  2   2  
1F09  98060000           [234] test       26      0    ; to [236] if true
1F0D  1A000480           [235] jmp        17           ; to [253]
1F11  9DC60200           [236] getglobal  26  11       ; _T
1F15  8E06430D           [237] gettable   26  26  268  ; "voltOverload"
1F19  8E86510D           [238] gettable   26  26  326  ; "bonusDamage"
1F1D  8E86010D           [239] gettable   26  26  6  
fail op	35
1F21  63C0510D           [240] close      1  
1F25  1A800280           [241] jmp        11           ; to [253]
1F29  93068002           [242] getupval   26  5      
1F2D  8386860B           [243] add        26  23  26 
1F31  DDC60200           [244] getglobal  27  11       ; _T
1F35  CE06C30D           [245] gettable   27  27  268  ; "voltOverload"
1F39  CE86D10D           [246] gettable   27  27  326  ; "bonusDamage"
1F3D  CE86810D           [247] gettable   27  27  6  
1F41  C3C5060D           [248] add        23  26  27 
1F45  9DC60200           [249] getglobal  26  11       ; _T
1F49  8E06430D           [250] gettable   26  26  268  ; "voltOverload"
1F4D  8E86510D           [251] gettable   26  26  326  ; "bonusDamage"
1F51  8CC65103           [252] settable   26  6   327  ; nil
1F55  0CC405A4           [253] settable   16  328 23   ; "baseAmount"
1F59  97060000           [254] loadbool   26  0   0    ; false
1F5D  DDC60100           [255] getglobal  27  7        ; gRegion
1F61  E446D20D           [256] self       27  27  329  ; 152279552
1F65  5D871200           [257] getglobal  29  74       ; gLotusAvatarType
1F69  A4C75200           [258] self       30  0   331  ; 1839670529
1F6D  A2870001           [259] call       30  2   2  
1F71  D9070500           [260] loadk      31  20       ; 0
1F75  13088003           [261] getupval   32  7      
1F79  E2860003           [262] call       27  6   2  
1F7D  1D071300           [263] getglobal  28  76       ; 1672515847
1F81  5207800D           [264] move       29  27     
1F85  22070101           [265] call       28  2   4  
1F89  1A401680           [266] jmp        90           ; to [357]
fail op	35
1F8D  63000010           [267] close      1  
1F91  1AC01580           [268] jmp        88           ; to [357]
fail op	35
1F95  63400010           [269] close      1  
1F99  1A401580           [270] jmp        86           ; to [357]
1F9D  64884F10           [271] self       33  32  318  ; 1230984527
1FA1  DD880500           [272] getglobal  35  22       ; Lotus_Game
1FA5  CEC8CF11           [273] gettable   35  35  319  ; "AR_IMMUNE_ALL"
1FA9  62888001           [274] call       33  3   2  
1FAD  58480000           [275] test       33      1    ; to [277] if false
1FB1  1AC01380           [276] jmp        80           ; to [357]
1FB5  5D480600           [277] getglobal  33  25       ; 1074689893
1FB9  92088000           [278] move       34  1      
1FBD  62880001           [279] call       33  2   2  
1FC1  58480000           [280] test       33      1    ; to [282] if false
1FC5  1A000180           [281] jmp        5            ; to [287]
1FC9  64485310           [282] self       33  32  333  ; 1800191191
1FCD  D2088000           [283] move       35  1      
1FD1  62888001           [284] call       33  3   2  
1FD5  58080000           [285] test       33      0    ; to [287] if true
1FD9  1A400280           [286] jmp        10           ; to [297]
1FDD  5D480600           [287] getglobal  33  25       ; 1074689893
1FE1  92088000           [288] move       34  1      
1FE5  62880001           [289] call       33  2   2  
1FE9  58080000           [290] test       33      0    ; to [292] if true
1FED  1A001080           [291] jmp        65           ; to [357]
1FF1  64885310           [292] self       33  32  334  ; -1378742765
1FF5  D2080009           [293] move       35  18     
1FF9  62888001           [294] call       33  3   2  
1FFD  58480000           [295] test       33      1    ; to [297] if false
2001  1AC00E80           [296] jmp        60           ; to [357]
2005  64C85310           [297] self       33  32  335  ; -1421644046
2009  DD081400           [298] getglobal  35  80       ; coilAttackBeam
200D  24C94810           [299] self       36  32  291  ; -1544157541
2011  22890001           [300] call       36  2   2  
2015  24094912           [301] self       36  36  292  ; 384745901
2019  9D490900           [302] getglobal  38  37       ; Engine
201D  8E894913           [303] gettable   38  38  294  ; "TORSO"
2021  22898001           [304] call       36  3   2  
2025  5D491400           [305] getglobal  37  81       ; ZERO_VECTOR
2029  9D891400           [306] getglobal  38  82       ; ZERO_ROTATION
202D  D2098003           [307] move       39  7      
2031  62888003           [308] call       33  7   2  
2035  9D480600           [309] getglobal  34  25       ; 1074689893
2039  D2088010           [310] move       35  33     
203D  A2880001           [311] call       34  2   2  
2041  98480000           [312] test       34      1    ; to [314] if false
2045  1A400280           [313] jmp        10           ; to [324]
fail op	35
2049  23C05106           [314] close      0  
204D  1AC00080           [315] jmp        4            ; to [320]
2051  A4C8D410           [316] self       34  33  339  ; 1311555023
2055  12098005           [317] move       36  11     
2059  A2488001           [318] call       34  3   1  
205D  1AC00080           [319] jmp        4            ; to [324]
2061  A408D510           [320] self       34  33  340  ; -408095485
2065  12090000           [321] move       36  0      
2069  52090006           [322] move       37  12     
206D  A2480002           [323] call       34  4   1  
2071  97068000           [324] loadbool   26  1   0    ; true
2075  9DC80100           [325] getglobal  34  7        ; gRegion
2079  A4084211           [326] self       34  34  264  ; -1520831144
207D  A2880001           [327] call       34  2   2  
2081  98080000           [328] test       34      0    ; to [330] if true
2085  1A800680           [329] jmp        27           ; to [357]
2089  A4084F10           [330] self       34  32  316  ; 796523475
208D  A2880001           [331] call       34  2   2  
2091  E4C84810           [332] self       35  32  291  ; -1544157541
2095  E2880001           [333] call       35  2   2  
2099  E448D511           [334] self       35  35  341  ; -1583259949
209D  E2880001           [335] call       35  2   2  
20A1  24895510           [336] self       36  32  342  ; 1193457265
20A5  92090008           [337] move       38  16     
20A9  22498001           [338] call       36  3   1  
20AD  1D090B00           [339] getglobal  36  44       ; math
20B1  0EC95512           [340] gettable   36  36  343  ; -1962864584
20B5  59090500           [341] loadk      37  20       ; 0
20B9  A4094F10           [342] self       38  32  316  ; 796523475
20BD  A2890001           [343] call       38  2   2  
20C1  8D890911           [344] sub        38  34  38 
20C5  22898001           [345] call       36  3   2  
20C9  5D090B00           [346] getglobal  37  44       ; math
20CD  4EC9D512           [347] gettable   37  37  343  ; -1962864584
20D1  99090500           [348] loadk      38  20       ; 0
20D5  E4C94810           [349] self       39  32  291  ; -1544157541
20D9  E2890001           [350] call       39  2   2  
20DD  E449D513           [351] self       39  39  341  ; -1583259949
20E1  E2890001           [352] call       39  2   2  
20E5  CDC98911           [353] sub        39  35  39 
20E9  62898001           [354] call       37  3   2  
20ED  03490912           [355] add        36  36  37 
20F1  0306090C           [356] add        24  24  36 
20F5  16870000           [357] tforloop   28      2    ; to [359] if exit
20F9  1AC0E87F           [358] jmp        -92          ; to [267]
20FD  5DC90100           [359] getglobal  37  7        ; gRegion
2101  6409C212           [360] self       37  37  264  ; -1520831144
2105  62890001           [361] call       37  2   2  
2109  58090000           [362] test       37      0    ; to [364] if true
210D  1A401B80           [363] jmp        110          ; to [474]
2111  18410000           [364] test       4       1    ; to [366] if false
2115  1A400880           [365] jmp        34           ; to [400]
2119  98460000           [366] test       26      1    ; to [368] if false
211D  1AC00780           [367] jmp        32           ; to [400]
fail op	33
2121  21C0850C           [368] tforloop   0       23   ; to [370] if exit
2125  1A400780           [369] jmp        30           ; to [400]
2129  64094F00           [370] self       37  0   316  ; 796523475
212D  62890001           [371] call       37  2   2  
2131  A4C94800           [372] self       38  0   291  ; -1544157541
2135  A2890001           [373] call       38  2   2  
2139  A4495513           [374] self       38  38  341  ; -1583259949
213D  A2890001           [375] call       38  2   2  
2141  D3098002           [376] getupval   39  5      
2145  C4898513           [377] mul        39  39  22 
2149  0CC409A4           [378] settable   16  328 39   ; "baseAmount"
214D  E4895500           [379] self       39  0   342  ; 1193457265
2151  520A0008           [380] move       41  16     
2155  E2498001           [381] call       39  3   1  
2159  DD090B00           [382] getglobal  39  44       ; math
215D  CEC9D513           [383] gettable   39  39  343  ; -1962864584
2161  190A0500           [384] loadk      40  20       ; 0
2165  640A4F00           [385] self       41  0   316  ; 796523475
2169  628A0001           [386] call       41  2   2  
216D  4D4A8A12           [387] sub        41  37  41 
2171  E2898001           [388] call       39  3   2  
2175  1D0A0B00           [389] getglobal  40  44       ; math
2179  0ECA5514           [390] gettable   40  40  343  ; -1962864584
217D  590A0500           [391] loadk      41  20       ; 0
2181  A4CA4800           [392] self       42  0   291  ; -1544157541
2185  A28A0001           [393] call       42  2   2  
2189  A44A5515           [394] self       42  42  341  ; -1583259949
218D  A28A0001           [395] call       42  2   2  
2191  8D8A0A13           [396] sub        42  38  42 
2195  228A8001           [397] call       40  3   2  
2199  C3098A13           [398] add        39  39  40 
219D  03C6090C           [399] add        24  24  39 
fail op	21
21A1  1500068A           [400] concat     0   276 24 
21A5  1AC01180           [401] jmp        72           ; to [474]
21A9  58020000           [402] test       9       0    ; to [404] if true
21AD  1A401180           [403] jmp        70           ; to [474]
21B1  1D4A0600           [404] getglobal  40  25       ; 1074689893
21B5  520A8000           [405] move       41  1      
21B9  228A0001           [406] call       40  2   2  
21BD  184A0000           [407] test       40      1    ; to [409] if false
21C1  1A001080           [408] jmp        65           ; to [474]
21C5  1DCA0100           [409] getglobal  40  7        ; gRegion
21C9  240A5614           [410] self       40  40  344  ; -2071158816
21CD  228A0001           [411] call       40  2   2  
21D1  4B0A0000           [412] newtable   41  0   0    ; array=0, hash=0
21D5  9D0A1300           [413] getglobal  42  76       ; 1672515847
21D9  D20A0014           [414] move       43  40     
21DD  A20A0101           [415] call       42  2   4  
21E1  1A400780           [416] jmp        30           ; to [447]
21E5  E44B4F17           [417] self       47  46  317  ; 1511086594
21E9  E28B0001           [418] call       47  2   2  
21ED  D84B0000           [419] test       47      1    ; to [421] if false
21F1  1A400680           [420] jmp        26           ; to [447]
21F5  E44BD300           [421] self       47  1   333  ; 1800191191
21F9  520C0017           [422] move       49  46     
21FD  E28B8001           [423] call       47  3   2  
2201  D80B0000           [424] test       47      0    ; to [426] if true
2205  1A000580           [425] jmp        21           ; to [447]
2209  E44B5617           [426] self       47  46  345  ; -1689607191
220D  520C8000           [427] move       49  1      
2211  E28B8001           [428] call       47  3   2  
2215  D80B0000           [429] test       47      0    ; to [431] if true
2219  1AC00380           [430] jmp        16           ; to [447]
221D  DD8B1600           [431] getglobal  47  90       ; -1662520301
2221  24CC5617           [432] self       48  46  347  ; 196800914
2225  228C0001           [433] call       48  2   2  
2229  64CCD600           [434] self       49  1   347  ; 196800914
222D  620C0001           [435] call       49  2   0  
2231  E28B0000           [436] call       47  0   2  
2235  130C8003           [437] getupval   48  7      
2239  530C8003           [438] getupval   49  7      
223D  044C0C18           [439] mul        48  48  49 
fail op	33
2241  21008C17           [440] tforloop   0       48   ; to [442] if exit
2245  1A000180           [441] jmp        5            ; to [447]
2249  DD4B0200           [442] getglobal  47  9        ; table
224D  CE8BC217           [443] gettable   47  47  266  ; -431682403
2251  120C8014           [444] move       48  41     
2255  520C0017           [445] move       49  46     
2259  E24B8001           [446] call       47  3   1  
225D  968A0000           [447] tforloop   42      2    ; to [449] if exit
2261  1AC0F77F           [448] jmp        -32          ; to [417]
2265  CA0B8014           [449] len        47  41     
fail op	21
2269  15C00B8A           [450] concat     0   276 47 
226D  1A400580           [451] jmp        22           ; to [474]
2271  DD0B0B00           [452] getglobal  47  44       ; math
2275  CE0BD717           [453] gettable   47  47  348  ; -150971781
2279  130C0004           [454] getupval   48  8      
227D  040C0618           [455] mul        48  48  24 
2281  4A0C8014           [456] len        49  41     
2285  1C4C0C18           [457] div        48  48  49 
2289  E28B0001           [458] call       47  2   2  
228D  1D0C1300           [459] getglobal  48  76       ; 1672515847
2291  520C8014           [460] move       49  41     
2295  220C0101           [461] call       48  2   4  
2299  1A400180           [462] jmp        6            ; to [469]
229D  64CD481A           [463] self       53  52  291  ; -1544157541
22A1  628D0001           [464] call       53  2   2  
22A5  644DD71A           [465] self       53  53  349  ; -1877044716
22A9  D20D8017           [466] move       55  47     
22AD  170E8000           [467] loadbool   56  1   0    ; true
22B1  624D0002           [468] call       53  4   1  
22B5  168C0000           [469] tforloop   48      2    ; to [471] if exit
22B9  1AC0FD7F           [470] jmp        -8           ; to [463]
22BD  4A0D8014           [471] len        53  41     
22C1  444D8D17           [472] mul        53  47  53 
22C5  0D460D0C           [473] sub        24  24  53 
22C9  98060000           [474] test       26      0    ; to [476] if true
22CD  1A800280           [475] jmp        11           ; to [487]
22D1  D9050500           [476] loadk      23  20       ; 0
22D5  18010000           [477] test       4       0    ; to [479] if true
22D9  1AC00180           [478] jmp        8            ; to [487]
22DD  5DCD0100           [479] getglobal  53  7        ; gRegion
22E1  640DC21A           [480] self       53  53  264  ; -1520831144
22E5  628D0001           [481] call       53  2   2  
22E9  580D0000           [482] test       53      0    ; to [484] if true
22ED  1A400680           [483] jmp        26           ; to [510]
22F1  648D5700           [484] self       53  0   350  ; -725453761
22F5  624D0001           [485] call       53  2   1  
22F9  1A800580           [486] jmp        23           ; to [510]
22FD  4385850A           [487] add        21  21  22 
2301  5DCD1700           [488] getglobal  53  95       ; 538022378
2305  990D0500           [489] loadk      54  20       ; 0
2309  624D0001           [490] call       53  2   1  
230D  530D0001           [491] getupval   53  2      
2311  9D0D1800           [492] getglobal  54  96       ; 1289681407
2315  A28D8000           [493] call       54  1   2  
2319  4D8D8D1A           [494] sub        53  53  54 
fail op	8
231D  480D0001           [495] setupval   53  2      
2321  5D0D1800           [496] getglobal  53  96       ; 1289681407
2325  628D8000           [497] call       53  1   2  
2329  4D458D0A           [498] sub        21  21  53 
232D  5D0D0B00           [499] getglobal  53  44       ; math
2331  4E4DCB1A           [500] gettable   53  53  301  ; 1710846250
2335  920D800C           [501] move       54  25     
2339  D30D8002           [502] getupval   55  5      
233D  1D0E1800           [503] getglobal  56  96       ; 1289681407
2341  228E8000           [504] call       56  1   2  
2345  C40D8E1B           [505] mul        55  55  56 
2349  C3CD8D0B           [506] add        55  23  55 
234D  628D8001           [507] call       53  3   2  
2351  D205801A           [508] move       23  53     
2355  1AC0A97F           [509] jmp        -344         ; to [166]
2359  5DCD0200           [510] getglobal  53  11       ; _T
235D  4E0DD01A           [511] gettable   53  53  320  ; -608285432
2361  920D8008           [512] move       54  17     
2365  D20D8000           [513] move       55  1      
2369  190E0500           [514] loadk      56  20       ; 0
236D  624D0002           [515] call       53  4   1  
2371  58010000           [516] test       5       0    ; to [518] if true
2375  1A800980           [517] jmp        39           ; to [557]
2379  5D4D0600           [518] getglobal  53  25       ; 1074689893
237D  920D0000           [519] move       54  0      
2381  628D0001           [520] call       53  2   2  
2385  584D0000           [521] test       53      1    ; to [523] if false
2389  1A400880           [522] jmp        34           ; to [557]
238D  644D4F00           [523] self       53  0   317  ; 1511086594
2391  628D0001           [524] call       53  2   2  
2395  584D0000           [525] test       53      1    ; to [527] if false
2399  1A400780           [526] jmp        30           ; to [557]
239D  648D5000           [527] self       53  0   322  ; 1062964318
23A1  D20D8009           [528] move       55  19     
23A5  628D8001           [529] call       53  3   2  
23A9  580D0000           [530] test       53      0    ; to [532] if true
23AD  1A000680           [531] jmp        25           ; to [557]
23B1  5D4D0600           [532] getglobal  53  25       ; 1074689893
23B5  A4CD5000           [533] self       54  0   323  ; -1174384187
23B9  1DCE0D00           [534] getglobal  56  55       ; -332969190
23BD  594E1800           [535] loadk      57  97       ; "ELECTRIFIED_END"
23C1  228E0001           [536] call       56  2   2  
23C5  570E0000           [537] loadbool   57  0   0    ; false
23C9  9D4E0900           [538] getglobal  58  37       ; Engine
23CD  8E0E511D           [539] gettable   58  58  324  ; "ATMM_ANIMATION_DRIVEN"
23D1  DD4E0900           [540] getglobal  59  37       ; Engine
23D5  CE8ED81D           [541] gettable   59  59  354  ; "PRT_ONCE"
23D9  170F8000           [542] loadbool   60  1   0    ; true
23DD  520F000A           [543] move       61  20     
23E1  A20D0004           [544] call       54  8   0  
23E5  628D0000           [545] call       53  0   2  
23E9  580D0000           [546] test       53      0    ; to [548] if true
23ED  1A000280           [547] jmp        9            ; to [557]
23F1  64CD5800           [548] self       53  0   355  ; -2037488534
23F5  C60D801B           [549] loadnil    55  55     
23F9  170E0000           [550] loadbool   56  0   0    ; false
23FD  5D4E0900           [551] getglobal  57  37       ; Engine
2401  4E0ED11C           [552] gettable   57  57  324  ; "ATMM_ANIMATION_DRIVEN"
2405  9D4E0900           [553] getglobal  58  37       ; Engine
2409  8E8E581D           [554] gettable   58  58  354  ; "PRT_ONCE"
240D  D70E0000           [555] loadbool   59  0   0    ; false
2411  624D8003           [556] call       53  7   1  
2415  5DCD0100           [557] getglobal  53  7        ; gRegion
2419  640DC21A           [558] self       53  53  264  ; -1520831144
241D  628D0001           [559] call       53  2   2  
2421  580D0000           [560] test       53      0    ; to [562] if true
2425  1AC00880           [561] jmp        36           ; to [598]
2429  5D4D0600           [562] getglobal  53  25       ; 1074689893
242D  920D0001           [563] move       54  2      
2431  628D0001           [564] call       53  2   2  
2435  584D0000           [565] test       53      1    ; to [567] if false
2439  1A400080           [566] jmp        2            ; to [569]
243D  648D5701           [567] self       53  2   350  ; -725453761
2441  624D0001           [568] call       53  2   1  
2445  18010000           [569] test       4       0    ; to [571] if true
2449  1A800480           [570] jmp        19           ; to [590]
244D  5D0D1300           [571] getglobal  53  76       ; 1672515847
2451  9DCD0200           [572] getglobal  54  11       ; _T
2455  8E0D431B           [573] gettable   54  54  268  ; "voltOverload"
2459  8E4D431B           [574] gettable   54  54  269  ; "crateVictims"
245D  620D0101           [575] call       53  2   4  
2461  1A400280           [576] jmp        10           ; to [587]
fail op	35
2465  2300801C           [577] close      0  
2469  1AC00180           [578] jmp        8            ; to [587]
246D  9D4E0200           [579] getglobal  58  9        ; table
2471  8E0E591D           [580] gettable   58  58  356  ; -843973282
2475  DDCE0200           [581] getglobal  59  11       ; _T
2479  CE0EC31D           [582] gettable   59  59  268  ; "voltOverload"
247D  CE4EC31D           [583] gettable   59  59  269  ; "crateVictims"
2481  120F001C           [584] move       60  56     
2485  A24E8001           [585] call       58  3   1  
2489  1A800280           [586] jmp        11           ; to [598]
248D  568D0000           [587] tforloop   53      2    ; to [589] if exit
2491  1AC0FC7F           [588] jmp        -12          ; to [577]
2495  1AC00180           [589] jmp        8            ; to [598]
2499  9DCE0200           [590] getglobal  58  11       ; _T
249D  8E0E431D           [591] gettable   58  58  268  ; "voltOverload"
24A1  8E8E431D           [592] gettable   58  58  270  ; "avatarVictims"
24A5  8CCE5103           [593] settable   58  6   327  ; nil
24A9  9DCE0200           [594] getglobal  58  11       ; _T
24AD  8E0E431D           [595] gettable   58  58  268  ; "voltOverload"
24B1  8E8E511D           [596] gettable   58  58  326  ; "bonusDamage"
24B5  8CCE5103           [597] settable   58  6   327  ; nil
24B9  1E008000           [598] return     0   1      
                         * constants:
24BD  65                 sizek (101)
24BE  04                 const type 4
24BF  11                 string size (17)
24C0  696E737469676174+  "instigat"
24C8  6F72417661746172+  "orAvatar"
24D0  00                 "\0"
                         const [0]: "instigatorAvatar"
24D1  04                 const type 4
24D2  08                 string size (8)
24D3  737061776E657200   "spawner\0"
                         const [1]: "spawner"
24DB  04                 const type 4
24DC  09                 string size (9)
24DD  64697374616E6365+  "distance"
24E5  00                 "\0"
                         const [2]: "distance"
24E6  01                 const type 3
24E7  D48E598B           const [3]: (-1957065004)
24EB  04                 const type 4
24EC  0E                 string size (14)
24ED  6C6F6F7443726174+  "lootCrat"
24F5  655479706500       "eType\0"
                         const [4]: "lootCrateType"
24FB  04                 const type 4
24FC  14                 string size (20)
24FD  674C6F7475734E70+  "gLotusNp"
2505  6341766174617254+  "cAvatarT"
250D  79706500           "ype\0"
                         const [5]: "gLotusNpcAvatarType"
2511  01                 const type 3
2512  B60FEFDB           const [6]: (-605089866)
2516  04                 const type 4
2517  08                 string size (8)
2518  67526567696F6E00   "gRegion\0"
                         const [7]: "gRegion"
2520  01                 const type 3
2521  58F559A5           const [8]: (-1520831144)
2525  04                 const type 4
2526  06                 string size (6)
2527  7461626C6500       "table\0"
                         const [9]: "table"
252D  01                 const type 3
252E  9D0C45E6           const [10]: (-431682403)
2532  04                 const type 4
2533  03                 string size (3)
2534  5F5400             "_T\0"
                         const [11]: "_T"
2537  04                 const type 4
2538  0D                 string size (13)
2539  766F6C744F766572+  "voltOver"
2541  6C6F616400         "load\0"
                         const [12]: "voltOverload"
2546  04                 const type 4
2547  0D                 string size (13)
2548  6372617465566963+  "crateVic"
2550  74696D7300         "tims\0"
                         const [13]: "crateVictims"
2555  04                 const type 4
2556  0E                 string size (14)
2557  6176617461725669+  "avatarVi"
255F  6374696D7300       "ctims\0"
                         const [14]: "avatarVictims"
2565  01                 const type 3
2566  1FD0B58D           const [15]: (-1917464545)
256A  01                 const type 3
256B  59AC7869           const [16]: (1769516121)
256F  01                 const type 3
2570  38C555EA           const [17]: (-363477704)
2574  04                 const type 4
2575  0E                 string size (14)
2576  4142494C4954595F+  "ABILITY_"
257E  494E44455800       "INDEX\0"
                         const [18]: "ABILITY_INDEX"
2584  01                 const type 3
2585  040591FD           const [19]: (-40827644)
2589  03                 const type 3
258A  00000000           const [20]: (0)
258E  01                 const type 3
258F  97918446           const [21]: (1183093143)
2593  04                 const type 4
2594  0B                 string size (11)
2595  4C6F7475735F4761+  "Lotus_Ga"
259D  6D6500             "me\0"
                         const [22]: "Lotus_Game"
25A0  04                 const type 4
25A1  16                 string size (22)
25A2  506F776572537569+  "PowerSui"
25AA  745F4155474D454E+  "t_AUGMEN"
25B2  545F4F4E4500       "T_ONE\0"
                         const [23]: "PowerSuit_AUGMENT_ONE"
25B8  01                 const type 3
25B9  93DDD9AB           const [24]: (-1411785325)
25BD  01                 const type 3
25BE  65770E40           const [25]: (1074689893)
25C2  04                 const type 4
25C3  08                 string size (8)
25C4  67436C69656E7400   "gClient\0"
                         const [26]: "gClient"
25CC  01                 const type 3
25CD  224D3673           const [27]: (1932938530)
25D1  01                 const type 3
25D2  201A25D3           const [28]: (-752543200)
25D6  04                 const type 4
25D7  13                 string size (19)
25D8  7061727469636C65+  "particle"
25E0  5379735175616C69+  "SysQuali"
25E8  747900             "ty\0"
                         const [29]: "particleSysQuality"
25EB  03                 const type 3
25EC  00000040           const [30]: (0)
25F0  01                 const type 3
25F1  F68CA100           const [31]: (10587382)
25F5  01                 const type 3
25F6  DA65B113           const [32]: (330393050)
25FA  01                 const type 3
25FB  626F741D           const [33]: (494169954)
25FF  01                 const type 3
2600  2B3881E6           const [34]: (-427739093)
2604  01                 const type 3
2605  9B06F6A3           const [35]: (-1544157541)
2609  01                 const type 3
260A  ADC1EE16           const [36]: (384745901)
260E  04                 const type 4
260F  07                 string size (7)
2610  456E67696E6500     "Engine\0"
                         const [37]: "Engine"
2617  04                 const type 4
2618  06                 string size (6)
2619  544F52534F00       "TORSO\0"
                         const [38]: "TORSO"
261F  01                 const type 3
2620  F10DF831           const [39]: (838340081)
2624  01                 const type 3
2625  61F227FC           const [40]: (-64490911)
2629  04                 const type 4
262A  0F                 string size (15)
262B  44545F454C454354+  "DT_ELECT"
2633  52494349545900     "RICITY\0"
                         const [41]: "DT_ELECTRICITY"
263A  04                 const type 4
263B  09                 string size (9)
263C  6D696E56616C7565+  "minValue"
2644  00                 "\0"
                         const [42]: "minValue"
2645  01                 const type 3
2646  253FB403           const [43]: (62144293)
264A  04                 const type 4
264B  05                 string size (5)
264C  6D61746800         "math\0"
                         const [44]: "math"
2651  01                 const type 3
2652  2A71F965           const [45]: (1710846250)
2656  04                 const type 4
2657  09                 string size (9)
2658  6D617856616C7565+  "maxValue"
2660  00                 "\0"
                         const [46]: "maxValue"
2661  01                 const type 3
2662  554B0393           const [47]: (-1828500651)
2666  03                 const type 3
2667  0000803F           const [48]: (0)
266B  01                 const type 3
266C  26D21EFA           const [49]: (-98643418)
2670  01                 const type 3
2671  F85AA4C4           const [50]: (-995861768)
2675  01                 const type 3
2676  83B1EDE6           const [51]: (-420630141)
267A  01                 const type 3
267B  35D2DA85           const [52]: (-2049256907)
267F  01                 const type 3
2680  652CB3E2           const [53]: (-491574171)
2684  01                 const type 3
2685  53C18DBF           const [54]: (-1081228973)
2689  01                 const type 3
268A  1A4B27EC           const [55]: (-332969190)
268E  04                 const type 4
268F  11                 string size (17)
2690  454C454354524946+  "ELECTRIF"
2698  4945445F4C4F4F50+  "IED_LOOP"
26A0  00                 "\0"
                         const [56]: "ELECTRIFIED_LOOP"
26A1  01                 const type 3
26A2  7DB5D47F           const [57]: (2144646525)
26A6  03                 const type 3
26A7  00004040           const [58]: (0)
26AB  03                 const type 3
26AC  0000003F           const [59]: (0)
26B0  01                 const type 3
26B1  D3FB792F           const [60]: (796523475)
26B5  01                 const type 3
26B6  025A115A           const [61]: (1511086594)
26BA  01                 const type 3
26BB  4F555F49           const [62]: (1230984527)
26BF  04                 const type 4
26C0  0E                 string size (14)
26C1  41525F494D4D554E+  "AR_IMMUN"
26C9  455F414C4C00       "E_ALL\0"
                         const [63]: "AR_IMMUNE_ALL"
26CF  01                 const type 3
26D0  084DBEDB           const [64]: (-608285432)
26D4  01                 const type 3
26D5  18AB66BA           const [65]: (-1167676648)
26D9  01                 const type 3
26DA  5E8C5B3F           const [66]: (1062964318)
26DE  01                 const type 3
26DF  C55100BA           const [67]: (-1174384187)
26E3  04                 const type 4
26E4  16                 string size (22)
26E5  41544D4D5F414E49+  "ATMM_ANI"
26ED  4D4154494F4E5F44+  "MATION_D"
26F5  524956454E00       "RIVEN\0"
                         const [68]: "ATMM_ANIMATION_DRIVEN"
26FB  04                 const type 4
26FC  09                 string size (9)
26FD  5052545F4C4F4F50+  "PRT_LOOP"
2705  00                 "\0"
                         const [69]: "PRT_LOOP"
2706  04                 const type 4
2707  0C                 string size (12)
2708  626F6E757344616D+  "bonusDam"
2710  61676500           "age\0"
                         const [70]: "bonusDamage"
2714  00                 const type 0
                         const [71]: nil
2715  04                 const type 4
2716  0B                 string size (11)
2717  62617365416D6F75+  "baseAmou"
271F  6E7400             "nt\0"
                         const [72]: "baseAmount"
2722  01                 const type 3
2723  009A1309           const [73]: (152279552)
2727  04                 const type 4
2728  11                 string size (17)
2729  674C6F7475734176+  "gLotusAv"
2731  6174617254797065+  "atarType"
2739  00                 "\0"
                         const [74]: "gLotusAvatarType"
273A  01                 const type 3
273B  0125A76D           const [75]: (1839670529)
273F  01                 const type 3
2740  0791B063           const [76]: (1672515847)
2744  01                 const type 3
2745  D7BC4C6B           const [77]: (1800191191)
2749  01                 const type 3
274A  130ED2AD           const [78]: (-1378742765)
274E  01                 const type 3
274F  F26E43AB           const [79]: (-1421644046)
2753  04                 const type 4
2754  0F                 string size (15)
2755  636F696C41747461+  "coilAtta"
275D  636B4265616D00     "ckBeam\0"
                         const [80]: "coilAttackBeam"
2764  04                 const type 4
2765  0C                 string size (12)
2766  5A45524F5F564543+  "ZERO_VEC"
276E  544F5200           "TOR\0"
                         const [81]: "ZERO_VECTOR"
2772  04                 const type 4
2773  0E                 string size (14)
2774  5A45524F5F524F54+  "ZERO_ROT"
277C  4154494F4E00       "ATION\0"
                         const [82]: "ZERO_ROTATION"
2782  01                 const type 3
2783  CFBD2C4E           const [83]: (1311555023)
2787  01                 const type 3
2788  03F5ACE7           const [84]: (-408095485)
278C  01                 const type 3
278D  D35EA1A1           const [85]: (-1583259949)
2791  01                 const type 3
2792  71B62247           const [86]: (1193457265)
2796  01                 const type 3
2797  3810018B           const [87]: (-1962864584)
279B  01                 const type 3
279C  E09F8C84           const [88]: (-2071158816)
27A0  01                 const type 3
27A1  E9A34A9B           const [89]: (-1689607191)
27A5  01                 const type 3
27A6  13F4E79C           const [90]: (-1662520301)
27AA  01                 const type 3
27AB  92F1BA0B           const [91]: (196800914)
27AF  01                 const type 3
27B0  7B5A00F7           const [92]: (-150971781)
27B4  01                 const type 3
27B5  14921E90           const [93]: (-1877044716)
27B9  01                 const type 3
27BA  3F74C2D4           const [94]: (-725453761)
27BE  01                 const type 3
27BF  EA911120           const [95]: (538022378)
27C3  01                 const type 3
27C4  FFF9DE4C           const [96]: (1289681407)
27C8  04                 const type 4
27C9  10                 string size (16)
27CA  454C454354524946+  "ELECTRIF"
27D2  4945445F454E4400   "IED_END\0"
                         const [97]: "ELECTRIFIED_END"
27DA  04                 const type 4
27DB  09                 string size (9)
27DC  5052545F4F4E4345+  "PRT_ONCE"
27E4  00                 "\0"
                         const [98]: "PRT_ONCE"
27E5  01                 const type 3
27E6  6A648E86           const [99]: (-2037488534)
27EA  01                 const type 3
27EB  5EFDB1CD           const [100]: (-843973282)
                         * functions:
27EF  00                 sizep (0)
                         * lines:
27F1  04                 sizelineinfo (598)
                         [pc] (line)
27F2  11                 [001] (17)
27F3  01                 [002] (17)
27F4  00                 [003] (18)
27F5  00                 [004] (18)
27F6  11                 [005] (19)
27F7  01                 [006] (19)
27F8  00                 [007] (21)
27F9  00                 [008] (21)
27FA  12                 [009] (21)
27FB  01                 [010] (22)
27FC  00                 [011] (22)
27FD  00                 [012] (22)
27FE  12                 [013] (24)
27FF  01                 [014] (24)
2800  00                 [015] (25)
2801  00                 [016] (25)
2802  13                 [017] (25)
2803  01                 [018] (25)
2804  00                 [019] (25)
2805  00                 [020] (26)
2806  13                 [021] (26)
2807  01                 [022] (27)
2808  00                 [023] (27)
2809  00                 [024] (27)
280A  15                 [025] (27)
280B  01                 [026] (27)
280C  00                 [027] (27)
280D  00                 [028] (27)
280E  15                 [029] (27)
280F  01                 [030] (29)
2810  00                 [031] (29)
2811  00                 [032] (29)
2812  15                 [033] (29)
2813  01                 [034] (33)
2814  00                 [035] (33)
2815  00                 [036] (33)
2816  16                 [037] (33)
2817  01                 [038] (34)
2818  00                 [039] (34)
2819  00                 [040] (34)
281A  16                 [041] (35)
281B  01                 [042] (35)
281C  00                 [043] (35)
281D  00                 [044] (35)
281E  16                 [045] (35)
281F  01                 [046] (35)
2820  00                 [047] (35)
2821  00                 [048] (35)
2822  18                 [049] (35)
2823  01                 [050] (35)
2824  00                 [051] (35)
2825  00                 [052] (35)
2826  18                 [053] (35)
2827  01                 [054] (35)
2828  00                 [055] (37)
2829  00                 [056] (38)
282A  19                 [057] (38)
282B  01                 [058] (39)
282C  00                 [059] (39)
282D  00                 [060] (39)
282E  19                 [061] (41)
282F  01                 [062] (41)
2830  00                 [063] (41)
2831  00                 [064] (41)
2832  19                 [065] (41)
2833  01                 [066] (41)
2834  00                 [067] (41)
2835  00                 [068] (41)
2836  19                 [069] (41)
2837  01                 [070] (41)
2838  00                 [071] (41)
2839  00                 [072] (41)
283A  19                 [073] (41)
283B  01                 [074] (42)
283C  00                 [075] (42)
283D  00                 [076] (42)
283E  1A                 [077] (42)
283F  01                 [078] (45)
2840  00                 [079] (45)
2841  00                 [080] (45)
2842  1A                 [081] (45)
2843  01                 [082] (45)
2844  00                 [083] (45)
2845  00                 [084] (46)
2846  1B                 [085] (46)
2847  01                 [086] (46)
2848  00                 [087] (46)
2849  00                 [088] (49)
284A  1B                 [089] (49)
284B  01                 [090] (50)
284C  00                 [091] (51)
284D  00                 [092] (51)
284E  1B                 [093] (52)
284F  01                 [094] (52)
2850  00                 [095] (52)
2851  00                 [096] (52)
2852  1B                 [097] (52)
2853  01                 [098] (52)
2854  00                 [099] (52)
2855  00                 [100] (55)
2856  1B                 [101] (55)
2857  01                 [102] (56)
2858  00                 [103] (56)
2859  00                 [104] (56)
285A  1B                 [105] (56)
285B  01                 [106] (56)
285C  00                 [107] (58)
285D  00                 [108] (58)
285E  1B                 [109] (58)
285F  01                 [110] (58)
2860  00                 [111] (59)
2861  00                 [112] (59)
2862  1B                 [113] (59)
2863  01                 [114] (59)
2864  00                 [115] (59)
2865  00                 [116] (59)
2866  1D                 [117] (59)
2867  01                 [118] (59)
2868  00                 [119] (59)
2869  00                 [120] (60)
286A  1D                 [121] (60)
286B  01                 [122] (60)
286C  00                 [123] (60)
286D  00                 [124] (60)
286E  1D                 [125] (61)
286F  01                 [126] (61)
2870  00                 [127] (61)
2871  00                 [128] (62)
2872  1D                 [129] (63)
2873  01                 [130] (63)
2874  00                 [131] (63)
2875  00                 [132] (66)
2876  21                 [133] (66)
2877  01                 [134] (66)
2878  00                 [135] (67)
2879  00                 [136] (67)
287A  21                 [137] (67)
287B  01                 [138] (67)
287C  00                 [139] (67)
287D  00                 [140] (68)
287E  21                 [141] (68)
287F  01                 [142] (68)
2880  00                 [143] (69)
2881  00                 [144] (69)
2882  21                 [145] (69)
2883  01                 [146] (71)
2884  00                 [147] (71)
2885  00                 [148] (72)
2886  22                 [149] (72)
2887  01                 [150] (73)
2888  00                 [151] (73)
2889  00                 [152] (73)
288A  22                 [153] (74)
288B  01                 [154] (74)
288C  00                 [155] (74)
288D  00                 [156] (74)
288E  22                 [157] (75)
288F  01                 [158] (76)
2890  00                 [159] (77)
2891  00                 [160] (77)
2892  23                 [161] (77)
2893  01                 [162] (78)
2894  00                 [163] (79)
2895  00                 [164] (79)
2896  23                 [165] (79)
2897  01                 [166] (81)
2898  00                 [167] (81)
2899  00                 [168] (81)
289A  23                 [169] (82)
289B  01                 [170] (82)
289C  00                 [171] (82)
289D  00                 [172] (82)
289E  23                 [173] (82)
289F  01                 [174] (83)
28A0  00                 [175] (83)
28A1  00                 [176] (83)
28A2  23                 [177] (83)
28A3  01                 [178] (83)
28A4  00                 [179] (85)
28A5  00                 [180] (85)
28A6  23                 [181] (85)
28A7  01                 [182] (85)
28A8  00                 [183] (85)
28A9  00                 [184] (85)
28AA  23                 [185] (86)
28AB  01                 [186] (86)
28AC  00                 [187] (86)
28AD  00                 [188] (86)
28AE  23                 [189] (86)
28AF  01                 [190] (86)
28B0  00                 [191] (86)
28B1  00                 [192] (86)
28B2  23                 [193] (86)
28B3  01                 [194] (86)
28B4  00                 [195] (87)
28B5  00                 [196] (87)
28B6  23                 [197] (89)
28B7  01                 [198] (89)
28B8  00                 [199] (89)
28B9  00                 [200] (89)
28BA  23                 [201] (89)
28BB  01                 [202] (89)
28BC  00                 [203] (91)
28BD  00                 [204] (91)
28BE  23                 [205] (91)
28BF  01                 [206] (91)
28C0  00                 [207] (91)
28C1  00                 [208] (92)
28C2  23                 [209] (92)
28C3  01                 [210] (95)
28C4  00                 [211] (95)
28C5  00                 [212] (95)
28C6  23                 [213] (95)
28C7  01                 [214] (95)
28C8  00                 [215] (95)
28C9  00                 [216] (95)
28CA  25                 [217] (96)
28CB  01                 [218] (96)
28CC  00                 [219] (96)
28CD  00                 [220] (96)
28CE  26                 [221] (96)
28CF  01                 [222] (96)
28D0  00                 [223] (96)
28D1  00                 [224] (96)
28D2  26                 [225] (96)
28D3  01                 [226] (96)
28D4  00                 [227] (99)
28D5  00                 [228] (99)
28D6  27                 [229] (99)
28D7  01                 [230] (99)
28D8  00                 [231] (100)
28D9  00                 [232] (100)
28DA  27                 [233] (100)
28DB  01                 [234] (100)
28DC  00                 [235] (100)
28DD  00                 [236] (100)
28DE  27                 [237] (100)
28DF  01                 [238] (100)
28E0  00                 [239] (100)
28E1  00                 [240] (100)
28E2  29                 [241] (100)
28E3  01                 [242] (101)
28E4  00                 [243] (101)
28E5  00                 [244] (101)
28E6  29                 [245] (101)
28E7  01                 [246] (101)
28E8  00                 [247] (101)
28E9  00                 [248] (101)
28EA  29                 [249] (102)
28EB  01                 [250] (102)
28EC  00                 [251] (102)
28ED  00                 [252] (102)
28EE  29                 [253] (105)
28EF  01                 [254] (107)
28F0  00                 [255] (108)
28F1  00                 [256] (108)
28F2  29                 [257] (108)
28F3  01                 [258] (108)
28F4  00                 [259] (108)
28F5  00                 [260] (108)
28F6  29                 [261] (108)
28F7  01                 [262] (108)
28F8  00                 [263] (109)
28F9  00                 [264] (109)
28FA  29                 [265] (109)
28FB  01                 [266] (109)
28FC  00                 [267] (111)
28FD  00                 [268] (111)
28FE  29                 [269] (111)
28FF  01                 [270] (111)
2900  00                 [271] (112)
2901  00                 [272] (112)
2902  29                 [273] (112)
2903  01                 [274] (112)
2904  00                 [275] (112)
2905  00                 [276] (112)
2906  29                 [277] (114)
2907  01                 [278] (114)
2908  00                 [279] (114)
2909  00                 [280] (114)
290A  29                 [281] (114)
290B  01                 [282] (114)
290C  00                 [283] (114)
290D  00                 [284] (114)
290E  29                 [285] (114)
290F  01                 [286] (114)
2910  00                 [287] (115)
2911  00                 [288] (115)
2912  29                 [289] (115)
2913  01                 [290] (115)
2914  00                 [291] (115)
2915  00                 [292] (115)
2916  2A                 [293] (115)
2917  01                 [294] (115)
2918  00                 [295] (116)
2919  00                 [296] (116)
291A  2A                 [297] (118)
291B  01                 [298] (118)
291C  00                 [299] (118)
291D  00                 [300] (118)
291E  2A                 [301] (118)
291F  01                 [302] (118)
2920  00                 [303] (118)
2921  00                 [304] (118)
2922  2A                 [305] (118)
2923  01                 [306] (118)
2924  00                 [307] (118)
2925  00                 [308] (118)
2926  2D                 [309] (119)
2927  01                 [310] (119)
2928  00                 [311] (119)
2929  00                 [312] (119)
292A  2D                 [313] (119)
292B  01                 [314] (120)
292C  00                 [315] (120)
292D  00                 [316] (121)
292E  2D                 [317] (121)
292F  01                 [318] (121)
2930  00                 [319] (121)
2931  00                 [320] (123)
2932  2D                 [321] (123)
2933  01                 [322] (123)
2934  00                 [323] (123)
2935  00                 [324] (127)
2936  2D                 [325] (-127)
2937  01                 [326] (-127)
2938  00                 [327] (-127)
2939  00                 [328] (-127)
293A  2D                 [329] (-127)
293B  01                 [330] (-126)
293C  00                 [331] (-126)
293D  00                 [332] (-125)
293E  2E                 [333] (-125)
293F  01                 [334] (-125)
2940  00                 [335] (-125)
2941  00                 [336] (-122)
2942  2E                 [337] (-122)
2943  01                 [338] (-122)
2944  00                 [339] (-120)
2945  00                 [340] (-120)
2946  2E                 [341] (-120)
2947  01                 [342] (-120)
2948  00                 [343] (-120)
2949  00                 [344] (-120)
294A  2E                 [345] (-120)
294B  01                 [346] (-120)
294C  00                 [347] (-120)
294D  00                 [348] (-120)
294E  31                 [349] (-120)
294F  01                 [350] (-120)
2950  00                 [351] (-120)
2951  00                 [352] (-120)
2952  31                 [353] (-120)
2953  01                 [354] (-120)
2954  00                 [355] (-120)
2955  00                 [356] (-119)
2956  32                 [357] (109)
2957  01                 [358] (-117)
2958  00                 [359] (-114)
2959  00                 [360] (-114)
295A  33                 [361] (-114)
295B  01                 [362] (-114)
295C  00                 [363] (-114)
295D  00                 [364] (-113)
295E  33                 [365] (-113)
295F  01                 [366] (-113)
2960  00                 [367] (-113)
2961  00                 [368] (-113)
2962  34                 [369] (-113)
2963  01                 [370] (-112)
2964  00                 [371] (-112)
2965  00                 [372] (-111)
2966  34                 [373] (-111)
2967  01                 [374] (-111)
2968  00                 [375] (-111)
2969  00                 [376] (-109)
296A  34                 [377] (-109)
296B  01                 [378] (-109)
296C  00                 [379] (-108)
296D  00                 [380] (-108)
296E  34                 [381] (-108)
296F  01                 [382] (-106)
2970  00                 [383] (-106)
2971  00                 [384] (-106)
2972  34                 [385] (-106)
2973  01                 [386] (-106)
2974  00                 [387] (-106)
2975  00                 [388] (-106)
2976  34                 [389] (-106)
2977  01                 [390] (-106)
2978  00                 [391] (-106)
2979  00                 [392] (-106)
297A  34                 [393] (-106)
297B  01                 [394] (-106)
297C  00                 [395] (-106)
297D  00                 [396] (-106)
297E  37                 [397] (-106)
297F  01                 [398] (-106)
2980  00                 [399] (-105)
2981  00                 [400] (-102)
2982  37                 [401] (-102)
2983  01                 [402] (-102)
2984  00                 [403] (-102)
2985  00                 [404] (-102)
2986  38                 [405] (-102)
2987  01                 [406] (-102)
2988  00                 [407] (-102)
2989  00                 [408] (-102)
298A  38                 [409] (-101)
298B  01                 [410] (-101)
298C  00                 [411] (-101)
298D  00                 [412] (-100)
298E  38                 [413] (-99)
298F  01                 [414] (-99)
2990  00                 [415] (-99)
2991  00                 [416] (-99)
2992  38                 [417] (-97)
2993  01                 [418] (-97)
2994  00                 [419] (-97)
2995  00                 [420] (-97)
2996  38                 [421] (-96)
2997  01                 [422] (-96)
2998  00                 [423] (-96)
2999  00                 [424] (-96)
299A  3A                 [425] (-96)
299B  01                 [426] (-95)
299C  00                 [427] (-95)
299D  00                 [428] (-95)
299E  3A                 [429] (-95)
299F  01                 [430] (-95)
29A0  00                 [431] (-94)
29A1  00                 [432] (-94)
29A2  3A                 [433] (-94)
29A3  01                 [434] (-94)
29A4  00                 [435] (-94)
29A5  00                 [436] (-94)
29A6  3A                 [437] (-94)
29A7  01                 [438] (-94)
29A8  00                 [439] (-94)
29A9  00                 [440] (-94)
29AA  3B                 [441] (-94)
29AB  01                 [442] (-92)
29AC  00                 [443] (-92)
29AD  00                 [444] (-92)
29AE  3B                 [445] (-92)
29AF  01                 [446] (-92)
29B0  00                 [447] (-99)
29B1  00                 [448] (-91)
29B2  3B                 [449] (-88)
29B3  01                 [450] (-88)
29B4  00                 [451] (-88)
29B5  00                 [452] (-87)
29B6  3B                 [453] (-87)
29B7  01                 [454] (-87)
29B8  00                 [455] (-87)
29B9  00                 [456] (-87)
29BA  3B                 [457] (-87)
29BB  01                 [458] (-87)
29BC  00                 [459] (-86)
29BD  00                 [460] (-86)
29BE  3B                 [461] (-86)
29BF  01                 [462] (-86)
29C0  00                 [463] (-85)
29C1  00                 [464] (-85)
29C2  3B                 [465] (-85)
29C3  01                 [466] (-85)
29C4  00                 [467] (-85)
29C5  00                 [468] (-85)
29C6  3B                 [469] (-86)
29C7  01                 [470] (-85)
29C8  00                 [471] (-82)
29C9  00                 [472] (-82)
29CA  3B                 [473] (-82)
29CB  01                 [474] (-77)
29CC  00                 [475] (-77)
29CD  00                 [476] (-76)
29CE  3C                 [477] (-74)
29CF  01                 [478] (-74)
29D0  00                 [479] (-73)
29D1  00                 [480] (-73)
29D2  3C                 [481] (-73)
29D3  01                 [482] (-73)
29D4  00                 [483] (-73)
29D5  00                 [484] (-72)
29D6  3C                 [485] (-72)
29D7  01                 [486] (-69)
29D8  00                 [487] (-65)
29D9  00                 [488] (-62)
29DA  3C                 [489] (-62)
29DB  01                 [490] (-62)
29DC  00                 [491] (-60)
29DD  00                 [492] (-60)
29DE  3C                 [493] (-60)
29DF  01                 [494] (-60)
29E0  00                 [495] (-60)
29E1  00                 [496] (-59)
29E2  3D                 [497] (-59)
29E3  01                 [498] (-59)
29E4  00                 [499] (-58)
29E5  00                 [500] (-58)
29E6  3D                 [501] (-58)
29E7  01                 [502] (-58)
29E8  00                 [503] (-58)
29E9  00                 [504] (-58)
29EA  3D                 [505] (-58)
29EB  01                 [506] (-58)
29EC  00                 [507] (-58)
29ED  00                 [508] (-58)
29EE  3E                 [509] (-58)
29EF  01                 [510] (-55)
29F0  00                 [511] (-55)
29F1  00                 [512] (-55)
29F2  3F                 [513] (-55)
29F3  01                 [514] (-55)
29F4  00                 [515] (-55)
29F5  00                 [516] (-53)
29F6  3F                 [517] (-53)
29F7  01                 [518] (-53)
29F8  00                 [519] (-53)
29F9  00                 [520] (-53)
29FA  3F                 [521] (-53)
29FB  01                 [522] (-53)
29FC  00                 [523] (-53)
29FD  00                 [524] (-53)
29FE  42                 [525] (-53)
29FF  01                 [526] (-53)
2A00  00                 [527] (-53)
2A01  00                 [528] (-53)
2A02  42                 [529] (-53)
2A03  01                 [530] (-53)
2A04  00                 [531] (-53)
2A05  00                 [532] (-52)
2A06  42                 [533] (-52)
2A07  01                 [534] (-52)
2A08  00                 [535] (-52)
2A09  00                 [536] (-52)
2A0A  43                 [537] (-52)
2A0B  01                 [538] (-52)
2A0C  00                 [539] (-52)
2A0D  00                 [540] (-52)
2A0E  43                 [541] (-52)
2A0F  01                 [542] (-52)
2A10  00                 [543] (-52)
2A11  00                 [544] (-52)
2A12  43                 [545] (-52)
2A13  01                 [546] (-52)
2A14  00                 [547] (-52)
2A15  00                 [548] (-51)
2A16  43                 [549] (-51)
2A17  01                 [550] (-51)
2A18  00                 [551] (-51)
2A19  00                 [552] (-51)
2A1A  43                 [553] (-51)
2A1B  01                 [554] (-51)
2A1C  00                 [555] (-51)
2A1D  00                 [556] (-51)
2A1E  44                 [557] (-47)
2A1F  01                 [558] (-47)
2A20  00                 [559] (-47)
2A21  00                 [560] (-47)
2A22  44                 [561] (-47)
2A23  01                 [562] (-46)
2A24  00                 [563] (-46)
2A25  00                 [564] (-46)
2A26  44                 [565] (-46)
2A27  01                 [566] (-46)
2A28  00                 [567] (-45)
2A29  00                 [568] (-45)
2A2A  45                 [569] (-42)
2A2B  01                 [570] (-42)
2A2C  00                 [571] (-41)
2A2D  00                 [572] (-41)
2A2E  45                 [573] (-41)
2A2F  01                 [574] (-41)
2A30  00                 [575] (-41)
2A31  00                 [576] (-41)
2A32  45                 [577] (-40)
2A33  01                 [578] (-40)
2A34  00                 [579] (-39)
2A35  00                 [580] (-39)
2A36  47                 [581] (-39)
2A37  01                 [582] (-39)
2A38  00                 [583] (-39)
2A39  00                 [584] (-39)
2A3A  47                 [585] (-39)
2A3B  01                 [586] (-38)
2A3C  00                 [587] (-41)
2A3D  00                 [588] (-37)
2A3E  48                 [589] (-36)
2A3F  01                 [590] (-34)
2A40  00                 [591] (-34)
2A41  00                 [592] (-34)
2A42  48                 [593] (-34)
2A43  01                 [594] (-33)
2A44  00                 [595] (-33)
2A45  00                 [596] (-33)
2A46  49                 [597] (-33)
2A47  01                 [598] (-30)
                         * locals:
314A  00                 sizelocvars (0)
                         * upvalues:
314B  00                 sizeupvalues (0)
                         ** end of function **

                         
314C                     ** function [12] definition (level 2)
                         ** start of function **
314C  00                 string size (0)
                         source name: (none)
314E  03                 line defined (484)
314F  EA                 last line defined (490)
3150  03                 nups (0)
3151  00                 numparams (3)
3152  03                 is_vararg (0)
3153  00                 maxstacksize (10)
                         * code:
3155  17                 sizecode (23)
3156  DD000000           [01] getglobal  3   0        ; gRegion
315A  E440C001           [02] self       3   3   257  ; -1110225722
315E  5D810000           [03] getglobal  5   2        ; pathBeamType
3162  92018000           [04] move       6   1      
3166  DDC10000           [05] getglobal  7   3        ; ZERO_ROTATION
316A  12020000           [06] move       8   0      
316E  E2800003           [07] call       3   6   2  
3172  1D010000           [08] getglobal  4   0        ; gRegion
3176  24014102           [09] self       4   4   260  ; -47858664
317A  9D410100           [10] getglobal  6   5        ; pathPointEffect
317E  D2018000           [11] move       7   1      
3182  1DC20000           [12] getglobal  8   3        ; ZERO_ROTATION
3186  52020000           [13] move       9   0      
318A  22410003           [14] call       4   6   1  
318E  1D810100           [15] getglobal  4   6        ; 1074689893
3192  52018001           [16] move       5   3      
3196  22810001           [17] call       4   2   2  
319A  18410000           [18] test       4       1    ; to [20] if false
319E  1A800080           [19] jmp        3            ; to [23]
31A2  24C1C101           [20] self       4   3   263  ; 1311555023
31A6  92010001           [21] move       6   2      
31AA  22418001           [22] call       4   3   1  
31AE  1E008000           [23] return     0   1      
                         * constants:
31B2  08                 sizek (8)
31B3  04                 const type 4
31B4  08                 string size (8)
31B5  67526567696F6E00   "gRegion\0"
                         const [0]: "gRegion"
31BD  01                 const type 3
31BE  C64CD3BD           const [1]: (-1110225722)
31C2  04                 const type 4
31C3  0D                 string size (13)
31C4  706174684265616D+  "pathBeam"
31CC  5479706500         "Type\0"
                         const [2]: "pathBeamType"
31D1  04                 const type 4
31D2  0E                 string size (14)
31D3  5A45524F5F524F54+  "ZERO_ROT"
31DB  4154494F4E00       "ATION\0"
                         const [3]: "ZERO_ROTATION"
31E1  01                 const type 3
31E2  18BC25FD           const [4]: (-47858664)
31E6  04                 const type 4
31E7  10                 string size (16)
31E8  70617468506F696E+  "pathPoin"
31F0  7445666665637400   "tEffect\0"
                         const [5]: "pathPointEffect"
31F8  01                 const type 3
31F9  65770E40           const [6]: (1074689893)
31FD  01                 const type 3
31FE  CFBD2C4E           const [7]: (1311555023)
                         * functions:
3202  00                 sizep (0)
                         * lines:
3203  17                 sizelineinfo (23)
                         [pc] (line)
3204  E5                 [01] (-27)
3205  01                 [02] (-27)
3206  00                 [03] (-27)
3207  00                 [04] (-27)
3208  E5                 [05] (-27)
3209  01                 [06] (-27)
320A  00                 [07] (-27)
320B  00                 [08] (-26)
320C  E5                 [09] (-26)
320D  01                 [10] (-26)
320E  00                 [11] (-26)
320F  00                 [12] (-26)
3210  E5                 [13] (-26)
3211  01                 [14] (-26)
3212  00                 [15] (-25)
3213  00                 [16] (-25)
3214  E5                 [17] (-25)
3215  01                 [18] (-25)
3216  00                 [19] (-25)
3217  00                 [20] (-24)
3218  E5                 [21] (-24)
3219  01                 [22] (-24)
321A  00                 [23] (-22)
                         * locals:
3260  00                 sizelocvars (0)
                         * upvalues:
3261  00                 sizeupvalues (0)
                         ** end of function **

                         
3262                     ** function [13] definition (level 2)
                         ** start of function **
3262  00                 string size (0)
                         source name: (none)
3264  03                 line defined (492)
3265  91                 last line defined (529)
3266  04                 nups (0)
3267  00                 numparams (5)
3268  05                 is_vararg (0)
3269  00                 maxstacksize (24)
                         * code:
326B  5D                 sizecode (93)
326C  9D010000           [01] getglobal  6   0        ; -1662520301
3270  D2018000           [02] move       7   1      
3274  12020001           [03] move       8   2      
3278  A2818001           [04] call       6   3   2  
fail op	21
327C  55404003           [05] concat     1   6   257
3280  1AC00080           [06] jmp        4            ; to [11]
3284  A4814000           [07] self       6   0   258  ; 330780783
3288  A2810001           [08] call       6   2   2  
328C  98410000           [09] test       6       1    ; to [11] if false
3290  1A400180           [10] jmp        6            ; to [17]
3294  8B010001           [11] newtable   6   2   0    ; array=2, hash=0
3298  D2018000           [12] move       7   1      
329C  12020001           [13] move       8   2      
32A0  9B410001           [14] setlist    6   2   1    ; index 1 to 2
32A4  52010003           [15] move       5   6      
32A8  1AC00380           [16] jmp        16           ; to [33]
32AC  A4C14000           [17] self       6   0   259  ; -181595417
32B0  12028000           [18] move       8   1      
32B4  52020001           [19] move       9   2      
32B8  A2810002           [20] call       6   4   2  
32BC  52010003           [21] move       5   6      
32C0  8A018002           [22] len        6   5      
fail op	33
32C4  21004103           [23] tforloop   0       260  ; to [25] if exit
32C8  1A400080           [24] jmp        2            ; to [27]
32CC  99410100           [25] loadk      6   5        ; 0
32D0  9E010001           [26] return     6   2      
32D4  9D810100           [27] getglobal  6   6        ; table
32D8  8EC14103           [28] gettable   6   6   263  ; -431682403
32DC  D2018002           [29] move       7   5      
32E0  19020200           [30] loadk      8   8        ; 0
32E4  52028000           [31] move       9   1      
32E8  A2410002           [32] call       6   4   1  
32EC  84C18001           [33] mul        6   3   3  
32F0  D9010100           [34] loadk      7   4        ; 0
32F4  19020200           [35] loadk      8   8        ; 0
32F8  4A028002           [36] len        9   5      
32FC  4D02C204           [37] sub        9   9   264  ; 0
3300  99020200           [38] loadk      10  8        ; 0
3304  10420280           [39] forprep    8   10       ; to [50]
3308  1D030000           [40] getglobal  12  0        ; -1662520301
330C  4EC38202           [41] gettable   13  5   11 
3310  8303C205           [42] add        14  11  264  ; 0
3314  8E838302           [43] gettable   14  5   14 
3318  22838001           [44] call       12  3   2  
331C  C3018303           [45] add        7   7   12 
fail op	21
3320  15C00103           [46] concat     0   6   7  
3324  1A400080           [47] jmp        2            ; to [50]
3328  19430100           [48] loadk      12  5        ; 0
332C  1E030001           [49] return     12  2      
3330  1402FD7F           [50] forloop    8   -11      ; to [40] if loop
3334  1D430200           [51] getglobal  12  9        ; 572299008
3338  59030100           [52] loadk      13  4        ; 0
333C  99830200           [53] loadk      14  10       ; 0
3340  D9030100           [54] loadk      15  4        ; 0
3344  22830002           [55] call       12  4   2  
3348  59030200           [56] loadk      13  8        ; 0
334C  8A038002           [57] len        14  5      
3350  8D034207           [58] sub        14  14  264  ; 0
3354  D9030200           [59] loadk      15  8        ; 0
3358  50430680           [60] forprep    13  26       ; to [87]
335C  5DC40200           [61] getglobal  17  11       ; gRegion
3360  6404C308           [62] self       17  17  268  ; -1110225722
3364  DD440300           [63] getglobal  19  13       ; pathBeamType
3368  0E058402           [64] gettable   20  5   16 
336C  0305030A           [65] add        20  20  12 
3370  5D850300           [66] getglobal  21  14       ; ZERO_ROTATION
3374  92050002           [67] move       22  4      
3378  62840003           [68] call       17  6   2  
337C  9DC40200           [69] getglobal  18  11       ; gRegion
3380  A4C44309           [70] self       18  18  271  ; -47858664
3384  1D050400           [71] getglobal  20  16       ; pathPointEffect
3388  4E058402           [72] gettable   21  5   16 
338C  4305830A           [73] add        21  21  12 
3390  9D850300           [74] getglobal  22  14       ; ZERO_ROTATION
3394  D2050002           [75] move       23  4      
3398  A2440003           [76] call       18  6   1  
339C  9D440400           [77] getglobal  18  17       ; 1074689893
33A0  D2048008           [78] move       19  17     
33A4  A2840001           [79] call       18  2   2  
33A8  98440000           [80] test       18      1    ; to [82] if false
33AC  1A000180           [81] jmp        5            ; to [87]
33B0  A484C408           [82] self       18  17  274  ; 1311555023
33B4  03054208           [83] add        20  16  264  ; 0
33B8  0E058502           [84] gettable   20  5   20 
33BC  0305030A           [85] add        20  20  12 
33C0  A2448001           [86] call       18  3   1  
33C4  5403F97F           [87] forloop    13  -27      ; to [61] if loop
33C8  9DC40400           [88] getglobal  18  19       ; math
33CC  8E044509           [89] gettable   18  18  276  ; 786779368
33D0  D2048003           [90] move       19  7      
33D4  87040001           [91] tailcall   18  2   0  
33D8  9E040000           [92] return     18  0      
33DC  1E008000           [93] return     0   1      
                         * constants:
33E0  15                 sizek (21)
33E1  01                 const type 3
33E2  13F4E79C           const [0]: (-1662520301)
33E6  03                 const type 3
33E7  00002041           const [1]: (0)
33EB  01                 const type 3
33EC  6F50B713           const [2]: (330780783)
33F0  01                 const type 3
33F1  E7122DF5           const [3]: (-181595417)
33F5  03                 const type 3
33F6  00000000           const [4]: (0)
33FA  03                 const type 3
33FB  000080BF           const [5]: (0)
33FF  04                 const type 4
3400  06                 string size (6)
3401  7461626C6500       "table\0"
                         const [6]: "table"
3407  01                 const type 3
3408  9D0C45E6           const [7]: (-431682403)
340C  03                 const type 3
340D  0000803F           const [8]: (0)
3411  01                 const type 3
3412  00971C22           const [9]: (572299008)
3416  03                 const type 3
3417  0000003F           const [10]: (0)
341B  04                 const type 4
341C  08                 string size (8)
341D  67526567696F6E00   "gRegion\0"
                         const [11]: "gRegion"
3425  01                 const type 3
3426  C64CD3BD           const [12]: (-1110225722)
342A  04                 const type 4
342B  0D                 string size (13)
342C  706174684265616D+  "pathBeam"
3434  5479706500         "Type\0"
                         const [13]: "pathBeamType"
3439  04                 const type 4
343A  0E                 string size (14)
343B  5A45524F5F524F54+  "ZERO_ROT"
3443  4154494F4E00       "ATION\0"
                         const [14]: "ZERO_ROTATION"
3449  01                 const type 3
344A  18BC25FD           const [15]: (-47858664)
344E  04                 const type 4
344F  10                 string size (16)
3450  70617468506F696E+  "pathPoin"
3458  7445666665637400   "tEffect\0"
                         const [16]: "pathPointEffect"
3460  01                 const type 3
3461  65770E40           const [17]: (1074689893)
3465  01                 const type 3
3466  CFBD2C4E           const [18]: (1311555023)
346A  04                 const type 4
346B  05                 string size (5)
346C  6D61746800         "math\0"
                         const [19]: "math"
3471  01                 const type 3
3472  E84CE52E           const [20]: (786779368)
                         * functions:
3476  00                 sizep (0)
                         * lines:
3477  5D                 sizelineinfo (93)
                         [pc] (line)
3478  EF                 [01] (-17)
3479  01                 [02] (-17)
347A  00                 [03] (-17)
347B  00                 [04] (-17)
347C  EF                 [05] (-17)
347D  01                 [06] (-17)
347E  00                 [07] (-16)
347F  00                 [08] (-16)
3480  EF                 [09] (-16)
3481  01                 [10] (-16)
3482  00                 [11] (-14)
3483  00                 [12] (-14)
3484  EF                 [13] (-14)
3485  01                 [14] (-14)
3486  00                 [15] (-14)
3487  00                 [16] (-14)
3488  EF                 [17] (-12)
3489  01                 [18] (-12)
348A  00                 [19] (-12)
348B  00                 [20] (-12)
348C  EF                 [21] (-12)
348D  01                 [22] (-10)
348E  00                 [23] (-10)
348F  00                 [24] (-10)
3490  F0                 [25] (-9)
3491  01                 [26] (-9)
3492  00                 [27] (-6)
3493  00                 [28] (-6)
3494  F0                 [29] (-6)
3495  01                 [30] (-6)
3496  00                 [31] (-6)
3497  00                 [32] (-6)
3498  F0                 [33] (-3)
3499  01                 [34] (-2)
349A  00                 [35] (-1)
349B  00                 [36] (-1)
349C  F0                 [37] (-1)
349D  01                 [38] (-1)
349E  00                 [39] (-1)
349F  00                 [40] (0)
34A0  F2                 [41] (0)
34A1  01                 [42] (0)
34A2  00                 [43] (0)
34A3  00                 [44] (0)
34A4  F2                 [45] (0)
34A5  01                 [46] (1)
34A6  00                 [47] (1)
34A7  00                 [48] (2)
34A8  F2                 [49] (2)
34A9  01                 [50] (-1)
34AA  00                 [51] (6)
34AB  00                 [52] (6)
34AC  F2                 [53] (6)
34AD  01                 [54] (6)
34AE  00                 [55] (6)
34AF  00                 [56] (8)
34B0  F2                 [57] (8)
34B1  01                 [58] (8)
34B2  00                 [59] (8)
34B3  00                 [60] (8)
34B4  F2                 [61] (9)
34B5  01                 [62] (9)
34B6  00                 [63] (9)
34B7  00                 [64] (9)
34B8  F4                 [65] (9)
34B9  01                 [66] (9)
34BA  00                 [67] (9)
34BB  00                 [68] (9)
34BC  F4                 [69] (10)
34BD  01                 [70] (10)
34BE  00                 [71] (10)
34BF  00                 [72] (10)
34C0  F4                 [73] (10)
34C1  01                 [74] (10)
34C2  00                 [75] (10)
34C3  00                 [76] (10)
34C4  F4                 [77] (11)
34C5  01                 [78] (11)
34C6  00                 [79] (11)
34C7  00                 [80] (11)
34C8  F4                 [81] (11)
34C9  01                 [82] (12)
34CA  00                 [83] (12)
34CB  00                 [84] (12)
34CC  F6                 [85] (12)
34CD  01                 [86] (12)
34CE  00                 [87] (8)
34CF  00                 [88] (16)
34D0  F6                 [89] (16)
34D1  01                 [90] (16)
34D2  00                 [91] (16)
34D3  00                 [92] (16)
34D4  F6                 [93] (17)
                         * locals:
35EC  00                 sizelocvars (0)
                         * upvalues:
35ED  00                 sizeupvalues (0)
                         ** end of function **

                         
35EE                     ** function [14] definition (level 2)
                         ** start of function **
35EE  00                 string size (0)
                         source name: (none)
35F0  04                 line defined (531)
35F1  B0                 last line defined (688)
35F2  05                 nups (10)
35F3  0A                 numparams (4)
35F4  04                 is_vararg (0)
35F5  00                 maxstacksize (56)
                         * code:
35F8  03                 sizecode (429)
35F9  13010000           [001] getupval   4   0      
35FD  52018001           [002] move       5   3      
3601  22410001           [003] call       4   2   1  
3605  13018000           [004] getupval   4   1      
3609  52018000           [005] move       5   1      
360D  22410101           [006] call       4   2   5  
3611  0B020100           [007] newtable   8   0   4    ; array=0, hash=4
3615  0C420180           [008] settable   8   256 5    ; "radius"
3619  0C828180           [009] settable   8   257 6    ; "dps"
361D  0CC20181           [010] settable   8   258 7    ; "coilDuration"
3621  53020001           [011] getupval   9   2      
3625  5C428202           [012] div        9   5   9  
3629  0C428281           [013] settable   8   259 9    ; "radiusMult"
362D  64024100           [014] self       9   0   260  ; -40827644
3631  62820001           [015] call       9   2   2  
3635  A4424100           [016] self       10  0   261  ; 1183093143
3639  A2820001           [017] call       10  2   2  
fail op	21
363D  15400283           [018] concat     0   262 9  
3641  1A000380           [019] jmp        13           ; to [33]
3645  DDC20100           [020] getglobal  11  7        ; Lotus_Game
3649  CE02C205           [021] gettable   11  11  264  ; "PowerSuit_AUGMENT_ONE"
fail op	35
364D  23C00205           [022] close      0  
3651  1A000280           [023] jmp        9            ; to [33]
3655  D3028001           [024] getupval   11  3      
3659  12038004           [025] move       12  9      
365D  52030005           [026] move       13  10     
3661  E2428001           [027] call       11  3   1  
3665  D3020002           [028] getupval   11  4      
3669  12038000           [029] move       12  1      
366D  52030005           [030] move       13  10     
3671  E2828001           [031] call       11  3   2  
3675  0CC28284           [032] settable   8   265 11   ; "augmentConversionPct"
3679  D3028002           [033] getupval   11  5      
367D  CE82C205           [034] gettable   11  11  266  ; 1782903988
3681  12030000           [035] move       12  0      
3685  5DC30200           [036] getglobal  13  11       ; mOwner
3689  92030004           [037] move       14  8      
368D  E2420002           [038] call       11  4   1  
3691  E402C300           [039] self       11  1   268  ; -1302048094
3695  5D430300           [040] getglobal  13  13       ; -332969190
3699  99830300           [041] loadk      14  14       ; "AmbientLightning"
369D  62830001           [042] call       13  2   2  
36A1  97030000           [043] loadbool   14  0   0    ; false
36A5  E2420002           [044] call       11  4   1  
36A9  E4C2C300           [045] self       11  1   271  ; -1421644046
36AD  64034400           [046] self       13  0   272  ; -576819411
36B1  DD430300           [047] getglobal  15  13       ; -332969190
36B5  19440400           [048] loadk      16  17       ; "OverloadCast"
36B9  E2030001           [049] call       15  2   0  
36BD  62830000           [050] call       13  0   2  
36C1  9D830400           [051] getglobal  14  18       ; EMPTY_SYMBOL
36C5  E2820002           [052] call       11  4   2  
36C9  13038002           [053] getupval   12  5      
36CD  0EC34406           [054] gettable   12  12  275  ; 952069771
36D1  52030000           [055] move       13  0      
36D5  9D030500           [056] getglobal  14  20       ; activateAnim
36D9  D9430500           [057] loadk      15  21       ; "OverloadAttackStart"
36DD  17040000           [058] loadbool   16  0   0    ; false
36E1  5D840500           [059] getglobal  17  22       ; Engine
36E5  4EC4C508           [060] gettable   17  17  279  ; "ATMM_PHYSICS_DRIVEN"
36E9  9D840500           [061] getglobal  18  22       ; Engine
36ED  8E044609           [062] gettable   18  18  280  ; "PRT_ONCE"
36F1  D7048000           [063] loadbool   19  1   0    ; true
36F5  22430004           [064] call       12  8   1  
36F9  24434600           [065] self       12  0   281  ; 150460537
36FD  22430001           [066] call       12  2   1  
3701  1D830600           [067] getglobal  12  26       ; 1074689893
3705  52038005           [068] move       13  11     
3709  22830001           [069] call       12  2   2  
370D  18430000           [070] test       12      1    ; to [72] if false
3711  1A400080           [071] jmp        2            ; to [74]
3715  24C3C605           [072] self       12  11  283  ; -725453761
3719  22430001           [073] call       12  2   1  
371D  1D030700           [074] getglobal  12  28       ; gRegion
3721  24434706           [075] self       12  12  285  ; -1110225722
3725  A4034400           [076] self       14  0   272  ; -576819411
3729  1D440300           [077] getglobal  16  13       ; -332969190
372D  59840700           [078] loadk      17  30       ; "OverloadCastBurst"
3731  22040001           [079] call       16  2   0  
3735  A2830000           [080] call       14  0   2  
3739  E4C3C700           [081] self       15  1   287  ; -427739093
373D  E2830001           [082] call       15  2   2  
3741  1D040800           [083] getglobal  16  32       ; ZERO_ROTATION
3745  52048000           [084] move       17  1      
3749  22430003           [085] call       12  6   1  
374D  1D030700           [086] getglobal  12  28       ; gRegion
3751  24434706           [087] self       12  12  285  ; -1110225722
3755  A4034400           [088] self       14  0   272  ; -576819411
3759  1D440300           [089] getglobal  16  13       ; -332969190
375D  59440800           [090] loadk      17  33       ; "OverloadSphere"
3761  22040001           [091] call       16  2   0  
3765  A2830000           [092] call       14  0   2  
3769  E4C3C700           [093] self       15  1   287  ; -427739093
376D  E2830001           [094] call       15  2   2  
3771  1D040800           [095] getglobal  16  32       ; ZERO_ROTATION
3775  52040000           [096] move       17  0      
3779  22830003           [097] call       12  6   2  
377D  53030003           [098] getupval   13  6      
3781  4E83C806           [099] gettable   13  13  290  ; 590154099
3785  62838000           [100] call       13  1   2  
3789  8B030000           [101] newtable   14  0   0    ; array=0, hash=0
378D  D3038003           [102] getupval   15  7      
3791  19840100           [103] loadk      16  6        ; 0
3795  59C40800           [104] loadk      17  35       ; 0
3799  99840100           [105] loadk      18  6        ; 0
379D  DD040700           [106] getglobal  19  28       ; gRegion
37A1  E404C909           [107] self       19  19  292  ; -774964848
37A5  E2840001           [108] call       19  2   2  
37A9  2445C900           [109] self       20  1   293  ; 1839670529
37AD  22850001           [110] call       20  2   2  
37B1  6485C909           [111] self       21  19  294  ; -682771662
37B5  D205000A           [112] move       23  20     
37B9  19C60900           [113] loadk      24  39       ; 0
37BD  59860100           [114] loadk      25  6        ; 0
37C1  99060A00           [115] loadk      26  40       ; 0
37C5  62450003           [116] call       21  6   1  
37C9  0C028594           [117] settable   8   297 20   ; "pos"
37CD  5D050700           [118] getglobal  21  28       ; gRegion
37D1  6485CA0A           [119] self       21  21  298  ; -1520831144
37D5  62850001           [120] call       21  2   2  
37D9  58050000           [121] test       21      0    ; to [123] if true
37DD  1A400A80           [122] jmp        42           ; to [165]
37E1  5D850600           [123] getglobal  21  26       ; 1074689893
37E5  9DC50A00           [124] getglobal  22  43       ; _T
37E9  8E054B0B           [125] gettable   22  22  300  ; "voltOverload"
37ED  62850001           [126] call       21  2   2  
37F1  58050000           [127] test       21      0    ; to [129] if true
37F5  1A800080           [128] jmp        3            ; to [132]
37F9  5DC50A00           [129] getglobal  21  43       ; _T
37FD  8B050000           [130] newtable   22  0   0    ; array=0, hash=0
3801  4C850596           [131] settable   21  300 22   ; "voltOverload"
3805  5D850600           [132] getglobal  21  26       ; 1074689893
3809  9DC50A00           [133] getglobal  22  43       ; _T
380D  8E054B0B           [134] gettable   22  22  300  ; "voltOverload"
3811  8E454B0B           [135] gettable   22  22  301  ; "crateVictims"
3815  62850001           [136] call       21  2   2  
3819  58050000           [137] test       21      0    ; to [139] if true
381D  1AC00080           [138] jmp        4            ; to [143]
3821  5DC50A00           [139] getglobal  21  43       ; _T
3825  4E05CB0A           [140] gettable   21  21  300  ; "voltOverload"
3829  8B050000           [141] newtable   22  0   0    ; array=0, hash=0
382D  4C858596           [142] settable   21  301 22   ; "crateVictims"
3831  5D850600           [143] getglobal  21  26       ; 1074689893
3835  9DC50A00           [144] getglobal  22  43       ; _T
3839  8E054B0B           [145] gettable   22  22  300  ; "voltOverload"
383D  8E854B0B           [146] gettable   22  22  302  ; "avatarVictims"
3841  62850001           [147] call       21  2   2  
3845  58050000           [148] test       21      0    ; to [150] if true
3849  1AC00080           [149] jmp        4            ; to [154]
384D  5DC50A00           [150] getglobal  21  43       ; _T
3851  4E05CB0A           [151] gettable   21  21  300  ; "voltOverload"
3855  8B050000           [152] newtable   22  0   0    ; array=0, hash=0
3859  4C850597           [153] settable   21  302 22   ; "avatarVictims"
385D  5D850600           [154] getglobal  21  26       ; 1074689893
3861  9DC50A00           [155] getglobal  22  43       ; _T
3865  8E054B0B           [156] gettable   22  22  300  ; "voltOverload"
3869  8EC54B0B           [157] gettable   22  22  303  ; "bonusDamage"
386D  62850001           [158] call       21  2   2  
3871  58050000           [159] test       21      0    ; to [161] if true
3875  1AC00080           [160] jmp        4            ; to [165]
3879  5DC50A00           [161] getglobal  21  43       ; _T
387D  4E05CB0A           [162] gettable   21  21  300  ; "voltOverload"
3881  8B050000           [163] newtable   22  0   0    ; array=0, hash=0
3885  4C858597           [164] settable   21  303 22   ; "bonusDamage"
3889  64054400           [165] self       21  0   272  ; -576819411
388D  DD450300           [166] getglobal  23  13       ; -332969190
3891  19060C00           [167] loadk      24  48       ; "OverloadEnemyAttach"
3895  E2050001           [168] call       23  2   0  
3899  62850000           [169] call       21  0   2  
fail op	21
389D  15C00383           [170] concat     0   262 15 
38A1  1A403E80           [171] jmp        250          ; to [422]
38A5  9D850600           [172] getglobal  22  26       ; 1074689893
38A9  DDC50200           [173] getglobal  23  11       ; mOwner
38AD  A2850001           [174] call       22  2   2  
38B1  98450000           [175] test       22      1    ; to [177] if false
38B5  1A003D80           [176] jmp        245          ; to [422]
38B9  9DC50200           [177] getglobal  22  11       ; mOwner
38BD  A4454C0B           [178] self       22  22  305  ; -408017483
38C1  A2850001           [179] call       22  2   2  
38C5  98450000           [180] test       22      1    ; to [182] if false
38C9  1AC03B80           [181] jmp        240          ; to [422]
38CD  9D050700           [182] getglobal  22  28       ; gRegion
38D1  A4854A0B           [183] self       22  22  298  ; -1520831144
38D5  A2850001           [184] call       22  2   2  
38D9  98050000           [185] test       22      0    ; to [187] if true
38DD  1AC03080           [186] jmp        196          ; to [383]
fail op	33
38E1  21804109           [187] tforloop   0       262  ; to [189] if exit
38E5  1A403080           [188] jmp        194          ; to [383]
38E9  9D050700           [189] getglobal  22  28       ; gRegion
38ED  A4854C0B           [190] self       22  22  306  ; 152279552
38F1  1DC60C00           [191] getglobal  24  51       ; lootCrateType
38F5  5206000A           [192] move       25  20     
38F9  92060008           [193] move       26  16     
38FD  D2068008           [194] move       27  17     
3901  A2850003           [195] call       22  6   2  
3905  DD050D00           [196] getglobal  23  52       ; 1672515847
3909  1206000B           [197] move       24  22     
390D  E2050101           [198] call       23  2   4  
3911  1A000980           [199] jmp        37           ; to [237]
3915  2447CD0D           [200] self       28  27  309  ; 796523475
3919  22870001           [201] call       28  2   2  
fail op	21
391D  15000783           [202] concat     0   262 28 
3921  1A000880           [203] jmp        33           ; to [237]
3925  17070000           [204] loadbool   28  0   0    ; false
3929  5D070D00           [205] getglobal  29  52       ; 1672515847
392D  9DC70A00           [206] getglobal  30  43       ; _T
3931  8E074B0F           [207] gettable   30  30  300  ; "voltOverload"
3935  8E474B0F           [208] gettable   30  30  301  ; "crateVictims"
3939  62070101           [209] call       29  2   4  
393D  1AC00080           [210] jmp        4            ; to [215]
fail op	35
3941  23C08610           [211] close      0  
3945  1A400080           [212] jmp        2            ; to [215]
3949  17078000           [213] loadbool   28  1   0    ; true
394D  1A400080           [214] jmp        2            ; to [217]
3951  56870000           [215] tforloop   29      2    ; to [217] if exit
3955  1A40FE7F           [216] jmp        -6           ; to [211]
3959  18470000           [217] test       28      1    ; to [219] if false
395D  1A400480           [218] jmp        18           ; to [237]
3961  93080004           [219] getupval   34  8      
3965  D2088009           [220] move       35  19     
3969  1209000A           [221] move       36  20     
396D  6449C90D           [222] self       37  27  293  ; 1839670529
3971  62890001           [223] call       37  2   2  
3975  92090002           [224] move       38  4      
3979  D2090000           [225] move       39  0      
397D  A2880003           [226] call       34  6   2  
fail op	33
3981  21800883           [227] tforloop   0       34   ; to [229] if exit
3985  1AC00180           [228] jmp        8            ; to [237]
3989  0C82089B           [229] settable   8   310 34   ; "distance"
398D  E4C8C30D           [230] self       35  27  271  ; -1421644046
3991  5209800A           [231] move       37  21     
3995  9D890400           [232] getglobal  38  18       ; EMPTY_SYMBOL
3999  DDC90D00           [233] getglobal  39  55       ; ZERO_VECTOR
399D  1D0A0800           [234] getglobal  40  32       ; ZERO_ROTATION
39A1  520A0000           [235] move       41  0      
39A5  E2488003           [236] call       35  7   1  
39A9  D6850000           [237] tforloop   23      2    ; to [239] if exit
39AD  1A00F67F           [238] jmp        -39          ; to [200]
39B1  DD080700           [239] getglobal  35  28       ; gRegion
39B5  E488CC11           [240] self       35  35  306  ; 152279552
39B9  5D090E00           [241] getglobal  37  56       ; gLotusNpcAvatarType
39BD  9209000A           [242] move       38  20     
39C1  D9890100           [243] loadk      39  6        ; 0
39C5  120A8008           [244] move       40  17     
39C9  E2880003           [245] call       35  6   2  
39CD  1D090D00           [246] getglobal  36  52       ; 1672515847
39D1  52098011           [247] move       37  35     
39D5  22090101           [248] call       36  2   4  
39D9  1A800D80           [249] jmp        55           ; to [305]
39DD  644A4E14           [250] self       41  40  313  ; -605089866
39E1  628A0001           [251] call       41  2   2  
39E5  4E4A0A07           [252] gettable   41  14  41 
fail op	35
39E9  2380CE14           [253] close      0  
39ED  1A400C80           [254] jmp        50           ; to [305]
39F1  64CA4E14           [255] self       41  40  315  ; 1800191191
39F5  D20A8000           [256] move       43  1      
39F9  628A8001           [257] call       41  3   2  
39FD  584A0000           [258] test       41      1    ; to [260] if false
3A01  1A000B80           [259] jmp        45           ; to [305]
3A05  644A4E14           [260] self       41  40  313  ; -605089866
3A09  628A0001           [261] call       41  2   2  
3A0D  8C038A14           [262] settable   14  41  40 
3A11  640A4F14           [263] self       41  40  316  ; 1230984527
3A15  DDCA0100           [264] getglobal  43  7        ; Lotus_Game
3A19  CE4ACF15           [265] gettable   43  43  317  ; "AR_IMMUNE_ALL"
3A1D  628A8001           [266] call       41  3   2  
3A21  580A0000           [267] test       41      0    ; to [269] if true
3A25  1AC00180           [268] jmp        8            ; to [277]
3A29  648ACF00           [269] self       41  1   318  ; -1201586349
3A2D  628A0001           [270] call       41  2   2  
3A31  580A0000           [271] test       41      0    ; to [273] if true
3A35  1AC00080           [272] jmp        4            ; to [277]
3A39  64CA4F14           [273] self       41  40  319  ; -385392537
3A3D  D20A8000           [274] move       43  1      
3A41  624A8001           [275] call       41  3   1  
3A45  1AC00680           [276] jmp        28           ; to [305]
3A49  5D8A0600           [277] getglobal  41  26       ; 1074689893
3A4D  9DCA0A00           [278] getglobal  42  43       ; _T
3A51  8E0A4B15           [279] gettable   42  42  300  ; "voltOverload"
3A55  8E8A4B15           [280] gettable   42  42  302  ; "avatarVictims"
3A59  E44A4E14           [281] self       43  40  313  ; -605089866
3A5D  E28A0001           [282] call       43  2   2  
3A61  8ECA0A15           [283] gettable   42  42  43 
3A65  628A0001           [284] call       41  2   2  
3A69  580A0000           [285] test       41      0    ; to [287] if true
3A6D  1A400480           [286] jmp        18           ; to [305]
3A71  530A0004           [287] getupval   41  8      
3A75  920A8009           [288] move       42  19     
3A79  D20A000A           [289] move       43  20     
3A7D  244B4914           [290] self       44  40  293  ; 1839670529
3A81  228B0001           [291] call       44  2   2  
3A85  520B0002           [292] move       45  4      
3A89  920B0000           [293] move       46  0      
3A8D  628A0003           [294] call       41  6   2  
fail op	33
3A91  21400A83           [295] tforloop   0       41   ; to [297] if exit
3A95  1AC00180           [296] jmp        8            ; to [305]
3A99  0C420A9B           [297] settable   8   310 41   ; "distance"
3A9D  A4CA4314           [298] self       42  40  271  ; -1421644046
3AA1  120B800A           [299] move       44  21     
3AA5  5D8B0400           [300] getglobal  45  18       ; EMPTY_SYMBOL
3AA9  9DCB0D00           [301] getglobal  46  55       ; ZERO_VECTOR
3AAD  DD0B0800           [302] getglobal  47  32       ; ZERO_ROTATION
3AB1  120C0000           [303] move       48  0      
3AB5  A24A8003           [304] call       42  7   1  
3AB9  16890000           [305] tforloop   36      2    ; to [307] if exit
3ABD  1A80F17F           [306] jmp        -57          ; to [250]
3AC1  58430000           [307] test       13      1    ; to [309] if false
3AC5  1AC00080           [308] jmp        4            ; to [313]
3AC9  A40AD000           [309] self       42  1   320  ; -1989965367
3ACD  A28A0001           [310] call       42  2   2  
3AD1  984A0000           [311] test       42      1    ; to [313] if false
3AD5  1AC00E80           [312] jmp        60           ; to [373]
3AD9  9D0A0700           [313] getglobal  42  28       ; gRegion
3ADD  A48A4C15           [314] self       42  42  306  ; 152279552
3AE1  1D4B1000           [315] getglobal  44  65       ; gTennoAvatarType
3AE5  520B000A           [316] move       45  20     
3AE9  998B0100           [317] loadk      46  6        ; 0
3AED  D20B8008           [318] move       47  17     
3AF1  A28A0003           [319] call       42  6   2  
3AF5  DD0A0D00           [320] getglobal  43  52       ; 1672515847
3AF9  120B0015           [321] move       44  42     
3AFD  E20A0101           [322] call       43  2   4  
3B01  1A800B80           [323] jmp        47           ; to [371]
3B05  244CCE17           [324] self       48  47  313  ; -605089866
3B09  228C0001           [325] call       48  2   2  
3B0D  0E0C0C07           [326] gettable   48  14  48 
fail op	35
3B11  23804E18           [327] close      0  
3B15  1A400A80           [328] jmp        42           ; to [371]
3B19  24CCCE17           [329] self       48  47  315  ; 1800191191
3B1D  920C8000           [330] move       50  1      
3B21  228C8001           [331] call       48  3   2  
3B25  184C0000           [332] test       48      1    ; to [334] if false
3B29  1A000980           [333] jmp        37           ; to [371]
3B2D  240CCF17           [334] self       48  47  316  ; 1230984527
3B31  9DCC0100           [335] getglobal  50  7        ; Lotus_Game
3B35  8E4C4F19           [336] gettable   50  50  317  ; "AR_IMMUNE_ALL"
3B39  228C8001           [337] call       48  3   2  
3B3D  184C0000           [338] test       48      1    ; to [340] if false
3B41  1A800780           [339] jmp        31           ; to [371]
3B45  244CCE17           [340] self       48  47  313  ; -605089866
3B49  228C0001           [341] call       48  2   2  
3B4D  8CC30B18           [342] settable   14  48  47 
3B51  1D8C0600           [343] getglobal  48  26       ; 1074689893
3B55  5DCC0A00           [344] getglobal  49  43       ; _T
3B59  4E0CCB18           [345] gettable   49  49  300  ; "voltOverload"
3B5D  4E8CCB18           [346] gettable   49  49  302  ; "avatarVictims"
3B61  A44CCE17           [347] self       50  47  313  ; -605089866
3B65  A28C0001           [348] call       50  2   2  
3B69  4E8C8C18           [349] gettable   49  49  50 
3B6D  228C0001           [350] call       48  2   2  
3B71  180C0000           [351] test       48      0    ; to [353] if true
3B75  1A400480           [352] jmp        18           ; to [371]
3B79  130C0004           [353] getupval   48  8      
3B7D  520C8009           [354] move       49  19     
3B81  920C000A           [355] move       50  20     
3B85  E44CC917           [356] self       51  47  293  ; 1839670529
3B89  E28C0001           [357] call       51  2   2  
3B8D  120D0002           [358] move       52  4      
3B91  520D0000           [359] move       53  0      
3B95  228C0003           [360] call       48  6   2  
fail op	33
3B99  21000C83           [361] tforloop   0       48   ; to [363] if exit
3B9D  1AC00180           [362] jmp        8            ; to [371]
3BA1  0C020C9B           [363] settable   8   310 48   ; "distance"
3BA5  64CCC317           [364] self       49  47  271  ; -1421644046
3BA9  D20C800A           [365] move       51  21     
3BAD  1D8D0400           [366] getglobal  52  18       ; EMPTY_SYMBOL
3BB1  5DCD0D00           [367] getglobal  53  55       ; ZERO_VECTOR
3BB5  9D0D0800           [368] getglobal  54  32       ; ZERO_ROTATION
3BB9  D20D0000           [369] move       55  0      
3BBD  624C8003           [370] call       49  7   1  
3BC1  D68A0000           [371] tforloop   43      2    ; to [373] if exit
3BC5  1A80F37F           [372] jmp        -49          ; to [324]
3BC9  12048008           [373] move       16  17     
3BCD  5D8C1000           [374] getglobal  49  66       ; math
3BD1  4ECCD018           [375] gettable   49  49  323  ; 1710846250
3BD5  990C1100           [376] loadk      50  68       ; -51
3BD9  DD4C1100           [377] getglobal  51  69       ; 1289681407
3BDD  E28C8000           [378] call       51  1   2  
3BE1  C48CD119           [379] mul        51  51  326  ; 0
3BE5  CDCC8C07           [380] sub        51  15  51 
3BE9  628C8001           [381] call       49  3   2  
3BED  92048018           [382] move       18  49     
3BF1  5D8C1000           [383] getglobal  49  66       ; math
3BF5  4ECCD018           [384] gettable   49  49  323  ; 1710846250
3BF9  920C0002           [385] move       50  4      
3BFD  DD4C1100           [386] getglobal  51  69       ; 1289681407
3C01  E28C8000           [387] call       51  1   2  
3C05  C4CCD119           [388] mul        51  51  327  ; 0
3C09  C3CC8C08           [389] add        51  17  51 
3C0D  628C8001           [390] call       49  3   2  
3C11  52048018           [391] move       17  49     
3C15  5D8C0600           [392] getglobal  49  26       ; 1074689893
3C19  920C0006           [393] move       50  12     
3C1D  628C0001           [394] call       49  2   2  
3C21  584C0000           [395] test       49      1    ; to [397] if false
3C25  1A800380           [396] jmp        15           ; to [412]
3C29  640C5206           [397] self       49  12  328  ; 1786666898
3C2D  D20C8008           [398] move       51  17     
3C31  624C8001           [399] call       49  3   1  
3C35  644C5206           [400] self       49  12  329  ; -786111647
3C39  D30C8004           [401] getupval   51  9      
3C3D  1D8D1000           [402] getglobal  52  66       ; math
3C41  0ECD501A           [403] gettable   52  52  323  ; 1710846250
3C45  520D8007           [404] move       53  15     
3C49  998D1200           [405] loadk      54  74       ; 0
3C4D  220D8001           [406] call       52  3   0  
3C51  624C0000           [407] call       49  0   1  
fail op	33
3C55  21400402           [408] tforloop   0       17   ; to [410] if exit
3C59  1A400080           [409] jmp        2            ; to [412]
3C5D  64CC4606           [410] self       49  12  283  ; -725453761
3C61  624C0001           [411] call       49  2   1  
3C65  5DCC1200           [412] getglobal  49  75       ; 538022378
3C69  998C0100           [413] loadk      50  6        ; 0
3C6D  624C0001           [414] call       49  2   1  
3C71  5D4C1100           [415] getglobal  49  69       ; 1289681407
3C75  628C8000           [416] call       49  1   2  
3C79  CD438C07           [417] sub        15  15  49 
3C7D  5D4C1100           [418] getglobal  49  69       ; 1289681407
3C81  628C8000           [419] call       49  1   2  
3C85  8D440C09           [420] sub        18  18  49 
3C89  1AC0C07F           [421] jmp        -252         ; to [170]
3C8D  5D8C0600           [422] getglobal  49  26       ; 1074689893
3C91  920C0006           [423] move       50  12     
3C95  628C0001           [424] call       49  2   2  
3C99  584C0000           [425] test       49      1    ; to [427] if false
3C9D  1A400080           [426] jmp        2            ; to [429]
3CA1  64CC4606           [427] self       49  12  283  ; -725453761
3CA5  624C0001           [428] call       49  2   1  
3CA9  1E008000           [429] return     0   1      
                         * constants:
3CAD  4C                 sizek (76)
3CAE  04                 const type 4
3CAF  07                 string size (7)
3CB0  72616469757300     "radius\0"
                         const [0]: "radius"
3CB7  04                 const type 4
3CB8  04                 string size (4)
3CB9  64707300           "dps\0"
                         const [1]: "dps"
3CBD  04                 const type 4
3CBE  0D                 string size (13)
3CBF  636F696C44757261+  "coilDura"
3CC7  74696F6E00         "tion\0"
                         const [2]: "coilDuration"
3CCC  04                 const type 4
3CCD  0B                 string size (11)
3CCE  7261646975734D75+  "radiusMu"
3CD6  6C7400             "lt\0"
                         const [3]: "radiusMult"
3CD9  01                 const type 3
3CDA  040591FD           const [4]: (-40827644)
3CDE  01                 const type 3
3CDF  97918446           const [5]: (1183093143)
3CE3  03                 const type 3
3CE4  00000000           const [6]: (0)
3CE8  04                 const type 4
3CE9  0B                 string size (11)
3CEA  4C6F7475735F4761+  "Lotus_Ga"
3CF2  6D6500             "me\0"
                         const [7]: "Lotus_Game"
3CF5  04                 const type 4
3CF6  16                 string size (22)
3CF7  506F776572537569+  "PowerSui"
3CFF  745F4155474D454E+  "t_AUGMEN"
3D07  545F4F4E4500       "T_ONE\0"
                         const [8]: "PowerSuit_AUGMENT_ONE"
3D0D  04                 const type 4
3D0E  15                 string size (21)
3D0F  6175676D656E7443+  "augmentC"
3D17  6F6E76657273696F+  "onversio"
3D1F  6E50637400         "nPct\0"
                         const [9]: "augmentConversionPct"
3D24  01                 const type 3
3D25  B4F4446A           const [10]: (1782903988)
3D29  04                 const type 4
3D2A  07                 string size (7)
3D2B  6D4F776E657200     "mOwner\0"
                         const [11]: "mOwner"
3D32  01                 const type 3
3D33  A25264B2           const [12]: (-1302048094)
3D37  01                 const type 3
3D38  1A4B27EC           const [13]: (-332969190)
3D3C  04                 const type 4
3D3D  11                 string size (17)
3D3E  416D6269656E744C+  "AmbientL"
3D46  696768746E696E67+  "ightning"
3D4E  00                 "\0"
                         const [14]: "AmbientLightning"
3D4F  01                 const type 3
3D50  F26E43AB           const [15]: (-1421644046)
3D54  01                 const type 3
3D55  2D6F9EDD           const [16]: (-576819411)
3D59  04                 const type 4
3D5A  0D                 string size (13)
3D5B  4F7665726C6F6164+  "Overload"
3D63  4361737400         "Cast\0"
                         const [17]: "OverloadCast"
3D68  04                 const type 4
3D69  0D                 string size (13)
3D6A  454D5054595F5359+  "EMPTY_SY"
3D72  4D424F4C00         "MBOL\0"
                         const [18]: "EMPTY_SYMBOL"
3D77  01                 const type 3
3D78  8B6EBF38           const [19]: (952069771)
3D7C  04                 const type 4
3D7D  0D                 string size (13)
3D7E  6163746976617465+  "activate"
3D86  416E696D00         "Anim\0"
                         const [20]: "activateAnim"
3D8B  04                 const type 4
3D8C  14                 string size (20)
3D8D  4F7665726C6F6164+  "Overload"
3D95  41747461636B5374+  "AttackSt"
3D9D  61727400           "art\0"
                         const [21]: "OverloadAttackStart"
3DA1  04                 const type 4
3DA2  07                 string size (7)
3DA3  456E67696E6500     "Engine\0"
                         const [22]: "Engine"
3DAA  04                 const type 4
3DAB  14                 string size (20)
3DAC  41544D4D5F504859+  "ATMM_PHY"
3DB4  534943535F445249+  "SICS_DRI"
3DBC  56454E00           "VEN\0"
                         const [23]: "ATMM_PHYSICS_DRIVEN"
3DC0  04                 const type 4
3DC1  09                 string size (9)
3DC2  5052545F4F4E4345+  "PRT_ONCE"
3DCA  00                 "\0"
                         const [24]: "PRT_ONCE"
3DCB  01                 const type 3
3DCC  79D8F708           const [25]: (150460537)
3DD0  01                 const type 3
3DD1  65770E40           const [26]: (1074689893)
3DD5  01                 const type 3
3DD6  3F74C2D4           const [27]: (-725453761)
3DDA  04                 const type 4
3DDB  08                 string size (8)
3DDC  67526567696F6E00   "gRegion\0"
                         const [28]: "gRegion"
3DE4  01                 const type 3
3DE5  C64CD3BD           const [29]: (-1110225722)
3DE9  04                 const type 4
3DEA  12                 string size (18)
3DEB  4F7665726C6F6164+  "Overload"
3DF3  4361737442757273+  "CastBurs"
3DFB  7400               "t\0"
                         const [30]: "OverloadCastBurst"
3DFD  01                 const type 3
3DFE  2B3881E6           const [31]: (-427739093)
3E02  04                 const type 4
3E03  0E                 string size (14)
3E04  5A45524F5F524F54+  "ZERO_ROT"
3E0C  4154494F4E00       "ATION\0"
                         const [32]: "ZERO_ROTATION"
3E12  04                 const type 4
3E13  0F                 string size (15)
3E14  4F7665726C6F6164+  "Overload"
3E1C  53706865726500     "Sphere\0"
                         const [33]: "OverloadSphere"
3E23  01                 const type 3
3E24  73092D23           const [34]: (590154099)
3E28  03                 const type 3
3E29  0000A040           const [35]: (0)
3E2D  01                 const type 3
3E2E  90F9CED1           const [36]: (-774964848)
3E32  01                 const type 3
3E33  0125A76D           const [37]: (1839670529)
3E37  01                 const type 3
3E38  32BB4DD7           const [38]: (-682771662)
3E3C  03                 const type 3
3E3D  00007041           const [39]: (0)
3E41  03                 const type 3
3E42  000070C1           const [40]: (0)
3E46  04                 const type 4
3E47  04                 string size (4)
3E48  706F7300           "pos\0"
                         const [41]: "pos"
3E4C  01                 const type 3
3E4D  58F559A5           const [42]: (-1520831144)
3E51  04                 const type 4
3E52  03                 string size (3)
3E53  5F5400             "_T\0"
                         const [43]: "_T"
3E56  04                 const type 4
3E57  0D                 string size (13)
3E58  766F6C744F766572+  "voltOver"
3E60  6C6F616400         "load\0"
                         const [44]: "voltOverload"
3E65  04                 const type 4
3E66  0D                 string size (13)
3E67  6372617465566963+  "crateVic"
3E6F  74696D7300         "tims\0"
                         const [45]: "crateVictims"
3E74  04                 const type 4
3E75  0E                 string size (14)
3E76  6176617461725669+  "avatarVi"
3E7E  6374696D7300       "ctims\0"
                         const [46]: "avatarVictims"
3E84  04                 const type 4
3E85  0C                 string size (12)
3E86  626F6E757344616D+  "bonusDam"
3E8E  61676500           "age\0"
                         const [47]: "bonusDamage"
3E92  04                 const type 4
3E93  14                 string size (20)
3E94  4F7665726C6F6164+  "Overload"
3E9C  456E656D79417474+  "EnemyAtt"
3EA4  61636800           "ach\0"
                         const [48]: "OverloadEnemyAttach"
3EA8  01                 const type 3
3EA9  B525AEE7           const [49]: (-408017483)
3EAD  01                 const type 3
3EAE  009A1309           const [50]: (152279552)
3EB2  04                 const type 4
3EB3  0E                 string size (14)
3EB4  6C6F6F7443726174+  "lootCrat"
3EBC  655479706500       "eType\0"
                         const [51]: "lootCrateType"
3EC2  01                 const type 3
3EC3  0791B063           const [52]: (1672515847)
3EC7  01                 const type 3
3EC8  D3FB792F           const [53]: (796523475)
3ECC  04                 const type 4
3ECD  09                 string size (9)
3ECE  64697374616E6365+  "distance"
3ED6  00                 "\0"
                         const [54]: "distance"
3ED7  04                 const type 4
3ED8  0C                 string size (12)
3ED9  5A45524F5F564543+  "ZERO_VEC"
3EE1  544F5200           "TOR\0"
                         const [55]: "ZERO_VECTOR"
3EE5  04                 const type 4
3EE6  14                 string size (20)
3EE7  674C6F7475734E70+  "gLotusNp"
3EEF  6341766174617254+  "cAvatarT"
3EF7  79706500           "ype\0"
                         const [56]: "gLotusNpcAvatarType"
3EFB  01                 const type 3
3EFC  B60FEFDB           const [57]: (-605089866)
3F00  00                 const type 0
                         const [58]: nil
3F01  01                 const type 3
3F02  D7BC4C6B           const [59]: (1800191191)
3F06  01                 const type 3
3F07  4F555F49           const [60]: (1230984527)
3F0B  04                 const type 4
3F0C  0E                 string size (14)
3F0D  41525F494D4D554E+  "AR_IMMUN"
3F15  455F414C4C00       "E_ALL\0"
                         const [61]: "AR_IMMUNE_ALL"
3F1B  01                 const type 3
3F1C  533F61B8           const [62]: (-1201586349)
3F20  01                 const type 3
3F21  676007E9           const [63]: (-385392537)
3F25  01                 const type 3
3F26  C9896389           const [64]: (-1989965367)
3F2A  04                 const type 4
3F2B  11                 string size (17)
3F2C  6754656E6E6F4176+  "gTennoAv"
3F34  6174617254797065+  "atarType"
3F3C  00                 "\0"
                         const [65]: "gTennoAvatarType"
3F3D  04                 const type 4
3F3E  05                 string size (5)
3F3F  6D61746800         "math\0"
                         const [66]: "math"
3F44  01                 const type 3
3F45  2A71F965           const [67]: (1710846250)
3F49  03                 const type 3
3F4A  CDCC4C3E           const [68]: (-51)
3F4E  01                 const type 3
3F4F  FFF9DE4C           const [69]: (1289681407)
3F53  03                 const type 3
3F54  00000040           const [70]: (0)
3F58  03                 const type 3
3F59  0000A041           const [71]: (0)
3F5D  01                 const type 3
3F5E  925F7E6A           const [72]: (1786666898)
3F62  01                 const type 3
3F63  61E324D1           const [73]: (-786111647)
3F67  03                 const type 3
3F68  0000803F           const [74]: (0)
3F6C  01                 const type 3
3F6D  EA911120           const [75]: (538022378)
                         * functions:
3F71  00                 sizep (0)
                         * lines:
3F73  03                 sizelineinfo (429)
                         [pc] (line)
3F74  14                 [001] (20)
3F75  02                 [002] (20)
3F76  00                 [003] (20)
3F77  00                 [004] (21)
3F78  14                 [005] (21)
3F79  02                 [006] (21)
3F7A  00                 [007] (23)
3F7B  00                 [008] (24)
3F7C  14                 [009] (25)
3F7D  02                 [010] (26)
3F7E  00                 [011] (27)
3F7F  00                 [012] (27)
3F80  15                 [013] (27)
3F81  02                 [014] (30)
3F82  00                 [015] (30)
3F83  00                 [016] (31)
3F84  15                 [017] (31)
3F85  02                 [018] (32)
3F86  00                 [019] (32)
3F87  00                 [020] (32)
3F88  15                 [021] (32)
3F89  02                 [022] (32)
3F8A  00                 [023] (32)
3F8B  00                 [024] (33)
3F8C  17                 [025] (33)
3F8D  02                 [026] (33)
3F8E  00                 [027] (33)
3F8F  00                 [028] (34)
3F90  18                 [029] (34)
3F91  02                 [030] (34)
3F92  00                 [031] (34)
3F93  00                 [032] (34)
3F94  19                 [033] (37)
3F95  02                 [034] (37)
3F96  00                 [035] (37)
3F97  00                 [036] (37)
3F98  1A                 [037] (37)
3F99  02                 [038] (37)
3F9A  00                 [039] (39)
3F9B  00                 [040] (39)
3F9C  1B                 [041] (39)
3F9D  02                 [042] (39)
3F9E  00                 [043] (39)
3F9F  00                 [044] (39)
3FA0  1B                 [045] (40)
3FA1  02                 [046] (40)
3FA2  00                 [047] (40)
3FA3  00                 [048] (40)
3FA4  1B                 [049] (40)
3FA5  02                 [050] (40)
3FA6  00                 [051] (40)
3FA7  00                 [052] (40)
3FA8  1E                 [053] (42)
3FA9  02                 [054] (42)
3FAA  00                 [055] (42)
3FAB  00                 [056] (42)
3FAC  1E                 [057] (42)
3FAD  02                 [058] (42)
3FAE  00                 [059] (42)
3FAF  00                 [060] (42)
3FB0  1F                 [061] (42)
3FB1  02                 [062] (42)
3FB2  00                 [063] (42)
3FB3  00                 [064] (42)
3FB4  1F                 [065] (44)
3FB5  02                 [066] (44)
3FB6  00                 [067] (46)
3FB7  00                 [068] (46)
3FB8  20                 [069] (46)
3FB9  02                 [070] (46)
3FBA  00                 [071] (46)
3FBB  00                 [072] (47)
3FBC  20                 [073] (47)
3FBD  02                 [074] (49)
3FBE  00                 [075] (49)
3FBF  00                 [076] (49)
3FC0  20                 [077] (49)
3FC1  02                 [078] (49)
3FC2  00                 [079] (49)
3FC3  00                 [080] (49)
3FC4  20                 [081] (49)
3FC5  02                 [082] (49)
3FC6  00                 [083] (49)
3FC7  00                 [084] (49)
3FC8  20                 [085] (49)
3FC9  02                 [086] (51)
3FCA  00                 [087] (51)
3FCB  00                 [088] (51)
3FCC  20                 [089] (51)
3FCD  02                 [090] (51)
3FCE  00                 [091] (51)
3FCF  00                 [092] (51)
3FD0  21                 [093] (51)
3FD1  02                 [094] (51)
3FD2  00                 [095] (51)
3FD3  00                 [096] (51)
3FD4  21                 [097] (51)
3FD5  02                 [098] (53)
3FD6  00                 [099] (53)
3FD7  00                 [100] (53)
3FD8  21                 [101] (54)
3FD9  02                 [102] (55)
3FDA  00                 [103] (56)
3FDB  00                 [104] (57)
3FDC  21                 [105] (58)
3FDD  02                 [106] (59)
3FDE  00                 [107] (59)
3FDF  00                 [108] (59)
3FE0  22                 [109] (61)
3FE1  02                 [110] (61)
3FE2  00                 [111] (62)
3FE3  00                 [112] (62)
3FE4  22                 [113] (62)
3FE5  02                 [114] (62)
3FE6  00                 [115] (62)
3FE7  00                 [116] (62)
3FE8  22                 [117] (63)
3FE9  02                 [118] (65)
3FEA  00                 [119] (65)
3FEB  00                 [120] (65)
3FEC  22                 [121] (65)
3FED  02                 [122] (65)
3FEE  00                 [123] (66)
3FEF  00                 [124] (66)
3FF0  22                 [125] (66)
3FF1  02                 [126] (66)
3FF2  00                 [127] (66)
3FF3  00                 [128] (66)
3FF4  25                 [129] (67)
3FF5  02                 [130] (67)
3FF6  00                 [131] (67)
3FF7  00                 [132] (70)
3FF8  25                 [133] (70)
3FF9  02                 [134] (70)
3FFA  00                 [135] (70)
3FFB  00                 [136] (70)
3FFC  25                 [137] (70)
3FFD  02                 [138] (70)
3FFE  00                 [139] (71)
3FFF  00                 [140] (71)
4000  25                 [141] (71)
4001  02                 [142] (71)
4002  00                 [143] (74)
4003  00                 [144] (74)
4004  25                 [145] (74)
4005  02                 [146] (74)
4006  00                 [147] (74)
4007  00                 [148] (74)
4008  25                 [149] (74)
4009  02                 [150] (75)
400A  00                 [151] (75)
400B  00                 [152] (75)
400C  27                 [153] (75)
400D  02                 [154] (78)
400E  00                 [155] (78)
400F  00                 [156] (78)
4010  27                 [157] (78)
4011  02                 [158] (78)
4012  00                 [159] (78)
4013  00                 [160] (78)
4014  27                 [161] (79)
4015  02                 [162] (79)
4016  00                 [163] (79)
4017  00                 [164] (79)
4018  27                 [165] (83)
4019  02                 [166] (83)
401A  00                 [167] (83)
401B  00                 [168] (83)
401C  27                 [169] (83)
401D  02                 [170] (85)
401E  00                 [171] (85)
401F  00                 [172] (86)
4020  27                 [173] (86)
4021  02                 [174] (86)
4022  00                 [175] (86)
4023  00                 [176] (86)
4024  28                 [177] (87)
4025  02                 [178] (87)
4026  00                 [179] (87)
4027  00                 [180] (87)
4028  28                 [181] (87)
4029  02                 [182] (89)
402A  00                 [183] (89)
402B  00                 [184] (89)
402C  28                 [185] (89)
402D  02                 [186] (89)
402E  00                 [187] (89)
402F  00                 [188] (89)
4030  28                 [189] (90)
4031  02                 [190] (90)
4032  00                 [191] (90)
4033  00                 [192] (90)
4034  28                 [193] (90)
4035  02                 [194] (90)
4036  00                 [195] (90)
4037  00                 [196] (91)
4038  28                 [197] (91)
4039  02                 [198] (91)
403A  00                 [199] (91)
403B  00                 [200] (92)
403C  28                 [201] (92)
403D  02                 [202] (92)
403E  00                 [203] (92)
403F  00                 [204] (93)
4040  28                 [205] (94)
4041  02                 [206] (94)
4042  00                 [207] (94)
4043  00                 [208] (94)
4044  2A                 [209] (94)
4045  02                 [210] (94)
4046  00                 [211] (95)
4047  00                 [212] (95)
4048  2A                 [213] (96)
4049  02                 [214] (97)
404A  00                 [215] (94)
404B  00                 [216] (98)
404C  2A                 [217] (101)
404D  02                 [218] (101)
404E  00                 [219] (102)
404F  00                 [220] (102)
4050  2A                 [221] (102)
4051  02                 [222] (102)
4052  00                 [223] (102)
4053  00                 [224] (102)
4054  2A                 [225] (102)
4055  02                 [226] (102)
4056  00                 [227] (103)
4057  00                 [228] (103)
4058  2A                 [229] (104)
4059  02                 [230] (105)
405A  00                 [231] (105)
405B  00                 [232] (105)
405C  2A                 [233] (105)
405D  02                 [234] (105)
405E  00                 [235] (105)
405F  00                 [236] (105)
4060  2A                 [237] (91)
4061  02                 [238] (108)
4062  00                 [239] (111)
4063  00                 [240] (111)
4064  2A                 [241] (111)
4065  02                 [242] (111)
4066  00                 [243] (111)
4067  00                 [244] (111)
4068  2A                 [245] (111)
4069  02                 [246] (112)
406A  00                 [247] (112)
406B  00                 [248] (112)
406C  2A                 [249] (112)
406D  02                 [250] (114)
406E  00                 [251] (114)
406F  00                 [252] (114)
4070  2A                 [253] (114)
4071  02                 [254] (114)
4072  00                 [255] (115)
4073  00                 [256] (115)
4074  2C                 [257] (115)
4075  02                 [258] (115)
4076  00                 [259] (115)
4077  00                 [260] (117)
4078  2C                 [261] (117)
4079  02                 [262] (117)
407A  00                 [263] (119)
407B  00                 [264] (119)
407C  2E                 [265] (119)
407D  02                 [266] (119)
407E  00                 [267] (119)
407F  00                 [268] (119)
4080  2E                 [269] (119)
4081  02                 [270] (119)
4082  00                 [271] (119)
4083  00                 [272] (119)
4084  2E                 [273] (120)
4085  02                 [274] (120)
4086  00                 [275] (120)
4087  00                 [276] (120)
4088  2E                 [277] (122)
4089  02                 [278] (122)
408A  00                 [279] (122)
408B  00                 [280] (122)
408C  2E                 [281] (122)
408D  02                 [282] (122)
408E  00                 [283] (122)
408F  00                 [284] (122)
4090  2F                 [285] (122)
4091  02                 [286] (122)
4092  00                 [287] (123)
4093  00                 [288] (123)
4094  2F                 [289] (123)
4095  02                 [290] (123)
4096  00                 [291] (123)
4097  00                 [292] (123)
4098  31                 [293] (123)
4099  02                 [294] (123)
409A  00                 [295] (124)
409B  00                 [296] (124)
409C  31                 [297] (125)
409D  02                 [298] (126)
409E  00                 [299] (126)
409F  00                 [300] (126)
40A0  31                 [301] (126)
40A1  02                 [302] (126)
40A2  00                 [303] (126)
40A3  00                 [304] (126)
40A4  31                 [305] (112)
40A5  02                 [306] (-126)
40A6  00                 [307] (-123)
40A7  00                 [308] (-123)
40A8  31                 [309] (-123)
40A9  02                 [310] (-123)
40AA  00                 [311] (-123)
40AB  00                 [312] (-123)
40AC  31                 [313] (-122)
40AD  02                 [314] (-122)
40AE  00                 [315] (-122)
40AF  00                 [316] (-122)
40B0  31                 [317] (-122)
40B1  02                 [318] (-122)
40B2  00                 [319] (-122)
40B3  00                 [320] (-121)
40B4  31                 [321] (-121)
40B5  02                 [322] (-121)
40B6  00                 [323] (-121)
40B7  00                 [324] (-119)
40B8  31                 [325] (-119)
40B9  02                 [326] (-119)
40BA  00                 [327] (-119)
40BB  00                 [328] (-119)
40BC  31                 [329] (-118)
40BD  02                 [330] (-118)
40BE  00                 [331] (-118)
40BF  00                 [332] (-118)
40C0  31                 [333] (-118)
40C1  02                 [334] (-117)
40C2  00                 [335] (-117)
40C3  00                 [336] (-117)
40C4  31                 [337] (-117)
40C5  02                 [338] (-117)
40C6  00                 [339] (-117)
40C7  00                 [340] (-115)
40C8  33                 [341] (-115)
40C9  02                 [342] (-115)
40CA  00                 [343] (-113)
40CB  00                 [344] (-113)
40CC  33                 [345] (-113)
40CD  02                 [346] (-113)
40CE  00                 [347] (-113)
40CF  00                 [348] (-113)
40D0  33                 [349] (-113)
40D1  02                 [350] (-113)
40D2  00                 [351] (-113)
40D3  00                 [352] (-113)
40D4  33                 [353] (-112)
40D5  02                 [354] (-112)
40D6  00                 [355] (-112)
40D7  00                 [356] (-112)
40D8  33                 [357] (-112)
40D9  02                 [358] (-112)
40DA  00                 [359] (-112)
40DB  00                 [360] (-112)
40DC  33                 [361] (-111)
40DD  02                 [362] (-111)
40DE  00                 [363] (-110)
40DF  00                 [364] (-109)
40E0  33                 [365] (-109)
40E1  02                 [366] (-109)
40E2  00                 [367] (-109)
40E3  00                 [368] (-109)
40E4  33                 [369] (-109)
40E5  02                 [370] (-109)
40E6  00                 [371] (-121)
40E7  00                 [372] (-106)
40E8  33                 [373] (-102)
40E9  02                 [374] (-101)
40EA  00                 [375] (-101)
40EB  00                 [376] (-101)
40EC  33                 [377] (-101)
40ED  02                 [378] (-101)
40EE  00                 [379] (-101)
40EF  00                 [380] (-101)
40F0  33                 [381] (-101)
40F1  02                 [382] (-101)
40F2  00                 [383] (-98)
40F3  00                 [384] (-98)
40F4  33                 [385] (-98)
40F5  02                 [386] (-98)
40F6  00                 [387] (-98)
40F7  00                 [388] (-98)
40F8  35                 [389] (-98)
40F9  02                 [390] (-98)
40FA  00                 [391] (-98)
40FB  00                 [392] (-96)
40FC  35                 [393] (-96)
40FD  02                 [394] (-96)
40FE  00                 [395] (-96)
40FF  00                 [396] (-96)
4100  35                 [397] (-95)
4101  02                 [398] (-95)
4102  00                 [399] (-95)
4103  00                 [400] (-94)
4104  36                 [401] (-94)
4105  02                 [402] (-94)
4106  00                 [403] (-94)
4107  00                 [404] (-94)
4108  37                 [405] (-94)
4109  02                 [406] (-94)
410A  00                 [407] (-94)
410B  00                 [408] (-93)
410C  38                 [409] (-93)
410D  02                 [410] (-92)
410E  00                 [411] (-92)
410F  00                 [412] (-88)
4110  39                 [413] (-88)
4111  02                 [414] (-88)
4112  00                 [415] (-87)
4113  00                 [416] (-87)
4114  3A                 [417] (-87)
4115  02                 [418] (-86)
4116  00                 [419] (-86)
4117  00                 [420] (-86)
4118  3B                 [421] (-86)
4119  02                 [422] (-83)
411A  00                 [423] (-83)
411B  00                 [424] (-83)
411C  3B                 [425] (-83)
411D  02                 [426] (-83)
411E  00                 [427] (-82)
411F  00                 [428] (-82)
4120  3B                 [429] (-80)
                         * locals:
4628  00                 sizelocvars (0)
                         * upvalues:
4629  00                 sizeupvalues (0)
                         ** end of function **

                         
462A                     ** function [15] definition (level 2)
                         ** start of function **
462A  00                 string size (0)
                         source name: (none)
462C  05                 line defined (690)
462D  E4                 last line defined (740)
462E  05                 nups (1)
462F  01                 numparams (1)
4630  01                 is_vararg (0)
4631  00                 maxstacksize (21)
                         * code:
4633  66                 sizecode (102)
4634  5D000000           [001] getglobal  1   0        ; 1074689893
4638  9D400000           [002] getglobal  2   1        ; gClient
463C  62800001           [003] call       1   2   2  
4640  58000000           [004] test       1       0    ; to [6] if true
4644  1A000080           [005] jmp        1            ; to [7]
4648  1E008000           [006] return     0   1      
464C  5D400000           [007] getglobal  1   1        ; gClient
4650  6480C000           [008] self       1   1   258  ; 1932938530
4654  62800001           [009] call       1   2   2  
4658  A4C0C000           [010] self       2   1   259  ; -752543200
465C  A2800001           [011] call       2   2   2  
4660  CE004101           [012] gettable   3   2   260  ; "particleSysQuality"
fail op	35
4664  2340C101           [013] close      0  
4668  1A000080           [014] jmp        1            ; to [16]
466C  1E008000           [015] return     0   1      
4670  24814100           [016] self       4   0   262  ; -1917464545
4674  22810001           [017] call       4   2   2  
4678  24C14102           [018] self       4   4   263  ; 1769516121
467C  22810001           [019] call       4   2   2  
4680  5D010000           [020] getglobal  5   0        ; 1074689893
4684  92010002           [021] move       6   4      
4688  62810001           [022] call       5   2   2  
468C  58010000           [023] test       5       0    ; to [25] if true
4690  1A000080           [024] jmp        1            ; to [26]
4694  1E008000           [025] return     0   1      
4698  64814100           [026] self       5   0   262  ; -1917464545
469C  62810001           [027] call       5   2   2  
46A0  6401C202           [028] self       5   5   264  ; -940929887
46A4  D9410200           [029] loadk      7   9        ; 0
46A8  1D820200           [030] getglobal  8   10       ; Game
46AC  0EC24204           [031] gettable   8   8   267  ; "AVATAR_CASTING_SPEED"
46B0  64024302           [032] self       9   4   268  ; -491574171
46B4  62820001           [033] call       9   2   2  
46B8  92020002           [034] move       10  4      
46BC  62810003           [035] call       5   6   2  
46C0  A4414300           [036] self       6   0   269  ; -1544157541
46C4  A2810001           [037] call       6   2   2  
46C8  D9410100           [038] loadk      7   5        ; 0
46CC  19420200           [039] loadk      8   9        ; 0
46D0  59820300           [040] loadk      9   14       ; -51
46D4  A4C24302           [041] self       10  4   271  ; -576819411
46D8  1D030400           [042] getglobal  12  16       ; -332969190
46DC  59430400           [043] loadk      13  17       ; "ShockAmbientBeam"
46E0  22030001           [044] call       12  2   0  
46E4  A2820000           [045] call       10  0   2  
fail op	21
46E8  1580C403           [046] concat     0   7   274
46EC  1A400D80           [047] jmp        54           ; to [102]
fail op	21
46F0  15008204           [048] concat     0   9   8  
46F4  1A000A80           [049] jmp        41           ; to [91]
46F8  E4C24403           [050] self       11  6   275  ; -342897303
46FC  E2820001           [051] call       11  2   2  
fail op	35
4700  2300C505           [052] close      0  
4704  1A000080           [053] jmp        1            ; to [55]
4708  1E008000           [054] return     0   1      
470C  0E43C505           [055] gettable   12  11  277  ; "mBoneName"
4710  53030000           [056] getupval   13  0      
4714  A4834500           [057] self       14  0   278  ; -1565518332
4718  12040006           [058] move       16  12     
471C  A2038001           [059] call       14  3   0  
4720  62830000           [060] call       13  0   2  
4724  9DC30500           [061] getglobal  14  23       ; ZERO_VECTOR
fail op	35
4728  63808306           [062] close      1  
472C  1A000580           [063] jmp        21           ; to [85]
4730  A4034600           [064] self       14  0   280  ; -1421644046
4734  12040005           [065] move       16  10     
4738  52040006           [066] move       17  12     
473C  9DC40500           [067] getglobal  18  23       ; ZERO_VECTOR
4740  DD440600           [068] getglobal  19  25       ; ZERO_ROTATION
4744  12050000           [069] move       20  0      
4748  A2838003           [070] call       14  7   2  
474C  DD030000           [071] getglobal  15  0        ; 1074689893
4750  12040007           [072] move       16  14     
4754  E2830001           [073] call       15  2   2  
4758  D8430000           [074] test       15      1    ; to [76] if false
475C  1A000280           [075] jmp        9            ; to [85]
4760  E4834607           [076] self       15  14  282  ; 1311555023
4764  52048006           [077] move       17  13     
4768  E2438001           [078] call       15  3   1  
476C  DDC30600           [079] getglobal  15  27       ; gRegion
4770  E403C707           [080] self       15  15  284  ; -47858664
4774  5D440700           [081] getglobal  17  29       ; ambientBeamEffectType
4778  92048006           [082] move       18  13     
477C  DD440600           [083] getglobal  19  25       ; ZERO_ROTATION
4780  E2438002           [084] call       15  5   1  
4784  19420100           [085] loadk      8   5        ; 0
4788  DD830700           [086] getglobal  15  30       ; -1941280958
478C  19C40700           [087] loadk      16  31       ; 10
4790  59040800           [088] loadk      17  32       ; -113
4794  E2838001           [089] call       15  3   2  
4798  5CC28007           [090] div        9   15  3  
479C  DD430800           [091] getglobal  15  33       ; 1289681407
47A0  E2838000           [092] call       15  1   2  
47A4  C4438107           [093] mul        15  15  5  
47A8  C3C18303           [094] add        7   7   15 
47AC  DD430800           [095] getglobal  15  33       ; 1289681407
47B0  E2838000           [096] call       15  1   2  
47B4  03C20304           [097] add        8   8   15 
47B8  DD830800           [098] getglobal  15  34       ; 538022378
47BC  19440100           [099] loadk      16  5        ; 0
47C0  E2430001           [100] call       15  2   1  
47C4  1AC0F17F           [101] jmp        -56          ; to [46]
47C8  1E008000           [102] return     0   1      
                         * constants:
47CC  23                 sizek (35)
47CD  01                 const type 3
47CE  65770E40           const [0]: (1074689893)
47D2  04                 const type 4
47D3  08                 string size (8)
47D4  67436C69656E7400   "gClient\0"
                         const [1]: "gClient"
47DC  01                 const type 3
47DD  224D3673           const [2]: (1932938530)
47E1  01                 const type 3
47E2  201A25D3           const [3]: (-752543200)
47E6  04                 const type 4
47E7  13                 string size (19)
47E8  7061727469636C65+  "particle"
47F0  5379735175616C69+  "SysQuali"
47F8  747900             "ty\0"
                         const [4]: "particleSysQuality"
47FB  03                 const type 3
47FC  00000000           const [5]: (0)
4800  01                 const type 3
4801  1FD0B58D           const [6]: (-1917464545)
4805  01                 const type 3
4806  59AC7869           const [7]: (1769516121)
480A  01                 const type 3
480B  A18CEAC7           const [8]: (-940929887)
480F  03                 const type 3
4810  0000803F           const [9]: (0)
4814  04                 const type 4
4815  05                 string size (5)
4816  47616D6500         "Game\0"
                         const [10]: "Game"
481B  04                 const type 4
481C  15                 string size (21)
481D  4156415441525F43+  "AVATAR_C"
4825  415354494E475F53+  "ASTING_S"
482D  5045454400         "PEED\0"
                         const [11]: "AVATAR_CASTING_SPEED"
4832  01                 const type 3
4833  652CB3E2           const [12]: (-491574171)
4837  01                 const type 3
4838  9B06F6A3           const [13]: (-1544157541)
483C  03                 const type 3
483D  CDCC4C3D           const [14]: (-51)
4841  01                 const type 3
4842  2D6F9EDD           const [15]: (-576819411)
4846  01                 const type 3
4847  1A4B27EC           const [16]: (-332969190)
484B  04                 const type 4
484C  11                 string size (17)
484D  53686F636B416D62+  "ShockAmb"
4855  69656E744265616D+  "ientBeam"
485D  00                 "\0"
                         const [17]: "ShockAmbientBeam"
485E  03                 const type 3
485F  CDCCCC3F           const [18]: (-51)
4863  01                 const type 3
4864  69CD8FEB           const [19]: (-342897303)
4868  00                 const type 0
                         const [20]: nil
4869  04                 const type 4
486A  0A                 string size (10)
486B  6D426F6E654E616D+  "mBoneNam"
4873  6500               "e\0"
                         const [21]: "mBoneName"
4875  01                 const type 3
4876  0416B0A2           const [22]: (-1565518332)
487A  04                 const type 4
487B  0C                 string size (12)
487C  5A45524F5F564543+  "ZERO_VEC"
4884  544F5200           "TOR\0"
                         const [23]: "ZERO_VECTOR"
4888  01                 const type 3
4889  F26E43AB           const [24]: (-1421644046)
488D  04                 const type 4
488E  0E                 string size (14)
488F  5A45524F5F524F54+  "ZERO_ROT"
4897  4154494F4E00       "ATION\0"
                         const [25]: "ZERO_ROTATION"
489D  01                 const type 3
489E  CFBD2C4E           const [26]: (1311555023)
48A2  04                 const type 4
48A3  08                 string size (8)
48A4  67526567696F6E00   "gRegion\0"
                         const [27]: "gRegion"
48AC  01                 const type 3
48AD  18BC25FD           const [28]: (-47858664)
48B1  04                 const type 4
48B2  16                 string size (22)
48B3  616D6269656E7442+  "ambientB"
48BB  65616D4566666563+  "eamEffec"
48C3  745479706500       "tType\0"
                         const [29]: "ambientBeamEffectType"
48C9  01                 const type 3
48CA  42674A8C           const [30]: (-1941280958)
48CE  03                 const type 3
48CF  0AD7A33D           const [31]: (10)
48D3  03                 const type 3
48D4  8FC2753E           const [32]: (-113)
48D8  01                 const type 3
48D9  FFF9DE4C           const [33]: (1289681407)
48DD  01                 const type 3
48DE  EA911120           const [34]: (538022378)
                         * functions:
48E2  00                 sizep (0)
                         * lines:
48E3  66                 sizelineinfo (102)
                         [pc] (line)
48E4  B3                 [001] (-77)
48E5  02                 [002] (-77)
48E6  00                 [003] (-77)
48E7  00                 [004] (-77)
48E8  B3                 [005] (-77)
48E9  02                 [006] (-76)
48EA  00                 [007] (-73)
48EB  00                 [008] (-73)
48EC  B3                 [009] (-73)
48ED  02                 [010] (-72)
48EE  00                 [011] (-72)
48EF  00                 [012] (-71)
48F0  B3                 [013] (-70)
48F1  02                 [014] (-70)
48F2  00                 [015] (-69)
48F3  00                 [016] (-66)
48F4  B3                 [017] (-66)
48F5  02                 [018] (-66)
48F6  00                 [019] (-66)
48F7  00                 [020] (-65)
48F8  B4                 [021] (-65)
48F9  02                 [022] (-65)
48FA  00                 [023] (-65)
48FB  00                 [024] (-65)
48FC  B7                 [025] (-64)
48FD  02                 [026] (-61)
48FE  00                 [027] (-61)
48FF  00                 [028] (-61)
4900  B7                 [029] (-61)
4901  02                 [030] (-61)
4902  00                 [031] (-61)
4903  00                 [032] (-61)
4904  B7                 [033] (-61)
4905  02                 [034] (-61)
4906  00                 [035] (-61)
4907  00                 [036] (-59)
4908  B8                 [037] (-59)
4909  02                 [038] (-57)
490A  00                 [039] (-56)
490B  00                 [040] (-55)
490C  B8                 [041] (-53)
490D  02                 [042] (-53)
490E  00                 [043] (-53)
490F  00                 [044] (-53)
4910  B9                 [045] (-53)
4911  02                 [046] (-52)
4912  00                 [047] (-52)
4913  00                 [048] (-51)
4914  BA                 [049] (-51)
4915  02                 [050] (-50)
4916  00                 [051] (-50)
4917  00                 [052] (-48)
4918  BA                 [053] (-48)
4919  02                 [054] (-47)
491A  00                 [055] (-44)
491B  00                 [056] (-43)
491C  BB                 [057] (-43)
491D  02                 [058] (-43)
491E  00                 [059] (-43)
491F  00                 [060] (-43)
4920  BE                 [061] (-42)
4921  02                 [062] (-42)
4922  00                 [063] (-42)
4923  00                 [064] (-41)
4924  BE                 [065] (-41)
4925  02                 [066] (-41)
4926  00                 [067] (-41)
4927  00                 [068] (-41)
4928  BE                 [069] (-41)
4929  02                 [070] (-41)
492A  00                 [071] (-40)
492B  00                 [072] (-40)
492C  BE                 [073] (-40)
492D  02                 [074] (-40)
492E  00                 [075] (-40)
492F  00                 [076] (-39)
4930  BF                 [077] (-39)
4931  02                 [078] (-39)
4932  00                 [079] (-38)
4933  00                 [080] (-38)
4934  BF                 [081] (-38)
4935  02                 [082] (-38)
4936  00                 [083] (-38)
4937  00                 [084] (-38)
4938  BF                 [085] (-35)
4939  02                 [086] (-34)
493A  00                 [087] (-34)
493B  00                 [088] (-34)
493C  BF                 [089] (-34)
493D  02                 [090] (-34)
493E  00                 [091] (-32)
493F  00                 [092] (-32)
4940  BF                 [093] (-32)
4941  02                 [094] (-32)
4942  00                 [095] (-31)
4943  00                 [096] (-31)
4944  C0                 [097] (-31)
4945  02                 [098] (-30)
4946  00                 [099] (-30)
4947  00                 [100] (-30)
4948  C3                 [101] (-30)
4949  02                 [102] (-28)
                         * locals:
4A7C  00                 sizelocvars (0)
                         * upvalues:
4A7D  00                 sizeupvalues (0)
                         ** end of function **

                         
4A7E                     ** function [16] definition (level 2)
                         ** start of function **
4A7E  00                 string size (0)
                         source name: (none)
4A80  05                 line defined (742)
4A81  C7                 last line defined (839)
4A82  06                 nups (11)
4A83  0B                 numparams (1)
4A84  01                 is_vararg (0)
4A85  00                 maxstacksize (24)
                         * code:
4A88  01                 sizecode (225)
4A89  64004000           [001] self       1   0   256  ; 129677183
4A8D  62800001           [002] call       1   2   2  
4A91  86000001           [003] loadnil    2   2      
4A95  DD400000           [004] getglobal  3   1        ; 1074689893
4A99  12010000           [005] move       4   0      
4A9D  E2800001           [006] call       3   2   2  
4AA1  D8400000           [007] test       3       1    ; to [9] if false
4AA5  1A000380           [008] jmp        13           ; to [22]
4AA9  E4804000           [009] self       3   0   258  ; -1870903749
4AAD  E2800001           [010] call       3   2   2  
4AB1  92008001           [011] move       2   3      
4AB5  DD400000           [012] getglobal  3   1        ; 1074689893
4AB9  12010001           [013] move       4   2      
4ABD  E2800001           [014] call       3   2   2  
4AC1  D8400000           [015] test       3       1    ; to [17] if false
4AC5  1A000080           [016] jmp        1            ; to [18]
4AC9  1AC00080           [017] jmp        4            ; to [22]
4ACD  DDC00000           [018] getglobal  3   3        ; 538022378
4AD1  19010100           [019] loadk      4   4        ; 0
4AD5  E2400001           [020] call       3   2   1  
4AD9  1A40FB7F           [021] jmp        -18          ; to [4]
4ADD  DD400000           [022] getglobal  3   1        ; 1074689893
4AE1  12010000           [023] move       4   0      
4AE5  E2800001           [024] call       3   2   2  
4AE9  D8400000           [025] test       3       1    ; to [27] if false
4AED  1A000180           [026] jmp        5            ; to [32]
4AF1  DD400000           [027] getglobal  3   1        ; 1074689893
4AF5  12018000           [028] move       4   1      
4AF9  E2800001           [029] call       3   2   2  
4AFD  D8000000           [030] test       3       0    ; to [32] if true
4B01  1A000080           [031] jmp        1            ; to [33]
4B05  1E008000           [032] return     0   1      
4B09  E440C100           [033] self       3   1   261  ; -1538682285
4B0D  E2800001           [034] call       3   2   2  
4B11  2481C100           [035] self       4   1   262  ; -40827644
4B15  9DC10100           [036] getglobal  6   7        ; ABILITY_INDEX
4B19  22818001           [037] call       4   3   2  
4B1D  6401C200           [038] self       5   1   264  ; 1183093143
4B21  DDC10100           [039] getglobal  7   7        ; ABILITY_INDEX
4B25  62818001           [040] call       5   3   2  
fail op	21
4B29  15000182           [041] concat     0   260 4  
4B2D  1AC00080           [042] jmp        4            ; to [47]
4B31  9D410200           [043] getglobal  6   9        ; Lotus_Game
4B35  8E814203           [044] gettable   6   6   266  ; "PowerSuit_AUGMENT_ONE"
fail op	35
4B39  63808102           [045] close      1  
4B3D  1A000080           [046] jmp        1            ; to [48]
4B41  97410000           [047] loadbool   6   0   1    ; false, to [49]
4B45  97018000           [048] loadbool   6   1   0    ; true
4B49  D3010000           [049] getupval   7   0      
4B4D  24C2C200           [050] self       8   1   267  ; 345555894
4B51  9DC20100           [051] getglobal  10  7        ; ABILITY_INDEX
4B55  22028001           [052] call       8   3   0  
4B59  E2410000           [053] call       7   0   1  
4B5D  98010000           [054] test       6       0    ; to [56] if true
4B61  1AC00080           [055] jmp        4            ; to [60]
4B65  D3018000           [056] getupval   7   1      
4B69  12020002           [057] move       8   4      
4B6D  52028002           [058] move       9   5      
4B71  E2418001           [059] call       7   3   1  
4B75  D3010001           [060] getupval   7   2      
4B79  CE01C303           [061] gettable   7   7   268  ; -2033850958
4B7D  12028000           [062] move       8   1      
4B81  6442C300           [063] self       9   1   269  ; -363477704
4B85  DDC20100           [064] getglobal  11  7        ; ABILITY_INDEX
4B89  62028001           [065] call       9   3   0  
4B8D  E2810000           [066] call       7   0   2  
4B91  19020100           [067] loadk      8   4        ; 0
4B95  5D420000           [068] getglobal  9   1        ; 1074689893
4B99  92028003           [069] move       10  7      
4B9D  62820001           [070] call       9   2   2  
4BA1  58420000           [071] test       9       1    ; to [73] if false
4BA5  1A000B80           [072] jmp        45           ; to [118]
4BA9  4E82C303           [073] gettable   9   7   270  ; "radius"
4BAD  8EC2C303           [074] gettable   10  7   271  ; "dps"
4BB1  CE02C403           [075] gettable   11  7   272  ; "coilDuration"
fail op	8
4BB5  C8028002           [076] setupval   11  5      
fail op	8
4BB9  88020002           [077] setupval   10  4      
fail op	8
4BBD  48028001           [078] setupval   9   3      
4BC1  53020003           [079] getupval   9   6      
4BC5  93020003           [080] getupval   10  6      
4BC9  8E424405           [081] gettable   10  10  273  ; "minValue"
4BCD  CE82C403           [082] gettable   11  7   274  ; "radiusMult"
4BD1  84C20205           [083] mul        10  10  11 
4BD5  4C828288           [084] settable   9   273 10   ; "minValue"
4BD9  53020003           [085] getupval   9   6      
4BDD  93020003           [086] getupval   10  6      
4BE1  8EC24405           [087] gettable   10  10  275  ; "maxValue"
4BE5  CE82C403           [088] gettable   11  7   274  ; "radiusMult"
4BE9  84C20205           [089] mul        10  10  11 
4BED  4C828289           [090] settable   9   275 10   ; "maxValue"
4BF1  98010000           [091] test       6       0    ; to [93] if true
4BF5  1A400080           [092] jmp        2            ; to [95]
4BF9  4E02C503           [093] gettable   9   7   276  ; "augmentConversionPct"
fail op	8
4BFD  48028003           [094] setupval   9   7      
4C01  5D420500           [095] getglobal  9   21       ; gRegion
4C05  6482C504           [096] self       9   9   278  ; -1520831144
4C09  62820001           [097] call       9   2   2  
4C0D  58020000           [098] test       9       0    ; to [100] if true
4C11  1A400080           [099] jmp        2            ; to [102]
4C15  0EC2C503           [100] gettable   8   7   279  ; "distance"
4C19  1AC00380           [101] jmp        16           ; to [118]
4C1D  5D420000           [102] getglobal  9   1        ; 1074689893
4C21  8E02C603           [103] gettable   10  7   280  ; "pos"
4C25  62820001           [104] call       9   2   2  
4C29  58420000           [105] test       9       1    ; to [107] if false
4C2D  1A800280           [106] jmp        11           ; to [118]
4C31  53020004           [107] getupval   9   8      
4C35  9D420500           [108] getglobal  10  21       ; gRegion
4C39  A4424605           [109] self       10  10  281  ; -774964848
4C3D  A2820001           [110] call       10  2   2  
4C41  CE02C603           [111] gettable   11  7   280  ; "pos"
4C45  24834601           [112] self       12  2   282  ; 1839670529
4C49  22830001           [113] call       12  2   2  
4C4D  5DC30600           [114] getglobal  13  27       ; FLT_MAX
4C51  92038000           [115] move       14  1      
4C55  62820003           [116] call       9   6   2  
4C59  12028004           [117] move       8   9      
4C5D  53028004           [118] getupval   9   9      
4C61  4CC2008E           [119] settable   9   284 3    ; "instigatorAvatar"
4C65  53028004           [120] getupval   9   9      
4C69  4C02808E           [121] settable   9   285 0    ; "spawner"
4C6D  53028004           [122] getupval   9   9      
4C71  4C02828B           [123] settable   9   279 8    ; "distance"
4C75  64824701           [124] self       9   2   286  ; -1302048094
4C79  DDC20700           [125] getglobal  11  31       ; -332969190
4C7D  19030800           [126] loadk      12  32       ; "TeslaCoil"
4C81  E2820001           [127] call       11  2   2  
4C85  17030000           [128] loadbool   12  0   0    ; false
4C89  62420002           [129] call       9   4   1  
4C8D  5D420000           [130] getglobal  9   1        ; 1074689893
4C91  9D420800           [131] getglobal  10  33       ; gClient
4C95  62820001           [132] call       9   2   2  
4C99  58020000           [133] test       9       0    ; to [135] if true
4C9D  1A000080           [134] jmp        1            ; to [136]
4CA1  1E008000           [135] return     0   1      
4CA5  5D420800           [136] getglobal  9   33       ; gClient
4CA9  6482C804           [137] self       9   9   290  ; 1932938530
4CAD  62820001           [138] call       9   2   2  
4CB1  64C2C804           [139] self       9   9   291  ; -752543200
4CB5  62820001           [140] call       9   2   2  
4CB9  4E02C904           [141] gettable   9   9   292  ; "particleSysQuality"
fail op	35
4CBD  2300C104           [142] close      0  
4CC1  1A000080           [143] jmp        1            ; to [145]
4CC5  1E008000           [144] return     0   1      
4CC9  A4424901           [145] self       10  2   293  ; -1957065004
4CCD  1D830900           [146] getglobal  12  38       ; gBaseAvatarType
4CD1  A2828001           [147] call       10  3   2  
4CD5  98420000           [148] test       10      1    ; to [150] if false
4CD9  1A000080           [149] jmp        1            ; to [151]
4CDD  1E008000           [150] return     0   1      
4CE1  A4C24901           [151] self       10  2   295  ; -1544157541
4CE5  A2820001           [152] call       10  2   2  
4CE9  D9020A00           [153] loadk      11  40       ; 0
4CED  19430A00           [154] loadk      12  41       ; -51
4CF1  6483CA00           [155] self       13  1   298  ; -576819411
4CF5  DDC30700           [156] getglobal  15  31       ; -332969190
4CF9  19C40A00           [157] loadk      16  43       ; "ShockAmbientBeam"
4CFD  E2030001           [158] call       15  2   0  
4D01  62830000           [159] call       13  0   2  
4D05  9D430000           [160] getglobal  14  1        ; 1074689893
4D09  D2030001           [161] move       15  2      
4D0D  A2830001           [162] call       14  2   2  
4D11  98430000           [163] test       14      1    ; to [165] if false
4D15  1AC00E80           [164] jmp        60           ; to [225]
fail op	21
4D19  15C00206           [165] concat     0   12  11 
4D1D  1A800C80           [166] jmp        51           ; to [218]
4D21  9D430000           [167] getglobal  14  1        ; 1074689893
4D25  D2030005           [168] move       15  10     
4D29  A2830001           [169] call       14  2   2  
4D2D  98030000           [170] test       14      0    ; to [172] if true
4D31  1A000080           [171] jmp        1            ; to [173]
4D35  1E008000           [172] return     0   1      
4D39  A4034B05           [173] self       14  10  300  ; -342897303
4D3D  A2830001           [174] call       14  2   2  
4D41  DD430000           [175] getglobal  15  1        ; 1074689893
4D45  12040007           [176] move       16  14     
4D49  E2830001           [177] call       15  2   2  
4D4D  D8030000           [178] test       15      0    ; to [180] if true
4D51  1A000080           [179] jmp        1            ; to [181]
4D55  1E008000           [180] return     0   1      
4D59  CE434B07           [181] gettable   15  14  301  ; "mBoneName"
4D5D  13040005           [182] getupval   16  10     
4D61  64844B01           [183] self       17  2   302  ; -1565518332
4D65  D2048007           [184] move       19  15     
4D69  62048001           [185] call       17  3   0  
4D6D  22840000           [186] call       16  0   2  
4D71  5DC40B00           [187] getglobal  17  47       ; ZERO_VECTOR
fail op	35
4D75  63400408           [188] close      1  
4D79  1A400580           [189] jmp        22           ; to [212]
4D7D  64044C01           [190] self       17  2   304  ; -1421644046
4D81  D2048006           [191] move       19  13     
4D85  12058007           [192] move       20  15     
4D89  5DC50B00           [193] getglobal  21  47       ; ZERO_VECTOR
4D8D  9D450C00           [194] getglobal  22  49       ; ZERO_ROTATION
4D91  D2058001           [195] move       23  3      
4D95  62848003           [196] call       17  7   2  
4D99  9D440000           [197] getglobal  18  1        ; 1074689893
4D9D  D2048008           [198] move       19  17     
4DA1  A2840001           [199] call       18  2   2  
4DA5  98440000           [200] test       18      1    ; to [202] if false
4DA9  1A400280           [201] jmp        10           ; to [212]
4DAD  A484CC08           [202] self       18  17  306  ; 1311555023
4DB1  12050008           [203] move       20  16     
4DB5  A2448001           [204] call       18  3   1  
4DB9  9D440500           [205] getglobal  18  21       ; gRegion
4DBD  A4C44C09           [206] self       18  18  307  ; -47858664
4DC1  1D050D00           [207] getglobal  20  52       ; ambientBeamEffectType
4DC5  52050008           [208] move       21  16     
4DC9  9D450C00           [209] getglobal  22  49       ; ZERO_ROTATION
4DCD  D2058000           [210] move       23  1      
4DD1  A2440003           [211] call       18  6   1  
4DD5  D9020100           [212] loadk      11  4        ; 0
4DD9  9D440D00           [213] getglobal  18  53       ; -1941280958
4DDD  D9840D00           [214] loadk      19  54       ; -102
4DE1  19C50D00           [215] loadk      20  55       ; -102
4DE5  A2848001           [216] call       18  3   2  
4DE9  1C430209           [217] div        12  18  9  
4DED  9D040E00           [218] getglobal  18  56       ; 1289681407
4DF1  A2848000           [219] call       18  1   2  
4DF5  C3828405           [220] add        11  11  18 
4DF9  9DC40000           [221] getglobal  18  3        ; 538022378
4DFD  D9040100           [222] loadk      19  4        ; 0
4E01  A2440001           [223] call       18  2   1  
4E05  1A80EF7F           [224] jmp        -65          ; to [160]
4E09  1E008000           [225] return     0   1      
                         * constants:
4E0D  39                 sizek (57)
4E0E  01                 const type 3
4E0F  7FB7BA07           const [0]: (129677183)
4E13  01                 const type 3
4E14  65770E40           const [1]: (1074689893)
4E18  01                 const type 3
4E19  3B467C90           const [2]: (-1870903749)
4E1D  01                 const type 3
4E1E  EA911120           const [3]: (538022378)
4E22  03                 const type 3
4E23  00000000           const [4]: (0)
4E27  01                 const type 3
4E28  539249A4           const [5]: (-1538682285)
4E2C  01                 const type 3
4E2D  040591FD           const [6]: (-40827644)
4E31  04                 const type 4
4E32  0E                 string size (14)
4E33  4142494C4954595F+  "ABILITY_"
4E3B  494E44455800       "INDEX\0"
                         const [7]: "ABILITY_INDEX"
4E41  01                 const type 3
4E42  97918446           const [8]: (1183093143)
4E46  04                 const type 4
4E47  0B                 string size (11)
4E48  4C6F7475735F4761+  "Lotus_Ga"
4E50  6D6500             "me\0"
                         const [9]: "Lotus_Game"
4E53  04                 const type 4
4E54  16                 string size (22)
4E55  506F776572537569+  "PowerSui"
4E5D  745F4155474D454E+  "t_AUGMEN"
4E65  545F4F4E4500       "T_ONE\0"
                         const [10]: "PowerSuit_AUGMENT_ONE"
4E6B  01                 const type 3
4E6C  B6C39814           const [11]: (345555894)
4E70  01                 const type 3
4E71  B2E5C586           const [12]: (-2033850958)
4E75  01                 const type 3
4E76  38C555EA           const [13]: (-363477704)
4E7A  04                 const type 4
4E7B  07                 string size (7)
4E7C  72616469757300     "radius\0"
                         const [14]: "radius"
4E83  04                 const type 4
4E84  04                 string size (4)
4E85  64707300           "dps\0"
                         const [15]: "dps"
4E89  04                 const type 4
4E8A  0D                 string size (13)
4E8B  636F696C44757261+  "coilDura"
4E93  74696F6E00         "tion\0"
                         const [16]: "coilDuration"
4E98  04                 const type 4
4E99  09                 string size (9)
4E9A  6D696E56616C7565+  "minValue"
4EA2  00                 "\0"
                         const [17]: "minValue"
4EA3  04                 const type 4
4EA4  0B                 string size (11)
4EA5  7261646975734D75+  "radiusMu"
4EAD  6C7400             "lt\0"
                         const [18]: "radiusMult"
4EB0  04                 const type 4
4EB1  09                 string size (9)
4EB2  6D617856616C7565+  "maxValue"
4EBA  00                 "\0"
                         const [19]: "maxValue"
4EBB  04                 const type 4
4EBC  15                 string size (21)
4EBD  6175676D656E7443+  "augmentC"
4EC5  6F6E76657273696F+  "onversio"
4ECD  6E50637400         "nPct\0"
                         const [20]: "augmentConversionPct"
4ED2  04                 const type 4
4ED3  08                 string size (8)
4ED4  67526567696F6E00   "gRegion\0"
                         const [21]: "gRegion"
4EDC  01                 const type 3
4EDD  58F559A5           const [22]: (-1520831144)
4EE1  04                 const type 4
4EE2  09                 string size (9)
4EE3  64697374616E6365+  "distance"
4EEB  00                 "\0"
                         const [23]: "distance"
4EEC  04                 const type 4
4EED  04                 string size (4)
4EEE  706F7300           "pos\0"
                         const [24]: "pos"
4EF2  01                 const type 3
4EF3  90F9CED1           const [25]: (-774964848)
4EF7  01                 const type 3
4EF8  0125A76D           const [26]: (1839670529)
4EFC  04                 const type 4
4EFD  08                 string size (8)
4EFE  464C545F4D415800   "FLT_MAX\0"
                         const [27]: "FLT_MAX"
4F06  04                 const type 4
4F07  11                 string size (17)
4F08  696E737469676174+  "instigat"
4F10  6F72417661746172+  "orAvatar"
4F18  00                 "\0"
                         const [28]: "instigatorAvatar"
4F19  04                 const type 4
4F1A  08                 string size (8)
4F1B  737061776E657200   "spawner\0"
                         const [29]: "spawner"
4F23  01                 const type 3
4F24  A25264B2           const [30]: (-1302048094)
4F28  01                 const type 3
4F29  1A4B27EC           const [31]: (-332969190)
4F2D  04                 const type 4
4F2E  0A                 string size (10)
4F2F  5465736C61436F69+  "TeslaCoi"
4F37  6C00               "l\0"
                         const [32]: "TeslaCoil"
4F39  04                 const type 4
4F3A  08                 string size (8)
4F3B  67436C69656E7400   "gClient\0"
                         const [33]: "gClient"
4F43  01                 const type 3
4F44  224D3673           const [34]: (1932938530)
4F48  01                 const type 3
4F49  201A25D3           const [35]: (-752543200)
4F4D  04                 const type 4
4F4E  13                 string size (19)
4F4F  7061727469636C65+  "particle"
4F57  5379735175616C69+  "SysQuali"
4F5F  747900             "ty\0"
                         const [36]: "particleSysQuality"
4F62  01                 const type 3
4F63  D48E598B           const [37]: (-1957065004)
4F67  04                 const type 4
4F68  10                 string size (16)
4F69  6742617365417661+  "gBaseAva"
4F71  7461725479706500   "tarType\0"
                         const [38]: "gBaseAvatarType"
4F79  01                 const type 3
4F7A  9B06F6A3           const [39]: (-1544157541)
4F7E  03                 const type 3
4F7F  0000803F           const [40]: (0)
4F83  03                 const type 3
4F84  CDCCCC3D           const [41]: (-51)
4F88  01                 const type 3
4F89  2D6F9EDD           const [42]: (-576819411)
4F8D  04                 const type 4
4F8E  11                 string size (17)
4F8F  53686F636B416D62+  "ShockAmb"
4F97  69656E744265616D+  "ientBeam"
4F9F  00                 "\0"
                         const [43]: "ShockAmbientBeam"
4FA0  01                 const type 3
4FA1  69CD8FEB           const [44]: (-342897303)
4FA5  04                 const type 4
4FA6  0A                 string size (10)
4FA7  6D426F6E654E616D+  "mBoneNam"
4FAF  6500               "e\0"
                         const [45]: "mBoneName"
4FB1  01                 const type 3
4FB2  0416B0A2           const [46]: (-1565518332)
4FB6  04                 const type 4
4FB7  0C                 string size (12)
4FB8  5A45524F5F564543+  "ZERO_VEC"
4FC0  544F5200           "TOR\0"
                         const [47]: "ZERO_VECTOR"
4FC4  01                 const type 3
4FC5  F26E43AB           const [48]: (-1421644046)
4FC9  04                 const type 4
4FCA  0E                 string size (14)
4FCB  5A45524F5F524F54+  "ZERO_ROT"
4FD3  4154494F4E00       "ATION\0"
                         const [49]: "ZERO_ROTATION"
4FD9  01                 const type 3
4FDA  CFBD2C4E           const [50]: (1311555023)
4FDE  01                 const type 3
4FDF  18BC25FD           const [51]: (-47858664)
4FE3  04                 const type 4
4FE4  16                 string size (22)
4FE5  616D6269656E7442+  "ambientB"
4FED  65616D4566666563+  "eamEffec"
4FF5  745479706500       "tType\0"
                         const [52]: "ambientBeamEffectType"
4FFB  01                 const type 3
4FFC  42674A8C           const [53]: (-1941280958)
5000  03                 const type 3
5001  9A99993E           const [54]: (-102)
5005  03                 const type 3
5006  9A99193F           const [55]: (-102)
500A  01                 const type 3
500B  FFF9DE4C           const [56]: (1289681407)
                         * functions:
500F  00                 sizep (0)
                         * lines:
5011  01                 sizelineinfo (225)
                         [pc] (line)
5012  E7                 [001] (-25)
5013  02                 [002] (-25)
5014  00                 [003] (-23)
5015  00                 [004] (-22)
5016  E7                 [005] (-22)
5017  02                 [006] (-22)
5018  00                 [007] (-22)
5019  00                 [008] (-22)
501A  E9                 [009] (-21)
501B  02                 [010] (-21)
501C  00                 [011] (-21)
501D  00                 [012] (-20)
501E  EA                 [013] (-20)
501F  02                 [014] (-20)
5020  00                 [015] (-20)
5021  00                 [016] (-20)
5022  EA                 [017] (-19)
5023  02                 [018] (-16)
5024  00                 [019] (-16)
5025  00                 [020] (-16)
5026  EA                 [021] (-16)
5027  02                 [022] (-13)
5028  00                 [023] (-13)
5029  00                 [024] (-13)
502A  EA                 [025] (-13)
502B  02                 [026] (-13)
502C  00                 [027] (-13)
502D  00                 [028] (-13)
502E  EA                 [029] (-13)
502F  02                 [030] (-13)
5030  00                 [031] (-13)
5031  00                 [032] (-12)
5032  EB                 [033] (-9)
5033  02                 [034] (-9)
5034  00                 [035] (-7)
5035  00                 [036] (-7)
5036  EB                 [037] (-7)
5037  02                 [038] (-6)
5038  00                 [039] (-6)
5039  00                 [040] (-6)
503A  EB                 [041] (-5)
503B  02                 [042] (-5)
503C  00                 [043] (-5)
503D  00                 [044] (-5)
503E  EC                 [045] (-5)
503F  02                 [046] (-5)
5040  00                 [047] (-5)
5041  00                 [048] (-5)
5042  EC                 [049] (-3)
5043  02                 [050] (-3)
5044  00                 [051] (-3)
5045  00                 [052] (-3)
5046  EC                 [053] (-3)
5047  02                 [054] (-2)
5048  00                 [055] (-2)
5049  00                 [056] (-1)
504A  EC                 [057] (-1)
504B  02                 [058] (-1)
504C  00                 [059] (-1)
504D  00                 [060] (2)
504E  EC                 [061] (2)
504F  02                 [062] (2)
5050  00                 [063] (2)
5051  00                 [064] (2)
5052  ED                 [065] (2)
5053  02                 [066] (2)
5054  00                 [067] (3)
5055  00                 [068] (4)
5056  F0                 [069] (4)
5057  02                 [070] (4)
5058  00                 [071] (4)
5059  00                 [072] (4)
505A  F0                 [073] (5)
505B  02                 [074] (5)
505C  00                 [075] (5)
505D  00                 [076] (5)
505E  F0                 [077] (5)
505F  02                 [078] (5)
5060  00                 [079] (7)
5061  00                 [080] (7)
5062  F0                 [081] (7)
5063  02                 [082] (7)
5064  00                 [083] (7)
5065  00                 [084] (7)
5066  F3                 [085] (8)
5067  02                 [086] (8)
5068  00                 [087] (8)
5069  00                 [088] (8)
506A  F3                 [089] (8)
506B  02                 [090] (8)
506C  00                 [091] (10)
506D  00                 [092] (10)
506E  F3                 [093] (11)
506F  02                 [094] (11)
5070  00                 [095] (14)
5071  00                 [096] (14)
5072  F3                 [097] (14)
5073  02                 [098] (14)
5074  00                 [099] (14)
5075  00                 [100] (15)
5076  F3                 [101] (15)
5077  02                 [102] (16)
5078  00                 [103] (16)
5079  00                 [104] (16)
507A  F3                 [105] (16)
507B  02                 [106] (16)
507C  00                 [107] (17)
507D  00                 [108] (17)
507E  F3                 [109] (17)
507F  02                 [110] (17)
5080  00                 [111] (17)
5081  00                 [112] (17)
5082  F3                 [113] (17)
5083  02                 [114] (17)
5084  00                 [115] (17)
5085  00                 [116] (17)
5086  F3                 [117] (17)
5087  02                 [118] (21)
5088  00                 [119] (21)
5089  00                 [120] (22)
508A  F3                 [121] (22)
508B  02                 [122] (23)
508C  00                 [123] (23)
508D  00                 [124] (24)
508E  F4                 [125] (24)
508F  02                 [126] (24)
5090  00                 [127] (24)
5091  00                 [128] (24)
5092  F7                 [129] (24)
5093  02                 [130] (26)
5094  00                 [131] (26)
5095  00                 [132] (26)
5096  F7                 [133] (26)
5097  02                 [134] (26)
5098  00                 [135] (27)
5099  00                 [136] (30)
509A  F9                 [137] (30)
509B  02                 [138] (30)
509C  00                 [139] (30)
509D  00                 [140] (30)
509E  F9                 [141] (30)
509F  02                 [142] (31)
50A0  00                 [143] (31)
50A1  00                 [144] (32)
50A2  F9                 [145] (35)
50A3  02                 [146] (35)
50A4  00                 [147] (35)
50A5  00                 [148] (35)
50A6  FA                 [149] (35)
50A7  02                 [150] (36)
50A8  00                 [151] (39)
50A9  00                 [152] (39)
50AA  FA                 [153] (41)
50AB  02                 [154] (42)
50AC  00                 [155] (43)
50AD  00                 [156] (43)
50AE  FA                 [157] (43)
50AF  02                 [158] (43)
50B0  00                 [159] (43)
50B1  00                 [160] (44)
50B2  FB                 [161] (44)
50B3  02                 [162] (44)
50B4  00                 [163] (44)
50B5  00                 [164] (44)
50B6  FB                 [165] (45)
50B7  02                 [166] (45)
50B8  00                 [167] (46)
50B9  00                 [168] (46)
50BA  FB                 [169] (46)
50BB  02                 [170] (46)
50BC  00                 [171] (46)
50BD  00                 [172] (47)
50BE  FB                 [173] (50)
50BF  02                 [174] (50)
50C0  00                 [175] (52)
50C1  00                 [176] (52)
50C2  FB                 [177] (52)
50C3  02                 [178] (52)
50C4  00                 [179] (52)
50C5  00                 [180] (53)
50C6  FB                 [181] (56)
50C7  02                 [182] (57)
50C8  00                 [183] (57)
50C9  00                 [184] (57)
50CA  FB                 [185] (57)
50CB  02                 [186] (57)
50CC  00                 [187] (58)
50CD  00                 [188] (58)
50CE  FB                 [189] (58)
50CF  02                 [190] (59)
50D0  00                 [191] (59)
50D1  00                 [192] (59)
50D2  FD                 [193] (59)
50D3  02                 [194] (59)
50D4  00                 [195] (59)
50D5  00                 [196] (59)
50D6  FD                 [197] (60)
50D7  02                 [198] (60)
50D8  00                 [199] (60)
50D9  00                 [200] (60)
50DA  FD                 [201] (60)
50DB  02                 [202] (61)
50DC  00                 [203] (61)
50DD  00                 [204] (61)
50DE  FD                 [205] (62)
50DF  02                 [206] (62)
50E0  00                 [207] (62)
50E1  00                 [208] (62)
50E2  FD                 [209] (62)
50E3  02                 [210] (62)
50E4  00                 [211] (62)
50E5  00                 [212] (65)
50E6  FE                 [213] (66)
50E7  02                 [214] (66)
50E8  00                 [215] (66)
50E9  00                 [216] (66)
50EA  FE                 [217] (66)
50EB  02                 [218] (68)
50EC  00                 [219] (68)
50ED  00                 [220] (68)
50EE  FF                 [221] (69)
50EF  02                 [222] (69)
50F0  00                 [223] (69)
50F1  00                 [224] (69)
50F2  FF                 [225] (71)
                         * locals:
5396  00                 sizelocvars (0)
                         * upvalues:
5397  00                 sizeupvalues (0)
                         ** end of function **

                         * lines:
5399  01                 sizelineinfo (133)
                         [pc] (line)
539A  09                 [001] (9)
539B  00                 [002] (9)
539C  00                 [003] (9)
539D  00                 [004] (10)
539E  09                 [005] (11)
539F  00                 [006] (11)
53A0  00                 [007] (11)
53A1  00                 [008] (12)
53A2  09                 [009] (12)
53A3  00                 [010] (12)
53A4  00                 [011] (13)
53A5  00                 [012] (13)
53A6  0A                 [013] (13)
53A7  00                 [014] (14)
53A8  00                 [015] (14)
53A9  00                 [016] (14)
53AA  0B                 [017] (15)
53AB  00                 [018] (16)
53AC  00                 [019] (16)
53AD  00                 [020] (16)
53AE  0B                 [021] (18)
53AF  00                 [022] (18)
53B0  00                 [023] (18)
53B1  00                 [024] (20)
53B2  0B                 [025] (21)
53B3  00                 [026] (22)
53B4  00                 [027] (22)
53B5  00                 [028] (22)
53B6  0C                 [029] (22)
53B7  00                 [030] (24)
53B8  00                 [031] (25)
53B9  00                 [032] (26)
53BA  0C                 [033] (27)
53BB  00                 [034] (28)
53BC  00                 [035] (30)
53BD  00                 [036] (88)
53BE  0C                 [037] (88)
53BF  00                 [038] (88)
53C0  00                 [039] (88)
53C1  00                 [040] (88)
53C2  0D                 [041] (88)
53C3  00                 [042] (88)
53C4  00                 [043] (88)
53C5  00                 [044] (104)
53C6  0D                 [045] (104)
53C7  00                 [046] (-125)
53C8  00                 [047] (-125)
53C9  00                 [048] (-105)
53CA  0D                 [049] (-105)
53CB  00                 [050] (-105)
53CC  00                 [051] (-105)
53CD  00                 [052] (-105)
53CE  0E                 [053] (-91)
53CF  00                 [054] (-91)
53D0  00                 [055] (-79)
53D1  00                 [056] (-79)
53D2  0E                 [057] (-44)
53D3  00                 [058] (-44)
53D4  00                 [059] (-44)
53D5  00                 [060] (-44)
53D6  0E                 [061] (-24)
53D7  00                 [062] (-24)
53D8  00                 [063] (-24)
53D9  00                 [064] (-24)
53DA  0F                 [065] (-24)
53DB  00                 [066] (-24)
53DC  00                 [067] (-24)
53DD  00                 [068] (-24)
53DE  10                 [069] (-24)
53DF  00                 [070] (-24)
53E0  00                 [071] (-42)
53E1  00                 [072] (-11)
53E2  10                 [073] (-11)
53E3  00                 [074] (-11)
53E4  00                 [075] (-11)
53E5  00                 [076] (-22)
53E6  10                 [077] (-5)
53E7  00                 [078] (-5)
53E8  00                 [079] (-5)
53E9  00                 [080] (-9)
53EA  12                 [081] (9)
53EB  00                 [082] (9)
53EC  00                 [083] (-3)
53ED  00                 [084] (11)
53EE  12                 [085] (12)
53EF  00                 [086] (13)
53F0  00                 [087] (14)
53F1  00                 [088] (-30)
53F2  12                 [089] (-30)
53F3  00                 [090] (-30)
53F4  00                 [091] (-30)
53F5  00                 [092] (-30)
53F6  14                 [093] (-30)
53F7  00                 [094] (-30)
53F8  00                 [095] (-30)
53F9  00                 [096] (-30)
53FA  15                 [097] (-30)
53FB  00                 [098] (-30)
53FC  00                 [099] (16)
53FD  00                 [100] (-22)
53FE  16                 [101] (17)
53FF  00                 [102] (-80)
5400  00                 [103] (-80)
5401  00                 [104] (-80)
5402  16                 [105] (-80)
5403  00                 [106] (-80)
5404  00                 [107] (-80)
5405  00                 [108] (-80)
5406  16                 [109] (-80)
5407  00                 [110] (-80)
5408  00                 [111] (-80)
5409  00                 [112] (-80)
540A  16                 [113] (-80)
540B  00                 [114] (19)
540C  00                 [115] (-28)
540D  00                 [116] (-28)
540E  18                 [117] (-28)
540F  00                 [118] (-78)
5410  00                 [119] (71)
5411  00                 [120] (71)
5412  19                 [121] (71)
5413  00                 [122] (71)
5414  00                 [123] (71)
5415  00                 [124] (71)
5416  1A                 [125] (71)
5417  00                 [126] (71)
5418  00                 [127] (71)
5419  00                 [128] (71)
541A  1B                 [129] (71)
541B  00                 [130] (71)
541C  00                 [131] (71)
541D  00                 [132] (-26)
541E  1C                 [133] (71)
                         * locals:
55AE  00                 sizelocvars (0)
                         * upvalues:
55AF  00                 sizeupvalues (0)
                         ** end of function **

55B0                     ** end of chunk **
