1	C:\wlua_dump\path\Lotus\Powersuits\PowersuitAbilitiesSpeed.lua
Pos   Hex Data           Description or Code
------------------------------------------------------------------------
0000                     ** source chunk: C:\wlua_dump\path\Lotus\Powersuits\PowersuitAbilitiesSpeed.lua
                         ** global header start **
0000  7F                 header signature: ""
0001  00                 version (major:minor hex digits)
0002  00                 format (0=official)
0003  00                 endianness (1=little endian)
0004  00                 size of int (bytes)
0005  00                 size of size_t (bytes)
0006  02                 size of Instruction (bytes)
0007  18                 size of number (bytes)
0008  A1                 integral (1=integral)
4161
                         * number type: single
                         * x86 standard (32-bit, little endian, doubles)
                         ** global header end **
Lotus.Scripts.Libs.AbilitiesLib
Lotus.Powersuits.PowersuitAbilities.PVPLib
Lotus.Scripts.Effects.EffectsColorUtilities
Lotus.Scripts.Libs.EasingLib
GAME_C1_HIP1
GAME_C1_SPINE2
GAME_C1_SPINE3
GAME_L1_ARM3
GAME_R1_ARM3
GAME_L1_ARM2
GAME_R1_ARM2
/EE/Types/Game/Avatar
/EE/Types/Engine/HitProxy
/EE/Types/Physics/Ragdoll
/EE/Types/Game/PickUp
VOLT_SPEED_WEAPON
VOLT_SPEED_JOG
VOLT_SPEED_RELOAD
GetAbilityUpgradeLevelInfo
GetAugmentDescriptionInfo
InitializeAbility
NpcEvaluateAbility
creator
creatorSuit
baseDuration
baseSpdMul
baseReloadSpeedBuff
augmentStat
DoSpeed
ActivateAbility
DeactivateAbility
GiveSpeed
Zap
EndSpeed
Game
AVATAR_ABILITY_RANGE
AVATAR_ABILITY_DURATION
AVATAR_ABILITY_STRENGTH
Lotus_Game
PowerSuit_AUGMENT_ONE
PowerSuit_AUGMENT_PVP_ONE
Lotus_Game
PowerSuit_AUGMENT_ONE
Game
AVATAR_ABILITY_STRENGTH
PowerSuit_AUGMENT_PVP_ONE
AVATAR_ABILITY_DURATION
_T
AbilityLevelQueryParms
Avatar
Ability
Lotus_Game
PowerSuit_AUGMENT_ONE
Modded
table
Label
/Lotus/Language/Suits/SpeedAbilityAugment1Name
Title
/Lotus/Language/Game/AOE_DAMAGE
Value
ValueIcon
<DT_ELECTRICITY>
PowerSuit_AUGMENT_PVP_ONE
/Lotus/Language/Suits/SpeedAbilityAugment1PvPName
/Lotus/Language/Game/ABILITY_DURATION
ValueUnit
/Lotus/Language/Game/UNIT_SECOND
_T
AbilityLevelQueryParms
Level
Modded
Avatar
table
Label
/Lotus/Language/Game/ABILITY_RADIUS
Value
ValueUnit
/Lotus/Language/Game/UNIT_METER
/Lotus/Language/Game/POWER_DURATION
/Lotus/Language/Game/UNIT_SECOND
/Lotus/Language/Game/SPEED_MULTIPIER
/Lotus/Language/Game/UNIT_MULTIPLIER
/Game/WEAPON_RELOAD_SPEED
/Lotus/Language/Game/UNIT_PERCENT
AbilityUpgradeLevelInfo
Lotus_Game
PowerSuit_AUGMENT_ONE
DAMAGE
PowerSuit_AUGMENT_PVP_ONE
DURATION_INC
cjson
mOwner
gGameRules
x
math
y
z
gRegion
creator
creatorSuit
baseDuration
baseSpdMul
baseReloadSpeedBuff
mOwner
Lotus_Game
PowerSuit_AUGMENT_ONE
augmentStat
PowerSuit_AUGMENT_PVP_ONE
gRegion
_T
voltSpeed
SpeedAmbientBeam
SpeedAttach
EMPTY_SYMBOL
ZERO_VECTOR
ZERO_ROTATION
SpeedSound
bloom
augmentOneElementType
GAME_C1_HIP1
SpeedBurst
instigator
affected
buffType
BT_TIMER
abilityType
buffData
Game
WEAPON_FIRE_RATE
STACKING_MULTIPLY
gLotusMeleeWeaponType
AVATAR_MOVEMENT_SPEED
WEAPON_RELOAD_SPEED
math
ambientBeamEffectType
table
y
Engine
PM_DODGE
BACKWARD
hasLocalBuff
bloomBoost
Lotus_Game
PowerSuit_AUGMENT_PVP_ONE
PowerSuit_AUGMENT_ONE
gRegion
gTennoAvatarType
table
mOwner
GiveSpeed
mOwner
creator
creatorSuit
baseDuration
baseSpdMul
baseReloadSpeedBuff
augmentStat
DoSpeed
gLotusAvatarType
SpeedTrail
                         
0001                     ** function [0] definition (level 1)
                         ** start of function **
0001  00                 string size (0)
                         source name: (none)
0002  00                 line defined (0)
0003  00                 last line defined (0)
0004  00                 nups (0)
0005  00                 numparams (0)
0006  02                 is_vararg (2)
0007  18                 maxstacksize (24)
                         * code:
0009  01                 sizecode (161)
000A  1D000000           [001] getglobal  0   0        ; 849075268
000E  59400000           [002] loadk      1   1        ; "Lotus.Scripts.Libs.AbilitiesLib"
0012  22800001           [003] call       0   2   2  
0016  5D000000           [004] getglobal  1   0        ; 849075268
001A  99800000           [005] loadk      2   2        ; "Lotus.Powersuits.PowersuitAbilities.PVPLib"
001E  62800001           [006] call       1   2   2  
0022  9D000000           [007] getglobal  2   0        ; 849075268
0026  D9C00000           [008] loadk      3   3        ; "Lotus.Scripts.Effects.EffectsColorUtilities"
002A  A2800001           [009] call       2   2   2  
002E  DD000000           [010] getglobal  3   0        ; 849075268
0032  19010100           [011] loadk      4   4        ; "Lotus.Scripts.Libs.EasingLib"
0036  E2800001           [012] call       3   2   2  
003A  0B010003           [013] newtable   4   6   0    ; array=6, hash=0
003E  5D410100           [014] getglobal  5   5        ; -332969190
0042  99810100           [015] loadk      6   6        ; "GAME_C1_HIP1"
0046  62810001           [016] call       5   2   2  
004A  9D410100           [017] getglobal  6   5        ; -332969190
004E  D9C10100           [018] loadk      7   7        ; "GAME_C1_SPINE2"
0052  A2810001           [019] call       6   2   2  
0056  DD410100           [020] getglobal  7   5        ; -332969190
005A  19020200           [021] loadk      8   8        ; "GAME_C1_SPINE3"
005E  E2810001           [022] call       7   2   2  
0062  1D420100           [023] getglobal  8   5        ; -332969190
0066  59420200           [024] loadk      9   9        ; "GAME_L1_ARM3"
006A  22820001           [025] call       8   2   2  
006E  5D420100           [026] getglobal  9   5        ; -332969190
0072  99820200           [027] loadk      10  10       ; "GAME_R1_ARM3"
0076  62820001           [028] call       9   2   2  
007A  9D420100           [029] getglobal  10  5        ; -332969190
007E  D9C20200           [030] loadk      11  11       ; "GAME_L1_ARM2"
0082  A2820001           [031] call       10  2   2  
0086  DD420100           [032] getglobal  11  5        ; -332969190
008A  19030300           [033] loadk      12  12       ; "GAME_R1_ARM2"
008E  E2020001           [034] call       11  2   0  
0092  1B410000           [035] setlist    4   0   1    ; index 1 to top
0096  4B018001           [036] newtable   5   3   0    ; array=3, hash=0
009A  9D410300           [037] getglobal  6   13       ; 738251817
009E  D9810300           [038] loadk      7   14       ; "/EE/Types/Game/Avatar"
00A2  A2810001           [039] call       6   2   2  
00A6  DD410300           [040] getglobal  7   13       ; 738251817
00AA  19C20300           [041] loadk      8   15       ; "/EE/Types/Engine/HitProxy"
00AE  E2810001           [042] call       7   2   2  
00B2  1D420300           [043] getglobal  8   13       ; 738251817
00B6  59020400           [044] loadk      9   16       ; "/EE/Types/Physics/Ragdoll"
00BA  22820001           [045] call       8   2   2  
00BE  5D420300           [046] getglobal  9   13       ; 738251817
00C2  99420400           [047] loadk      10  17       ; "/EE/Types/Game/PickUp"
00C6  62020001           [048] call       9   2   0  
00CA  5B410000           [049] setlist    5   0   1    ; index 1 to top
00CE  9D410100           [050] getglobal  6   5        ; -332969190
00D2  D9810400           [051] loadk      7   18       ; "VOLT_SPEED_WEAPON"
00D6  A2810001           [052] call       6   2   2  
00DA  DD410100           [053] getglobal  7   5        ; -332969190
00DE  19C20400           [054] loadk      8   19       ; "VOLT_SPEED_JOG"
00E2  E2810001           [055] call       7   2   2  
00E6  1D420100           [056] getglobal  8   5        ; -332969190
00EA  59020500           [057] loadk      9   20       ; "VOLT_SPEED_RELOAD"
00EE  22820001           [058] call       8   2   2  
00F2  59420500           [059] loadk      9   21       ; 0
00F6  99820500           [060] loadk      10  22       ; 0
00FA  D9C20500           [061] loadk      11  23       ; 0
00FE  19030600           [062] loadk      12  24       ; 0
0102  59430600           [063] loadk      13  25       ; -102
0106  99830600           [064] loadk      14  26       ; 0
010A  D9430500           [065] loadk      15  21       ; 0
010E  25040000           [066] closure    16  0      
0112  12008000           [067] move       0   1      
0116  12000005           [068] move       0   10     
011A  12008005           [069] move       0   11     
011E  12000006           [070] move       0   12     
0122  12008006           [071] move       0   13     
0126  65440000           [072] closure    17  1      
012A  12000005           [073] move       0   10     
012E  12008005           [074] move       0   11     
0132  12000006           [075] move       0   12     
0136  12008006           [076] move       0   13     
013A  A5840000           [077] closure    18  2      
013E  12000007           [078] move       0   14     
0142  12008007           [079] move       0   15     
0146  E5C40000           [080] closure    19  3      
014A  12000007           [081] move       0   14     
014E  12008007           [082] move       0   15     
0152  25050100           [083] closure    20  4      
0156  12000009           [084] move       0   18     
015A  12000007           [085] move       0   14     
015E  12008009           [086] move       0   19     
0162  12008007           [087] move       0   15     
0166  65450100           [088] closure    21  5      
016A  12000008           [089] move       0   16     
016E  12000005           [090] move       0   10     
0172  12008005           [091] move       0   11     
0176  12000006           [092] move       0   12     
017A  12008006           [093] move       0   13     
017E  12008008           [094] move       0   17     
0182  1200000A           [095] move       0   20     
0186  60C50600           [096] setglobal  21  27       ; GetAbilityUpgradeLevelInfo
018A  60050700           [097] setglobal  21  28       ; 1116007653
018E  65850100           [098] closure    21  6      
0192  12000009           [099] move       0   18     
0196  12000007           [100] move       0   14     
019A  12008007           [101] move       0   15     
019E  60450700           [102] setglobal  21  29       ; GetAugmentDescriptionInfo
01A2  60850700           [103] setglobal  21  30       ; -1230779966
01A6  65C50100           [104] closure    21  7      
01AA  12008000           [105] move       0   1      
01AE  60C50700           [106] setglobal  21  31       ; InitializeAbility
01B2  60050800           [107] setglobal  21  32       ; 1004283918
01B6  65050200           [108] closure    21  8      
01BA  60450800           [109] setglobal  21  33       ; NpcEvaluateAbility
01BE  60850800           [110] setglobal  21  34       ; -319690153
01C2  65450200           [111] closure    21  9      
01C6  12008002           [112] move       0   5      
01CA  8B850100           [113] newtable   22  0   6    ; array=0, hash=6
01CE  8C05C991           [114] settable   22  291 292  ; "creator" nil
01D2  8C05C992           [115] settable   22  293 292  ; "creatorSuit" nil
01D6  8CC54993           [116] settable   22  294 295  ; "baseDuration" 0
01DA  8CC54994           [117] settable   22  296 295  ; "baseSpdMul" 0
01DE  8CC5C994           [118] settable   22  297 295  ; "baseReloadSpeedBuff" 0
01E2  8CC54995           [119] settable   22  298 295  ; "augmentStat" 0
01E6  E5850200           [120] closure    23  10     
01EA  1200000B           [121] move       0   22     
01EE  12008004           [122] move       0   9      
01F2  12000007           [123] move       0   14     
01F6  12008007           [124] move       0   15     
01FA  12000000           [125] move       0   0      
01FE  12008001           [126] move       0   3      
0202  12000003           [127] move       0   6      
0206  12008003           [128] move       0   7      
020A  12000004           [129] move       0   8      
020E  12000001           [130] move       0   2      
0212  12000002           [131] move       0   4      
0216  1200800A           [132] move       0   21     
021A  E0C50A00           [133] setglobal  23  43       ; DoSpeed
021E  E0050B00           [134] setglobal  23  44       ; -1581318583
0222  E5C50200           [135] closure    23  11     
0226  12000008           [136] move       0   16     
022A  12000005           [137] move       0   10     
022E  12008005           [138] move       0   11     
0232  12000006           [139] move       0   12     
0236  12008006           [140] move       0   13     
023A  12008008           [141] move       0   17     
023E  12000009           [142] move       0   18     
0242  12008007           [143] move       0   15     
0246  12008009           [144] move       0   19     
024A  12000007           [145] move       0   14     
024E  E0450B00           [146] setglobal  23  45       ; ActivateAbility
0252  E0850B00           [147] setglobal  23  46       ; -871687712
0256  E5050300           [148] closure    23  12     
025A  E0C50B00           [149] setglobal  23  47       ; DeactivateAbility
025E  E0050C00           [150] setglobal  23  48       ; 33405088
0262  E5450300           [151] closure    23  13     
0266  1200000B           [152] move       0   22     
026A  E0450C00           [153] setglobal  23  49       ; GiveSpeed
026E  E0850C00           [154] setglobal  23  50       ; 1647445141
0272  E5850300           [155] closure    23  14     
0276  E0C50C00           [156] setglobal  23  51       ; Zap
027A  E0050D00           [157] setglobal  23  52       ; -240005968
027E  E5C50300           [158] closure    23  15     
0282  E0450D00           [159] setglobal  23  53       ; EndSpeed
0286  E0850D00           [160] setglobal  23  54       ; -223286264
028A  1E008000           [161] return     0   1      
                         * constants:
028E  37                 sizek (55)
028F  01                 const type 3
0290  44DC9B32           const [0]: (849075268)
0294  04                 const type 4
0295  20                 string size (32)
0296  4C6F7475732E5363+  "Lotus.Sc"
029E  72697074732E4C69+  "ripts.Li"
02A6  62732E4162696C69+  "bs.Abili"
02AE  746965734C696200   "tiesLib\0"
                         const [1]: "Lotus.Scripts.Libs.AbilitiesLib"
02B6  04                 const type 4
02B7  2B                 string size (43)
02B8  4C6F7475732E506F+  "Lotus.Po"
02C0  7765727375697473+  "wersuits"
02C8  2E506F7765727375+  ".Powersu"
02D0  69744162696C6974+  "itAbilit"
02D8  6965732E5056504C+  "ies.PVPL"
02E0  696200             "ib\0"
                         const [2]: "Lotus.Powersuits.PowersuitAbilities.PVPLib"
02E3  04                 const type 4
02E4  2C                 string size (44)
02E5  4C6F7475732E5363+  "Lotus.Sc"
02ED  72697074732E4566+  "ripts.Ef"
02F5  66656374732E4566+  "fects.Ef"
02FD  6665637473436F6C+  "fectsCol"
0305  6F725574696C6974+  "orUtilit"
030D  69657300           "ies\0"
                         const [3]: "Lotus.Scripts.Effects.EffectsColorUtilities"
0311  04                 const type 4
0312  1D                 string size (29)
0313  4C6F7475732E5363+  "Lotus.Sc"
031B  72697074732E4C69+  "ripts.Li"
0323  62732E456173696E+  "bs.Easin"
032B  674C696200         "gLib\0"
                         const [4]: "Lotus.Scripts.Libs.EasingLib"
0330  01                 const type 3
0331  1A4B27EC           const [5]: (-332969190)
0335  04                 const type 4
0336  0D                 string size (13)
0337  47414D455F43315F+  "GAME_C1_"
033F  4849503100         "HIP1\0"
                         const [6]: "GAME_C1_HIP1"
0344  04                 const type 4
0345  0F                 string size (15)
0346  47414D455F43315F+  "GAME_C1_"
034E  5350494E453200     "SPINE2\0"
                         const [7]: "GAME_C1_SPINE2"
0355  04                 const type 4
0356  0F                 string size (15)
0357  47414D455F43315F+  "GAME_C1_"
035F  5350494E453300     "SPINE3\0"
                         const [8]: "GAME_C1_SPINE3"
0366  04                 const type 4
0367  0D                 string size (13)
0368  47414D455F4C315F+  "GAME_L1_"
0370  41524D3300         "ARM3\0"
                         const [9]: "GAME_L1_ARM3"
0375  04                 const type 4
0376  0D                 string size (13)
0377  47414D455F52315F+  "GAME_R1_"
037F  41524D3300         "ARM3\0"
                         const [10]: "GAME_R1_ARM3"
0384  04                 const type 4
0385  0D                 string size (13)
0386  47414D455F4C315F+  "GAME_L1_"
038E  41524D3200         "ARM2\0"
                         const [11]: "GAME_L1_ARM2"
0393  04                 const type 4
0394  0D                 string size (13)
0395  47414D455F52315F+  "GAME_R1_"
039D  41524D3200         "ARM2\0"
                         const [12]: "GAME_R1_ARM2"
03A2  01                 const type 3
03A3  29D4002C           const [13]: (738251817)
03A7  04                 const type 4
03A8  16                 string size (22)
03A9  2F45452F54797065+  "/EE/Type"
03B1  732F47616D652F41+  "s/Game/A"
03B9  766174617200       "vatar\0"
                         const [14]: "/EE/Types/Game/Avatar"
03BF  04                 const type 4
03C0  1A                 string size (26)
03C1  2F45452F54797065+  "/EE/Type"
03C9  732F456E67696E65+  "s/Engine"
03D1  2F48697450726F78+  "/HitProx"
03D9  7900               "y\0"
                         const [15]: "/EE/Types/Engine/HitProxy"
03DB  04                 const type 4
03DC  1A                 string size (26)
03DD  2F45452F54797065+  "/EE/Type"
03E5  732F506879736963+  "s/Physic"
03ED  732F526167646F6C+  "s/Ragdol"
03F5  6C00               "l\0"
                         const [16]: "/EE/Types/Physics/Ragdoll"
03F7  04                 const type 4
03F8  16                 string size (22)
03F9  2F45452F54797065+  "/EE/Type"
0401  732F47616D652F50+  "s/Game/P"
0409  69636B557000       "ickUp\0"
                         const [17]: "/EE/Types/Game/PickUp"
040F  04                 const type 4
0410  12                 string size (18)
0411  564F4C545F535045+  "VOLT_SPE"
0419  45445F574541504F+  "ED_WEAPO"
0421  4E00               "N\0"
                         const [18]: "VOLT_SPEED_WEAPON"
0423  04                 const type 4
0424  0F                 string size (15)
0425  564F4C545F535045+  "VOLT_SPE"
042D  45445F4A4F4700     "ED_JOG\0"
                         const [19]: "VOLT_SPEED_JOG"
0434  04                 const type 4
0435  12                 string size (18)
0436  564F4C545F535045+  "VOLT_SPE"
043E  45445F52454C4F41+  "ED_RELOA"
0446  4400               "D\0"
                         const [20]: "VOLT_SPEED_RELOAD"
0448  03                 const type 3
0449  0000803F           const [21]: (0)
044D  03                 const type 3
044E  00007041           const [22]: (0)
0452  03                 const type 3
0453  00002041           const [23]: (0)
0457  03                 const type 3
0458  0000A041           const [24]: (0)
045C  03                 const type 3
045D  9A99993D           const [25]: (-102)
0461  03                 const type 3
0462  00009642           const [26]: (0)
0466  04                 const type 4
0467  1B                 string size (27)
0468  4765744162696C69+  "GetAbili"
0470  7479557067726164+  "tyUpgrad"
0478  654C6576656C496E+  "eLevelIn"
0480  666F00             "fo\0"
                         const [27]: "GetAbilityUpgradeLevelInfo"
0483  01                 const type 3
0484  E5EC8442           const [28]: (1116007653)
0488  04                 const type 4
0489  1A                 string size (26)
048A  4765744175676D65+  "GetAugme"
0492  6E74446573637269+  "ntDescri"
049A  7074696F6E496E66+  "ptionInf"
04A2  6F00               "o\0"
                         const [29]: "GetAugmentDescriptionInfo"
04A4  01                 const type 3
04A5  C2C9A3B6           const [30]: (-1230779966)
04A9  04                 const type 4
04AA  12                 string size (18)
04AB  496E697469616C69+  "Initiali"
04B3  7A654162696C6974+  "zeAbilit"
04BB  7900               "y\0"
                         const [31]: "InitializeAbility"
04BD  01                 const type 3
04BE  0E28DC3B           const [32]: (1004283918)
04C2  04                 const type 4
04C3  13                 string size (19)
04C4  4E70634576616C75+  "NpcEvalu"
04CC  6174654162696C69+  "ateAbili"
04D4  747900             "ty\0"
                         const [33]: "NpcEvaluateAbility"
04D7  01                 const type 3
04D8  57EAF1EC           const [34]: (-319690153)
04DC  04                 const type 4
04DD  08                 string size (8)
04DE  63726561746F7200   "creator\0"
                         const [35]: "creator"
04E6  00                 const type 0
                         const [36]: nil
04E7  04                 const type 4
04E8  0C                 string size (12)
04E9  63726561746F7253+  "creatorS"
04F1  75697400           "uit\0"
                         const [37]: "creatorSuit"
04F5  04                 const type 4
04F6  0D                 string size (13)
04F7  6261736544757261+  "baseDura"
04FF  74696F6E00         "tion\0"
                         const [38]: "baseDuration"
0504  03                 const type 3
0505  00000000           const [39]: (0)
0509  04                 const type 4
050A  0B                 string size (11)
050B  626173655370644D+  "baseSpdM"
0513  756C00             "ul\0"
                         const [40]: "baseSpdMul"
0516  04                 const type 4
0517  14                 string size (20)
0518  6261736552656C6F+  "baseRelo"
0520  6164537065656442+  "adSpeedB"
0528  75666600           "uff\0"
                         const [41]: "baseReloadSpeedBuff"
052C  04                 const type 4
052D  0C                 string size (12)
052E  6175676D656E7453+  "augmentS"
0536  74617400           "tat\0"
                         const [42]: "augmentStat"
053A  04                 const type 4
053B  08                 string size (8)
053C  446F537065656400   "DoSpeed\0"
                         const [43]: "DoSpeed"
0544  01                 const type 3
0545  49FEBEA1           const [44]: (-1581318583)
0549  04                 const type 4
054A  10                 string size (16)
054B  4163746976617465+  "Activate"
0553  4162696C69747900   "Ability\0"
                         const [45]: "ActivateAbility"
055B  01                 const type 3
055C  E0190BCC           const [46]: (-871687712)
0560  04                 const type 4
0561  12                 string size (18)
0562  4465616374697661+  "Deactiva"
056A  74654162696C6974+  "teAbilit"
0572  7900               "y\0"
                         const [47]: "DeactivateAbility"
0574  01                 const type 3
0575  A0B8FD01           const [48]: (33405088)
0579  04                 const type 4
057A  0A                 string size (10)
057B  4769766553706565+  "GiveSpee"
0583  6400               "d\0"
                         const [49]: "GiveSpeed"
0585  01                 const type 3
0586  95043262           const [50]: (1647445141)
058A  04                 const type 4
058B  04                 string size (4)
058C  5A617000           "Zap\0"
                         const [51]: "Zap"
0590  01                 const type 3
0591  B0CCB1F1           const [52]: (-240005968)
0595  04                 const type 4
0596  09                 string size (9)
0597  456E645370656564+  "EndSpeed"
059F  00                 "\0"
                         const [53]: "EndSpeed"
05A0  01                 const type 3
05A1  08ECB0F2           const [54]: (-223286264)
                         * functions:
05A5  10                 sizep (16)
                         
05A6                     ** function [0] definition (level 2)
                         ** start of function **
05A6  00                 string size (0)
                         source name: (none)
05A7  2A                 line defined (42)
05A8  58                 last line defined (88)
05A9  05                 nups (5)
05AA  01                 numparams (1)
05AB  00                 is_vararg (0)
05AC  02                 maxstacksize (2)
                         * code:
05AD  59                 sizecode (89)
05AE  53000000           [01] getupval   1   0      
05B2  4E00C000           [02] gettable   1   1   256  ; 590154099
05B6  62808000           [03] call       1   1   2  
05BA  58400000           [04] test       1       1    ; to [6] if false
05BE  1A400A80           [05] jmp        42           ; to [48]
fail op	33
05C2  21404000           [06] tforloop   0       257  ; to [8] if exit
05C6  1A000280           [07] jmp        9            ; to [17]
05CA  59800000           [08] loadk      1   2        ; 0
fail op	8
05CE  48008000           [09] setupval   1   1      
05D2  59C00000           [10] loadk      1   3        ; 0
fail op	8
05D6  48000001           [11] setupval   1   2      
05DA  59000100           [12] loadk      1   4        ; -51
fail op	8
05DE  48008001           [13] setupval   1   3      
05E2  59400100           [14] loadk      1   5        ; -102
fail op	8
05E6  48000002           [15] setupval   1   4      
05EA  1AC01180           [16] jmp        72           ; to [89]
fail op	35
05EE  23804100           [17] close      0  
05F2  1A000280           [18] jmp        9            ; to [28]
05F6  59C00100           [19] loadk      1   7        ; 0
fail op	8
05FA  48008000           [20] setupval   1   1      
05FE  59000200           [21] loadk      1   8        ; 0
fail op	8
0602  48000001           [22] setupval   1   2      
0606  59400200           [23] loadk      1   9        ; -102
fail op	8
060A  48008001           [24] setupval   1   3      
060E  59800200           [25] loadk      1   10       ; 0
fail op	8
0612  48000002           [26] setupval   1   4      
0616  1A000F80           [27] jmp        61           ; to [89]
fail op	35
061A  23C04200           [28] close      0  
061E  1A000280           [29] jmp        9            ; to [39]
0622  59000300           [30] loadk      1   12       ; 0
fail op	8
0626  48008000           [31] setupval   1   1      
062A  59400300           [32] loadk      1   13       ; 0
fail op	8
062E  48000001           [33] setupval   1   2      
0632  59800300           [34] loadk      1   14       ; 0
fail op	8
0636  48008001           [35] setupval   1   3      
063A  59400200           [36] loadk      1   9        ; -102
fail op	8
063E  48000002           [37] setupval   1   4      
0642  1A400C80           [38] jmp        50           ; to [89]
0646  59C00300           [39] loadk      1   15       ; 0
fail op	8
064A  48008000           [40] setupval   1   1      
064E  59000400           [41] loadk      1   16       ; 0
fail op	8
0652  48000001           [42] setupval   1   2      
0656  59400400           [43] loadk      1   17       ; 0
fail op	8
065A  48008001           [44] setupval   1   3      
065E  59800400           [45] loadk      1   18       ; 51
fail op	8
0662  48000002           [46] setupval   1   4      
0666  1A000A80           [47] jmp        41           ; to [89]
fail op	33
066A  21404000           [48] tforloop   0       257  ; to [50] if exit
066E  1A000280           [49] jmp        9            ; to [59]
0672  59C00400           [50] loadk      1   19       ; 0
fail op	8
0676  48008000           [51] setupval   1   1      
067A  59800100           [52] loadk      1   6        ; 0
fail op	8
067E  48000001           [53] setupval   1   2      
0682  59400200           [54] loadk      1   9        ; -102
fail op	8
0686  48008001           [55] setupval   1   3      
068A  59400100           [56] loadk      1   5        ; -102
fail op	8
068E  48000002           [57] setupval   1   4      
0692  1A400780           [58] jmp        30           ; to [89]
fail op	35
0696  23804100           [59] close      0  
069A  1A000280           [60] jmp        9            ; to [70]
069E  59C00400           [61] loadk      1   19       ; 0
fail op	8
06A2  48008000           [62] setupval   1   1      
06A6  59C00200           [63] loadk      1   11       ; 0
fail op	8
06AA  48000001           [64] setupval   1   2      
06AE  59000500           [65] loadk      1   20       ; -51
fail op	8
06B2  48008001           [66] setupval   1   3      
06B6  59000100           [67] loadk      1   4        ; -51
fail op	8
06BA  48000002           [68] setupval   1   4      
06BE  1A800480           [69] jmp        19           ; to [89]
fail op	35
06C2  23C04200           [70] close      0  
06C6  1A000280           [71] jmp        9            ; to [81]
06CA  59C00400           [72] loadk      1   19       ; 0
fail op	8
06CE  48008000           [73] setupval   1   1      
06D2  59C00200           [74] loadk      1   11       ; 0
fail op	8
06D6  48000001           [75] setupval   1   2      
06DA  59800300           [76] loadk      1   14       ; 0
fail op	8
06DE  48008001           [77] setupval   1   3      
06E2  59800200           [78] loadk      1   10       ; 0
fail op	8
06E6  48000002           [79] setupval   1   4      
06EA  1AC00180           [80] jmp        8            ; to [89]
06EE  59C00400           [81] loadk      1   19       ; 0
fail op	8
06F2  48008000           [82] setupval   1   1      
06F6  59C00200           [83] loadk      1   11       ; 0
fail op	8
06FA  48000001           [84] setupval   1   2      
06FE  59400500           [85] loadk      1   21       ; 51
fail op	8
0702  48008001           [86] setupval   1   3      
0706  59400200           [87] loadk      1   9        ; -102
fail op	8
070A  48000002           [88] setupval   1   4      
070E  1E008000           [89] return     0   1      
                         * constants:
0712  16                 sizek (22)
0713  01                 const type 3
0714  73092D23           const [0]: (590154099)
0718  03                 const type 3
0719  0000803F           const [1]: (0)
071D  03                 const type 3
071E  00007041           const [2]: (0)
0722  03                 const type 3
0723  0000A040           const [3]: (0)
0727  03                 const type 3
0728  CDCCCC3D           const [4]: (-51)
072C  03                 const type 3
072D  9A99993D           const [5]: (-102)
0731  03                 const type 3
0732  00000040           const [6]: (0)
0736  03                 const type 3
0737  0000A041           const [7]: (0)
073B  03                 const type 3
073C  0000C040           const [8]: (0)
0740  03                 const type 3
0741  9A99193E           const [9]: (-102)
0745  03                 const type 3
0746  0000003E           const [10]: (0)
074A  03                 const type 3
074B  00004040           const [11]: (0)
074F  03                 const type 3
0750  0000B041           const [12]: (0)
0754  03                 const type 3
0755  00000041           const [13]: (0)
0759  03                 const type 3
075A  0000803E           const [14]: (0)
075E  03                 const type 3
075F  0000C841           const [15]: (0)
0763  03                 const type 3
0764  00002041           const [16]: (0)
0768  03                 const type 3
0769  0000003F           const [17]: (0)
076D  03                 const type 3
076E  3333333E           const [18]: (51)
0772  03                 const type 3
0773  00000000           const [19]: (0)
0777  03                 const type 3
0778  CDCC4C3E           const [20]: (-51)
077C  03                 const type 3
077D  3333B33E           const [21]: (51)
                         * functions:
0781  00                 sizep (0)
                         * lines:
0782  59                 sizelineinfo (89)
                         [pc] (line)
0783  2B                 [01] (43)
0784  00                 [02] (43)
0785  00                 [03] (43)
0786  00                 [04] (43)
0787  2B                 [05] (43)
0788  00                 [06] (44)
0789  00                 [07] (44)
078A  00                 [08] (45)
078B  2B                 [09] (45)
078C  00                 [10] (46)
078D  00                 [11] (46)
078E  00                 [12] (47)
078F  2B                 [13] (47)
0790  00                 [14] (48)
0791  00                 [15] (48)
0792  00                 [16] (48)
0793  2B                 [17] (49)
0794  00                 [18] (49)
0795  00                 [19] (50)
0796  00                 [20] (50)
0797  2C                 [21] (51)
0798  00                 [22] (51)
0799  00                 [23] (52)
079A  00                 [24] (52)
079B  2C                 [25] (53)
079C  00                 [26] (53)
079D  00                 [27] (53)
079E  00                 [28] (54)
079F  2D                 [29] (54)
07A0  00                 [30] (55)
07A1  00                 [31] (55)
07A2  00                 [32] (56)
07A3  2D                 [33] (56)
07A4  00                 [34] (57)
07A5  00                 [35] (57)
07A6  00                 [36] (58)
07A7  2E                 [37] (58)
07A8  00                 [38] (58)
07A9  00                 [39] (60)
07AA  00                 [40] (60)
07AB  2E                 [41] (61)
07AC  00                 [42] (61)
07AD  00                 [43] (62)
07AE  00                 [44] (62)
07AF  2F                 [45] (63)
07B0  00                 [46] (63)
07B1  00                 [47] (64)
07B2  00                 [48] (66)
07B3  2F                 [49] (66)
07B4  00                 [50] (67)
07B5  00                 [51] (67)
07B6  00                 [52] (68)
07B7  30                 [53] (68)
07B8  00                 [54] (69)
07B9  00                 [55] (69)
07BA  00                 [56] (70)
07BB  30                 [57] (70)
07BC  00                 [58] (70)
07BD  00                 [59] (71)
07BE  00                 [60] (71)
07BF  30                 [61] (72)
07C0  00                 [62] (72)
07C1  00                 [63] (73)
07C2  00                 [64] (73)
07C3  31                 [65] (74)
07C4  00                 [66] (74)
07C5  00                 [67] (75)
07C6  00                 [68] (75)
07C7  31                 [69] (75)
07C8  00                 [70] (76)
07C9  00                 [71] (76)
07CA  00                 [72] (77)
07CB  32                 [73] (77)
07CC  00                 [74] (78)
07CD  00                 [75] (78)
07CE  00                 [76] (79)
07CF  32                 [77] (79)
07D0  00                 [78] (80)
07D1  00                 [79] (80)
07D2  00                 [80] (80)
07D3  33                 [81] (82)
07D4  00                 [82] (82)
07D5  00                 [83] (83)
07D6  00                 [84] (83)
07D7  33                 [85] (84)
07D8  00                 [86] (84)
07D9  00                 [87] (85)
07DA  00                 [88] (85)
07DB  34                 [89] (88)
                         * locals:
08E7  00                 sizelocvars (0)
                         * upvalues:
08E8  00                 sizeupvalues (0)
                         ** end of function **

                         
08E9                     ** function [1] definition (level 2)
                         ** start of function **
08E9  00                 string size (0)
                         source name: (none)
08EA  5A                 line defined (90)
08EB  6C                 last line defined (108)
08EC  04                 nups (4)
08ED  01                 numparams (1)
08EE  00                 is_vararg (0)
08EF  0D                 maxstacksize (13)
                         * code:
08F0  3C                 sizecode (60)
08F1  53000000           [01] getupval   1   0      
08F5  93008000           [02] getupval   2   1      
08F9  D3000001           [03] getupval   3   2      
08FD  13018001           [04] getupval   4   3      
0901  5D010000           [05] getglobal  5   0        ; 1074689893
0905  92010000           [06] move       6   0      
0909  62810001           [07] call       5   2   2  
090D  58410000           [08] test       5       1    ; to [10] if false
0911  1A000B80           [09] jmp        45           ; to [55]
0915  64414000           [10] self       5   0   257  ; -1917464545
0919  62810001           [11] call       5   2   2  
091D  A481C002           [12] self       6   5   258  ; 1769516121
0921  A2810001           [13] call       6   2   2  
0925  DD010000           [14] getglobal  7   0        ; 1074689893
0929  12020003           [15] move       8   6      
092D  E2810001           [16] call       7   2   2  
0931  D8410000           [17] test       7       1    ; to [19] if false
0935  1AC00880           [18] jmp        36           ; to [55]
0939  E4C1C002           [19] self       7   5   259  ; -940929887
093D  53020000           [20] getupval   9   0      
0941  9D020100           [21] getglobal  10  4        ; Game
0945  8E424105           [22] gettable   10  10  261  ; "AVATAR_ABILITY_RANGE"
0949  E4824103           [23] self       11  6   262  ; -491574171
094D  E2820001           [24] call       11  2   2  
0951  12030003           [25] move       12  6      
0955  E2810003           [26] call       7   6   2  
0959  52008003           [27] move       1   7      
095D  E4C1C002           [28] self       7   5   259  ; -940929887
0961  53028000           [29] getupval   9   1      
0965  9D020100           [30] getglobal  10  4        ; Game
0969  8EC24105           [31] gettable   10  10  263  ; "AVATAR_ABILITY_DURATION"
096D  E4824103           [32] self       11  6   262  ; -491574171
0971  E2820001           [33] call       11  2   2  
0975  12030003           [34] move       12  6      
0979  E2810003           [35] call       7   6   2  
097D  92008003           [36] move       2   7      
0981  E4C1C002           [37] self       7   5   259  ; -940929887
0985  53020001           [38] getupval   9   2      
0989  9D020100           [39] getglobal  10  4        ; Game
098D  8E024205           [40] gettable   10  10  264  ; "AVATAR_ABILITY_STRENGTH"
0991  E4824103           [41] self       11  6   262  ; -491574171
0995  E2820001           [42] call       11  2   2  
0999  12030003           [43] move       12  6      
099D  E2810003           [44] call       7   6   2  
09A1  D2008003           [45] move       3   7      
09A5  E4C1C002           [46] self       7   5   259  ; -940929887
09A9  53028001           [47] getupval   9   3      
09AD  9D020100           [48] getglobal  10  4        ; Game
09B1  8E024205           [49] gettable   10  10  264  ; "AVATAR_ABILITY_STRENGTH"
09B5  E4824103           [50] self       11  6   262  ; -491574171
09B9  E2820001           [51] call       11  2   2  
09BD  12030003           [52] move       12  6      
09C1  E2810003           [53] call       7   6   2  
09C5  12018003           [54] move       4   7      
09C9  D2018000           [55] move       7   1      
09CD  12020001           [56] move       8   2      
09D1  52028001           [57] move       9   3      
09D5  92020002           [58] move       10  4      
09D9  DE018002           [59] return     7   5      
09DD  1E008000           [60] return     0   1      
                         * constants:
09E1  09                 sizek (9)
09E2  01                 const type 3
09E3  65770E40           const [0]: (1074689893)
09E7  01                 const type 3
09E8  1FD0B58D           const [1]: (-1917464545)
09EC  01                 const type 3
09ED  59AC7869           const [2]: (1769516121)
09F1  01                 const type 3
09F2  A18CEAC7           const [3]: (-940929887)
09F6  04                 const type 4
09F7  05                 string size (5)
09F8  47616D6500         "Game\0"
                         const [4]: "Game"
09FD  04                 const type 4
09FE  15                 string size (21)
09FF  4156415441525F41+  "AVATAR_A"
0A07  42494C4954595F52+  "BILITY_R"
0A0F  414E474500         "ANGE\0"
                         const [5]: "AVATAR_ABILITY_RANGE"
0A14  01                 const type 3
0A15  652CB3E2           const [6]: (-491574171)
0A19  04                 const type 4
0A1A  18                 string size (24)
0A1B  4156415441525F41+  "AVATAR_A"
0A23  42494C4954595F44+  "BILITY_D"
0A2B  55524154494F4E00   "URATION\0"
                         const [7]: "AVATAR_ABILITY_DURATION"
0A33  04                 const type 4
0A34  18                 string size (24)
0A35  4156415441525F41+  "AVATAR_A"
0A3D  42494C4954595F53+  "BILITY_S"
0A45  5452454E47544800   "TRENGTH\0"
                         const [8]: "AVATAR_ABILITY_STRENGTH"
                         * functions:
0A4D  00                 sizep (0)
                         * lines:
0A4E  3C                 sizelineinfo (60)
                         [pc] (line)
0A4F  5B                 [01] (91)
0A50  00                 [02] (92)
0A51  00                 [03] (93)
0A52  00                 [04] (94)
0A53  5C                 [05] (96)
0A54  00                 [06] (96)
0A55  00                 [07] (96)
0A56  00                 [08] (96)
0A57  5D                 [09] (96)
0A58  00                 [10] (97)
0A59  00                 [11] (97)
0A5A  00                 [12] (98)
0A5B  5E                 [13] (98)
0A5C  00                 [14] (99)
0A5D  00                 [15] (99)
0A5E  00                 [16] (99)
0A5F  60                 [17] (99)
0A60  00                 [18] (99)
0A61  00                 [19] (100)
0A62  00                 [20] (100)
0A63  60                 [21] (100)
0A64  00                 [22] (100)
0A65  00                 [23] (100)
0A66  00                 [24] (100)
0A67  60                 [25] (100)
0A68  00                 [26] (100)
0A69  00                 [27] (100)
0A6A  00                 [28] (101)
0A6B  60                 [29] (101)
0A6C  00                 [30] (101)
0A6D  00                 [31] (101)
0A6E  00                 [32] (101)
0A6F  60                 [33] (101)
0A70  00                 [34] (101)
0A71  00                 [35] (101)
0A72  00                 [36] (101)
0A73  61                 [37] (102)
0A74  00                 [38] (102)
0A75  00                 [39] (102)
0A76  00                 [40] (102)
0A77  61                 [41] (102)
0A78  00                 [42] (102)
0A79  00                 [43] (102)
0A7A  00                 [44] (102)
0A7B  62                 [45] (102)
0A7C  00                 [46] (103)
0A7D  00                 [47] (103)
0A7E  00                 [48] (103)
0A7F  62                 [49] (103)
0A80  00                 [50] (103)
0A81  00                 [51] (103)
0A82  00                 [52] (103)
0A83  63                 [53] (103)
0A84  00                 [54] (103)
0A85  00                 [55] (107)
0A86  00                 [56] (107)
0A87  63                 [57] (107)
0A88  00                 [58] (107)
0A89  00                 [59] (107)
0A8A  00                 [60] (108)
                         * locals:
0B3F  00                 sizelocvars (0)
                         * upvalues:
0B40  00                 sizeupvalues (0)
                         ** end of function **

                         
0B41                     ** function [2] definition (level 2)
                         ** start of function **
0B41  00                 string size (0)
                         source name: (none)
0B42  6E                 line defined (110)
0B43  84                 last line defined (132)
0B44  01                 nups (2)
0B45  02                 numparams (2)
0B46  02                 is_vararg (0)
0B47  00                 maxstacksize (3)
                         * code:
0B49  2C                 sizecode (44)
0B4A  9D000000           [01] getglobal  2   0        ; Lotus_Game
0B4E  8E404001           [02] gettable   2   2   257  ; "PowerSuit_AUGMENT_ONE"
fail op	35
0B52  23808000           [03] close      0  
0B56  1A400480           [04] jmp        18           ; to [23]
fail op	35
0B5A  23804000           [05] close      0  
0B5E  1A800080           [06] jmp        3            ; to [10]
0B62  99C00000           [07] loadk      2   3        ; 0
fail op	8
0B66  88000000           [08] setupval   2   0      
0B6A  1A400880           [09] jmp        34           ; to [44]
fail op	35
0B6E  23004100           [10] close      0  
0B72  1A800080           [11] jmp        3            ; to [15]
0B76  99400100           [12] loadk      2   5        ; 0
fail op	8
0B7A  88000000           [13] setupval   2   0      
0B7E  1A000780           [14] jmp        29           ; to [44]
fail op	35
0B82  23804100           [15] close      0  
0B86  1A800080           [16] jmp        3            ; to [20]
0B8A  99C00100           [17] loadk      2   7        ; 0
fail op	8
0B8E  88000000           [18] setupval   2   0      
0B92  1AC00580           [19] jmp        24           ; to [44]
0B96  99000200           [20] loadk      2   8        ; 0
fail op	8
0B9A  88000000           [21] setupval   2   0      
0B9E  1A000580           [22] jmp        21           ; to [44]
0BA2  9D000000           [23] getglobal  2   0        ; Lotus_Game
0BA6  8E404201           [24] gettable   2   2   265  ; "PowerSuit_AUGMENT_PVP_ONE"
fail op	35
0BAA  23808000           [25] close      0  
0BAE  1A000480           [26] jmp        17           ; to [44]
fail op	35
0BB2  23804000           [27] close      0  
0BB6  1A800080           [28] jmp        3            ; to [32]
0BBA  99800000           [29] loadk      2   2        ; 0
fail op	8
0BBE  88008000           [30] setupval   2   1      
0BC2  1AC00280           [31] jmp        12           ; to [44]
fail op	35
0BC6  23004100           [32] close      0  
0BCA  1A800080           [33] jmp        3            ; to [37]
0BCE  99000100           [34] loadk      2   4        ; 0
fail op	8
0BD2  88008000           [35] setupval   2   1      
0BD6  1A800180           [36] jmp        7            ; to [44]
fail op	35
0BDA  23804100           [37] close      0  
0BDE  1A800080           [38] jmp        3            ; to [42]
0BE2  99800100           [39] loadk      2   6        ; 0
fail op	8
0BE6  88008000           [40] setupval   2   1      
0BEA  1A400080           [41] jmp        2            ; to [44]
0BEE  99800200           [42] loadk      2   10       ; 0
fail op	8
0BF2  88008000           [43] setupval   2   1      
0BF6  1E008000           [44] return     0   1      
                         * constants:
0BFA  0B                 sizek (11)
0BFB  04                 const type 4
0BFC  0B                 string size (11)
0BFD  4C6F7475735F4761+  "Lotus_Ga"
0C05  6D6500             "me\0"
                         const [0]: "Lotus_Game"
0C08  04                 const type 4
0C09  16                 string size (22)
0C0A  506F776572537569+  "PowerSui"
0C12  745F4155474D454E+  "t_AUGMEN"
0C1A  545F4F4E4500       "T_ONE\0"
                         const [1]: "PowerSuit_AUGMENT_ONE"
0C20  03                 const type 3
0C21  0000803F           const [2]: (0)
0C25  03                 const type 3
0C26  00009642           const [3]: (0)
0C2A  03                 const type 3
0C2B  00000040           const [4]: (0)
0C2F  03                 const type 3
0C30  0000C842           const [5]: (0)
0C34  03                 const type 3
0C35  00004040           const [6]: (0)
0C39  03                 const type 3
0C3A  0000FA42           const [7]: (0)
0C3E  03                 const type 3
0C3F  00002F43           const [8]: (0)
0C43  04                 const type 4
0C44  1A                 string size (26)
0C45  506F776572537569+  "PowerSui"
0C4D  745F4155474D454E+  "t_AUGMEN"
0C55  545F5056505F4F4E+  "T_PVP_ON"
0C5D  4500               "E\0"
                         const [9]: "PowerSuit_AUGMENT_PVP_ONE"
0C5F  03                 const type 3
0C60  00008040           const [10]: (0)
                         * functions:
0C64  00                 sizep (0)
                         * lines:
0C65  2C                 sizelineinfo (44)
                         [pc] (line)
0C66  6F                 [01] (111)
0C67  00                 [02] (111)
0C68  00                 [03] (111)
0C69  00                 [04] (111)
0C6A  6F                 [05] (112)
0C6B  00                 [06] (112)
0C6C  00                 [07] (113)
0C6D  00                 [08] (113)
0C6E  6F                 [09] (113)
0C6F  00                 [10] (114)
0C70  00                 [11] (114)
0C71  00                 [12] (115)
0C72  6F                 [13] (115)
0C73  00                 [14] (115)
0C74  00                 [15] (116)
0C75  00                 [16] (116)
0C76  70                 [17] (117)
0C77  00                 [18] (117)
0C78  00                 [19] (117)
0C79  00                 [20] (119)
0C7A  70                 [21] (119)
0C7B  00                 [22] (120)
0C7C  00                 [23] (121)
0C7D  00                 [24] (121)
0C7E  71                 [25] (121)
0C7F  00                 [26] (121)
0C80  00                 [27] (122)
0C81  00                 [28] (122)
0C82  71                 [29] (123)
0C83  00                 [30] (123)
0C84  00                 [31] (123)
0C85  00                 [32] (124)
0C86  71                 [33] (124)
0C87  00                 [34] (125)
0C88  00                 [35] (125)
0C89  00                 [36] (125)
0C8A  72                 [37] (126)
0C8B  00                 [38] (126)
0C8C  00                 [39] (127)
0C8D  00                 [40] (127)
0C8E  72                 [41] (127)
0C8F  00                 [42] (-127)
0C90  00                 [43] (-127)
0C91  00                 [44] (-124)
                         * locals:
0D16  00                 sizelocvars (0)
                         * upvalues:
0D17  00                 sizeupvalues (0)
                         ** end of function **

                         
0D18                     ** function [3] definition (level 2)
                         ** start of function **
0D18  00                 string size (0)
                         source name: (none)
0D1A  01                 line defined (134)
0D1B  92                 last line defined (146)
0D1C  01                 nups (2)
0D1D  02                 numparams (2)
0D1E  02                 is_vararg (0)
0D1F  00                 maxstacksize (11)
                         * code:
0D21  22                 sizecode (34)
0D22  A4004000           [01] self       2   0   256  ; -1917464545
0D26  A2800001           [02] call       2   2   2  
0D2A  E4404001           [03] self       3   2   257  ; 1769516121
0D2E  E2800001           [04] call       3   2   2  
0D32  2481C001           [05] self       4   3   258  ; -491574171
0D36  22810001           [06] call       4   2   2  
0D3A  5DC10000           [07] getglobal  5   3        ; Lotus_Game
0D3E  4E01C102           [08] gettable   5   5   260  ; "PowerSuit_AUGMENT_ONE"
fail op	35
0D42  23408100           [09] close      0  
0D46  1A000280           [10] jmp        9            ; to [20]
0D4A  64414101           [11] self       5   2   261  ; -940929887
0D4E  D3010000           [12] getupval   7   0      
0D52  1D820100           [13] getglobal  8   6        ; Game
0D56  0EC24104           [14] gettable   8   8   263  ; "AVATAR_ABILITY_STRENGTH"
0D5A  52020002           [15] move       9   4      
0D5E  92028001           [16] move       10  3      
0D62  47010003           [17] tailcall   5   6   0  
0D66  5E010000           [18] return     5   0      
0D6A  1AC00280           [19] jmp        12           ; to [32]
0D6E  5DC10000           [20] getglobal  5   3        ; Lotus_Game
0D72  4E01C202           [21] gettable   5   5   264  ; "PowerSuit_AUGMENT_PVP_ONE"
fail op	35
0D76  23408100           [22] close      0  
0D7A  1AC00180           [23] jmp        8            ; to [32]
0D7E  64414101           [24] self       5   2   261  ; -940929887
0D82  D3018000           [25] getupval   7   1      
0D86  1D820100           [26] getglobal  8   6        ; Game
0D8A  0E424204           [27] gettable   8   8   265  ; "AVATAR_ABILITY_DURATION"
0D8E  52020002           [28] move       9   4      
0D92  92028001           [29] move       10  3      
0D96  47010003           [30] tailcall   5   6   0  
0D9A  5E010000           [31] return     5   0      
0D9E  46018002           [32] loadnil    5   5      
0DA2  5E010001           [33] return     5   2      
0DA6  1E008000           [34] return     0   1      
                         * constants:
0DAA  0A                 sizek (10)
0DAB  01                 const type 3
0DAC  1FD0B58D           const [0]: (-1917464545)
0DB0  01                 const type 3
0DB1  59AC7869           const [1]: (1769516121)
0DB5  01                 const type 3
0DB6  652CB3E2           const [2]: (-491574171)
0DBA  04                 const type 4
0DBB  0B                 string size (11)
0DBC  4C6F7475735F4761+  "Lotus_Ga"
0DC4  6D6500             "me\0"
                         const [3]: "Lotus_Game"
0DC7  04                 const type 4
0DC8  16                 string size (22)
0DC9  506F776572537569+  "PowerSui"
0DD1  745F4155474D454E+  "t_AUGMEN"
0DD9  545F4F4E4500       "T_ONE\0"
                         const [4]: "PowerSuit_AUGMENT_ONE"
0DDF  01                 const type 3
0DE0  A18CEAC7           const [5]: (-940929887)
0DE4  04                 const type 4
0DE5  05                 string size (5)
0DE6  47616D6500         "Game\0"
                         const [6]: "Game"
0DEB  04                 const type 4
0DEC  18                 string size (24)
0DED  4156415441525F41+  "AVATAR_A"
0DF5  42494C4954595F53+  "BILITY_S"
0DFD  5452454E47544800   "TRENGTH\0"
                         const [7]: "AVATAR_ABILITY_STRENGTH"
0E05  04                 const type 4
0E06  1A                 string size (26)
0E07  506F776572537569+  "PowerSui"
0E0F  745F4155474D454E+  "t_AUGMEN"
0E17  545F5056505F4F4E+  "T_PVP_ON"
0E1F  4500               "E\0"
                         const [8]: "PowerSuit_AUGMENT_PVP_ONE"
0E21  04                 const type 4
0E22  18                 string size (24)
0E23  4156415441525F41+  "AVATAR_A"
0E2B  42494C4954595F44+  "BILITY_D"
0E33  55524154494F4E00   "URATION\0"
                         const [9]: "AVATAR_ABILITY_DURATION"
                         * functions:
0E3B  00                 sizep (0)
                         * lines:
0E3C  22                 sizelineinfo (34)
                         [pc] (line)
0E3D  87                 [01] (-121)
0E3E  00                 [02] (-121)
0E3F  00                 [03] (-120)
0E40  00                 [04] (-120)
0E41  87                 [05] (-119)
0E42  00                 [06] (-119)
0E43  00                 [07] (-117)
0E44  00                 [08] (-117)
0E45  88                 [09] (-117)
0E46  00                 [10] (-117)
0E47  00                 [11] (-116)
0E48  00                 [12] (-116)
0E49  88                 [13] (-116)
0E4A  00                 [14] (-116)
0E4B  00                 [15] (-116)
0E4C  00                 [16] (-116)
0E4D  89                 [17] (-116)
0E4E  00                 [18] (-116)
0E4F  00                 [19] (-116)
0E50  00                 [20] (-115)
0E51  89                 [21] (-115)
0E52  00                 [22] (-115)
0E53  00                 [23] (-115)
0E54  00                 [24] (-114)
0E55  8B                 [25] (-114)
0E56  00                 [26] (-114)
0E57  00                 [27] (-114)
0E58  00                 [28] (-114)
0E59  8B                 [29] (-114)
0E5A  00                 [30] (-114)
0E5B  00                 [31] (-114)
0E5C  00                 [32] (-111)
0E5D  8B                 [33] (-111)
0E5E  00                 [34] (-110)
                         * locals:
0EC5  00                 sizelocvars (0)
                         * upvalues:
0EC6  00                 sizeupvalues (0)
                         ** end of function **

                         
0EC7                     ** function [4] definition (level 2)
                         ** start of function **
0EC7  00                 string size (0)
                         source name: (none)
0EC9  01                 line defined (148)
0ECA  BC                 last line defined (188)
0ECB  01                 nups (4)
0ECC  04                 numparams (1)
0ECD  01                 is_vararg (0)
0ECE  00                 maxstacksize (11)
                         * code:
0ED0  68                 sizecode (104)
0ED1  5D000000           [001] getglobal  1   0        ; _T
0ED5  4E40C000           [002] gettable   1   1   257  ; "AbilityLevelQueryParms"
0ED9  4E80C000           [003] gettable   1   1   258  ; "Avatar"
0EDD  9DC00000           [004] getglobal  2   3        ; 1074689893
0EE1  D2008000           [005] move       3   1      
0EE5  A2800001           [006] call       2   2   2  
0EE9  98000000           [007] test       2       0    ; to [9] if true
0EED  1A000080           [008] jmp        1            ; to [10]
0EF1  1E008000           [009] return     0   1      
0EF5  A400C100           [010] self       2   1   260  ; -1917464545
0EF9  A2800001           [011] call       2   2   2  
0EFD  E4404101           [012] self       3   2   261  ; 1769516121
0F01  E2800001           [013] call       3   2   2  
0F05  1DC10000           [014] getglobal  4   3        ; 1074689893
0F09  52018001           [015] move       5   3      
0F0D  22810001           [016] call       4   2   2  
0F11  18010000           [017] test       4       0    ; to [19] if true
0F15  1A000080           [018] jmp        1            ; to [20]
0F19  1E008000           [019] return     0   1      
0F1D  2481C101           [020] self       4   3   262  ; 1789415806
0F21  9D010000           [021] getglobal  6   0        ; _T
0F25  8E414003           [022] gettable   6   6   257  ; "AbilityLevelQueryParms"
0F29  8EC14103           [023] gettable   6   6   263  ; "Ability"
0F2D  22818001           [024] call       4   3   2  
0F31  6401C201           [025] self       5   3   264  ; 1126214973
0F35  62810001           [026] call       5   2   2  
fail op	33
0F39  21008102           [027] tforloop   0       4    ; to [29] if exit
0F3D  1A000080           [028] jmp        1            ; to [30]
0F41  1E008000           [029] return     0   1      
0F45  6441C201           [030] self       5   3   265  ; -40827644
0F49  D2010002           [031] move       7   4      
0F4D  62818001           [032] call       5   3   2  
fail op	33
0F51  2180C202           [033] tforloop   0       266  ; to [35] if exit
0F55  1A000080           [034] jmp        1            ; to [36]
0F59  1E008000           [035] return     0   1      
0F5D  A4C1C201           [036] self       6   3   267  ; 1183093143
0F61  12020002           [037] move       8   4      
0F65  A2818001           [038] call       6   3   2  
0F69  D3010000           [039] getupval   7   0      
0F6D  12028002           [040] move       8   5      
0F71  52020003           [041] move       9   6      
0F75  E2418001           [042] call       7   3   1  
0F79  DD010300           [043] getglobal  7   12       ; Lotus_Game
0F7D  CE41C303           [044] gettable   7   7   269  ; "PowerSuit_AUGMENT_ONE"
fail op	35
0F81  23C00103           [045] close      0  
0F85  1A800680           [046] jmp        27           ; to [74]
0F89  DD010000           [047] getglobal  7   0        ; _T
0F8D  CE41C003           [048] gettable   7   7   257  ; "AbilityLevelQueryParms"
0F91  CE81C303           [049] gettable   7   7   270  ; "Modded"
0F95  D8010000           [050] test       7       0    ; to [52] if true
0F99  1A000180           [051] jmp        5            ; to [57]
0F9D  D3010001           [052] getupval   7   2      
0FA1  12028000           [053] move       8   1      
0FA5  52020003           [054] move       9   6      
0FA9  E2818001           [055] call       7   3   2  
fail op	8
0FAD  C8018000           [056] setupval   7   1      
0FB1  DDC10300           [057] getglobal  7   15       ; table
0FB5  CE01C403           [058] gettable   7   7   272  ; -431682403
0FB9  12020000           [059] move       8   0      
0FBD  4B820000           [060] newtable   9   0   2    ; array=0, hash=2
0FC1  4C82C488           [061] settable   9   273 274  ; "Label" "/Lotus/Language/Suits/SpeedAbilityAugment1Name"
0FC5  4C02C589           [062] settable   9   275 276  ; "Title" 1
0FC9  E2418001           [063] call       7   3   1  
0FCD  DDC10300           [064] getglobal  7   15       ; table
0FD1  CE01C403           [065] gettable   7   7   272  ; -431682403
0FD5  12020000           [066] move       8   0      
0FD9  4BC20000           [067] newtable   9   0   3    ; array=0, hash=3
0FDD  4C42C588           [068] settable   9   273 277  ; "Label" "/Lotus/Language/Game/AOE_DAMAGE"
0FE1  93028000           [069] getupval   10  1      
0FE5  4C82028B           [070] settable   9   278 10   ; "Value"
0FE9  4C02C68B           [071] settable   9   279 280  ; "ValueIcon" "<DT_ELECTRICITY>"
0FED  E2418001           [072] call       7   3   1  
0FF1  1A400780           [073] jmp        30           ; to [104]
0FF5  DD010300           [074] getglobal  7   12       ; Lotus_Game
0FF9  CE41C603           [075] gettable   7   7   281  ; "PowerSuit_AUGMENT_PVP_ONE"
fail op	35
0FFD  23C00103           [076] close      0  
1001  1A400680           [077] jmp        26           ; to [104]
1005  DD010000           [078] getglobal  7   0        ; _T
1009  CE41C003           [079] gettable   7   7   257  ; "AbilityLevelQueryParms"
100D  CE81C303           [080] gettable   7   7   270  ; "Modded"
1011  D8010000           [081] test       7       0    ; to [83] if true
1015  1A000180           [082] jmp        5            ; to [88]
1019  D3010001           [083] getupval   7   2      
101D  12028000           [084] move       8   1      
1021  52020003           [085] move       9   6      
1025  E2818001           [086] call       7   3   2  
fail op	8
1029  C8018001           [087] setupval   7   3      
102D  DDC10300           [088] getglobal  7   15       ; table
1031  CE01C403           [089] gettable   7   7   272  ; -431682403
1035  12020000           [090] move       8   0      
1039  4B820000           [091] newtable   9   0   2    ; array=0, hash=2
103D  4C82C688           [092] settable   9   273 282  ; "Label" "/Lotus/Language/Suits/SpeedAbilityAugment1PvPName"
1041  4C02C589           [093] settable   9   275 276  ; "Title" 1
1045  E2418001           [094] call       7   3   1  
1049  DDC10300           [095] getglobal  7   15       ; table
104D  CE01C403           [096] gettable   7   7   272  ; -431682403
1051  12020000           [097] move       8   0      
1055  4BC20000           [098] newtable   9   0   3    ; array=0, hash=3
1059  4CC2C688           [099] settable   9   273 283  ; "Label" "/Lotus/Language/Game/ABILITY_DURATION"
105D  93028001           [100] getupval   10  3      
1061  4C82028B           [101] settable   9   278 10   ; "Value"
1065  4C42478E           [102] settable   9   284 285  ; "ValueUnit" "/Lotus/Language/Game/UNIT_SECOND"
1069  E2418001           [103] call       7   3   1  
106D  1E008000           [104] return     0   1      
                         * constants:
1071  1E                 sizek (30)
1072  04                 const type 4
1073  03                 string size (3)
1074  5F5400             "_T\0"
                         const [0]: "_T"
1077  04                 const type 4
1078  17                 string size (23)
1079  4162696C6974794C+  "AbilityL"
1081  6576656C51756572+  "evelQuer"
1089  795061726D7300     "yParms\0"
                         const [1]: "AbilityLevelQueryParms"
1090  04                 const type 4
1091  07                 string size (7)
1092  41766174617200     "Avatar\0"
                         const [2]: "Avatar"
1099  01                 const type 3
109A  65770E40           const [3]: (1074689893)
109E  01                 const type 3
109F  1FD0B58D           const [4]: (-1917464545)
10A3  01                 const type 3
10A4  59AC7869           const [5]: (1769516121)
10A8  01                 const type 3
10A9  7E51A86A           const [6]: (1789415806)
10AD  04                 const type 4
10AE  08                 string size (8)
10AF  4162696C69747900   "Ability\0"
                         const [7]: "Ability"
10B7  01                 const type 3
10B8  3DAD2043           const [8]: (1126214973)
10BC  01                 const type 3
10BD  040591FD           const [9]: (-40827644)
10C1  03                 const type 3
10C2  00000000           const [10]: (0)
10C6  01                 const type 3
10C7  97918446           const [11]: (1183093143)
10CB  04                 const type 4
10CC  0B                 string size (11)
10CD  4C6F7475735F4761+  "Lotus_Ga"
10D5  6D6500             "me\0"
                         const [12]: "Lotus_Game"
10D8  04                 const type 4
10D9  16                 string size (22)
10DA  506F776572537569+  "PowerSui"
10E2  745F4155474D454E+  "t_AUGMEN"
10EA  545F4F4E4500       "T_ONE\0"
                         const [13]: "PowerSuit_AUGMENT_ONE"
10F0  04                 const type 4
10F1  07                 string size (7)
10F2  4D6F6464656400     "Modded\0"
                         const [14]: "Modded"
10F9  04                 const type 4
10FA  06                 string size (6)
10FB  7461626C6500       "table\0"
                         const [15]: "table"
1101  01                 const type 3
1102  9D0C45E6           const [16]: (-431682403)
1106  04                 const type 4
1107  06                 string size (6)
1108  4C6162656C00       "Label\0"
                         const [17]: "Label"
110E  04                 const type 4
110F  2F                 string size (47)
1110  2F4C6F7475732F4C+  "/Lotus/L"
1118  616E67756167652F+  "anguage/"
1120  53756974732F5370+  "Suits/Sp"
1128  6565644162696C69+  "eedAbili"
1130  74794175676D656E+  "tyAugmen"
1138  74314E616D6500     "t1Name\0"
                         const [18]: "/Lotus/Language/Suits/SpeedAbilityAugment1Name"
113F  04                 const type 4
1140  06                 string size (6)
1141  5469746C6500       "Title\0"
                         const [19]: "Title"
1147  01                 const type 3
1148  01000000           const [20]: (1)
114C  04                 const type 4
114D  20                 string size (32)
114E  2F4C6F7475732F4C+  "/Lotus/L"
1156  616E67756167652F+  "anguage/"
115E  47616D652F414F45+  "Game/AOE"
1166  5F44414D41474500   "_DAMAGE\0"
                         const [21]: "/Lotus/Language/Game/AOE_DAMAGE"
116E  04                 const type 4
116F  06                 string size (6)
1170  56616C756500       "Value\0"
                         const [22]: "Value"
1176  04                 const type 4
1177  0A                 string size (10)
1178  56616C756549636F+  "ValueIco"
1180  6E00               "n\0"
                         const [23]: "ValueIcon"
1182  04                 const type 4
1183  11                 string size (17)
1184  3C44545F454C4543+  "<DT_ELEC"
118C  545249434954593E+  "TRICITY>"
1194  00                 "\0"
                         const [24]: "<DT_ELECTRICITY>"
1195  04                 const type 4
1196  1A                 string size (26)
1197  506F776572537569+  "PowerSui"
119F  745F4155474D454E+  "t_AUGMEN"
11A7  545F5056505F4F4E+  "T_PVP_ON"
11AF  4500               "E\0"
                         const [25]: "PowerSuit_AUGMENT_PVP_ONE"
11B1  04                 const type 4
11B2  32                 string size (50)
11B3  2F4C6F7475732F4C+  "/Lotus/L"
11BB  616E67756167652F+  "anguage/"
11C3  53756974732F5370+  "Suits/Sp"
11CB  6565644162696C69+  "eedAbili"
11D3  74794175676D656E+  "tyAugmen"
11DB  74315076504E616D+  "t1PvPNam"
11E3  6500               "e\0"
                         const [26]: "/Lotus/Language/Suits/SpeedAbilityAugment1PvPName"
11E5  04                 const type 4
11E6  26                 string size (38)
11E7  2F4C6F7475732F4C+  "/Lotus/L"
11EF  616E67756167652F+  "anguage/"
11F7  47616D652F414249+  "Game/ABI"
11FF  4C4954595F445552+  "LITY_DUR"
1207  4154494F4E00       "ATION\0"
                         const [27]: "/Lotus/Language/Game/ABILITY_DURATION"
120D  04                 const type 4
120E  0A                 string size (10)
120F  56616C7565556E69+  "ValueUni"
1217  7400               "t\0"
                         const [28]: "ValueUnit"
1219  04                 const type 4
121A  21                 string size (33)
121B  2F4C6F7475732F4C+  "/Lotus/L"
1223  616E67756167652F+  "anguage/"
122B  47616D652F554E49+  "Game/UNI"
1233  545F5345434F4E44+  "T_SECOND"
123B  00                 "\0"
                         const [29]: "/Lotus/Language/Game/UNIT_SECOND"
                         * functions:
123C  00                 sizep (0)
                         * lines:
123D  68                 sizelineinfo (104)
                         [pc] (line)
123E  95                 [001] (-107)
123F  00                 [002] (-107)
1240  00                 [003] (-107)
1241  00                 [004] (-106)
1242  95                 [005] (-106)
1243  00                 [006] (-106)
1244  00                 [007] (-106)
1245  00                 [008] (-106)
1246  95                 [009] (-105)
1247  00                 [010] (-102)
1248  00                 [011] (-102)
1249  00                 [012] (-101)
124A  96                 [013] (-101)
124B  00                 [014] (-100)
124C  00                 [015] (-100)
124D  00                 [016] (-100)
124E  96                 [017] (-100)
124F  00                 [018] (-100)
1250  00                 [019] (-99)
1251  00                 [020] (-96)
1252  96                 [021] (-96)
1253  00                 [022] (-96)
1254  00                 [023] (-96)
1255  00                 [024] (-96)
1256  96                 [025] (-95)
1257  00                 [026] (-95)
1258  00                 [027] (-95)
1259  00                 [028] (-95)
125A  96                 [029] (-94)
125B  00                 [030] (-91)
125C  00                 [031] (-91)
125D  00                 [032] (-91)
125E  97                 [033] (-90)
125F  00                 [034] (-90)
1260  00                 [035] (-89)
1261  00                 [036] (-86)
1262  9A                 [037] (-86)
1263  00                 [038] (-86)
1264  00                 [039] (-85)
1265  00                 [040] (-85)
1266  9A                 [041] (-85)
1267  00                 [042] (-85)
1268  00                 [043] (-83)
1269  00                 [044] (-83)
126A  9B                 [045] (-83)
126B  00                 [046] (-83)
126C  00                 [047] (-82)
126D  00                 [048] (-82)
126E  9B                 [049] (-82)
126F  00                 [050] (-82)
1270  00                 [051] (-82)
1271  00                 [052] (-81)
1272  9C                 [053] (-81)
1273  00                 [054] (-81)
1274  00                 [055] (-81)
1275  00                 [056] (-81)
1276  9C                 [057] (-78)
1277  00                 [058] (-78)
1278  00                 [059] (-78)
1279  00                 [060] (-78)
127A  9C                 [061] (-78)
127B  00                 [062] (-78)
127C  00                 [063] (-78)
127D  00                 [064] (-77)
127E  9C                 [065] (-77)
127F  00                 [066] (-77)
1280  00                 [067] (-77)
1281  00                 [068] (-77)
1282  9C                 [069] (-77)
1283  00                 [070] (-77)
1284  00                 [071] (-77)
1285  00                 [072] (-77)
1286  9D                 [073] (-77)
1287  00                 [074] (-76)
1288  00                 [075] (-76)
1289  00                 [076] (-76)
128A  A0                 [077] (-76)
128B  00                 [078] (-75)
128C  00                 [079] (-75)
128D  00                 [080] (-75)
128E  A0                 [081] (-75)
128F  00                 [082] (-75)
1290  00                 [083] (-74)
1291  00                 [084] (-74)
1292  A0                 [085] (-74)
1293  00                 [086] (-74)
1294  00                 [087] (-74)
1295  00                 [088] (-71)
1296  A0                 [089] (-71)
1297  00                 [090] (-71)
1298  00                 [091] (-71)
1299  00                 [092] (-71)
129A  A0                 [093] (-71)
129B  00                 [094] (-71)
129C  00                 [095] (-70)
129D  00                 [096] (-70)
129E  A1                 [097] (-70)
129F  00                 [098] (-70)
12A0  00                 [099] (-70)
12A1  00                 [100] (-70)
12A2  A1                 [101] (-70)
12A3  00                 [102] (-70)
12A4  00                 [103] (-70)
12A5  00                 [104] (-68)
                         * locals:
13DE  00                 sizelocvars (0)
                         * upvalues:
13DF  00                 sizeupvalues (0)
                         ** end of function **

                         
13E0                     ** function [5] definition (level 2)
                         ** start of function **
13E0  00                 string size (0)
                         source name: (none)
13E2  01                 line defined (190)
13E3  CF                 last line defined (207)
13E4  01                 nups (7)
13E5  07                 numparams (0)
13E6  00                 is_vararg (0)
13E7  00                 maxstacksize (5)
                         * code:
13E9  44                 sizecode (68)
13EA  13000000           [01] getupval   0   0      
13EE  5D000000           [02] getglobal  1   0        ; _T
13F2  4E40C000           [03] gettable   1   1   257  ; "AbilityLevelQueryParms"
13F6  4E80C000           [04] gettable   1   1   258  ; "Level"
13FA  22400001           [05] call       0   2   1  
13FE  1D000000           [06] getglobal  0   0        ; _T
1402  0E404000           [07] gettable   0   0   257  ; "AbilityLevelQueryParms"
1406  0EC04000           [08] gettable   0   0   259  ; "Modded"
fail op	35
140A  23004100           [09] close      0  
140E  1A000280           [10] jmp        9            ; to [20]
1412  13008002           [11] getupval   0   5      
1416  5D000000           [12] getglobal  1   0        ; _T
141A  4E40C000           [13] gettable   1   1   257  ; "AbilityLevelQueryParms"
141E  4E40C100           [14] gettable   1   1   261  ; "Avatar"
1422  22400101           [15] call       0   2   5  
fail op	8
1426  C8000002           [16] setupval   3   4      
fail op	8
142A  88008001           [17] setupval   2   3      
fail op	8
142E  48000001           [18] setupval   1   2      
fail op	8
1432  08008000           [19] setupval   0   1      
1436  0B000000           [20] newtable   0   0   0    ; array=0, hash=0
143A  5D800100           [21] getglobal  1   6        ; table
143E  4EC0C100           [22] gettable   1   1   263  ; -431682403
1442  92000000           [23] move       2   0      
1446  CBC00000           [24] newtable   3   0   3    ; array=0, hash=3
144A  CC404284           [25] settable   3   264 265  ; "Label" "/Lotus/Language/Game/ABILITY_RADIUS"
144E  13018000           [26] getupval   4   1      
1452  CC000185           [27] settable   3   266 4    ; "Value"
1456  CC00C385           [28] settable   3   267 268  ; "ValueUnit" "/Lotus/Language/Game/UNIT_METER"
145A  62408001           [29] call       1   3   1  
145E  5D800100           [30] getglobal  1   6        ; table
1462  4EC0C100           [31] gettable   1   1   263  ; -431682403
1466  92000000           [32] move       2   0      
146A  CBC00000           [33] newtable   3   0   3    ; array=0, hash=3
146E  CC404384           [34] settable   3   264 269  ; "Label" "/Lotus/Language/Game/POWER_DURATION"
1472  13010001           [35] getupval   4   2      
1476  CC000185           [36] settable   3   266 4    ; "Value"
147A  CC80C385           [37] settable   3   267 270  ; "ValueUnit" "/Lotus/Language/Game/UNIT_SECOND"
147E  62408001           [38] call       1   3   1  
1482  5D800100           [39] getglobal  1   6        ; table
1486  4EC0C100           [40] gettable   1   1   263  ; -431682403
148A  92000000           [41] move       2   0      
148E  CBC00000           [42] newtable   3   0   3    ; array=0, hash=3
1492  CCC04384           [43] settable   3   264 271  ; "Label" "/Lotus/Language/Game/SPEED_MULTIPIER"
1496  13018001           [44] getupval   4   3      
149A  03010188           [45] add        4   272 4    ; 0
149E  CC000185           [46] settable   3   266 4    ; "Value"
14A2  CC40C485           [47] settable   3   267 273  ; "ValueUnit" "/Lotus/Language/Game/UNIT_MULTIPLIER"
14A6  62408001           [48] call       1   3   1  
14AA  5D800100           [49] getglobal  1   6        ; table
14AE  4EC0C100           [50] gettable   1   1   263  ; -431682403
14B2  92000000           [51] move       2   0      
14B6  CBC00000           [52] newtable   3   0   3    ; array=0, hash=3
14BA  CC804484           [53] settable   3   264 274  ; "Label" "/Game/WEAPON_RELOAD_SPEED"
14BE  13010002           [54] getupval   4   4      
14C2  04C14402           [55] mul        4   4   275  ; 0
14C6  CC000185           [56] settable   3   266 4    ; "Value"
14CA  CC00C585           [57] settable   3   267 276  ; "ValueUnit" "/Lotus/Language/Game/UNIT_PERCENT"
14CE  62408001           [58] call       1   3   1  
14D2  53000003           [59] getupval   1   6      
14D6  92000000           [60] move       2   0      
14DA  62400001           [61] call       1   2   1  
14DE  5D000000           [62] getglobal  1   0        ; _T
14E2  4E40C000           [63] gettable   1   1   257  ; "AbilityLevelQueryParms"
14E6  4EC0C000           [64] gettable   1   1   259  ; "Modded"
14EA  0C408081           [65] settable   0   259 1    ; "Modded"
14EE  5D000000           [66] getglobal  1   0        ; _T
14F2  4C00808A           [67] settable   1   277 0    ; "AbilityUpgradeLevelInfo"
14F6  1E008000           [68] return     0   1      
                         * constants:
14FA  16                 sizek (22)
14FB  04                 const type 4
14FC  03                 string size (3)
14FD  5F5400             "_T\0"
                         const [0]: "_T"
1500  04                 const type 4
1501  17                 string size (23)
1502  4162696C6974794C+  "AbilityL"
150A  6576656C51756572+  "evelQuer"
1512  795061726D7300     "yParms\0"
                         const [1]: "AbilityLevelQueryParms"
1519  04                 const type 4
151A  06                 string size (6)
151B  4C6576656C00       "Level\0"
                         const [2]: "Level"
1521  04                 const type 4
1522  07                 string size (7)
1523  4D6F6464656400     "Modded\0"
                         const [3]: "Modded"
152A  01                 const type 3
152B  01000000           const [4]: (1)
152F  04                 const type 4
1530  07                 string size (7)
1531  41766174617200     "Avatar\0"
                         const [5]: "Avatar"
1538  04                 const type 4
1539  06                 string size (6)
153A  7461626C6500       "table\0"
                         const [6]: "table"
1540  01                 const type 3
1541  9D0C45E6           const [7]: (-431682403)
1545  04                 const type 4
1546  06                 string size (6)
1547  4C6162656C00       "Label\0"
                         const [8]: "Label"
154D  04                 const type 4
154E  24                 string size (36)
154F  2F4C6F7475732F4C+  "/Lotus/L"
1557  616E67756167652F+  "anguage/"
155F  47616D652F414249+  "Game/ABI"
1567  4C4954595F524144+  "LITY_RAD"
156F  49555300           "IUS\0"
                         const [9]: "/Lotus/Language/Game/ABILITY_RADIUS"
1573  04                 const type 4
1574  06                 string size (6)
1575  56616C756500       "Value\0"
                         const [10]: "Value"
157B  04                 const type 4
157C  0A                 string size (10)
157D  56616C7565556E69+  "ValueUni"
1585  7400               "t\0"
                         const [11]: "ValueUnit"
1587  04                 const type 4
1588  20                 string size (32)
1589  2F4C6F7475732F4C+  "/Lotus/L"
1591  616E67756167652F+  "anguage/"
1599  47616D652F554E49+  "Game/UNI"
15A1  545F4D4554455200   "T_METER\0"
                         const [12]: "/Lotus/Language/Game/UNIT_METER"
15A9  04                 const type 4
15AA  24                 string size (36)
15AB  2F4C6F7475732F4C+  "/Lotus/L"
15B3  616E67756167652F+  "anguage/"
15BB  47616D652F504F57+  "Game/POW"
15C3  45525F4455524154+  "ER_DURAT"
15CB  494F4E00           "ION\0"
                         const [13]: "/Lotus/Language/Game/POWER_DURATION"
15CF  04                 const type 4
15D0  21                 string size (33)
15D1  2F4C6F7475732F4C+  "/Lotus/L"
15D9  616E67756167652F+  "anguage/"
15E1  47616D652F554E49+  "Game/UNI"
15E9  545F5345434F4E44+  "T_SECOND"
15F1  00                 "\0"
                         const [14]: "/Lotus/Language/Game/UNIT_SECOND"
15F2  04                 const type 4
15F3  25                 string size (37)
15F4  2F4C6F7475732F4C+  "/Lotus/L"
15FC  616E67756167652F+  "anguage/"
1604  47616D652F535045+  "Game/SPE"
160C  45445F4D554C5449+  "ED_MULTI"
1614  5049455200         "PIER\0"
                         const [15]: "/Lotus/Language/Game/SPEED_MULTIPIER"
1619  03                 const type 3
161A  0000803F           const [16]: (0)
161E  04                 const type 4
161F  25                 string size (37)
1620  2F4C6F7475732F4C+  "/Lotus/L"
1628  616E67756167652F+  "anguage/"
1630  47616D652F554E49+  "Game/UNI"
1638  545F4D554C544950+  "T_MULTIP"
1640  4C49455200         "LIER\0"
                         const [17]: "/Lotus/Language/Game/UNIT_MULTIPLIER"
1645  04                 const type 4
1646  1A                 string size (26)
1647  2F47616D652F5745+  "/Game/WE"
164F  41504F4E5F52454C+  "APON_REL"
1657  4F41445F53504545+  "OAD_SPEE"
165F  4400               "D\0"
                         const [18]: "/Game/WEAPON_RELOAD_SPEED"
1661  03                 const type 3
1662  0000C842           const [19]: (0)
1666  04                 const type 4
1667  22                 string size (34)
1668  2F4C6F7475732F4C+  "/Lotus/L"
1670  616E67756167652F+  "anguage/"
1678  47616D652F554E49+  "Game/UNI"
1680  545F50455243454E+  "T_PERCEN"
1688  5400               "T\0"
                         const [20]: "/Lotus/Language/Game/UNIT_PERCENT"
168A  04                 const type 4
168B  18                 string size (24)
168C  4162696C69747955+  "AbilityU"
1694  7067726164654C65+  "pgradeLe"
169C  76656C496E666F00   "velInfo\0"
                         const [21]: "AbilityUpgradeLevelInfo"
                         * functions:
16A4  00                 sizep (0)
                         * lines:
16A5  44                 sizelineinfo (68)
                         [pc] (line)
16A6  BF                 [01] (-65)
16A7  00                 [02] (-65)
16A8  00                 [03] (-65)
16A9  00                 [04] (-65)
16AA  BF                 [05] (-65)
16AB  00                 [06] (-64)
16AC  00                 [07] (-64)
16AD  00                 [08] (-64)
16AE  BF                 [09] (-64)
16AF  00                 [10] (-64)
16B0  00                 [11] (-63)
16B1  00                 [12] (-63)
16B2  BF                 [13] (-63)
16B3  00                 [14] (-63)
16B4  00                 [15] (-63)
16B5  00                 [16] (-63)
16B6  BF                 [17] (-63)
16B7  00                 [18] (-63)
16B8  00                 [19] (-63)
16B9  00                 [20] (-60)
16BA  C0                 [21] (-59)
16BB  00                 [22] (-59)
16BC  00                 [23] (-59)
16BD  00                 [24] (-59)
16BE  C0                 [25] (-59)
16BF  00                 [26] (-59)
16C0  00                 [27] (-59)
16C1  00                 [28] (-59)
16C2  C0                 [29] (-59)
16C3  00                 [30] (-58)
16C4  00                 [31] (-58)
16C5  00                 [32] (-58)
16C6  C0                 [33] (-58)
16C7  00                 [34] (-58)
16C8  00                 [35] (-58)
16C9  00                 [36] (-58)
16CA  C0                 [37] (-58)
16CB  00                 [38] (-58)
16CC  00                 [39] (-57)
16CD  00                 [40] (-57)
16CE  C1                 [41] (-57)
16CF  00                 [42] (-57)
16D0  00                 [43] (-57)
16D1  00                 [44] (-57)
16D2  C1                 [45] (-57)
16D3  00                 [46] (-57)
16D4  00                 [47] (-57)
16D5  00                 [48] (-57)
16D6  C1                 [49] (-56)
16D7  00                 [50] (-56)
16D8  00                 [51] (-56)
16D9  00                 [52] (-56)
16DA  C1                 [53] (-56)
16DB  00                 [54] (-56)
16DC  00                 [55] (-56)
16DD  00                 [56] (-56)
16DE  C1                 [57] (-56)
16DF  00                 [58] (-56)
16E0  00                 [59] (-54)
16E1  00                 [60] (-54)
16E2  C1                 [61] (-54)
16E3  00                 [62] (-52)
16E4  00                 [63] (-52)
16E5  00                 [64] (-52)
16E6  C1                 [65] (-52)
16E7  00                 [66] (-50)
16E8  00                 [67] (-50)
16E9  00                 [68] (-49)
                         * locals:
17B6  00                 sizelocvars (0)
                         * upvalues:
17B7  00                 sizeupvalues (0)
                         ** end of function **

                         
17B8                     ** function [6] definition (level 2)
                         ** start of function **
17B8  00                 string size (0)
                         source name: (none)
17BA  01                 line defined (209)
17BB  E0                 last line defined (224)
17BC  01                 nups (3)
17BD  03                 numparams (2)
17BE  02                 is_vararg (0)
17BF  00                 maxstacksize (6)
                         * code:
17C1  1C                 sizecode (28)
17C2  8B000000           [01] newtable   2   0   0    ; array=0, hash=0
17C6  D3000000           [02] getupval   3   0      
17CA  12010000           [03] move       4   0      
17CE  52018000           [04] move       5   1      
17D2  E2408001           [05] call       3   3   1  
17D6  DD000000           [06] getglobal  3   0        ; Lotus_Game
17DA  CE40C001           [07] gettable   3   3   257  ; "PowerSuit_AUGMENT_ONE"
fail op	35
17DE  23C08000           [08] close      0  
17E2  1A000180           [09] jmp        5            ; to [15]
17E6  CB400000           [10] newtable   3   0   1    ; array=0, hash=1
17EA  13018000           [11] getupval   4   1      
17EE  CC000181           [12] settable   3   258 4    ; "DAMAGE"
17F2  92008001           [13] move       2   3      
17F6  1AC00180           [14] jmp        8            ; to [23]
17FA  DD000000           [15] getglobal  3   0        ; Lotus_Game
17FE  CEC0C001           [16] gettable   3   3   259  ; "PowerSuit_AUGMENT_PVP_ONE"
fail op	35
1802  23C08000           [17] close      0  
1806  1AC00080           [18] jmp        4            ; to [23]
180A  CB400000           [19] newtable   3   0   1    ; array=0, hash=1
180E  13010001           [20] getupval   4   2      
1812  CC000182           [21] settable   3   260 4    ; "DURATION_INC"
1816  92008001           [22] move       2   3      
181A  DD400100           [23] getglobal  3   5        ; cjson
181E  CE80C101           [24] gettable   3   3   262  ; -1916729509
1822  12010001           [25] move       4   2      
1826  C7000001           [26] tailcall   3   2   0  
182A  DE000000           [27] return     3   0      
182E  1E008000           [28] return     0   1      
                         * constants:
1832  07                 sizek (7)
1833  04                 const type 4
1834  0B                 string size (11)
1835  4C6F7475735F4761+  "Lotus_Ga"
183D  6D6500             "me\0"
                         const [0]: "Lotus_Game"
1840  04                 const type 4
1841  16                 string size (22)
1842  506F776572537569+  "PowerSui"
184A  745F4155474D454E+  "t_AUGMEN"
1852  545F4F4E4500       "T_ONE\0"
                         const [1]: "PowerSuit_AUGMENT_ONE"
1858  04                 const type 4
1859  07                 string size (7)
185A  44414D41474500     "DAMAGE\0"
                         const [2]: "DAMAGE"
1861  04                 const type 4
1862  1A                 string size (26)
1863  506F776572537569+  "PowerSui"
186B  745F4155474D454E+  "t_AUGMEN"
1873  545F5056505F4F4E+  "T_PVP_ON"
187B  4500               "E\0"
                         const [3]: "PowerSuit_AUGMENT_PVP_ONE"
187D  04                 const type 4
187E  0D                 string size (13)
187F  4455524154494F4E+  "DURATION"
1887  5F494E4300         "_INC\0"
                         const [4]: "DURATION_INC"
188C  04                 const type 4
188D  06                 string size (6)
188E  636A736F6E00       "cjson\0"
                         const [5]: "cjson"
1894  01                 const type 3
1895  5B07C18D           const [6]: (-1916729509)
                         * functions:
1899  00                 sizep (0)
                         * lines:
189A  1C                 sizelineinfo (28)
                         [pc] (line)
189B  D2                 [01] (-46)
189C  00                 [02] (-44)
189D  00                 [03] (-44)
189E  00                 [04] (-44)
189F  D4                 [05] (-44)
18A0  00                 [06] (-43)
18A1  00                 [07] (-43)
18A2  00                 [08] (-43)
18A3  D4                 [09] (-43)
18A4  00                 [10] (-42)
18A5  00                 [11] (-41)
18A6  00                 [12] (-41)
18A7  D4                 [13] (-40)
18A8  00                 [14] (-40)
18A9  00                 [15] (-39)
18AA  00                 [16] (-39)
18AB  D4                 [17] (-39)
18AC  00                 [18] (-39)
18AD  00                 [19] (-38)
18AE  00                 [20] (-37)
18AF  D5                 [21] (-37)
18B0  00                 [22] (-36)
18B1  00                 [23] (-33)
18B2  00                 [24] (-33)
18B3  D5                 [25] (-33)
18B4  00                 [26] (-33)
18B5  00                 [27] (-33)
18B6  00                 [28] (-32)
                         * locals:
190B  00                 sizelocvars (0)
                         * upvalues:
190C  00                 sizeupvalues (0)
                         ** end of function **

                         
190D                     ** function [7] definition (level 2)
                         ** start of function **
190D  00                 string size (0)
                         source name: (none)
190F  01                 line defined (226)
1910  E6                 last line defined (230)
1911  01                 nups (1)
1912  01                 numparams (2)
1913  02                 is_vararg (0)
1914  00                 maxstacksize (6)
                         * code:
1916  0D                 sizecode (13)
1917  93000000           [01] getupval   2   0      
191B  8E004001           [02] gettable   2   2   256  ; 105205593
191F  A2808000           [03] call       2   1   2  
1923  98000000           [04] test       2       0    ; to [6] if true
1927  1A800180           [05] jmp        7            ; to [13]
192B  9D400000           [06] getglobal  2   1        ; mOwner
192F  A4804001           [07] self       2   2   258  ; 1492784584
1933  1DC10000           [08] getglobal  4   3        ; gGameRules
1937  24014102           [09] self       4   4   260  ; -1409394412
193B  22810001           [10] call       4   2   2  
193F  03414102           [11] add        4   4   261  ; 0
1943  A2408001           [12] call       2   3   1  
1947  1E008000           [13] return     0   1      
                         * constants:
194B  06                 sizek (6)
194C  01                 const type 3
194D  594F4506           const [0]: (105205593)
1951  04                 const type 4
1952  07                 string size (7)
1953  6D4F776E657200     "mOwner\0"
                         const [1]: "mOwner"
195A  01                 const type 3
195B  C815FA58           const [2]: (1492784584)
195F  04                 const type 4
1960  0B                 string size (11)
1961  6747616D6552756C+  "gGameRul"
1969  657300             "es\0"
                         const [3]: "gGameRules"
196C  01                 const type 3
196D  1459FEAB           const [4]: (-1409394412)
1971  03                 const type 3
1972  0000C842           const [5]: (0)
                         * functions:
1976  00                 sizep (0)
                         * lines:
1977  0D                 sizelineinfo (13)
                         [pc] (line)
1978  E3                 [01] (-29)
1979  00                 [02] (-29)
197A  00                 [03] (-29)
197B  00                 [04] (-29)
197C  E3                 [05] (-29)
197D  00                 [06] (-28)
197E  00                 [07] (-28)
197F  00                 [08] (-28)
1980  E3                 [09] (-28)
1981  00                 [10] (-28)
1982  00                 [11] (-28)
1983  00                 [12] (-28)
1984  E3                 [13] (-26)
                         * locals:
19AC  00                 sizelocvars (0)
                         * upvalues:
19AD  00                 sizeupvalues (0)
                         ** end of function **

                         
19AE                     ** function [8] definition (level 2)
                         ** start of function **
19AE  00                 string size (0)
                         source name: (none)
19B0  01                 line defined (232)
19B1  EA                 last line defined (234)
19B2  01                 nups (0)
19B3  00                 numparams (2)
19B4  02                 is_vararg (0)
19B5  00                 maxstacksize (3)
                         * code:
19B7  03                 sizecode (3)
19B8  99000000           [1] loadk      2   0        ; 0
19BC  9E000001           [2] return     2   2      
19C0  1E008000           [3] return     0   1      
                         * constants:
19C4  01                 sizek (1)
19C5  03                 const type 3
19C6  0000803F           const [0]: (0)
                         * functions:
19CA  00                 sizep (0)
                         * lines:
19CB  03                 sizelineinfo (3)
                         [pc] (line)
19CC  E9                 [1] (-23)
19CD  00                 [2] (-23)
19CE  00                 [3] (-22)
                         * locals:
19D8  00                 sizelocvars (0)
                         * upvalues:
19D9  00                 sizeupvalues (0)
                         ** end of function **

                         
19DA                     ** function [9] definition (level 2)
                         ** start of function **
19DA  00                 string size (0)
                         source name: (none)
19DC  01                 line defined (236)
19DD  FA                 last line defined (250)
19DE  01                 nups (1)
19DF  01                 numparams (1)
19E0  01                 is_vararg (0)
19E1  00                 maxstacksize (11)
                         * code:
19E3  44                 sizecode (68)
19E4  5D000000           [01] getglobal  1   0        ; 572299008
19E8  8E404000           [02] gettable   2   0   257  ; "x"
19EC  DD800000           [03] getglobal  3   2        ; math
19F0  CEC0C001           [04] gettable   3   3   259  ; -2040962569
19F4  19010100           [05] loadk      4   4        ; 0
19F8  59410100           [06] loadk      5   5        ; 0
19FC  E2808001           [07] call       3   3   2  
1A00  83C00001           [08] add        2   2   3  
1A04  CE804100           [09] gettable   3   0   262  ; "y"
1A08  1D810000           [10] getglobal  4   2        ; math
1A0C  0EC14002           [11] gettable   4   4   259  ; -2040962569
1A10  59010100           [12] loadk      5   4        ; 0
1A14  99410100           [13] loadk      6   5        ; 0
1A18  22818001           [14] call       4   3   2  
1A1C  CD008101           [15] sub        3   3   4  
1A20  0EC14100           [16] gettable   4   0   263  ; "z"
1A24  5D810000           [17] getglobal  5   2        ; math
1A28  4EC1C002           [18] gettable   5   5   259  ; -2040962569
1A2C  99010100           [19] loadk      6   4        ; 0
1A30  D9410100           [20] loadk      7   5        ; 0
1A34  62818001           [21] call       5   3   2  
1A38  03410102           [22] add        4   4   5  
1A3C  62800002           [23] call       1   4   2  
1A40  9D000000           [24] getglobal  2   0        ; 572299008
1A44  A2808000           [25] call       2   1   2  
1A48  D9000200           [26] loadk      3   8        ; 0
fail op	21
1A4C  1540C201           [27] concat     0   3   265
1A50  1A400980           [28] jmp        38           ; to [67]
1A54  1D810200           [29] getglobal  4   10       ; gRegion
1A58  24C14202           [30] self       4   4   267  ; -1869767524
1A5C  92010000           [31] move       6   0      
1A60  D2018000           [32] move       7   1      
1A64  13020000           [33] getupval   8   0      
1A68  46028004           [34] loadnil    9   9      
1A6C  92020001           [35] move       10  2      
1A70  22818003           [36] call       4   7   2  
1A74  18010000           [37] test       4       0    ; to [39] if true
1A78  1A400080           [38] jmp        2            ; to [41]
1A7C  D9000300           [39] loadk      3   12       ; 0
1A80  1A40FC7F           [40] jmp        -14          ; to [27]
1A84  C340C301           [41] add        3   3   269  ; 0
1A88  1D010000           [42] getglobal  4   0        ; 572299008
1A8C  4E414000           [43] gettable   5   0   257  ; "x"
1A90  9D810000           [44] getglobal  6   2        ; math
1A94  8EC14003           [45] gettable   6   6   259  ; -2040962569
1A98  D9810300           [46] loadk      7   14       ; 0
1A9C  19020300           [47] loadk      8   12       ; 0
1AA0  A2818001           [48] call       6   3   2  
1AA4  43818102           [49] add        5   5   6  
1AA8  8E814100           [50] gettable   6   0   262  ; "y"
1AAC  DD810000           [51] getglobal  7   2        ; math
1AB0  CEC1C003           [52] gettable   7   7   259  ; -2040962569
1AB4  19820300           [53] loadk      8   14       ; 0
1AB8  59020300           [54] loadk      9   12       ; 0
1ABC  E2818001           [55] call       7   3   2  
1AC0  83C10103           [56] add        6   6   7  
1AC4  CEC14100           [57] gettable   7   0   263  ; "z"
1AC8  1D820000           [58] getglobal  8   2        ; math
1ACC  0EC24004           [59] gettable   8   8   259  ; -2040962569
1AD0  59820300           [60] loadk      9   14       ; 0
1AD4  99020300           [61] loadk      10  12       ; 0
1AD8  22828001           [62] call       8   3   2  
1ADC  C3018203           [63] add        7   7   8  
1AE0  22810002           [64] call       4   4   2  
1AE4  52000002           [65] move       1   4      
1AE8  1AC0F57F           [66] jmp        -40          ; to [27]
1AEC  9E000001           [67] return     2   2      
1AF0  1E008000           [68] return     0   1      
                         * constants:
1AF4  0F                 sizek (15)
1AF5  01                 const type 3
1AF6  00971C22           const [0]: (572299008)
1AFA  04                 const type 4
1AFB  02                 string size (2)
1AFC  7800               "x\0"
                         const [1]: "x"
1AFE  04                 const type 4
1AFF  05                 string size (5)
1B00  6D61746800         "math\0"
                         const [2]: "math"
1B05  01                 const type 3
1B06  F7615986           const [3]: (-2040962569)
1B0A  03                 const type 3
1B0B  0000C0C0           const [4]: (0)
1B0F  03                 const type 3
1B10  0000C040           const [5]: (0)
1B14  04                 const type 4
1B15  02                 string size (2)
1B16  7900               "y\0"
                         const [6]: "y"
1B18  04                 const type 4
1B19  02                 string size (2)
1B1A  7A00               "z\0"
                         const [7]: "z"
1B1C  03                 const type 3
1B1D  00000000           const [8]: (0)
1B21  03                 const type 3
1B22  00000040           const [9]: (0)
1B26  04                 const type 4
1B27  08                 string size (8)
1B28  67526567696F6E00   "gRegion\0"
                         const [10]: "gRegion"
1B30  01                 const type 3
1B31  9C9C8D90           const [11]: (-1869767524)
1B35  03                 const type 3
1B36  0000A040           const [12]: (0)
1B3A  03                 const type 3
1B3B  0000803F           const [13]: (0)
1B3F  03                 const type 3
1B40  0000A0C0           const [14]: (0)
                         * functions:
1B44  00                 sizep (0)
                         * lines:
1B45  44                 sizelineinfo (68)
                         [pc] (line)
1B46  ED                 [01] (-19)
1B47  00                 [02] (-19)
1B48  00                 [03] (-19)
1B49  00                 [04] (-19)
1B4A  ED                 [05] (-19)
1B4B  00                 [06] (-19)
1B4C  00                 [07] (-19)
1B4D  00                 [08] (-19)
1B4E  ED                 [09] (-19)
1B4F  00                 [10] (-19)
1B50  00                 [11] (-19)
1B51  00                 [12] (-19)
1B52  ED                 [13] (-19)
1B53  00                 [14] (-19)
1B54  00                 [15] (-19)
1B55  00                 [16] (-19)
1B56  ED                 [17] (-19)
1B57  00                 [18] (-19)
1B58  00                 [19] (-19)
1B59  00                 [20] (-19)
1B5A  ED                 [21] (-19)
1B5B  00                 [22] (-19)
1B5C  00                 [23] (-19)
1B5D  00                 [24] (-18)
1B5E  ED                 [25] (-18)
1B5F  00                 [26] (-17)
1B60  00                 [27] (-16)
1B61  00                 [28] (-16)
1B62  ED                 [29] (-15)
1B63  00                 [30] (-15)
1B64  00                 [31] (-15)
1B65  00                 [32] (-15)
1B66  ED                 [33] (-15)
1B67  00                 [34] (-15)
1B68  00                 [35] (-15)
1B69  00                 [36] (-15)
1B6A  ED                 [37] (-15)
1B6B  00                 [38] (-15)
1B6C  00                 [39] (-14)
1B6D  00                 [40] (-14)
1B6E  ED                 [41] (-12)
1B6F  00                 [42] (-11)
1B70  00                 [43] (-11)
1B71  00                 [44] (-11)
1B72  ED                 [45] (-11)
1B73  00                 [46] (-11)
1B74  00                 [47] (-11)
1B75  00                 [48] (-11)
1B76  ED                 [49] (-11)
1B77  00                 [50] (-11)
1B78  00                 [51] (-11)
1B79  00                 [52] (-11)
1B7A  ED                 [53] (-11)
1B7B  00                 [54] (-11)
1B7C  00                 [55] (-11)
1B7D  00                 [56] (-11)
1B7E  ED                 [57] (-11)
1B7F  00                 [58] (-11)
1B80  00                 [59] (-11)
1B81  00                 [60] (-11)
1B82  ED                 [61] (-11)
1B83  00                 [62] (-11)
1B84  00                 [63] (-11)
1B85  00                 [64] (-11)
1B86  ED                 [65] (-11)
1B87  00                 [66] (-10)
1B88  00                 [67] (-7)
1B89  00                 [68] (-6)
                         * locals:
1C56  00                 sizelocvars (0)
                         * upvalues:
1C57  00                 sizeupvalues (0)
                         ** end of function **

                         
1C58                     ** function [10] definition (level 2)
                         ** start of function **
1C58  00                 string size (0)
                         source name: (none)
1C5A  02                 line defined (260)
1C5B  E5                 last line defined (485)
1C5C  03                 nups (12)
1C5D  0C                 numparams (1)
1C5E  01                 is_vararg (0)
1C5F  00                 maxstacksize (45)
                         * code:
1C62  05                 sizecode (666)
1C63  53000000           [001] getupval   1   0      
1C67  4E00C000           [002] gettable   1   1   256  ; "creator"
1C6B  93000000           [003] getupval   2   0      
1C6F  8E404001           [004] gettable   2   2   257  ; "creatorSuit"
1C73  D3000000           [005] getupval   3   0      
1C77  CE80C001           [006] gettable   3   3   258  ; "baseDuration"
1C7B  13010000           [007] getupval   4   0      
1C7F  0EC14002           [008] gettable   4   4   259  ; "baseSpdMul"
1C83  53010000           [009] getupval   5   0      
1C87  4E01C102           [010] gettable   5   5   260  ; "baseReloadSpeedBuff"
1C8B  9D410100           [011] getglobal  6   5        ; mOwner
1C8F  A4814103           [012] self       6   6   262  ; -491574171
1C93  A2810001           [013] call       6   2   2  
fail op	35
1C97  63008000           [014] close      1  
1C9B  1A000080           [015] jmp        1            ; to [17]
1C9F  D7410000           [016] loadbool   7   0   1    ; false, to [18]
1CA3  D7018000           [017] loadbool   7   1   0    ; true
1CA7  06020004           [018] loadnil    8   8      
1CAB  64C24101           [019] self       9   2   263  ; -40827644
1CAF  D3028000           [020] getupval   11  1      
1CB3  62828001           [021] call       9   3   2  
1CB7  A4024201           [022] self       10  2   264  ; 1183093143
1CBB  13038000           [023] getupval   12  1      
1CBF  A2828001           [024] call       10  3   2  
1CC3  C6028005           [025] loadnil    11  11     
fail op	21
1CC7  15408284           [026] concat     0   265 9  
1CCB  1A400580           [027] jmp        22           ; to [50]
1CCF  1D830200           [028] getglobal  12  10       ; Lotus_Game
1CD3  0EC34206           [029] gettable   12  12  267  ; "PowerSuit_AUGMENT_ONE"
fail op	35
1CD7  23000305           [030] close      0  
1CDB  1AC00080           [031] jmp        4            ; to [36]
1CDF  13030000           [032] getupval   12  0      
1CE3  0E034306           [033] gettable   12  12  268  ; "augmentStat"
fail op	8
1CE7  08030001           [034] setupval   12  2      
1CEB  1A000380           [035] jmp        13           ; to [49]
1CEF  1D830200           [036] getglobal  12  10       ; Lotus_Game
1CF3  0E434306           [037] gettable   12  12  269  ; "PowerSuit_AUGMENT_PVP_ONE"
fail op	35
1CF7  23000305           [038] close      0  
1CFB  1A000280           [039] jmp        9            ; to [49]
1CFF  D8010000           [040] test       7       0    ; to [42] if true
1D03  1A800180           [041] jmp        7            ; to [49]
1D07  13030000           [042] getupval   12  0      
1D0B  0E034306           [043] gettable   12  12  268  ; "augmentStat"
fail op	8
1D0F  08038001           [044] setupval   12  3      
1D13  1D830300           [045] getglobal  12  14       ; gRegion
1D17  24C34306           [046] self       12  12  271  ; -2071158816
1D1B  22830001           [047] call       12  2   2  
1D1F  12020006           [048] move       8   12     
1D23  D2020005           [049] move       11  10     
1D27  1D030400           [050] getglobal  12  16       ; 1074689893
1D2B  5D430400           [051] getglobal  13  17       ; _T
1D2F  4E83C406           [052] gettable   13  13  274  ; "voltSpeed"
1D33  22830001           [053] call       12  2   2  
1D37  18030000           [054] test       12      0    ; to [56] if true
1D3B  1A800080           [055] jmp        3            ; to [59]
1D3F  1D430400           [056] getglobal  12  17       ; _T
1D43  4B030000           [057] newtable   13  0   0    ; array=0, hash=0
1D47  0C430389           [058] settable   12  274 13   ; "voltSpeed"
1D4B  24C34400           [059] self       12  0   275  ; -605089866
1D4F  22830001           [060] call       12  2   2  
1D53  64034500           [061] self       13  0   276  ; -1917464545
1D57  62830001           [062] call       13  2   2  
1D5B  6443C506           [063] self       13  13  277  ; 1769516121
1D5F  62830001           [064] call       13  2   2  
1D63  A4834501           [065] self       14  2   278  ; -576819411
1D67  1DC40500           [066] getglobal  16  23       ; -332969190
1D6B  59040600           [067] loadk      17  24       ; "SpeedAmbientBeam"
1D6F  22040001           [068] call       16  2   0  
1D73  A2830000           [069] call       14  0   2  
1D77  C6038007           [070] loadnil    15  15     
1D7B  13040002           [071] getupval   16  4      
1D7F  0E444608           [072] gettable   16  16  281  ; 292147461
1D83  22848000           [073] call       16  1   2  
1D87  5D040400           [074] getglobal  17  16       ; 1074689893
1D8B  9D440400           [075] getglobal  18  17       ; _T
1D8F  8E844409           [076] gettable   18  18  274  ; "voltSpeed"
1D93  8E040309           [077] gettable   18  18  12 
1D97  62840001           [078] call       17  2   2  
1D9B  58040000           [079] test       17      0    ; to [81] if true
1D9F  1A801C80           [080] jmp        115          ; to [196]
1DA3  5D440400           [081] getglobal  17  17       ; _T
1DA7  4E84C408           [082] gettable   17  17  274  ; "voltSpeed"
1DAB  4C844606           [083] settable   17  12  282  ; 0
1DAF  64C44600           [084] self       17  0   283  ; -1421644046
1DB3  E4844501           [085] self       19  2   278  ; -576819411
1DB7  5DC50500           [086] getglobal  21  23       ; -332969190
1DBB  99050700           [087] loadk      22  28       ; "SpeedAttach"
1DBF  62050001           [088] call       21  2   0  
1DC3  E2840000           [089] call       19  0   2  
1DC7  1D450700           [090] getglobal  20  29       ; EMPTY_SYMBOL
1DCB  5D850700           [091] getglobal  21  30       ; ZERO_VECTOR
1DCF  9DC50700           [092] getglobal  22  31       ; ZERO_ROTATION
1DD3  D2050000           [093] move       23  0      
1DD7  62848003           [094] call       17  7   2  
1DDB  D2038008           [095] move       15  17     
1DDF  64044800           [096] self       17  0   288  ; -717859730
1DE3  62840001           [097] call       17  2   2  
1DE7  58040000           [098] test       17      0    ; to [100] if true
1DEB  1A401E80           [099] jmp        122          ; to [222]
1DEF  64444800           [100] self       17  0   289  ; 630793108
1DF3  DD840800           [101] getglobal  19  34       ; SpeedSound
1DF7  17050000           [102] loadbool   20  0   0    ; false
1DFB  59450200           [103] loadk      21  9        ; 0
1DFF  97058000           [104] loadbool   22  1   0    ; true
1E03  62440003           [105] call       17  6   1  
1E07  64C44800           [106] self       17  0   291  ; 1525877273
1E0B  62840001           [107] call       17  2   2  
1E0F  9D040400           [108] getglobal  18  16       ; 1074689893
1E13  D2048008           [109] move       19  17     
1E17  A2840001           [110] call       18  2   2  
1E1B  98440000           [111] test       18      1    ; to [113] if false
1E1F  1A400E80           [112] jmp        58           ; to [171]
1E23  9D840300           [113] getglobal  18  14       ; gRegion
1E27  A4044909           [114] self       18  18  292  ; -1456226250
1E2B  A2840001           [115] call       18  2   2  
1E2F  A4444909           [116] self       18  18  293  ; 1127159716
1E33  A2840001           [117] call       18  2   2  
fail op	35
1E37  23400000           [118] close      0  
1E3B  1A000B80           [119] jmp        45           ; to [165]
1E3F  E484C908           [120] self       19  17  294  ; 167589562
1E43  59C50900           [121] loadk      21  39       ; -102
1E47  99050A00           [122] loadk      22  40       ; 102
1E4B  D9050A00           [123] loadk      23  40       ; 102
1E4F  19460A00           [124] loadk      24  41       ; 0
1E53  E2440003           [125] call       19  6   1  
1E57  D9440200           [126] loadk      19  9        ; 0
fail op	21
1E5B  1580C609           [127] concat     0   19  282
1E5F  1A400A80           [128] jmp        42           ; to [171]
1E63  1D050400           [129] getglobal  20  16       ; 1074689893
1E67  52058008           [130] move       21  17     
1E6B  22850001           [131] call       20  2   2  
1E6F  18450000           [132] test       20      1    ; to [134] if false
1E73  1A000980           [133] jmp        37           ; to [171]
1E77  2485CA08           [134] self       20  17  298  ; -1888027794
1E7B  93058002           [135] getupval   22  5      
1E7F  8EC54A0B           [136] gettable   22  22  299  ; 815255183
1E83  D2058009           [137] move       23  19     
1E87  19460200           [138] loadk      24  9        ; 0
1E8B  59860600           [139] loadk      25  26       ; 0
1E8F  99860600           [140] loadk      26  26       ; 0
1E93  D9060B00           [141] loadk      27  44       ; 0
1E97  19070B00           [142] loadk      28  44       ; 0
1E9B  A2858003           [143] call       22  7   2  
1E9F  84454B0B           [144] mul        22  22  301  ; -102
1EA3  8385058D           [145] add        22  282 22   ; 0
1EA7  22458001           [146] call       20  3   1  
1EAB  1D850B00           [147] getglobal  20  46       ; 1289681407
1EAF  22858000           [148] call       20  1   2  
1EB3  04C54B0A           [149] mul        20  20  303  ; 0
1EB7  C3048509           [150] add        19  19  20 
1EBB  2405CC08           [151] self       20  17  304  ; -1911300668
1EBF  A4454C00           [152] self       22  0   305  ; -1493157159
1EC3  A2850001           [153] call       22  2   2  
1EC7  D9850C00           [154] loadk      23  50       ; 0
1ECB  04C68499           [155] mul        24  307 19   ; 0
1ECF  59460200           [156] loadk      25  9        ; 0
1ED3  22450003           [157] call       20  6   1  
1ED7  0445CD09           [158] mul        20  19  309  ; -51
1EDB  8C04059A           [159] settable   18  308 20   ; "bloom"
1EDF  1D850D00           [160] getglobal  20  54       ; 538022378
1EE3  59450200           [161] loadk      21  9        ; 0
1EE7  22450001           [162] call       20  2   1  
1EEB  1A80F67F           [163] jmp        -37          ; to [127]
1EEF  1A400180           [164] jmp        6            ; to [171]
1EF3  2485C908           [165] self       20  17  294  ; 167589562
1EF7  99050B00           [166] loadk      22  44       ; 0
1EFB  D9050A00           [167] loadk      23  40       ; 102
1EFF  19060A00           [168] loadk      24  40       ; 102
1F03  59460A00           [169] loadk      25  41       ; 0
1F07  22450003           [170] call       20  6   1  
1F0B  1D850200           [171] getglobal  20  10       ; Lotus_Game
1F0F  0EC5420A           [172] gettable   20  20  267  ; "PowerSuit_AUGMENT_ONE"
fail op	35
1F13  23008505           [173] close      0  
1F17  1A800B80           [174] jmp        47           ; to [222]
1F1B  24C54600           [175] self       20  0   283  ; -1421644046
1F1F  9DC50D00           [176] getglobal  22  55       ; augmentOneElementType
1F23  DDC50500           [177] getglobal  23  23       ; -332969190
1F27  19060E00           [178] loadk      24  56       ; "GAME_C1_HIP1"
1F2B  E2050001           [179] call       23  2   0  
1F2F  22850000           [180] call       20  0   2  
1F33  5D050400           [181] getglobal  21  16       ; 1074689893
1F37  9205000A           [182] move       22  20     
1F3B  62850001           [183] call       21  2   2  
1F3F  58450000           [184] test       21      1    ; to [186] if false
1F43  1AC00880           [185] jmp        36           ; to [222]
1F47  64454E0A           [186] self       21  20  313  ; -2049256907
1F4B  D2058006           [187] move       23  13     
1F4F  62458001           [188] call       21  3   1  
1F53  64854E0A           [189] self       21  20  314  ; -484330307
1F57  D2050000           [190] move       23  0      
1F5B  62458001           [191] call       21  3   1  
1F5F  64C54E0A           [192] self       21  20  315  ; 826402673
1F63  D3050001           [193] getupval   23  2      
1F67  62458001           [194] call       21  3   1  
1F6B  1A400680           [195] jmp        26           ; to [222]
1F6F  5D450400           [196] getglobal  21  17       ; _T
1F73  4E85C40A           [197] gettable   21  21  274  ; "voltSpeed"
1F77  9D450400           [198] getglobal  22  17       ; _T
1F7B  8E85440B           [199] gettable   22  22  274  ; "voltSpeed"
1F7F  8E05030B           [200] gettable   22  22  12 
1F83  8385460B           [201] add        22  22  282  ; 0
1F87  4C850506           [202] settable   21  12  22 
1F8B  64054F00           [203] self       21  0   316  ; -1625438872
1F8F  E4854501           [204] self       23  2   278  ; -576819411
1F93  5DC60500           [205] getglobal  25  23       ; -332969190
1F97  99060700           [206] loadk      26  28       ; "SpeedAttach"
1F9B  62060001           [207] call       25  2   0  
1F9F  E2050000           [208] call       23  0   0  
1FA3  62850000           [209] call       21  0   2  
1FA7  D203800A           [210] move       15  21     
1FAB  64C54600           [211] self       21  0   283  ; -1421644046
1FAF  E4854501           [212] self       23  2   278  ; -576819411
1FB3  5DC60500           [213] getglobal  25  23       ; -332969190
1FB7  99460F00           [214] loadk      26  61       ; "SpeedBurst"
1FBB  62060001           [215] call       25  2   0  
1FBF  E2850000           [216] call       23  0   2  
1FC3  1D460700           [217] getglobal  24  29       ; EMPTY_SYMBOL
1FC7  5D860700           [218] getglobal  25  30       ; ZERO_VECTOR
1FCB  9DC60700           [219] getglobal  26  31       ; ZERO_ROTATION
1FCF  D2060001           [220] move       27  2      
1FD3  62458003           [221] call       21  7   1  
1FD7  5D450400           [222] getglobal  21  17       ; _T
1FDB  4E85C40A           [223] gettable   21  21  274  ; "voltSpeed"
1FDF  4E05830A           [224] gettable   21  21  12 
1FE3  A4054500           [225] self       22  0   276  ; -1917464545
1FE7  A2850001           [226] call       22  2   2  
1FEB  DD850300           [227] getglobal  23  14       ; gRegion
1FEF  E485CF0B           [228] self       23  23  318  ; -1520831144
1FF3  E2850001           [229] call       23  2   2  
1FF7  D8050000           [230] test       23      0    ; to [232] if true
1FFB  1A800B80           [231] jmp        47           ; to [279]
fail op	35
1FFF  63C04F03           [232] close      1  
2003  1AC00480           [233] jmp        20           ; to [254]
2007  D8410000           [234] test       7       1    ; to [236] if false
200B  1A400480           [235] jmp        18           ; to [254]
200F  DD850200           [236] getglobal  23  10       ; Lotus_Game
2013  CE05D00B           [237] gettable   23  23  320  ; -84065502
2017  E2858000           [238] call       23  1   2  
201B  CC4580A0           [239] settable   23  321 1    ; "instigator"
201F  0B068000           [240] newtable   24  1   0    ; array=1, hash=0
2023  52060000           [241] move       25  0      
2027  1B468000           [242] setlist    24  1   1    ; index 1 to 1
202B  CC0506A1           [243] settable   23  322 24   ; "affected"
202F  1D860200           [244] getglobal  24  10       ; Lotus_Game
2033  0E06510C           [245] gettable   24  24  324  ; "BT_TIMER"
2037  CC0586A1           [246] settable   23  323 24   ; "buffType"
203B  CC8581A2           [247] settable   23  325 6    ; "abilityType"
203F  CCC500A3           [248] settable   23  326 3    ; "buffData"
2043  24C65100           [249] self       24  0   327  ; 1481577430
2047  9206800B           [250] move       26  23     
204B  D7068000           [251] loadbool   27  1   0    ; true
204F  17078000           [252] loadbool   28  1   0    ; true
2053  22468002           [253] call       24  5   1  
2057  2406520B           [254] self       24  22  328  ; 1183180483
205B  93060003           [255] getupval   26  6      
205F  DD461200           [256] getglobal  27  73       ; Game
2063  CE86D20D           [257] gettable   27  27  330  ; "WEAPON_FIRE_RATE"
2067  1D471200           [258] getglobal  28  73       ; Game
206B  0EC7520E           [259] gettable   28  28  331  ; "STACKING_MULTIPLY"
206F  52070002           [260] move       29  4      
2073  9D071300           [261] getglobal  30  76       ; gLotusMeleeWeaponType
2077  22468003           [262] call       24  7   1  
207B  2406520B           [263] self       24  22  328  ; 1183180483
207F  93068003           [264] getupval   26  7      
2083  DD461200           [265] getglobal  27  73       ; Game
2087  CE46D30D           [266] gettable   27  27  333  ; "AVATAR_MOVEMENT_SPEED"
208B  1D471200           [267] getglobal  28  73       ; Game
208F  0EC7520E           [268] gettable   28  28  331  ; "STACKING_MULTIPLY"
2093  52070002           [269] move       29  4      
2097  22460003           [270] call       24  6   1  
209B  2406520B           [271] self       24  22  328  ; 1183180483
209F  93060004           [272] getupval   26  8      
20A3  DD461200           [273] getglobal  27  73       ; Game
20A7  CE86D30D           [274] gettable   27  27  334  ; "WEAPON_RELOAD_SPEED"
20AB  1D471200           [275] getglobal  28  73       ; Game
20AF  0EC7520E           [276] gettable   28  28  331  ; "STACKING_MULTIPLY"
20B3  52078002           [277] move       29  5      
20B7  22460003           [278] call       24  6   1  
20BB  19860600           [279] loadk      24  26       ; 0
20BF  59C61300           [280] loadk      25  79       ; -51
20C3  93068004           [281] getupval   26  9      
20C7  8E06540D           [282] gettable   26  26  336  ; -1824732170
20CB  A2868000           [283] call       26  1   2  
fail op	21
20CF  15C08084           [284] concat     0   265 3  
20D3  1A000980           [285] jmp        37           ; to [323]
20D7  DD060400           [286] getglobal  27  16       ; 1074689893
20DB  12070000           [287] move       28  0      
20DF  E2860001           [288] call       27  2   2  
20E3  D8460000           [289] test       27      1    ; to [291] if false
20E7  1AC00780           [290] jmp        32           ; to [323]
20EB  E4465400           [291] self       27  0   337  ; 1511086594
20EF  E2860001           [292] call       27  2   2  
20F3  D8460000           [293] test       27      1    ; to [295] if false
20F7  1AC00680           [294] jmp        28           ; to [323]
20FB  DD060400           [295] getglobal  27  16       ; 1074689893
20FF  12078006           [296] move       28  13     
2103  E2860001           [297] call       27  2   2  
2107  D8460000           [298] test       27      1    ; to [300] if false
210B  1A800580           [299] jmp        23           ; to [323]
210F  DD060400           [300] getglobal  27  16       ; 1074689893
2113  1D470100           [301] getglobal  28  5        ; mOwner
2117  E2860001           [302] call       27  2   2  
211B  D8460000           [303] test       27      1    ; to [305] if false
211F  1A400480           [304] jmp        18           ; to [323]
2123  DD460100           [305] getglobal  27  5        ; mOwner
2127  E486D40D           [306] self       27  27  338  ; 1853610204
212B  52078006           [307] move       29  13     
212F  E2868001           [308] call       27  3   2  
2133  D8460000           [309] test       27      1    ; to [311] if false
2137  1AC00280           [310] jmp        12           ; to [323]
213B  DD460400           [311] getglobal  27  17       ; _T
213F  CE86C40D           [312] gettable   27  27  274  ; "voltSpeed"
2143  CE06830D           [313] gettable   27  27  12 
fail op	33
2147  2140850D           [314] tforloop   0       21   ; to [316] if exit
214B  1A800180           [315] jmp        7            ; to [323]
214F  DD460400           [316] getglobal  27  17       ; _T
2153  CEC6D40D           [317] gettable   27  27  339  ; 414831371
2157  12070003           [318] move       28  6      
215B  52070000           [319] move       29  0      
215F  92078001           [320] move       30  3      
2163  D2070008           [321] move       31  16     
2167  E2468002           [322] call       27  5   1  
fail op	21
216B  15C08084           [323] concat     0   265 3  
216F  1A002D80           [324] jmp        181          ; to [506]
2173  DD060400           [325] getglobal  27  16       ; 1074689893
2177  12070000           [326] move       28  0      
217B  E2860001           [327] call       27  2   2  
217F  D8460000           [328] test       27      1    ; to [330] if false
2183  1AC02B80           [329] jmp        176          ; to [506]
2187  E4465400           [330] self       27  0   337  ; 1511086594
218B  E2860001           [331] call       27  2   2  
218F  D8460000           [332] test       27      1    ; to [334] if false
2193  1AC02A80           [333] jmp        172          ; to [506]
2197  DD060400           [334] getglobal  27  16       ; 1074689893
219B  12078006           [335] move       28  13     
219F  E2860001           [336] call       27  2   2  
21A3  D8460000           [337] test       27      1    ; to [339] if false
21A7  1A802980           [338] jmp        167          ; to [506]
21AB  DD060400           [339] getglobal  27  16       ; 1074689893
21AF  1D470100           [340] getglobal  28  5        ; mOwner
21B3  E2860001           [341] call       27  2   2  
21B7  D8460000           [342] test       27      1    ; to [344] if false
21BB  1A402880           [343] jmp        162          ; to [506]
21BF  DD460100           [344] getglobal  27  5        ; mOwner
21C3  E486D40D           [345] self       27  27  338  ; 1853610204
21C7  52078006           [346] move       29  13     
21CB  E2868001           [347] call       27  3   2  
21CF  D8460000           [348] test       27      1    ; to [350] if false
21D3  1AC02680           [349] jmp        156          ; to [506]
21D7  DD460400           [350] getglobal  27  17       ; _T
21DB  CE86C40D           [351] gettable   27  27  274  ; "voltSpeed"
21DF  CE06830D           [352] gettable   27  27  12 
fail op	33
21E3  2140850D           [353] tforloop   0       21   ; to [355] if exit
21E7  1A802580           [354] jmp        151          ; to [506]
21EB  DD460400           [355] getglobal  27  17       ; _T
21EF  CE86C40D           [356] gettable   27  27  274  ; "voltSpeed"
21F3  4E05830D           [357] gettable   21  27  12 
21F7  D8010000           [358] test       7       0    ; to [360] if true
21FB  1A801E80           [359] jmp        123          ; to [483]
fail op	21
21FF  1500860C           [360] concat     0   25  24 
2203  1A800D80           [361] jmp        55           ; to [417]
fail op	21
2207  15808684           [362] concat     0   265 26 
220B  1A000D80           [363] jmp        53           ; to [417]
220F  D3060005           [364] getupval   27  10     
2213  1D071500           [365] getglobal  28  84       ; math
2217  0E47550E           [366] gettable   28  28  341  ; -2040962569
221B  59870600           [367] loadk      29  26       ; 0
221F  93070005           [368] getupval   30  10     
2223  8A07000F           [369] len        30  30     
2227  22878001           [370] call       28  3   2  
222B  CE06870D           [371] gettable   27  27  28 
222F  13078005           [372] getupval   28  11     
2233  64875500           [373] self       29  0   342  ; -1565518332
2237  D207800D           [374] move       31  27     
223B  62078001           [375] call       29  3   0  
223F  22870000           [376] call       28  0   2  
2243  5D870700           [377] getglobal  29  30       ; ZERO_VECTOR
fail op	35
2247  6340070E           [378] close      1  
224B  1A000580           [379] jmp        21           ; to [401]
224F  64C74600           [380] self       29  0   283  ; -1421644046
2253  D2070007           [381] move       31  14     
2257  1208800D           [382] move       32  27     
225B  5D880700           [383] getglobal  33  30       ; ZERO_VECTOR
225F  9DC80700           [384] getglobal  34  31       ; ZERO_ROTATION
2263  D2080000           [385] move       35  0      
2267  62878003           [386] call       29  7   2  
226B  9D070400           [387] getglobal  30  16       ; 1074689893
226F  D207800E           [388] move       31  29     
2273  A2870001           [389] call       30  2   2  
2277  98470000           [390] test       30      1    ; to [392] if false
227B  1A000280           [391] jmp        9            ; to [401]
227F  A4C7D50E           [392] self       30  29  343  ; 1311555023
2283  1208000E           [393] move       32  28     
2287  A2478001           [394] call       30  3   1  
228B  9D870300           [395] getglobal  30  14       ; gRegion
228F  A407560F           [396] self       30  30  344  ; -47858664
2293  1D481600           [397] getglobal  32  89       ; ambientBeamEffectType
2297  5208000E           [398] move       33  28     
229B  9DC80700           [399] getglobal  34  31       ; ZERO_ROTATION
229F  A2478002           [400] call       30  5   1  
22A3  19460200           [401] loadk      24  9        ; 0
22A7  A4875600           [402] self       30  0   346  ; -1201586349
22AB  A2870001           [403] call       30  2   2  
22AF  98070000           [404] test       30      0    ; to [406] if true
22B3  1A400180           [405] jmp        6            ; to [412]
22B7  9DC71600           [406] getglobal  30  91       ; -1941280958
22BB  D9071700           [407] loadk      31  92       ; -51
22BF  19481700           [408] loadk      32  93       ; -51
22C3  A2878001           [409] call       30  3   2  
22C7  5C86060F           [410] div        25  30  26 
22CB  1A000180           [411] jmp        5            ; to [417]
22CF  9DC71600           [412] getglobal  30  91       ; -1941280958
22D3  D9871700           [413] loadk      31  94       ; -51
22D7  19C80900           [414] loadk      32  39       ; -102
22DB  A2878001           [415] call       30  3   2  
22DF  5C86060F           [416] div        25  30  26 
22E3  9D870200           [417] getglobal  30  10       ; Lotus_Game
22E7  8E47430F           [418] gettable   30  30  269  ; "PowerSuit_AUGMENT_PVP_ONE"
fail op	35
22EB  23808705           [419] close      0  
22EF  1A801280           [420] jmp        75           ; to [496]
fail op	35
22F3  63C04F04           [421] close      1  
22F7  1A001280           [422] jmp        73           ; to [496]
22FB  8A070004           [423] len        30  8      
22FF  D9870600           [424] loadk      31  26       ; 0
2303  19880C00           [425] loadk      32  50       ; 0
2307  90470C80           [426] forprep    30  50       ; to [477]
230B  8E480804           [427] gettable   34  8   33 
230F  DD080400           [428] getglobal  35  16       ; 1074689893
2313  12090011           [429] move       36  34     
2317  E2880001           [430] call       35  2   2  
231B  D8480000           [431] test       35      1    ; to [433] if false
231F  1A800280           [432] jmp        11           ; to [444]
fail op	35
2323  63000011           [433] close      1  
2327  1A000280           [434] jmp        9            ; to [444]
232B  E4485411           [435] self       35  34  337  ; 1511086594
232F  E2880001           [436] call       35  2   2  
2333  D8480000           [437] test       35      1    ; to [439] if false
2337  1A000180           [438] jmp        5            ; to [444]
233B  E4C85711           [439] self       35  34  351  ; 1800191191
233F  52090000           [440] move       37  0      
2343  E2888001           [441] call       35  3   2  
2347  D8080000           [442] test       35      0    ; to [444] if true
234B  1A400180           [443] jmp        6            ; to [450]
234F  DD081800           [444] getglobal  35  96       ; table
2353  CE48D811           [445] gettable   35  35  353  ; -843973282
2357  12090004           [446] move       36  8      
235B  52098010           [447] move       37  33     
235F  E2488001           [448] call       35  3   1  
2363  1A800680           [449] jmp        27           ; to [477]
2367  E4885811           [450] self       35  34  354  ; -427739093
236B  E2880001           [451] call       35  2   2  
236F  24895800           [452] self       36  0   354  ; -427739093
2373  22890001           [453] call       36  2   2  
2377  5D091500           [454] getglobal  37  84       ; math
237B  4EC9D812           [455] gettable   37  37  355  ; -113279800
237F  8E09D911           [456] gettable   38  35  356  ; "y"
2383  CE095912           [457] gettable   39  36  356  ; "y"
2387  8DC90913           [458] sub        38  38  39 
238B  62890001           [459] call       37  2   2  
fail op	33
238F  2140D912           [460] tforloop   0       357  ; to [462] if exit
2393  1A800380           [461] jmp        15           ; to [477]
2397  4E095912           [462] gettable   37  36  356  ; "y"
239B  CC4809B2           [463] settable   35  356 37   ; "y"
239F  5D891900           [464] getglobal  37  102      ; -1331746705
23A3  92098011           [465] move       38  35     
23A7  D2090012           [466] move       39  36     
23AB  62898001           [467] call       37  3   2  
fail op	33
23AF  21C0D912           [468] tforloop   0       359  ; to [470] if exit
23B3  1A800180           [469] jmp        7            ; to [477]
23B7  53098001           [470] getupval   37  3      
23BB  C3408901           [471] add        3   3   37 
23BF  5D091800           [472] getglobal  37  96       ; table
23C3  4E49D812           [473] gettable   37  37  353  ; -843973282
23C7  92090004           [474] move       38  8      
23CB  D2098010           [475] move       39  33     
23CF  62498001           [476] call       37  3   1  
23D3  9407F37F           [477] forloop    30  -51      ; to [427] if loop
23D7  4A090004           [478] len        37  8      
fail op	35
23DB  2340C212           [479] close      0  
23DF  1A800380           [480] jmp        15           ; to [496]
23E3  06020004           [481] loadnil    8   8      
23E7  1A000380           [482] jmp        13           ; to [496]
23EB  64095A00           [483] self       37  0   360  ; -214694299
23EF  DD491A00           [484] getglobal  39  105      ; Engine
23F3  CE89DA13           [485] gettable   39  39  362  ; "PM_DODGE"
23F7  62898001           [486] call       37  3   2  
23FB  58090000           [487] test       37      0    ; to [489] if true
23FF  1A800180           [488] jmp        7            ; to [496]
2403  64C95A00           [489] self       37  0   363  ; 709922387
2407  62890001           [490] call       37  2   2  
240B  9D491A00           [491] getglobal  38  105      ; Engine
240F  8E095B13           [492] gettable   38  38  364  ; "BACKWARD"
fail op	35
2413  23808912           [493] close      0  
2417  1A000080           [494] jmp        1            ; to [496]
241B  1A400280           [495] jmp        10           ; to [506]
241F  5D890D00           [496] getglobal  37  54       ; 538022378
2423  99490200           [497] loadk      38  9        ; 0
2427  62490001           [498] call       37  2   1  
242B  5D890B00           [499] getglobal  37  46       ; 1289681407
242F  62898000           [500] call       37  1   2  
2433  0346090C           [501] add        24  24  37 
2437  5D890B00           [502] getglobal  37  46       ; 1289681407
243B  62898000           [503] call       37  1   2  
243F  CD408901           [504] sub        3   3   37 
2443  1A00D27F           [505] jmp        -183         ; to [323]
2447  5D890300           [506] getglobal  37  14       ; gRegion
244B  6489CF12           [507] self       37  37  318  ; -1520831144
244F  62890001           [508] call       37  2   2  
2453  58090000           [509] test       37      0    ; to [511] if true
2457  1A400D80           [510] jmp        54           ; to [565]
fail op	35
245B  63C04F03           [511] close      1  
245F  1A800580           [512] jmp        23           ; to [536]
2463  D8410000           [513] test       7       1    ; to [515] if false
2467  1A000580           [514] jmp        21           ; to [536]
fail op	21
246B  15C08084           [515] concat     0   265 3  
246F  1A800480           [516] jmp        19           ; to [536]
2473  5D490400           [517] getglobal  37  17       ; _T
2477  4E89C412           [518] gettable   37  37  274  ; "voltSpeed"
247B  4E098312           [519] gettable   37  37  12 
fail op	35
247F  2340890A           [520] close      0  
2483  1A400380           [521] jmp        14           ; to [536]
2487  5D890200           [522] getglobal  37  10       ; Lotus_Game
248B  4E09D012           [523] gettable   37  37  320  ; -84065502
248F  62898000           [524] call       37  1   2  
2493  4C4980A0           [525] settable   37  321 1    ; "instigator"
2497  8B098000           [526] newtable   38  1   0    ; array=1, hash=0
249B  D2090000           [527] move       39  0      
249F  9B498000           [528] setlist    38  1   1    ; index 1 to 1
24A3  4C8909A1           [529] settable   37  322 38   ; "affected"
24A7  4C8981A2           [530] settable   37  325 6    ; "abilityType"
24AB  A4C95100           [531] self       38  0   327  ; 1481577430
24AF  120A8012           [532] move       40  37     
24B3  570A0000           [533] loadbool   41  0   0    ; false
24B7  970A8000           [534] loadbool   42  1   0    ; true
24BB  A2498002           [535] call       38  5   1  
24BF  A4495400           [536] self       38  0   337  ; 1511086594
24C3  A2890001           [537] call       38  2   2  
24C7  98490000           [538] test       38      1    ; to [540] if false
24CB  1A000680           [539] jmp        25           ; to [565]
24CF  A4495B0B           [540] self       38  22  365  ; 1517555237
24D3  130A0003           [541] getupval   40  6      
24D7  5D4A1200           [542] getglobal  41  73       ; Game
24DB  4E8AD214           [543] gettable   41  41  330  ; "WEAPON_FIRE_RATE"
24DF  9D4A1200           [544] getglobal  42  73       ; Game
24E3  8ECA5215           [545] gettable   42  42  331  ; "STACKING_MULTIPLY"
24E7  D20A0002           [546] move       43  4      
24EB  1D0B1300           [547] getglobal  44  76       ; gLotusMeleeWeaponType
24EF  A2498003           [548] call       38  7   1  
24F3  A4495B0B           [549] self       38  22  365  ; 1517555237
24F7  130A8003           [550] getupval   40  7      
24FB  5D4A1200           [551] getglobal  41  73       ; Game
24FF  4E4AD314           [552] gettable   41  41  333  ; "AVATAR_MOVEMENT_SPEED"
2503  9D4A1200           [553] getglobal  42  73       ; Game
2507  8ECA5215           [554] gettable   42  42  331  ; "STACKING_MULTIPLY"
250B  D20A0002           [555] move       43  4      
250F  A2490003           [556] call       38  6   1  
2513  A4495B0B           [557] self       38  22  365  ; 1517555237
2517  130A0004           [558] getupval   40  8      
251B  5D4A1200           [559] getglobal  41  73       ; Game
251F  4E8AD314           [560] gettable   41  41  334  ; "WEAPON_RELOAD_SPEED"
2523  9D4A1200           [561] getglobal  42  73       ; Game
2527  8ECA5215           [562] gettable   42  42  331  ; "STACKING_MULTIPLY"
252B  D20A8002           [563] move       43  5      
252F  A2490003           [564] call       38  6   1  
2533  D8010000           [565] test       7       0    ; to [567] if true
2537  1A800180           [566] jmp        7            ; to [574]
253B  9D490400           [567] getglobal  38  17       ; _T
253F  8EC95413           [568] gettable   38  38  339  ; 414831371
2543  D2090003           [569] move       39  6      
2547  120A0000           [570] move       40  0      
254B  594A0200           [571] loadk      41  9        ; 0
254F  920A0008           [572] move       42  16     
2553  A2498002           [573] call       38  5   1  
2557  9D490400           [574] getglobal  38  17       ; _T
255B  8E894413           [575] gettable   38  38  274  ; "voltSpeed"
255F  DD490400           [576] getglobal  39  17       ; _T
2563  CE89C413           [577] gettable   39  39  274  ; "voltSpeed"
2567  CE098313           [578] gettable   39  39  12 
256B  CD89C613           [579] sub        39  39  282  ; 0
256F  8CC90906           [580] settable   38  12  39 
2573  9D490400           [581] getglobal  38  17       ; _T
2577  8E894413           [582] gettable   38  38  274  ; "voltSpeed"
257B  8E090313           [583] gettable   38  38  12 
fail op	35
257F  23404213           [584] close      0  
2583  1AC01380           [585] jmp        80           ; to [666]
2587  9D490400           [586] getglobal  38  17       ; _T
258B  8E894413           [587] gettable   38  38  274  ; "voltSpeed"
258F  8CC94F06           [588] settable   38  12  319  ; nil
2593  9D090400           [589] getglobal  38  16       ; 1074689893
2597  D2098007           [590] move       39  15     
259B  A2890001           [591] call       38  2   2  
259F  98490000           [592] test       38      1    ; to [594] if false
25A3  1A400080           [593] jmp        2            ; to [596]
25A7  A489DB07           [594] self       38  15  366  ; -725453761
25AB  A2490001           [595] call       38  2   1  
25AF  9D090400           [596] getglobal  38  16       ; 1074689893
25B3  D2090000           [597] move       39  0      
25B7  A2890001           [598] call       38  2   2  
25BB  98490000           [599] test       38      1    ; to [601] if false
25BF  1A001080           [600] jmp        65           ; to [666]
25C3  A4094800           [601] self       38  0   288  ; -717859730
25C7  A2890001           [602] call       38  2   2  
25CB  98090000           [603] test       38      0    ; to [605] if true
25CF  1A000F80           [604] jmp        61           ; to [666]
25D3  A4C94800           [605] self       38  0   291  ; 1525877273
25D7  A2890001           [606] call       38  2   2  
fail op	35
25DB  63C04F13           [607] close      1  
25DF  1A800A80           [608] jmp        43           ; to [652]
25E3  DD890300           [609] getglobal  39  14       ; gRegion
25E7  E409C913           [610] self       39  39  292  ; -1456226250
25EB  E2890001           [611] call       39  2   2  
25EF  E449C913           [612] self       39  39  293  ; 1127159716
25F3  E2890001           [613] call       39  2   2  
fail op	35
25F7  23400000           [614] close      0  
25FB  1A800880           [615] jmp        35           ; to [651]
25FF  198A0600           [616] loadk      40  26       ; 0
fail op	21
2603  15008A84           [617] concat     0   265 40 
2607  1AC00580           [618] jmp        24           ; to [643]
260B  5D0A0400           [619] getglobal  41  16       ; 1074689893
260F  920A0013           [620] move       42  38     
2613  628A0001           [621] call       41  2   2  
2617  584A0000           [622] test       41      1    ; to [624] if false
261B  1A800480           [623] jmp        19           ; to [643]
261F  5D4A0400           [624] getglobal  41  17       ; _T
2623  4E8AC414           [625] gettable   41  41  274  ; "voltSpeed"
2627  4ECADB14           [626] gettable   41  41  367  ; "hasLocalBuff"
fail op	35
262B  23C0CF14           [627] close      0  
262F  1A400380           [628] jmp        14           ; to [643]
2633  648A4A13           [629] self       41  38  298  ; -1888027794
2637  C44A4B14           [630] mul        43  40  301  ; -102
263B  C3CA0A8D           [631] add        43  282 43   ; 0
263F  624A8001           [632] call       41  3   1  
2643  5D8A0B00           [633] getglobal  41  46       ; 1289681407
2647  628A8000           [634] call       41  1   2  
264B  448AC614           [635] mul        41  41  282  ; 0
264F  0D4A0A14           [636] sub        40  40  41 
2653  444A4D14           [637] mul        41  40  309  ; -51
2657  CC490A9A           [638] settable   39  308 41   ; "bloom"
265B  5D8A0D00           [639] getglobal  41  54       ; 538022378
265F  994A0200           [640] loadk      42  9        ; 0
2663  624A0001           [641] call       41  2   1  
2667  1A40F97F           [642] jmp        -26          ; to [617]
266B  5D0A0400           [643] getglobal  41  16       ; 1074689893
266F  920A0013           [644] move       42  38     
2673  628A0001           [645] call       41  2   2  
2677  584A0000           [646] test       41      1    ; to [648] if false
267B  1A800080           [647] jmp        3            ; to [651]
267F  648A4A13           [648] self       41  38  298  ; -1888027794
2683  D98A0600           [649] loadk      43  26       ; 0
2687  624A8001           [650] call       41  3   1  
268B  CC094BB8           [651] settable   39  368 300  ; "bloomBoost" 0
268F  5D8A0200           [652] getglobal  41  10       ; Lotus_Game
2693  4ECAC214           [653] gettable   41  41  267  ; "PowerSuit_AUGMENT_ONE"
fail op	35
2697  23408A05           [654] close      0  
269B  1A400280           [655] jmp        10           ; to [666]
269F  640A4F00           [656] self       41  0   316  ; -1625438872
26A3  DDCA0D00           [657] getglobal  43  55       ; augmentOneElementType
26A7  628A8001           [658] call       41  3   2  
26AB  9D0A0400           [659] getglobal  42  16       ; 1074689893
26AF  D20A8014           [660] move       43  41     
26B3  A28A0001           [661] call       42  2   2  
26B7  984A0000           [662] test       42      1    ; to [664] if false
26BB  1A400080           [663] jmp        2            ; to [666]
26BF  A48ADB14           [664] self       42  41  366  ; -725453761
26C3  A24A0001           [665] call       42  2   1  
26C7  1E008000           [666] return     0   1      
                         * constants:
26CB  71                 sizek (113)
26CC  04                 const type 4
26CD  08                 string size (8)
26CE  63726561746F7200   "creator\0"
                         const [0]: "creator"
26D6  04                 const type 4
26D7  0C                 string size (12)
26D8  63726561746F7253+  "creatorS"
26E0  75697400           "uit\0"
                         const [1]: "creatorSuit"
26E4  04                 const type 4
26E5  0D                 string size (13)
26E6  6261736544757261+  "baseDura"
26EE  74696F6E00         "tion\0"
                         const [2]: "baseDuration"
26F3  04                 const type 4
26F4  0B                 string size (11)
26F5  626173655370644D+  "baseSpdM"
26FD  756C00             "ul\0"
                         const [3]: "baseSpdMul"
2700  04                 const type 4
2701  14                 string size (20)
2702  6261736552656C6F+  "baseRelo"
270A  6164537065656442+  "adSpeedB"
2712  75666600           "uff\0"
                         const [4]: "baseReloadSpeedBuff"
2716  04                 const type 4
2717  07                 string size (7)
2718  6D4F776E657200     "mOwner\0"
                         const [5]: "mOwner"
271F  01                 const type 3
2720  652CB3E2           const [6]: (-491574171)
2724  01                 const type 3
2725  040591FD           const [7]: (-40827644)
2729  01                 const type 3
272A  97918446           const [8]: (1183093143)
272E  03                 const type 3
272F  00000000           const [9]: (0)
2733  04                 const type 4
2734  0B                 string size (11)
2735  4C6F7475735F4761+  "Lotus_Ga"
273D  6D6500             "me\0"
                         const [10]: "Lotus_Game"
2740  04                 const type 4
2741  16                 string size (22)
2742  506F776572537569+  "PowerSui"
274A  745F4155474D454E+  "t_AUGMEN"
2752  545F4F4E4500       "T_ONE\0"
                         const [11]: "PowerSuit_AUGMENT_ONE"
2758  04                 const type 4
2759  0C                 string size (12)
275A  6175676D656E7453+  "augmentS"
2762  74617400           "tat\0"
                         const [12]: "augmentStat"
2766  04                 const type 4
2767  1A                 string size (26)
2768  506F776572537569+  "PowerSui"
2770  745F4155474D454E+  "t_AUGMEN"
2778  545F5056505F4F4E+  "T_PVP_ON"
2780  4500               "E\0"
                         const [13]: "PowerSuit_AUGMENT_PVP_ONE"
2782  04                 const type 4
2783  08                 string size (8)
2784  67526567696F6E00   "gRegion\0"
                         const [14]: "gRegion"
278C  01                 const type 3
278D  E09F8C84           const [15]: (-2071158816)
2791  01                 const type 3
2792  65770E40           const [16]: (1074689893)
2796  04                 const type 4
2797  03                 string size (3)
2798  5F5400             "_T\0"
                         const [17]: "_T"
279B  04                 const type 4
279C  0A                 string size (10)
279D  766F6C7453706565+  "voltSpee"
27A5  6400               "d\0"
                         const [18]: "voltSpeed"
27A7  01                 const type 3
27A8  B60FEFDB           const [19]: (-605089866)
27AC  01                 const type 3
27AD  1FD0B58D           const [20]: (-1917464545)
27B1  01                 const type 3
27B2  59AC7869           const [21]: (1769516121)
27B6  01                 const type 3
27B7  2D6F9EDD           const [22]: (-576819411)
27BB  01                 const type 3
27BC  1A4B27EC           const [23]: (-332969190)
27C0  04                 const type 4
27C1  11                 string size (17)
27C2  5370656564416D62+  "SpeedAmb"
27CA  69656E744265616D+  "ientBeam"
27D2  00                 "\0"
                         const [24]: "SpeedAmbientBeam"
27D3  01                 const type 3
27D4  05D16911           const [25]: (292147461)
27D8  03                 const type 3
27D9  0000803F           const [26]: (0)
27DD  01                 const type 3
27DE  F26E43AB           const [27]: (-1421644046)
27E2  04                 const type 4
27E3  0C                 string size (12)
27E4  5370656564417474+  "SpeedAtt"
27EC  61636800           "ach\0"
                         const [28]: "SpeedAttach"
27F0  04                 const type 4
27F1  0D                 string size (13)
27F2  454D5054595F5359+  "EMPTY_SY"
27FA  4D424F4C00         "MBOL\0"
                         const [29]: "EMPTY_SYMBOL"
27FF  04                 const type 4
2800  0C                 string size (12)
2801  5A45524F5F564543+  "ZERO_VEC"
2809  544F5200           "TOR\0"
                         const [30]: "ZERO_VECTOR"
280D  04                 const type 4
280E  0E                 string size (14)
280F  5A45524F5F524F54+  "ZERO_ROT"
2817  4154494F4E00       "ATION\0"
                         const [31]: "ZERO_ROTATION"
281D  01                 const type 3
281E  6E5436D5           const [32]: (-717859730)
2822  01                 const type 3
2823  94239925           const [33]: (630793108)
2827  04                 const type 4
2828  0B                 string size (11)
2829  5370656564536F75+  "SpeedSou"
2831  6E6400             "nd\0"
                         const [34]: "SpeedSound"
2834  01                 const type 3
2835  190AF35A           const [35]: (1525877273)
2839  01                 const type 3
283A  36C033A9           const [36]: (-1456226250)
283E  01                 const type 3
283F  A4172F43           const [37]: (1127159716)
2843  01                 const type 3
2844  BA36FD09           const [38]: (167589562)
2848  03                 const type 3
2849  9A99993F           const [39]: (-102)
284D  03                 const type 3
284E  6666863F           const [40]: (102)
2852  03                 const type 3
2853  00004040           const [41]: (0)
2857  01                 const type 3
2858  6EFB768F           const [42]: (-1888027794)
285C  01                 const type 3
285D  8FCE9730           const [43]: (815255183)
2861  03                 const type 3
2862  0000003F           const [44]: (0)
2866  03                 const type 3
2867  9A99193E           const [45]: (-102)
286B  01                 const type 3
286C  FFF9DE4C           const [46]: (1289681407)
2870  03                 const type 3
2871  00008040           const [47]: (0)
2875  01                 const type 3
2876  C4DD138E           const [48]: (-1911300668)
287A  01                 const type 3
287B  D93A00A7           const [49]: (-1493157159)
287F  03                 const type 3
2880  000080BF           const [50]: (0)
2884  03                 const type 3
2885  00000040           const [51]: (0)
2889  04                 const type 4
288A  06                 string size (6)
288B  626C6F6F6D00       "bloom\0"
                         const [52]: "bloom"
2891  03                 const type 3
2892  CDCCCC3D           const [53]: (-51)
2896  01                 const type 3
2897  EA911120           const [54]: (538022378)
289B  04                 const type 4
289C  16                 string size (22)
289D  6175676D656E744F+  "augmentO"
28A5  6E65456C656D656E+  "neElemen"
28AD  745479706500       "tType\0"
                         const [55]: "augmentOneElementType"
28B3  04                 const type 4
28B4  0D                 string size (13)
28B5  47414D455F43315F+  "GAME_C1_"
28BD  4849503100         "HIP1\0"
                         const [56]: "GAME_C1_HIP1"
28C2  01                 const type 3
28C3  35D2DA85           const [57]: (-2049256907)
28C7  01                 const type 3
28C8  BDB421E3           const [58]: (-484330307)
28CC  01                 const type 3
28CD  71E74131           const [59]: (826402673)
28D1  01                 const type 3
28D2  68C51D9F           const [60]: (-1625438872)
28D6  04                 const type 4
28D7  0B                 string size (11)
28D8  5370656564427572+  "SpeedBur"
28E0  737400             "st\0"
                         const [61]: "SpeedBurst"
28E3  01                 const type 3
28E4  58F559A5           const [62]: (-1520831144)
28E8  00                 const type 0
                         const [63]: nil
28E9  01                 const type 3
28EA  2243FDFA           const [64]: (-84065502)
28EE  04                 const type 4
28EF  0B                 string size (11)
28F0  696E737469676174+  "instigat"
28F8  6F7200             "or\0"
                         const [65]: "instigator"
28FB  04                 const type 4
28FC  09                 string size (9)
28FD  6166666563746564+  "affected"
2905  00                 "\0"
                         const [66]: "affected"
2906  04                 const type 4
2907  09                 string size (9)
2908  6275666654797065+  "buffType"
2910  00                 "\0"
                         const [67]: "buffType"
2911  04                 const type 4
2912  09                 string size (9)
2913  42545F54494D4552+  "BT_TIMER"
291B  00                 "\0"
                         const [68]: "BT_TIMER"
291C  04                 const type 4
291D  0C                 string size (12)
291E  6162696C69747954+  "abilityT"
2926  79706500           "ype\0"
                         const [69]: "abilityType"
292A  04                 const type 4
292B  09                 string size (9)
292C  6275666644617461+  "buffData"
2934  00                 "\0"
                         const [70]: "buffData"
2935  01                 const type 3
2936  D6134F58           const [71]: (1481577430)
293A  01                 const type 3
293B  C3E68546           const [72]: (1183180483)
293F  04                 const type 4
2940  05                 string size (5)
2941  47616D6500         "Game\0"
                         const [73]: "Game"
2946  04                 const type 4
2947  11                 string size (17)
2948  574541504F4E5F46+  "WEAPON_F"
2950  4952455F52415445+  "IRE_RATE"
2958  00                 "\0"
                         const [74]: "WEAPON_FIRE_RATE"
2959  04                 const type 4
295A  12                 string size (18)
295B  535441434B494E47+  "STACKING"
2963  5F4D554C5449504C+  "_MULTIPL"
296B  5900               "Y\0"
                         const [75]: "STACKING_MULTIPLY"
296D  04                 const type 4
296E  16                 string size (22)
296F  674C6F7475734D65+  "gLotusMe"
2977  6C6565576561706F+  "leeWeapo"
297F  6E5479706500       "nType\0"
                         const [76]: "gLotusMeleeWeaponType"
2985  04                 const type 4
2986  16                 string size (22)
2987  4156415441525F4D+  "AVATAR_M"
298F  4F56454D454E545F+  "OVEMENT_"
2997  535045454400       "SPEED\0"
                         const [77]: "AVATAR_MOVEMENT_SPEED"
299D  04                 const type 4
299E  14                 string size (20)
299F  574541504F4E5F52+  "WEAPON_R"
29A7  454C4F41445F5350+  "ELOAD_SP"
29AF  45454400           "EED\0"
                         const [78]: "WEAPON_RELOAD_SPEED"
29B3  03                 const type 3
29B4  CDCC4C3D           const [79]: (-51)
29B8  01                 const type 3
29B9  F6CB3C93           const [80]: (-1824732170)
29BD  01                 const type 3
29BE  025A115A           const [81]: (1511086594)
29C2  01                 const type 3
29C3  DCD87B6E           const [82]: (1853610204)
29C7  01                 const type 3
29C8  0BD3B918           const [83]: (414831371)
29CC  04                 const type 4
29CD  05                 string size (5)
29CE  6D61746800         "math\0"
                         const [84]: "math"
29D3  01                 const type 3
29D4  F7615986           const [85]: (-2040962569)
29D8  01                 const type 3
29D9  0416B0A2           const [86]: (-1565518332)
29DD  01                 const type 3
29DE  CFBD2C4E           const [87]: (1311555023)
29E2  01                 const type 3
29E3  18BC25FD           const [88]: (-47858664)
29E7  04                 const type 4
29E8  16                 string size (22)
29E9  616D6269656E7442+  "ambientB"
29F1  65616D4566666563+  "eamEffec"
29F9  745479706500       "tType\0"
                         const [89]: "ambientBeamEffectType"
29FF  01                 const type 3
2A00  533F61B8           const [90]: (-1201586349)
2A04  01                 const type 3
2A05  42674A8C           const [91]: (-1941280958)
2A09  03                 const type 3
2A0A  CDCC4C3E           const [92]: (-51)
2A0E  03                 const type 3
2A0F  CDCCCC3E           const [93]: (-51)
2A13  03                 const type 3
2A14  CDCC4C3F           const [94]: (-51)
2A18  01                 const type 3
2A19  D7BC4C6B           const [95]: (1800191191)
2A1D  04                 const type 4
2A1E  06                 string size (6)
2A1F  7461626C6500       "table\0"
                         const [96]: "table"
2A25  01                 const type 3
2A26  5EFDB1CD           const [97]: (-843973282)
2A2A  01                 const type 3
2A2B  2B3881E6           const [98]: (-427739093)
2A2F  01                 const type 3
2A30  C87C3FF9           const [99]: (-113279800)
2A34  04                 const type 4
2A35  02                 string size (2)
2A36  7900               "y\0"
                         const [100]: "y"
2A38  03                 const type 3
2A39  00001040           const [101]: (0)
2A3D  01                 const type 3
2A3E  6F289FB0           const [102]: (-1331746705)
2A42  03                 const type 3
2A43  0000A03F           const [103]: (0)
2A47  01                 const type 3
2A48  650634F3           const [104]: (-214694299)
2A4C  04                 const type 4
2A4D  07                 string size (7)
2A4E  456E67696E6500     "Engine\0"
                         const [105]: "Engine"
2A55  04                 const type 4
2A56  09                 string size (9)
2A57  504D5F444F444745+  "PM_DODGE"
2A5F  00                 "\0"
                         const [106]: "PM_DODGE"
2A60  01                 const type 3
2A61  538E502A           const [107]: (709922387)
2A65  04                 const type 4
2A66  09                 string size (9)
2A67  4241434B57415244+  "BACKWARD"
2A6F  00                 "\0"
                         const [108]: "BACKWARD"
2A70  01                 const type 3
2A71  250E745A           const [109]: (1517555237)
2A75  01                 const type 3
2A76  3F74C2D4           const [110]: (-725453761)
2A7A  04                 const type 4
2A7B  0D                 string size (13)
2A7C  6861734C6F63616C+  "hasLocal"
2A84  4275666600         "Buff\0"
                         const [111]: "hasLocalBuff"
2A89  04                 const type 4
2A8A  0B                 string size (11)
2A8B  626C6F6F6D426F6F+  "bloomBoo"
2A93  737400             "st\0"
                         const [112]: "bloomBoost"
                         * functions:
2A96  00                 sizep (0)
                         * lines:
2A98  05                 sizelineinfo (666)
                         [pc] (line)
2A99  05                 [001] (5)
2A9A  01                 [002] (5)
2A9B  00                 [003] (6)
2A9C  00                 [004] (6)
2A9D  05                 [005] (7)
2A9E  01                 [006] (7)
2A9F  00                 [007] (8)
2AA0  00                 [008] (8)
2AA1  06                 [009] (9)
2AA2  01                 [010] (9)
2AA3  00                 [011] (11)
2AA4  00                 [012] (11)
2AA5  06                 [013] (11)
2AA6  01                 [014] (12)
2AA7  00                 [015] (12)
2AA8  00                 [016] (12)
2AA9  07                 [017] (12)
2AAA  01                 [018] (14)
2AAB  00                 [019] (15)
2AAC  00                 [020] (15)
2AAD  07                 [021] (15)
2AAE  01                 [022] (16)
2AAF  00                 [023] (16)
2AB0  00                 [024] (16)
2AB1  08                 [025] (17)
2AB2  01                 [026] (18)
2AB3  00                 [027] (18)
2AB4  00                 [028] (19)
2AB5  08                 [029] (19)
2AB6  01                 [030] (19)
2AB7  00                 [031] (19)
2AB8  00                 [032] (20)
2AB9  09                 [033] (20)
2ABA  01                 [034] (20)
2ABB  00                 [035] (20)
2ABC  00                 [036] (21)
2ABD  09                 [037] (21)
2ABE  01                 [038] (21)
2ABF  00                 [039] (21)
2AC0  00                 [040] (21)
2AC1  0B                 [041] (21)
2AC2  01                 [042] (22)
2AC3  00                 [043] (22)
2AC4  00                 [044] (22)
2AC5  0B                 [045] (23)
2AC6  01                 [046] (23)
2AC7  00                 [047] (23)
2AC8  00                 [048] (23)
2AC9  0B                 [049] (25)
2ACA  01                 [050] (28)
2ACB  00                 [051] (28)
2ACC  00                 [052] (28)
2ACD  0C                 [053] (28)
2ACE  01                 [054] (28)
2ACF  00                 [055] (28)
2AD0  00                 [056] (29)
2AD1  0C                 [057] (29)
2AD2  01                 [058] (29)
2AD3  00                 [059] (32)
2AD4  00                 [060] (32)
2AD5  0C                 [061] (33)
2AD6  01                 [062] (33)
2AD7  00                 [063] (33)
2AD8  00                 [064] (33)
2AD9  0C                 [065] (34)
2ADA  01                 [066] (34)
2ADB  00                 [067] (34)
2ADC  00                 [068] (34)
2ADD  0E                 [069] (34)
2ADE  01                 [070] (35)
2ADF  00                 [071] (36)
2AE0  00                 [072] (36)
2AE1  0F                 [073] (36)
2AE2  01                 [074] (38)
2AE3  00                 [075] (38)
2AE4  00                 [076] (38)
2AE5  0F                 [077] (38)
2AE6  01                 [078] (38)
2AE7  00                 [079] (38)
2AE8  00                 [080] (38)
2AE9  0F                 [081] (39)
2AEA  01                 [082] (39)
2AEB  00                 [083] (39)
2AEC  00                 [084] (41)
2AED  10                 [085] (41)
2AEE  01                 [086] (41)
2AEF  00                 [087] (41)
2AF0  00                 [088] (41)
2AF1  10                 [089] (41)
2AF2  01                 [090] (41)
2AF3  00                 [091] (41)
2AF4  00                 [092] (41)
2AF5  10                 [093] (41)
2AF6  01                 [094] (41)
2AF7  00                 [095] (41)
2AF8  00                 [096] (42)
2AF9  11                 [097] (42)
2AFA  01                 [098] (42)
2AFB  00                 [099] (42)
2AFC  00                 [100] (43)
2AFD  12                 [101] (43)
2AFE  01                 [102] (43)
2AFF  00                 [103] (43)
2B00  00                 [104] (43)
2B01  12                 [105] (43)
2B02  01                 [106] (45)
2B03  00                 [107] (45)
2B04  00                 [108] (46)
2B05  13                 [109] (46)
2B06  01                 [110] (46)
2B07  00                 [111] (46)
2B08  00                 [112] (46)
2B09  13                 [113] (47)
2B0A  01                 [114] (47)
2B0B  00                 [115] (47)
2B0C  00                 [116] (47)
2B0D  13                 [117] (47)
2B0E  01                 [118] (48)
2B0F  00                 [119] (48)
2B10  00                 [120] (49)
2B11  13                 [121] (49)
2B12  01                 [122] (49)
2B13  00                 [123] (49)
2B14  00                 [124] (49)
2B15  14                 [125] (49)
2B16  01                 [126] (50)
2B17  00                 [127] (51)
2B18  00                 [128] (51)
2B19  14                 [129] (51)
2B1A  01                 [130] (51)
2B1B  00                 [131] (51)
2B1C  00                 [132] (51)
2B1D  14                 [133] (51)
2B1E  01                 [134] (52)
2B1F  00                 [135] (52)
2B20  00                 [136] (52)
2B21  14                 [137] (52)
2B22  01                 [138] (52)
2B23  00                 [139] (52)
2B24  00                 [140] (52)
2B25  15                 [141] (52)
2B26  01                 [142] (52)
2B27  00                 [143] (52)
2B28  00                 [144] (52)
2B29  15                 [145] (52)
2B2A  01                 [146] (52)
2B2B  00                 [147] (53)
2B2C  00                 [148] (53)
2B2D  15                 [149] (53)
2B2E  01                 [150] (53)
2B2F  00                 [151] (54)
2B30  00                 [152] (54)
2B31  15                 [153] (54)
2B32  01                 [154] (54)
2B33  00                 [155] (54)
2B34  00                 [156] (54)
2B35  15                 [157] (54)
2B36  01                 [158] (55)
2B37  00                 [159] (55)
2B38  00                 [160] (56)
2B39  15                 [161] (56)
2B3A  01                 [162] (56)
2B3B  00                 [163] (56)
2B3C  00                 [164] (57)
2B3D  16                 [165] (59)
2B3E  01                 [166] (59)
2B3F  00                 [167] (59)
2B40  00                 [168] (59)
2B41  16                 [169] (59)
2B42  01                 [170] (59)
2B43  00                 [171] (63)
2B44  00                 [172] (63)
2B45  16                 [173] (63)
2B46  01                 [174] (63)
2B47  00                 [175] (64)
2B48  00                 [176] (64)
2B49  17                 [177] (64)
2B4A  01                 [178] (64)
2B4B  00                 [179] (64)
2B4C  00                 [180] (64)
2B4D  17                 [181] (65)
2B4E  01                 [182] (65)
2B4F  00                 [183] (65)
2B50  00                 [184] (65)
2B51  17                 [185] (65)
2B52  01                 [186] (66)
2B53  00                 [187] (66)
2B54  00                 [188] (66)
2B55  17                 [189] (67)
2B56  01                 [190] (67)
2B57  00                 [191] (67)
2B58  00                 [192] (68)
2B59  19                 [193] (68)
2B5A  01                 [194] (68)
2B5B  00                 [195] (71)
2B5C  00                 [196] (73)
2B5D  1C                 [197] (73)
2B5E  01                 [198] (73)
2B5F  00                 [199] (73)
2B60  00                 [200] (73)
2B61  1C                 [201] (73)
2B62  01                 [202] (73)
2B63  00                 [203] (74)
2B64  00                 [204] (74)
2B65  1C                 [205] (74)
2B66  01                 [206] (74)
2B67  00                 [207] (74)
2B68  00                 [208] (74)
2B69  1C                 [209] (74)
2B6A  01                 [210] (74)
2B6B  00                 [211] (75)
2B6C  00                 [212] (75)
2B6D  1C                 [213] (75)
2B6E  01                 [214] (75)
2B6F  00                 [215] (75)
2B70  00                 [216] (75)
2B71  1C                 [217] (75)
2B72  01                 [218] (75)
2B73  00                 [219] (75)
2B74  00                 [220] (75)
2B75  1D                 [221] (75)
2B76  01                 [222] (78)
2B77  00                 [223] (78)
2B78  00                 [224] (78)
2B79  1D                 [225] (80)
2B7A  01                 [226] (80)
2B7B  00                 [227] (82)
2B7C  00                 [228] (82)
2B7D  1D                 [229] (82)
2B7E  01                 [230] (82)
2B7F  00                 [231] (82)
2B80  00                 [232] (83)
2B81  20                 [233] (83)
2B82  01                 [234] (83)
2B83  00                 [235] (83)
2B84  00                 [236] (84)
2B85  20                 [237] (84)
2B86  01                 [238] (84)
2B87  00                 [239] (85)
2B88  00                 [240] (86)
2B89  21                 [241] (86)
2B8A  01                 [242] (86)
2B8B  00                 [243] (86)
2B8C  00                 [244] (87)
2B8D  21                 [245] (87)
2B8E  01                 [246] (87)
2B8F  00                 [247] (88)
2B90  00                 [248] (89)
2B91  21                 [249] (90)
2B92  01                 [250] (90)
2B93  00                 [251] (90)
2B94  00                 [252] (90)
2B95  21                 [253] (90)
2B96  01                 [254] (93)
2B97  00                 [255] (93)
2B98  00                 [256] (93)
2B99  22                 [257] (93)
2B9A  01                 [258] (93)
2B9B  00                 [259] (93)
2B9C  00                 [260] (93)
2B9D  22                 [261] (93)
2B9E  01                 [262] (93)
2B9F  00                 [263] (94)
2BA0  00                 [264] (94)
2BA1  22                 [265] (94)
2BA2  01                 [266] (94)
2BA3  00                 [267] (94)
2BA4  00                 [268] (94)
2BA5  22                 [269] (94)
2BA6  01                 [270] (94)
2BA7  00                 [271] (95)
2BA8  00                 [272] (95)
2BA9  22                 [273] (95)
2BAA  01                 [274] (95)
2BAB  00                 [275] (95)
2BAC  00                 [276] (95)
2BAD  23                 [277] (95)
2BAE  01                 [278] (95)
2BAF  00                 [279] (98)
2BB0  00                 [280] (99)
2BB1  24                 [281] (100)
2BB2  01                 [282] (100)
2BB3  00                 [283] (100)
2BB4  00                 [284] (102)
2BB5  24                 [285] (102)
2BB6  01                 [286] (102)
2BB7  00                 [287] (102)
2BB8  00                 [288] (102)
2BB9  24                 [289] (102)
2BBA  01                 [290] (102)
2BBB  00                 [291] (102)
2BBC  00                 [292] (102)
2BBD  26                 [293] (102)
2BBE  01                 [294] (102)
2BBF  00                 [295] (102)
2BC0  00                 [296] (102)
2BC1  26                 [297] (102)
2BC2  01                 [298] (102)
2BC3  00                 [299] (102)
2BC4  00                 [300] (102)
2BC5  26                 [301] (102)
2BC6  01                 [302] (102)
2BC7  00                 [303] (102)
2BC8  00                 [304] (102)
2BC9  26                 [305] (102)
2BCA  01                 [306] (102)
2BCB  00                 [307] (102)
2BCC  00                 [308] (102)
2BCD  26                 [309] (102)
2BCE  01                 [310] (102)
2BCF  00                 [311] (102)
2BD0  00                 [312] (102)
2BD1  26                 [313] (102)
2BD2  01                 [314] (102)
2BD3  00                 [315] (102)
2BD4  00                 [316] (103)
2BD5  26                 [317] (103)
2BD6  01                 [318] (103)
2BD7  00                 [319] (103)
2BD8  00                 [320] (103)
2BD9  27                 [321] (103)
2BDA  01                 [322] (103)
2BDB  00                 [323] (106)
2BDC  00                 [324] (106)
2BDD  27                 [325] (107)
2BDE  01                 [326] (107)
2BDF  00                 [327] (107)
2BE0  00                 [328] (107)
2BE1  27                 [329] (107)
2BE2  01                 [330] (108)
2BE3  00                 [331] (108)
2BE4  00                 [332] (108)
2BE5  29                 [333] (108)
2BE6  01                 [334] (109)
2BE7  00                 [335] (109)
2BE8  00                 [336] (109)
2BE9  29                 [337] (109)
2BEA  01                 [338] (109)
2BEB  00                 [339] (110)
2BEC  00                 [340] (110)
2BED  29                 [341] (110)
2BEE  01                 [342] (110)
2BEF  00                 [343] (110)
2BF0  00                 [344] (111)
2BF1  29                 [345] (111)
2BF2  01                 [346] (111)
2BF3  00                 [347] (111)
2BF4  00                 [348] (111)
2BF5  29                 [349] (111)
2BF6  01                 [350] (112)
2BF7  00                 [351] (112)
2BF8  00                 [352] (112)
2BF9  29                 [353] (112)
2BFA  01                 [354] (112)
2BFB  00                 [355] (114)
2BFC  00                 [356] (114)
2BFD  29                 [357] (114)
2BFE  01                 [358] (116)
2BFF  00                 [359] (116)
2C00  00                 [360] (117)
2C01  29                 [361] (117)
2C02  01                 [362] (117)
2C03  00                 [363] (117)
2C04  00                 [364] (118)
2C05  29                 [365] (118)
2C06  01                 [366] (118)
2C07  00                 [367] (118)
2C08  00                 [368] (118)
2C09  29                 [369] (118)
2C0A  01                 [370] (118)
2C0B  00                 [371] (118)
2C0C  00                 [372] (119)
2C0D  29                 [373] (119)
2C0E  01                 [374] (119)
2C0F  00                 [375] (119)
2C10  00                 [376] (119)
2C11  29                 [377] (120)
2C12  01                 [378] (120)
2C13  00                 [379] (120)
2C14  00                 [380] (121)
2C15  2A                 [381] (121)
2C16  01                 [382] (121)
2C17  00                 [383] (121)
2C18  00                 [384] (121)
2C19  2A                 [385] (121)
2C1A  01                 [386] (121)
2C1B  00                 [387] (122)
2C1C  00                 [388] (122)
2C1D  2A                 [389] (122)
2C1E  01                 [390] (122)
2C1F  00                 [391] (122)
2C20  00                 [392] (123)
2C21  2A                 [393] (123)
2C22  01                 [394] (123)
2C23  00                 [395] (124)
2C24  00                 [396] (124)
2C25  2B                 [397] (124)
2C26  01                 [398] (124)
2C27  00                 [399] (124)
2C28  00                 [400] (124)
2C29  2B                 [401] (-128)
2C2A  01                 [402] (-126)
2C2B  00                 [403] (-126)
2C2C  00                 [404] (-126)
2C2D  2B                 [405] (-126)
2C2E  01                 [406] (-125)
2C2F  00                 [407] (-125)
2C30  00                 [408] (-125)
2C31  2B                 [409] (-125)
2C32  01                 [410] (-125)
2C33  00                 [411] (-125)
2C34  00                 [412] (-123)
2C35  2B                 [413] (-123)
2C36  01                 [414] (-123)
2C37  00                 [415] (-123)
2C38  00                 [416] (-123)
2C39  2B                 [417] (-119)
2C3A  01                 [418] (-119)
2C3B  00                 [419] (-119)
2C3C  00                 [420] (-119)
2C3D  2D                 [421] (-119)
2C3E  01                 [422] (-119)
2C3F  00                 [423] (-118)
2C40  00                 [424] (-118)
2C41  2D                 [425] (-118)
2C42  01                 [426] (-118)
2C43  00                 [427] (-117)
2C44  00                 [428] (-116)
2C45  2E                 [429] (-116)
2C46  01                 [430] (-116)
2C47  00                 [431] (-116)
2C48  00                 [432] (-116)
2C49  2E                 [433] (-116)
2C4A  01                 [434] (-116)
2C4B  00                 [435] (-116)
2C4C  00                 [436] (-116)
2C4D  2E                 [437] (-116)
2C4E  01                 [438] (-116)
2C4F  00                 [439] (-116)
2C50  00                 [440] (-116)
2C51  2E                 [441] (-116)
2C52  01                 [442] (-116)
2C53  00                 [443] (-116)
2C54  00                 [444] (-115)
2C55  2E                 [445] (-115)
2C56  01                 [446] (-115)
2C57  00                 [447] (-115)
2C58  00                 [448] (-115)
2C59  2F                 [449] (-115)
2C5A  01                 [450] (-113)
2C5B  00                 [451] (-113)
2C5C  00                 [452] (-112)
2C5D  2F                 [453] (-112)
2C5E  01                 [454] (-111)
2C5F  00                 [455] (-111)
2C60  00                 [456] (-111)
2C61  2F                 [457] (-111)
2C62  01                 [458] (-111)
2C63  00                 [459] (-111)
2C64  00                 [460] (-111)
2C65  2F                 [461] (-111)
2C66  01                 [462] (-110)
2C67  00                 [463] (-110)
2C68  00                 [464] (-109)
2C69  2F                 [465] (-109)
2C6A  01                 [466] (-109)
2C6B  00                 [467] (-109)
2C6C  00                 [468] (-109)
2C6D  30                 [469] (-109)
2C6E  01                 [470] (-108)
2C6F  00                 [471] (-108)
2C70  00                 [472] (-107)
2C71  30                 [473] (-107)
2C72  01                 [474] (-107)
2C73  00                 [475] (-107)
2C74  00                 [476] (-107)
2C75  31                 [477] (-118)
2C76  01                 [478] (-101)
2C77  00                 [479] (-101)
2C78  00                 [480] (-101)
2C79  31                 [481] (-100)
2C7A  01                 [482] (-98)
2C7B  00                 [483] (-96)
2C7C  00                 [484] (-96)
2C7D  31                 [485] (-96)
2C7E  01                 [486] (-96)
2C7F  00                 [487] (-96)
2C80  00                 [488] (-96)
2C81  31                 [489] (-95)
2C82  01                 [490] (-95)
2C83  00                 [491] (-95)
2C84  00                 [492] (-95)
2C85  31                 [493] (-95)
2C86  01                 [494] (-95)
2C87  00                 [495] (-93)
2C88  00                 [496] (-90)
2C89  31                 [497] (-90)
2C8A  01                 [498] (-90)
2C8B  00                 [499] (-88)
2C8C  00                 [500] (-88)
2C8D  32                 [501] (-88)
2C8E  01                 [502] (-87)
2C8F  00                 [503] (-87)
2C90  00                 [504] (-87)
2C91  33                 [505] (-87)
2C92  01                 [506] (-84)
2C93  00                 [507] (-84)
2C94  00                 [508] (-84)
2C95  33                 [509] (-84)
2C96  01                 [510] (-84)
2C97  00                 [511] (-83)
2C98  00                 [512] (-83)
2C99  33                 [513] (-83)
2C9A  01                 [514] (-83)
2C9B  00                 [515] (-83)
2C9C  00                 [516] (-83)
2C9D  33                 [517] (-83)
2C9E  01                 [518] (-83)
2C9F  00                 [519] (-83)
2CA0  00                 [520] (-83)
2CA1  33                 [521] (-83)
2CA2  01                 [522] (-82)
2CA3  00                 [523] (-82)
2CA4  00                 [524] (-82)
2CA5  33                 [525] (-81)
2CA6  01                 [526] (-80)
2CA7  00                 [527] (-80)
2CA8  00                 [528] (-80)
2CA9  33                 [529] (-80)
2CAA  01                 [530] (-79)
2CAB  00                 [531] (-78)
2CAC  00                 [532] (-78)
2CAD  34                 [533] (-78)
2CAE  01                 [534] (-78)
2CAF  00                 [535] (-78)
2CB0  00                 [536] (-75)
2CB1  34                 [537] (-75)
2CB2  01                 [538] (-75)
2CB3  00                 [539] (-75)
2CB4  00                 [540] (-74)
2CB5  34                 [541] (-74)
2CB6  01                 [542] (-74)
2CB7  00                 [543] (-74)
2CB8  00                 [544] (-74)
2CB9  34                 [545] (-74)
2CBA  01                 [546] (-74)
2CBB  00                 [547] (-74)
2CBC  00                 [548] (-74)
2CBD  34                 [549] (-73)
2CBE  01                 [550] (-73)
2CBF  00                 [551] (-73)
2CC0  00                 [552] (-73)
2CC1  34                 [553] (-73)
2CC2  01                 [554] (-73)
2CC3  00                 [555] (-73)
2CC4  00                 [556] (-73)
2CC5  34                 [557] (-72)
2CC6  01                 [558] (-72)
2CC7  00                 [559] (-72)
2CC8  00                 [560] (-72)
2CC9  34                 [561] (-72)
2CCA  01                 [562] (-72)
2CCB  00                 [563] (-72)
2CCC  00                 [564] (-72)
2CCD  34                 [565] (-68)
2CCE  01                 [566] (-68)
2CCF  00                 [567] (-67)
2CD0  00                 [568] (-67)
2CD1  34                 [569] (-67)
2CD2  01                 [570] (-67)
2CD3  00                 [571] (-67)
2CD4  00                 [572] (-67)
2CD5  34                 [573] (-67)
2CD6  01                 [574] (-64)
2CD7  00                 [575] (-64)
2CD8  00                 [576] (-64)
2CD9  34                 [577] (-64)
2CDA  01                 [578] (-64)
2CDB  00                 [579] (-64)
2CDC  00                 [580] (-64)
2CDD  34                 [581] (-63)
2CDE  01                 [582] (-63)
2CDF  00                 [583] (-63)
2CE0  00                 [584] (-63)
2CE1  35                 [585] (-63)
2CE2  01                 [586] (-62)
2CE3  00                 [587] (-62)
2CE4  00                 [588] (-62)
2CE5  35                 [589] (-60)
2CE6  01                 [590] (-60)
2CE7  00                 [591] (-60)
2CE8  00                 [592] (-60)
2CE9  35                 [593] (-60)
2CEA  01                 [594] (-59)
2CEB  00                 [595] (-59)
2CEC  00                 [596] (-56)
2CED  35                 [597] (-56)
2CEE  01                 [598] (-56)
2CEF  00                 [599] (-56)
2CF0  00                 [600] (-56)
2CF1  36                 [601] (-55)
2CF2  01                 [602] (-55)
2CF3  00                 [603] (-55)
2CF4  00                 [604] (-55)
2CF5  36                 [605] (-54)
2CF6  01                 [606] (-54)
2CF7  00                 [607] (-53)
2CF8  00                 [608] (-53)
2CF9  36                 [609] (-52)
2CFA  01                 [610] (-52)
2CFB  00                 [611] (-52)
2CFC  00                 [612] (-52)
2CFD  36                 [613] (-52)
2CFE  01                 [614] (-51)
2CFF  00                 [615] (-51)
2D00  00                 [616] (-50)
2D01  36                 [617] (-49)
2D02  01                 [618] (-49)
2D03  00                 [619] (-49)
2D04  00                 [620] (-49)
2D05  36                 [621] (-49)
2D06  01                 [622] (-49)
2D07  00                 [623] (-49)
2D08  00                 [624] (-49)
2D09  36                 [625] (-49)
2D0A  01                 [626] (-49)
2D0B  00                 [627] (-49)
2D0C  00                 [628] (-49)
2D0D  37                 [629] (-48)
2D0E  01                 [630] (-48)
2D0F  00                 [631] (-48)
2D10  00                 [632] (-48)
2D11  37                 [633] (-47)
2D12  01                 [634] (-47)
2D13  00                 [635] (-47)
2D14  00                 [636] (-47)
2D15  38                 [637] (-46)
2D16  01                 [638] (-46)
2D17  00                 [639] (-45)
2D18  00                 [640] (-45)
2D19  38                 [641] (-45)
2D1A  01                 [642] (-45)
2D1B  00                 [643] (-43)
2D1C  00                 [644] (-43)
2D1D  38                 [645] (-43)
2D1E  01                 [646] (-43)
2D1F  00                 [647] (-43)
2D20  00                 [648] (-42)
2D21  38                 [649] (-42)
2D22  01                 [650] (-42)
2D23  00                 [651] (-39)
2D24  00                 [652] (-36)
2D25  39                 [653] (-36)
2D26  01                 [654] (-36)
2D27  00                 [655] (-36)
2D28  00                 [656] (-35)
2D29  3B                 [657] (-35)
2D2A  01                 [658] (-35)
2D2B  00                 [659] (-34)
2D2C  00                 [660] (-34)
2D2D  3B                 [661] (-34)
2D2E  01                 [662] (-34)
2D2F  00                 [663] (-34)
2D30  00                 [664] (-33)
2D31  3B                 [665] (-33)
2D32  01                 [666] (-27)
                         * locals:
3501  00                 sizelocvars (0)
                         * upvalues:
3502  00                 sizeupvalues (0)
                         ** end of function **

                         
3503                     ** function [11] definition (level 2)
                         ** start of function **
3503  00                 string size (0)
                         source name: (none)
3505  03                 line defined (487)
3506  9A                 last line defined (538)
3507  04                 nups (10)
3508  0A                 numparams (4)
3509  04                 is_vararg (0)
350A  00                 maxstacksize (19)
                         * code:
350D  01                 sizecode (148)
350E  13010000           [001] getupval   4   0      
3512  52018001           [002] move       5   3      
3516  22410001           [003] call       4   2   1  
351A  13018002           [004] getupval   4   5      
351E  52018000           [005] move       5   1      
3522  22410101           [006] call       4   2   5  
fail op	8
3526  C8010002           [007] setupval   7   4      
fail op	8
352A  88018001           [008] setupval   6   3      
fail op	8
352E  48010001           [009] setupval   5   2      
fail op	8
3532  08018000           [010] setupval   4   1      
3536  24014000           [011] self       4   0   256  ; -40827644
353A  22810001           [012] call       4   2   2  
353E  64414000           [013] self       5   0   257  ; 1183093143
3542  62810001           [014] call       5   2   2  
3546  97010000           [015] loadbool   6   0   0    ; false
fail op	21
354A  15000181           [016] concat     0   258 4  
354E  1AC00580           [017] jmp        24           ; to [42]
3552  D3010003           [018] getupval   7   6      
3556  12020002           [019] move       8   4      
355A  52028002           [020] move       9   5      
355E  E2418001           [021] call       7   3   1  
3562  DDC10000           [022] getglobal  7   3        ; Lotus_Game
3566  CE01C103           [023] gettable   7   7   260  ; "PowerSuit_AUGMENT_PVP_ONE"
fail op	35
356A  23C08102           [024] close      0  
356E  1A400180           [025] jmp        6            ; to [32]
3572  D3010004           [026] getupval   7   8      
3576  12028000           [027] move       8   1      
357A  52028002           [028] move       9   5      
357E  E2818001           [029] call       7   3   2  
fail op	8
3582  C8018003           [030] setupval   7   7      
3586  1A000280           [031] jmp        9            ; to [41]
358A  DDC10000           [032] getglobal  7   3        ; Lotus_Game
358E  CE41C103           [033] gettable   7   7   261  ; "PowerSuit_AUGMENT_ONE"
fail op	35
3592  23C08102           [034] close      0  
3596  1A000180           [035] jmp        5            ; to [41]
359A  D3010004           [036] getupval   7   8      
359E  12028000           [037] move       8   1      
35A2  52028002           [038] move       9   5      
35A6  E2818001           [039] call       7   3   2  
fail op	8
35AA  C8018004           [040] setupval   7   9      
35AE  92018002           [041] move       6   5      
35B2  E4814100           [042] self       7   0   262  ; 150460537
35B6  E2410001           [043] call       7   2   1  
35BA  E4C14100           [044] self       7   0   263  ; 815657746
35BE  57028000           [045] loadbool   9   1   0    ; true
35C2  E2418001           [046] call       7   3   1  
35C6  E401C200           [047] self       7   1   264  ; -1201586349
35CA  E2810001           [048] call       7   2   2  
35CE  D8410000           [049] test       7       1    ; to [51] if false
35D2  1A000280           [050] jmp        9            ; to [60]
35D6  DD410200           [051] getglobal  7   9        ; gRegion
35DA  E481C203           [052] self       7   7   266  ; -1520831144
35DE  E2810001           [053] call       7   2   2  
35E2  D8010000           [054] test       7       0    ; to [56] if true
35E6  1AC01680           [055] jmp        92           ; to [148]
35EA  E4C1C200           [056] self       7   1   267  ; -1989965367
35EE  E2810001           [057] call       7   2   2  
35F2  D8410000           [058] test       7       1    ; to [60] if false
35F6  1AC01580           [059] jmp        88           ; to [148]
35FA  DDC10000           [060] getglobal  7   3        ; Lotus_Game
35FE  CE01C303           [061] gettable   7   7   268  ; 1305134297
3602  17020000           [062] loadbool   8   0   0    ; false
3606  E2810001           [063] call       7   2   2  
360A  1D420200           [064] getglobal  8   9        ; gRegion
360E  24424304           [065] self       8   8   269  ; 152279552
3612  9D820300           [066] getglobal  10  14       ; gTennoAvatarType
3616  E4C2C300           [067] self       11  1   271  ; 1839670529
361A  E2820001           [068] call       11  2   2  
361E  19830000           [069] loadk      12  2        ; 0
3622  53038000           [070] getupval   13  1      
3626  22820003           [071] call       8   6   2  
362A  4A020004           [072] len        9   8      
fail op	35
362E  2380C004           [073] close      0  
3632  1A000180           [074] jmp        5            ; to [80]
3636  4B028000           [075] newtable   9   1   0    ; array=1, hash=0
363A  92028000           [076] move       10  1      
363E  5B428000           [077] setlist    9   1   1    ; index 1 to 1
3642  12028004           [078] move       8   9      
3646  1A400380           [079] jmp        14           ; to [94]
364A  64C2C200           [080] self       9   1   267  ; -1989965367
364E  62820001           [081] call       9   2   2  
3652  58420000           [082] test       9       1    ; to [84] if false
3656  1A400280           [083] jmp        10           ; to [94]
365A  6402C400           [084] self       9   1   272  ; -1957065004
365E  DD820300           [085] getglobal  11  14       ; gTennoAvatarType
3662  62828001           [086] call       9   3   2  
3666  58420000           [087] test       9       1    ; to [89] if false
366A  1A000180           [088] jmp        5            ; to [94]
366E  5D420400           [089] getglobal  9   17       ; table
3672  4E82C404           [090] gettable   9   9   274  ; -431682403
3676  92020004           [091] move       10  8      
367A  D2028000           [092] move       11  1      
367E  62428001           [093] call       9   3   1  
3682  5DC20400           [094] getglobal  9   19       ; 1672515847
3686  92020004           [095] move       10  8      
368A  62020101           [096] call       9   2   4  
368E  1A000380           [097] jmp        13           ; to [111]
3692  A403C500           [098] self       14  1   276  ; 1800191191
3696  12048006           [099] move       16  13     
369A  A2838001           [100] call       14  3   2  
369E  98030000           [101] test       14      0    ; to [103] if true
36A2  1AC00180           [102] jmp        8            ; to [111]
36A6  A443C506           [103] self       14  13  277  ; -1689607191
36AA  12048000           [104] move       16  1      
36AE  A2838001           [105] call       14  3   2  
36B2  98030000           [106] test       14      0    ; to [108] if true
36B6  1A800080           [107] jmp        3            ; to [111]
36BA  A483C503           [108] self       14  7   278  ; -1705141593
36BE  12048006           [109] move       16  13     
36C2  A2438001           [110] call       14  3   1  
36C6  56820000           [111] tforloop   9       2    ; to [113] if exit
36CA  1A00FC7F           [112] jmp        -15          ; to [98]
36CE  A4C3C503           [113] self       14  7   279  ; -620975975
36D2  A2830001           [114] call       14  2   2  
36D6  98030000           [115] test       14      0    ; to [117] if true
36DA  1A800780           [116] jmp        31           ; to [148]
36DE  A403C603           [117] self       14  7   280  ; 1255461283
36E2  13040001           [118] getupval   16  2      
36E6  A2438001           [119] call       14  3   1  
36EA  A403C603           [120] self       14  7   280  ; 1255461283
36EE  13048001           [121] getupval   16  3      
36F2  A2438001           [122] call       14  3   1  
36F6  A403C603           [123] self       14  7   280  ; 1255461283
36FA  13040002           [124] getupval   16  4      
36FE  A2438001           [125] call       14  3   1  
3702  9DC30000           [126] getglobal  14  3        ; Lotus_Game
3706  8E434107           [127] gettable   14  14  261  ; "PowerSuit_AUGMENT_ONE"
fail op	35
370A  23800303           [128] close      0  
370E  1AC00080           [129] jmp        4            ; to [134]
3712  A403C603           [130] self       14  7   280  ; 1255461283
3716  13048004           [131] getupval   16  9      
371A  A2438001           [132] call       14  3   1  
371E  1A800180           [133] jmp        7            ; to [141]
3722  9DC30000           [134] getglobal  14  3        ; Lotus_Game
3726  8E034107           [135] gettable   14  14  260  ; "PowerSuit_AUGMENT_PVP_ONE"
fail op	35
372A  23800303           [136] close      0  
372E  1A800080           [137] jmp        3            ; to [141]
3732  A403C603           [138] self       14  7   280  ; 1255461283
3736  13048003           [139] getupval   16  7      
373A  A2438001           [140] call       14  3   1  
373E  A4434600           [141] self       14  0   281  ; -721628113
3742  1D840600           [142] getglobal  16  26       ; mOwner
3746  5DC40600           [143] getglobal  17  27       ; -332969190
374A  99040700           [144] loadk      18  28       ; "GiveSpeed"
374E  62840001           [145] call       17  2   2  
3752  92048003           [146] move       18  7      
3756  A2438002           [147] call       14  5   1  
375A  1E008000           [148] return     0   1      
                         * constants:
375E  1D                 sizek (29)
375F  01                 const type 3
3760  040591FD           const [0]: (-40827644)
3764  01                 const type 3
3765  97918446           const [1]: (1183093143)
3769  03                 const type 3
376A  00000000           const [2]: (0)
376E  04                 const type 4
376F  0B                 string size (11)
3770  4C6F7475735F4761+  "Lotus_Ga"
3778  6D6500             "me\0"
                         const [3]: "Lotus_Game"
377B  04                 const type 4
377C  1A                 string size (26)
377D  506F776572537569+  "PowerSui"
3785  745F4155474D454E+  "t_AUGMEN"
378D  545F5056505F4F4E+  "T_PVP_ON"
3795  4500               "E\0"
                         const [4]: "PowerSuit_AUGMENT_PVP_ONE"
3797  04                 const type 4
3798  16                 string size (22)
3799  506F776572537569+  "PowerSui"
37A1  745F4155474D454E+  "t_AUGMEN"
37A9  545F4F4E4500       "T_ONE\0"
                         const [5]: "PowerSuit_AUGMENT_ONE"
37AF  01                 const type 3
37B0  79D8F708           const [6]: (150460537)
37B4  01                 const type 3
37B5  12F39D30           const [7]: (815657746)
37B9  01                 const type 3
37BA  533F61B8           const [8]: (-1201586349)
37BE  04                 const type 4
37BF  08                 string size (8)
37C0  67526567696F6E00   "gRegion\0"
                         const [9]: "gRegion"
37C8  01                 const type 3
37C9  58F559A5           const [10]: (-1520831144)
37CD  01                 const type 3
37CE  C9896389           const [11]: (-1989965367)
37D2  01                 const type 3
37D3  D9C4CA4D           const [12]: (1305134297)
37D7  01                 const type 3
37D8  009A1309           const [13]: (152279552)
37DC  04                 const type 4
37DD  11                 string size (17)
37DE  6754656E6E6F4176+  "gTennoAv"
37E6  6174617254797065+  "atarType"
37EE  00                 "\0"
                         const [14]: "gTennoAvatarType"
37EF  01                 const type 3
37F0  0125A76D           const [15]: (1839670529)
37F4  01                 const type 3
37F5  D48E598B           const [16]: (-1957065004)
37F9  04                 const type 4
37FA  06                 string size (6)
37FB  7461626C6500       "table\0"
                         const [17]: "table"
3801  01                 const type 3
3802  9D0C45E6           const [18]: (-431682403)
3806  01                 const type 3
3807  0791B063           const [19]: (1672515847)
380B  01                 const type 3
380C  D7BC4C6B           const [20]: (1800191191)
3810  01                 const type 3
3811  E9A34A9B           const [21]: (-1689607191)
3815  01                 const type 3
3816  A79A5D9A           const [22]: (-1705141593)
381A  01                 const type 3
381B  99A8FCDA           const [23]: (-620975975)
381F  01                 const type 3
3820  A3D1D44A           const [24]: (1255461283)
3824  01                 const type 3
3825  2FD4FCD4           const [25]: (-721628113)
3829  04                 const type 4
382A  07                 string size (7)
382B  6D4F776E657200     "mOwner\0"
                         const [26]: "mOwner"
3832  01                 const type 3
3833  1A4B27EC           const [27]: (-332969190)
3837  04                 const type 4
3838  0A                 string size (10)
3839  4769766553706565+  "GiveSpee"
3841  6400               "d\0"
                         const [28]: "GiveSpeed"
                         * functions:
3843  00                 sizep (0)
                         * lines:
3845  01                 sizelineinfo (148)
                         [pc] (line)
3846  E8                 [001] (-24)
3847  01                 [002] (-24)
3848  00                 [003] (-24)
3849  00                 [004] (-23)
384A  E8                 [005] (-23)
384B  01                 [006] (-23)
384C  00                 [007] (-23)
384D  00                 [008] (-23)
384E  E8                 [009] (-23)
384F  01                 [010] (-23)
3850  00                 [011] (-21)
3851  00                 [012] (-21)
3852  E9                 [013] (-20)
3853  01                 [014] (-20)
3854  00                 [015] (-19)
3855  00                 [016] (-18)
3856  E9                 [017] (-18)
3857  01                 [018] (-17)
3858  00                 [019] (-17)
3859  00                 [020] (-17)
385A  E9                 [021] (-17)
385B  01                 [022] (-15)
385C  00                 [023] (-15)
385D  00                 [024] (-15)
385E  E9                 [025] (-15)
385F  01                 [026] (-14)
3860  00                 [027] (-14)
3861  00                 [028] (-14)
3862  E9                 [029] (-14)
3863  01                 [030] (-14)
3864  00                 [031] (-14)
3865  00                 [032] (-13)
3866  E9                 [033] (-13)
3867  01                 [034] (-13)
3868  00                 [035] (-13)
3869  00                 [036] (-12)
386A  E9                 [037] (-12)
386B  01                 [038] (-12)
386C  00                 [039] (-12)
386D  00                 [040] (-12)
386E  EB                 [041] (-9)
386F  01                 [042] (-6)
3870  00                 [043] (-6)
3871  00                 [044] (-5)
3872  EB                 [045] (-5)
3873  01                 [046] (-5)
3874  00                 [047] (-3)
3875  00                 [048] (-3)
3876  EC                 [049] (-3)
3877  01                 [050] (-3)
3878  00                 [051] (-3)
3879  00                 [052] (-3)
387A  EC                 [053] (-3)
387B  01                 [054] (-3)
387C  00                 [055] (-3)
387D  00                 [056] (-3)
387E  ED                 [057] (-3)
387F  01                 [058] (-3)
3880  00                 [059] (-3)
3881  00                 [060] (-2)
3882  EE                 [061] (-2)
3883  01                 [062] (-2)
3884  00                 [063] (-2)
3885  00                 [064] (-1)
3886  EE                 [065] (-1)
3887  01                 [066] (-1)
3888  00                 [067] (-1)
3889  00                 [068] (-1)
388A  EF                 [069] (-1)
388B  01                 [070] (-1)
388C  00                 [071] (-1)
388D  00                 [072] (0)
388E  EF                 [073] (0)
388F  01                 [074] (0)
3890  00                 [075] (1)
3891  00                 [076] (1)
3892  EF                 [077] (1)
3893  01                 [078] (1)
3894  00                 [079] (1)
3895  00                 [080] (2)
3896  EF                 [081] (2)
3897  01                 [082] (2)
3898  00                 [083] (2)
3899  00                 [084] (2)
389A  F1                 [085] (2)
389B  01                 [086] (2)
389C  00                 [087] (2)
389D  00                 [088] (2)
389E  F1                 [089] (3)
389F  01                 [090] (3)
38A0  00                 [091] (3)
38A1  00                 [092] (3)
38A2  F1                 [093] (3)
38A3  01                 [094] (7)
38A4  00                 [095] (7)
38A5  00                 [096] (7)
38A6  F1                 [097] (7)
38A7  01                 [098] (8)
38A8  00                 [099] (8)
38A9  00                 [100] (8)
38AA  F2                 [101] (8)
38AB  01                 [102] (8)
38AC  00                 [103] (8)
38AD  00                 [104] (8)
38AE  F2                 [105] (8)
38AF  01                 [106] (8)
38B0  00                 [107] (8)
38B1  00                 [108] (9)
38B2  F2                 [109] (9)
38B3  01                 [110] (9)
38B4  00                 [111] (7)
38B5  00                 [112] (10)
38B6  F2                 [113] (13)
38B7  01                 [114] (13)
38B8  00                 [115] (13)
38B9  00                 [116] (13)
38BA  F2                 [117] (14)
38BB  01                 [118] (14)
38BC  00                 [119] (14)
38BD  00                 [120] (15)
38BE  F2                 [121] (15)
38BF  01                 [122] (15)
38C0  00                 [123] (16)
38C1  00                 [124] (16)
38C2  F3                 [125] (16)
38C3  01                 [126] (17)
38C4  00                 [127] (17)
38C5  00                 [128] (17)
38C6  F3                 [129] (17)
38C7  01                 [130] (18)
38C8  00                 [131] (18)
38C9  00                 [132] (18)
38CA  F3                 [133] (18)
38CB  01                 [134] (19)
38CC  00                 [135] (19)
38CD  00                 [136] (19)
38CE  F3                 [137] (19)
38CF  01                 [138] (20)
38D0  00                 [139] (20)
38D1  00                 [140] (20)
38D2  F4                 [141] (23)
38D3  01                 [142] (23)
38D4  00                 [143] (23)
38D5  00                 [144] (23)
38D6  F4                 [145] (23)
38D7  01                 [146] (23)
38D8  00                 [147] (23)
38D9  00                 [148] (26)
                         * locals:
3A96  00                 sizelocvars (0)
                         * upvalues:
3A97  00                 sizeupvalues (0)
                         ** end of function **

                         
3A98                     ** function [12] definition (level 2)
                         ** start of function **
3A98  00                 string size (0)
                         source name: (none)
3A9A  04                 line defined (540)
3A9B  9D                 last line defined (541)
3A9C  04                 nups (0)
3A9D  00                 numparams (2)
3A9E  02                 is_vararg (0)
3A9F  00                 maxstacksize (2)
                         * code:
3AA1  01                 sizecode (1)
3AA2  1E008000           [1] return     0   1      
                         * constants:
3AA6  00                 sizek (0)
                         * functions:
3AA7  00                 sizep (0)
                         * lines:
3AA8  01                 sizelineinfo (1)
                         [pc] (line)
3AA9  1D                 [1] (29)
                         * locals:
3AAD  00                 sizelocvars (0)
                         * upvalues:
3AAE  00                 sizeupvalues (0)
                         ** end of function **

                         
3AAF                     ** function [13] definition (level 2)
                         ** start of function **
3AAF  00                 string size (0)
                         source name: (none)
3AB1  04                 line defined (543)
3AB2  B7                 last line defined (567)
3AB3  04                 nups (1)
3AB4  01                 numparams (2)
3AB5  02                 is_vararg (0)
3AB6  00                 maxstacksize (15)
                         * code:
3AB8  3C                 sizecode (60)
3AB9  A4004000           [01] self       2   0   256  ; -1538682285
3ABD  A2800001           [02] call       2   2   2  
3AC1  DD400000           [03] getglobal  3   1        ; 1074689893
3AC5  12010001           [04] move       4   2      
3AC9  E2800001           [05] call       3   2   2  
3ACD  D8000000           [06] test       3       0    ; to [8] if true
3AD1  1A000080           [07] jmp        1            ; to [9]
3AD5  1E008000           [08] return     0   1      
3AD9  E4804000           [09] self       3   0   258  ; 530663126
3ADD  5DC10000           [10] getglobal  5   3        ; mOwner
3AE1  6401C102           [11] self       5   5   260  ; -491574171
3AE5  62010001           [12] call       5   2   0  
3AE9  E2800000           [13] call       3   0   2  
3AED  24414100           [14] self       4   0   261  ; -171990039
3AF1  9DC10000           [15] getglobal  6   3        ; mOwner
3AF5  A4014103           [16] self       6   6   260  ; -491574171
3AF9  A2010001           [17] call       6   2   0  
3AFD  22810000           [18] call       4   0   2  
3B01  53010000           [19] getupval   5   0      
3B05  4C810083           [20] settable   5   262 2    ; "creator"
3B09  53010000           [21] getupval   5   0      
3B0D  4C018083           [22] settable   5   263 0    ; "creatorSuit"
3B11  53010000           [23] getupval   5   0      
3B15  8E414202           [24] gettable   6   4   265  ; 0
3B19  4C810184           [25] settable   5   264 6    ; "baseDuration"
3B1D  53010000           [26] getupval   5   0      
3B21  8EC14202           [27] gettable   6   4   267  ; 0
3B25  4C810185           [28] settable   5   266 6    ; "baseSpdMul"
3B29  53010000           [29] getupval   5   0      
3B2D  8E414302           [30] gettable   6   4   269  ; 0
3B31  4C810186           [31] settable   5   268 6    ; "baseReloadSpeedBuff"
3B35  4A010002           [32] len        5   4      
fail op	21
3B39  15408186           [33] concat     0   269 5  
3B3D  1A800080           [34] jmp        3            ; to [38]
3B41  53010000           [35] getupval   5   0      
3B45  8EC14302           [36] gettable   6   4   271  ; 0
3B49  4C810187           [37] settable   5   270 6    ; "augmentStat"
3B4D  5D010400           [38] getglobal  5   16       ; -332969190
3B51  99410400           [39] loadk      6   17       ; "DoSpeed"
3B55  62810001           [40] call       5   2   2  
3B59  9D810400           [41] getglobal  6   18       ; 1672515847
3B5D  D2018001           [42] move       7   3      
3B61  A2010101           [43] call       6   2   4  
3B65  1A000380           [44] jmp        13           ; to [58]
3B69  DD420000           [45] getglobal  11  1        ; 1074689893
3B6D  12030005           [46] move       12  10     
3B71  E2820001           [47] call       11  2   2  
3B75  D8420000           [48] test       11      1    ; to [50] if false
3B79  1AC00180           [49] jmp        8            ; to [58]
3B7D  E4C24405           [50] self       11  10  275  ; 1511086594
3B81  E2820001           [51] call       11  2   2  
3B85  D8420000           [52] test       11      1    ; to [54] if false
3B89  1AC00080           [53] jmp        4            ; to [58]
3B8D  E4024505           [54] self       11  10  276  ; -1302048094
3B91  52038002           [55] move       13  5      
3B95  97030000           [56] loadbool   14  0   0    ; false
3B99  E2420002           [57] call       11  4   1  
3B9D  96810000           [58] tforloop   6       2    ; to [60] if exit
3BA1  1A00FC7F           [59] jmp        -15          ; to [45]
3BA5  1E008000           [60] return     0   1      
                         * constants:
3BA9  15                 sizek (21)
3BAA  01                 const type 3
3BAB  539249A4           const [0]: (-1538682285)
3BAF  01                 const type 3
3BB0  65770E40           const [1]: (1074689893)
3BB4  01                 const type 3
3BB5  D646A11F           const [2]: (530663126)
3BB9  04                 const type 4
3BBA  07                 string size (7)
3BBB  6D4F776E657200     "mOwner\0"
                         const [3]: "mOwner"
3BC2  01                 const type 3
3BC3  652CB3E2           const [4]: (-491574171)
3BC7  01                 const type 3
3BC8  E9A3BFF5           const [5]: (-171990039)
3BCC  04                 const type 4
3BCD  08                 string size (8)
3BCE  63726561746F7200   "creator\0"
                         const [6]: "creator"
3BD6  04                 const type 4
3BD7  0C                 string size (12)
3BD8  63726561746F7253+  "creatorS"
3BE0  75697400           "uit\0"
                         const [7]: "creatorSuit"
3BE4  04                 const type 4
3BE5  0D                 string size (13)
3BE6  6261736544757261+  "baseDura"
3BEE  74696F6E00         "tion\0"
                         const [8]: "baseDuration"
3BF3  03                 const type 3
3BF4  0000803F           const [9]: (0)
3BF8  04                 const type 4
3BF9  0B                 string size (11)
3BFA  626173655370644D+  "baseSpdM"
3C02  756C00             "ul\0"
                         const [10]: "baseSpdMul"
3C05  03                 const type 3
3C06  00000040           const [11]: (0)
3C0A  04                 const type 4
3C0B  14                 string size (20)
3C0C  6261736552656C6F+  "baseRelo"
3C14  6164537065656442+  "adSpeedB"
3C1C  75666600           "uff\0"
                         const [12]: "baseReloadSpeedBuff"
3C20  03                 const type 3
3C21  00004040           const [13]: (0)
3C25  04                 const type 4
3C26  0C                 string size (12)
3C27  6175676D656E7453+  "augmentS"
3C2F  74617400           "tat\0"
                         const [14]: "augmentStat"
3C33  03                 const type 3
3C34  00008040           const [15]: (0)
3C38  01                 const type 3
3C39  1A4B27EC           const [16]: (-332969190)
3C3D  04                 const type 4
3C3E  08                 string size (8)
3C3F  446F537065656400   "DoSpeed\0"
                         const [17]: "DoSpeed"
3C47  01                 const type 3
3C48  0791B063           const [18]: (1672515847)
3C4C  01                 const type 3
3C4D  025A115A           const [19]: (1511086594)
3C51  01                 const type 3
3C52  A25264B2           const [20]: (-1302048094)
                         * functions:
3C56  00                 sizep (0)
                         * lines:
3C57  3C                 sizelineinfo (60)
                         [pc] (line)
3C58  20                 [01] (32)
3C59  02                 [02] (32)
3C5A  00                 [03] (33)
3C5B  00                 [04] (33)
3C5C  20                 [05] (33)
3C5D  02                 [06] (33)
3C5E  00                 [07] (33)
3C5F  00                 [08] (34)
3C60  21                 [09] (37)
3C61  02                 [10] (37)
3C62  00                 [11] (37)
3C63  00                 [12] (37)
3C64  21                 [13] (37)
3C65  02                 [14] (38)
3C66  00                 [15] (38)
3C67  00                 [16] (38)
3C68  21                 [17] (38)
3C69  02                 [18] (38)
3C6A  00                 [19] (40)
3C6B  00                 [20] (40)
3C6C  21                 [21] (41)
3C6D  02                 [22] (41)
3C6E  00                 [23] (42)
3C6F  00                 [24] (42)
3C70  21                 [25] (42)
3C71  02                 [26] (43)
3C72  00                 [27] (43)
3C73  00                 [28] (43)
3C74  22                 [29] (44)
3C75  02                 [30] (44)
3C76  00                 [31] (44)
3C77  00                 [32] (45)
3C78  25                 [33] (45)
3C79  02                 [34] (45)
3C7A  00                 [35] (46)
3C7B  00                 [36] (46)
3C7C  25                 [37] (46)
3C7D  02                 [38] (49)
3C7E  00                 [39] (49)
3C7F  00                 [40] (49)
3C80  25                 [41] (50)
3C81  02                 [42] (50)
3C82  00                 [43] (50)
3C83  00                 [44] (50)
3C84  25                 [45] (51)
3C85  02                 [46] (51)
3C86  00                 [47] (51)
3C87  00                 [48] (51)
3C88  25                 [49] (51)
3C89  02                 [50] (51)
3C8A  00                 [51] (51)
3C8B  00                 [52] (51)
3C8C  26                 [53] (51)
3C8D  02                 [54] (52)
3C8E  00                 [55] (52)
3C8F  00                 [56] (52)
3C90  26                 [57] (52)
3C91  02                 [58] (50)
3C92  00                 [59] (53)
3C93  00                 [60] (55)
                         * locals:
3D48  00                 sizelocvars (0)
                         * upvalues:
3D49  00                 sizeupvalues (0)
                         ** end of function **

                         
3D4A                     ** function [14] definition (level 2)
                         ** start of function **
3D4A  00                 string size (0)
                         source name: (none)
3D4C  04                 line defined (569)
3D4D  CC                 last line defined (588)
3D4E  04                 nups (0)
3D4F  00                 numparams (1)
3D50  01                 is_vararg (0)
3D51  00                 maxstacksize (5)
                         * code:
3D53  31                 sizecode (49)
3D54  64004000           [01] self       1   0   256  ; -1870903749
3D58  62800001           [02] call       1   2   2  
3D5C  9D400000           [03] getglobal  2   1        ; 1074689893
3D60  D2008000           [04] move       3   1      
3D64  A2800001           [05] call       2   2   2  
3D68  98000000           [06] test       2       0    ; to [8] if true
3D6C  1A000080           [07] jmp        1            ; to [9]
3D70  1E008000           [08] return     0   1      
3D74  9D400000           [09] getglobal  2   1        ; 1074689893
3D78  D2000000           [10] move       3   0      
3D7C  A2800001           [11] call       2   2   2  
3D80  98400000           [12] test       2       1    ; to [14] if false
3D84  1AC00680           [13] jmp        28           ; to [42]
3D88  9D400000           [14] getglobal  2   1        ; 1074689893
3D8C  D2008000           [15] move       3   1      
3D90  A2800001           [16] call       2   2   2  
3D94  98400000           [17] test       2       1    ; to [19] if false
3D98  1A800580           [18] jmp        23           ; to [42]
3D9C  A480C000           [19] self       2   1   258  ; -1769580043
3DA0  A2800001           [20] call       2   2   2  
fail op	21
3DA4  15808081           [21] concat     0   259 2  
3DA8  1A800180           [22] jmp        7            ; to [30]
3DAC  E4004100           [23] self       3   0   260  ; -1318948062
3DB0  E2800001           [24] call       3   2   2  
3DB4  D8400000           [25] test       3       1    ; to [27] if false
3DB8  1A800080           [26] jmp        3            ; to [30]
3DBC  E4404100           [27] self       3   0   261  ; -974578778
3DC0  E2400001           [28] call       3   2   1  
3DC4  1AC00180           [29] jmp        8            ; to [38]
fail op	33
3DC8  21C04001           [30] tforloop   0       259  ; to [32] if exit
3DCC  1A400180           [31] jmp        6            ; to [38]
3DD0  E4004100           [32] self       3   0   260  ; -1318948062
3DD4  E2800001           [33] call       3   2   2  
3DD8  D8000000           [34] test       3       0    ; to [36] if true
3DDC  1A400080           [35] jmp        2            ; to [38]
3DE0  E4804100           [36] self       3   0   262  ; 766584623
3DE4  E2400001           [37] call       3   2   1  
3DE8  DDC00100           [38] getglobal  3   7        ; 538022378
3DEC  19010200           [39] loadk      4   8        ; 0
3DF0  E2400001           [40] call       3   2   1  
3DF4  1A80F77F           [41] jmp        -33          ; to [9]
3DF8  DD400000           [42] getglobal  3   1        ; 1074689893
3DFC  12010000           [43] move       4   0      
3E00  E2800001           [44] call       3   2   2  
3E04  D8400000           [45] test       3       1    ; to [47] if false
3E08  1A400080           [46] jmp        2            ; to [49]
3E0C  E4404200           [47] self       3   0   265  ; -725453761
3E10  E2400001           [48] call       3   2   1  
3E14  1E008000           [49] return     0   1      
                         * constants:
3E18  0A                 sizek (10)
3E19  01                 const type 3
3E1A  3B467C90           const [0]: (-1870903749)
3E1E  01                 const type 3
3E1F  65770E40           const [1]: (1074689893)
3E23  01                 const type 3
3E24  F5598696           const [2]: (-1769580043)
3E28  03                 const type 3
3E29  0000A040           const [3]: (0)
3E2D  01                 const type 3
3E2E  227362B1           const [4]: (-1318948062)
3E32  01                 const type 3
3E33  A61BE9C5           const [5]: (-974578778)
3E37  01                 const type 3
3E38  2F27B12D           const [6]: (766584623)
3E3C  01                 const type 3
3E3D  EA911120           const [7]: (538022378)
3E41  03                 const type 3
3E42  00000000           const [8]: (0)
3E46  01                 const type 3
3E47  3F74C2D4           const [9]: (-725453761)
                         * functions:
3E4B  00                 sizep (0)
                         * lines:
3E4C  31                 sizelineinfo (49)
                         [pc] (line)
3E4D  3A                 [01] (58)
3E4E  02                 [02] (58)
3E4F  00                 [03] (59)
3E50  00                 [04] (59)
3E51  3A                 [05] (59)
3E52  02                 [06] (59)
3E53  00                 [07] (59)
3E54  00                 [08] (60)
3E55  3B                 [09] (63)
3E56  02                 [10] (63)
3E57  00                 [11] (63)
3E58  00                 [12] (63)
3E59  3B                 [13] (63)
3E5A  02                 [14] (63)
3E5B  00                 [15] (63)
3E5C  00                 [16] (63)
3E5D  3B                 [17] (63)
3E5E  02                 [18] (63)
3E5F  00                 [19] (64)
3E60  00                 [20] (64)
3E61  3B                 [21] (65)
3E62  02                 [22] (65)
3E63  00                 [23] (65)
3E64  00                 [24] (65)
3E65  3B                 [25] (65)
3E66  02                 [26] (65)
3E67  00                 [27] (66)
3E68  00                 [28] (66)
3E69  3C                 [29] (66)
3E6A  02                 [30] (67)
3E6B  00                 [31] (67)
3E6C  00                 [32] (67)
3E6D  3F                 [33] (67)
3E6E  02                 [34] (67)
3E6F  00                 [35] (67)
3E70  00                 [36] (68)
3E71  3F                 [37] (68)
3E72  02                 [38] (70)
3E73  00                 [39] (70)
3E74  00                 [40] (70)
3E75  3F                 [41] (70)
3E76  02                 [42] (73)
3E77  00                 [43] (73)
3E78  00                 [44] (73)
3E79  3F                 [45] (73)
3E7A  02                 [46] (73)
3E7B  00                 [47] (74)
3E7C  00                 [48] (74)
3E7D  3F                 [49] (76)
                         * locals:
3F11  00                 sizelocvars (0)
                         * upvalues:
3F12  00                 sizeupvalues (0)
                         ** end of function **

                         
3F13                     ** function [15] definition (level 2)
                         ** start of function **
3F13  00                 string size (0)
                         source name: (none)
3F15  04                 line defined (590)
3F16  E1                 last line defined (609)
3F17  04                 nups (0)
3F18  00                 numparams (1)
3F19  01                 is_vararg (0)
3F1A  00                 maxstacksize (14)
                         * code:
3F1C  2F                 sizecode (47)
3F1D  5D000000           [01] getglobal  1   0        ; 538022378
3F21  99400000           [02] loadk      2   1        ; 0
3F25  62400001           [03] call       1   2   1  
3F29  64804000           [04] self       1   0   258  ; -704974830
3F2D  62800001           [05] call       1   2   2  
3F31  99C00000           [06] loadk      2   3        ; 0
fail op	21
3F35  15808080           [07] concat     0   257 2  
3F39  1A000380           [08] jmp        13           ; to [22]
3F3D  E400C100           [09] self       3   1   260  ; -1957065004
3F41  5D410100           [10] getglobal  5   5        ; gLotusAvatarType
3F45  E2808001           [11] call       3   3   2  
3F49  D8400000           [12] test       3       1    ; to [14] if false
3F4D  1AC00180           [13] jmp        8            ; to [22]
3F51  E4804000           [14] self       3   0   258  ; -704974830
3F55  E2800001           [15] call       3   2   2  
3F59  52008001           [16] move       1   3      
3F5D  8D804101           [17] sub        2   2   262  ; 0
3F61  DD000000           [18] getglobal  3   0        ; 538022378
3F65  19410000           [19] loadk      4   1        ; 0
3F69  E2400001           [20] call       3   2   1  
3F6D  1A00FC7F           [21] jmp        -15          ; to [7]
3F71  E400C100           [22] self       3   1   260  ; -1957065004
3F75  5D410100           [23] getglobal  5   5        ; gLotusAvatarType
3F79  E2808001           [24] call       3   3   2  
3F7D  D8400000           [25] test       3       1    ; to [27] if false
3F81  1A000080           [26] jmp        1            ; to [28]
3F85  1E008000           [27] return     0   1      
3F89  E4C0C100           [28] self       3   1   263  ; 366271214
3F8D  5D010200           [29] getglobal  5   8        ; SpeedTrail
3F91  E2808001           [30] call       3   3   2  
3F95  1D410200           [31] getglobal  4   9        ; 1074689893
3F99  52018001           [32] move       5   3      
3F9D  22810001           [33] call       4   2   2  
3FA1  18410000           [34] test       4       1    ; to [36] if false
3FA5  1A800280           [35] jmp        11           ; to [47]
3FA9  19810100           [36] loadk      4   6        ; 0
3FAD  4A018001           [37] len        5   3      
3FB1  99810100           [38] loadk      6   6        ; 0
3FB5  10410180           [39] forprep    4   6        ; to [46]
3FB9  0EC28101           [40] gettable   8   3   7  
3FBD  64824204           [41] self       9   8   266  ; 442762040
3FC1  D9420000           [42] loadk      11  1        ; 0
3FC5  19430000           [43] loadk      12  1        ; 0
3FC9  57038000           [44] loadbool   13  1   0    ; true
3FCD  62428002           [45] call       9   5   1  
3FD1  1401FE7F           [46] forloop    4   -7       ; to [40] if loop
3FD5  1E008000           [47] return     0   1      
                         * constants:
3FD9  0B                 sizek (11)
3FDA  01                 const type 3
3FDB  EA911120           const [0]: (538022378)
3FDF  03                 const type 3
3FE0  00000000           const [1]: (0)
3FE4  01                 const type 3
3FE5  12F0FAD5           const [2]: (-704974830)
3FE9  03                 const type 3
3FEA  00002041           const [3]: (0)
3FEE  01                 const type 3
3FEF  D48E598B           const [4]: (-1957065004)
3FF3  04                 const type 4
3FF4  11                 string size (17)
3FF5  674C6F7475734176+  "gLotusAv"
3FFD  6174617254797065+  "atarType"
4005  00                 "\0"
                         const [5]: "gLotusAvatarType"
4006  03                 const type 3
4007  0000803F           const [6]: (0)
400B  01                 const type 3
400C  EEDAD415           const [7]: (366271214)
4010  04                 const type 4
4011  0B                 string size (11)
4012  5370656564547261+  "SpeedTra"
401A  696C00             "il\0"
                         const [8]: "SpeedTrail"
401D  01                 const type 3
401E  65770E40           const [9]: (1074689893)
4022  01                 const type 3
4023  3803641A           const [10]: (442762040)
                         * functions:
4027  00                 sizep (0)
                         * lines:
4028  2F                 sizelineinfo (47)
                         [pc] (line)
4029  4F                 [01] (79)
402A  02                 [02] (79)
402B  00                 [03] (79)
402C  00                 [04] (80)
402D  4F                 [05] (80)
402E  02                 [06] (81)
402F  00                 [07] (82)
4030  00                 [08] (82)
4031  4F                 [09] (82)
4032  02                 [10] (82)
4033  00                 [11] (82)
4034  00                 [12] (82)
4035  50                 [13] (82)
4036  02                 [14] (83)
4037  00                 [15] (83)
4038  00                 [16] (83)
4039  50                 [17] (84)
403A  02                 [18] (85)
403B  00                 [19] (85)
403C  00                 [20] (85)
403D  51                 [21] (85)
403E  02                 [22] (87)
403F  00                 [23] (87)
4040  00                 [24] (87)
4041  52                 [25] (87)
4042  02                 [26] (87)
4043  00                 [27] (88)
4044  00                 [28] (90)
4045  52                 [29] (90)
4046  02                 [30] (90)
4047  00                 [31] (91)
4048  00                 [32] (91)
4049  52                 [33] (91)
404A  02                 [34] (91)
404B  00                 [35] (91)
404C  00                 [36] (92)
404D  52                 [37] (92)
404E  02                 [38] (92)
404F  00                 [39] (92)
4050  00                 [40] (93)
4051  52                 [41] (94)
4052  02                 [42] (94)
4053  00                 [43] (94)
4054  00                 [44] (94)
4055  52                 [45] (94)
4056  02                 [46] (92)
4057  00                 [47] (97)
                         * locals:
40E5  00                 sizelocvars (0)
                         * upvalues:
40E6  00                 sizeupvalues (0)
                         ** end of function **

                         * lines:
40E8  01                 sizelineinfo (161)
                         [pc] (line)
40E9  06                 [001] (6)
40EA  00                 [002] (6)
40EB  00                 [003] (6)
40EC  00                 [004] (7)
40ED  06                 [005] (7)
40EE  00                 [006] (7)
40EF  00                 [007] (8)
40F0  00                 [008] (8)
40F1  06                 [009] (8)
40F2  00                 [010] (9)
40F3  00                 [011] (9)
40F4  00                 [012] (9)
40F5  07                 [013] (11)
40F6  00                 [014] (12)
40F7  00                 [015] (12)
40F8  00                 [016] (12)
40F9  07                 [017] (13)
40FA  00                 [018] (13)
40FB  00                 [019] (13)
40FC  00                 [020] (14)
40FD  07                 [021] (14)
40FE  00                 [022] (14)
40FF  00                 [023] (15)
4100  00                 [024] (15)
4101  08                 [025] (15)
4102  00                 [026] (16)
4103  00                 [027] (16)
4104  00                 [028] (16)
4105  08                 [029] (17)
4106  00                 [030] (17)
4107  00                 [031] (17)
4108  00                 [032] (18)
4109  08                 [033] (18)
410A  00                 [034] (18)
410B  00                 [035] (19)
410C  00                 [036] (20)
410D  09                 [037] (21)
410E  00                 [038] (21)
410F  00                 [039] (21)
4110  00                 [040] (22)
4111  09                 [041] (22)
4112  00                 [042] (22)
4113  00                 [043] (23)
4114  00                 [044] (23)
4115  09                 [045] (23)
4116  00                 [046] (24)
4117  00                 [047] (24)
4118  00                 [048] (24)
4119  0B                 [049] (25)
411A  00                 [050] (27)
411B  00                 [051] (27)
411C  00                 [052] (27)
411D  0C                 [053] (28)
411E  00                 [054] (28)
411F  00                 [055] (28)
4120  00                 [056] (29)
4121  0C                 [057] (29)
4122  00                 [058] (29)
4123  00                 [059] (31)
4124  00                 [060] (33)
4125  0C                 [061] (34)
4126  00                 [062] (35)
4127  00                 [063] (36)
4128  00                 [064] (38)
4129  0D                 [065] (40)
412A  00                 [066] (88)
412B  00                 [067] (88)
412C  00                 [068] (88)
412D  0D                 [069] (88)
412E  00                 [070] (88)
412F  00                 [071] (88)
4130  00                 [072] (108)
4131  0D                 [073] (108)
4132  00                 [074] (108)
4133  00                 [075] (108)
4134  00                 [076] (108)
4135  0E                 [077] (-124)
4136  00                 [078] (-124)
4137  00                 [079] (-124)
4138  00                 [080] (-110)
4139  0E                 [081] (-110)
413A  00                 [082] (-110)
413B  00                 [083] (-68)
413C  00                 [084] (-68)
413D  0E                 [085] (-68)
413E  00                 [086] (-68)
413F  00                 [087] (-68)
4140  00                 [088] (-49)
4141  0F                 [089] (-49)
4142  00                 [090] (-49)
4143  00                 [091] (-49)
4144  00                 [092] (-49)
4145  0F                 [093] (-49)
4146  00                 [094] (-49)
4147  00                 [095] (-49)
4148  00                 [096] (-49)
4149  0F                 [097] (-66)
414A  00                 [098] (-32)
414B  00                 [099] (-32)
414C  00                 [100] (-32)
414D  10                 [101] (-32)
414E  00                 [102] (-32)
414F  00                 [103] (-47)
4150  00                 [104] (-26)
4151  10                 [105] (-26)
4152  00                 [106] (-26)
4153  00                 [107] (-30)
4154  00                 [108] (-22)
4155  10                 [109] (-22)
4156  00                 [110] (-24)
4157  00                 [111] (-6)
4158  00                 [112] (-6)
4159  11                 [113] (-4)
415A  00                 [114] (-3)
415B  00                 [115] (-2)
415C  00                 [116] (-1)
415D  11                 [117] (0)
415E  00                 [118] (1)
415F  00                 [119] (2)
4160  00                 [120] (-27)
4161  11                 [121] (-27)
4162  00                 [122] (-27)
4163  00                 [123] (-27)
4164  00                 [124] (-27)
4165  12                 [125] (-27)
4166  00                 [126] (-27)
4167  00                 [127] (-27)
4168  00                 [128] (-27)
4169  12                 [129] (-27)
416A  00                 [130] (-27)
416B  00                 [131] (-27)
416C  00                 [132] (-27)
416D  12                 [133] (-27)
416E  00                 [134] (4)
416F  00                 [135] (26)
4170  00                 [136] (26)
4171  13                 [137] (26)
4172  00                 [138] (26)
4173  00                 [139] (26)
4174  00                 [140] (26)
4175  14                 [141] (26)
4176  00                 [142] (26)
4177  00                 [143] (26)
4178  00                 [144] (26)
4179  15                 [145] (26)
417A  00                 [146] (26)
417B  00                 [147] (-25)
417C  00                 [148] (29)
417D  15                 [149] (29)
417E  00                 [150] (28)
417F  00                 [151] (55)
4180  00                 [152] (55)
4181  15                 [153] (55)
4182  00                 [154] (31)
4183  00                 [155] (76)
4184  00                 [156] (76)
4185  16                 [157] (57)
4186  00                 [158] (97)
4187  00                 [159] (97)
4188  00                 [160] (78)
4189  16                 [161] (97)
                         * locals:
436D  00                 sizelocvars (0)
                         * upvalues:
436E  00                 sizeupvalues (0)
                         ** end of function **

436F                     ** end of chunk **
