1	C:\wlua_dump\path\Lotus\Interface\LibsJukeBoxMgr.lua
Pos   Hex Data           Description or Code
------------------------------------------------------------------------
0000                     ** source chunk: C:\wlua_dump\path\Lotus\Interface\LibsJukeBoxMgr.lua
                         ** global header start **
0000  7F                 header signature: ""
0001  00                 version (major:minor hex digits)
0002  00                 format (0=official)
0003  00                 endianness (1=little endian)
0004  00                 size of int (bytes)
0005  00                 size of size_t (bytes)
0006  02                 size of Instruction (bytes)
0007  38                 size of number (bytes)
0008  86                 integral (1=integral)
4134
                         * number type: single
                         * x86 standard (32-bit, little endian, doubles)
                         ** global header end **
package
seeall
EE.Interface.Utilities
Lotus.Scripts.Effects.EffectsColorUtilities
Lotus.Interface.SequencerUtilities
LM_NONE
LM_LOOP
LM_LOOPONE
/Lotus/Fx/Levels/Hub/OperatorQuarters/JukeboxSequencerDeco
Jukebox
SoundValues0
SoundValues1
SoundValues2
SoundValues3
SoundValues4
GetSongs
IsPlayingStepSequencer
GetCurrentStepSequencer
GetStepSequencerDelta
PlaySong
IsShuffleMode
ToggleShuffleMode
GetLoopMode
ToggleLoopMode
PlayNextSong
PlayPreviousSong
ToggleSong
StopCurrentSong
GetPlayingSongIndex
GetPlayingSongInstance
IsSongPaused
IsSongLocked
SetSongStartCallback
SetSongEndCallback
SetVolume
GetVolume
UpdateJukeBox
ToggleAutoplaySong
SaveAutoplaySettings
RefreshStepSequencers
Initialize
OnIconCacheFlushed
OnProfileSaved
SetSequencerFxEntity
UpdateSequencerColor
SetSuppressed
Reset
Locked
Fingerprint
Name
JUKEBOX_SEQUENCER
gRegion
table
Fingerprint
IsLoading
StepSequencer
math
Song

MongoId
Lotus_Game
MAX_NoteType
Fingerprint
Song
Jukebox: Playing song 
, started = 

NotePacks
Jukebox: Playing mandachord song 
MongoId
AutoplayEnabled
table
LM_NONE
Engine
JM_NONE
LM_LOOPONE
JM_LOOPONE
JM_LOOP
math
_T
Jukebox
ScrollIndex
_T
Jukebox
ScrollIndex
Locked
Fingerprint
Locked
minValue
maxValue
math
gPlayerProfileMgr
table
Locked
Song
MongoId
AutoplayEnabled
Engine
JM_NONE
LM_NONE
JM_LOOPONE
LM_LOOPONE
LM_LOOP
gGameRules
StepSequencer
JukeboxSequencer
AutoplayEnabled
table
MongoId
AutoplayEnabled
table
Song
_T
Jukebox
Fingerprint
MongoId
table
gPlayerProfileMgr
mName

/Lotus/Language/Menu/Composition_SaveSong
INDEX
Lotus_Game
MAX_NoteType
NoteType
NotePack
mItemId
mId
Name
Progress
Required
Locked
mFingerPrint
NotePacks
AutoplayEnabled
_T
Jukebox
mItemType
mRegion

Tag
Song
RegionLocName
Progress
mItemCount
Required
Locked
AutoplayEnabled
Name
/Lotus/Language/Menu/Jukebox_Undiscovered_Track
REGION
UISys
gPlayerProfileMgr
mName
/Lotus/Language/Menu/Composition_SaveSong
INDEX
Lotus_Game
MAX_NoteType
table
NoteType
NotePack
Fingerprint
mFingerPrint
NotePacks
MongoId
mItemId
mId
Locked
Name
/Lotus/Language/Menu/Jukebox_Undiscovered_Track
REGION
RegionLocName
gPlayerProfileMgr
gRegion
mShipInterior
mColors
mEnergyColor
TintColor
red
green
blue
EmissiveTintColorHi
EmissiveTintColorLo
                         
0001                     ** function [0] definition (level 1)
                         ** start of function **
0001  00                 string size (0)
                         source name: (none)
0002  00                 line defined (0)
0003  00                 last line defined (0)
0004  00                 nups (0)
0005  00                 numparams (0)
0006  02                 is_vararg (2)
0007  38                 maxstacksize (56)
                         * code:
0009  03                 sizecode (390)
000A  1D000000           [001] getglobal  0   0        ; 954442511
000E  41000001           [002] vararg     1   2      
0012  9D400000           [003] getglobal  2   1        ; package
0016  8E804001           [004] gettable   2   2   258  ; "seeall"
001A  22408001           [005] call       0   3   1  
001E  1DC00000           [006] getglobal  0   3        ; 849075268
0022  59000100           [007] loadk      1   4        ; "EE.Interface.Utilities"
0026  22800001           [008] call       0   2   2  
002A  5DC00000           [009] getglobal  1   3        ; 849075268
002E  99400100           [010] loadk      2   5        ; "Lotus.Scripts.Effects.EffectsColorUtilities"
0032  62800001           [011] call       1   2   2  
0036  9DC00000           [012] getglobal  2   3        ; 849075268
003A  D9800100           [013] loadk      3   6        ; "Lotus.Interface.SequencerUtilities"
003E  A2800001           [014] call       2   2   2  
0042  C6000002           [015] loadnil    3   4      
0046  57010000           [016] loadbool   5   0   0    ; false
004A  99C10100           [017] loadk      6   7        ; 0
004E  D9C10100           [018] loadk      7   7        ; 0
0052  06020004           [019] loadnil    8   8      
0056  57020000           [020] loadbool   9   0   0    ; false
005A  86020005           [021] loadnil    10  10     
005E  D7020000           [022] loadbool   11  0   0    ; false
0062  17030000           [023] loadbool   12  0   0    ; false
0066  4B030000           [024] newtable   13  0   0    ; array=0, hash=0
006A  97030000           [025] loadbool   14  0   0    ; false
006E  D9C30100           [026] loadk      15  7        ; 0
0072  E0030200           [027] setglobal  15  8        ; LM_NONE
0076  D9830200           [028] loadk      15  10       ; 0
007A  E0430200           [029] setglobal  15  9        ; LM_LOOP
007E  D9030300           [030] loadk      15  12       ; 0
0082  E0C30200           [031] setglobal  15  11       ; LM_LOOPONE
0086  DD430200           [032] getglobal  15  9        ; LM_LOOP
008A  19440300           [033] loadk      16  13       ; 0
008E  59840300           [034] loadk      17  14       ; -51
0092  99C40100           [035] loadk      18  7        ; 0
0096  D9C40100           [036] loadk      19  7        ; 0
009A  0605000A           [037] loadnil    20  20     
009E  59C50300           [038] loadk      21  15       ; 0
00A2  8B050000           [039] newtable   22  0   0    ; array=0, hash=0
00A6  D9850200           [040] loadk      23  10       ; 0
00AA  1D060400           [041] getglobal  24  16       ; 160735655
00AE  5D460400           [042] getglobal  25  17       ; -1778512908
00B2  99860400           [043] loadk      26  18       ; 0
00B6  62860001           [044] call       25  2   2  
00BA  9D460400           [045] getglobal  26  17       ; -1778512908
00BE  D9C60100           [046] loadk      27  7        ; 0
00C2  A2060001           [047] call       26  2   0  
00C6  22860000           [048] call       24  0   2  
00CA  59C60100           [049] loadk      25  7        ; 0
00CE  99860200           [050] loadk      26  10       ; 0
00D2  D9860200           [051] loadk      27  10       ; 0
00D6  0607000F           [052] loadnil    28  30     
00DA  DDC70400           [053] getglobal  31  19       ; 2083004503
00DE  19080500           [054] loadk      32  20       ; "/Lotus/Fx/Levels/Hub/OperatorQuarters/JukeboxSequencerDeco"
00E2  E2870001           [055] call       31  2   2  
00E6  19480500           [056] loadk      32  21       ; "Jukebox"
00EA  46088010           [057] loadnil    33  33     
00EE  8B080000           [058] newtable   34  0   0    ; array=0, hash=0
00F2  D9C80100           [059] loadk      35  7        ; 0
00F6  19C90100           [060] loadk      36  7        ; 0
00FA  4B090002           [061] newtable   37  4   0    ; array=4, hash=0
00FE  9D890500           [062] getglobal  38  22       ; -332969190
0102  D9C90500           [063] loadk      39  23       ; "SoundValues0"
0106  A2890001           [064] call       38  2   2  
010A  DD890500           [065] getglobal  39  22       ; -332969190
010E  190A0600           [066] loadk      40  24       ; "SoundValues1"
0112  E2890001           [067] call       39  2   2  
0116  1D8A0500           [068] getglobal  40  22       ; -332969190
011A  594A0600           [069] loadk      41  25       ; "SoundValues2"
011E  228A0001           [070] call       40  2   2  
0122  5D8A0500           [071] getglobal  41  22       ; -332969190
0126  998A0600           [072] loadk      42  26       ; "SoundValues3"
012A  628A0001           [073] call       41  2   2  
012E  9D8A0500           [074] getglobal  42  22       ; -332969190
0132  D9CA0600           [075] loadk      43  27       ; "SoundValues4"
0136  A20A0001           [076] call       42  2   0  
013A  5B490000           [077] setlist    37  0   1    ; index 1 to top
013E  8B090002           [078] newtable   38  4   0    ; array=4, hash=0
0142  D9C90100           [079] loadk      39  7        ; 0
0146  19CA0100           [080] loadk      40  7        ; 0
014A  59CA0100           [081] loadk      41  7        ; 0
014E  99CA0100           [082] loadk      42  7        ; 0
0152  9B490002           [083] setlist    38  4   1    ; index 1 to 4
0156  D9090700           [084] loadk      39  28       ; 0
015A  1D0A0400           [085] getglobal  40  16       ; 160735655
015E  59CA0100           [086] loadk      41  7        ; 0
0162  998A0200           [087] loadk      42  10       ; 0
0166  228A8001           [088] call       40  3   2  
016A  594A0700           [089] loadk      41  29       ; 111
016E  A50A0000           [090] closure    42  0      
0172  E54A0000           [091] closure    43  1      
0176  12008002           [092] move       0   5      
017A  12008001           [093] move       0   3      
017E  E08A0700           [094] setglobal  43  30       ; GetSongs
0182  E0CA0700           [095] setglobal  43  31       ; -204656227
0186  E58A0000           [096] closure    43  2      
018A  12000000           [097] move       0   0      
018E  12000010           [098] move       0   32     
0192  12008010           [099] move       0   33     
0196  1200800F           [100] move       0   31     
019A  25CB0000           [101] closure    44  3      
019E  1200000B           [102] move       0   22     
01A2  1200800A           [103] move       0   21     
01A6  650B0100           [104] closure    45  4      
01AA  12000005           [105] move       0   10     
01AE  12008001           [106] move       0   3      
01B2  A54B0100           [107] closure    46  5      
01B6  12008016           [108] move       0   45     
01BA  A00B0800           [109] setglobal  46  32       ; IsPlayingStepSequencer
01BE  A04B0800           [110] setglobal  46  33       ; -1022252381
01C2  A58B0100           [111] closure    46  6      
01C6  12008016           [112] move       0   45     
01CA  1200000A           [113] move       0   20     
01CE  E5CB0100           [114] closure    47  7      
01D2  12000017           [115] move       0   46     
01D6  E08B0800           [116] setglobal  47  34       ; GetCurrentStepSequencer
01DA  E0CB0800           [117] setglobal  47  35       ; 1274137117
01DE  E50B0200           [118] closure    47  8      
01E2  12000009           [119] move       0   18     
01E6  12008009           [120] move       0   19     
01EA  E00B0900           [121] setglobal  47  36       ; GetStepSequencerDelta
01EE  E04B0900           [122] setglobal  47  37       ; -179878364
01F2  E54B0200           [123] closure    47  9      
01F6  12000004           [124] move       0   8      
01FA  1200000F           [125] move       0   30     
01FE  12008004           [126] move       0   9      
0202  12008001           [127] move       0   3      
0206  12000005           [128] move       0   10     
020A  12000017           [129] move       0   46     
020E  12000000           [130] move       0   0      
0212  258C0200           [131] closure    48  10     
0216  1200000C           [132] move       0   24     
021A  1200000D           [133] move       0   26     
021E  1200800D           [134] move       0   27     
0222  65CC0200           [135] closure    49  11     
0226  12000004           [136] move       0   8      
022A  12008016           [137] move       0   45     
022E  12000017           [138] move       0   46     
0232  12000005           [139] move       0   10     
0236  12000009           [140] move       0   18     
023A  12008009           [141] move       0   19     
023E  12008004           [142] move       0   9      
0242  12008001           [143] move       0   3      
0246  12000000           [144] move       0   0      
024A  12000006           [145] move       0   12     
024E  12008017           [146] move       0   47     
0252  1200800C           [147] move       0   25     
0256  1200000F           [148] move       0   30     
025A  1200000B           [149] move       0   22     
025E  12000016           [150] move       0   44     
0262  1200800B           [151] move       0   23     
0266  1200000A           [152] move       0   20     
026A  12000001           [153] move       0   2      
026E  12008005           [154] move       0   11     
0272  1200000E           [155] move       0   28     
0276  A50C0300           [156] closure    50  12     
027A  12008018           [157] move       0   49     
027E  A08C0900           [158] setglobal  50  38       ; PlaySong
0282  A0CC0900           [159] setglobal  50  39       ; -461123936
0286  A54C0300           [160] closure    50  13     
028A  12008006           [161] move       0   13     
028E  12008003           [162] move       0   7      
0292  12008001           [163] move       0   3      
0296  E58C0300           [164] closure    51  14     
029A  12000007           [165] move       0   14     
029E  E00C0A00           [166] setglobal  51  40       ; IsShuffleMode
02A2  E04C0A00           [167] setglobal  51  41       ; -1621767236
02A6  E5CC0300           [168] closure    51  15     
02AA  12000007           [169] move       0   14     
02AE  1200000F           [170] move       0   30     
02B2  250D0400           [171] closure    52  16     
02B6  12008019           [172] move       0   51     
02BA  208D0A00           [173] setglobal  52  42       ; ToggleShuffleMode
02BE  20CD0A00           [174] setglobal  52  43       ; -1168801365
02C2  254D0400           [175] closure    52  17     
02C6  12008007           [176] move       0   15     
02CA  200D0B00           [177] setglobal  52  44       ; GetLoopMode
02CE  204D0B00           [178] setglobal  52  45       ; -1623600209
02D2  258D0400           [179] closure    52  18     
02D6  12008007           [180] move       0   15     
02DA  1200000F           [181] move       0   30     
02DE  12000000           [182] move       0   0      
02E2  208D0B00           [183] setglobal  52  46       ; ToggleLoopMode
02E6  20CD0B00           [184] setglobal  52  47       ; 839814330
02EA  25CD0400           [185] closure    52  19     
02EE  12008003           [186] move       0   7      
02F2  1200800B           [187] move       0   23     
02F6  1200000B           [188] move       0   22     
02FA  12008006           [189] move       0   13     
02FE  12000007           [190] move       0   14     
0302  12000005           [191] move       0   10     
0306  12008001           [192] move       0   3      
030A  12008018           [193] move       0   49     
030E  650D0500           [194] closure    53  20     
0312  1200001A           [195] move       0   52     
0316  600D0C00           [196] setglobal  53  48       ; PlayNextSong
031A  604D0C00           [197] setglobal  53  49       ; 1055735066
031E  654D0500           [198] closure    53  21     
0322  12008003           [199] move       0   7      
0326  1200800A           [200] move       0   21     
032A  1200800B           [201] move       0   23     
032E  1200000B           [202] move       0   22     
0332  12008018           [203] move       0   49     
0336  A58D0500           [204] closure    54  22     
033A  1200801A           [205] move       0   53     
033E  A08D0C00           [206] setglobal  54  50       ; PlayPreviousSong
0342  A0CD0C00           [207] setglobal  54  51       ; -534163681
0346  A5CD0500           [208] closure    54  23     
034A  12008001           [209] move       0   3      
034E  12000005           [210] move       0   10     
0352  12000004           [211] move       0   8      
0356  12008018           [212] move       0   49     
035A  12008017           [213] move       0   47     
035E  12008004           [214] move       0   9      
0362  A00D0D00           [215] setglobal  54  52       ; ToggleSong
0366  A04D0D00           [216] setglobal  54  53       ; 1802956916
036A  A50D0600           [217] closure    54  24     
036E  12000004           [218] move       0   8      
0372  12000017           [219] move       0   46     
0376  12008009           [220] move       0   19     
037A  12000009           [221] move       0   18     
037E  A08D0D00           [222] setglobal  54  54       ; StopCurrentSong
0382  A0CD0D00           [223] setglobal  54  55       ; -1017146075
0386  A54D0600           [224] closure    54  25     
038A  12000005           [225] move       0   10     
038E  A00D0E00           [226] setglobal  54  56       ; GetPlayingSongIndex
0392  A04D0E00           [227] setglobal  54  57       ; -1014012583
0396  A58D0600           [228] closure    54  26     
039A  12000004           [229] move       0   8      
039E  A08D0E00           [230] setglobal  54  58       ; GetPlayingSongInstance
03A2  A0CD0E00           [231] setglobal  54  59       ; -1788533002
03A6  A5CD0600           [232] closure    54  27     
03AA  12008004           [233] move       0   9      
03AE  A00D0F00           [234] setglobal  54  60       ; IsSongPaused
03B2  A04D0F00           [235] setglobal  54  61       ; -688134032
03B6  A50D0700           [236] closure    54  28     
03BA  12008001           [237] move       0   3      
03BE  A08D0F00           [238] setglobal  54  62       ; IsSongLocked
03C2  A0CD0F00           [239] setglobal  54  63       ; -1949618526
03C6  A54D0700           [240] closure    54  29     
03CA  1200000E           [241] move       0   28     
03CE  A00D1000           [242] setglobal  54  64       ; SetSongStartCallback
03D2  A04D1000           [243] setglobal  54  65       ; 1541422997
03D6  A58D0700           [244] closure    54  30     
03DA  1200800E           [245] move       0   29     
03DE  A08D1000           [246] setglobal  54  66       ; SetSongEndCallback
03E2  A0CD1000           [247] setglobal  54  67       ; -1809586652
03E6  A5CD0700           [248] closure    54  31     
03EA  1200000D           [249] move       0   26     
03EE  1200800C           [250] move       0   25     
03F2  1200000C           [251] move       0   24     
03F6  1200000F           [252] move       0   30     
03FA  12000004           [253] move       0   8      
03FE  12000017           [254] move       0   46     
0402  12000018           [255] move       0   48     
0406  A00D1100           [256] setglobal  54  68       ; SetVolume
040A  A04D1100           [257] setglobal  54  69       ; 224633057
040E  A50D0800           [258] closure    54  32     
0412  1200800C           [259] move       0   25     
0416  1200000C           [260] move       0   24     
041A  A08D1100           [261] setglobal  54  70       ; GetVolume
041E  A0CD1100           [262] setglobal  54  71       ; -992418675
0422  A54D0800           [263] closure    54  33     
0426  12008010           [264] move       0   33     
042A  12000012           [265] move       0   36     
042E  12008014           [266] move       0   41     
0432  12008004           [267] move       0   9      
0436  12000004           [268] move       0   8      
043A  12000017           [269] move       0   46     
043E  12008008           [270] move       0   17     
0442  12000014           [271] move       0   40     
0446  12008011           [272] move       0   35     
044A  12000011           [273] move       0   34     
044E  12000013           [274] move       0   38     
0452  12008012           [275] move       0   37     
0456  E58D0800           [276] closure    55  34     
045A  12008002           [277] move       0   5      
045E  12000002           [278] move       0   4      
0462  1200000F           [279] move       0   30     
0466  1200000D           [280] move       0   26     
046A  1200800C           [281] move       0   25     
046E  1200000C           [282] move       0   24     
0472  1200800D           [283] move       0   27     
0476  12008001           [284] move       0   3      
047A  12000015           [285] move       0   42     
047E  12008018           [286] move       0   49     
0482  12008007           [287] move       0   15     
0486  12000000           [288] move       0   0      
048A  12008019           [289] move       0   51     
048E  12000019           [290] move       0   50     
0492  12008005           [291] move       0   11     
0496  12000004           [292] move       0   8      
049A  12008016           [293] move       0   45     
049E  12000009           [294] move       0   18     
04A2  12008004           [295] move       0   9      
04A6  12008009           [296] move       0   19     
04AA  1200800E           [297] move       0   29     
04AE  1200001A           [298] move       0   52     
04B2  12000005           [299] move       0   10     
04B6  12000017           [300] move       0   46     
04BA  12000001           [301] move       0   2      
04BE  1200000A           [302] move       0   20     
04C2  12000018           [303] move       0   48     
04C6  12000008           [304] move       0   16     
04CA  12000006           [305] move       0   12     
04CE  12008017           [306] move       0   47     
04D2  1200001B           [307] move       0   54     
04D6  E00D1200           [308] setglobal  55  72       ; UpdateJukeBox
04DA  E04D1200           [309] setglobal  55  73       ; -1005937169
04DE  E5CD0800           [310] closure    55  35     
04E2  12008001           [311] move       0   3      
04E6  12008006           [312] move       0   13     
04EA  E08D1200           [313] setglobal  55  74       ; ToggleAutoplaySong
04EE  E0CD1200           [314] setglobal  55  75       ; 993741797
04F2  E50D0900           [315] closure    55  36     
04F6  12008001           [316] move       0   3      
04FA  1200000F           [317] move       0   30     
04FE  E00D1300           [318] setglobal  55  76       ; SaveAutoplaySettings
0502  E04D1300           [319] setglobal  55  77       ; -1689630233
0506  E54D0900           [320] closure    55  37     
050A  12008001           [321] move       0   3      
050E  12000005           [322] move       0   10     
0512  12008003           [323] move       0   7      
0516  12000003           [324] move       0   6      
051A  1200000F           [325] move       0   30     
051E  12000015           [326] move       0   42     
0522  12008004           [327] move       0   9      
0526  12008018           [328] move       0   49     
052A  E08D1300           [329] setglobal  55  78       ; RefreshStepSequencers
052E  E0CD1300           [330] setglobal  55  79       ; 814165282
0532  E58D0900           [331] closure    55  38     
0536  12008001           [332] move       0   3      
053A  12000003           [333] move       0   6      
053E  12008003           [334] move       0   7      
0542  12000002           [335] move       0   4      
0546  12008011           [336] move       0   35     
054A  12000000           [337] move       0   0      
054E  12008013           [338] move       0   39     
0552  12000011           [339] move       0   34     
0556  12008015           [340] move       0   43     
055A  E00D1400           [341] setglobal  55  80       ; Initialize
055E  E04D1400           [342] setglobal  55  81       ; 1650753590
0562  E5CD0900           [343] closure    55  39     
0566  12008001           [344] move       0   3      
056A  E08D1400           [345] setglobal  55  82       ; OnIconCacheFlushed
056E  E0CD1400           [346] setglobal  55  83       ; 829090957
0572  E50D0A00           [347] closure    55  40     
0576  1200000F           [348] move       0   30     
057A  1200800D           [349] move       0   27     
057E  12000017           [350] move       0   46     
0582  12000018           [351] move       0   48     
0586  E00D1500           [352] setglobal  55  84       ; OnProfileSaved
058A  E04D1500           [353] setglobal  55  85       ; -263662435
058E  E54D0A00           [354] closure    55  41     
0592  12008010           [355] move       0   33     
0596  E08D1500           [356] setglobal  55  86       ; SetSequencerFxEntity
059A  E0CD1500           [357] setglobal  55  87       ; -1904774756
059E  E58D0A00           [358] closure    55  42     
05A2  12008010           [359] move       0   33     
05A6  12008000           [360] move       0   1      
05AA  E00D1600           [361] setglobal  55  88       ; UpdateSequencerColor
05AE  E04D1600           [362] setglobal  55  89       ; -1281489472
05B2  E5CD0A00           [363] closure    55  43     
05B6  12000006           [364] move       0   12     
05BA  12000004           [365] move       0   8      
05BE  12008016           [366] move       0   45     
05C2  12008004           [367] move       0   9      
05C6  12008017           [368] move       0   47     
05CA  E08D1600           [369] setglobal  55  90       ; SetSuppressed
05CE  E0CD1600           [370] setglobal  55  91       ; 6895081
05D2  E50D0B00           [371] closure    55  44     
05D6  12008001           [372] move       0   3      
05DA  12000002           [373] move       0   4      
05DE  12008002           [374] move       0   5      
05E2  12000003           [375] move       0   6      
05E6  12008003           [376] move       0   7      
05EA  12000004           [377] move       0   8      
05EE  12008004           [378] move       0   9      
05F2  12000005           [379] move       0   10     
05F6  12008005           [380] move       0   11     
05FA  12000009           [381] move       0   18     
05FE  12008009           [382] move       0   19     
0602  12000017           [383] move       0   46     
0606  12000007           [384] move       0   14     
060A  12008006           [385] move       0   13     
060E  1200000E           [386] move       0   28     
0612  1200800E           [387] move       0   29     
0616  E00D1700           [388] setglobal  55  92       ; Reset
061A  E04D1700           [389] setglobal  55  93       ; 604716203
061E  1E008000           [390] return     0   1      
                         * constants:
0622  5E                 sizek (94)
0623  01                 const type 3
0624  0FA3E338           const [0]: (954442511)
0628  04                 const type 4
0629  08                 string size (8)
062A  7061636B61676500   "package\0"
                         const [1]: "package"
0632  04                 const type 4
0633  07                 string size (7)
0634  736565616C6C00     "seeall\0"
                         const [2]: "seeall"
063B  01                 const type 3
063C  44DC9B32           const [3]: (849075268)
0640  04                 const type 4
0641  17                 string size (23)
0642  45452E496E746572+  "EE.Inter"
064A  666163652E557469+  "face.Uti"
0652  6C697469657300     "lities\0"
                         const [4]: "EE.Interface.Utilities"
0659  04                 const type 4
065A  2C                 string size (44)
065B  4C6F7475732E5363+  "Lotus.Sc"
0663  72697074732E4566+  "ripts.Ef"
066B  66656374732E4566+  "fects.Ef"
0673  6665637473436F6C+  "fectsCol"
067B  6F725574696C6974+  "orUtilit"
0683  69657300           "ies\0"
                         const [5]: "Lotus.Scripts.Effects.EffectsColorUtilities"
0687  04                 const type 4
0688  23                 string size (35)
0689  4C6F7475732E496E+  "Lotus.In"
0691  746572666163652E+  "terface."
0699  53657175656E6365+  "Sequence"
06A1  725574696C697469+  "rUtiliti"
06A9  657300             "es\0"
                         const [6]: "Lotus.Interface.SequencerUtilities"
06AC  03                 const type 3
06AD  00000000           const [7]: (0)
06B1  04                 const type 4
06B2  08                 string size (8)
06B3  4C4D5F4E4F4E4500   "LM_NONE\0"
                         const [8]: "LM_NONE"
06BB  04                 const type 4
06BC  08                 string size (8)
06BD  4C4D5F4C4F4F5000   "LM_LOOP\0"
                         const [9]: "LM_LOOP"
06C5  03                 const type 3
06C6  0000803F           const [10]: (0)
06CA  04                 const type 4
06CB  0B                 string size (11)
06CC  4C4D5F4C4F4F504F+  "LM_LOOPO"
06D4  4E4500             "NE\0"
                         const [11]: "LM_LOOPONE"
06D7  03                 const type 3
06D8  00000040           const [12]: (0)
06DC  03                 const type 3
06DD  00002041           const [13]: (0)
06E1  03                 const type 3
06E2  CDCC4C3E           const [14]: (-51)
06E6  03                 const type 3
06E7  0000FA43           const [15]: (0)
06EB  01                 const type 3
06EC  A7A19409           const [16]: (160735655)
06F0  01                 const type 3
06F1  F40BFE95           const [17]: (-1778512908)
06F5  03                 const type 3
06F6  000048C2           const [18]: (0)
06FA  01                 const type 3
06FB  5720287C           const [19]: (2083004503)
06FF  04                 const type 4
0700  3B                 string size (59)
0701  2F4C6F7475732F46+  "/Lotus/F"
0709  782F4C6576656C73+  "x/Levels"
0711  2F4875622F4F7065+  "/Hub/Ope"
0719  7261746F72517561+  "ratorQua"
0721  72746572732F4A75+  "rters/Ju"
0729  6B65626F78536571+  "keboxSeq"
0731  75656E6365724465+  "uencerDe"
0739  636F00             "co\0"
                         const [20]: "/Lotus/Fx/Levels/Hub/OperatorQuarters/JukeboxSequencerDeco"
073C  04                 const type 4
073D  08                 string size (8)
073E  4A756B65626F7800   "Jukebox\0"
                         const [21]: "Jukebox"
0746  01                 const type 3
0747  1A4B27EC           const [22]: (-332969190)
074B  04                 const type 4
074C  0D                 string size (13)
074D  536F756E6456616C+  "SoundVal"
0755  7565733000         "ues0\0"
                         const [23]: "SoundValues0"
075A  04                 const type 4
075B  0D                 string size (13)
075C  536F756E6456616C+  "SoundVal"
0764  7565733100         "ues1\0"
                         const [24]: "SoundValues1"
0769  04                 const type 4
076A  0D                 string size (13)
076B  536F756E6456616C+  "SoundVal"
0773  7565733200         "ues2\0"
                         const [25]: "SoundValues2"
0778  04                 const type 4
0779  0D                 string size (13)
077A  536F756E6456616C+  "SoundVal"
0782  7565733300         "ues3\0"
                         const [26]: "SoundValues3"
0787  04                 const type 4
0788  0D                 string size (13)
0789  536F756E6456616C+  "SoundVal"
0791  7565733400         "ues4\0"
                         const [27]: "SoundValues4"
0796  03                 const type 3
0797  00002C42           const [28]: (0)
079B  03                 const type 3
079C  6F12833C           const [29]: (111)
07A0  04                 const type 4
07A1  09                 string size (9)
07A2  476574536F6E6773+  "GetSongs"
07AA  00                 "\0"
                         const [30]: "GetSongs"
07AB  01                 const type 3
07AC  9D31CDF3           const [31]: (-204656227)
07B0  04                 const type 4
07B1  17                 string size (23)
07B2  4973506C6179696E+  "IsPlayin"
07BA  6753746570536571+  "gStepSeq"
07C2  75656E63657200     "uencer\0"
                         const [32]: "IsPlayingStepSequencer"
07C9  01                 const type 3
07CA  A3AA11C3           const [33]: (-1022252381)
07CE  04                 const type 4
07CF  18                 string size (24)
07D0  4765744375727265+  "GetCurre"
07D8  6E74537465705365+  "ntStepSe"
07E0  7175656E63657200   "quencer\0"
                         const [34]: "GetCurrentStepSequencer"
07E8  01                 const type 3
07E9  1DCAF14B           const [35]: (1274137117)
07ED  04                 const type 4
07EE  16                 string size (22)
07EF  4765745374657053+  "GetStepS"
07F7  657175656E636572+  "equencer"
07FF  44656C746100       "Delta\0"
                         const [36]: "GetStepSequencerDelta"
0805  01                 const type 3
0806  244647F5           const [37]: (-179878364)
080A  04                 const type 4
080B  09                 string size (9)
080C  506C6179536F6E67+  "PlaySong"
0814  00                 "\0"
                         const [38]: "PlaySong"
0815  01                 const type 3
0816  A0CE83E4           const [39]: (-461123936)
081A  04                 const type 4
081B  0E                 string size (14)
081C  497353687566666C+  "IsShuffl"
0824  654D6F646500       "eMode\0"
                         const [40]: "IsShuffleMode"
082A  01                 const type 3
082B  BCCB559F           const [41]: (-1621767236)
082F  04                 const type 4
0830  12                 string size (18)
0831  546F67676C655368+  "ToggleSh"
0839  7566666C654D6F64+  "uffleMod"
0841  6500               "e\0"
                         const [42]: "ToggleShuffleMode"
0843  01                 const type 3
0844  AB8155BA           const [43]: (-1168801365)
0848  04                 const type 4
0849  0C                 string size (12)
084A  4765744C6F6F704D+  "GetLoopM"
0852  6F646500           "ode\0"
                         const [44]: "GetLoopMode"
0856  01                 const type 3
0857  AFD3399F           const [45]: (-1623600209)
085B  04                 const type 4
085C  0F                 string size (15)
085D  546F67676C654C6F+  "ToggleLo"
0865  6F704D6F646500     "opMode\0"
                         const [46]: "ToggleLoopMode"
086C  01                 const type 3
086D  BA8C0E32           const [47]: (839814330)
0871  04                 const type 4
0872  0D                 string size (13)
0873  506C61794E657874+  "PlayNext"
087B  536F6E6700         "Song\0"
                         const [48]: "PlayNextSong"
0880  01                 const type 3
0881  1A3DED3E           const [49]: (1055735066)
0885  04                 const type 4
0886  11                 string size (17)
0887  506C617950726576+  "PlayPrev"
088F  696F7573536F6E67+  "iousSong"
0897  00                 "\0"
                         const [50]: "PlayPreviousSong"
0898  01                 const type 3
0899  1F4F29E0           const [51]: (-534163681)
089D  04                 const type 4
089E  0B                 string size (11)
089F  546F67676C65536F+  "ToggleSo"
08A7  6E6700             "ng\0"
                         const [52]: "ToggleSong"
08AA  01                 const type 3
08AB  74F0766B           const [53]: (1802956916)
08AF  04                 const type 4
08B0  10                 string size (16)
08B1  53746F7043757272+  "StopCurr"
08B9  656E74536F6E6700   "entSong\0"
                         const [54]: "StopCurrentSong"
08C1  01                 const type 3
08C2  25955FC3           const [55]: (-1017146075)
08C6  04                 const type 4
08C7  14                 string size (20)
08C8  476574506C617969+  "GetPlayi"
08D0  6E67536F6E67496E+  "ngSongIn"
08D8  64657800           "dex\0"
                         const [56]: "GetPlayingSongIndex"
08DC  01                 const type 3
08DD  59658FC3           const [57]: (-1014012583)
08E1  04                 const type 4
08E2  17                 string size (23)
08E3  476574506C617969+  "GetPlayi"
08EB  6E67536F6E67496E+  "ngSongIn"
08F3  7374616E636500     "stance\0"
                         const [58]: "GetPlayingSongInstance"
08FA  01                 const type 3
08FB  F6266595           const [59]: (-1788533002)
08FF  04                 const type 4
0900  0D                 string size (13)
0901  4973536F6E675061+  "IsSongPa"
0909  7573656400         "used\0"
                         const [60]: "IsSongPaused"
090E  01                 const type 3
090F  70E8FBD6           const [61]: (-688134032)
0913  04                 const type 4
0914  0D                 string size (13)
0915  4973536F6E674C6F+  "IsSongLo"
091D  636B656400         "cked\0"
                         const [62]: "IsSongLocked"
0922  01                 const type 3
0923  A22ECB8B           const [63]: (-1949618526)
0927  04                 const type 4
0928  15                 string size (21)
0929  536574536F6E6753+  "SetSongS"
0931  7461727443616C6C+  "tartCall"
0939  6261636B00         "back\0"
                         const [64]: "SetSongStartCallback"
093E  01                 const type 3
093F  953FE05B           const [65]: (1541422997)
0943  04                 const type 4
0944  13                 string size (19)
0945  536574536F6E6745+  "SetSongE"
094D  6E6443616C6C6261+  "ndCallba"
0955  636B00             "ck\0"
                         const [66]: "SetSongEndCallback"
0958  01                 const type 3
0959  24E62394           const [67]: (-1809586652)
095D  04                 const type 4
095E  0A                 string size (10)
095F  536574566F6C756D+  "SetVolum"
0967  6500               "e\0"
                         const [68]: "SetVolume"
0969  01                 const type 3
096A  E1A0630D           const [69]: (224633057)
096E  04                 const type 4
096F  0A                 string size (10)
0970  476574566F6C756D+  "GetVolum"
0978  6500               "e\0"
                         const [70]: "GetVolume"
097A  01                 const type 3
097B  8DE4D8C4           const [71]: (-992418675)
097F  04                 const type 4
0980  0E                 string size (14)
0981  5570646174654A75+  "UpdateJu"
0989  6B65426F7800       "keBox\0"
                         const [72]: "UpdateJukeBox"
098F  01                 const type 3
0990  EF9D0AC4           const [73]: (-1005937169)
0994  04                 const type 4
0995  13                 string size (19)
0996  546F67676C654175+  "ToggleAu"
099E  746F706C6179536F+  "toplaySo"
09A6  6E6700             "ng\0"
                         const [74]: "ToggleAutoplaySong"
09A9  01                 const type 3
09AA  E54B3B3B           const [75]: (993741797)
09AE  04                 const type 4
09AF  15                 string size (21)
09B0  536176654175746F+  "SaveAuto"
09B8  706C617953657474+  "playSett"
09C0  696E677300         "ings\0"
                         const [76]: "SaveAutoplaySettings"
09C5  01                 const type 3
09C6  E7494A9B           const [77]: (-1689630233)
09CA  04                 const type 4
09CB  16                 string size (22)
09CC  5265667265736853+  "RefreshS"
09D4  7465705365717565+  "tepSeque"
09DC  6E6365727300       "ncers\0"
                         const [78]: "RefreshStepSequencers"
09E2  01                 const type 3
09E3  222D8730           const [79]: (814165282)
09E7  04                 const type 4
09E8  0B                 string size (11)
09E9  496E697469616C69+  "Initiali"
09F1  7A6500             "ze\0"
                         const [80]: "Initialize"
09F4  01                 const type 3
09F5  36806462           const [81]: (1650753590)
09F9  04                 const type 4
09FA  13                 string size (19)
09FB  4F6E49636F6E4361+  "OnIconCa"
0A03  636865466C757368+  "cheFlush"
0A0B  656400             "ed\0"
                         const [82]: "OnIconCacheFlushed"
0A0E  01                 const type 3
0A0F  8DEC6A31           const [83]: (829090957)
0A13  04                 const type 4
0A14  0F                 string size (15)
0A15  4F6E50726F66696C+  "OnProfil"
0A1D  65536176656400     "eSaved\0"
                         const [84]: "OnProfileSaved"
0A24  01                 const type 3
0A25  9DD448F0           const [85]: (-263662435)
0A29  04                 const type 4
0A2A  15                 string size (21)
0A2B  5365745365717565+  "SetSeque"
0A33  6E6365724678456E+  "ncerFxEn"
0A3B  7469747900         "tity\0"
                         const [86]: "SetSequencerFxEntity"
0A40  01                 const type 3
0A41  9C71778E           const [87]: (-1904774756)
0A45  04                 const type 4
0A46  15                 string size (21)
0A47  5570646174655365+  "UpdateSe"
0A4F  7175656E63657243+  "quencerC"
0A57  6F6C6F7200         "olor\0"
                         const [88]: "UpdateSequencerColor"
0A5C  01                 const type 3
0A5D  C0059EB3           const [89]: (-1281489472)
0A61  04                 const type 4
0A62  0E                 string size (14)
0A63  5365745375707072+  "SetSuppr"
0A6B  657373656400       "essed\0"
                         const [90]: "SetSuppressed"
0A71  01                 const type 3
0A72  E9356900           const [91]: (6895081)
0A76  04                 const type 4
0A77  06                 string size (6)
0A78  526573657400       "Reset\0"
                         const [92]: "Reset"
0A7E  01                 const type 3
0A7F  AB3C0B24           const [93]: (604716203)
                         * functions:
0A83  2D                 sizep (45)
                         
0A84                     ** function [0] definition (level 2)
                         ** start of function **
0A84  00                 string size (0)
                         source name: (none)
0A85  39                 line defined (57)
0A86  41                 last line defined (65)
0A87  00                 nups (0)
0A88  02                 numparams (2)
0A89  00                 is_vararg (0)
0A8A  04                 maxstacksize (4)
                         * code:
0A8B  22                 sizecode (34)
0A8C  8E004000           [01] gettable   2   0   256  ; "Locked"
0A90  CE00C000           [02] gettable   3   1   256  ; "Locked"
fail op	35
0A94  63C00001           [03] close      1  
0A98  1A800080           [04] jmp        3            ; to [8]
0A9C  8E00C000           [05] gettable   2   1   256  ; "Locked"
0AA0  9E000001           [06] return     2   2      
0AA4  1A400680           [07] jmp        26           ; to [34]
0AA8  8E404000           [08] gettable   2   0   257  ; "Fingerprint"
fail op	35
0AAC  23804001           [09] close      0  
0AB0  1A800080           [10] jmp        3            ; to [14]
0AB4  8E40C000           [11] gettable   2   1   257  ; "Fingerprint"
fail op	35
0AB8  23804001           [12] close      0  
0ABC  1A400180           [13] jmp        6            ; to [20]
0AC0  8E404000           [14] gettable   2   0   257  ; "Fingerprint"
fail op	35
0AC4  63804001           [15] close      1  
0AC8  1A400280           [16] jmp        10           ; to [27]
0ACC  8E40C000           [17] gettable   2   1   257  ; "Fingerprint"
fail op	35
0AD0  23804001           [18] close      0  
0AD4  1A800180           [19] jmp        7            ; to [27]
0AD8  8E40C000           [20] gettable   2   1   257  ; "Fingerprint"
fail op	35
0ADC  23804001           [21] close      0  
0AE0  1A000080           [22] jmp        1            ; to [24]
0AE4  97400000           [23] loadbool   2   0   1    ; false, to [25]
0AE8  97008000           [24] loadbool   2   1   0    ; true
0AEC  9E000001           [25] return     2   2      
0AF0  1A800180           [26] jmp        7            ; to [34]
0AF4  8EC04000           [27] gettable   2   0   259  ; "Name"
0AF8  CEC0C000           [28] gettable   3   1   259  ; "Name"
fail op	21
0AFC  55C00001           [29] concat     1   2   3  
0B00  1A000080           [30] jmp        1            ; to [32]
0B04  97400000           [31] loadbool   2   0   1    ; false, to [33]
0B08  97008000           [32] loadbool   2   1   0    ; true
0B0C  9E000001           [33] return     2   2      
0B10  1E008000           [34] return     0   1      
                         * constants:
0B14  04                 sizek (4)
0B15  04                 const type 4
0B16  07                 string size (7)
0B17  4C6F636B656400     "Locked\0"
                         const [0]: "Locked"
0B1E  04                 const type 4
0B1F  0C                 string size (12)
0B20  46696E6765727072+  "Fingerpr"
0B28  696E7400           "int\0"
                         const [1]: "Fingerprint"
0B2C  00                 const type 0
                         const [2]: nil
0B2D  04                 const type 4
0B2E  05                 string size (5)
0B2F  4E616D6500         "Name\0"
                         const [3]: "Name"
                         * functions:
0B34  00                 sizep (0)
                         * lines:
0B35  22                 sizelineinfo (34)
                         [pc] (line)
0B36  3A                 [01] (58)
0B37  00                 [02] (58)
0B38  00                 [03] (58)
0B39  00                 [04] (58)
0B3A  3A                 [05] (59)
0B3B  00                 [06] (59)
0B3C  00                 [07] (59)
0B3D  00                 [08] (60)
0B3E  3A                 [09] (60)
0B3F  00                 [10] (60)
0B40  00                 [11] (60)
0B41  00                 [12] (60)
0B42  3A                 [13] (60)
0B43  00                 [14] (60)
0B44  00                 [15] (60)
0B45  00                 [16] (60)
0B46  3B                 [17] (60)
0B47  00                 [18] (60)
0B48  00                 [19] (60)
0B49  00                 [20] (61)
0B4A  3B                 [21] (61)
0B4B  00                 [22] (61)
0B4C  00                 [23] (61)
0B4D  00                 [24] (61)
0B4E  3B                 [25] (61)
0B4F  00                 [26] (61)
0B50  00                 [27] (63)
0B51  00                 [28] (63)
0B52  3C                 [29] (63)
0B53  00                 [30] (63)
0B54  00                 [31] (63)
0B55  00                 [32] (63)
0B56  3C                 [33] (63)
0B57  00                 [34] (65)
                         * locals:
0BBE  00                 sizelocvars (0)
                         * upvalues:
0BBF  00                 sizeupvalues (0)
                         ** end of function **

                         
0BC0                     ** function [1] definition (level 2)
                         ** start of function **
0BC0  00                 string size (0)
                         source name: (none)
0BC1  43                 line defined (67)
0BC2  49                 last line defined (73)
0BC3  02                 nups (2)
0BC4  00                 numparams (0)
0BC5  00                 is_vararg (0)
0BC6  02                 maxstacksize (2)
                         * code:
0BC7  08                 sizecode (8)
0BC8  13000000           [1] getupval   0   0      
0BCC  18400000           [2] test       0       1    ; to [4] if false
0BD0  1A400080           [3] jmp        2            ; to [6]
0BD4  06000000           [4] loadnil    0   0      
0BD8  1E000001           [5] return     0   2      
0BDC  13008000           [6] getupval   0   1      
0BE0  1E000001           [7] return     0   2      
0BE4  1E008000           [8] return     0   1      
                         * constants:
0BE8  00                 sizek (0)
                         * functions:
0BE9  00                 sizep (0)
                         * lines:
0BEA  08                 sizelineinfo (8)
                         [pc] (line)
0BEB  44                 [1] (68)
0BEC  00                 [2] (68)
0BED  00                 [3] (68)
0BEE  00                 [4] (69)
0BEF  44                 [5] (69)
0BF0  00                 [6] (72)
0BF1  00                 [7] (72)
0BF2  00                 [8] (73)
                         * locals:
0C0B  00                 sizelocvars (0)
                         * upvalues:
0C0C  00                 sizeupvalues (0)
                         ** end of function **

                         
0C0D                     ** function [2] definition (level 2)
                         ** start of function **
0C0D  00                 string size (0)
                         source name: (none)
0C0E  4B                 line defined (75)
0C0F  56                 last line defined (86)
0C10  04                 nups (4)
0C11  00                 numparams (0)
0C12  00                 is_vararg (0)
0C13  09                 maxstacksize (9)
                         * code:
0C14  31                 sizecode (49)
0C15  13000000           [01] getupval   0   0      
0C19  0E004000           [02] gettable   0   0   256  ; -1827748401
0C1D  53008000           [03] getupval   1   1      
0C21  22800001           [04] call       0   2   2  
0C25  5D400000           [05] getglobal  1   1        ; 1074689893
0C29  92000000           [06] move       2   0      
0C2D  62800001           [07] call       1   2   2  
0C31  58000000           [08] test       1       0    ; to [10] if true
0C35  1A000080           [09] jmp        1            ; to [11]
0C39  1E008000           [10] return     0   1      
0C3D  53000000           [11] getupval   1   0      
0C41  4E00C000           [12] gettable   1   1   256  ; -1827748401
0C45  99800000           [13] loadk      2   2        ; "JUKEBOX_SEQUENCER"
0C49  62800001           [14] call       1   2   2  
fail op	8
0C4D  48000001           [15] setupval   1   2      
0C51  5D400000           [16] getglobal  1   1        ; 1074689893
0C55  93000001           [17] getupval   2   2      
0C59  62800001           [18] call       1   2   2  
0C5D  58000000           [19] test       1       0    ; to [21] if true
0C61  1AC00680           [20] jmp        28           ; to [49]
0C65  5DC00000           [21] getglobal  1   3        ; gRegion
0C69  6400C100           [22] self       1   1   260  ; -1110225722
0C6D  D3008001           [23] getupval   3   3      
0C71  24414100           [24] self       4   0   261  ; 1839670529
0C75  22810001           [25] call       4   2   2  
0C79  5D810100           [26] getglobal  5   6        ; 572299008
0C7D  99C10100           [27] loadk      6   7        ; 0
0C81  D9010200           [28] loadk      7   8        ; 41
0C85  19C20100           [29] loadk      8   7        ; 0
0C89  62810002           [30] call       5   4   2  
0C8D  03410102           [31] add        4   4   5  
0C91  5D410200           [32] getglobal  5   9        ; 508519041
0C95  99810200           [33] loadk      6   10       ; 0
0C99  D9C10100           [34] loadk      7   7        ; 0
0C9D  19C20100           [35] loadk      8   7        ; 0
0CA1  62010002           [36] call       5   4   0  
0CA5  62800000           [37] call       1   0   2  
fail op	8
0CA9  48000001           [38] setupval   1   2      
0CAD  53000001           [39] getupval   1   2      
0CB1  64C0C200           [40] self       1   1   267  ; -971287385
0CB5  DD000300           [41] getglobal  3   12       ; -332969190
0CB9  19810000           [42] loadk      4   2        ; "JUKEBOX_SEQUENCER"
0CBD  E2000001           [43] call       3   2   0  
0CC1  62400000           [44] call       1   0   1  
0CC5  53000001           [45] getupval   1   2      
0CC9  6440C300           [46] self       1   1   269  ; 1786666898
0CCD  D9800300           [47] loadk      3   14       ; 0
0CD1  62408001           [48] call       1   3   1  
0CD5  1E008000           [49] return     0   1      
                         * constants:
0CD9  0F                 sizek (15)
0CDA  01                 const type 3
0CDB  CFC50E93           const [0]: (-1827748401)
0CDF  01                 const type 3
0CE0  65770E40           const [1]: (1074689893)
0CE4  04                 const type 4
0CE5  12                 string size (18)
0CE6  4A554B45424F585F+  "JUKEBOX_"
0CEE  53455155454E4345+  "SEQUENCE"
0CF6  5200               "R\0"
                         const [2]: "JUKEBOX_SEQUENCER"
0CF8  04                 const type 4
0CF9  08                 string size (8)
0CFA  67526567696F6E00   "gRegion\0"
                         const [3]: "gRegion"
0D02  01                 const type 3
0D03  C64CD3BD           const [4]: (-1110225722)
0D07  01                 const type 3
0D08  0125A76D           const [5]: (1839670529)
0D0C  01                 const type 3
0D0D  00971C22           const [6]: (572299008)
0D11  03                 const type 3
0D12  00000000           const [7]: (0)
0D16  03                 const type 3
0D17  295C0F3D           const [8]: (41)
0D1B  01                 const type 3
0D1C  81624F1E           const [9]: (508519041)
0D20  03                 const type 3
0D21  0000B4C2           const [10]: (0)
0D25  01                 const type 3
0D26  A7541BC6           const [11]: (-971287385)
0D2A  01                 const type 3
0D2B  1A4B27EC           const [12]: (-332969190)
0D2F  01                 const type 3
0D30  925F7E6A           const [13]: (1786666898)
0D34  03                 const type 3
0D35  00006040           const [14]: (0)
                         * functions:
0D39  00                 sizep (0)
                         * lines:
0D3A  31                 sizelineinfo (49)
                         [pc] (line)
0D3B  4C                 [01] (76)
0D3C  00                 [02] (76)
0D3D  00                 [03] (76)
0D3E  00                 [04] (76)
0D3F  4C                 [05] (77)
0D40  00                 [06] (77)
0D41  00                 [07] (77)
0D42  00                 [08] (77)
0D43  4C                 [09] (77)
0D44  00                 [10] (78)
0D45  00                 [11] (80)
0D46  00                 [12] (80)
0D47  4C                 [13] (80)
0D48  00                 [14] (80)
0D49  00                 [15] (80)
0D4A  00                 [16] (81)
0D4B  4D                 [17] (81)
0D4C  00                 [18] (81)
0D4D  00                 [19] (81)
0D4E  00                 [20] (81)
0D4F  4D                 [21] (82)
0D50  00                 [22] (82)
0D51  00                 [23] (82)
0D52  00                 [24] (82)
0D53  4D                 [25] (82)
0D54  00                 [26] (82)
0D55  00                 [27] (82)
0D56  00                 [28] (82)
0D57  4D                 [29] (82)
0D58  00                 [30] (82)
0D59  00                 [31] (82)
0D5A  00                 [32] (82)
0D5B  4D                 [33] (82)
0D5C  00                 [34] (82)
0D5D  00                 [35] (82)
0D5E  00                 [36] (82)
0D5F  4E                 [37] (82)
0D60  00                 [38] (82)
0D61  00                 [39] (83)
0D62  00                 [40] (83)
0D63  50                 [41] (83)
0D64  00                 [42] (83)
0D65  00                 [43] (83)
0D66  00                 [44] (83)
0D67  50                 [45] (84)
0D68  00                 [46] (84)
0D69  00                 [47] (84)
0D6A  00                 [48] (84)
0D6B  50                 [49] (86)
                         * locals:
0DFF  00                 sizelocvars (0)
                         * upvalues:
0E00  00                 sizeupvalues (0)
                         ** end of function **

                         
0E01                     ** function [3] definition (level 2)
                         ** start of function **
0E01  00                 string size (0)
                         source name: (none)
0E02  58                 line defined (88)
0E03  5D                 last line defined (93)
0E04  02                 nups (2)
0E05  01                 numparams (1)
0E06  00                 is_vararg (0)
0E07  05                 maxstacksize (5)
                         * code:
0E08  15                 sizecode (21)
0E09  5D000000           [01] getglobal  1   0        ; table
0E0D  4E40C000           [02] gettable   1   1   257  ; -431682403
0E11  93000000           [03] getupval   2   0      
0E15  D9800000           [04] loadk      3   2        ; 0
0E19  12010000           [05] move       4   0      
0E1D  62400002           [06] call       1   4   1  
0E21  53008000           [07] getupval   1   1      
fail op	21
0E25  15408081           [08] concat     0   259 1  
0E29  1A800280           [09] jmp        11           ; to [21]
0E2D  53000000           [10] getupval   1   0      
0E31  4A008000           [11] len        1   1      
0E35  93008000           [12] getupval   2   1      
fail op	21
0E39  15400001           [13] concat     0   2   1  
0E3D  1A400180           [14] jmp        6            ; to [21]
0E41  5D000000           [15] getglobal  1   0        ; table
0E45  4E00C100           [16] gettable   1   1   260  ; -843973282
0E49  93000000           [17] getupval   2   0      
0E4D  D3008000           [18] getupval   3   1      
0E51  C380C001           [19] add        3   3   258  ; 0
0E55  62408001           [20] call       1   3   1  
0E59  1E008000           [21] return     0   1      
                         * constants:
0E5D  05                 sizek (5)
0E5E  04                 const type 4
0E5F  06                 string size (6)
0E60  7461626C6500       "table\0"
                         const [0]: "table"
0E66  01                 const type 3
0E67  9D0C45E6           const [1]: (-431682403)
0E6B  03                 const type 3
0E6C  0000803F           const [2]: (0)
0E70  03                 const type 3
0E71  000080BF           const [3]: (0)
0E75  01                 const type 3
0E76  5EFDB1CD           const [4]: (-843973282)
                         * functions:
0E7A  00                 sizep (0)
                         * lines:
0E7B  15                 sizelineinfo (21)
                         [pc] (line)
0E7C  59                 [01] (89)
0E7D  00                 [02] (89)
0E7E  00                 [03] (89)
0E7F  00                 [04] (89)
0E80  59                 [05] (89)
0E81  00                 [06] (89)
0E82  00                 [07] (90)
0E83  00                 [08] (90)
0E84  59                 [09] (90)
0E85  00                 [10] (90)
0E86  00                 [11] (90)
0E87  00                 [12] (90)
0E88  59                 [13] (90)
0E89  00                 [14] (90)
0E8A  00                 [15] (91)
0E8B  00                 [16] (91)
0E8C  59                 [17] (91)
0E8D  00                 [18] (91)
0E8E  00                 [19] (91)
0E8F  00                 [20] (91)
0E90  59                 [21] (93)
                         * locals:
0ED0  00                 sizelocvars (0)
                         * upvalues:
0ED1  00                 sizeupvalues (0)
                         ** end of function **

                         
0ED2                     ** function [4] definition (level 2)
                         ** start of function **
0ED2  00                 string size (0)
                         source name: (none)
0ED3  5F                 line defined (95)
0ED4  61                 last line defined (97)
0ED5  02                 nups (2)
0ED6  00                 numparams (0)
0ED7  00                 is_vararg (0)
0ED8  02                 maxstacksize (2)
                         * code:
0ED9  12                 sizecode (18)
0EDA  13000000           [01] getupval   0   0      
fail op	35
0EDE  63004000           [02] close      1  
0EE2  1A800280           [03] jmp        11           ; to [15]
0EE6  13000000           [04] getupval   0   0      
0EEA  53008000           [05] getupval   1   1      
0EEE  4A008000           [06] len        1   1      
fail op	33
0EF2  21400000           [07] tforloop   0       1    ; to [9] if exit
0EF6  1A400180           [08] jmp        6            ; to [15]
0EFA  13008000           [09] getupval   0   1      
0EFE  53000000           [10] getupval   1   0      
0F02  0E400000           [11] gettable   0   0   1  
0F06  0E404000           [12] gettable   0   0   257  ; "Fingerprint"
fail op	35
0F0A  23004000           [13] close      0  
0F0E  1A000080           [14] jmp        1            ; to [16]
0F12  17400000           [15] loadbool   0   0   1    ; false, to [17]
0F16  17008000           [16] loadbool   0   1   0    ; true
0F1A  1E000001           [17] return     0   2      
0F1E  1E008000           [18] return     0   1      
                         * constants:
0F22  02                 sizek (2)
0F23  00                 const type 0
                         const [0]: nil
0F24  04                 const type 4
0F25  0C                 string size (12)
0F26  46696E6765727072+  "Fingerpr"
0F2E  696E7400           "int\0"
                         const [1]: "Fingerprint"
                         * functions:
0F32  00                 sizep (0)
                         * lines:
0F33  12                 sizelineinfo (18)
                         [pc] (line)
0F34  60                 [01] (96)
0F35  00                 [02] (96)
0F36  00                 [03] (96)
0F37  00                 [04] (96)
0F38  60                 [05] (96)
0F39  00                 [06] (96)
0F3A  00                 [07] (96)
0F3B  00                 [08] (96)
0F3C  60                 [09] (96)
0F3D  00                 [10] (96)
0F3E  00                 [11] (96)
0F3F  00                 [12] (96)
0F40  60                 [13] (96)
0F41  00                 [14] (96)
0F42  00                 [15] (96)
0F43  00                 [16] (96)
0F44  60                 [17] (96)
0F45  00                 [18] (97)
                         * locals:
0F7C  00                 sizelocvars (0)
                         * upvalues:
0F7D  00                 sizeupvalues (0)
                         ** end of function **

                         
0F7E                     ** function [5] definition (level 2)
                         ** start of function **
0F7E  00                 string size (0)
                         source name: (none)
0F7F  63                 line defined (99)
0F80  65                 last line defined (101)
0F81  01                 nups (1)
0F82  00                 numparams (0)
0F83  00                 is_vararg (0)
0F84  02                 maxstacksize (2)
                         * code:
0F85  04                 sizecode (4)
0F86  13000000           [1] getupval   0   0      
0F8A  07008000           [2] tailcall   0   1   0  
0F8E  1E000000           [3] return     0   0      
0F92  1E008000           [4] return     0   1      
                         * constants:
0F96  00                 sizek (0)
                         * functions:
0F97  00                 sizep (0)
                         * lines:
0F98  04                 sizelineinfo (4)
                         [pc] (line)
0F99  64                 [1] (100)
0F9A  00                 [2] (100)
0F9B  00                 [3] (100)
0F9C  00                 [4] (101)
                         * locals:
0FA9  00                 sizelocvars (0)
                         * upvalues:
0FAA  00                 sizeupvalues (0)
                         ** end of function **

                         
0FAB                     ** function [6] definition (level 2)
                         ** start of function **
0FAB  00                 string size (0)
                         source name: (none)
0FAC  67                 line defined (103)
0FAD  6C                 last line defined (108)
0FAE  02                 nups (2)
0FAF  00                 numparams (0)
0FB0  00                 is_vararg (0)
0FB1  02                 maxstacksize (2)
                         * code:
0FB2  18                 sizecode (24)
0FB3  13000000           [01] getupval   0   0      
0FB7  18000000           [02] test       0       0    ; to [4] if true
0FBB  1A400480           [03] jmp        18           ; to [22]
0FBF  1D000000           [04] getglobal  0   0        ; 1074689893
0FC3  53008000           [05] getupval   1   1      
0FC7  22800001           [06] call       0   2   2  
0FCB  18400000           [07] test       0       1    ; to [9] if false
0FCF  1A000380           [08] jmp        13           ; to [22]
0FD3  13008000           [09] getupval   0   1      
0FD7  0E404000           [10] gettable   0   0   257  ; "IsLoading"
0FDB  18400000           [11] test       0       1    ; to [13] if false
0FDF  1A000280           [12] jmp        9            ; to [22]
0FE3  1D000000           [13] getglobal  0   0        ; 1074689893
0FE7  53008000           [14] getupval   1   1      
0FEB  4E80C000           [15] gettable   1   1   258  ; "StepSequencer"
0FEF  22800001           [16] call       0   2   2  
0FF3  18400000           [17] test       0       1    ; to [19] if false
0FF7  1A800080           [18] jmp        3            ; to [22]
0FFB  13008000           [19] getupval   0   1      
0FFF  0E804000           [20] gettable   0   0   258  ; "StepSequencer"
1003  1E000001           [21] return     0   2      
1007  06000000           [22] loadnil    0   0      
100B  1E000001           [23] return     0   2      
100F  1E008000           [24] return     0   1      
                         * constants:
1013  03                 sizek (3)
1014  01                 const type 3
1015  65770E40           const [0]: (1074689893)
1019  04                 const type 4
101A  0A                 string size (10)
101B  49734C6F6164696E+  "IsLoadin"
1023  6700               "g\0"
                         const [1]: "IsLoading"
1025  04                 const type 4
1026  0E                 string size (14)
1027  5374657053657175+  "StepSequ"
102F  656E63657200       "encer\0"
                         const [2]: "StepSequencer"
                         * functions:
1035  00                 sizep (0)
                         * lines:
1036  18                 sizelineinfo (24)
                         [pc] (line)
1037  68                 [01] (104)
1038  00                 [02] (104)
1039  00                 [03] (104)
103A  00                 [04] (104)
103B  68                 [05] (104)
103C  00                 [06] (104)
103D  00                 [07] (104)
103E  00                 [08] (104)
103F  68                 [09] (104)
1040  00                 [10] (104)
1041  00                 [11] (104)
1042  00                 [12] (104)
1043  68                 [13] (104)
1044  00                 [14] (104)
1045  00                 [15] (104)
1046  00                 [16] (104)
1047  68                 [17] (104)
1048  00                 [18] (104)
1049  00                 [19] (105)
104A  00                 [20] (105)
104B  68                 [21] (105)
104C  00                 [22] (107)
104D  00                 [23] (107)
104E  00                 [24] (108)
                         * locals:
1097  00                 sizelocvars (0)
                         * upvalues:
1098  00                 sizeupvalues (0)
                         ** end of function **

                         
1099                     ** function [7] definition (level 2)
                         ** start of function **
1099  00                 string size (0)
                         source name: (none)
109A  6E                 line defined (110)
109B  70                 last line defined (112)
109C  01                 nups (1)
109D  00                 numparams (0)
109E  00                 is_vararg (0)
109F  02                 maxstacksize (2)
                         * code:
10A0  04                 sizecode (4)
10A1  13000000           [1] getupval   0   0      
10A5  07008000           [2] tailcall   0   1   0  
10A9  1E000000           [3] return     0   0      
10AD  1E008000           [4] return     0   1      
                         * constants:
10B1  00                 sizek (0)
                         * functions:
10B2  00                 sizep (0)
                         * lines:
10B3  04                 sizelineinfo (4)
                         [pc] (line)
10B4  6F                 [1] (111)
10B5  00                 [2] (111)
10B6  00                 [3] (111)
10B7  00                 [4] (112)
                         * locals:
10C4  00                 sizelocvars (0)
                         * upvalues:
10C5  00                 sizeupvalues (0)
                         ** end of function **

                         
10C6                     ** function [8] definition (level 2)
                         ** start of function **
10C6  00                 string size (0)
                         source name: (none)
10C7  72                 line defined (114)
10C8  77                 last line defined (119)
10C9  02                 nups (2)
10CA  00                 numparams (0)
10CB  00                 is_vararg (0)
10CC  03                 maxstacksize (3)
                         * code:
10CD  0E                 sizecode (14)
10CE  13000000           [01] getupval   0   0      
fail op	21
10D2  15000080           [02] concat     0   256 0  
10D6  1AC00180           [03] jmp        8            ; to [12]
10DA  1D400000           [04] getglobal  0   1        ; math
10DE  0E804000           [05] gettable   0   0   258  ; 1710846250
10E2  53008000           [06] getupval   1   1      
10E6  93000000           [07] getupval   2   0      
10EA  5C808000           [08] div        1   1   2  
10EE  99C00000           [09] loadk      2   3        ; 0
10F2  07008001           [10] tailcall   0   3   0  
10F6  1E000000           [11] return     0   0      
10FA  19000000           [12] loadk      0   0        ; 0
10FE  1E000001           [13] return     0   2      
1102  1E008000           [14] return     0   1      
                         * constants:
1106  04                 sizek (4)
1107  03                 const type 3
1108  00000000           const [0]: (0)
110C  04                 const type 4
110D  05                 string size (5)
110E  6D61746800         "math\0"
                         const [1]: "math"
1113  01                 const type 3
1114  2A71F965           const [2]: (1710846250)
1118  03                 const type 3
1119  0000803F           const [3]: (0)
                         * functions:
111D  00                 sizep (0)
                         * lines:
111E  0E                 sizelineinfo (14)
                         [pc] (line)
111F  73                 [01] (115)
1120  00                 [02] (115)
1121  00                 [03] (115)
1122  00                 [04] (116)
1123  73                 [05] (116)
1124  00                 [06] (116)
1125  00                 [07] (116)
1126  00                 [08] (116)
1127  73                 [09] (116)
1128  00                 [10] (116)
1129  00                 [11] (116)
112A  00                 [12] (118)
112B  74                 [13] (118)
112C  00                 [14] (119)
                         * locals:
1157  00                 sizelocvars (0)
                         * upvalues:
1158  00                 sizeupvalues (0)
                         ** end of function **

                         
1159                     ** function [9] definition (level 2)
                         ** start of function **
1159  00                 string size (0)
                         source name: (none)
115A  79                 line defined (121)
115B  92                 last line defined (146)
115C  01                 nups (7)
115D  07                 numparams (1)
115E  01                 is_vararg (0)
115F  00                 maxstacksize (9)
                         * code:
1161  45                 sizecode (69)
1162  5D000000           [01] getglobal  1   0        ; 1074689893
1166  93000000           [02] getupval   2   0      
116A  62800001           [03] call       1   2   2  
116E  58400000           [04] test       1       1    ; to [6] if false
1172  1A800880           [05] jmp        35           ; to [41]
1176  18000000           [06] test       0       0    ; to [8] if true
117A  1A800380           [07] jmp        15           ; to [23]
117E  53000000           [08] getupval   1   0      
1182  6440C000           [09] self       1   1   257  ; 1860882821
1186  62400001           [10] call       1   2   1  
118A  5D000000           [11] getglobal  1   0        ; 1074689893
118E  93008000           [12] getupval   2   1      
1192  62800001           [13] call       1   2   2  
1196  58400000           [14] test       1       1    ; to [16] if false
119A  1AC00080           [15] jmp        4            ; to [20]
119E  53008000           [16] getupval   1   1      
11A2  6480C000           [17] self       1   1   258  ; -511520316
11A6  C6008001           [18] loadnil    3   3      
11AA  62408001           [19] call       1   3   1  
11AE  57008000           [20] loadbool   1   1   0    ; true
fail op	8
11B2  48000001           [21] setupval   1   2      
11B6  1A400B80           [22] jmp        46           ; to [69]
11BA  53000000           [23] getupval   1   0      
11BE  64C0C000           [24] self       1   1   259  ; 1194286108
11C2  62400001           [25] call       1   2   1  
11C6  5D000000           [26] getglobal  1   0        ; 1074689893
11CA  93008000           [27] getupval   2   1      
11CE  62800001           [28] call       1   2   2  
11D2  58400000           [29] test       1       1    ; to [31] if false
11D6  1A800180           [30] jmp        7            ; to [38]
11DA  53008000           [31] getupval   1   1      
11DE  6480C000           [32] self       1   1   258  ; -511520316
11E2  D3008001           [33] getupval   3   3      
11E6  13010002           [34] getupval   4   4      
11EA  CE008101           [35] gettable   3   3   4  
11EE  CE00C101           [36] gettable   3   3   260  ; "Song"
11F2  62408001           [37] call       1   3   1  
11F6  57000000           [38] loadbool   1   0   0    ; false
fail op	8
11FA  48000001           [39] setupval   1   2      
11FE  1AC00680           [40] jmp        28           ; to [69]
1202  53008002           [41] getupval   1   5      
1206  62808000           [42] call       1   1   2  
120A  9D000000           [43] getglobal  2   0        ; 1074689893
120E  D2008000           [44] move       3   1      
1212  A2800001           [45] call       2   2   2  
1216  98400000           [46] test       2       1    ; to [48] if false
121A  1A000580           [47] jmp        21           ; to [69]
121E  A440C100           [48] self       2   1   261  ; 1038470555
1222  12010000           [49] move       4   0      
1226  A2408001           [50] call       2   3   1  
122A  9D000000           [51] getglobal  2   0        ; 1074689893
122E  D3008000           [52] getupval   3   1      
1232  A2800001           [53] call       2   2   2  
1236  98400000           [54] test       2       1    ; to [56] if false
123A  1AC00280           [55] jmp        12           ; to [68]
123E  93008000           [56] getupval   2   1      
1242  A4804101           [57] self       2   2   262  ; 336725356
1246  13010003           [58] getupval   4   6      
124A  0EC14102           [59] gettable   4   4   263  ; -132701534
124E  52010000           [60] move       5   0      
1252  99010200           [61] loadk      6   8        ; ""
1256  D3018001           [62] getupval   7   3      
125A  13020002           [63] getupval   8   4      
125E  CE018203           [64] gettable   7   7   8  
1262  CE41C203           [65] gettable   7   7   265  ; "MongoId"
1266  22010002           [66] call       4   4   0  
126A  A2400000           [67] call       2   0   1  
fail op	8
126E  08000001           [68] setupval   0   2      
1272  1E008000           [69] return     0   1      
                         * constants:
1276  0A                 sizek (10)
1277  01                 const type 3
1278  65770E40           const [0]: (1074689893)
127C  01                 const type 3
127D  85D1EA6E           const [1]: (1860882821)
1281  01                 const type 3
1282  C4D182E1           const [2]: (-511520316)
1286  01                 const type 3
1287  1C5C2F47           const [3]: (1194286108)
128B  04                 const type 4
128C  05                 string size (5)
128D  536F6E6700         "Song\0"
                         const [4]: "Song"
1292  01                 const type 3
1293  9BCDE53D           const [5]: (1038470555)
1297  01                 const type 3
1298  6C051214           const [6]: (336725356)
129C  01                 const type 3
129D  A22217F8           const [7]: (-132701534)
12A1  04                 const type 4
12A2  01                 string size (0)
                         const [8]: ""
12A4  04                 const type 4
12A5  08                 string size (8)
12A6  4D6F6E676F496400   "MongoId\0"
                         const [9]: "MongoId"
                         * functions:
12AE  00                 sizep (0)
                         * lines:
12AF  45                 sizelineinfo (69)
                         [pc] (line)
12B0  7A                 [01] (122)
12B1  00                 [02] (122)
12B2  00                 [03] (122)
12B3  00                 [04] (122)
12B4  7A                 [05] (122)
12B5  00                 [06] (123)
12B6  00                 [07] (123)
12B7  00                 [08] (124)
12B8  7A                 [09] (124)
12B9  00                 [10] (124)
12BA  00                 [11] (125)
12BB  00                 [12] (125)
12BC  7A                 [13] (125)
12BD  00                 [14] (125)
12BE  00                 [15] (125)
12BF  00                 [16] (126)
12C0  7A                 [17] (126)
12C1  00                 [18] (126)
12C2  00                 [19] (126)
12C3  00                 [20] (-128)
12C4  7B                 [21] (-128)
12C5  00                 [22] (-128)
12C6  00                 [23] (-126)
12C7  00                 [24] (-126)
12C8  7B                 [25] (-126)
12C9  00                 [26] (-125)
12CA  00                 [27] (-125)
12CB  00                 [28] (-125)
12CC  7C                 [29] (-125)
12CD  00                 [30] (-125)
12CE  00                 [31] (-124)
12CF  00                 [32] (-124)
12D0  7C                 [33] (-124)
12D1  00                 [34] (-124)
12D2  00                 [35] (-124)
12D3  00                 [36] (-124)
12D4  7C                 [37] (-124)
12D5  00                 [38] (-122)
12D6  00                 [39] (-122)
12D7  00                 [40] (-121)
12D8  7D                 [41] (-119)
12D9  00                 [42] (-119)
12DA  00                 [43] (-118)
12DB  00                 [44] (-118)
12DC  7D                 [45] (-118)
12DD  00                 [46] (-118)
12DE  00                 [47] (-118)
12DF  00                 [48] (-117)
12E0  7D                 [49] (-117)
12E1  00                 [50] (-117)
12E2  00                 [51] (-116)
12E3  00                 [52] (-116)
12E4  7D                 [53] (-116)
12E5  00                 [54] (-116)
12E6  00                 [55] (-116)
12E7  00                 [56] (-115)
12E8  7D                 [57] (-115)
12E9  00                 [58] (-115)
12EA  00                 [59] (-115)
12EB  00                 [60] (-115)
12EC  7E                 [61] (-115)
12ED  00                 [62] (-115)
12EE  00                 [63] (-115)
12EF  00                 [64] (-115)
12F0  7E                 [65] (-115)
12F1  00                 [66] (-115)
12F2  00                 [67] (-115)
12F3  00                 [68] (-113)
12F4  7E                 [69] (-110)
                         * locals:
13C4  00                 sizelocvars (0)
                         * upvalues:
13C5  00                 sizeupvalues (0)
                         ** end of function **

                         
13C6                     ** function [10] definition (level 2)
                         ** start of function **
13C6  00                 string size (0)
                         source name: (none)
13C8  01                 line defined (148)
13C9  99                 last line defined (153)
13CA  01                 nups (3)
13CB  03                 numparams (1)
13CC  01                 is_vararg (0)
13CD  00                 maxstacksize (10)
                         * code:
13CF  14                 sizecode (20)
13D0  5D000000           [01] getglobal  1   0        ; -1132024465
13D4  93000000           [02] getupval   2   0      
13D8  A4404001           [03] self       2   2   257  ; -1569107790
13DC  13018000           [04] getupval   4   1      
13E0  53010001           [05] getupval   5   2      
13E4  04410102           [06] mul        4   4   5  
13E8  A2008001           [07] call       2   3   0  
13EC  62800000           [08] call       1   0   2  
13F0  99800000           [09] loadk      2   2        ; 0
13F4  DDC00000           [10] getglobal  3   3        ; Lotus_Game
13F8  CE00C101           [11] gettable   3   3   260  ; "MAX_NoteType"
13FC  CD40C101           [12] sub        3   3   261  ; 0
1400  19410100           [13] loadk      4   5        ; 0
1404  90C00080           [14] forprep    2   4        ; to [19]
1408  A4814100           [15] self       6   0   262  ; -327665597
140C  12028002           [16] move       8   5      
1410  52028000           [17] move       9   1      
1414  A2410002           [18] call       6   4   1  
1418  9480FE7F           [19] forloop    2   -5       ; to [15] if loop
141C  1E008000           [20] return     0   1      
                         * constants:
1420  07                 sizek (7)
1421  01                 const type 3
1422  6FAD86BC           const [0]: (-1132024465)
1426  01                 const type 3
1427  B25079A2           const [1]: (-1569107790)
142B  03                 const type 3
142C  00000000           const [2]: (0)
1430  04                 const type 4
1431  0B                 string size (11)
1432  4C6F7475735F4761+  "Lotus_Ga"
143A  6D6500             "me\0"
                         const [3]: "Lotus_Game"
143D  04                 const type 4
143E  0D                 string size (13)
143F  4D41585F4E6F7465+  "MAX_Note"
1447  5479706500         "Type\0"
                         const [4]: "MAX_NoteType"
144C  03                 const type 3
144D  0000803F           const [5]: (0)
1451  01                 const type 3
1452  433878EC           const [6]: (-327665597)
                         * functions:
1456  00                 sizep (0)
                         * lines:
1457  14                 sizelineinfo (20)
                         [pc] (line)
1458  95                 [01] (-107)
1459  00                 [02] (-107)
145A  00                 [03] (-107)
145B  00                 [04] (-107)
145C  95                 [05] (-107)
145D  00                 [06] (-107)
145E  00                 [07] (-107)
145F  00                 [08] (-107)
1460  95                 [09] (-106)
1461  00                 [10] (-106)
1462  00                 [11] (-106)
1463  00                 [12] (-106)
1464  95                 [13] (-106)
1465  00                 [14] (-106)
1466  00                 [15] (-105)
1467  00                 [16] (-105)
1468  95                 [17] (-105)
1469  00                 [18] (-105)
146A  00                 [19] (-106)
146B  00                 [20] (-103)
                         * locals:
14A8  00                 sizelocvars (0)
                         * upvalues:
14A9  00                 sizeupvalues (0)
                         ** end of function **

                         
14AA                     ** function [11] definition (level 2)
                         ** start of function **
14AA  00                 string size (0)
                         source name: (none)
14AC  01                 line defined (155)
14AD  D6                 last line defined (214)
14AE  01                 nups (20)
14AF  14                 numparams (2)
14B0  02                 is_vararg (0)
14B1  00                 maxstacksize (12)
                         * code:
14B4  01                 sizecode (178)
14B5  9D000000           [001] getglobal  2   0        ; 1074689893
14B9  D3000000           [002] getupval   3   0      
14BD  A2800001           [003] call       2   2   2  
14C1  98400000           [004] test       2       1    ; to [6] if false
14C5  1A800180           [005] jmp        7            ; to [13]
14C9  93000000           [006] getupval   2   0      
14CD  A4404001           [007] self       2   2   257  ; 675444810
14D1  17018000           [008] loadbool   4   1   0    ; true
14D5  A2408001           [009] call       2   3   1  
14D9  86000001           [010] loadnil    2   2      
fail op	8
14DD  88000000           [011] setupval   2   0      
14E1  1A400380           [012] jmp        14           ; to [27]
14E5  93008000           [013] getupval   2   1      
14E9  A2808000           [014] call       2   1   2  
14ED  98000000           [015] test       2       0    ; to [17] if true
14F1  1A400280           [016] jmp        10           ; to [27]
14F5  93000001           [017] getupval   2   2      
14F9  A2808000           [018] call       2   1   2  
14FD  DD000000           [019] getglobal  3   0        ; 1074689893
1501  12010001           [020] move       4   2      
1505  E2800001           [021] call       3   2   2  
1509  D8400000           [022] test       3       1    ; to [24] if false
150D  1A800080           [023] jmp        3            ; to [27]
1511  E4804001           [024] self       3   2   258  ; 1038470555
1515  57018000           [025] loadbool   5   1   0    ; true
1519  E2408001           [026] call       3   3   1  
151D  C6008001           [027] loadnil    3   3      
fail op	8
1521  C8008001           [028] setupval   3   3      
1525  D9C00000           [029] loadk      3   3        ; 0
fail op	8
1529  C8000002           [030] setupval   3   4      
152D  D9C00000           [031] loadk      3   3        ; 0
fail op	8
1531  C8008002           [032] setupval   3   5      
1535  D7000000           [033] loadbool   3   0   0    ; false
fail op	8
1539  C8000003           [034] setupval   3   6      
fail op	35
153D  63004100           [035] close      1  
1541  1A002380           [036] jmp        141          ; to [178]
1545  D3008003           [037] getupval   3   7      
1549  CA008001           [038] len        3   3      
fail op	33
154D  21C00000           [039] tforloop   0       3    ; to [41] if exit
1551  1A002280           [040] jmp        137          ; to [178]
fail op	8
1555  08008001           [041] setupval   0   3      
1559  D3008003           [042] getupval   3   7      
155D  CE008001           [043] gettable   3   3   0  
1561  0E41C101           [044] gettable   4   3   261  ; "Fingerprint"
fail op	35
1565  23004102           [045] close      0  
1569  1A800F80           [046] jmp        63           ; to [110]
156D  13018003           [047] getupval   4   7      
1571  0E010002           [048] gettable   4   4   0  
1575  0E814102           [049] gettable   4   4   262  ; "Song"
1579  53010004           [050] getupval   5   8      
157D  4EC1C102           [051] gettable   5   5   263  ; 630793108
1581  92010002           [052] move       6   4      
1585  62810001           [053] call       5   2   2  
fail op	8
1589  48010000           [054] setupval   5   0      
158D  5D010200           [055] getglobal  5   8        ; -1817107093
1591  99410200           [056] loadk      6   9        ; "Jukebox: Playing song "
1595  D2010000           [057] move       7   0      
1599  19820200           [058] loadk      8   10       ; ", started = "
159D  5DC20200           [059] getglobal  9   11       ; -1615931716
15A1  9D020000           [060] getglobal  10  0        ; 1074689893
15A5  D3020000           [061] getupval   11  0      
15A9  A2820001           [062] call       10  2   2  
fail op	9
15AD  89020005           [063] settable   10  10  0  
15B1  62820001           [064] call       9   2   2  
15B5  82410203           [065] concat     6   6   9  
15B9  62410001           [066] call       5   2   1  
15BD  5D010000           [067] getglobal  5   0        ; 1074689893
15C1  93010000           [068] getupval   6   0      
15C5  62810001           [069] call       5   2   2  
15C9  58410000           [070] test       5       1    ; to [72] if false
15CD  1A801580           [071] jmp        87           ; to [159]
15D1  53018004           [072] getupval   5   9      
15D5  58010000           [073] test       5       0    ; to [75] if true
15D9  1A400180           [074] jmp        6            ; to [81]
15DD  53010003           [075] getupval   5   6      
15E1  58410000           [076] test       5       1    ; to [78] if false
15E5  1A800080           [077] jmp        3            ; to [81]
15E9  53010005           [078] getupval   5   10     
15ED  97018000           [079] loadbool   6   1   0    ; true
15F1  62410001           [080] call       5   2   1  
15F5  53010000           [081] getupval   5   0      
15F9  6401C302           [082] self       5   5   268  ; -2012281088
15FD  D3018005           [083] getupval   7   11     
1601  62418001           [084] call       5   3   1  
1605  5D010000           [085] getglobal  5   0        ; 1074689893
1609  93010006           [086] getupval   6   12     
160D  62810001           [087] call       5   2   2  
1611  58410000           [088] test       5       1    ; to [90] if false
1615  1AC00180           [089] jmp        8            ; to [98]
1619  53010006           [090] getupval   5   12     
161D  6441C302           [091] self       5   5   269  ; -511520316
1621  D2010002           [092] move       7   4      
1625  62418001           [093] call       5   3   1  
1629  53010006           [094] getupval   5   12     
162D  6481C302           [095] self       5   5   270  ; 336725356
1631  D9C10300           [096] loadk      7   15       ; ""
1635  62418001           [097] call       5   3   1  
1639  58400000           [098] test       1       1    ; to [100] if false
163D  1A800E80           [099] jmp        59           ; to [159]
1641  53018006           [100] getupval   5   13     
1645  4E01C402           [101] gettable   5   5   272  ; 0
fail op	35
1649  63400100           [102] close      1  
164D  1A800D80           [103] jmp        55           ; to [159]
1651  53010007           [104] getupval   5   14     
1655  92010000           [105] move       6   0      
1659  62410001           [106] call       5   2   1  
165D  59010400           [107] loadk      5   16       ; 0
fail op	8
1661  48018007           [108] setupval   5   15     
1665  1A000C80           [109] jmp        49           ; to [159]
1669  53010008           [110] getupval   5   16     
fail op	35
166D  2300C102           [111] close      0  
1671  1AC00080           [112] jmp        4            ; to [117]
1675  53018008           [113] getupval   5   17     
1679  4E41C402           [114] gettable   5   5   273  ; 488823768
167D  62818000           [115] call       5   1   2  
fail op	8
1681  48010008           [116] setupval   5   16     
1685  53018008           [117] getupval   5   17     
1689  4E81C402           [118] gettable   5   5   274  ; 1118362915
168D  93010008           [119] getupval   6   16     
1691  CEC1C401           [120] gettable   7   3   275  ; "NotePacks"
1695  0E42C101           [121] gettable   8   3   261  ; "Fingerprint"
1699  62410002           [122] call       5   4   1  
169D  5D010200           [123] getglobal  5   8        ; -1817107093
16A1  99010500           [124] loadk      6   20       ; "Jukebox: Playing mandachord song "
16A5  D2010000           [125] move       7   0      
16A9  19820200           [126] loadk      8   10       ; ", started = "
16AD  5DC20200           [127] getglobal  9   11       ; -1615931716
16B1  9D020000           [128] getglobal  10  0        ; 1074689893
16B5  D3020000           [129] getupval   11  0      
16B9  A2820001           [130] call       10  2   2  
fail op	9
16BD  89020005           [131] settable   10  10  0  
16C1  62820001           [132] call       9   2   2  
16C5  82410203           [133] concat     6   6   9  
16C9  62410001           [134] call       5   2   1  
16CD  5D010000           [135] getglobal  5   0        ; 1074689893
16D1  93010006           [136] getupval   6   12     
16D5  62810001           [137] call       5   2   2  
16D9  58410000           [138] test       5       1    ; to [140] if false
16DD  1AC00180           [139] jmp        8            ; to [148]
16E1  53010006           [140] getupval   5   12     
16E5  6441C302           [141] self       5   5   269  ; -511520316
16E9  C6018003           [142] loadnil    7   7      
16ED  62418001           [143] call       5   3   1  
16F1  53010006           [144] getupval   5   12     
16F5  6481C302           [145] self       5   5   270  ; 336725356
16F9  CE41C501           [146] gettable   7   3   277  ; "MongoId"
16FD  62418001           [147] call       5   3   1  
1701  58400000           [148] test       1       1    ; to [150] if false
1705  1A000280           [149] jmp        9            ; to [159]
1709  53018006           [150] getupval   5   13     
170D  4E01C402           [151] gettable   5   5   272  ; 0
fail op	35
1711  63400100           [152] close      1  
1715  1A000180           [153] jmp        5            ; to [159]
1719  53010007           [154] getupval   5   14     
171D  92010000           [155] move       6   0      
1721  62410001           [156] call       5   2   1  
1725  59010400           [157] loadk      5   16       ; 0
fail op	8
1729  48018007           [158] setupval   5   15     
172D  57018000           [159] loadbool   5   1   0    ; true
fail op	8
1731  48010009           [160] setupval   5   18     
1735  5D010000           [161] getglobal  5   0        ; 1074689893
1739  93018009           [162] getupval   6   19     
173D  62810001           [163] call       5   2   2  
1741  58410000           [164] test       5       1    ; to [166] if false
1745  1AC00280           [165] jmp        12           ; to [178]
1749  5D010000           [166] getglobal  5   0        ; 1074689893
174D  93010000           [167] getupval   6   0      
1751  62810001           [168] call       5   2   2  
1755  58010000           [169] test       5       0    ; to [171] if true
1759  1A800080           [170] jmp        3            ; to [174]
175D  4E41C101           [171] gettable   5   3   261  ; "Fingerprint"
fail op	35
1761  6300C102           [172] close      1  
1765  1AC00080           [173] jmp        4            ; to [178]
1769  53018009           [174] getupval   5   19     
176D  92018001           [175] move       6   3      
1771  D3010000           [176] getupval   7   0      
1775  62418001           [177] call       5   3   1  
1779  1E008000           [178] return     0   1      
                         * constants:
177D  16                 sizek (22)
177E  01                 const type 3
177F  65770E40           const [0]: (1074689893)
1783  01                 const type 3
1784  4A784228           const [1]: (675444810)
1788  01                 const type 3
1789  9BCDE53D           const [2]: (1038470555)
178D  03                 const type 3
178E  00000000           const [3]: (0)
1792  00                 const type 0
                         const [4]: nil
1793  04                 const type 4
1794  0C                 string size (12)
1795  46696E6765727072+  "Fingerpr"
179D  696E7400           "int\0"
                         const [5]: "Fingerprint"
17A1  04                 const type 4
17A2  05                 string size (5)
17A3  536F6E6700         "Song\0"
                         const [6]: "Song"
17A8  01                 const type 3
17A9  94239925           const [7]: (630793108)
17AD  01                 const type 3
17AE  6B25B193           const [8]: (-1817107093)
17B2  04                 const type 4
17B3  17                 string size (23)
17B4  4A756B65626F783A+  "Jukebox:"
17BC  20506C6179696E67+  " Playing"
17C4  20736F6E672000     " song \0"
                         const [9]: "Jukebox: Playing song "
17CB  04                 const type 4
17CC  0D                 string size (13)
17CD  2C20737461727465+  ", starte"
17D5  64203D2000         "d = \0"
                         const [10]: ", started = "
17DA  01                 const type 3
17DB  BCD6AE9F           const [11]: (-1615931716)
17DF  01                 const type 3
17E0  00070F88           const [12]: (-2012281088)
17E4  01                 const type 3
17E5  C4D182E1           const [13]: (-511520316)
17E9  01                 const type 3
17EA  6C051214           const [14]: (336725356)
17EE  04                 const type 4
17EF  01                 string size (0)
                         const [15]: ""
17F1  03                 const type 3
17F2  0000803F           const [16]: (0)
17F6  01                 const type 3
17F7  D8DB221D           const [17]: (488823768)
17FB  01                 const type 3
17FC  23DDA842           const [18]: (1118362915)
1800  04                 const type 4
1801  0A                 string size (10)
1802  4E6F74655061636B+  "NotePack"
180A  7300               "s\0"
                         const [19]: "NotePacks"
180C  04                 const type 4
180D  22                 string size (34)
180E  4A756B65626F783A+  "Jukebox:"
1816  20506C6179696E67+  " Playing"
181E  206D616E64616368+  " mandach"
1826  6F726420736F6E67+  "ord song"
182E  2000               " \0"
                         const [20]: "Jukebox: Playing mandachord song "
1830  04                 const type 4
1831  08                 string size (8)
1832  4D6F6E676F496400   "MongoId\0"
                         const [21]: "MongoId"
                         * functions:
183A  00                 sizep (0)
                         * lines:
183C  01                 sizelineinfo (178)
                         [pc] (line)
183D  9C                 [001] (-100)
183E  00                 [002] (-100)
183F  00                 [003] (-100)
1840  00                 [004] (-100)
1841  9C                 [005] (-100)
1842  00                 [006] (-99)
1843  00                 [007] (-99)
1844  00                 [008] (-99)
1845  9C                 [009] (-99)
1846  00                 [010] (-98)
1847  00                 [011] (-98)
1848  00                 [012] (-98)
1849  9C                 [013] (-97)
184A  00                 [014] (-97)
184B  00                 [015] (-97)
184C  00                 [016] (-97)
184D  9C                 [017] (-96)
184E  00                 [018] (-96)
184F  00                 [019] (-95)
1850  00                 [020] (-95)
1851  9D                 [021] (-95)
1852  00                 [022] (-95)
1853  00                 [023] (-95)
1854  00                 [024] (-94)
1855  9D                 [025] (-94)
1856  00                 [026] (-94)
1857  00                 [027] (-91)
1858  00                 [028] (-91)
1859  9D                 [029] (-90)
185A  00                 [030] (-90)
185B  00                 [031] (-89)
185C  00                 [032] (-89)
185D  9D                 [033] (-88)
185E  00                 [034] (-88)
185F  00                 [035] (-87)
1860  00                 [036] (-87)
1861  9E                 [037] (-87)
1862  00                 [038] (-87)
1863  00                 [039] (-87)
1864  00                 [040] (-87)
1865  9E                 [041] (-86)
1866  00                 [042] (-84)
1867  00                 [043] (-84)
1868  00                 [044] (-83)
1869  9E                 [045] (-83)
186A  00                 [046] (-83)
186B  00                 [047] (-82)
186C  00                 [048] (-82)
186D  9F                 [049] (-82)
186E  00                 [050] (-81)
186F  00                 [051] (-81)
1870  00                 [052] (-81)
1871  9F                 [053] (-81)
1872  00                 [054] (-81)
1873  00                 [055] (-80)
1874  00                 [056] (-80)
1875  9F                 [057] (-80)
1876  00                 [058] (-80)
1877  00                 [059] (-80)
1878  00                 [060] (-80)
1879  9F                 [061] (-80)
187A  00                 [062] (-80)
187B  00                 [063] (-80)
187C  00                 [064] (-80)
187D  A0                 [065] (-80)
187E  00                 [066] (-80)
187F  00                 [067] (-78)
1880  00                 [068] (-78)
1881  A0                 [069] (-78)
1882  00                 [070] (-78)
1883  00                 [071] (-78)
1884  00                 [072] (-77)
1885  A1                 [073] (-77)
1886  00                 [074] (-77)
1887  00                 [075] (-77)
1888  00                 [076] (-77)
1889  A1                 [077] (-77)
188A  00                 [078] (-76)
188B  00                 [079] (-76)
188C  00                 [080] (-76)
188D  A1                 [081] (-74)
188E  00                 [082] (-74)
188F  00                 [083] (-74)
1890  00                 [084] (-74)
1891  A1                 [085] (-73)
1892  00                 [086] (-73)
1893  00                 [087] (-73)
1894  00                 [088] (-73)
1895  A1                 [089] (-73)
1896  00                 [090] (-72)
1897  00                 [091] (-72)
1898  00                 [092] (-72)
1899  A2                 [093] (-72)
189A  00                 [094] (-71)
189B  00                 [095] (-71)
189C  00                 [096] (-71)
189D  A2                 [097] (-71)
189E  00                 [098] (-69)
189F  00                 [099] (-69)
18A0  00                 [100] (-69)
18A1  A2                 [101] (-69)
18A2  00                 [102] (-69)
18A3  00                 [103] (-69)
18A4  00                 [104] (-68)
18A5  A5                 [105] (-68)
18A6  00                 [106] (-68)
18A7  00                 [107] (-67)
18A8  00                 [108] (-67)
18A9  A5                 [109] (-65)
18AA  00                 [110] (-63)
18AB  00                 [111] (-63)
18AC  00                 [112] (-63)
18AD  A6                 [113] (-62)
18AE  00                 [114] (-62)
18AF  00                 [115] (-62)
18B0  00                 [116] (-62)
18B1  A6                 [117] (-60)
18B2  00                 [118] (-60)
18B3  00                 [119] (-60)
18B4  00                 [120] (-60)
18B5  A7                 [121] (-60)
18B6  00                 [122] (-60)
18B7  00                 [123] (-59)
18B8  00                 [124] (-59)
18B9  A7                 [125] (-59)
18BA  00                 [126] (-59)
18BB  00                 [127] (-59)
18BC  00                 [128] (-59)
18BD  A8                 [129] (-59)
18BE  00                 [130] (-59)
18BF  00                 [131] (-59)
18C0  00                 [132] (-59)
18C1  A8                 [133] (-59)
18C2  00                 [134] (-59)
18C3  00                 [135] (-57)
18C4  00                 [136] (-57)
18C5  A9                 [137] (-57)
18C6  00                 [138] (-57)
18C7  00                 [139] (-57)
18C8  00                 [140] (-56)
18C9  A9                 [141] (-56)
18CA  00                 [142] (-56)
18CB  00                 [143] (-56)
18CC  00                 [144] (-55)
18CD  A9                 [145] (-55)
18CE  00                 [146] (-55)
18CF  00                 [147] (-55)
18D0  00                 [148] (-53)
18D1  A9                 [149] (-53)
18D2  00                 [150] (-53)
18D3  00                 [151] (-53)
18D4  00                 [152] (-53)
18D5  A9                 [153] (-53)
18D6  00                 [154] (-52)
18D7  00                 [155] (-52)
18D8  00                 [156] (-52)
18D9  A9                 [157] (-51)
18DA  00                 [158] (-51)
18DB  00                 [159] (-48)
18DC  00                 [160] (-48)
18DD  AA                 [161] (-46)
18DE  00                 [162] (-46)
18DF  00                 [163] (-46)
18E0  00                 [164] (-46)
18E1  AC                 [165] (-46)
18E2  00                 [166] (-46)
18E3  00                 [167] (-46)
18E4  00                 [168] (-46)
18E5  AC                 [169] (-46)
18E6  00                 [170] (-46)
18E7  00                 [171] (-46)
18E8  00                 [172] (-46)
18E9  AD                 [173] (-46)
18EA  00                 [174] (-45)
18EB  00                 [175] (-45)
18EC  00                 [176] (-45)
18ED  AD                 [177] (-45)
18EE  00                 [178] (-42)
                         * locals:
1B05  00                 sizelocvars (0)
                         * upvalues:
1B06  00                 sizeupvalues (0)
                         ** end of function **

                         
1B07                     ** function [12] definition (level 2)
                         ** start of function **
1B07  00                 string size (0)
                         source name: (none)
1B09  01                 line defined (216)
1B0A  DA                 last line defined (218)
1B0B  01                 nups (1)
1B0C  01                 numparams (1)
1B0D  01                 is_vararg (0)
1B0E  00                 maxstacksize (3)
                         * code:
1B10  04                 sizecode (4)
1B11  53000000           [1] getupval   1   0      
1B15  92000000           [2] move       2   0      
1B19  62400001           [3] call       1   2   1  
1B1D  1E008000           [4] return     0   1      
                         * constants:
1B21  00                 sizek (0)
                         * functions:
1B22  00                 sizep (0)
                         * lines:
1B23  04                 sizelineinfo (4)
                         [pc] (line)
1B24  D9                 [1] (-39)
1B25  00                 [2] (-39)
1B26  00                 [3] (-39)
1B27  00                 [4] (-38)
                         * locals:
1B34  00                 sizelocvars (0)
                         * upvalues:
1B35  00                 sizeupvalues (0)
                         ** end of function **

                         
1B36                     ** function [13] definition (level 2)
                         ** start of function **
1B36  00                 string size (0)
                         source name: (none)
1B38  01                 line defined (220)
1B39  E3                 last line defined (227)
1B3A  01                 nups (3)
1B3B  03                 numparams (0)
1B3C  00                 is_vararg (0)
1B3D  00                 maxstacksize (7)
                         * code:
1B3F  18                 sizecode (24)
1B40  0B000000           [01] newtable   0   0   0    ; array=0, hash=0
fail op	8
1B44  08000000           [02] setupval   0   0      
1B48  19000000           [03] loadk      0   0        ; 0
1B4C  53008000           [04] getupval   1   1      
1B50  99000000           [05] loadk      2   0        ; 0
1B54  10C00380           [06] forprep    0   16       ; to [23]
1B58  1D410000           [07] getglobal  4   1        ; 1074689893
1B5C  53010001           [08] getupval   5   2      
1B60  4EC18002           [09] gettable   5   5   3  
1B64  22810001           [10] call       4   2   2  
1B68  18410000           [11] test       4       1    ; to [13] if false
1B6C  1A400280           [12] jmp        10           ; to [23]
1B70  13010001           [13] getupval   4   2      
1B74  0EC10002           [14] gettable   4   4   3  
1B78  0E814002           [15] gettable   4   4   258  ; "AutoplayEnabled"
1B7C  18010000           [16] test       4       0    ; to [18] if true
1B80  1A000180           [17] jmp        5            ; to [23]
1B84  1DC10000           [18] getglobal  4   3        ; table
1B88  0E014102           [19] gettable   4   4   260  ; -431682403
1B8C  53010000           [20] getupval   5   0      
1B90  92018001           [21] move       6   3      
1B94  22418001           [22] call       4   3   1  
1B98  1480FB7F           [23] forloop    0   -17      ; to [7] if loop
1B9C  1E008000           [24] return     0   1      
                         * constants:
1BA0  05                 sizek (5)
1BA1  03                 const type 3
1BA2  0000803F           const [0]: (0)
1BA6  01                 const type 3
1BA7  65770E40           const [1]: (1074689893)
1BAB  04                 const type 4
1BAC  10                 string size (16)
1BAD  4175746F706C6179+  "Autoplay"
1BB5  456E61626C656400   "Enabled\0"
                         const [2]: "AutoplayEnabled"
1BBD  04                 const type 4
1BBE  06                 string size (6)
1BBF  7461626C6500       "table\0"
                         const [3]: "table"
1BC5  01                 const type 3
1BC6  9D0C45E6           const [4]: (-431682403)
                         * functions:
1BCA  00                 sizep (0)
                         * lines:
1BCB  18                 sizelineinfo (24)
                         [pc] (line)
1BCC  DD                 [01] (-35)
1BCD  00                 [02] (-35)
1BCE  00                 [03] (-34)
1BCF  00                 [04] (-34)
1BD0  DD                 [05] (-34)
1BD1  00                 [06] (-34)
1BD2  00                 [07] (-33)
1BD3  00                 [08] (-33)
1BD4  DE                 [09] (-33)
1BD5  00                 [10] (-33)
1BD6  00                 [11] (-33)
1BD7  00                 [12] (-33)
1BD8  DE                 [13] (-33)
1BD9  00                 [14] (-33)
1BDA  00                 [15] (-33)
1BDB  00                 [16] (-33)
1BDC  DE                 [17] (-33)
1BDD  00                 [18] (-32)
1BDE  00                 [19] (-32)
1BDF  00                 [20] (-32)
1BE0  DE                 [21] (-32)
1BE1  00                 [22] (-32)
1BE2  00                 [23] (-34)
1BE3  00                 [24] (-29)
                         * locals:
1C2C  00                 sizelocvars (0)
                         * upvalues:
1C2D  00                 sizeupvalues (0)
                         ** end of function **

                         
1C2E                     ** function [14] definition (level 2)
                         ** start of function **
1C2E  00                 string size (0)
                         source name: (none)
1C30  01                 line defined (229)
1C31  E7                 last line defined (231)
1C32  01                 nups (1)
1C33  01                 numparams (0)
1C34  00                 is_vararg (0)
1C35  00                 maxstacksize (2)
                         * code:
1C37  03                 sizecode (3)
1C38  13000000           [1] getupval   0   0      
1C3C  1E000001           [2] return     0   2      
1C40  1E008000           [3] return     0   1      
                         * constants:
1C44  00                 sizek (0)
                         * functions:
1C45  00                 sizep (0)
                         * lines:
1C46  03                 sizelineinfo (3)
                         [pc] (line)
1C47  E6                 [1] (-26)
1C48  00                 [2] (-26)
1C49  00                 [3] (-25)
                         * locals:
1C53  00                 sizelocvars (0)
                         * upvalues:
1C54  00                 sizeupvalues (0)
                         ** end of function **

                         
1C55                     ** function [15] definition (level 2)
                         ** start of function **
1C55  00                 string size (0)
                         source name: (none)
1C57  01                 line defined (233)
1C58  EE                 last line defined (238)
1C59  01                 nups (2)
1C5A  02                 numparams (0)
1C5B  00                 is_vararg (0)
1C5C  00                 maxstacksize (3)
                         * code:
1C5E  0D                 sizecode (13)
1C5F  13000000           [01] getupval   0   0      
fail op	9
1C63  09000000           [02] settable   0   0   0  
fail op	8
1C67  08000000           [03] setupval   0   0      
1C6B  1D000000           [04] getglobal  0   0        ; 1074689893
1C6F  53008000           [05] getupval   1   1      
1C73  22800001           [06] call       0   2   2  
1C77  18400000           [07] test       0       1    ; to [9] if false
1C7B  1AC00080           [08] jmp        4            ; to [13]
1C7F  13008000           [09] getupval   0   1      
1C83  24404000           [10] self       0   0   257  ; -144175639
1C87  93000000           [11] getupval   2   0      
1C8B  22408001           [12] call       0   3   1  
1C8F  1E008000           [13] return     0   1      
                         * constants:
1C93  02                 sizek (2)
1C94  01                 const type 3
1C95  65770E40           const [0]: (1074689893)
1C99  01                 const type 3
1C9A  E90D68F7           const [1]: (-144175639)
                         * functions:
1C9E  00                 sizep (0)
                         * lines:
1C9F  0D                 sizelineinfo (13)
                         [pc] (line)
1CA0  EA                 [01] (-22)
1CA1  00                 [02] (-22)
1CA2  00                 [03] (-22)
1CA3  00                 [04] (-21)
1CA4  EA                 [05] (-21)
1CA5  00                 [06] (-21)
1CA6  00                 [07] (-21)
1CA7  00                 [08] (-21)
1CA8  EA                 [09] (-20)
1CA9  00                 [10] (-20)
1CAA  00                 [11] (-20)
1CAB  00                 [12] (-20)
1CAC  EB                 [13] (-18)
                         * locals:
1CD4  00                 sizelocvars (0)
                         * upvalues:
1CD5  00                 sizeupvalues (0)
                         ** end of function **

                         
1CD6                     ** function [16] definition (level 2)
                         ** start of function **
1CD6  00                 string size (0)
                         source name: (none)
1CD8  01                 line defined (240)
1CD9  F2                 last line defined (242)
1CDA  01                 nups (1)
1CDB  01                 numparams (0)
1CDC  00                 is_vararg (0)
1CDD  00                 maxstacksize (2)
                         * code:
1CDF  03                 sizecode (3)
1CE0  13000000           [1] getupval   0   0      
1CE4  22408000           [2] call       0   1   1  
1CE8  1E008000           [3] return     0   1      
                         * constants:
1CEC  00                 sizek (0)
                         * functions:
1CED  00                 sizep (0)
                         * lines:
1CEE  03                 sizelineinfo (3)
                         [pc] (line)
1CEF  F1                 [1] (-15)
1CF0  00                 [2] (-15)
1CF1  00                 [3] (-14)
                         * locals:
1CFB  00                 sizelocvars (0)
                         * upvalues:
1CFC  00                 sizeupvalues (0)
                         ** end of function **

                         
1CFD                     ** function [17] definition (level 2)
                         ** start of function **
1CFD  00                 string size (0)
                         source name: (none)
1CFF  01                 line defined (244)
1D00  F6                 last line defined (246)
1D01  01                 nups (1)
1D02  01                 numparams (0)
1D03  00                 is_vararg (0)
1D04  00                 maxstacksize (2)
                         * code:
1D06  03                 sizecode (3)
1D07  13000000           [1] getupval   0   0      
1D0B  1E000001           [2] return     0   2      
1D0F  1E008000           [3] return     0   1      
                         * constants:
1D13  00                 sizek (0)
                         * functions:
1D14  00                 sizep (0)
                         * lines:
1D15  03                 sizelineinfo (3)
                         [pc] (line)
1D16  F5                 [1] (-11)
1D17  00                 [2] (-11)
1D18  00                 [3] (-10)
                         * locals:
1D22  00                 sizelocvars (0)
                         * upvalues:
1D23  00                 sizeupvalues (0)
                         ** end of function **

                         
1D24                     ** function [18] definition (level 2)
                         ** start of function **
1D24  00                 string size (0)
                         source name: (none)
1D26  01                 line defined (248)
1D27  FE                 last line defined (254)
1D28  01                 nups (3)
1D29  03                 numparams (0)
1D2A  00                 is_vararg (0)
1D2B  00                 maxstacksize (7)
                         * code:
1D2D  26                 sizecode (38)
1D2E  13000000           [01] getupval   0   0      
1D32  03004000           [02] add        0   0   256  ; 0
1D36  1F404000           [03] mod        0   0   257  ; 0
fail op	8
1D3A  08000000           [04] setupval   0   0      
1D3E  1D800000           [05] getglobal  0   2        ; 1074689893
1D42  53008000           [06] getupval   1   1      
1D46  22800001           [07] call       0   2   2  
1D4A  18400000           [08] test       0       1    ; to [10] if false
1D4E  1AC00680           [09] jmp        28           ; to [38]
1D52  13000001           [10] getupval   0   2      
1D56  0EC04000           [11] gettable   0   0   259  ; -132701534
1D5A  53000000           [12] getupval   1   0      
1D5E  9D000100           [13] getglobal  2   4        ; LM_NONE
fail op	35
1D62  63808000           [14] close      1  
1D66  1A000080           [15] jmp        1            ; to [17]
1D6A  57400000           [16] loadbool   1   0   1    ; false, to [18]
1D6E  57008000           [17] loadbool   1   1   0    ; true
1D72  9D400100           [18] getglobal  2   5        ; Engine
1D76  8E804101           [19] gettable   2   2   262  ; "JM_NONE"
1D7A  D3000001           [20] getupval   3   2      
1D7E  CEC0C001           [21] gettable   3   3   259  ; -132701534
1D82  13010000           [22] getupval   4   0      
1D86  5DC10100           [23] getglobal  5   7        ; LM_LOOPONE
fail op	35
1D8A  63400102           [24] close      1  
1D8E  1A000080           [25] jmp        1            ; to [27]
1D92  17410000           [26] loadbool   4   0   1    ; false, to [28]
1D96  17018000           [27] loadbool   4   1   0    ; true
1D9A  5D410100           [28] getglobal  5   5        ; Engine
1D9E  4E01C202           [29] gettable   5   5   264  ; "JM_LOOPONE"
1DA2  9D410100           [30] getglobal  6   5        ; Engine
1DA6  8E414203           [31] gettable   6   6   265  ; "JM_LOOP"
1DAA  E2000002           [32] call       3   4   0  
1DAE  22800000           [33] call       0   0   2  
1DB2  53008000           [34] getupval   1   1      
1DB6  6480C200           [35] self       1   1   266  ; 867372545
1DBA  D2000000           [36] move       3   0      
1DBE  62408001           [37] call       1   3   1  
1DC2  1E008000           [38] return     0   1      
                         * constants:
1DC6  0B                 sizek (11)
1DC7  03                 const type 3
1DC8  0000803F           const [0]: (0)
1DCC  03                 const type 3
1DCD  00004040           const [1]: (0)
1DD1  01                 const type 3
1DD2  65770E40           const [2]: (1074689893)
1DD6  01                 const type 3
1DD7  A22217F8           const [3]: (-132701534)
1DDB  04                 const type 4
1DDC  08                 string size (8)
1DDD  4C4D5F4E4F4E4500   "LM_NONE\0"
                         const [4]: "LM_NONE"
1DE5  04                 const type 4
1DE6  07                 string size (7)
1DE7  456E67696E6500     "Engine\0"
                         const [5]: "Engine"
1DEE  04                 const type 4
1DEF  08                 string size (8)
1DF0  4A4D5F4E4F4E4500   "JM_NONE\0"
                         const [6]: "JM_NONE"
1DF8  04                 const type 4
1DF9  0B                 string size (11)
1DFA  4C4D5F4C4F4F504F+  "LM_LOOPO"
1E02  4E4500             "NE\0"
                         const [7]: "LM_LOOPONE"
1E05  04                 const type 4
1E06  0B                 string size (11)
1E07  4A4D5F4C4F4F504F+  "JM_LOOPO"
1E0F  4E4500             "NE\0"
                         const [8]: "JM_LOOPONE"
1E12  04                 const type 4
1E13  08                 string size (8)
1E14  4A4D5F4C4F4F5000   "JM_LOOP\0"
                         const [9]: "JM_LOOP"
1E1C  01                 const type 3
1E1D  010EB333           const [10]: (867372545)
                         * functions:
1E21  00                 sizep (0)
                         * lines:
1E22  26                 sizelineinfo (38)
                         [pc] (line)
1E23  F9                 [01] (-7)
1E24  00                 [02] (-7)
1E25  00                 [03] (-7)
1E26  00                 [04] (-7)
1E27  F9                 [05] (-6)
1E28  00                 [06] (-6)
1E29  00                 [07] (-6)
1E2A  00                 [08] (-6)
1E2B  F9                 [09] (-6)
1E2C  00                 [10] (-5)
1E2D  00                 [11] (-5)
1E2E  00                 [12] (-5)
1E2F  F9                 [13] (-5)
1E30  00                 [14] (-5)
1E31  00                 [15] (-5)
1E32  00                 [16] (-5)
1E33  FA                 [17] (-5)
1E34  00                 [18] (-5)
1E35  00                 [19] (-5)
1E36  00                 [20] (-5)
1E37  FA                 [21] (-5)
1E38  00                 [22] (-5)
1E39  00                 [23] (-5)
1E3A  00                 [24] (-5)
1E3B  FA                 [25] (-5)
1E3C  00                 [26] (-5)
1E3D  00                 [27] (-5)
1E3E  00                 [28] (-5)
1E3F  FA                 [29] (-5)
1E40  00                 [30] (-5)
1E41  00                 [31] (-5)
1E42  00                 [32] (-5)
1E43  FA                 [33] (-5)
1E44  00                 [34] (-4)
1E45  00                 [35] (-4)
1E46  00                 [36] (-4)
1E47  FB                 [37] (-4)
1E48  00                 [38] (-2)
                         * locals:
1EBB  00                 sizelocvars (0)
                         * upvalues:
1EBC  00                 sizeupvalues (0)
                         ** end of function **

                         
1EBD                     ** function [19] definition (level 2)
                         ** start of function **
1EBD  00                 string size (0)
                         source name: (none)
1EBF  02                 line defined (256)
1EC0  AA                 last line defined (298)
1EC1  02                 nups (8)
1EC2  08                 numparams (1)
1EC3  01                 is_vararg (0)
1EC4  00                 maxstacksize (11)
                         * code:
1EC6  4B                 sizecode (75)
1EC7  53000000           [01] getupval   1   0      
fail op	35
1ECB  2300C000           [02] close      0  
1ECF  1A000080           [03] jmp        1            ; to [5]
1ED3  1E008000           [04] return     0   1      
1ED7  46008000           [05] loadnil    1   1      
1EDB  97000000           [06] loadbool   2   0   0    ; false
1EDF  D3008000           [07] getupval   3   1      
fail op	21
1EE3  15C08080           [08] concat     0   257 3  
1EE7  1AC00180           [09] jmp        8            ; to [18]
1EEB  D3008000           [10] getupval   3   1      
1EEF  CD40C001           [11] sub        3   3   257  ; 0
fail op	8
1EF3  C8008000           [12] setupval   3   1      
1EF7  D3000001           [13] getupval   3   2      
1EFB  13018000           [14] getupval   4   1      
1EFF  4E008101           [15] gettable   1   3   4  
1F03  97008000           [16] loadbool   2   1   0    ; true
1F07  1AC00A80           [17] jmp        44           ; to [62]
1F0B  D3008001           [18] getupval   3   3      
1F0F  CA008001           [19] len        3   3      
fail op	21
1F13  15C00080           [20] concat     0   256 3  
1F17  1AC00980           [21] jmp        40           ; to [62]
1F1B  D3000002           [22] getupval   3   4      
1F1F  D8000000           [23] test       3       0    ; to [25] if true
1F23  1AC00180           [24] jmp        8            ; to [33]
1F27  D3008001           [25] getupval   3   3      
1F2B  1D810000           [26] getglobal  4   2        ; math
1F2F  0EC14002           [27] gettable   4   4   259  ; -2040962569
1F33  53018001           [28] getupval   5   3      
1F37  4A018002           [29] len        5   5      
1F3B  22810001           [30] call       4   2   2  
1F3F  4E008101           [31] gettable   1   3   4  
1F43  1A000780           [32] jmp        29           ; to [62]
1F47  C6008001           [33] loadnil    3   3      
1F4B  13018002           [34] getupval   4   5      
fail op	35
1F4F  23004102           [35] close      0  
1F53  1A800180           [36] jmp        7            ; to [44]
fail op	35
1F57  23004100           [37] close      0  
1F5B  1A800080           [38] jmp        3            ; to [42]
1F5F  13018001           [39] getupval   4   3      
1F63  4E404002           [40] gettable   1   4   257  ; 0
1F67  1A800080           [41] jmp        3            ; to [45]
1F6B  D2000000           [42] move       3   0      
1F6F  1A000080           [43] jmp        1            ; to [45]
1F73  D3008002           [44] getupval   3   5      
fail op	35
1F77  6300C101           [45] close      1  
1F7B  1A800380           [46] jmp        15           ; to [62]
1F7F  13018001           [47] getupval   4   3      
1F83  4E404002           [48] gettable   1   4   257  ; 0
1F87  19410100           [49] loadk      4   5        ; 0
1F8B  53018001           [50] getupval   5   3      
1F8F  4A018002           [51] len        5   5      
1F93  99410000           [52] loadk      6   1        ; 0
1F97  10810180           [53] forprep    4   7        ; to [61]
1F9B  13028001           [54] getupval   8   3      
1F9F  0EC20104           [55] gettable   8   8   7  
fail op	21
1FA3  15008201           [56] concat     0   3   8  
1FA7  1A800080           [57] jmp        3            ; to [61]
1FAB  13028001           [58] getupval   8   3      
1FAF  4EC00104           [59] gettable   1   8   7  
1FB3  1A000080           [60] jmp        1            ; to [62]
1FB7  14C1FD7F           [61] forloop    4   -8       ; to [54] if loop
fail op	35
1FBB  6300C100           [62] close      1  
1FBF  1A800280           [63] jmp        11           ; to [75]
1FC3  13020003           [64] getupval   8   6      
1FC7  0E420004           [65] gettable   8   8   1  
fail op	35
1FCB  63004104           [66] close      1  
1FCF  1A800180           [67] jmp        7            ; to [75]
1FD3  1D820100           [68] getglobal  8   6        ; _T
1FD7  0EC24104           [69] gettable   8   8   263  ; "Jukebox"
1FDB  0C420084           [70] settable   8   264 1    ; "ScrollIndex"
1FDF  13028003           [71] getupval   8   7      
1FE3  52028000           [72] move       9   1      
1FE7  92020001           [73] move       10  2      
1FEB  22428001           [74] call       8   3   1  
1FEF  1E008000           [75] return     0   1      
                         * constants:
1FF3  09                 sizek (9)
1FF4  03                 const type 3
1FF5  00000000           const [0]: (0)
1FF9  03                 const type 3
1FFA  0000803F           const [1]: (0)
1FFE  04                 const type 4
1FFF  05                 string size (5)
2000  6D61746800         "math\0"
                         const [2]: "math"
2005  01                 const type 3
2006  F7615986           const [3]: (-2040962569)
200A  00                 const type 0
                         const [4]: nil
200B  03                 const type 3
200C  00000040           const [5]: (0)
2010  04                 const type 4
2011  03                 string size (3)
2012  5F5400             "_T\0"
                         const [6]: "_T"
2015  04                 const type 4
2016  08                 string size (8)
2017  4A756B65626F7800   "Jukebox\0"
                         const [7]: "Jukebox"
201F  04                 const type 4
2020  0C                 string size (12)
2021  5363726F6C6C496E+  "ScrollIn"
2029  64657800           "dex\0"
                         const [8]: "ScrollIndex"
                         * functions:
202D  00                 sizep (0)
                         * lines:
202E  4B                 sizelineinfo (75)
                         [pc] (line)
202F  01                 [01] (1)
2030  01                 [02] (1)
2031  00                 [03] (1)
2032  00                 [04] (2)
2033  01                 [05] (5)
2034  01                 [06] (6)
2035  00                 [07] (7)
2036  00                 [08] (7)
2037  01                 [09] (7)
2038  01                 [10] (8)
2039  00                 [11] (8)
203A  00                 [12] (8)
203B  02                 [13] (9)
203C  01                 [14] (9)
203D  00                 [15] (9)
203E  00                 [16] (10)
203F  05                 [17] (10)
2040  01                 [18] (11)
2041  00                 [19] (11)
2042  00                 [20] (11)
2043  06                 [21] (11)
2044  01                 [22] (12)
2045  00                 [23] (12)
2046  00                 [24] (12)
2047  07                 [25] (13)
2048  01                 [26] (13)
2049  00                 [27] (13)
204A  00                 [28] (13)
204B  07                 [29] (13)
204C  01                 [30] (13)
204D  00                 [31] (13)
204E  00                 [32] (13)
204F  07                 [33] (15)
2050  01                 [34] (16)
2051  00                 [35] (16)
2052  00                 [36] (16)
2053  08                 [37] (17)
2054  01                 [38] (17)
2055  00                 [39] (18)
2056  00                 [40] (18)
2057  08                 [41] (18)
2058  01                 [42] (20)
2059  00                 [43] (21)
205A  00                 [44] (23)
205B  08                 [45] (25)
205C  01                 [46] (25)
205D  00                 [47] (27)
205E  00                 [48] (27)
205F  09                 [49] (28)
2060  01                 [50] (28)
2061  00                 [51] (28)
2062  00                 [52] (28)
2063  09                 [53] (28)
2064  01                 [54] (29)
2065  00                 [55] (29)
2066  00                 [56] (29)
2067  09                 [57] (29)
2068  01                 [58] (30)
2069  00                 [59] (30)
206A  00                 [60] (31)
206B  0A                 [61] (28)
206C  01                 [62] (38)
206D  00                 [63] (38)
206E  00                 [64] (38)
206F  0A                 [65] (38)
2070  01                 [66] (38)
2071  00                 [67] (38)
2072  00                 [68] (39)
2073  0B                 [69] (39)
2074  01                 [70] (39)
2075  00                 [71] (40)
2076  00                 [72] (40)
2077  0B                 [73] (40)
2078  01                 [74] (40)
2079  00                 [75] (42)
                         * locals:
215B  00                 sizelocvars (0)
                         * upvalues:
215C  00                 sizeupvalues (0)
                         ** end of function **

                         
215D                     ** function [20] definition (level 2)
                         ** start of function **
215D  00                 string size (0)
                         source name: (none)
215F  02                 line defined (300)
2160  AE                 last line defined (302)
2161  02                 nups (1)
2162  01                 numparams (1)
2163  01                 is_vararg (0)
2164  00                 maxstacksize (3)
                         * code:
2166  04                 sizecode (4)
2167  53000000           [1] getupval   1   0      
216B  92000000           [2] move       2   0      
216F  62400001           [3] call       1   2   1  
2173  1E008000           [4] return     0   1      
                         * constants:
2177  00                 sizek (0)
                         * functions:
2178  00                 sizep (0)
                         * lines:
2179  04                 sizelineinfo (4)
                         [pc] (line)
217A  2D                 [1] (45)
217B  01                 [2] (45)
217C  00                 [3] (45)
217D  00                 [4] (46)
                         * locals:
218A  00                 sizelocvars (0)
                         * upvalues:
218B  00                 sizeupvalues (0)
                         ** end of function **

                         
218C                     ** function [21] definition (level 2)
                         ** start of function **
218C  00                 string size (0)
                         source name: (none)
218E  02                 line defined (304)
218F  BD                 last line defined (317)
2190  02                 nups (5)
2191  05                 numparams (0)
2192  00                 is_vararg (0)
2193  00                 maxstacksize (4)
                         * code:
2195  20                 sizecode (32)
2196  13000000           [01] getupval   0   0      
fail op	35
219A  23004000           [02] close      0  
219E  1A000080           [03] jmp        1            ; to [5]
21A2  1E008000           [04] return     0   1      
21A6  13008000           [05] getupval   0   1      
fail op	21
21AA  55004000           [06] concat     1   0   256
21AE  1AC00080           [07] jmp        4            ; to [12]
21B2  13000001           [08] getupval   0   2      
21B6  53008000           [09] getupval   1   1      
fail op	21
21BA  15400000           [10] concat     0   0   1  
21BE  1AC00480           [11] jmp        20           ; to [32]
21C2  13000001           [12] getupval   0   2      
21C6  53008001           [13] getupval   1   3      
21CA  4A008000           [14] len        1   1      
fail op	21
21CE  15400000           [15] concat     0   0   1  
21D2  1A800380           [16] jmp        15           ; to [32]
21D6  13000001           [17] getupval   0   2      
21DA  03404000           [18] add        0   0   257  ; 0
fail op	8
21DE  08000001           [19] setupval   0   2      
21E2  13008001           [20] getupval   0   3      
21E6  53000001           [21] getupval   1   2      
21EA  0E400000           [22] gettable   0   0   1  
fail op	35
21EE  63804000           [23] close      1  
21F2  1A800180           [24] jmp        7            ; to [32]
21F6  5DC00000           [25] getglobal  1   3        ; _T
21FA  4E00C100           [26] gettable   1   1   260  ; "Jukebox"
21FE  4C008082           [27] settable   1   261 0    ; "ScrollIndex"
2202  53000002           [28] getupval   1   4      
2206  92000000           [29] move       2   0      
220A  D7008000           [30] loadbool   3   1   0    ; true
220E  62408001           [31] call       1   3   1  
2212  1E008000           [32] return     0   1      
                         * constants:
2216  06                 sizek (6)
2217  03                 const type 3
2218  00000000           const [0]: (0)
221C  03                 const type 3
221D  0000803F           const [1]: (0)
2221  00                 const type 0
                         const [2]: nil
2222  04                 const type 4
2223  03                 string size (3)
2224  5F5400             "_T\0"
                         const [3]: "_T"
2227  04                 const type 4
2228  08                 string size (8)
2229  4A756B65626F7800   "Jukebox\0"
                         const [4]: "Jukebox"
2231  04                 const type 4
2232  0C                 string size (12)
2233  5363726F6C6C496E+  "ScrollIn"
223B  64657800           "dex\0"
                         const [5]: "ScrollIndex"
                         * functions:
223F  00                 sizep (0)
                         * lines:
2240  20                 sizelineinfo (32)
                         [pc] (line)
2241  31                 [01] (49)
2242  01                 [02] (49)
2243  00                 [03] (49)
2244  00                 [04] (50)
2245  31                 [05] (53)
2246  01                 [06] (53)
2247  00                 [07] (53)
2248  00                 [08] (53)
2249  31                 [09] (53)
224A  01                 [10] (53)
224B  00                 [11] (53)
224C  00                 [12] (53)
224D  32                 [13] (53)
224E  01                 [14] (53)
224F  00                 [15] (53)
2250  00                 [16] (53)
2251  35                 [17] (54)
2252  01                 [18] (54)
2253  00                 [19] (54)
2254  00                 [20] (55)
2255  35                 [21] (55)
2256  01                 [22] (55)
2257  00                 [23] (56)
2258  00                 [24] (56)
2259  35                 [25] (57)
225A  01                 [26] (57)
225B  00                 [27] (57)
225C  00                 [28] (58)
225D  35                 [29] (58)
225E  01                 [30] (58)
225F  00                 [31] (58)
2260  00                 [32] (61)
                         * locals:
22C1  00                 sizelocvars (0)
                         * upvalues:
22C2  00                 sizeupvalues (0)
                         ** end of function **

                         
22C3                     ** function [22] definition (level 2)
                         ** start of function **
22C3  00                 string size (0)
                         source name: (none)
22C5  02                 line defined (319)
22C6  C1                 last line defined (321)
22C7  02                 nups (1)
22C8  01                 numparams (0)
22C9  00                 is_vararg (0)
22CA  00                 maxstacksize (2)
                         * code:
22CC  03                 sizecode (3)
22CD  13000000           [1] getupval   0   0      
22D1  22408000           [2] call       0   1   1  
22D5  1E008000           [3] return     0   1      
                         * constants:
22D9  00                 sizek (0)
                         * functions:
22DA  00                 sizep (0)
                         * lines:
22DB  03                 sizelineinfo (3)
                         [pc] (line)
22DC  40                 [1] (64)
22DD  01                 [2] (64)
22DE  00                 [3] (65)
                         * locals:
22E8  00                 sizelocvars (0)
                         * upvalues:
22E9  00                 sizeupvalues (0)
                         ** end of function **

                         
22EA                     ** function [23] definition (level 2)
                         ** start of function **
22EA  00                 string size (0)
                         source name: (none)
22EC  02                 line defined (323)
22ED  CC                 last line defined (332)
22EE  02                 nups (6)
22EF  06                 numparams (1)
22F0  01                 is_vararg (0)
22F1  00                 maxstacksize (3)
                         * code:
22F3  1F                 sizecode (31)
22F4  53000000           [01] getupval   1   0      
fail op	35
22F8  6300C000           [02] close      1  
22FC  1A000180           [03] jmp        5            ; to [9]
2300  53000000           [04] getupval   1   0      
2304  4E008000           [05] gettable   1   1   0  
2308  4E40C000           [06] gettable   1   1   257  ; "Locked"
230C  58000000           [07] test       1       0    ; to [9] if true
2310  1A000080           [08] jmp        1            ; to [10]
2314  1E008000           [09] return     0   1      
2318  53008000           [10] getupval   1   1      
fail op	35
231C  23008000           [11] close      0  
2320  1A400280           [12] jmp        10           ; to [23]
2324  5D800000           [13] getglobal  1   2        ; 1074689893
2328  93000001           [14] getupval   2   2      
232C  62800001           [15] call       1   2   2  
2330  58000000           [16] test       1       0    ; to [18] if true
2334  1A000280           [17] jmp        9            ; to [27]
2338  53000000           [18] getupval   1   0      
233C  4E008000           [19] gettable   1   1   0  
2340  4EC0C000           [20] gettable   1   1   259  ; "Fingerprint"
fail op	35
2344  2300C000           [21] close      0  
2348  1AC00080           [22] jmp        4            ; to [27]
234C  53008001           [23] getupval   1   3      
2350  92000000           [24] move       2   0      
2354  62400001           [25] call       1   2   1  
2358  1AC00080           [26] jmp        4            ; to [31]
235C  53000002           [27] getupval   1   4      
2360  93008002           [28] getupval   2   5      
fail op	9
2364  89000001           [29] settable   2   2   0  
2368  62400001           [30] call       1   2   1  
236C  1E008000           [31] return     0   1      
                         * constants:
2370  04                 sizek (4)
2371  00                 const type 0
                         const [0]: nil
2372  04                 const type 4
2373  07                 string size (7)
2374  4C6F636B656400     "Locked\0"
                         const [1]: "Locked"
237B  01                 const type 3
237C  65770E40           const [2]: (1074689893)
2380  04                 const type 4
2381  0C                 string size (12)
2382  46696E6765727072+  "Fingerpr"
238A  696E7400           "int\0"
                         const [3]: "Fingerprint"
                         * functions:
238E  00                 sizep (0)
                         * lines:
238F  1F                 sizelineinfo (31)
                         [pc] (line)
2390  44                 [01] (68)
2391  01                 [02] (68)
2392  00                 [03] (68)
2393  00                 [04] (68)
2394  44                 [05] (68)
2395  01                 [06] (68)
2396  00                 [07] (68)
2397  00                 [08] (68)
2398  44                 [09] (69)
2399  01                 [10] (71)
239A  00                 [11] (71)
239B  00                 [12] (71)
239C  44                 [13] (71)
239D  01                 [14] (71)
239E  00                 [15] (71)
239F  00                 [16] (71)
23A0  44                 [17] (71)
23A1  01                 [18] (71)
23A2  00                 [19] (71)
23A3  00                 [20] (71)
23A4  44                 [21] (71)
23A5  01                 [22] (71)
23A6  00                 [23] (72)
23A7  00                 [24] (72)
23A8  44                 [25] (72)
23A9  01                 [26] (72)
23AA  00                 [27] (74)
23AB  00                 [28] (74)
23AC  44                 [29] (74)
23AD  01                 [30] (74)
23AE  00                 [31] (76)
                         * locals:
240C  00                 sizelocvars (0)
                         * upvalues:
240D  00                 sizeupvalues (0)
                         ** end of function **

                         
240E                     ** function [24] definition (level 2)
                         ** start of function **
240E  00                 string size (0)
                         source name: (none)
2410  02                 line defined (334)
2411  D8                 last line defined (344)
2412  02                 nups (4)
2413  04                 numparams (0)
2414  00                 is_vararg (0)
2415  00                 maxstacksize (4)
                         * code:
2417  17                 sizecode (23)
2418  1D000000           [01] getglobal  0   0        ; 1074689893
241C  53000000           [02] getupval   1   0      
2420  22800001           [03] call       0   2   2  
2424  18400000           [04] test       0       1    ; to [6] if false
2428  1A000180           [05] jmp        5            ; to [11]
242C  13000000           [06] getupval   0   0      
2430  24404000           [07] self       0   0   257  ; 675444810
2434  97008000           [08] loadbool   2   1   0    ; true
2438  22408001           [09] call       0   3   1  
243C  1AC00280           [10] jmp        12           ; to [23]
2440  13008000           [11] getupval   0   1      
2444  22808000           [12] call       0   1   2  
2448  5D000000           [13] getglobal  1   0        ; 1074689893
244C  92000000           [14] move       2   0      
2450  62800001           [15] call       1   2   2  
2454  58400000           [16] test       1       1    ; to [18] if false
2458  1A000180           [17] jmp        5            ; to [23]
245C  64804000           [18] self       1   0   258  ; 1038470555
2460  D7008000           [19] loadbool   3   1   0    ; true
2464  62408001           [20] call       1   3   1  
2468  53008001           [21] getupval   1   3      
fail op	8
246C  48000001           [22] setupval   1   2      
2470  1E008000           [23] return     0   1      
                         * constants:
2474  03                 sizek (3)
2475  01                 const type 3
2476  65770E40           const [0]: (1074689893)
247A  01                 const type 3
247B  4A784228           const [1]: (675444810)
247F  01                 const type 3
2480  9BCDE53D           const [2]: (1038470555)
                         * functions:
2484  00                 sizep (0)
                         * lines:
2485  17                 sizelineinfo (23)
                         [pc] (line)
2486  4F                 [01] (79)
2487  01                 [02] (79)
2488  00                 [03] (79)
2489  00                 [04] (79)
248A  4F                 [05] (79)
248B  01                 [06] (80)
248C  00                 [07] (80)
248D  00                 [08] (80)
248E  4F                 [09] (80)
248F  01                 [10] (80)
2490  00                 [11] (82)
2491  00                 [12] (82)
2492  4F                 [13] (83)
2493  01                 [14] (83)
2494  00                 [15] (83)
2495  00                 [16] (83)
2496  4F                 [17] (83)
2497  01                 [18] (84)
2498  00                 [19] (84)
2499  00                 [20] (84)
249A  50                 [21] (85)
249B  01                 [22] (85)
249C  00                 [23] (88)
                         * locals:
24E2  00                 sizelocvars (0)
                         * upvalues:
24E3  00                 sizeupvalues (0)
                         ** end of function **

                         
24E4                     ** function [25] definition (level 2)
                         ** start of function **
24E4  00                 string size (0)
                         source name: (none)
24E6  02                 line defined (346)
24E7  DC                 last line defined (348)
24E8  02                 nups (1)
24E9  01                 numparams (0)
24EA  00                 is_vararg (0)
24EB  00                 maxstacksize (2)
                         * code:
24ED  03                 sizecode (3)
24EE  13000000           [1] getupval   0   0      
24F2  1E000001           [2] return     0   2      
24F6  1E008000           [3] return     0   1      
                         * constants:
24FA  00                 sizek (0)
                         * functions:
24FB  00                 sizep (0)
                         * lines:
24FC  03                 sizelineinfo (3)
                         [pc] (line)
24FD  5B                 [1] (91)
24FE  01                 [2] (91)
24FF  00                 [3] (92)
                         * locals:
2509  00                 sizelocvars (0)
                         * upvalues:
250A  00                 sizeupvalues (0)
                         ** end of function **

                         
250B                     ** function [26] definition (level 2)
                         ** start of function **
250B  00                 string size (0)
                         source name: (none)
250D  02                 line defined (350)
250E  E0                 last line defined (352)
250F  02                 nups (1)
2510  01                 numparams (0)
2511  00                 is_vararg (0)
2512  00                 maxstacksize (2)
                         * code:
2514  03                 sizecode (3)
2515  13000000           [1] getupval   0   0      
2519  1E000001           [2] return     0   2      
251D  1E008000           [3] return     0   1      
                         * constants:
2521  00                 sizek (0)
                         * functions:
2522  00                 sizep (0)
                         * lines:
2523  03                 sizelineinfo (3)
                         [pc] (line)
2524  5F                 [1] (95)
2525  01                 [2] (95)
2526  00                 [3] (96)
                         * locals:
2530  00                 sizelocvars (0)
                         * upvalues:
2531  00                 sizeupvalues (0)
                         ** end of function **

                         
2532                     ** function [27] definition (level 2)
                         ** start of function **
2532  00                 string size (0)
                         source name: (none)
2534  02                 line defined (354)
2535  E4                 last line defined (356)
2536  02                 nups (1)
2537  01                 numparams (0)
2538  00                 is_vararg (0)
2539  00                 maxstacksize (2)
                         * code:
253B  03                 sizecode (3)
253C  13000000           [1] getupval   0   0      
2540  1E000001           [2] return     0   2      
2544  1E008000           [3] return     0   1      
                         * constants:
2548  00                 sizek (0)
                         * functions:
2549  00                 sizep (0)
                         * lines:
254A  03                 sizelineinfo (3)
                         [pc] (line)
254B  63                 [1] (99)
254C  01                 [2] (99)
254D  00                 [3] (100)
                         * locals:
2557  00                 sizelocvars (0)
                         * upvalues:
2558  00                 sizeupvalues (0)
                         ** end of function **

                         
2559                     ** function [28] definition (level 2)
                         ** start of function **
2559  00                 string size (0)
                         source name: (none)
255B  02                 line defined (358)
255C  E8                 last line defined (360)
255D  02                 nups (1)
255E  01                 numparams (1)
255F  01                 is_vararg (0)
2560  00                 maxstacksize (2)
                         * code:
2562  0C                 sizecode (12)
2563  53000000           [01] getupval   1   0      
2567  4E008000           [02] gettable   1   1   0  
fail op	35
256B  6300C000           [03] close      1  
256F  1A000180           [04] jmp        5            ; to [10]
2573  53000000           [05] getupval   1   0      
2577  4E008000           [06] gettable   1   1   0  
257B  4E40C000           [07] gettable   1   1   257  ; "Locked"
257F  1A400080           [08] jmp        2            ; to [11]
2583  57400000           [09] loadbool   1   0   1    ; false, to [11]
2587  57008000           [10] loadbool   1   1   0    ; true
258B  5E000001           [11] return     1   2      
258F  1E008000           [12] return     0   1      
                         * constants:
2593  02                 sizek (2)
2594  00                 const type 0
                         const [0]: nil
2595  04                 const type 4
2596  07                 string size (7)
2597  4C6F636B656400     "Locked\0"
                         const [1]: "Locked"
                         * functions:
259E  00                 sizep (0)
                         * lines:
259F  0C                 sizelineinfo (12)
                         [pc] (line)
25A0  67                 [01] (103)
25A1  01                 [02] (103)
25A2  00                 [03] (103)
25A3  00                 [04] (103)
25A4  67                 [05] (103)
25A5  01                 [06] (103)
25A6  00                 [07] (103)
25A7  00                 [08] (103)
25A8  67                 [09] (103)
25A9  01                 [10] (103)
25AA  00                 [11] (103)
25AB  00                 [12] (104)
                         * locals:
25D0  00                 sizelocvars (0)
                         * upvalues:
25D1  00                 sizeupvalues (0)
                         ** end of function **

                         
25D2                     ** function [29] definition (level 2)
                         ** start of function **
25D2  00                 string size (0)
                         source name: (none)
25D4  02                 line defined (362)
25D5  EC                 last line defined (364)
25D6  02                 nups (1)
25D7  01                 numparams (1)
25D8  01                 is_vararg (0)
25D9  00                 maxstacksize (2)
                         * code:
25DB  02                 sizecode (2)
fail op	8
25DC  08000000           [1] setupval   0   0      
25E0  1E008000           [2] return     0   1      
                         * constants:
25E4  00                 sizek (0)
                         * functions:
25E5  00                 sizep (0)
                         * lines:
25E6  02                 sizelineinfo (2)
                         [pc] (line)
25E7  6B                 [1] (107)
25E8  01                 [2] (108)
                         * locals:
25EF  00                 sizelocvars (0)
                         * upvalues:
25F0  00                 sizeupvalues (0)
                         ** end of function **

                         
25F1                     ** function [30] definition (level 2)
                         ** start of function **
25F1  00                 string size (0)
                         source name: (none)
25F3  02                 line defined (366)
25F4  F0                 last line defined (368)
25F5  02                 nups (1)
25F6  01                 numparams (1)
25F7  01                 is_vararg (0)
25F8  00                 maxstacksize (2)
                         * code:
25FA  02                 sizecode (2)
fail op	8
25FB  08000000           [1] setupval   0   0      
25FF  1E008000           [2] return     0   1      
                         * constants:
2603  00                 sizek (0)
                         * functions:
2604  00                 sizep (0)
                         * lines:
2605  02                 sizelineinfo (2)
                         [pc] (line)
2606  6F                 [1] (111)
2607  01                 [2] (112)
                         * locals:
260E  00                 sizelocvars (0)
                         * upvalues:
260F  00                 sizeupvalues (0)
                         ** end of function **

                         
2610                     ** function [31] definition (level 2)
                         ** start of function **
2610  00                 string size (0)
                         source name: (none)
2612  02                 line defined (370)
2613  FF                 last line defined (383)
2614  02                 nups (7)
2615  07                 numparams (1)
2616  01                 is_vararg (0)
2617  00                 maxstacksize (5)
                         * code:
2619  25                 sizecode (37)
fail op	8
261A  08000000           [01] setupval   0   0      
261E  5D000000           [02] getglobal  1   0        ; -1132024465
2622  93000001           [03] getupval   2   2      
2626  A4404001           [04] self       2   2   257  ; -1569107790
262A  12010000           [05] move       4   0      
262E  A2008001           [06] call       2   3   0  
2632  62800000           [07] call       1   0   2  
fail op	8
2636  48008000           [08] setupval   1   1      
263A  5D800000           [09] getglobal  1   2        ; 1074689893
263E  93008001           [10] getupval   2   3      
2642  62800001           [11] call       1   2   2  
2646  58400000           [12] test       1       1    ; to [14] if false
264A  1AC00080           [13] jmp        4            ; to [18]
264E  53008001           [14] getupval   1   3      
2652  64C0C000           [15] self       1   1   259  ; -328990241
2656  D2000000           [16] move       3   0      
265A  62408001           [17] call       1   3   1  
265E  5D800000           [18] getglobal  1   2        ; 1074689893
2662  93000002           [19] getupval   2   4      
2666  62800001           [20] call       1   2   2  
266A  58400000           [21] test       1       1    ; to [23] if false
266E  1AC00080           [22] jmp        4            ; to [27]
2672  53000002           [23] getupval   1   4      
2676  6400C100           [24] self       1   1   260  ; -2012281088
267A  D3008000           [25] getupval   3   1      
267E  62408001           [26] call       1   3   1  
2682  53008002           [27] getupval   1   5      
2686  62808000           [28] call       1   1   2  
268A  9D800000           [29] getglobal  2   2        ; 1074689893
268E  D2008000           [30] move       3   1      
2692  A2800001           [31] call       2   2   2  
2696  98400000           [32] test       2       1    ; to [34] if false
269A  1A800080           [33] jmp        3            ; to [37]
269E  93000003           [34] getupval   2   6      
26A2  D2008000           [35] move       3   1      
26A6  A2400001           [36] call       2   2   1  
26AA  1E008000           [37] return     0   1      
                         * constants:
26AE  05                 sizek (5)
26AF  01                 const type 3
26B0  6FAD86BC           const [0]: (-1132024465)
26B4  01                 const type 3
26B5  B25079A2           const [1]: (-1569107790)
26B9  01                 const type 3
26BA  65770E40           const [2]: (1074689893)
26BE  01                 const type 3
26BF  DF0164EC           const [3]: (-328990241)
26C3  01                 const type 3
26C4  00070F88           const [4]: (-2012281088)
                         * functions:
26C8  00                 sizep (0)
                         * lines:
26C9  25                 sizelineinfo (37)
                         [pc] (line)
26CA  73                 [01] (115)
26CB  01                 [02] (116)
26CC  00                 [03] (116)
26CD  00                 [04] (116)
26CE  74                 [05] (116)
26CF  01                 [06] (116)
26D0  00                 [07] (116)
26D1  00                 [08] (116)
26D2  74                 [09] (117)
26D3  01                 [10] (117)
26D4  00                 [11] (117)
26D5  00                 [12] (117)
26D6  74                 [13] (117)
26D7  01                 [14] (118)
26D8  00                 [15] (118)
26D9  00                 [16] (118)
26DA  74                 [17] (118)
26DB  01                 [18] (120)
26DC  00                 [19] (120)
26DD  00                 [20] (120)
26DE  74                 [21] (120)
26DF  01                 [22] (120)
26E0  00                 [23] (121)
26E1  00                 [24] (121)
26E2  74                 [25] (121)
26E3  01                 [26] (121)
26E4  00                 [27] (123)
26E5  00                 [28] (123)
26E6  74                 [29] (124)
26E7  01                 [30] (124)
26E8  00                 [31] (124)
26E9  00                 [32] (124)
26EA  75                 [33] (124)
26EB  01                 [34] (125)
26EC  00                 [35] (125)
26ED  00                 [36] (125)
26EE  75                 [37] (127)
                         * locals:
275E  00                 sizelocvars (0)
                         * upvalues:
275F  00                 sizeupvalues (0)
                         ** end of function **

                         
2760                     ** function [32] definition (level 2)
                         ** start of function **
2760  00                 string size (0)
                         source name: (none)
2762  03                 line defined (385)
2763  85                 last line defined (389)
2764  03                 nups (2)
2765  02                 numparams (0)
2766  00                 is_vararg (0)
2767  00                 maxstacksize (6)
                         * code:
2769  0D                 sizecode (13)
276A  1D000000           [01] getglobal  0   0        ; -1778512908
276E  53000000           [02] getupval   1   0      
2772  22800001           [03] call       0   2   2  
2776  53008000           [04] getupval   1   1      
277A  6440C000           [05] self       1   1   257  ; 62144293
277E  D3008000           [06] getupval   3   1      
2782  E480C001           [07] self       3   3   258  ; 1668611480
2786  52010000           [08] move       5   0      
278A  E2008001           [09] call       3   3   0  
278E  62800000           [10] call       1   0   2  
2792  12008000           [11] move       0   1      
2796  1E000001           [12] return     0   2      
279A  1E008000           [13] return     0   1      
                         * constants:
279E  03                 sizek (3)
279F  01                 const type 3
27A0  F40BFE95           const [0]: (-1778512908)
27A4  01                 const type 3
27A5  253FB403           const [1]: (62144293)
27A9  01                 const type 3
27AA  98FD7463           const [2]: (1668611480)
                         * functions:
27AE  00                 sizep (0)
                         * lines:
27AF  0D                 sizelineinfo (13)
                         [pc] (line)
27B0  82                 [01] (-126)
27B1  01                 [02] (-126)
27B2  00                 [03] (-126)
27B3  00                 [04] (-125)
27B4  82                 [05] (-125)
27B5  01                 [06] (-125)
27B6  00                 [07] (-125)
27B7  00                 [08] (-125)
27B8  82                 [09] (-125)
27B9  01                 [10] (-125)
27BA  00                 [11] (-125)
27BB  00                 [12] (-124)
27BC  83                 [13] (-123)
                         * locals:
27E4  00                 sizelocvars (0)
                         * upvalues:
27E5  00                 sizeupvalues (0)
                         ** end of function **

                         
27E6                     ** function [33] definition (level 2)
                         ** start of function **
27E6  00                 string size (0)
                         source name: (none)
27E8  03                 line defined (391)
27E9  B9                 last line defined (441)
27EA  03                 nups (12)
27EB  0C                 numparams (0)
27EC  00                 is_vararg (0)
27ED  00                 maxstacksize (23)
                         * code:
27F0  01                 sizecode (137)
27F1  1D000000           [001] getglobal  0   0        ; 1074689893
27F5  53000000           [002] getupval   1   0      
27F9  22800001           [003] call       0   2   2  
27FD  18000000           [004] test       0       0    ; to [6] if true
2801  1A000080           [005] jmp        1            ; to [7]
2805  1E008000           [006] return     0   1      
2809  13008000           [007] getupval   0   1      
280D  5D400000           [008] getglobal  1   1        ; 1661359502
2811  62808000           [009] call       1   1   2  
2815  03400000           [010] add        0   0   1  
fail op	8
2819  08008000           [011] setupval   0   1      
281D  13008000           [012] getupval   0   1      
2821  53000001           [013] getupval   1   2      
fail op	21
2825  15008000           [014] concat     0   1   0  
2829  1A000180           [015] jmp        5            ; to [21]
282D  13008000           [016] getupval   0   1      
2831  53000001           [017] getupval   1   2      
2835  0D400000           [018] sub        0   0   1  
fail op	8
2839  08008000           [019] setupval   0   1      
283D  1A000080           [020] jmp        1            ; to [22]
2841  1E008000           [021] return     0   1      
2845  19800000           [022] loadk      0   2        ; 0
2849  53008001           [023] getupval   1   3      
284D  58400000           [024] test       1       1    ; to [26] if false
2851  1A000580           [025] jmp        21           ; to [47]
2855  5D000000           [026] getglobal  1   0        ; 1074689893
2859  93000002           [027] getupval   2   4      
285D  62800001           [028] call       1   2   2  
2861  58400000           [029] test       1       1    ; to [31] if false
2865  1A000180           [030] jmp        5            ; to [36]
2869  53000002           [031] getupval   1   4      
286D  64C0C000           [032] self       1   1   259  ; -688523144
2871  62800001           [033] call       1   2   2  
2875  12008000           [034] move       0   1      
2879  1A800280           [035] jmp        11           ; to [47]
287D  53008002           [036] getupval   1   5      
2881  62808000           [037] call       1   1   2  
2885  9D000000           [038] getglobal  2   0        ; 1074689893
2889  D2008000           [039] move       3   1      
288D  A2800001           [040] call       2   2   2  
2891  98400000           [041] test       2       1    ; to [43] if false
2895  1AC00080           [042] jmp        4            ; to [47]
2899  A400C100           [043] self       2   1   260  ; 374006023
289D  A2800001           [044] call       2   2   2  
28A1  D3000003           [045] getupval   3   6      
28A5  04C00001           [046] mul        0   2   3  
28A9  9D000000           [047] getglobal  2   0        ; 1074689893
28AD  D3000002           [048] getupval   3   4      
28B1  A2800001           [049] call       2   2   2  
28B5  98400000           [050] test       2       1    ; to [52] if false
28B9  1A800180           [051] jmp        7            ; to [59]
28BD  93008001           [052] getupval   2   3      
28C1  98400000           [053] test       2       1    ; to [55] if false
28C5  1AC00080           [054] jmp        4            ; to [59]
28C9  93000002           [055] getupval   2   4      
28CD  A4C04001           [056] self       2   2   259  ; -688523144
28D1  A2800001           [057] call       2   2   2  
28D5  12000001           [058] move       0   2      
28D9  9D400100           [059] getglobal  2   5        ; 1668611480
28DD  D3008003           [060] getupval   3   7      
28E1  CE80C101           [061] gettable   3   3   262  ; "minValue"
28E5  CDC00000           [062] sub        3   0   3  
28E9  13018003           [063] getupval   4   7      
28ED  0EC14102           [064] gettable   4   4   263  ; "maxValue"
28F1  53018003           [065] getupval   5   7      
28F5  4E81C102           [066] gettable   5   5   262  ; "minValue"
28F9  0D410102           [067] sub        4   4   5  
28FD  DC008101           [068] div        3   3   4  
2901  19810000           [069] loadk      4   2        ; 0
2905  59010200           [070] loadk      5   8        ; 0
2909  A2800002           [071] call       2   4   2  
290D  D3000004           [072] getupval   3   8      
2911  19410200           [073] loadk      4   9        ; 0
2915  59810200           [074] loadk      5   10       ; 0
2919  D0000180           [075] forprep    3   5        ; to [81]
291D  D3018004           [076] getupval   7   9      
2921  13028004           [077] getupval   8   9      
2925  4D024203           [078] sub        9   6   264  ; 0
2929  0E420204           [079] gettable   8   8   9  
292D  CC010203           [080] settable   7   6   8  
2931  D440FE7F           [081] forloop    3   -6       ; to [76] if loop
2935  D3018004           [082] getupval   7   9      
2939  1DC20200           [083] getglobal  8   11       ; math
293D  0E024304           [084] gettable   8   8   268  ; -688728047
2941  52020001           [085] move       9   2      
2945  99420300           [086] loadk      10  13       ; 0
2949  22828001           [087] call       8   3   2  
294D  CC010284           [088] settable   7   264 8    ; 0
2951  DD010000           [089] getglobal  7   0        ; 1074689893
2955  13020000           [090] getupval   8   0      
2959  E2810001           [091] call       7   2   2  
295D  D8410000           [092] test       7       1    ; to [94] if false
2961  1A800A80           [093] jmp        43           ; to [137]
2965  D9010200           [094] loadk      7   8        ; 0
2969  19820300           [095] loadk      8   14       ; 0
296D  59020200           [096] loadk      9   8        ; 0
2971  D0410980           [097] forprep    7   38       ; to [136]
2975  D9020200           [098] loadk      11  8        ; 0
2979  19C30300           [099] loadk      12  15       ; 0
297D  59030200           [100] loadk      13  8        ; 0
2981  D0C20480           [101] forprep    11  20       ; to [122]
2985  D3038001           [102] getupval   15  3      
2989  D8030000           [103] test       15      0    ; to [105] if true
298D  1A800080           [104] jmp        3            ; to [108]
2991  D3030005           [105] getupval   15  10     
2995  CC034407           [106] settable   15  14  272  ; -102
2999  1A400380           [107] jmp        14           ; to [122]
299D  CD034205           [108] sub        15  10  264  ; 0
29A1  C4C3C307           [109] mul        15  15  271  ; 0
29A5  C3838307           [110] add        15  15  14 
29A9  13048004           [111] getupval   16  9      
29AD  0A040008           [112] len        16  16     
fail op	33
29B1  21008407           [113] tforloop   0       16   ; to [115] if exit
29B5  1A000180           [114] jmp        5            ; to [120]
29B9  13040005           [115] getupval   16  10     
29BD  53048004           [116] getupval   17  9      
29C1  4EC48308           [117] gettable   17  17  15 
29C5  0C440407           [118] settable   16  14  17 
29C9  1A400080           [119] jmp        2            ; to [122]
29CD  13040005           [120] getupval   16  10     
29D1  0C844007           [121] settable   16  14  258  ; 0
29D5  D482FA7F           [122] forloop    11  -21      ; to [102] if loop
29D9  13040000           [123] getupval   16  0      
29DD  24444408           [124] self       16  16  273  ; -786111647
29E1  93048005           [125] getupval   18  11     
29E5  8E840209           [126] gettable   18  18  10 
29E9  D3040005           [127] getupval   19  10     
29ED  CE04C209           [128] gettable   19  19  264  ; 0
29F1  13050005           [129] getupval   20  10     
29F5  0E45420A           [130] gettable   20  20  265  ; 0
29F9  53050005           [131] getupval   21  10     
29FD  4E85C40A           [132] gettable   21  21  274  ; 0
2A01  93050005           [133] getupval   22  10     
2A05  8EC5430B           [134] gettable   22  22  271  ; 0
2A09  22448003           [135] call       16  7   1  
2A0D  D401F67F           [136] forloop    7   -39      ; to [98] if loop
2A11  1E008000           [137] return     0   1      
                         * constants:
2A15  13                 sizek (19)
2A16  01                 const type 3
2A17  65770E40           const [0]: (1074689893)
2A1B  01                 const type 3
2A1C  8E550663           const [1]: (1661359502)
2A20  03                 const type 3
2A21  00000000           const [2]: (0)
2A25  01                 const type 3
2A26  78F8F5D6           const [3]: (-688523144)
2A2A  01                 const type 3
2A2B  07E14A16           const [4]: (374006023)
2A2F  01                 const type 3
2A30  98FD7463           const [5]: (1668611480)
2A34  04                 const type 4
2A35  09                 string size (9)
2A36  6D696E56616C7565+  "minValue"
2A3E  00                 "\0"
                         const [6]: "minValue"
2A3F  04                 const type 4
2A40  09                 string size (9)
2A41  6D617856616C7565+  "maxValue"
2A49  00                 "\0"
                         const [7]: "maxValue"
2A4A  03                 const type 3
2A4B  0000803F           const [8]: (0)
2A4F  03                 const type 3
2A50  00000040           const [9]: (0)
2A54  03                 const type 3
2A55  000080BF           const [10]: (0)
2A59  04                 const type 4
2A5A  05                 string size (5)
2A5B  6D61746800         "math\0"
                         const [11]: "math"
2A60  01                 const type 3
2A61  11D8F2D6           const [12]: (-688728047)
2A65  03                 const type 3
2A66  0000403F           const [13]: (0)
2A6A  03                 const type 3
2A6B  0000A040           const [14]: (0)
2A6F  03                 const type 3
2A70  00008040           const [15]: (0)
2A74  03                 const type 3
2A75  9A99993E           const [16]: (-102)
2A79  01                 const type 3
2A7A  61E324D1           const [17]: (-786111647)
2A7E  03                 const type 3
2A7F  00004040           const [18]: (0)
                         * functions:
2A83  00                 sizep (0)
                         * lines:
2A85  01                 sizelineinfo (137)
                         [pc] (line)
2A86  88                 [001] (-120)
2A87  01                 [002] (-120)
2A88  00                 [003] (-120)
2A89  00                 [004] (-120)
2A8A  88                 [005] (-120)
2A8B  01                 [006] (-119)
2A8C  00                 [007] (-116)
2A8D  00                 [008] (-116)
2A8E  88                 [009] (-116)
2A8F  01                 [010] (-116)
2A90  00                 [011] (-116)
2A91  00                 [012] (-115)
2A92  88                 [013] (-115)
2A93  01                 [014] (-115)
2A94  00                 [015] (-115)
2A95  00                 [016] (-114)
2A96  88                 [017] (-114)
2A97  01                 [018] (-114)
2A98  00                 [019] (-114)
2A99  00                 [020] (-114)
2A9A  89                 [021] (-112)
2A9B  01                 [022] (-109)
2A9C  00                 [023] (-108)
2A9D  00                 [024] (-108)
2A9E  8C                 [025] (-108)
2A9F  01                 [026] (-107)
2AA0  00                 [027] (-107)
2AA1  00                 [028] (-107)
2AA2  8C                 [029] (-107)
2AA3  01                 [030] (-107)
2AA4  00                 [031] (-106)
2AA5  00                 [032] (-106)
2AA6  8C                 [033] (-106)
2AA7  01                 [034] (-106)
2AA8  00                 [035] (-106)
2AA9  00                 [036] (-104)
2AAA  8C                 [037] (-104)
2AAB  01                 [038] (-103)
2AAC  00                 [039] (-103)
2AAD  00                 [040] (-103)
2AAE  8C                 [041] (-103)
2AAF  01                 [042] (-103)
2AB0  00                 [043] (-102)
2AB1  00                 [044] (-102)
2AB2  8D                 [045] (-102)
2AB3  01                 [046] (-102)
2AB4  00                 [047] (-98)
2AB5  00                 [048] (-98)
2AB6  8D                 [049] (-98)
2AB7  01                 [050] (-98)
2AB8  00                 [051] (-98)
2AB9  00                 [052] (-98)
2ABA  8D                 [053] (-98)
2ABB  01                 [054] (-98)
2ABC  00                 [055] (-97)
2ABD  00                 [056] (-97)
2ABE  8D                 [057] (-97)
2ABF  01                 [058] (-97)
2AC0  00                 [059] (-94)
2AC1  00                 [060] (-94)
2AC2  8E                 [061] (-94)
2AC3  01                 [062] (-94)
2AC4  00                 [063] (-94)
2AC5  00                 [064] (-94)
2AC6  8E                 [065] (-94)
2AC7  01                 [066] (-94)
2AC8  00                 [067] (-94)
2AC9  00                 [068] (-94)
2ACA  8E                 [069] (-94)
2ACB  01                 [070] (-94)
2ACC  00                 [071] (-94)
2ACD  00                 [072] (-93)
2ACE  8E                 [073] (-93)
2ACF  01                 [074] (-93)
2AD0  00                 [075] (-93)
2AD1  00                 [076] (-92)
2AD2  8E                 [077] (-92)
2AD3  01                 [078] (-92)
2AD4  00                 [079] (-92)
2AD5  00                 [080] (-92)
2AD6  90                 [081] (-93)
2AD7  01                 [082] (-90)
2AD8  00                 [083] (-90)
2AD9  00                 [084] (-90)
2ADA  93                 [085] (-90)
2ADB  01                 [086] (-90)
2ADC  00                 [087] (-90)
2ADD  00                 [088] (-90)
2ADE  94                 [089] (-88)
2ADF  01                 [090] (-88)
2AE0  00                 [091] (-88)
2AE1  00                 [092] (-88)
2AE2  94                 [093] (-88)
2AE3  01                 [094] (-87)
2AE4  00                 [095] (-87)
2AE5  00                 [096] (-87)
2AE6  94                 [097] (-87)
2AE7  01                 [098] (-86)
2AE8  00                 [099] (-86)
2AE9  00                 [100] (-86)
2AEA  95                 [101] (-86)
2AEB  01                 [102] (-85)
2AEC  00                 [103] (-85)
2AED  00                 [104] (-85)
2AEE  95                 [105] (-84)
2AEF  01                 [106] (-84)
2AF0  00                 [107] (-84)
2AF1  00                 [108] (-82)
2AF2  95                 [109] (-82)
2AF3  01                 [110] (-82)
2AF4  00                 [111] (-81)
2AF5  00                 [112] (-81)
2AF6  95                 [113] (-81)
2AF7  01                 [114] (-81)
2AF8  00                 [115] (-80)
2AF9  00                 [116] (-80)
2AFA  95                 [117] (-80)
2AFB  01                 [118] (-80)
2AFC  00                 [119] (-80)
2AFD  00                 [120] (-78)
2AFE  96                 [121] (-78)
2AFF  01                 [122] (-86)
2B00  00                 [123] (-74)
2B01  00                 [124] (-74)
2B02  96                 [125] (-74)
2B03  01                 [126] (-74)
2B04  00                 [127] (-74)
2B05  00                 [128] (-74)
2B06  96                 [129] (-74)
2B07  01                 [130] (-74)
2B08  00                 [131] (-74)
2B09  00                 [132] (-74)
2B0A  96                 [133] (-74)
2B0B  01                 [134] (-74)
2B0C  00                 [135] (-74)
2B0D  00                 [136] (-87)
2B0E  96                 [137] (-71)
                         * locals:
2CAA  00                 sizelocvars (0)
                         * upvalues:
2CAB  00                 sizeupvalues (0)
                         ** end of function **

                         
2CAC                     ** function [34] definition (level 2)
                         ** start of function **
2CAC  00                 string size (0)
                         source name: (none)
2CAE  03                 line defined (443)
2CAF  AC                 last line defined (556)
2CB0  04                 nups (31)
2CB1  1F                 numparams (0)
2CB2  00                 is_vararg (0)
2CB3  00                 maxstacksize (26)
                         * code:
2CB6  02                 sizecode (330)
2CB7  13000000           [001] getupval   0   0      
2CBB  18400000           [002] test       0       1    ; to [4] if false
2CBF  1A003280           [003] jmp        201          ; to [205]
2CC3  1D000000           [004] getglobal  0   0        ; 1074689893
2CC7  53008000           [005] getupval   1   1      
2CCB  22800001           [006] call       0   2   2  
2CCF  18400000           [007] test       0       1    ; to [9] if false
2CD3  1AC03080           [008] jmp        196          ; to [205]
2CD7  13008000           [009] getupval   0   1      
2CDB  24404000           [010] self       0   0   257  ; -1344420604
2CDF  22800001           [011] call       0   2   2  
2CE3  18000000           [012] test       0       0    ; to [14] if true
2CE7  1A802F80           [013] jmp        191          ; to [205]
2CEB  1D800000           [014] getglobal  0   2        ; gPlayerProfileMgr
2CEF  24C04000           [015] self       0   0   259  ; 569342746
2CF3  99000100           [016] loadk      2   4        ; 0
2CF7  22808001           [017] call       0   3   2  
2CFB  46008001           [018] loadnil    1   3      
2CFF  1D010000           [019] getglobal  4   0        ; 1074689893
2D03  52010000           [020] move       5   0      
2D07  22810001           [021] call       4   2   2  
2D0B  18410000           [022] test       4       1    ; to [24] if false
2D0F  1A800780           [023] jmp        31           ; to [55]
2D13  24414100           [024] self       4   0   261  ; 1055613230
2D17  22810001           [025] call       4   2   2  
fail op	8
2D1B  08010001           [026] setupval   4   2      
2D1F  1D010000           [027] getglobal  4   0        ; 1074689893
2D23  53010001           [028] getupval   5   2      
2D27  22810001           [029] call       4   2   2  
2D2B  18410000           [030] test       4       1    ; to [32] if false
2D2F  1A800580           [031] jmp        23           ; to [55]
2D33  13010001           [032] getupval   4   2      
2D37  24814102           [033] self       4   4   262  ; -2071406468
2D3B  22810001           [034] call       4   2   2  
2D3F  52000002           [035] move       1   4      
2D43  13010001           [036] getupval   4   2      
2D47  24C14102           [037] self       4   4   263  ; 831134983
2D4B  22810001           [038] call       4   2   2  
2D4F  92000002           [039] move       2   4      
2D53  13010001           [040] getupval   4   2      
2D57  24014202           [041] self       4   4   264  ; -1268066941
2D5B  22810001           [042] call       4   2   2  
fail op	8
2D5F  08018001           [043] setupval   4   3      
2D63  1D410200           [044] getglobal  4   9        ; -1132024465
2D67  53018002           [045] getupval   5   5      
2D6B  6481C202           [046] self       5   5   266  ; -1569107790
2D6F  D3018001           [047] getupval   7   3      
2D73  62018001           [048] call       5   3   0  
2D77  22810000           [049] call       4   0   2  
fail op	8
2D7B  08010002           [050] setupval   4   4      
2D7F  13010001           [051] getupval   4   2      
2D83  24C14202           [052] self       4   4   267  ; -648121812
2D87  22810001           [053] call       4   2   2  
fail op	8
2D8B  08010003           [054] setupval   4   6      
2D8F  1D010300           [055] getglobal  4   12       ; table
2D93  0E414302           [056] gettable   4   4   269  ; -1513783280
2D97  53018003           [057] getupval   5   7      
2D9B  93010004           [058] getupval   6   8      
2D9F  22418001           [059] call       4   3   1  
2DA3  0B010000           [060] newtable   4   0   0    ; array=0, hash=0
2DA7  4B010000           [061] newtable   5   0   0    ; array=0, hash=0
2DAB  9D010000           [062] getglobal  6   0        ; 1074689893
2DAF  D3010001           [063] getupval   7   2      
2DB3  A2810001           [064] call       6   2   2  
2DB7  98410000           [065] test       6       1    ; to [67] if false
2DBB  1AC00180           [066] jmp        8            ; to [75]
2DBF  93010001           [067] getupval   6   2      
2DC3  A4814303           [068] self       6   6   270  ; -875243160
2DC7  A2810001           [069] call       6   2   2  
2DCB  12010003           [070] move       4   6      
2DCF  93010001           [071] getupval   6   2      
2DD3  A4C14303           [072] self       6   6   271  ; -633383246
2DD7  A2810001           [073] call       6   2   2  
2DDB  52010003           [074] move       5   6      
2DDF  99010400           [075] loadk      6   16       ; 0
2DE3  D3018003           [076] getupval   7   7      
2DE7  CA018003           [077] len        7   7      
2DEB  19020400           [078] loadk      8   16       ; 0
2DEF  90411380           [079] forprep    6   78       ; to [158]
2DF3  93028003           [080] getupval   10  7      
2DF7  8E420205           [081] gettable   10  10  9  
2DFB  8E424405           [082] gettable   10  10  273  ; "Locked"
2DFF  98420000           [083] test       10      1    ; to [85] if false
2E03  1A001280           [084] jmp        73           ; to [158]
fail op	35
2E07  2380C401           [085] close      0  
2E0B  1A400280           [086] jmp        10           ; to [97]
2E0F  9D020000           [087] getglobal  10  0        ; 1074689893
2E13  D2028000           [088] move       11  1      
2E17  A2820001           [089] call       10  2   2  
2E1B  98420000           [090] test       10      1    ; to [92] if false
2E1F  1A000180           [091] jmp        5            ; to [97]
2E23  93028003           [092] getupval   10  7      
2E27  8E420205           [093] gettable   10  10  9  
2E2B  8EC24405           [094] gettable   10  10  275  ; "Song"
fail op	35
2E2F  63400005           [095] close      1  
2E33  1A800180           [096] jmp        7            ; to [104]
fail op	35
2E37  63804401           [097] close      1  
2E3B  1A400180           [098] jmp        6            ; to [105]
2E3F  93028003           [099] getupval   10  7      
2E43  8E420205           [100] gettable   10  10  9  
2E47  8E024505           [101] gettable   10  10  276  ; "MongoId"
fail op	35
2E4B  23800005           [102] close      0  
2E4F  1A000080           [103] jmp        1            ; to [105]
2E53  D2008004           [104] move       3   9      
2E57  9D020000           [105] getglobal  10  0        ; 1074689893
2E5B  D3028003           [106] getupval   11  7      
2E5F  CE428205           [107] gettable   11  11  9  
2E63  CEC2C405           [108] gettable   11  11  275  ; "Song"
2E67  A2820001           [109] call       10  2   2  
2E6B  98420000           [110] test       10      1    ; to [112] if false
2E6F  1A400680           [111] jmp        26           ; to [138]
2E73  93028003           [112] getupval   10  7      
2E77  8E420205           [113] gettable   10  10  9  
2E7B  DD420500           [114] getglobal  11  21       ; 2083004503
2E7F  13038003           [115] getupval   12  7      
2E83  0E430206           [116] gettable   12  12  9  
2E87  0EC34406           [117] gettable   12  12  275  ; "Song"
2E8B  E2820001           [118] call       11  2   2  
2E8F  8CC28289           [119] settable   10  275 11   ; "Song"
2E93  99020400           [120] loadk      10  16       ; 0
2E97  CA020002           [121] len        11  4      
2E9B  19030400           [122] loadk      12  16       ; 0
2E9F  90C20280           [123] forprep    10  12       ; to [136]
2EA3  8E430302           [124] gettable   14  4   13 
2EA7  A4834507           [125] self       14  14  278  ; -1957065004
2EAB  13048003           [126] getupval   16  7      
2EAF  0E440208           [127] gettable   16  16  9  
2EB3  0EC44408           [128] gettable   16  16  275  ; "Song"
2EB7  A2838001           [129] call       14  3   2  
2EBB  98030000           [130] test       14      0    ; to [132] if true
2EBF  1AC00080           [131] jmp        4            ; to [136]
2EC3  93038003           [132] getupval   14  7      
2EC7  8E430207           [133] gettable   14  14  9  
2ECB  8C03C68B           [134] settable   14  279 280  ; "AutoplayEnabled" 0
2ECF  1A400580           [135] jmp        22           ; to [158]
2ED3  9482FC7F           [136] forloop    10  -13      ; to [124] if loop
2ED7  1AC00480           [137] jmp        20           ; to [158]
2EDB  93038003           [138] getupval   14  7      
2EDF  8E430207           [139] gettable   14  14  9  
2EE3  8E034507           [140] gettable   14  14  276  ; "MongoId"
fail op	35
2EE7  63804407           [141] close      1  
2EEB  1A800380           [142] jmp        15           ; to [158]
2EEF  99030400           [143] loadk      14  16       ; 0
2EF3  CA038002           [144] len        15  5      
2EF7  19040400           [145] loadk      16  16       ; 0
2EFB  90430280           [146] forprep    14  10       ; to [157]
2EFF  8E448402           [147] gettable   18  5   17 
2F03  D3048003           [148] getupval   19  7      
2F07  CE448209           [149] gettable   19  19  9  
2F0B  CE04C509           [150] gettable   19  19  276  ; "MongoId"
fail op	35
2F0F  23C00409           [151] close      0  
2F13  1AC00080           [152] jmp        4            ; to [157]
2F17  93048003           [153] getupval   18  7      
2F1B  8E440209           [154] gettable   18  18  9  
2F1F  8C04C68B           [155] settable   18  279 280  ; "AutoplayEnabled" 0
2F23  1A000080           [156] jmp        1            ; to [158]
2F27  9403FD7F           [157] forloop    14  -11      ; to [147] if loop
2F2B  9401EC7F           [158] forloop    6   -79      ; to [80] if loop
2F2F  97048000           [159] loadbool   18  1   0    ; true
fail op	8
2F33  88040000           [160] setupval   18  0      
fail op	35
2F37  6380C401           [161] close      1  
2F3B  1A800080           [162] jmp        3            ; to [166]
2F3F  93048004           [163] getupval   18  9      
2F43  D2048001           [164] move       19  3      
2F47  A2440001           [165] call       18  2   1  
2F4B  9D040000           [166] getglobal  18  0        ; 1074689893
2F4F  D3040001           [167] getupval   19  2      
2F53  A2840001           [168] call       18  2   2  
2F57  98440000           [169] test       18      1    ; to [171] if false
2F5B  1AC00780           [170] jmp        32           ; to [203]
2F5F  93040001           [171] getupval   18  2      
2F63  A4444609           [172] self       18  18  281  ; -1865358441
2F67  A2840001           [173] call       18  2   2  
2F6B  D3048005           [174] getupval   19  11     
2F6F  CE84C609           [175] gettable   19  19  282  ; -132701534
2F73  1DC50600           [176] getglobal  20  27       ; Engine
2F77  0E05470A           [177] gettable   20  20  284  ; "JM_NONE"
fail op	35
2F7B  63000509           [178] close      1  
2F7F  1A000080           [179] jmp        1            ; to [181]
2F83  17450000           [180] loadbool   20  0   1    ; false, to [182]
2F87  17058000           [181] loadbool   20  1   0    ; true
2F8B  5D450700           [182] getglobal  21  29       ; LM_NONE
2F8F  93058005           [183] getupval   22  11     
2F93  8E85460B           [184] gettable   22  22  282  ; -132701534
2F97  DDC50600           [185] getglobal  23  27       ; Engine
2F9B  CE85C70B           [186] gettable   23  23  286  ; "JM_LOOPONE"
fail op	35
2F9F  63C00509           [187] close      1  
2FA3  1A000080           [188] jmp        1            ; to [190]
2FA7  D7450000           [189] loadbool   23  0   1    ; false, to [191]
2FAB  D7058000           [190] loadbool   23  1   0    ; true
2FAF  1DC60700           [191] getglobal  24  31       ; LM_LOOPONE
2FB3  5D060800           [192] getglobal  25  32       ; LM_LOOP
2FB7  A2050002           [193] call       22  4   0  
2FBB  E2840000           [194] call       19  0   2  
fail op	8
2FBF  C8040005           [195] setupval   19  10     
2FC3  D3040001           [196] getupval   19  2      
2FC7  E444C809           [197] self       19  19  289  ; -1258564826
2FCB  E2840001           [198] call       19  2   2  
2FCF  D8040000           [199] test       19      0    ; to [201] if true
2FD3  1A400080           [200] jmp        2            ; to [203]
2FD7  D3040006           [201] getupval   19  12     
2FDB  E2448000           [202] call       19  1   1  
2FDF  D3048006           [203] getupval   19  13     
2FE3  E2448000           [204] call       19  1   1  
2FE7  D3040000           [205] getupval   19  0      
2FEB  D8040000           [206] test       19      0    ; to [208] if true
2FEF  1AC01D80           [207] jmp        120          ; to [328]
2FF3  D3040007           [208] getupval   19  14     
2FF7  D8040000           [209] test       19      0    ; to [211] if true
2FFB  1AC01380           [210] jmp        80           ; to [291]
2FFF  DD040000           [211] getglobal  19  0        ; 1074689893
3003  13058007           [212] getupval   20  15     
3007  E2840001           [213] call       19  2   2  
300B  D8040000           [214] test       19      0    ; to [216] if true
300F  1A801280           [215] jmp        75           ; to [291]
3013  D7048000           [216] loadbool   19  1   0    ; true
3017  13050008           [217] getupval   20  16     
301B  22858000           [218] call       20  1   2  
301F  18050000           [219] test       20      0    ; to [221] if true
3023  1A800480           [220] jmp        19           ; to [240]
3027  13058008           [221] getupval   20  17     
fail op	21
302B  15000582           [222] concat     0   260 20 
302F  1A800380           [223] jmp        15           ; to [239]
3033  13050009           [224] getupval   20  18     
3037  18450000           [225] test       20      1    ; to [227] if false
303B  1A000180           [226] jmp        5            ; to [232]
303F  13058009           [227] getupval   20  19     
3043  5D850800           [228] getglobal  21  34       ; 1661359502
3047  62858000           [229] call       21  1   2  
304B  0345050A           [230] add        20  20  21 
fail op	8
304F  08058009           [231] setupval   20  19     
3053  13058009           [232] getupval   20  19     
3057  53058008           [233] getupval   21  17     
fail op	33
305B  6100850A           [234] tforloop   1       20   ; to [236] if exit
305F  1A000080           [235] jmp        1            ; to [237]
3063  D7440000           [236] loadbool   19  0   1    ; false, to [238]
3067  D7048000           [237] loadbool   19  1   0    ; true
306B  1A000080           [238] jmp        1            ; to [240]
306F  D7040000           [239] loadbool   19  0   0    ; false
3073  D8040000           [240] test       19      0    ; to [242] if true
3077  1A000C80           [241] jmp        49           ; to [291]
307B  1D050000           [242] getglobal  20  0        ; 1074689893
307F  5305000A           [243] getupval   21  20     
3083  22850001           [244] call       20  2   2  
3087  18450000           [245] test       20      1    ; to [247] if false
308B  1A800080           [246] jmp        3            ; to [250]
308F  1305000A           [247] getupval   20  20     
3093  57050000           [248] loadbool   21  0   0    ; false
3097  22450001           [249] call       20  2   1  
309B  1D050000           [250] getglobal  20  0        ; 1074689893
309F  5DC50800           [251] getglobal  21  35       ; gGameRules
30A3  22850001           [252] call       20  2   2  
30A7  18450000           [253] test       20      1    ; to [255] if false
30AB  1AC00880           [254] jmp        36           ; to [291]
30AF  1DC50800           [255] getglobal  20  35       ; gGameRules
30B3  2405490A           [256] self       20  20  292  ; 1586069448
30B7  22850001           [257] call       20  2   2  
30BB  18450000           [258] test       20      1    ; to [260] if false
30BF  1A800780           [259] jmp        31           ; to [291]
30C3  13050005           [260] getupval   20  10     
30C7  5D050800           [261] getglobal  21  32       ; LM_LOOP
fail op	35
30CB  2340050A           [262] close      0  
30CF  1A800080           [263] jmp        3            ; to [267]
30D3  1305800A           [264] getupval   20  21     
30D7  22458000           [265] call       20  1   1  
30DB  1AC00580           [266] jmp        24           ; to [291]
30DF  13050005           [267] getupval   20  10     
30E3  5DC50700           [268] getglobal  21  31       ; LM_LOOPONE
fail op	35
30E7  2340050A           [269] close      0  
30EB  1AC00180           [270] jmp        8            ; to [279]
30EF  1305000B           [271] getupval   20  22     
fail op	35
30F3  6380440A           [272] close      1  
30F7  1A000180           [273] jmp        5            ; to [279]
30FB  13058004           [274] getupval   20  9      
30FF  5305000B           [275] getupval   21  22     
3103  97058000           [276] loadbool   22  1   0    ; true
3107  22458001           [277] call       20  3   1  
310B  1AC00280           [278] jmp        12           ; to [291]
310F  1305800B           [279] getupval   20  23     
3113  22858000           [280] call       20  1   2  
3117  5D050000           [281] getglobal  21  0        ; 1074689893
311B  9205000A           [282] move       22  20     
311F  62850001           [283] call       21  2   2  
3123  58450000           [284] test       21      1    ; to [286] if false
3127  1A800080           [285] jmp        3            ; to [289]
312B  6445490A           [286] self       21  20  293  ; 1038470555
312F  D7058000           [287] loadbool   23  1   0    ; true
3133  62458001           [288] call       21  3   1  
3137  4605800A           [289] loadnil    21  21     
fail op	8
313B  4805000B           [290] setupval   21  22     
313F  5305000C           [291] getupval   21  24     
3143  4E85C90A           [292] gettable   21  21  294  ; 1506657582
3147  9305800C           [293] getupval   22  25     
314B  62850001           [294] call       21  2   2  
314F  58050000           [295] test       21      0    ; to [297] if true
3153  1A800780           [296] jmp        31           ; to [328]
3157  5305800C           [297] getupval   21  25     
315B  4EC5C90A           [298] gettable   21  21  295  ; "StepSequencer"
315F  6405CA0A           [299] self       21  21  296  ; -971287385
3163  DD450A00           [300] getglobal  23  41       ; -332969190
3167  19860A00           [301] loadk      24  42       ; "JukeboxSequencer"
316B  E2050001           [302] call       23  2   0  
316F  62450000           [303] call       21  0   1  
3173  5305000D           [304] getupval   21  26     
3177  9305800C           [305] getupval   22  25     
317B  8EC5490B           [306] gettable   22  22  295  ; "StepSequencer"
317F  62450001           [307] call       21  2   1  
3183  5305800C           [308] getupval   21  25     
3187  4EC5C90A           [309] gettable   21  21  295  ; "StepSequencer"
318B  64C5CA0A           [310] self       21  21  299  ; -1109374801
318F  D7050000           [311] loadbool   23  0   0    ; false
3193  62858001           [312] call       21  3   2  
3197  9305800D           [313] getupval   22  27     
319B  4485850A           [314] mul        21  21  22 
fail op	8
319F  48058008           [315] setupval   21  17     
31A3  5305000E           [316] getupval   21  28     
31A7  58050000           [317] test       21      0    ; to [319] if true
31AB  1A800080           [318] jmp        3            ; to [322]
31AF  53050009           [319] getupval   21  18     
31B3  58050000           [320] test       21      0    ; to [322] if true
31B7  1A800080           [321] jmp        3            ; to [325]
31BB  53050009           [322] getupval   21  18     
31BF  58050000           [323] test       21      0    ; to [325] if true
31C3  1A800080           [324] jmp        3            ; to [328]
31C7  5305800E           [325] getupval   21  29     
31CB  97058000           [326] loadbool   22  1   0    ; true
31CF  62450001           [327] call       21  2   1  
31D3  5305000F           [328] getupval   21  30     
31D7  62458000           [329] call       21  1   1  
31DB  1E008000           [330] return     0   1      
                         * constants:
31DF  2C                 sizek (44)
31E0  01                 const type 3
31E1  65770E40           const [0]: (1074689893)
31E5  01                 const type 3
31E6  04C5DDAF           const [1]: (-1344420604)
31EA  04                 const type 4
31EB  12                 string size (18)
31EC  67506C6179657250+  "gPlayerP"
31F4  726F66696C654D67+  "rofileMg"
31FC  7200               "r\0"
                         const [2]: "gPlayerProfileMgr"
31FE  01                 const type 3
31FF  1A7BEF21           const [3]: (569342746)
3203  03                 const type 3
3204  00000000           const [4]: (0)
3208  01                 const type 3
3209  2E61EB3E           const [5]: (1055613230)
320D  01                 const type 3
320E  7CD88884           const [6]: (-2071406468)
3212  01                 const type 3
3213  071D8A31           const [7]: (831134983)
3217  01                 const type 3
3218  83D56AB4           const [8]: (-1268066941)
321C  01                 const type 3
321D  6FAD86BC           const [9]: (-1132024465)
3221  01                 const type 3
3222  B25079A2           const [10]: (-1569107790)
3226  01                 const type 3
3227  2C725ED9           const [11]: (-648121812)
322B  04                 const type 4
322C  06                 string size (6)
322D  7461626C6500       "table\0"
                         const [12]: "table"
3233  01                 const type 3
3234  1080C5A5           const [13]: (-1513783280)
3238  01                 const type 3
3239  68D9D4CB           const [14]: (-875243160)
323D  01                 const type 3
323E  B2563FDA           const [15]: (-633383246)
3242  03                 const type 3
3243  0000803F           const [16]: (0)
3247  04                 const type 4
3248  07                 string size (7)
3249  4C6F636B656400     "Locked\0"
                         const [17]: "Locked"
3250  00                 const type 0
                         const [18]: nil
3251  04                 const type 4
3252  05                 string size (5)
3253  536F6E6700         "Song\0"
                         const [19]: "Song"
3258  04                 const type 4
3259  08                 string size (8)
325A  4D6F6E676F496400   "MongoId\0"
                         const [20]: "MongoId"
3262  01                 const type 3
3263  5720287C           const [21]: (2083004503)
3267  01                 const type 3
3268  D48E598B           const [22]: (-1957065004)
326C  04                 const type 4
326D  10                 string size (16)
326E  4175746F706C6179+  "Autoplay"
3276  456E61626C656400   "Enabled\0"
                         const [23]: "AutoplayEnabled"
327E  01                 const type 3
327F  00000000           const [24]: (0)
3283  01                 const type 3
3284  97E3D090           const [25]: (-1865358441)
3288  01                 const type 3
3289  A22217F8           const [26]: (-132701534)
328D  04                 const type 4
328E  07                 string size (7)
328F  456E67696E6500     "Engine\0"
                         const [27]: "Engine"
3296  04                 const type 4
3297  08                 string size (8)
3298  4A4D5F4E4F4E4500   "JM_NONE\0"
                         const [28]: "JM_NONE"
32A0  04                 const type 4
32A1  08                 string size (8)
32A2  4C4D5F4E4F4E4500   "LM_NONE\0"
                         const [29]: "LM_NONE"
32AA  04                 const type 4
32AB  0B                 string size (11)
32AC  4A4D5F4C4F4F504F+  "JM_LOOPO"
32B4  4E4500             "NE\0"
                         const [30]: "JM_LOOPONE"
32B7  04                 const type 4
32B8  0B                 string size (11)
32B9  4C4D5F4C4F4F504F+  "LM_LOOPO"
32C1  4E4500             "NE\0"
                         const [31]: "LM_LOOPONE"
32C4  04                 const type 4
32C5  08                 string size (8)
32C6  4C4D5F4C4F4F5000   "LM_LOOP\0"
                         const [32]: "LM_LOOP"
32CE  01                 const type 3
32CF  26D3FBB4           const [33]: (-1258564826)
32D3  01                 const type 3
32D4  8E550663           const [34]: (1661359502)
32D8  04                 const type 4
32D9  0B                 string size (11)
32DA  6747616D6552756C+  "gGameRul"
32E2  657300             "es\0"
                         const [35]: "gGameRules"
32E5  01                 const type 3
32E6  C87F895E           const [36]: (1586069448)
32EA  01                 const type 3
32EB  9BCDE53D           const [37]: (1038470555)
32EF  01                 const type 3
32F0  2EC5CD59           const [38]: (1506657582)
32F4  04                 const type 4
32F5  0E                 string size (14)
32F6  5374657053657175+  "StepSequ"
32FE  656E63657200       "encer\0"
                         const [39]: "StepSequencer"
3304  01                 const type 3
3305  A7541BC6           const [40]: (-971287385)
3309  01                 const type 3
330A  1A4B27EC           const [41]: (-332969190)
330E  04                 const type 4
330F  11                 string size (17)
3310  4A756B65626F7853+  "JukeboxS"
3318  657175656E636572+  "equencer"
3320  00                 "\0"
                         const [42]: "JukeboxSequencer"
3321  01                 const type 3
3322  AF48E0BD           const [43]: (-1109374801)
                         * functions:
3326  00                 sizep (0)
                         * lines:
3328  02                 sizelineinfo (330)
                         [pc] (line)
3329  BC                 [001] (-68)
332A  01                 [002] (-68)
332B  00                 [003] (-68)
332C  00                 [004] (-68)
332D  BC                 [005] (-68)
332E  01                 [006] (-68)
332F  00                 [007] (-68)
3330  00                 [008] (-68)
3331  BC                 [009] (-68)
3332  01                 [010] (-68)
3333  00                 [011] (-68)
3334  00                 [012] (-68)
3335  BC                 [013] (-68)
3336  01                 [014] (-67)
3337  00                 [015] (-67)
3338  00                 [016] (-67)
3339  BC                 [017] (-67)
333A  01                 [018] (-66)
333B  00                 [019] (-63)
333C  00                 [020] (-63)
333D  BC                 [021] (-63)
333E  01                 [022] (-63)
333F  00                 [023] (-63)
3340  00                 [024] (-62)
3341  BC                 [025] (-62)
3342  01                 [026] (-62)
3343  00                 [027] (-61)
3344  00                 [028] (-61)
3345  BC                 [029] (-61)
3346  01                 [030] (-61)
3347  00                 [031] (-61)
3348  00                 [032] (-60)
3349  BC                 [033] (-60)
334A  01                 [034] (-60)
334B  00                 [035] (-60)
334C  00                 [036] (-59)
334D  BC                 [037] (-59)
334E  01                 [038] (-59)
334F  00                 [039] (-59)
3350  00                 [040] (-58)
3351  BC                 [041] (-58)
3352  01                 [042] (-58)
3353  00                 [043] (-58)
3354  00                 [044] (-57)
3355  BC                 [045] (-57)
3356  01                 [046] (-57)
3357  00                 [047] (-57)
3358  00                 [048] (-57)
3359  BC                 [049] (-57)
335A  01                 [050] (-57)
335B  00                 [051] (-56)
335C  00                 [052] (-56)
335D  BD                 [053] (-56)
335E  01                 [054] (-56)
335F  00                 [055] (-52)
3360  00                 [056] (-52)
3361  BD                 [057] (-52)
3362  01                 [058] (-52)
3363  00                 [059] (-52)
3364  00                 [060] (-50)
3365  BD                 [061] (-49)
3366  01                 [062] (-47)
3367  00                 [063] (-47)
3368  00                 [064] (-47)
3369  BD                 [065] (-47)
336A  01                 [066] (-47)
336B  00                 [067] (-46)
336C  00                 [068] (-46)
336D  BE                 [069] (-46)
336E  01                 [070] (-46)
336F  00                 [071] (-45)
3370  00                 [072] (-45)
3371  C1                 [073] (-45)
3372  01                 [074] (-45)
3373  00                 [075] (-42)
3374  00                 [076] (-42)
3375  C1                 [077] (-42)
3376  01                 [078] (-42)
3377  00                 [079] (-42)
3378  00                 [080] (-41)
3379  C1                 [081] (-41)
337A  01                 [082] (-41)
337B  00                 [083] (-41)
337C  00                 [084] (-41)
337D  C1                 [085] (-40)
337E  01                 [086] (-40)
337F  00                 [087] (-40)
3380  00                 [088] (-40)
3381  C1                 [089] (-40)
3382  01                 [090] (-40)
3383  00                 [091] (-40)
3384  00                 [092] (-40)
3385  C2                 [093] (-40)
3386  01                 [094] (-40)
3387  00                 [095] (-40)
3388  00                 [096] (-40)
3389  C2                 [097] (-39)
338A  01                 [098] (-39)
338B  00                 [099] (-39)
338C  00                 [100] (-39)
338D  C2                 [101] (-39)
338E  01                 [102] (-39)
338F  00                 [103] (-39)
3390  00                 [104] (-38)
3391  C3                 [105] (-36)
3392  01                 [106] (-36)
3393  00                 [107] (-36)
3394  00                 [108] (-36)
3395  C3                 [109] (-36)
3396  01                 [110] (-36)
3397  00                 [111] (-36)
3398  00                 [112] (-35)
3399  C3                 [113] (-35)
339A  01                 [114] (-35)
339B  00                 [115] (-35)
339C  00                 [116] (-35)
339D  C3                 [117] (-35)
339E  01                 [118] (-35)
339F  00                 [119] (-35)
33A0  00                 [120] (-34)
33A1  C3                 [121] (-34)
33A2  01                 [122] (-34)
33A3  00                 [123] (-34)
33A4  00                 [124] (-33)
33A5  C4                 [125] (-33)
33A6  01                 [126] (-33)
33A7  00                 [127] (-33)
33A8  00                 [128] (-33)
33A9  C4                 [129] (-33)
33AA  01                 [130] (-33)
33AB  00                 [131] (-33)
33AC  00                 [132] (-32)
33AD  C4                 [133] (-32)
33AE  01                 [134] (-32)
33AF  00                 [135] (-31)
33B0  00                 [136] (-34)
33B1  C4                 [137] (-29)
33B2  01                 [138] (-28)
33B3  00                 [139] (-28)
33B4  00                 [140] (-28)
33B5  C5                 [141] (-28)
33B6  01                 [142] (-28)
33B7  00                 [143] (-27)
33B8  00                 [144] (-27)
33B9  C5                 [145] (-27)
33BA  01                 [146] (-27)
33BB  00                 [147] (-26)
33BC  00                 [148] (-26)
33BD  C5                 [149] (-26)
33BE  01                 [150] (-26)
33BF  00                 [151] (-26)
33C0  00                 [152] (-26)
33C1  C5                 [153] (-25)
33C2  01                 [154] (-25)
33C3  00                 [155] (-25)
33C4  00                 [156] (-24)
33C5  C6                 [157] (-27)
33C6  01                 [158] (-42)
33C7  00                 [159] (-17)
33C8  00                 [160] (-17)
33C9  C6                 [161] (-15)
33CA  01                 [162] (-15)
33CB  00                 [163] (-14)
33CC  00                 [164] (-14)
33CD  C6                 [165] (-14)
33CE  01                 [166] (-11)
33CF  00                 [167] (-11)
33D0  00                 [168] (-11)
33D1  C6                 [169] (-11)
33D2  01                 [170] (-11)
33D3  00                 [171] (-10)
33D4  00                 [172] (-10)
33D5  C7                 [173] (-10)
33D6  01                 [174] (-9)
33D7  00                 [175] (-9)
33D8  00                 [176] (-9)
33D9  C7                 [177] (-9)
33DA  01                 [178] (-9)
33DB  00                 [179] (-9)
33DC  00                 [180] (-9)
33DD  C7                 [181] (-9)
33DE  01                 [182] (-9)
33DF  00                 [183] (-9)
33E0  00                 [184] (-9)
33E1  C7                 [185] (-9)
33E2  01                 [186] (-9)
33E3  00                 [187] (-9)
33E4  00                 [188] (-9)
33E5  C7                 [189] (-9)
33E6  01                 [190] (-9)
33E7  00                 [191] (-9)
33E8  00                 [192] (-9)
33E9  C7                 [193] (-9)
33EA  01                 [194] (-9)
33EB  00                 [195] (-9)
33EC  00                 [196] (-8)
33ED  C7                 [197] (-8)
33EE  01                 [198] (-8)
33EF  00                 [199] (-8)
33F0  00                 [200] (-8)
33F1  C8                 [201] (-7)
33F2  01                 [202] (-7)
33F3  00                 [203] (-3)
33F4  00                 [204] (-3)
33F5  C8                 [205] (0)
33F6  01                 [206] (0)
33F7  00                 [207] (0)
33F8  00                 [208] (1)
33F9  C8                 [209] (1)
33FA  01                 [210] (1)
33FB  00                 [211] (1)
33FC  00                 [212] (1)
33FD  C8                 [213] (1)
33FE  01                 [214] (1)
33FF  00                 [215] (1)
3400  00                 [216] (2)
3401  CC                 [217] (3)
3402  01                 [218] (3)
3403  00                 [219] (3)
3404  00                 [220] (3)
3405  CC                 [221] (4)
3406  01                 [222] (4)
3407  00                 [223] (4)
3408  00                 [224] (5)
3409  CC                 [225] (5)
340A  01                 [226] (5)
340B  00                 [227] (6)
340C  00                 [228] (6)
340D  CC                 [229] (6)
340E  01                 [230] (6)
340F  00                 [231] (6)
3410  00                 [232] (8)
3411  CC                 [233] (8)
3412  01                 [234] (8)
3413  00                 [235] (8)
3414  00                 [236] (8)
3415  CE                 [237] (8)
3416  01                 [238] (8)
3417  00                 [239] (10)
3418  00                 [240] (13)
3419  CF                 [241] (13)
341A  01                 [242] (14)
341B  00                 [243] (14)
341C  00                 [244] (14)
341D  D1                 [245] (14)
341E  01                 [246] (14)
341F  00                 [247] (15)
3420  00                 [248] (15)
3421  D1                 [249] (15)
3422  01                 [250] (17)
3423  00                 [251] (17)
3424  00                 [252] (17)
3425  D1                 [253] (17)
3426  01                 [254] (17)
3427  00                 [255] (17)
3428  00                 [256] (17)
3429  D1                 [257] (17)
342A  01                 [258] (17)
342B  00                 [259] (17)
342C  00                 [260] (18)
342D  D1                 [261] (18)
342E  01                 [262] (18)
342F  00                 [263] (18)
3430  00                 [264] (19)
3431  D2                 [265] (19)
3432  01                 [266] (19)
3433  00                 [267] (20)
3434  00                 [268] (20)
3435  D2                 [269] (20)
3436  01                 [270] (20)
3437  00                 [271] (20)
3438  00                 [272] (20)
3439  D2                 [273] (20)
343A  01                 [274] (21)
343B  00                 [275] (21)
343C  00                 [276] (21)
343D  D2                 [277] (21)
343E  01                 [278] (21)
343F  00                 [279] (23)
3440  00                 [280] (23)
3441  D3                 [281] (24)
3442  01                 [282] (24)
3443  00                 [283] (24)
3444  00                 [284] (24)
3445  D3                 [285] (24)
3446  01                 [286] (25)
3447  00                 [287] (25)
3448  00                 [288] (25)
3449  D3                 [289] (27)
344A  01                 [290] (27)
344B  00                 [291] (32)
344C  00                 [292] (32)
344D  D3                 [293] (32)
344E  01                 [294] (32)
344F  00                 [295] (32)
3450  00                 [296] (32)
3451  D6                 [297] (33)
3452  01                 [298] (33)
3453  00                 [299] (33)
3454  00                 [300] (33)
3455  D6                 [301] (33)
3456  01                 [302] (33)
3457  00                 [303] (33)
3458  00                 [304] (34)
3459  D6                 [305] (34)
345A  01                 [306] (34)
345B  00                 [307] (34)
345C  00                 [308] (35)
345D  D6                 [309] (35)
345E  01                 [310] (35)
345F  00                 [311] (35)
3460  00                 [312] (35)
3461  D6                 [313] (35)
3462  01                 [314] (35)
3463  00                 [315] (35)
3464  00                 [316] (37)
3465  D7                 [317] (37)
3466  01                 [318] (37)
3467  00                 [319] (37)
3468  00                 [320] (37)
3469  D7                 [321] (37)
346A  01                 [322] (37)
346B  00                 [323] (37)
346C  00                 [324] (37)
346D  D7                 [325] (38)
346E  01                 [326] (38)
346F  00                 [327] (38)
3470  00                 [328] (43)
3471  D7                 [329] (43)
3472  01                 [330] (44)
                         * locals:
3851  00                 sizelocvars (0)
                         * upvalues:
3852  00                 sizeupvalues (0)
                         ** end of function **

                         
3853                     ** function [35] definition (level 2)
                         ** start of function **
3853  00                 string size (0)
                         source name: (none)
3855  04                 line defined (558)
3856  C6                 last line defined (582)
3857  04                 nups (2)
3858  02                 numparams (2)
3859  02                 is_vararg (0)
385A  00                 maxstacksize (9)
                         * code:
385C  2C                 sizecode (44)
385D  93000000           [01] getupval   2   0      
3861  8A000001           [02] len        2   2      
fail op	21
3865  15000001           [03] concat     0   2   0  
3869  1A000080           [04] jmp        1            ; to [6]
386D  1E008000           [05] return     0   1      
fail op	35
3871  2300C000           [06] close      0  
3875  1AC00080           [07] jmp        4            ; to [12]
3879  93000000           [08] getupval   2   0      
387D  8E000001           [09] gettable   2   2   0  
3881  8E404001           [10] gettable   2   2   257  ; "AutoplayEnabled"
fail op	9
3885  49000001           [11] settable   1   2   0  
3889  93000000           [12] getupval   2   0      
388D  8E000001           [13] gettable   2   2   0  
3891  8C408080           [14] settable   2   257 1    ; "AutoplayEnabled"
3895  58000000           [15] test       1       0    ; to [17] if true
3899  1A800280           [16] jmp        11           ; to [28]
389D  9D800000           [17] getglobal  2   2        ; table
38A1  8EC04001           [18] gettable   2   2   259  ; -431682403
38A5  D3008000           [19] getupval   3   1      
38A9  12010000           [20] move       4   0      
38AD  A2408001           [21] call       2   3   1  
38B1  9D800000           [22] getglobal  2   2        ; table
38B5  8E004101           [23] gettable   2   2   260  ; -1513783280
38B9  D3008000           [24] getupval   3   1      
38BD  25010000           [25] closure    4   0      
38C1  A2408001           [26] call       2   3   1  
38C5  1AC00380           [27] jmp        16           ; to [44]
38C9  99400100           [28] loadk      2   5        ; 0
38CD  D3008000           [29] getupval   3   1      
38D1  CA008001           [30] len        3   3      
38D5  19410100           [31] loadk      4   5        ; 0
38D9  90400280           [32] forprep    2   10       ; to [43]
38DD  93018000           [33] getupval   6   1      
38E1  8E410103           [34] gettable   6   6   5  
fail op	35
38E5  23000003           [35] close      0  
38E9  1A400180           [36] jmp        6            ; to [43]
38ED  9D810000           [37] getglobal  6   2        ; table
38F1  8E814103           [38] gettable   6   6   262  ; -843973282
38F5  D3018000           [39] getupval   7   1      
38F9  12028002           [40] move       8   5      
38FD  A2418001           [41] call       6   3   1  
3901  1A000080           [42] jmp        1            ; to [44]
3905  9400FD7F           [43] forloop    2   -11      ; to [33] if loop
3909  1E008000           [44] return     0   1      
                         * constants:
390D  07                 sizek (7)
390E  00                 const type 0
                         const [0]: nil
390F  04                 const type 4
3910  10                 string size (16)
3911  4175746F706C6179+  "Autoplay"
3919  456E61626C656400   "Enabled\0"
                         const [1]: "AutoplayEnabled"
3921  04                 const type 4
3922  06                 string size (6)
3923  7461626C6500       "table\0"
                         const [2]: "table"
3929  01                 const type 3
392A  9D0C45E6           const [3]: (-431682403)
392E  01                 const type 3
392F  1080C5A5           const [4]: (-1513783280)
3933  03                 const type 3
3934  0000803F           const [5]: (0)
3938  01                 const type 3
3939  5EFDB1CD           const [6]: (-843973282)
                         * functions:
393D  01                 sizep (1)
                         
393E                     ** function [0] definition (level 3)
                         ** start of function **
393E  00                 string size (0)
                         source name: (none)
3940  04                 line defined (572)
3941  BC                 last line defined (572)
3942  04                 nups (0)
3943  00                 numparams (2)
3944  02                 is_vararg (0)
3945  00                 maxstacksize (3)
                         * code:
3947  06                 sizecode (6)
fail op	21
3948  55400000           [1] concat     1   0   1  
394C  1A000080           [2] jmp        1            ; to [4]
3950  97400000           [3] loadbool   2   0   1    ; false, to [5]
3954  97008000           [4] loadbool   2   1   0    ; true
3958  9E000001           [5] return     2   2      
395C  1E008000           [6] return     0   1      
                         * constants:
3960  00                 sizek (0)
                         * functions:
3961  00                 sizep (0)
                         * lines:
3962  06                 sizelineinfo (6)
                         [pc] (line)
3963  3C                 [1] (60)
3964  02                 [2] (60)
3965  00                 [3] (60)
3966  00                 [4] (60)
3967  3C                 [5] (60)
3968  02                 [6] (60)
                         * locals:
397B  00                 sizelocvars (0)
                         * upvalues:
397C  00                 sizeupvalues (0)
                         ** end of function **

                         * lines:
397D  2C                 sizelineinfo (44)
                         [pc] (line)
397E  2F                 [01] (47)
397F  02                 [02] (47)
3980  00                 [03] (47)
3981  00                 [04] (47)
3982  2F                 [05] (48)
3983  02                 [06] (51)
3984  00                 [07] (51)
3985  00                 [08] (52)
3986  2F                 [09] (52)
3987  02                 [10] (52)
3988  00                 [11] (52)
3989  00                 [12] (55)
398A  2F                 [13] (55)
398B  02                 [14] (55)
398C  00                 [15] (58)
398D  00                 [16] (58)
398E  30                 [17] (59)
398F  02                 [18] (59)
3990  00                 [19] (59)
3991  00                 [20] (59)
3992  33                 [21] (59)
3993  02                 [22] (60)
3994  00                 [23] (60)
3995  00                 [24] (60)
3996  33                 [25] (60)
3997  02                 [26] (60)
3998  00                 [27] (60)
3999  00                 [28] (62)
399A  34                 [29] (62)
399B  02                 [30] (62)
399C  00                 [31] (62)
399D  00                 [32] (62)
399E  34                 [33] (63)
399F  02                 [34] (63)
39A0  00                 [35] (63)
39A1  00                 [36] (63)
39A2  34                 [37] (64)
39A3  02                 [38] (64)
39A4  00                 [39] (64)
39A5  00                 [40] (64)
39A6  34                 [41] (64)
39A7  02                 [42] (66)
39A8  00                 [43] (62)
39A9  00                 [44] (70)
                         * locals:
3A2E  00                 sizelocvars (0)
                         * upvalues:
3A2F  00                 sizeupvalues (0)
                         ** end of function **

                         
3A30                     ** function [36] definition (level 2)
                         ** start of function **
3A30  00                 string size (0)
                         source name: (none)
3A32  04                 line defined (584)
3A33  DA                 last line defined (602)
3A34  04                 nups (2)
3A35  02                 numparams (0)
3A36  00                 is_vararg (0)
3A37  00                 maxstacksize (9)
                         * code:
3A39  34                 sizecode (52)
3A3A  0B000000           [01] newtable   0   0   0    ; array=0, hash=0
3A3E  4B000000           [02] newtable   1   0   0    ; array=0, hash=0
3A42  99000000           [03] loadk      2   0        ; 0
3A46  D3000000           [04] getupval   3   0      
3A4A  CA008001           [05] len        3   3      
3A4E  19010000           [06] loadk      4   0        ; 0
3A52  90400780           [07] forprep    2   30       ; to [38]
3A56  93010000           [08] getupval   6   0      
3A5A  8E410103           [09] gettable   6   6   5  
3A5E  8E414003           [10] gettable   6   6   257  ; "MongoId"
fail op	35
3A62  63804003           [11] close      1  
3A66  1A000380           [12] jmp        13           ; to [26]
3A6A  93010000           [13] getupval   6   0      
3A6E  8E410103           [14] gettable   6   6   5  
3A72  8EC14003           [15] gettable   6   6   259  ; "AutoplayEnabled"
3A76  98410000           [16] test       6       1    ; to [18] if false
3A7A  1AC00480           [17] jmp        20           ; to [38]
3A7E  9D010100           [18] getglobal  6   4        ; table
3A82  8E414103           [19] gettable   6   6   261  ; -431682403
3A86  D2018000           [20] move       7   1      
3A8A  13020000           [21] getupval   8   0      
3A8E  0E420104           [22] gettable   8   8   5  
3A92  0E424004           [23] gettable   8   8   257  ; "MongoId"
3A96  A2418001           [24] call       6   3   1  
3A9A  1AC00280           [25] jmp        12           ; to [38]
3A9E  93010000           [26] getupval   6   0      
3AA2  8E410103           [27] gettable   6   6   5  
3AA6  8EC14003           [28] gettable   6   6   259  ; "AutoplayEnabled"
3AAA  98410000           [29] test       6       1    ; to [31] if false
3AAE  1A800180           [30] jmp        7            ; to [38]
3AB2  9D010100           [31] getglobal  6   4        ; table
3AB6  8E414103           [32] gettable   6   6   261  ; -431682403
3ABA  D2010000           [33] move       7   0      
3ABE  13020000           [34] getupval   8   0      
3AC2  0E420104           [35] gettable   8   8   5  
3AC6  0E824104           [36] gettable   8   8   262  ; "Song"
3ACA  A2418001           [37] call       6   3   1  
3ACE  9400F87F           [38] forloop    2   -31      ; to [8] if loop
3AD2  9DC10100           [39] getglobal  6   7        ; 1074689893
3AD6  D3018000           [40] getupval   7   1      
3ADA  A2810001           [41] call       6   2   2  
3ADE  98410000           [42] test       6       1    ; to [44] if false
3AE2  1AC00180           [43] jmp        8            ; to [52]
3AE6  93018000           [44] getupval   6   1      
3AEA  A4014203           [45] self       6   6   264  ; 1038329979
3AEE  12020000           [46] move       8   0      
3AF2  A2418001           [47] call       6   3   1  
3AF6  93018000           [48] getupval   6   1      
3AFA  A4414203           [49] self       6   6   265  ; 1753697520
3AFE  12028000           [50] move       8   1      
3B02  A2418001           [51] call       6   3   1  
3B06  1E008000           [52] return     0   1      
                         * constants:
3B0A  0A                 sizek (10)
3B0B  03                 const type 3
3B0C  0000803F           const [0]: (0)
3B10  04                 const type 4
3B11  08                 string size (8)
3B12  4D6F6E676F496400   "MongoId\0"
                         const [1]: "MongoId"
3B1A  00                 const type 0
                         const [2]: nil
3B1B  04                 const type 4
3B1C  10                 string size (16)
3B1D  4175746F706C6179+  "Autoplay"
3B25  456E61626C656400   "Enabled\0"
                         const [3]: "AutoplayEnabled"
3B2D  04                 const type 4
3B2E  06                 string size (6)
3B2F  7461626C6500       "table\0"
                         const [4]: "table"
3B35  01                 const type 3
3B36  9D0C45E6           const [5]: (-431682403)
3B3A  04                 const type 4
3B3B  05                 string size (5)
3B3C  536F6E6700         "Song\0"
                         const [6]: "Song"
3B41  01                 const type 3
3B42  65770E40           const [7]: (1074689893)
3B46  01                 const type 3
3B47  7BA8E33D           const [8]: (1038329979)
3B4B  01                 const type 3
3B4C  F04C8768           const [9]: (1753697520)
                         * functions:
3B50  00                 sizep (0)
                         * lines:
3B51  34                 sizelineinfo (52)
                         [pc] (line)
3B52  49                 [01] (73)
3B53  02                 [02] (74)
3B54  00                 [03] (76)
3B55  00                 [04] (76)
3B56  4A                 [05] (76)
3B57  02                 [06] (76)
3B58  00                 [07] (76)
3B59  00                 [08] (77)
3B5A  4C                 [09] (77)
3B5B  02                 [10] (77)
3B5C  00                 [11] (77)
3B5D  00                 [12] (77)
3B5E  4C                 [13] (78)
3B5F  02                 [14] (78)
3B60  00                 [15] (78)
3B61  00                 [16] (78)
3B62  4C                 [17] (78)
3B63  02                 [18] (79)
3B64  00                 [19] (79)
3B65  00                 [20] (79)
3B66  4C                 [21] (79)
3B67  02                 [22] (79)
3B68  00                 [23] (79)
3B69  00                 [24] (79)
3B6A  4C                 [25] (80)
3B6B  02                 [26] (81)
3B6C  00                 [27] (81)
3B6D  00                 [28] (81)
3B6E  4D                 [29] (81)
3B6F  02                 [30] (81)
3B70  00                 [31] (82)
3B71  00                 [32] (82)
3B72  4D                 [33] (82)
3B73  02                 [34] (82)
3B74  00                 [35] (82)
3B75  00                 [36] (82)
3B76  4D                 [37] (82)
3B77  02                 [38] (76)
3B78  00                 [39] (86)
3B79  00                 [40] (86)
3B7A  4D                 [41] (86)
3B7B  02                 [42] (86)
3B7C  00                 [43] (86)
3B7D  00                 [44] (87)
3B7E  4D                 [45] (87)
3B7F  02                 [46] (87)
3B80  00                 [47] (87)
3B81  00                 [48] (88)
3B82  4E                 [49] (88)
3B83  02                 [50] (88)
3B84  00                 [51] (88)
3B85  00                 [52] (90)
                         * locals:
3C22  00                 sizelocvars (0)
                         * upvalues:
3C23  00                 sizeupvalues (0)
                         ** end of function **

                         
3C24                     ** function [37] definition (level 2)
                         ** start of function **
3C24  00                 string size (0)
                         source name: (none)
3C26  04                 line defined (604)
3C27  9C                 last line defined (668)
3C28  05                 nups (8)
3C29  08                 numparams (1)
3C2A  01                 is_vararg (0)
3C2B  00                 maxstacksize (34)
                         * code:
3C2E  01                 sizecode (153)
3C2F  5D000000           [001] getglobal  1   0        ; _T
3C33  4E40C000           [002] gettable   1   1   257  ; "Jukebox"
fail op	35
3C37  6380C000           [003] close      1  
3C3B  1AC02480           [004] jmp        148          ; to [153]
3C3F  46008000           [005] loadnil    1   1      
3C43  93000000           [006] getupval   2   0      
3C47  8A000001           [007] len        2   2      
3C4B  D9C00000           [008] loadk      3   3        ; 0
3C4F  19010100           [009] loadk      4   4        ; 0
3C53  90C00380           [010] forprep    2   16       ; to [27]
3C57  93010000           [011] getupval   6   0      
3C5B  8E410103           [012] gettable   6   6   5  
3C5F  8E414103           [013] gettable   6   6   261  ; "Fingerprint"
fail op	35
3C63  63804003           [014] close      1  
3C67  1A800280           [015] jmp        11           ; to [27]
3C6B  93018000           [016] getupval   6   1      
fail op	35
3C6F  23400103           [017] close      0  
3C73  1A800080           [018] jmp        3            ; to [22]
3C77  93010000           [019] getupval   6   0      
3C7B  8E410103           [020] gettable   6   6   5  
3C7F  4E804103           [021] gettable   1   6   262  ; "MongoId"
3C83  9DC10100           [022] getglobal  6   7        ; table
3C87  8E014203           [023] gettable   6   6   264  ; -843973282
3C8B  D3010000           [024] getupval   7   0      
3C8F  12028002           [025] move       8   5      
3C93  A2418001           [026] call       6   3   1  
3C97  9480FB7F           [027] forloop    2   -17      ; to [11] if loop
3C9B  93018001           [028] getupval   6   3      
fail op	8
3C9F  88010001           [029] setupval   6   2      
3CA3  9D410200           [030] getglobal  6   9        ; gPlayerProfileMgr
3CA7  A4814203           [031] self       6   6   266  ; 569342746
3CAB  19C20200           [032] loadk      8   11       ; 0
3CAF  A2818001           [033] call       6   3   2  
3CB3  DD010300           [034] getglobal  7   12       ; 1074689893
3CB7  12020003           [035] move       8   6      
3CBB  E2810001           [036] call       7   2   2  
3CBF  D8410000           [037] test       7       1    ; to [39] if false
3CC3  1A401C80           [038] jmp        114          ; to [153]
3CC7  E4414303           [039] self       7   6   269  ; 1699680402
3CCB  E2810001           [040] call       7   2   2  
3CCF  1D020300           [041] getglobal  8   12       ; 1074689893
3CD3  52028003           [042] move       9   7      
3CD7  22820001           [043] call       8   2   2  
3CDB  18420000           [044] test       8       1    ; to [46] if false
3CDF  1A801A80           [045] jmp        107          ; to [153]
3CE3  2482C303           [046] self       8   7   270  ; 1865287165
3CE7  22820001           [047] call       8   2   2  
3CEB  24C24304           [048] self       8   8   271  ; -1507679861
3CEF  22820001           [049] call       8   2   2  
3CF3  4B020000           [050] newtable   9   0   0    ; array=0, hash=0
3CF7  9D020300           [051] getglobal  10  12       ; 1074689893
3CFB  D3020002           [052] getupval   11  4      
3CFF  A2820001           [053] call       10  2   2  
3D03  98420000           [054] test       10      1    ; to [56] if false
3D07  1AC00080           [055] jmp        4            ; to [60]
3D0B  93020002           [056] getupval   10  4      
3D0F  A4024405           [057] self       10  10  272  ; -633383246
3D13  A2820001           [058] call       10  2   2  
3D17  52020005           [059] move       9   10     
3D1B  99C20000           [060] loadk      10  3        ; 0
3D1F  CA020004           [061] len        11  8      
3D23  19C30000           [062] loadk      12  3        ; 0
3D27  90420E80           [063] forprep    10  58       ; to [122]
3D2B  8E430304           [064] gettable   14  8   13 
3D2F  CE434407           [065] gettable   15  14  273  ; "mName"
fail op	35
3D33  6380C007           [066] close      1  
3D37  1A400080           [067] jmp        2            ; to [70]
fail op	35
3D3B  2380C407           [068] close      0  
3D3F  1A800180           [069] jmp        7            ; to [77]
3D43  24C44400           [070] self       16  0   275  ; 98241492
3D47  99040500           [071] loadk      18  20       ; "/Lotus/Language/Menu/Composition_SaveSong"
3D4B  D7040000           [072] loadbool   19  0   0    ; false
3D4F  0B450000           [073] newtable   20  0   1    ; array=0, hash=1
3D53  0C45838A           [074] settable   20  277 13   ; "INDEX"
3D57  22848002           [075] call       16  5   2  
3D5B  D2030008           [076] move       15  16     
3D5F  0B040000           [077] newtable   16  0   0    ; array=0, hash=0
3D63  59C40200           [078] loadk      17  11       ; 0
3D67  9D840500           [079] getglobal  18  22       ; Lotus_Game
3D6B  8EC44509           [080] gettable   18  18  279  ; "MAX_NoteType"
3D6F  8DC44009           [081] sub        18  18  259  ; 0
3D73  D9C40000           [082] loadk      19  3        ; 0
3D77  50440280           [083] forprep    17  10       ; to [94]
3D7B  5DC50100           [084] getglobal  21  7        ; table
3D7F  4E05C60A           [085] gettable   21  21  280  ; -431682403
3D83  92050008           [086] move       22  16     
3D87  CB850000           [087] newtable   23  0   2    ; array=0, hash=2
3D8B  CC05858C           [088] settable   23  281 20   ; "NoteType"
3D8F  24C64607           [089] self       24  14  283  ; 936777888
3D93  9206000A           [090] move       26  20     
3D97  22868001           [091] call       24  3   2  
3D9B  CC05068D           [092] settable   23  282 24   ; "NotePack"
3D9F  62458001           [093] call       21  3   1  
3DA3  5404FD7F           [094] forloop    17  -11      ; to [84] if loop
3DA7  4E054707           [095] gettable   21  14  284  ; "mItemId"
3DAB  4E45C70A           [096] gettable   21  21  285  ; "mId"
3DAF  97058000           [097] loadbool   22  1   0    ; true
3DB3  D9C50000           [098] loadk      23  3        ; 0
3DB7  0A068004           [099] len        24  9      
3DBB  59C60000           [100] loadk      25  3        ; 0
3DBF  D0050180           [101] forprep    23  5        ; to [107]
3DC3  CE868604           [102] gettable   27  9   26 
fail op	35
3DC7  23C0860A           [103] close      0  
3DCB  1A400080           [104] jmp        2            ; to [107]
3DCF  97050000           [105] loadbool   22  0   0    ; false
3DD3  1A000080           [106] jmp        1            ; to [108]
3DD7  D445FE7F           [107] forloop    23  -6       ; to [102] if loop
3DDB  DDC60100           [108] getglobal  27  7        ; table
3DDF  CE06C60D           [109] gettable   27  27  280  ; -431682403
3DE3  13070000           [110] getupval   28  0      
3DE7  4B070200           [111] newtable   29  0   8    ; array=0, hash=8
3DEB  4CC7038F           [112] settable   29  286 15   ; "Name"
3DEF  4C07C88F           [113] settable   29  287 288  ; "Progress" 0
3DF3  4C07C890           [114] settable   29  289 288  ; "Required" 0
3DF7  4CC74891           [115] settable   29  290 291  ; "Locked" 0
3DFB  8E074907           [116] gettable   30  14  292  ; "mFingerPrint"
3DFF  4C878782           [117] settable   29  261 30   ; "Fingerprint"
3E03  4C078492           [118] settable   29  293 16   ; "NotePacks"
3E07  4C470583           [119] settable   29  262 21   ; "MongoId"
3E0B  4C870593           [120] settable   29  294 22   ; "AutoplayEnabled"
3E0F  E2468001           [121] call       27  3   1  
3E13  9402F17F           [122] forloop    10  -59      ; to [64] if loop
3E17  D3060001           [123] getupval   27  2      
3E1B  0A070004           [124] len        28  8      
3E1F  C306870D           [125] add        27  27  28 
fail op	8
3E23  C8060001           [126] setupval   27  2      
3E27  DDC60100           [127] getglobal  27  7        ; table
3E2B  CEC6C90D           [128] gettable   27  27  295  ; -1513783280
3E2F  13070000           [129] getupval   28  0      
3E33  53078002           [130] getupval   29  5      
3E37  E2468001           [131] call       27  3   1  
3E3B  58000000           [132] test       1       0    ; to [134] if true
3E3F  1A800480           [133] jmp        19           ; to [153]
3E43  D3060000           [134] getupval   27  0      
3E47  CA06800D           [135] len        27  27     
3E4B  19C70000           [136] loadk      28  3        ; 0
3E4F  59070100           [137] loadk      29  4        ; 0
3E53  D0060380           [138] forprep    27  13       ; to [152]
3E57  D3070000           [139] getupval   31  0      
3E5B  CE87870F           [140] gettable   31  31  30 
3E5F  CE87C10F           [141] gettable   31  31  262  ; "MongoId"
fail op	35
3E63  2340800F           [142] close      0  
3E67  1AC00180           [143] jmp        8            ; to [152]
3E6B  D3070003           [144] getupval   31  6      
3E6F  13088003           [145] getupval   32  7      
3E73  5208000F           [146] move       33  30     
3E77  22480001           [147] call       32  2   1  
3E7B  D8070000           [148] test       31      0    ; to [150] if true
3E7F  1A800080           [149] jmp        3            ; to [153]
fail op	8
3E83  C8070003           [150] setupval   31  6      
3E87  1A000080           [151] jmp        1            ; to [153]
3E8B  D446FC7F           [152] forloop    27  -14      ; to [139] if loop
3E8F  1E008000           [153] return     0   1      
                         * constants:
3E93  28                 sizek (40)
3E94  04                 const type 4
3E95  03                 string size (3)
3E96  5F5400             "_T\0"
                         const [0]: "_T"
3E99  04                 const type 4
3E9A  08                 string size (8)
3E9B  4A756B65626F7800   "Jukebox\0"
                         const [1]: "Jukebox"
3EA3  00                 const type 0
                         const [2]: nil
3EA4  03                 const type 3
3EA5  0000803F           const [3]: (0)
3EA9  03                 const type 3
3EAA  000080BF           const [4]: (0)
3EAE  04                 const type 4
3EAF  0C                 string size (12)
3EB0  46696E6765727072+  "Fingerpr"
3EB8  696E7400           "int\0"
                         const [5]: "Fingerprint"
3EBC  04                 const type 4
3EBD  08                 string size (8)
3EBE  4D6F6E676F496400   "MongoId\0"
                         const [6]: "MongoId"
3EC6  04                 const type 4
3EC7  06                 string size (6)
3EC8  7461626C6500       "table\0"
                         const [7]: "table"
3ECE  01                 const type 3
3ECF  5EFDB1CD           const [8]: (-843973282)
3ED3  04                 const type 4
3ED4  12                 string size (18)
3ED5  67506C6179657250+  "gPlayerP"
3EDD  726F66696C654D67+  "rofileMg"
3EE5  7200               "r\0"
                         const [9]: "gPlayerProfileMgr"
3EE7  01                 const type 3
3EE8  1A7BEF21           const [10]: (569342746)
3EEC  03                 const type 3
3EED  00000000           const [11]: (0)
3EF1  01                 const type 3
3EF2  65770E40           const [12]: (1074689893)
3EF6  01                 const type 3
3EF7  92104F65           const [13]: (1699680402)
3EFB  01                 const type 3
3EFC  FD052E6F           const [14]: (1865287165)
3F00  01                 const type 3
3F01  8BA122A6           const [15]: (-1507679861)
3F05  01                 const type 3
3F06  B2563FDA           const [16]: (-633383246)
3F0A  04                 const type 4
3F0B  06                 string size (6)
3F0C  6D4E616D6500       "mName\0"
                         const [17]: "mName"
3F12  04                 const type 4
3F13  01                 string size (0)
                         const [18]: ""
3F15  01                 const type 3
3F16  D40BDB05           const [19]: (98241492)
3F1A  04                 const type 4
3F1B  2A                 string size (42)
3F1C  2F4C6F7475732F4C+  "/Lotus/L"
3F24  616E67756167652F+  "anguage/"
3F2C  4D656E752F436F6D+  "Menu/Com"
3F34  706F736974696F6E+  "position"
3F3C  5F53617665536F6E+  "_SaveSon"
3F44  6700               "g\0"
                         const [20]: "/Lotus/Language/Menu/Composition_SaveSong"
3F46  04                 const type 4
3F47  06                 string size (6)
3F48  494E44455800       "INDEX\0"
                         const [21]: "INDEX"
3F4E  04                 const type 4
3F4F  0B                 string size (11)
3F50  4C6F7475735F4761+  "Lotus_Ga"
3F58  6D6500             "me\0"
                         const [22]: "Lotus_Game"
3F5B  04                 const type 4
3F5C  0D                 string size (13)
3F5D  4D41585F4E6F7465+  "MAX_Note"
3F65  5479706500         "Type\0"
                         const [23]: "MAX_NoteType"
3F6A  01                 const type 3
3F6B  9D0C45E6           const [24]: (-431682403)
3F6F  04                 const type 4
3F70  09                 string size (9)
3F71  4E6F746554797065+  "NoteType"
3F79  00                 "\0"
                         const [25]: "NoteType"
3F7A  04                 const type 4
3F7B  09                 string size (9)
3F7C  4E6F74655061636B+  "NotePack"
3F84  00                 "\0"
                         const [26]: "NotePack"
3F85  01                 const type 3
3F86  A018D637           const [27]: (936777888)
3F8A  04                 const type 4
3F8B  08                 string size (8)
3F8C  6D4974656D496400   "mItemId\0"
                         const [28]: "mItemId"
3F94  04                 const type 4
3F95  04                 string size (4)
3F96  6D496400           "mId\0"
                         const [29]: "mId"
3F9A  04                 const type 4
3F9B  05                 string size (5)
3F9C  4E616D6500         "Name\0"
                         const [30]: "Name"
3FA1  04                 const type 4
3FA2  09                 string size (9)
3FA3  50726F6772657373+  "Progress"
3FAB  00                 "\0"
                         const [31]: "Progress"
3FAC  03                 const type 3
3FAD  00008040           const [32]: (0)
3FB1  04                 const type 4
3FB2  09                 string size (9)
3FB3  5265717569726564+  "Required"
3FBB  00                 "\0"
                         const [33]: "Required"
3FBC  04                 const type 4
3FBD  07                 string size (7)
3FBE  4C6F636B656400     "Locked\0"
                         const [34]: "Locked"
3FC5  01                 const type 3
3FC6  00000000           const [35]: (0)
3FCA  04                 const type 4
3FCB  0D                 string size (13)
3FCC  6D46696E67657250+  "mFingerP"
3FD4  72696E7400         "rint\0"
                         const [36]: "mFingerPrint"
3FD9  04                 const type 4
3FDA  0A                 string size (10)
3FDB  4E6F74655061636B+  "NotePack"
3FE3  7300               "s\0"
                         const [37]: "NotePacks"
3FE5  04                 const type 4
3FE6  10                 string size (16)
3FE7  4175746F706C6179+  "Autoplay"
3FEF  456E61626C656400   "Enabled\0"
                         const [38]: "AutoplayEnabled"
3FF7  01                 const type 3
3FF8  1080C5A5           const [39]: (-1513783280)
                         * functions:
3FFC  00                 sizep (0)
                         * lines:
3FFE  01                 sizelineinfo (153)
                         [pc] (line)
3FFF  5D                 [001] (93)
4000  02                 [002] (93)
4001  00                 [003] (93)
4002  00                 [004] (93)
4003  5D                 [005] (94)
4004  02                 [006] (95)
4005  00                 [007] (95)
4006  00                 [008] (95)
4007  5D                 [009] (95)
4008  02                 [010] (95)
4009  00                 [011] (96)
400A  00                 [012] (96)
400B  5D                 [013] (96)
400C  02                 [014] (96)
400D  00                 [015] (96)
400E  00                 [016] (97)
400F  5E                 [017] (97)
4010  02                 [018] (97)
4011  00                 [019] (98)
4012  00                 [020] (98)
4013  5F                 [021] (98)
4014  02                 [022] (100)
4015  00                 [023] (100)
4016  00                 [024] (100)
4017  5F                 [025] (100)
4018  02                 [026] (100)
4019  00                 [027] (95)
401A  00                 [028] (104)
401B  5F                 [029] (104)
401C  02                 [030] (106)
401D  00                 [031] (106)
401E  00                 [032] (106)
401F  5F                 [033] (106)
4020  02                 [034] (107)
4021  00                 [035] (107)
4022  00                 [036] (107)
4023  5F                 [037] (107)
4024  02                 [038] (107)
4025  00                 [039] (108)
4026  00                 [040] (108)
4027  60                 [041] (109)
4028  02                 [042] (109)
4029  00                 [043] (109)
402A  00                 [044] (109)
402B  60                 [045] (109)
402C  02                 [046] (110)
402D  00                 [047] (110)
402E  00                 [048] (110)
402F  60                 [049] (110)
4030  02                 [050] (111)
4031  00                 [051] (112)
4032  00                 [052] (112)
4033  60                 [053] (112)
4034  02                 [054] (112)
4035  00                 [055] (112)
4036  00                 [056] (113)
4037  60                 [057] (113)
4038  02                 [058] (113)
4039  00                 [059] (113)
403A  00                 [060] (115)
403B  61                 [061] (115)
403C  02                 [062] (115)
403D  00                 [063] (115)
403E  00                 [064] (116)
403F  61                 [065] (117)
4040  02                 [066] (119)
4041  00                 [067] (119)
4042  00                 [068] (119)
4043  61                 [069] (119)
4044  02                 [070] (120)
4045  00                 [071] (120)
4046  00                 [072] (120)
4047  62                 [073] (120)
4048  02                 [074] (120)
4049  00                 [075] (120)
404A  00                 [076] (120)
404B  62                 [077] (123)
404C  02                 [078] (124)
404D  00                 [079] (124)
404E  00                 [080] (124)
404F  62                 [081] (124)
4050  02                 [082] (124)
4051  00                 [083] (124)
4052  00                 [084] (125)
4053  64                 [085] (125)
4054  02                 [086] (125)
4055  00                 [087] (125)
4056  00                 [088] (125)
4057  64                 [089] (125)
4058  02                 [090] (125)
4059  00                 [091] (125)
405A  00                 [092] (125)
405B  64                 [093] (125)
405C  02                 [094] (124)
405D  00                 [095] (-128)
405E  00                 [096] (-128)
405F  64                 [097] (-127)
4060  02                 [098] (-126)
4061  00                 [099] (-126)
4062  00                 [100] (-126)
4063  64                 [101] (-126)
4064  02                 [102] (-125)
4065  00                 [103] (-125)
4066  00                 [104] (-125)
4067  5F                 [105] (-124)
4068  02                 [106] (-123)
4069  00                 [107] (-126)
406A  00                 [108] (-120)
406B  68                 [109] (-120)
406C  02                 [110] (-120)
406D  00                 [111] (-120)
406E  00                 [112] (-120)
406F  68                 [113] (-120)
4070  02                 [114] (-120)
4071  00                 [115] (-120)
4072  00                 [116] (-119)
4073  6A                 [117] (-119)
4074  02                 [118] (-119)
4075  00                 [119] (-119)
4076  00                 [120] (-119)
4077  6A                 [121] (-120)
4078  02                 [122] (115)
4079  00                 [123] (-117)
407A  00                 [124] (-117)
407B  6A                 [125] (-117)
407C  02                 [126] (-117)
407D  00                 [127] (-116)
407E  00                 [128] (-116)
407F  6A                 [129] (-116)
4080  02                 [130] (-116)
4081  00                 [131] (-116)
4082  00                 [132] (-115)
4083  6B                 [133] (-115)
4084  02                 [134] (-114)
4085  00                 [135] (-114)
4086  00                 [136] (-114)
4087  6B                 [137] (-114)
4088  02                 [138] (-114)
4089  00                 [139] (-113)
408A  00                 [140] (-113)
408B  6B                 [141] (-113)
408C  02                 [142] (-113)
408D  00                 [143] (-113)
408E  00                 [144] (-112)
408F  6B                 [145] (-111)
4090  02                 [146] (-111)
4091  00                 [147] (-111)
4092  00                 [148] (-110)
4093  6B                 [149] (-110)
4094  02                 [150] (-109)
4095  00                 [151] (-107)
4096  00                 [152] (-114)
4097  6C                 [153] (-100)
                         * locals:
4263  00                 sizelocvars (0)
                         * upvalues:
4264  00                 sizeupvalues (0)
                         ** end of function **

                         
4265                     ** function [38] definition (level 2)
                         ** start of function **
4265  00                 string size (0)
                         source name: (none)
4267  05                 line defined (670)
4268  E4                 last line defined (740)
4269  05                 nups (9)
426A  09                 numparams (2)
426B  02                 is_vararg (0)
426C  00                 maxstacksize (30)
                         * code:
426F  01                 sizecode (214)
4270  9D000000           [001] getglobal  2   0        ; _T
4274  8E404001           [002] gettable   2   2   257  ; "Jukebox"
fail op	35
4278  23804001           [003] close      0  
427C  1A800080           [004] jmp        3            ; to [8]
4280  9D000000           [005] getglobal  2   0        ; _T
4284  CB000000           [006] newtable   3   0   0    ; array=0, hash=0
4288  8CC08080           [007] settable   2   257 3    ; "Jukebox"
428C  97000000           [008] loadbool   2   0   0    ; false
4290  D3000000           [009] getupval   3   0      
fail op	35
4294  2380C001           [010] close      0  
4298  1A802E80           [011] jmp        187          ; to [199]
429C  DDC00000           [012] getglobal  3   3        ; 1074689893
42A0  12010000           [013] move       4   0      
42A4  E2800001           [014] call       3   2   2  
42A8  D8400000           [015] test       3       1    ; to [17] if false
42AC  1A402D80           [016] jmp        182          ; to [199]
42B0  E4004100           [017] self       3   0   260  ; -1917464545
42B4  E2800001           [018] call       3   2   2  
42B8  E440C101           [019] self       3   3   261  ; 341850691
42BC  E2800001           [020] call       3   2   2  
42C0  0B010000           [021] newtable   4   0   0    ; array=0, hash=0
42C4  4B010000           [022] newtable   5   0   0    ; array=0, hash=0
fail op	8
42C8  48010000           [023] setupval   5   0      
42CC  59810100           [024] loadk      5   6        ; 0
42D0  8A018001           [025] len        6   3      
42D4  D9810100           [026] loadk      7   6        ; 0
42D8  50811580           [027] forprep    5   87       ; to [115]
42DC  5DC20100           [028] getglobal  9   7        ; 2083004503
42E0  8E028201           [029] gettable   10  3   8  
42E4  8E024205           [030] gettable   10  10  264  ; "mItemType"
42E8  62820001           [031] call       9   2   2  
42EC  8E028201           [032] gettable   10  3   8  
42F0  8E424205           [033] gettable   10  10  265  ; "mRegion"
fail op	35
42F4  23804205           [034] close      0  
42F8  1AC00080           [035] jmp        4            ; to [40]
42FC  8E028201           [036] gettable   10  3   8  
4300  E4C2C204           [037] self       11  9   267  ; 1112640846
4304  E2820001           [038] call       11  2   2  
4308  8CC28284           [039] settable   10  265 11   ; "mRegion"
430C  93020000           [040] getupval   10  0      
4310  CBC20100           [041] newtable   11  0   7    ; array=0, hash=7
4314  1D430300           [042] getglobal  12  13       ; -1615931716
4318  6483C304           [043] self       13  9   270  ; 1634497718
431C  62030001           [044] call       13  2   0  
4320  22830000           [045] call       12  0   2  
4324  CC020386           [046] settable   11  268 12   ; "Tag"
4328  2403C404           [047] self       12  9   272  ; 1094544280
432C  22830001           [048] call       12  2   2  
4330  CC028387           [049] settable   11  271 12   ; "Song"
4334  0E038201           [050] gettable   12  3   8  
4338  0E434206           [051] gettable   12  12  265  ; "mRegion"
433C  CC028388           [052] settable   11  273 12   ; "RegionLocName"
4340  0E038201           [053] gettable   12  3   8  
4344  0EC34406           [054] gettable   12  12  275  ; "mItemCount"
4348  CC020389           [055] settable   11  274 12   ; "Progress"
434C  2443C504           [056] self       12  9   277  ; 1635660992
4350  22830001           [057] call       12  2   2  
4354  CC02038A           [058] settable   11  276 12   ; "Required"
4358  CCC2458B           [059] settable   11  278 279  ; "Locked" 0
435C  CC42468C           [060] settable   11  280 281  ; "AutoplayEnabled" 1
4360  8CC20204           [061] settable   10  8   11 
4364  98000000           [062] test       2       0    ; to [64] if true
4368  1A400180           [063] jmp        6            ; to [70]
436C  93020000           [064] getupval   10  0      
4370  8E020205           [065] gettable   10  10  8  
4374  D3020000           [066] getupval   11  0      
4378  CE028205           [067] gettable   11  11  8  
437C  CE02C505           [068] gettable   11  11  276  ; "Required"
4380  8CC20289           [069] settable   10  274 11   ; "Progress"
4384  93020000           [070] getupval   10  0      
4388  8E020205           [071] gettable   10  10  8  
438C  8E824405           [072] gettable   10  10  274  ; "Progress"
4390  D3020000           [073] getupval   11  0      
4394  CE028205           [074] gettable   11  11  8  
4398  CE02C505           [075] gettable   11  11  276  ; "Required"
fail op	33
439C  21808205           [076] tforloop   0       10   ; to [78] if exit
43A0  1AC00480           [077] jmp        20           ; to [98]
43A4  93028000           [078] getupval   10  1      
43A8  83824105           [079] add        10  10  262  ; 0
fail op	8
43AC  88028000           [080] setupval   10  1      
43B0  93028000           [081] getupval   10  1      
43B4  D3020000           [082] getupval   11  0      
43B8  CE028205           [083] gettable   11  11  8  
43BC  CEC2C305           [084] gettable   11  11  271  ; "Song"
43C0  E482C605           [085] self       11  11  282  ; 455421500
43C4  E2820001           [086] call       11  2   2  
43C8  0CC10205           [087] settable   4   10  11 
43CC  93020000           [088] getupval   10  0      
43D0  8E020205           [089] gettable   10  10  8  
43D4  DD020700           [090] getglobal  11  28       ; -421772368
43D8  13030000           [091] getupval   12  0      
43DC  0E030206           [092] gettable   12  12  8  
43E0  0E034306           [093] gettable   12  12  268  ; "Tag"
43E4  46038006           [094] loadnil    13  13     
43E8  E2828001           [095] call       11  3   2  
43EC  8CC2828D           [096] settable   10  283 11   ; "Name"
43F0  1A000480           [097] jmp        17           ; to [115]
43F4  93020000           [098] getupval   10  0      
43F8  8E020205           [099] gettable   10  10  8  
43FC  8C42468B           [100] settable   10  278 281  ; "Locked" 1
4400  93020000           [101] getupval   10  0      
4404  8E020205           [102] gettable   10  10  8  
4408  E442C700           [103] self       11  1   285  ; 98241492
440C  59830700           [104] loadk      13  30       ; "/Lotus/Language/Menu/Jukebox_Undiscovered_Track"
4410  97038000           [105] loadbool   14  1   0    ; true
4414  CB430000           [106] newtable   15  0   1    ; array=0, hash=1
4418  1D040700           [107] getglobal  16  28       ; -421772368
441C  4E048201           [108] gettable   17  3   8  
4420  4E44C208           [109] gettable   17  17  265  ; "mRegion"
4424  86040009           [110] loadnil    18  18     
4428  22848001           [111] call       16  3   2  
442C  CC03848F           [112] settable   15  287 16   ; "REGION"
4430  E2828002           [113] call       11  5   2  
4434  8CC2828D           [114] settable   10  283 11   ; "Name"
4438  54C1E97F           [115] forloop    5   -88      ; to [28] if loop
443C  93028000           [116] getupval   10  1      
fail op	8
4440  88020001           [117] setupval   10  2      
4444  9D020800           [118] getglobal  10  32       ; UISys
4448  8E424805           [119] gettable   10  10  289  ; 1151030240
444C  D2020002           [120] move       11  4      
4450  A2820001           [121] call       10  2   2  
fail op	8
4454  88028001           [122] setupval   10  3      
4458  9D820800           [123] getglobal  10  34       ; gPlayerProfileMgr
445C  A4C24805           [124] self       10  10  291  ; 569342746
4460  19030900           [125] loadk      12  36       ; 0
4464  A2828001           [126] call       10  3   2  
4468  DDC20000           [127] getglobal  11  3        ; 1074689893
446C  12030005           [128] move       12  10     
4470  E2820001           [129] call       11  2   2  
4474  D8420000           [130] test       11      1    ; to [132] if false
4478  1A801080           [131] jmp        67           ; to [199]
447C  E4424905           [132] self       11  10  293  ; 1699680402
4480  E2820001           [133] call       11  2   2  
4484  1DC30000           [134] getglobal  12  3        ; 1074689893
4488  52038005           [135] move       13  11     
448C  22830001           [136] call       12  2   2  
4490  18430000           [137] test       12      1    ; to [139] if false
4494  1AC00E80           [138] jmp        60           ; to [199]
4498  2483C905           [139] self       12  11  294  ; 1865287165
449C  22830001           [140] call       12  2   2  
44A0  24C34906           [141] self       12  12  295  ; -1507679861
44A4  22830001           [142] call       12  2   2  
44A8  59830100           [143] loadk      13  6        ; 0
44AC  8A030006           [144] len        14  12     
44B0  D9830100           [145] loadk      15  6        ; 0
44B4  50830B80           [146] forprep    13  47       ; to [194]
44B8  4E040406           [147] gettable   17  12  16 
44BC  8E04CA08           [148] gettable   18  17  296  ; "mName"
fail op	35
44C0  63804009           [149] close      1  
44C4  1A400080           [150] jmp        2            ; to [153]
fail op	35
44C8  23804209           [151] close      0  
44CC  1A800180           [152] jmp        7            ; to [160]
44D0  E444C700           [153] self       19  1   285  ; 98241492
44D4  59450A00           [154] loadk      21  41       ; "/Lotus/Language/Menu/Composition_SaveSong"
44D8  97050000           [155] loadbool   22  0   0    ; false
44DC  CB450000           [156] newtable   23  0   1    ; array=0, hash=1
44E0  CC050495           [157] settable   23  298 16   ; "INDEX"
44E4  E2848002           [158] call       19  5   2  
44E8  92048009           [159] move       18  19     
44EC  CB040000           [160] newtable   19  0   0    ; array=0, hash=0
44F0  19050900           [161] loadk      20  36       ; 0
44F4  5DC50A00           [162] getglobal  21  43       ; Lotus_Game
44F8  4E05CB0A           [163] gettable   21  21  300  ; "MAX_NoteType"
44FC  4D85C10A           [164] sub        21  21  262  ; 0
4500  99850100           [165] loadk      22  6        ; 0
4504  10450280           [166] forprep    20  10       ; to [177]
4508  1D460B00           [167] getglobal  24  45       ; table
450C  0E864B0C           [168] gettable   24  24  302  ; -431682403
4510  52068009           [169] move       25  19     
4514  8B860000           [170] newtable   26  0   2    ; array=0, hash=2
4518  8CC68597           [171] settable   26  303 23   ; "NoteType"
451C  E446CC08           [172] self       27  17  305  ; 936777888
4520  5207800B           [173] move       29  23     
4524  E2868001           [174] call       27  3   2  
4528  8CC60698           [175] settable   26  304 27   ; "NotePack"
452C  22468001           [176] call       24  3   1  
4530  1405FD7F           [177] forloop    20  -11      ; to [167] if loop
4534  1D460B00           [178] getglobal  24  45       ; table
4538  0E864B0C           [179] gettable   24  24  302  ; -431682403
453C  53060000           [180] getupval   25  0      
4540  8B060200           [181] newtable   26  0   8    ; array=0, hash=8
4544  8C86848D           [182] settable   26  283 18   ; "Name"
4548  8C864C89           [183] settable   26  274 306  ; "Progress" 0
454C  8C864C8A           [184] settable   26  276 306  ; "Required" 0
4550  8CC6458B           [185] settable   26  278 279  ; "Locked" 0
4554  CE06CD08           [186] gettable   27  17  308  ; "mFingerPrint"
4558  8CC68699           [187] settable   26  307 27   ; "Fingerprint"
455C  8CC6849A           [188] settable   26  309 19   ; "NotePacks"
4560  CEC6CD08           [189] gettable   27  17  311  ; "mItemId"
4564  CE06CE0D           [190] gettable   27  27  312  ; "mId"
4568  8CC6069B           [191] settable   26  310 27   ; "MongoId"
456C  8C46468C           [192] settable   26  280 281  ; "AutoplayEnabled" 1
4570  22468001           [193] call       24  3   1  
4574  54C3F37F           [194] forloop    13  -48      ; to [147] if loop
4578  13060001           [195] getupval   24  2      
457C  4A060006           [196] len        25  12     
4580  0346060C           [197] add        24  24  25 
fail op	8
4584  08060001           [198] setupval   24  2      
4588  13068002           [199] getupval   24  5      
458C  0E464E0C           [200] gettable   24  24  313  ; -1250011425
4590  53060003           [201] getupval   25  6      
4594  5C86CE0C           [202] div        25  25  314  ; 0
4598  22860001           [203] call       24  2   2  
fail op	8
459C  08060002           [204] setupval   24  4      
45A0  19860100           [205] loadk      24  6        ; 0
45A4  53060002           [206] getupval   25  4      
45A8  99860100           [207] loadk      26  6        ; 0
45AC  10460080           [208] forprep    24  2        ; to [211]
45B0  13078003           [209] getupval   28  7      
45B4  0C07C90D           [210] settable   28  27  292  ; 0
45B8  1406FF7F           [211] forloop    24  -3       ; to [209] if loop
45BC  13070004           [212] getupval   28  8      
45C0  22478000           [213] call       28  1   1  
45C4  1E008000           [214] return     0   1      
                         * constants:
45C8  3B                 sizek (59)
45C9  04                 const type 4
45CA  03                 string size (3)
45CB  5F5400             "_T\0"
                         const [0]: "_T"
45CE  04                 const type 4
45CF  08                 string size (8)
45D0  4A756B65626F7800   "Jukebox\0"
                         const [1]: "Jukebox"
45D8  00                 const type 0
                         const [2]: nil
45D9  01                 const type 3
45DA  65770E40           const [3]: (1074689893)
45DE  01                 const type 3
45DF  1FD0B58D           const [4]: (-1917464545)
45E3  01                 const type 3
45E4  433A6014           const [5]: (341850691)
45E8  03                 const type 3
45E9  0000803F           const [6]: (0)
45ED  01                 const type 3
45EE  5720287C           const [7]: (2083004503)
45F2  04                 const type 4
45F3  0A                 string size (10)
45F4  6D4974656D547970+  "mItemTyp"
45FC  6500               "e\0"
                         const [8]: "mItemType"
45FE  04                 const type 4
45FF  08                 string size (8)
4600  6D526567696F6E00   "mRegion\0"
                         const [9]: "mRegion"
4608  04                 const type 4
4609  01                 string size (0)
                         const [10]: ""
460B  01                 const type 3
460C  4E8D5142           const [11]: (1112640846)
4610  04                 const type 4
4611  04                 string size (4)
4612  54616700           "Tag\0"
                         const [12]: "Tag"
4616  01                 const type 3
4617  BCD6AE9F           const [13]: (-1615931716)
461B  01                 const type 3
461C  B6746C61           const [14]: (1634497718)
4620  04                 const type 4
4621  05                 string size (5)
4622  536F6E6700         "Song\0"
                         const [15]: "Song"
4627  01                 const type 3
4628  986B3D41           const [16]: (1094544280)
462C  04                 const type 4
462D  0E                 string size (14)
462E  526567696F6E4C6F+  "RegionLo"
4636  634E616D6500       "cName\0"
                         const [17]: "RegionLocName"
463C  04                 const type 4
463D  09                 string size (9)
463E  50726F6772657373+  "Progress"
4646  00                 "\0"
                         const [18]: "Progress"
4647  04                 const type 4
4648  0B                 string size (11)
4649  6D4974656D436F75+  "mItemCou"
4651  6E7400             "nt\0"
                         const [19]: "mItemCount"
4654  04                 const type 4
4655  09                 string size (9)
4656  5265717569726564+  "Required"
465E  00                 "\0"
                         const [20]: "Required"
465F  01                 const type 3
4660  C0347E61           const [21]: (1635660992)
4664  04                 const type 4
4665  07                 string size (7)
4666  4C6F636B656400     "Locked\0"
                         const [22]: "Locked"
466D  01                 const type 3
466E  00000000           const [23]: (0)
4672  04                 const type 4
4673  10                 string size (16)
4674  4175746F706C6179+  "Autoplay"
467C  456E61626C656400   "Enabled\0"
                         const [24]: "AutoplayEnabled"
4684  01                 const type 3
4685  01000000           const [25]: (1)
4689  01                 const type 3
468A  3C2E251B           const [26]: (455421500)
468E  04                 const type 4
468F  05                 string size (5)
4690  4E616D6500         "Name\0"
                         const [27]: "Name"
4695  01                 const type 3
4696  B043DCE6           const [28]: (-421772368)
469A  01                 const type 3
469B  D40BDB05           const [29]: (98241492)
469F  04                 const type 4
46A0  30                 string size (48)
46A1  2F4C6F7475732F4C+  "/Lotus/L"
46A9  616E67756167652F+  "anguage/"
46B1  4D656E752F4A756B+  "Menu/Juk"
46B9  65626F785F556E64+  "ebox_Und"
46C1  6973636F76657265+  "iscovere"
46C9  645F547261636B00   "d_Track\0"
                         const [30]: "/Lotus/Language/Menu/Jukebox_Undiscovered_Track"
46D1  04                 const type 4
46D2  07                 string size (7)
46D3  524547494F4E00     "REGION\0"
                         const [31]: "REGION"
46DA  04                 const type 4
46DB  06                 string size (6)
46DC  554953797300       "UISys\0"
                         const [32]: "UISys"
46E2  01                 const type 3
46E3  E0539B44           const [33]: (1151030240)
46E7  04                 const type 4
46E8  12                 string size (18)
46E9  67506C6179657250+  "gPlayerP"
46F1  726F66696C654D67+  "rofileMg"
46F9  7200               "r\0"
                         const [34]: "gPlayerProfileMgr"
46FB  01                 const type 3
46FC  1A7BEF21           const [35]: (569342746)
4700  03                 const type 3
4701  00000000           const [36]: (0)
4705  01                 const type 3
4706  92104F65           const [37]: (1699680402)
470A  01                 const type 3
470B  FD052E6F           const [38]: (1865287165)
470F  01                 const type 3
4710  8BA122A6           const [39]: (-1507679861)
4714  04                 const type 4
4715  06                 string size (6)
4716  6D4E616D6500       "mName\0"
                         const [40]: "mName"
471C  04                 const type 4
471D  2A                 string size (42)
471E  2F4C6F7475732F4C+  "/Lotus/L"
4726  616E67756167652F+  "anguage/"
472E  4D656E752F436F6D+  "Menu/Com"
4736  706F736974696F6E+  "position"
473E  5F53617665536F6E+  "_SaveSon"
4746  6700               "g\0"
                         const [41]: "/Lotus/Language/Menu/Composition_SaveSong"
4748  04                 const type 4
4749  06                 string size (6)
474A  494E44455800       "INDEX\0"
                         const [42]: "INDEX"
4750  04                 const type 4
4751  0B                 string size (11)
4752  4C6F7475735F4761+  "Lotus_Ga"
475A  6D6500             "me\0"
                         const [43]: "Lotus_Game"
475D  04                 const type 4
475E  0D                 string size (13)
475F  4D41585F4E6F7465+  "MAX_Note"
4767  5479706500         "Type\0"
                         const [44]: "MAX_NoteType"
476C  04                 const type 4
476D  06                 string size (6)
476E  7461626C6500       "table\0"
                         const [45]: "table"
4774  01                 const type 3
4775  9D0C45E6           const [46]: (-431682403)
4779  04                 const type 4
477A  09                 string size (9)
477B  4E6F746554797065+  "NoteType"
4783  00                 "\0"
                         const [47]: "NoteType"
4784  04                 const type 4
4785  09                 string size (9)
4786  4E6F74655061636B+  "NotePack"
478E  00                 "\0"
                         const [48]: "NotePack"
478F  01                 const type 3
4790  A018D637           const [49]: (936777888)
4794  03                 const type 3
4795  00008040           const [50]: (0)
4799  04                 const type 4
479A  0C                 string size (12)
479B  46696E6765727072+  "Fingerpr"
47A3  696E7400           "int\0"
                         const [51]: "Fingerprint"
47A7  04                 const type 4
47A8  0D                 string size (13)
47A9  6D46696E67657250+  "mFingerP"
47B1  72696E7400         "rint\0"
                         const [52]: "mFingerPrint"
47B6  04                 const type 4
47B7  0A                 string size (10)
47B8  4E6F74655061636B+  "NotePack"
47C0  7300               "s\0"
                         const [53]: "NotePacks"
47C2  04                 const type 4
47C3  08                 string size (8)
47C4  4D6F6E676F496400   "MongoId\0"
                         const [54]: "MongoId"
47CC  04                 const type 4
47CD  08                 string size (8)
47CE  6D4974656D496400   "mItemId\0"
                         const [55]: "mItemId"
47D6  04                 const type 4
47D7  04                 string size (4)
47D8  6D496400           "mId\0"
                         const [56]: "mId"
47DC  01                 const type 3
47DD  DF567EB5           const [57]: (-1250011425)
47E1  03                 const type 3
47E2  00000040           const [58]: (0)
                         * functions:
47E6  00                 sizep (0)
                         * lines:
47E8  01                 sizelineinfo (214)
                         [pc] (line)
47E9  9F                 [001] (-97)
47EA  02                 [002] (-97)
47EB  00                 [003] (-97)
47EC  00                 [004] (-97)
47ED  9F                 [005] (-96)
47EE  02                 [006] (-96)
47EF  00                 [007] (-96)
47F0  00                 [008] (-93)
47F1  9F                 [009] (-91)
47F2  02                 [010] (-91)
47F3  00                 [011] (-91)
47F4  00                 [012] (-91)
47F5  9F                 [013] (-91)
47F6  02                 [014] (-91)
47F7  00                 [015] (-91)
47F8  00                 [016] (-91)
47F9  A0                 [017] (-90)
47FA  02                 [018] (-90)
47FB  00                 [019] (-90)
47FC  00                 [020] (-90)
47FD  A0                 [021] (-89)
47FE  02                 [022] (-88)
47FF  00                 [023] (-88)
4800  00                 [024] (-87)
4801  A0                 [025] (-87)
4802  02                 [026] (-87)
4803  00                 [027] (-87)
4804  00                 [028] (-86)
4805  A3                 [029] (-86)
4806  02                 [030] (-86)
4807  00                 [031] (-86)
4808  00                 [032] (-85)
4809  A5                 [033] (-85)
480A  02                 [034] (-85)
480B  00                 [035] (-85)
480C  00                 [036] (-84)
480D  A5                 [037] (-84)
480E  02                 [038] (-84)
480F  00                 [039] (-84)
4810  00                 [040] (-82)
4811  A5                 [041] (-82)
4812  02                 [042] (-82)
4813  00                 [043] (-82)
4814  00                 [044] (-82)
4815  A5                 [045] (-82)
4816  02                 [046] (-82)
4817  00                 [047] (-82)
4818  00                 [048] (-82)
4819  A5                 [049] (-82)
481A  02                 [050] (-82)
481B  00                 [051] (-82)
481C  00                 [052] (-82)
481D  A5                 [053] (-81)
481E  02                 [054] (-81)
481F  00                 [055] (-81)
4820  00                 [056] (-81)
4821  A5                 [057] (-81)
4822  02                 [058] (-81)
4823  00                 [059] (-81)
4824  00                 [060] (-81)
4825  A5                 [061] (-81)
4826  02                 [062] (-78)
4827  00                 [063] (-78)
4828  00                 [064] (-77)
4829  A6                 [065] (-77)
482A  02                 [066] (-77)
482B  00                 [067] (-77)
482C  00                 [068] (-77)
482D  A6                 [069] (-77)
482E  02                 [070] (-75)
482F  00                 [071] (-75)
4830  00                 [072] (-75)
4831  A6                 [073] (-75)
4832  02                 [074] (-75)
4833  00                 [075] (-75)
4834  00                 [076] (-75)
4835  A6                 [077] (-75)
4836  02                 [078] (-74)
4837  00                 [079] (-74)
4838  00                 [080] (-74)
4839  A7                 [081] (-73)
483A  02                 [082] (-73)
483B  00                 [083] (-73)
483C  00                 [084] (-73)
483D  A8                 [085] (-73)
483E  02                 [086] (-73)
483F  00                 [087] (-73)
4840  00                 [088] (-72)
4841  A8                 [089] (-72)
4842  02                 [090] (-72)
4843  00                 [091] (-72)
4844  00                 [092] (-72)
4845  A9                 [093] (-72)
4846  02                 [094] (-72)
4847  00                 [095] (-72)
4848  00                 [096] (-72)
4849  A9                 [097] (-72)
484A  02                 [098] (-70)
484B  00                 [099] (-70)
484C  00                 [100] (-70)
484D  A9                 [101] (-68)
484E  02                 [102] (-68)
484F  00                 [103] (-68)
4850  00                 [104] (-68)
4851  A9                 [105] (-68)
4852  02                 [106] (-68)
4853  00                 [107] (-68)
4854  00                 [108] (-68)
4855  AA                 [109] (-68)
4856  02                 [110] (-68)
4857  00                 [111] (-68)
4858  00                 [112] (-68)
4859  AA                 [113] (-68)
485A  02                 [114] (-68)
485B  00                 [115] (-87)
485C  00                 [116] (-64)
485D  AA                 [117] (-64)
485E  02                 [118] (-62)
485F  00                 [119] (-62)
4860  00                 [120] (-62)
4861  AA                 [121] (-62)
4862  02                 [122] (-62)
4863  00                 [123] (-59)
4864  00                 [124] (-59)
4865  AB                 [125] (-59)
4866  02                 [126] (-59)
4867  00                 [127] (-58)
4868  00                 [128] (-58)
4869  AB                 [129] (-58)
486A  02                 [130] (-58)
486B  00                 [131] (-58)
486C  00                 [132] (-57)
486D  AB                 [133] (-57)
486E  02                 [134] (-56)
486F  00                 [135] (-56)
4870  00                 [136] (-56)
4871  AB                 [137] (-56)
4872  02                 [138] (-56)
4873  00                 [139] (-55)
4874  00                 [140] (-55)
4875  AC                 [141] (-55)
4876  02                 [142] (-55)
4877  00                 [143] (-54)
4878  00                 [144] (-54)
4879  AC                 [145] (-54)
487A  02                 [146] (-54)
487B  00                 [147] (-53)
487C  00                 [148] (-52)
487D  AC                 [149] (-50)
487E  02                 [150] (-50)
487F  00                 [151] (-50)
4880  00                 [152] (-50)
4881  AC                 [153] (-49)
4882  02                 [154] (-49)
4883  00                 [155] (-49)
4884  00                 [156] (-49)
4885  AE                 [157] (-49)
4886  02                 [158] (-49)
4887  00                 [159] (-49)
4888  00                 [160] (-46)
4889  AE                 [161] (-45)
488A  02                 [162] (-45)
488B  00                 [163] (-45)
488C  00                 [164] (-45)
488D  AE                 [165] (-45)
488E  02                 [166] (-45)
488F  00                 [167] (-44)
4890  00                 [168] (-44)
4891  AE                 [169] (-44)
4892  02                 [170] (-44)
4893  00                 [171] (-44)
4894  00                 [172] (-44)
4895  AE                 [173] (-44)
4896  02                 [174] (-44)
4897  00                 [175] (-44)
4898  00                 [176] (-44)
4899  AE                 [177] (-45)
489A  02                 [178] (-42)
489B  00                 [179] (-42)
489C  00                 [180] (-42)
489D  AE                 [181] (-42)
489E  02                 [182] (-42)
489F  00                 [183] (-42)
48A0  00                 [184] (-42)
48A1  AE                 [185] (-42)
48A2  02                 [186] (-41)
48A3  00                 [187] (-41)
48A4  00                 [188] (-41)
48A5  AE                 [189] (-41)
48A6  02                 [190] (-41)
48A7  00                 [191] (-41)
48A8  00                 [192] (-41)
48A9  AE                 [193] (-42)
48AA  02                 [194] (-54)
48AB  00                 [195] (-39)
48AC  00                 [196] (-39)
48AD  AE                 [197] (-39)
48AE  02                 [198] (-39)
48AF  00                 [199] (-34)
48B0  00                 [200] (-34)
48B1  AE                 [201] (-34)
48B2  02                 [202] (-34)
48B3  00                 [203] (-34)
48B4  00                 [204] (-34)
48B5  AE                 [205] (-33)
48B6  02                 [206] (-33)
48B7  00                 [207] (-33)
48B8  00                 [208] (-33)
48B9  AF                 [209] (-32)
48BA  02                 [210] (-32)
48BB  00                 [211] (-33)
48BC  00                 [212] (-29)
48BD  AF                 [213] (-29)
48BE  02                 [214] (-28)
                         * locals:
4B41  00                 sizelocvars (0)
                         * upvalues:
4B42  00                 sizeupvalues (0)
                         ** end of function **

                         
4B43                     ** function [39] definition (level 2)
                         ** start of function **
4B43  00                 string size (0)
                         source name: (none)
4B45  05                 line defined (742)
4B46  EC                 last line defined (748)
4B47  05                 nups (1)
4B48  01                 numparams (1)
4B49  01                 is_vararg (0)
4B4A  00                 maxstacksize (14)
                         * code:
4B4C  1B                 sizecode (27)
4B4D  59000000           [01] loadk      1   0        ; 0
4B51  93000000           [02] getupval   2   0      
4B55  8A000001           [03] len        2   2      
4B59  D9000000           [04] loadk      3   0        ; 0
4B5D  50C00480           [05] forprep    1   20       ; to [26]
4B61  53010000           [06] getupval   5   0      
4B65  4E018102           [07] gettable   5   5   4  
4B69  4E41C002           [08] gettable   5   5   257  ; "Locked"
4B6D  58010000           [09] test       5       0    ; to [11] if true
4B71  1A800380           [10] jmp        15           ; to [26]
4B75  53010000           [11] getupval   5   0      
4B79  4E018102           [12] gettable   5   5   4  
4B7D  A4C14000           [13] self       6   0   259  ; 98241492
4B81  19020100           [14] loadk      8   4        ; "/Lotus/Language/Menu/Jukebox_Undiscovered_Track"
4B85  57028000           [15] loadbool   9   1   0    ; true
4B89  8B420000           [16] newtable   10  0   1    ; array=0, hash=1
4B8D  DD820100           [17] getglobal  11  6        ; -421772368
4B91  13030000           [18] getupval   12  0      
4B95  0E030106           [19] gettable   12  12  4  
4B99  0EC34106           [20] gettable   12  12  263  ; "RegionLocName"
4B9D  46038006           [21] loadnil    13  13     
4BA1  E2828001           [22] call       11  3   2  
4BA5  8CC28282           [23] settable   10  261 11   ; "REGION"
4BA9  A2818002           [24] call       6   5   2  
4BAD  4C810181           [25] settable   5   258 6    ; "Name"
4BB1  5480FA7F           [26] forloop    1   -21      ; to [6] if loop
4BB5  1E008000           [27] return     0   1      
                         * constants:
4BB9  08                 sizek (8)
4BBA  03                 const type 3
4BBB  0000803F           const [0]: (0)
4BBF  04                 const type 4
4BC0  07                 string size (7)
4BC1  4C6F636B656400     "Locked\0"
                         const [1]: "Locked"
4BC8  04                 const type 4
4BC9  05                 string size (5)
4BCA  4E616D6500         "Name\0"
                         const [2]: "Name"
4BCF  01                 const type 3
4BD0  D40BDB05           const [3]: (98241492)
4BD4  04                 const type 4
4BD5  30                 string size (48)
4BD6  2F4C6F7475732F4C+  "/Lotus/L"
4BDE  616E67756167652F+  "anguage/"
4BE6  4D656E752F4A756B+  "Menu/Juk"
4BEE  65626F785F556E64+  "ebox_Und"
4BF6  6973636F76657265+  "iscovere"
4BFE  645F547261636B00   "d_Track\0"
                         const [4]: "/Lotus/Language/Menu/Jukebox_Undiscovered_Track"
4C06  04                 const type 4
4C07  07                 string size (7)
4C08  524547494F4E00     "REGION\0"
                         const [5]: "REGION"
4C0F  01                 const type 3
4C10  B043DCE6           const [6]: (-421772368)
4C14  04                 const type 4
4C15  0E                 string size (14)
4C16  526567696F6E4C6F+  "RegionLo"
4C1E  634E616D6500       "cName\0"
                         const [7]: "RegionLocName"
                         * functions:
4C24  00                 sizep (0)
                         * lines:
4C25  1B                 sizelineinfo (27)
                         [pc] (line)
4C26  E7                 [01] (-25)
4C27  02                 [02] (-25)
4C28  00                 [03] (-25)
4C29  00                 [04] (-25)
4C2A  E7                 [05] (-25)
4C2B  02                 [06] (-24)
4C2C  00                 [07] (-24)
4C2D  00                 [08] (-24)
4C2E  E7                 [09] (-24)
4C2F  02                 [10] (-24)
4C30  00                 [11] (-23)
4C31  00                 [12] (-23)
4C32  E7                 [13] (-23)
4C33  02                 [14] (-23)
4C34  00                 [15] (-23)
4C35  00                 [16] (-23)
4C36  E7                 [17] (-23)
4C37  02                 [18] (-23)
4C38  00                 [19] (-23)
4C39  00                 [20] (-23)
4C3A  E8                 [21] (-23)
4C3B  02                 [22] (-23)
4C3C  00                 [23] (-23)
4C3D  00                 [24] (-23)
4C3E  E8                 [25] (-23)
4C3F  02                 [26] (-25)
4C40  00                 [27] (-20)
                         * locals:
4C92  00                 sizelocvars (0)
                         * upvalues:
4C93  00                 sizeupvalues (0)
                         ** end of function **

                         
4C94                     ** function [40] definition (level 2)
                         ** start of function **
4C94  00                 string size (0)
                         source name: (none)
4C96  05                 line defined (750)
4C97  F6                 last line defined (758)
4C98  05                 nups (4)
4C99  04                 numparams (0)
4C9A  00                 is_vararg (0)
4C9B  00                 maxstacksize (3)
                         * code:
4C9D  14                 sizecode (20)
4C9E  1D000000           [01] getglobal  0   0        ; 1074689893
4CA2  53000000           [02] getupval   1   0      
4CA6  22800001           [03] call       0   2   2  
4CAA  18400000           [04] test       0       1    ; to [6] if false
4CAE  1A400380           [05] jmp        14           ; to [20]
4CB2  13000000           [06] getupval   0   0      
4CB6  24404000           [07] self       0   0   257  ; -648121812
4CBA  22800001           [08] call       0   2   2  
fail op	8
4CBE  08008000           [09] setupval   0   1      
4CC2  13000001           [10] getupval   0   2      
4CC6  22808000           [11] call       0   1   2  
4CCA  5D000000           [12] getglobal  1   0        ; 1074689893
4CCE  92000000           [13] move       2   0      
4CD2  62800001           [14] call       1   2   2  
4CD6  58400000           [15] test       1       1    ; to [17] if false
4CDA  1A800080           [16] jmp        3            ; to [20]
4CDE  53008001           [17] getupval   1   3      
4CE2  92000000           [18] move       2   0      
4CE6  62400001           [19] call       1   2   1  
4CEA  1E008000           [20] return     0   1      
                         * constants:
4CEE  02                 sizek (2)
4CEF  01                 const type 3
4CF0  65770E40           const [0]: (1074689893)
4CF4  01                 const type 3
4CF5  2C725ED9           const [1]: (-648121812)
                         * functions:
4CF9  00                 sizep (0)
                         * lines:
4CFA  14                 sizelineinfo (20)
                         [pc] (line)
4CFB  EF                 [01] (-17)
4CFC  02                 [02] (-17)
4CFD  00                 [03] (-17)
4CFE  00                 [04] (-17)
4CFF  EF                 [05] (-17)
4D00  02                 [06] (-16)
4D01  00                 [07] (-16)
4D02  00                 [08] (-16)
4D03  EF                 [09] (-16)
4D04  02                 [10] (-15)
4D05  00                 [11] (-15)
4D06  00                 [12] (-14)
4D07  EF                 [13] (-14)
4D08  02                 [14] (-14)
4D09  00                 [15] (-14)
4D0A  00                 [16] (-14)
4D0B  EF                 [17] (-13)
4D0C  02                 [18] (-13)
4D0D  00                 [19] (-13)
4D0E  00                 [20] (-10)
                         * locals:
4D4B  00                 sizelocvars (0)
                         * upvalues:
4D4C  00                 sizeupvalues (0)
                         ** end of function **

                         
4D4D                     ** function [41] definition (level 2)
                         ** start of function **
4D4D  00                 string size (0)
                         source name: (none)
4D4F  05                 line defined (760)
4D50  FA                 last line defined (762)
4D51  05                 nups (1)
4D52  01                 numparams (1)
4D53  01                 is_vararg (0)
4D54  00                 maxstacksize (2)
                         * code:
4D56  02                 sizecode (2)
fail op	8
4D57  08000000           [1] setupval   0   0      
4D5B  1E008000           [2] return     0   1      
                         * constants:
4D5F  00                 sizek (0)
                         * functions:
4D60  00                 sizep (0)
                         * lines:
4D61  02                 sizelineinfo (2)
                         [pc] (line)
4D62  F9                 [1] (-7)
4D63  02                 [2] (-6)
                         * locals:
4D6A  00                 sizelocvars (0)
                         * upvalues:
4D6B  00                 sizeupvalues (0)
                         ** end of function **

                         
4D6C                     ** function [42] definition (level 2)
                         ** start of function **
4D6C  00                 string size (0)
                         source name: (none)
4D6E  05                 line defined (764)
4D6F  90                 last line defined (784)
4D70  06                 nups (2)
4D71  02                 numparams (0)
4D72  00                 is_vararg (0)
4D73  00                 maxstacksize (11)
                         * code:
4D75  55                 sizecode (85)
4D76  1D000000           [01] getglobal  0   0        ; 1074689893
4D7A  53000000           [02] getupval   1   0      
4D7E  22800001           [03] call       0   2   2  
4D82  18400000           [04] test       0       1    ; to [6] if false
4D86  1A801380           [05] jmp        79           ; to [85]
4D8A  1D400000           [06] getglobal  0   1        ; -1247440829
4D8E  59800000           [07] loadk      1   2        ; 0
4D92  99C00000           [08] loadk      2   3        ; 0
4D96  D9000100           [09] loadk      3   4        ; 0
4D9A  19010100           [10] loadk      4   4        ; 0
4D9E  22808002           [11] call       0   5   2  
4DA2  5D400100           [12] getglobal  1   5        ; gPlayerProfileMgr
4DA6  6480C100           [13] self       1   1   262  ; 569342746
4DAA  D9C00100           [14] loadk      3   7        ; 0
4DAE  62808001           [15] call       1   3   2  
4DB2  9D000000           [16] getglobal  2   0        ; 1074689893
4DB6  D2008000           [17] move       3   1      
4DBA  A2800001           [18] call       2   2   2  
4DBE  98400000           [19] test       2       1    ; to [21] if false
4DC2  1AC00480           [20] jmp        20           ; to [41]
4DC6  A400C200           [21] self       2   1   264  ; 1699680402
4DCA  A2800001           [22] call       2   2   2  
4DCE  DD000000           [23] getglobal  3   0        ; 1074689893
4DD2  12010001           [24] move       4   2      
4DD6  E2800001           [25] call       3   2   2  
4DDA  D8400000           [26] test       3       1    ; to [28] if false
4DDE  1A000380           [27] jmp        13           ; to [41]
4DE2  E4404201           [28] self       3   2   265  ; 339600978
4DE6  5D810200           [29] getglobal  5   10       ; gRegion
4DEA  64C1C202           [30] self       5   5   267  ; -1520831144
4DEE  62010001           [31] call       5   2   0  
4DF2  E2800000           [32] call       3   0   2  
4DF6  CE00C301           [33] gettable   3   3   268  ; "mShipInterior"
4DFA  1D010000           [34] getglobal  4   0        ; 1074689893
4DFE  52018001           [35] move       5   3      
4E02  22810001           [36] call       4   2   2  
4E06  18410000           [37] test       4       1    ; to [39] if false
4E0A  1A400080           [38] jmp        2            ; to [41]
4E0E  0E41C301           [39] gettable   4   3   269  ; "mColors"
4E12  0E804302           [40] gettable   0   4   270  ; "mEnergyColor"
4E16  13010000           [41] getupval   4   0      
4E1A  24C14302           [42] self       4   4   271  ; -786111647
4E1E  9D010400           [43] getglobal  6   16       ; -332969190
4E22  D9410400           [44] loadk      7   17       ; "TintColor"
4E26  A2810001           [45] call       6   2   2  
4E2A  CE814400           [46] gettable   7   0   274  ; "red"
4E2E  DC01C103           [47] div        7   7   260  ; 0
4E32  0EC24400           [48] gettable   8   0   275  ; "green"
4E36  1C024104           [49] div        8   8   260  ; 0
4E3A  4E024500           [50] gettable   9   0   276  ; "blue"
4E3E  5C02C104           [51] div        9   9   260  ; 0
4E42  99420500           [52] loadk      10  21       ; 0
4E46  22418003           [53] call       4   7   1  
4E4A  13018000           [54] getupval   4   1      
4E4E  0E814502           [55] gettable   4   4   278  ; -1130533444
4E52  53010000           [56] getupval   5   0      
4E56  92010000           [57] move       6   0      
4E5A  22418001           [58] call       4   3   1  
4E5E  13010000           [59] getupval   4   0      
4E62  24C14302           [60] self       4   4   271  ; -786111647
4E66  9D010400           [61] getglobal  6   16       ; -332969190
4E6A  D9C10500           [62] loadk      7   23       ; "EmissiveTintColorHi"
4E6E  A2810001           [63] call       6   2   2  
4E72  CE814400           [64] gettable   7   0   274  ; "red"
4E76  DC01C103           [65] div        7   7   260  ; 0
4E7A  0EC24400           [66] gettable   8   0   275  ; "green"
4E7E  1C024104           [67] div        8   8   260  ; 0
4E82  4E024500           [68] gettable   9   0   276  ; "blue"
4E86  5C02C104           [69] div        9   9   260  ; 0
4E8A  99420500           [70] loadk      10  21       ; 0
4E8E  22418003           [71] call       4   7   1  
4E92  13010000           [72] getupval   4   0      
4E96  24C14302           [73] self       4   4   271  ; -786111647
4E9A  9D010400           [74] getglobal  6   16       ; -332969190
4E9E  D9010600           [75] loadk      7   24       ; "EmissiveTintColorLo"
4EA2  A2810001           [76] call       6   2   2  
4EA6  CE814400           [77] gettable   7   0   274  ; "red"
4EAA  DC01C103           [78] div        7   7   260  ; 0
4EAE  0EC24400           [79] gettable   8   0   275  ; "green"
4EB2  1C024104           [80] div        8   8   260  ; 0
4EB6  4E024500           [81] gettable   9   0   276  ; "blue"
4EBA  5C02C104           [82] div        9   9   260  ; 0
4EBE  99420500           [83] loadk      10  21       ; 0
4EC2  22418003           [84] call       4   7   1  
4EC6  1E008000           [85] return     0   1      
                         * constants:
4ECA  19                 sizek (25)
4ECB  01                 const type 3
4ECC  65770E40           const [0]: (1074689893)
4ED0  01                 const type 3
4ED1  4390A5B5           const [1]: (-1247440829)
4ED5  03                 const type 3
4ED6  00005443           const [2]: (0)
4EDA  03                 const type 3
4EDB  00006343           const [3]: (0)
4EDF  03                 const type 3
4EE0  00007F43           const [4]: (0)
4EE4  04                 const type 4
4EE5  12                 string size (18)
4EE6  67506C6179657250+  "gPlayerP"
4EEE  726F66696C654D67+  "rofileMg"
4EF6  7200               "r\0"
                         const [5]: "gPlayerProfileMgr"
4EF8  01                 const type 3
4EF9  1A7BEF21           const [6]: (569342746)
4EFD  03                 const type 3
4EFE  00000000           const [7]: (0)
4F02  01                 const type 3
4F03  92104F65           const [8]: (1699680402)
4F07  01                 const type 3
4F08  52E63D14           const [9]: (339600978)
4F0C  04                 const type 4
4F0D  08                 string size (8)
4F0E  67526567696F6E00   "gRegion\0"
                         const [10]: "gRegion"
4F16  01                 const type 3
4F17  58F559A5           const [11]: (-1520831144)
4F1B  04                 const type 4
4F1C  0E                 string size (14)
4F1D  6D53686970496E74+  "mShipInt"
4F25  6572696F7200       "erior\0"
                         const [12]: "mShipInterior"
4F2B  04                 const type 4
4F2C  08                 string size (8)
4F2D  6D436F6C6F727300   "mColors\0"
                         const [13]: "mColors"
4F35  04                 const type 4
4F36  0D                 string size (13)
4F37  6D456E6572677943+  "mEnergyC"
4F3F  6F6C6F7200         "olor\0"
                         const [14]: "mEnergyColor"
4F44  01                 const type 3
4F45  61E324D1           const [15]: (-786111647)
4F49  01                 const type 3
4F4A  1A4B27EC           const [16]: (-332969190)
4F4E  04                 const type 4
4F4F  0A                 string size (10)
4F50  54696E74436F6C6F+  "TintColo"
4F58  7200               "r\0"
                         const [17]: "TintColor"
4F5A  04                 const type 4
4F5B  04                 string size (4)
4F5C  72656400           "red\0"
                         const [18]: "red"
4F60  04                 const type 4
4F61  06                 string size (6)
4F62  677265656E00       "green\0"
                         const [19]: "green"
4F68  04                 const type 4
4F69  05                 string size (5)
4F6A  626C756500         "blue\0"
                         const [20]: "blue"
4F6F  03                 const type 3
4F70  0000803F           const [21]: (0)
4F74  01                 const type 3
4F75  BC6D9DBC           const [22]: (-1130533444)
4F79  04                 const type 4
4F7A  14                 string size (20)
4F7B  456D697373697665+  "Emissive"
4F83  54696E74436F6C6F+  "TintColo"
4F8B  72486900           "rHi\0"
                         const [23]: "EmissiveTintColorHi"
4F8F  04                 const type 4
4F90  14                 string size (20)
4F91  456D697373697665+  "Emissive"
4F99  54696E74436F6C6F+  "TintColo"
4FA1  724C6F00           "rLo\0"
                         const [24]: "EmissiveTintColorLo"
                         * functions:
4FA5  00                 sizep (0)
                         * lines:
4FA6  55                 sizelineinfo (85)
                         [pc] (line)
4FA7  FD                 [01] (-3)
4FA8  02                 [02] (-3)
4FA9  00                 [03] (-3)
4FAA  00                 [04] (-3)
4FAB  FD                 [05] (-3)
4FAC  02                 [06] (-2)
4FAD  00                 [07] (-2)
4FAE  00                 [08] (-2)
4FAF  FD                 [09] (-2)
4FB0  02                 [10] (-2)
4FB1  00                 [11] (-2)
4FB2  00                 [12] (-1)
4FB3  FD                 [13] (-1)
4FB4  02                 [14] (-1)
4FB5  00                 [15] (-1)
4FB6  00                 [16] (0)
4FB7  FD                 [17] (0)
4FB8  02                 [18] (0)
4FB9  00                 [19] (0)
4FBA  00                 [20] (0)
4FBB  FE                 [21] (1)
4FBC  02                 [22] (1)
4FBD  00                 [23] (2)
4FBE  00                 [24] (2)
4FBF  FE                 [25] (2)
4FC0  02                 [26] (2)
4FC1  00                 [27] (2)
4FC2  00                 [28] (3)
4FC3  FE                 [29] (3)
4FC4  02                 [30] (3)
4FC5  00                 [31] (3)
4FC6  00                 [32] (3)
4FC7  FE                 [33] (3)
4FC8  02                 [34] (4)
4FC9  00                 [35] (4)
4FCA  00                 [36] (4)
4FCB  FE                 [37] (4)
4FCC  02                 [38] (4)
4FCD  00                 [39] (5)
4FCE  00                 [40] (5)
4FCF  FE                 [41] (10)
4FD0  02                 [42] (10)
4FD1  00                 [43] (10)
4FD2  00                 [44] (10)
4FD3  FF                 [45] (10)
4FD4  02                 [46] (10)
4FD5  00                 [47] (10)
4FD6  00                 [48] (10)
4FD7  FF                 [49] (10)
4FD8  02                 [50] (10)
4FD9  00                 [51] (10)
4FDA  00                 [52] (10)
4FDB  FF                 [53] (10)
4FDC  02                 [54] (11)
4FDD  00                 [55] (11)
4FDE  00                 [56] (11)
4FDF  FF                 [57] (11)
4FE0  02                 [58] (11)
4FE1  00                 [59] (13)
4FE2  00                 [60] (13)
4FE3  00                 [61] (13)
4FE4  03                 [62] (13)
4FE5  00                 [63] (13)
4FE6  00                 [64] (13)
4FE7  00                 [65] (13)
4FE8  03                 [66] (13)
4FE9  00                 [67] (13)
4FEA  00                 [68] (13)
4FEB  00                 [69] (13)
4FEC  03                 [70] (13)
4FED  00                 [71] (13)
4FEE  00                 [72] (14)
4FEF  00                 [73] (14)
4FF0  03                 [74] (14)
4FF1  00                 [75] (14)
4FF2  00                 [76] (14)
4FF3  00                 [77] (14)
4FF4  03                 [78] (14)
4FF5  00                 [79] (14)
4FF6  00                 [80] (14)
4FF7  01                 [81] (14)
4FF8  03                 [82] (14)
4FF9  00                 [83] (14)
4FFA  00                 [84] (14)
4FFB  01                 [85] (16)
                         * locals:
50FB  00                 sizelocvars (0)
                         * upvalues:
50FC  00                 sizeupvalues (0)
                         ** end of function **

                         
50FD                     ** function [43] definition (level 2)
                         ** start of function **
50FD  00                 string size (0)
                         source name: (none)
50FF  06                 line defined (786)
5100  97                 last line defined (791)
5101  06                 nups (5)
5102  05                 numparams (1)
5103  01                 is_vararg (0)
5104  00                 maxstacksize (3)
                         * code:
5106  14                 sizecode (20)
fail op	8
5107  08000000           [01] setupval   0   0      
510B  53000000           [02] getupval   1   0      
510F  58000000           [03] test       1       0    ; to [5] if true
5113  1A800380           [04] jmp        15           ; to [20]
5117  5D000000           [05] getglobal  1   0        ; 1074689893
511B  93008000           [06] getupval   2   1      
511F  62800001           [07] call       1   2   2  
5123  58000000           [08] test       1       0    ; to [10] if true
5127  1AC00080           [09] jmp        4            ; to [14]
512B  53000001           [10] getupval   1   2      
512F  62808000           [11] call       1   1   2  
5133  58000000           [12] test       1       0    ; to [14] if true
5137  1A400180           [13] jmp        6            ; to [20]
513B  53008001           [14] getupval   1   3      
513F  58400000           [15] test       1       1    ; to [17] if false
5143  1A800080           [16] jmp        3            ; to [20]
5147  53000002           [17] getupval   1   4      
514B  97008000           [18] loadbool   2   1   0    ; true
514F  62400001           [19] call       1   2   1  
5153  1E008000           [20] return     0   1      
                         * constants:
5157  01                 sizek (1)
5158  01                 const type 3
5159  65770E40           const [0]: (1074689893)
                         * functions:
515D  00                 sizep (0)
                         * lines:
515E  14                 sizelineinfo (20)
                         [pc] (line)
515F  13                 [01] (19)
5160  03                 [02] (20)
5161  00                 [03] (20)
5162  00                 [04] (20)
5163  14                 [05] (20)
5164  03                 [06] (20)
5165  00                 [07] (20)
5166  00                 [08] (20)
5167  14                 [09] (20)
5168  03                 [10] (20)
5169  00                 [11] (20)
516A  00                 [12] (20)
516B  14                 [13] (20)
516C  03                 [14] (20)
516D  00                 [15] (20)
516E  00                 [16] (20)
516F  14                 [17] (21)
5170  03                 [18] (21)
5171  00                 [19] (21)
5172  00                 [20] (23)
                         * locals:
51AF  00                 sizelocvars (0)
                         * upvalues:
51B0  00                 sizeupvalues (0)
                         ** end of function **

                         
51B1                     ** function [44] definition (level 2)
                         ** start of function **
51B1  00                 string size (0)
                         source name: (none)
51B3  06                 line defined (793)
51B4  B2                 last line defined (818)
51B5  06                 nups (16)
51B6  10                 numparams (0)
51B7  00                 is_vararg (0)
51B8  00                 maxstacksize (4)
                         * code:
51BA  28                 sizecode (40)
fail op	8
51BB  08000000           [01] setupval   0   0      
51BF  06000000           [02] loadnil    0   0      
fail op	8
51C3  08008000           [03] setupval   0   1      
51C7  17000000           [04] loadbool   0   0   0    ; false
fail op	8
51CB  08000001           [05] setupval   0   2      
51CF  19000000           [06] loadk      0   0        ; 0
fail op	8
51D3  08008001           [07] setupval   0   3      
51D7  19000000           [08] loadk      0   0        ; 0
fail op	8
51DB  08000002           [09] setupval   0   4      
51DF  06000000           [10] loadnil    0   0      
fail op	8
51E3  08008002           [11] setupval   0   5      
51E7  17000000           [12] loadbool   0   0   0    ; false
fail op	8
51EB  08000003           [13] setupval   0   6      
51EF  06000000           [14] loadnil    0   0      
fail op	8
51F3  08008003           [15] setupval   0   7      
51F7  17000000           [16] loadbool   0   0   0    ; false
fail op	8
51FB  08000004           [17] setupval   0   8      
51FF  19000000           [18] loadk      0   0        ; 0
fail op	8
5203  08008004           [19] setupval   0   9      
5207  19000000           [20] loadk      0   0        ; 0
fail op	8
520B  08000005           [21] setupval   0   10     
520F  13008005           [22] getupval   0   11     
5213  22808000           [23] call       0   1   2  
5217  5D400000           [24] getglobal  1   1        ; 1074689893
521B  92000000           [25] move       2   0      
521F  62800001           [26] call       1   2   2  
5223  58400000           [27] test       1       1    ; to [29] if false
5227  1A800080           [28] jmp        3            ; to [32]
522B  64804000           [29] self       1   0   258  ; 1038470555
522F  D7008000           [30] loadbool   3   1   0    ; true
5233  62408001           [31] call       1   3   1  
5237  57000000           [32] loadbool   1   0   0    ; false
fail op	8
523B  48000006           [33] setupval   1   12     
523F  4B000000           [34] newtable   1   0   0    ; array=0, hash=0
fail op	8
5243  48008006           [35] setupval   1   13     
5247  46008000           [36] loadnil    1   1      
fail op	8
524B  48000007           [37] setupval   1   14     
524F  46008000           [38] loadnil    1   1      
fail op	8
5253  48008007           [39] setupval   1   15     
5257  1E008000           [40] return     0   1      
                         * constants:
525B  03                 sizek (3)
525C  03                 const type 3
525D  00000000           const [0]: (0)
5261  01                 const type 3
5262  65770E40           const [1]: (1074689893)
5266  01                 const type 3
5267  9BCDE53D           const [2]: (1038470555)
                         * functions:
526B  00                 sizep (0)
                         * lines:
526C  28                 sizelineinfo (40)
                         [pc] (line)
526D  1A                 [01] (26)
526E  03                 [02] (27)
526F  00                 [03] (27)
5270  00                 [04] (28)
5271  1B                 [05] (28)
5272  03                 [06] (29)
5273  00                 [07] (29)
5274  00                 [08] (30)
5275  1B                 [09] (30)
5276  03                 [10] (32)
5277  00                 [11] (32)
5278  00                 [12] (33)
5279  1C                 [13] (33)
527A  03                 [14] (34)
527B  00                 [15] (34)
527C  00                 [16] (35)
527D  1C                 [17] (35)
527E  03                 [18] (37)
527F  00                 [19] (37)
5280  00                 [20] (38)
5281  1D                 [21] (38)
5282  03                 [22] (40)
5283  00                 [23] (40)
5284  00                 [24] (41)
5285  1D                 [25] (41)
5286  03                 [26] (41)
5287  00                 [27] (41)
5288  00                 [28] (41)
5289  1E                 [29] (42)
528A  03                 [30] (42)
528B  00                 [31] (42)
528C  00                 [32] (45)
528D  1E                 [33] (45)
528E  03                 [34] (46)
528F  00                 [35] (46)
5290  00                 [36] (48)
5291  20                 [37] (48)
5292  03                 [38] (49)
5293  00                 [39] (49)
5294  00                 [40] (50)
                         * locals:
530D  00                 sizelocvars (0)
                         * upvalues:
530E  00                 sizeupvalues (0)
                         ** end of function **

                         * lines:
5310  03                 sizelineinfo (390)
                         [pc] (line)
5311  01                 [001] (1)
5312  00                 [002] (1)
5313  00                 [003] (1)
5314  00                 [004] (1)
5315  01                 [005] (1)
5316  00                 [006] (2)
5317  00                 [007] (2)
5318  00                 [008] (2)
5319  01                 [009] (3)
531A  00                 [010] (3)
531B  00                 [011] (3)
531C  00                 [012] (4)
531D  01                 [013] (4)
531E  00                 [014] (4)
531F  00                 [015] (5)
5320  00                 [016] (7)
5321  01                 [017] (8)
5322  00                 [018] (9)
5323  00                 [019] (11)
5324  00                 [020] (12)
5325  02                 [021] (13)
5326  00                 [022] (14)
5327  00                 [023] (15)
5328  00                 [024] (17)
5329  02                 [025] (18)
532A  00                 [026] (20)
532B  00                 [027] (20)
532C  00                 [028] (21)
532D  02                 [029] (21)
532E  00                 [030] (22)
532F  00                 [031] (22)
5330  00                 [032] (23)
5331  03                 [033] (25)
5332  00                 [034] (26)
5333  00                 [035] (27)
5334  00                 [036] (28)
5335  03                 [037] (29)
5336  00                 [038] (31)
5337  00                 [039] (32)
5338  00                 [040] (33)
5339  03                 [041] (35)
533A  00                 [042] (35)
533B  00                 [043] (35)
533C  00                 [044] (35)
533D  04                 [045] (35)
533E  00                 [046] (35)
533F  00                 [047] (35)
5340  00                 [048] (35)
5341  04                 [049] (36)
5342  00                 [050] (37)
5343  00                 [051] (38)
5344  00                 [052] (40)
5345  04                 [053] (45)
5346  00                 [054] (45)
5347  00                 [055] (45)
5348  00                 [056] (46)
5349  05                 [057] (47)
534A  00                 [058] (48)
534B  00                 [059] (49)
534C  00                 [060] (50)
534D  07                 [061] (51)
534E  00                 [062] (51)
534F  00                 [063] (51)
5350  00                 [064] (51)
5351  08                 [065] (51)
5352  00                 [066] (51)
5353  00                 [067] (51)
5354  00                 [068] (51)
5355  09                 [069] (51)
5356  00                 [070] (51)
5357  00                 [071] (51)
5358  00                 [072] (51)
5359  0B                 [073] (51)
535A  00                 [074] (51)
535B  00                 [075] (51)
535C  00                 [076] (51)
535D  0C                 [077] (51)
535E  00                 [078] (52)
535F  00                 [079] (52)
5360  00                 [080] (52)
5361  0D                 [081] (52)
5362  00                 [082] (52)
5363  00                 [083] (52)
5364  00                 [084] (53)
5365  0E                 [085] (54)
5366  00                 [086] (54)
5367  00                 [087] (54)
5368  00                 [088] (54)
5369  0F                 [089] (55)
536A  00                 [090] (65)
536B  00                 [091] (73)
536C  00                 [092] (73)
536D  11                 [093] (73)
536E  00                 [094] (73)
536F  00                 [095] (67)
5370  00                 [096] (86)
5371  12                 [097] (86)
5372  00                 [098] (86)
5373  00                 [099] (86)
5374  00                 [100] (86)
5375  14                 [101] (93)
5376  00                 [102] (93)
5377  00                 [103] (93)
5378  00                 [104] (97)
5379  14                 [105] (97)
537A  00                 [106] (97)
537B  00                 [107] (101)
537C  00                 [108] (101)
537D  15                 [109] (101)
537E  00                 [110] (99)
537F  00                 [111] (108)
5380  00                 [112] (108)
5381  15                 [113] (108)
5382  00                 [114] (112)
5383  00                 [115] (112)
5384  00                 [116] (112)
5385  16                 [117] (110)
5386  00                 [118] (119)
5387  00                 [119] (119)
5388  00                 [120] (119)
5389  16                 [121] (119)
538A  00                 [122] (114)
538B  00                 [123] (-110)
538C  00                 [124] (-110)
538D  17                 [125] (-110)
538E  00                 [126] (-110)
538F  00                 [127] (-110)
5390  00                 [128] (-110)
5391  19                 [129] (-110)
5392  00                 [130] (-110)
5393  00                 [131] (-103)
5394  00                 [132] (-103)
5395  1A                 [133] (-103)
5396  00                 [134] (-103)
5397  00                 [135] (-42)
5398  00                 [136] (-42)
5399  1B                 [137] (-42)
539A  00                 [138] (-42)
539B  00                 [139] (-42)
539C  00                 [140] (-42)
539D  1C                 [141] (-42)
539E  00                 [142] (-42)
539F  00                 [143] (-42)
53A0  00                 [144] (-42)
53A1  1D                 [145] (-42)
53A2  00                 [146] (-42)
53A3  00                 [147] (-42)
53A4  00                 [148] (-42)
53A5  1F                 [149] (-42)
53A6  00                 [150] (-42)
53A7  00                 [151] (-42)
53A8  00                 [152] (-42)
53A9  20                 [153] (-42)
53AA  00                 [154] (-42)
53AB  00                 [155] (-42)
53AC  00                 [156] (-38)
53AD  21                 [157] (-38)
53AE  00                 [158] (-38)
53AF  00                 [159] (-40)
53B0  00                 [160] (-29)
53B1  23                 [161] (-29)
53B2  00                 [162] (-29)
53B3  00                 [163] (-29)
53B4  00                 [164] (-25)
53B5  23                 [165] (-25)
53B6  00                 [166] (-25)
53B7  00                 [167] (-27)
53B8  00                 [168] (-18)
53B9  23                 [169] (-18)
53BA  00                 [170] (-18)
53BB  00                 [171] (-14)
53BC  00                 [172] (-14)
53BD  23                 [173] (-14)
53BE  00                 [174] (-16)
53BF  00                 [175] (-10)
53C0  00                 [176] (-10)
53C1  23                 [177] (-10)
53C2  00                 [178] (-12)
53C3  00                 [179] (-2)
53C4  00                 [180] (-2)
53C5  23                 [181] (-2)
53C6  00                 [182] (-2)
53C7  00                 [183] (-2)
53C8  00                 [184] (-8)
53C9  23                 [185] (42)
53CA  00                 [186] (42)
53CB  00                 [187] (42)
53CC  00                 [188] (42)
53CD  23                 [189] (42)
53CE  00                 [190] (42)
53CF  00                 [191] (42)
53D0  00                 [192] (42)
53D1  24                 [193] (42)
53D2  00                 [194] (46)
53D3  00                 [195] (46)
53D4  00                 [196] (46)
53D5  25                 [197] (44)
53D6  00                 [198] (61)
53D7  00                 [199] (61)
53D8  00                 [200] (61)
53D9  26                 [201] (61)
53DA  00                 [202] (61)
53DB  00                 [203] (61)
53DC  00                 [204] (65)
53DD  28                 [205] (65)
53DE  00                 [206] (65)
53DF  00                 [207] (63)
53E0  00                 [208] (76)
53E1  2D                 [209] (76)
53E2  00                 [210] (76)
53E3  00                 [211] (76)
53E4  00                 [212] (76)
53E5  2D                 [213] (76)
53E6  00                 [214] (76)
53E7  00                 [215] (76)
53E8  00                 [216] (67)
53E9  2D                 [217] (88)
53EA  00                 [218] (88)
53EB  00                 [219] (88)
53EC  00                 [220] (88)
53ED  2E                 [221] (88)
53EE  00                 [222] (88)
53EF  00                 [223] (78)
53F0  00                 [224] (92)
53F1  2F                 [225] (92)
53F2  00                 [226] (92)
53F3  00                 [227] (90)
53F4  00                 [228] (96)
53F5  30                 [229] (96)
53F6  00                 [230] (96)
53F7  00                 [231] (94)
53F8  00                 [232] (100)
53F9  31                 [233] (100)
53FA  00                 [234] (100)
53FB  00                 [235] (98)
53FC  00                 [236] (104)
53FD  32                 [237] (104)
53FE  00                 [238] (104)
53FF  00                 [239] (102)
5400  00                 [240] (108)
5401  33                 [241] (108)
5402  00                 [242] (108)
5403  00                 [243] (106)
5404  00                 [244] (112)
5405  33                 [245] (112)
5406  00                 [246] (112)
5407  00                 [247] (110)
5408  00                 [248] (127)
5409  33                 [249] (127)
540A  00                 [250] (127)
540B  00                 [251] (127)
540C  00                 [252] (127)
540D  33                 [253] (127)
540E  00                 [254] (127)
540F  00                 [255] (127)
5410  00                 [256] (127)
5411  33                 [257] (114)
5412  00                 [258] (-123)
5413  00                 [259] (-123)
5414  00                 [260] (-123)
5415  33                 [261] (-123)
5416  00                 [262] (-127)
5417  00                 [263] (-71)
5418  00                 [264] (-71)
5419  33                 [265] (-71)
541A  00                 [266] (-71)
541B  00                 [267] (-71)
541C  00                 [268] (-71)
541D  33                 [269] (-71)
541E  00                 [270] (-71)
541F  00                 [271] (-71)
5420  00                 [272] (-71)
5421  33                 [273] (-71)
5422  00                 [274] (-71)
5423  00                 [275] (-71)
5424  00                 [276] (44)
5425  33                 [277] (44)
5426  00                 [278] (44)
5427  00                 [279] (44)
5428  00                 [280] (44)
5429  33                 [281] (44)
542A  00                 [282] (44)
542B  00                 [283] (44)
542C  00                 [284] (44)
542D  33                 [285] (44)
542E  00                 [286] (44)
542F  00                 [287] (44)
5430  00                 [288] (44)
5431  33                 [289] (44)
5432  00                 [290] (44)
5433  00                 [291] (44)
5434  00                 [292] (44)
5435  33                 [293] (44)
5436  00                 [294] (44)
5437  00                 [295] (44)
5438  00                 [296] (44)
5439  33                 [297] (44)
543A  00                 [298] (44)
543B  00                 [299] (44)
543C  00                 [300] (44)
543D  33                 [301] (44)
543E  00                 [302] (44)
543F  00                 [303] (44)
5440  00                 [304] (44)
5441  33                 [305] (44)
5442  00                 [306] (44)
5443  00                 [307] (44)
5444  00                 [308] (44)
5445  34                 [309] (-69)
5446  00                 [310] (70)
5447  00                 [311] (70)
5448  00                 [312] (70)
5449  34                 [313] (70)
544A  00                 [314] (46)
544B  00                 [315] (90)
544C  00                 [316] (90)
544D  34                 [317] (90)
544E  00                 [318] (90)
544F  00                 [319] (72)
5450  00                 [320] (-100)
5451  34                 [321] (-100)
5452  00                 [322] (-100)
5453  00                 [323] (-100)
5454  00                 [324] (-100)
5455  34                 [325] (-100)
5456  00                 [326] (-100)
5457  00                 [327] (-100)
5458  00                 [328] (-100)
5459  34                 [329] (-100)
545A  00                 [330] (92)
545B  00                 [331] (-28)
545C  00                 [332] (-28)
545D  35                 [333] (-28)
545E  00                 [334] (-28)
545F  00                 [335] (-28)
5460  00                 [336] (-28)
5461  36                 [337] (-28)
5462  00                 [338] (-28)
5463  00                 [339] (-28)
5464  00                 [340] (-28)
5465  36                 [341] (-28)
5466  00                 [342] (-98)
5467  00                 [343] (-20)
5468  00                 [344] (-20)
5469  36                 [345] (-20)
546A  00                 [346] (-26)
546B  00                 [347] (-10)
546C  00                 [348] (-10)
546D  36                 [349] (-10)
546E  00                 [350] (-10)
546F  00                 [351] (-10)
5470  00                 [352] (-10)
5471  37                 [353] (-18)
5472  00                 [354] (-6)
5473  00                 [355] (-6)
5474  00                 [356] (-6)
5475  41                 [357] (-8)
5476  00                 [358] (16)
5477  00                 [359] (16)
5478  00                 [360] (16)
5479  49                 [361] (16)
547A  00                 [362] (-4)
547B  00                 [363] (23)
547C  00                 [364] (23)
547D  49                 [365] (23)
547E  00                 [366] (23)
547F  00                 [367] (23)
5480  00                 [368] (23)
5481  49                 [369] (23)
5482  00                 [370] (18)
5483  00                 [371] (50)
5484  00                 [372] (50)
5485  49                 [373] (50)
5486  00                 [374] (50)
5487  00                 [375] (50)
5488  00                 [376] (50)
5489  43                 [377] (50)
548A  00                 [378] (50)
548B  00                 [379] (50)
548C  00                 [380] (50)
548D  56                 [381] (50)
548E  00                 [382] (50)
548F  00                 [383] (50)
5490  00                 [384] (50)
5491  56                 [385] (50)
5492  00                 [386] (50)
5493  00                 [387] (50)
5494  00                 [388] (50)
5495  56                 [389] (25)
5496  00                 [390] (50)
                         * locals:
5929  00                 sizelocvars (0)
                         * upvalues:
592A  00                 sizeupvalues (0)
                         ** end of function **

592B                     ** end of chunk **
