1	C:\wlua_dump\path\Lotus\Interface\LibsFlavorTextGenerator.lua
Pos   Hex Data           Description or Code
------------------------------------------------------------------------
0000                     ** source chunk: C:\wlua_dump\path\Lotus\Interface\LibsFlavorTextGenerator.lua
                         ** global header start **
0000  7F                 header signature: ""
0001  00                 version (major:minor hex digits)
0002  00                 format (0=official)
0003  00                 endianness (1=little endian)
0004  00                 size of int (bytes)
0005  00                 size of size_t (bytes)
0006  02                 size of Instruction (bytes)
0007  04                 size of number (bytes)
0008  11                 integral (1=integral)
417
                         * number type: single
                         * x86 standard (32-bit, little endian, doubles)
                         ** global header end **
package
seeall
EE.Interface.Utilities
_M
_F
ProcessFlavorText

mNumToUse
minValue
maxValue
mMaxLocTagSuffix
Vendor flavour loc text data not set up correctly! NumToUse max value must be less than equal to MaxLocTagSuffix!
mLocTagPrefix
NUMBER
mHasGenderVariants
mTrailingLocLowercase
string
mElementSeparatorLocTag
mMutuallyExclusiveLoc
mExclusiveIndices
mReplacementLocTagKey
                         
0001                     ** function [0] definition (level 1)
                         ** start of function **
0001  00                 string size (0)
                         source name: (none)
0002  00                 line defined (0)
0003  00                 last line defined (0)
0004  00                 nups (0)
0005  00                 numparams (0)
0006  02                 is_vararg (2)
0007  04                 maxstacksize (4)
                         * code:
0008  11                 sizecode (17)
0009  1D000000           [01] getglobal  0   0        ; 954442511
000D  41000001           [02] vararg     1   2      
0011  9D400000           [03] getglobal  2   1        ; package
0015  8E804001           [04] gettable   2   2   258  ; "seeall"
0019  22408001           [05] call       0   3   1  
001D  1DC00000           [06] getglobal  0   3        ; 849075268
0021  59000100           [07] loadk      1   4        ; "EE.Interface.Utilities"
0025  22800001           [08] call       0   2   2  
0029  59400100           [09] loadk      1   5        ; "_M"
002D  99800100           [10] loadk      2   6        ; "_F"
0031  E5000000           [11] closure    3   0      
0035  12000000           [12] move       0   0      
0039  12008000           [13] move       0   1      
003D  12000001           [14] move       0   2      
0041  E0C00100           [15] setglobal  3   7        ; ProcessFlavorText
0045  E0000200           [16] setglobal  3   8        ; 1360886860
0049  1E008000           [17] return     0   1      
                         * constants:
004D  09                 sizek (9)
004E  01                 const type 3
004F  0FA3E338           const [0]: (954442511)
0053  04                 const type 4
0054  08                 string size (8)
0055  7061636B61676500   "package\0"
                         const [1]: "package"
005D  04                 const type 4
005E  07                 string size (7)
005F  736565616C6C00     "seeall\0"
                         const [2]: "seeall"
0066  01                 const type 3
0067  44DC9B32           const [3]: (849075268)
006B  04                 const type 4
006C  17                 string size (23)
006D  45452E496E746572+  "EE.Inter"
0075  666163652E557469+  "face.Uti"
007D  6C697469657300     "lities\0"
                         const [4]: "EE.Interface.Utilities"
0084  04                 const type 4
0085  03                 string size (3)
0086  5F4D00             "_M\0"
                         const [5]: "_M"
0089  04                 const type 4
008A  03                 string size (3)
008B  5F4600             "_F\0"
                         const [6]: "_F"
008E  04                 const type 4
008F  12                 string size (18)
0090  50726F6365737346+  "ProcessF"
0098  6C61766F72546578+  "lavorTex"
00A0  7400               "t\0"
                         const [7]: "ProcessFlavorText"
00A2  01                 const type 3
00A3  4C7C1D51           const [8]: (1360886860)
                         * functions:
00A7  01                 sizep (1)
                         
00A8                     ** function [0] definition (level 2)
                         ** start of function **
00A8  00                 string size (0)
                         source name: (none)
00A9  07                 line defined (7)
00AA  76                 last line defined (118)
00AB  03                 nups (3)
00AC  05                 numparams (5)
00AD  00                 is_vararg (0)
00AE  2A                 maxstacksize (42)
                         * code:
00B0  01                 sizecode (246)
00B1  4A010001           [001] len        5   2      
fail op	35
00B5  2300C002           [002] close      0  
00B9  1A000080           [003] jmp        1            ; to [5]
00BD  5E000001           [004] return     1   2      
00C1  59410000           [005] loadk      5   1        ; ""
00C5  9D810000           [006] getglobal  6   2        ; 1074689893
00C9  D2010002           [007] move       7   4      
00CD  A2810001           [008] call       6   2   2  
00D1  98010000           [009] test       6       0    ; to [11] if true
00D5  1A800380           [010] jmp        15           ; to [26]
00D9  93010000           [011] getupval   6   0      
00DD  8EC14003           [012] gettable   6   6   259  ; -132701534
00E1  DD010100           [013] getglobal  7   4        ; 687937235
00E5  19020000           [014] loadk      8   0        ; 0
00E9  59420100           [015] loadk      9   5        ; 0
00ED  E2818001           [016] call       7   3   2  
fail op	35
00F1  6300C003           [017] close      1  
00F5  1A000080           [018] jmp        1            ; to [20]
00F9  D7410000           [019] loadbool   7   0   1    ; false, to [21]
00FD  D7018000           [020] loadbool   7   1   0    ; true
0101  13028000           [021] getupval   8   1      
0105  53020001           [022] getupval   9   2      
0109  A2810002           [023] call       6   4   2  
010D  52010003           [024] move       5   6      
0111  1A800180           [025] jmp        7            ; to [33]
0115  93010000           [026] getupval   6   0      
0119  8EC14003           [027] gettable   6   6   259  ; -132701534
011D  D2010002           [028] move       7   4      
0121  13020001           [029] getupval   8   2      
0125  53028000           [030] getupval   9   1      
0129  A2810002           [031] call       6   4   2  
012D  52010003           [032] move       5   6      
0131  8B010000           [033] newtable   6   0   0    ; array=0, hash=0
0135  D9410100           [034] loadk      7   5        ; 0
0139  0A020001           [035] len        8   2      
013D  59420100           [036] loadk      9   5        ; 0
0141  D0C12E80           [037] forprep    7   188      ; to [226]
0145  CE820201           [038] gettable   11  2   10 
0149  19430000           [039] loadk      12  1        ; ""
014D  5D030100           [040] getglobal  13  4        ; 687937235
0151  8E83C105           [041] gettable   14  11  262  ; "mNumToUse"
0155  8EC34107           [042] gettable   14  14  263  ; "minValue"
0159  CE83C105           [043] gettable   15  11  262  ; "mNumToUse"
015D  CE03C207           [044] gettable   15  15  264  ; "maxValue"
0161  62838001           [045] call       13  3   2  
0165  8B030000           [046] newtable   14  0   0    ; array=0, hash=0
0169  CE83C105           [047] gettable   15  11  262  ; "mNumToUse"
016D  CE03C207           [048] gettable   15  15  264  ; "maxValue"
0171  0E44C205           [049] gettable   16  11  265  ; "mMaxLocTagSuffix"
fail op	21
0175  15C00308           [050] concat     0   16  15 
0179  1A400180           [051] jmp        6            ; to [58]
017D  DD830200           [052] getglobal  15  10       ; -1817107093
0181  19C40200           [053] loadk      16  11       ; "Vendor flavour loc text data not set up correctly! NumToUse max value must be less than equal to MaxLocTagSuffix!"
0185  E2430001           [054] call       15  2   1  
0189  DD030300           [055] getglobal  15  12       ; 317968122
018D  17040000           [056] loadbool   16  0   0    ; false
0191  E2430001           [057] call       15  2   1  
0195  D9430100           [058] loadk      15  5        ; 0
fail op	33
0199  21408307           [059] tforloop   0       13   ; to [61] if exit
019D  1A002880           [060] jmp        161          ; to [222]
01A1  1D040100           [061] getglobal  16  4        ; 687937235
01A5  59440100           [062] loadk      17  5        ; 0
01A9  8E44C205           [063] gettable   18  11  265  ; "mMaxLocTagSuffix"
01AD  22848001           [064] call       16  3   2  
01B1  5D440300           [065] getglobal  17  13       ; -1615931716
01B5  92040008           [066] move       18  16     
01B9  62840001           [067] call       17  2   2  
01BD  8E440407           [068] gettable   18  14  17 
01C1  98040000           [069] test       18      0    ; to [71] if true
01C5  1A000080           [070] jmp        1            ; to [72]
01C9  1A80FC7F           [071] jmp        -13          ; to [59]
01CD  8C83C308           [072] settable   14  17  270  ; 1
01D1  8EC4C305           [073] gettable   18  11  271  ; "mLocTagPrefix"
01D5  A4044409           [074] self       18  18  272  ; 1590141906
01D9  A2840001           [075] call       18  2   2  
fail op	35
01DD  23404409           [076] close      0  
01E1  1AC00080           [077] jmp        4            ; to [82]
01E5  D2040006           [078] move       19  12     
01E9  12058008           [079] move       20  17     
01ED  02038509           [080] concat     12  19  20 
01F1  1AC01380           [081] jmp        80           ; to [162]
01F5  D9440000           [082] loadk      19  1        ; ""
01F9  0E85C405           [083] gettable   20  11  274  ; "mHasGenderVariants"
01FD  18050000           [084] test       20      0    ; to [86] if true
0201  1A800A80           [085] jmp        43           ; to [129]
0205  12050009           [086] move       20  18     
0209  52058008           [087] move       21  17     
020D  92058002           [088] move       22  5      
0211  0285050A           [089] concat     20  20  22 
0215  5D850000           [090] getglobal  21  2        ; 1074689893
0219  92050000           [091] move       22  0      
021D  62850001           [092] call       21  2   2  
0221  58450000           [093] test       21      1    ; to [95] if false
0225  1A400180           [094] jmp        6            ; to [101]
0229  64C54400           [095] self       21  0   275  ; 98241492
022D  D205000A           [096] move       23  20     
0231  17068000           [097] loadbool   24  1   0    ; true
0235  62850002           [098] call       21  4   2  
0239  D204800A           [099] move       19  21     
023D  1A000180           [100] jmp        5            ; to [106]
0241  5D050500           [101] getglobal  21  20       ; -421772368
0245  9205000A           [102] move       22  20     
0249  CB050000           [103] newtable   23  0   0    ; array=0, hash=0
024D  62858001           [104] call       21  3   2  
0251  D204800A           [105] move       19  21     
fail op	35
0255  23008509           [106] close      0  
0259  1A000A80           [107] jmp        41           ; to [149]
025D  5D850000           [108] getglobal  21  2        ; 1074689893
0261  92050000           [109] move       22  0      
0265  62850001           [110] call       21  2   2  
0269  58450000           [111] test       21      1    ; to [113] if false
026D  1AC00180           [112] jmp        8            ; to [121]
0271  64C54400           [113] self       21  0   275  ; 98241492
0275  D2050009           [114] move       23  18     
0279  12068008           [115] move       24  17     
027D  C205860B           [116] concat     23  23  24 
0281  17068000           [117] loadbool   24  1   0    ; true
0285  62850002           [118] call       21  4   2  
0289  D204800A           [119] move       19  21     
028D  1AC00680           [120] jmp        28           ; to [149]
0291  5D050500           [121] getglobal  21  20       ; -421772368
0295  92050009           [122] move       22  18     
0299  D2058008           [123] move       23  17     
029D  82C5050B           [124] concat     22  22  23 
02A1  CB050000           [125] newtable   23  0   0    ; array=0, hash=0
02A5  62858001           [126] call       21  3   2  
02A9  D204800A           [127] move       19  21     
02AD  1AC00480           [128] jmp        20           ; to [149]
02B1  5D850000           [129] getglobal  21  2        ; 1074689893
02B5  92050000           [130] move       22  0      
02B9  62850001           [131] call       21  2   2  
02BD  58450000           [132] test       21      1    ; to [134] if false
02C1  1AC00180           [133] jmp        8            ; to [142]
02C5  64C54400           [134] self       21  0   275  ; 98241492
02C9  D2050009           [135] move       23  18     
02CD  12068008           [136] move       24  17     
02D1  C205860B           [137] concat     23  23  24 
02D5  17068000           [138] loadbool   24  1   0    ; true
02D9  62850002           [139] call       21  4   2  
02DD  D204800A           [140] move       19  21     
02E1  1A800180           [141] jmp        7            ; to [149]
02E5  5D050500           [142] getglobal  21  20       ; -421772368
02E9  92050009           [143] move       22  18     
02ED  D2058008           [144] move       23  17     
02F1  82C5050B           [145] concat     22  22  23 
02F5  CB050000           [146] newtable   23  0   0    ; array=0, hash=0
02F9  62858001           [147] call       21  3   2  
02FD  D204800A           [148] move       19  21     
fail op	21
0301  15C08382           [149] concat     0   261 15 
0305  1AC00180           [150] jmp        8            ; to [159]
0309  4E45C505           [151] gettable   21  11  277  ; "mTrailingLocLowercase"
030D  58050000           [152] test       21      0    ; to [154] if true
0311  1A000180           [153] jmp        5            ; to [159]
0315  5D850500           [154] getglobal  21  22       ; string
0319  4EC5C50A           [155] gettable   21  21  279  ; -1110387163
031D  92058009           [156] move       22  19     
0321  62850001           [157] call       21  2   2  
0325  D204800A           [158] move       19  21     
0329  52050006           [159] move       21  12     
032D  92058009           [160] move       22  19     
0331  0283850A           [161] concat     12  21  22 
fail op	35
0335  63408307           [162] close      1  
0339  1AC00580           [163] jmp        24           ; to [188]
033D  59450000           [164] loadk      21  1        ; ""
0341  9D850000           [165] getglobal  22  2        ; 1074689893
0345  D2050000           [166] move       23  0      
0349  A2850001           [167] call       22  2   2  
034D  98450000           [168] test       22      1    ; to [170] if false
0351  1AC00180           [169] jmp        8            ; to [178]
0355  A4C54400           [170] self       22  0   275  ; 98241492
0359  0E06C605           [171] gettable   24  11  280  ; "mElementSeparatorLocTag"
035D  2406440C           [172] self       24  24  272  ; 1590141906
0361  22860001           [173] call       24  2   2  
0365  57068000           [174] loadbool   25  1   0    ; true
0369  A2850002           [175] call       22  4   2  
036D  5205000B           [176] move       21  22     
0371  1A800180           [177] jmp        7            ; to [185]
0375  9D050500           [178] getglobal  22  20       ; -421772368
0379  CE05C605           [179] gettable   23  11  280  ; "mElementSeparatorLocTag"
037D  E405C40B           [180] self       23  23  272  ; 1590141906
0381  E2850001           [181] call       23  2   2  
0385  0B060000           [182] newtable   24  0   0    ; array=0, hash=0
0389  A2858001           [183] call       22  3   2  
038D  5205000B           [184] move       21  22     
0391  92050006           [185] move       22  12     
0395  D205800A           [186] move       23  21     
0399  02C3050B           [187] concat     12  22  23 
039D  8E45C605           [188] gettable   22  11  281  ; "mMutuallyExclusiveLoc"
03A1  8A05000B           [189] len        22  22     
03A5  D9450100           [190] loadk      23  5        ; 0
03A9  1206000B           [191] move       24  22     
03AD  59460100           [192] loadk      25  5        ; 0
03B1  D0050680           [193] forprep    23  25       ; to [219]
03B5  CE46C605           [194] gettable   27  11  281  ; "mMutuallyExclusiveLoc"
03B9  CE86860D           [195] gettable   27  27  26 
03BD  CE86C60D           [196] gettable   27  27  282  ; "mExclusiveIndices"
03C1  17070000           [197] loadbool   28  0   0    ; false
03C5  59470100           [198] loadk      29  5        ; 0
03C9  8A07800D           [199] len        30  27     
03CD  D9470100           [200] loadk      31  5        ; 0
03D1  50070180           [201] forprep    29  5        ; to [207]
03D5  4E08880D           [202] gettable   33  27  32 
fail op	35
03D9  23008410           [203] close      0  
03DD  1A400080           [204] jmp        2            ; to [207]
03E1  17078000           [205] loadbool   28  1   0    ; true
03E5  1A000080           [206] jmp        1            ; to [208]
03E9  5447FE7F           [207] forloop    29  -6       ; to [202] if loop
03ED  18070000           [208] test       28      0    ; to [210] if true
03F1  1A000280           [209] jmp        9            ; to [219]
03F5  59480100           [210] loadk      33  5        ; 0
03F9  8A08800D           [211] len        34  27     
03FD  D9480100           [212] loadk      35  5        ; 0
0401  50C80080           [213] forprep    33  4        ; to [218]
0405  5D490300           [214] getglobal  37  13       ; -1615931716
0409  8E09890D           [215] gettable   38  27  36 
040D  62890001           [216] call       37  2   2  
0411  8C83C312           [217] settable   14  37  270  ; 1
0415  5488FE7F           [218] forloop    33  -5       ; to [214] if loop
0419  D445F97F           [219] forloop    23  -26      ; to [194] if loop
041D  C343C107           [220] add        15  15  261  ; 0
0421  1A00D77F           [221] jmp        -163         ; to [59]
0425  4EC9C605           [222] gettable   37  11  283  ; "mReplacementLocTagKey"
0429  6409C412           [223] self       37  37  272  ; 1590141906
042D  62890001           [224] call       37  2   2  
0431  8C018312           [225] settable   6   37  12 
0435  D481D07F           [226] forloop    7   -189     ; to [38] if loop
0439  5D890000           [227] getglobal  37  2        ; 1074689893
043D  92090000           [228] move       38  0      
0441  62890001           [229] call       37  2   2  
0445  58490000           [230] test       37      1    ; to [232] if false
0449  1AC00180           [231] jmp        8            ; to [240]
044D  64C94400           [232] self       37  0   275  ; 98241492
0451  E409C401           [233] self       39  3   272  ; 1590141906
0455  E2890001           [234] call       39  2   2  
0459  170A8000           [235] loadbool   40  1   0    ; true
045D  520A0003           [236] move       41  6      
0461  62898002           [237] call       37  5   2  
0465  5E090001           [238] return     37  2      
0469  1A400180           [239] jmp        6            ; to [246]
046D  5D090500           [240] getglobal  37  20       ; -421772368
0471  A409C401           [241] self       38  3   272  ; 1590141906
0475  A2890001           [242] call       38  2   2  
0479  D2090003           [243] move       39  6      
047D  62898001           [244] call       37  3   2  
0481  5E090001           [245] return     37  2      
0485  1E008000           [246] return     0   1      
                         * constants:
0489  1C                 sizek (28)
048A  03                 const type 3
048B  00000000           const [0]: (0)
048F  04                 const type 4
0490  01                 string size (0)
                         const [1]: ""
0492  01                 const type 3
0493  65770E40           const [2]: (1074689893)
0497  01                 const type 3
0498  A22217F8           const [3]: (-132701534)
049C  01                 const type 3
049D  D3160129           const [4]: (687937235)
04A1  03                 const type 3
04A2  0000803F           const [5]: (0)
04A6  04                 const type 4
04A7  0A                 string size (10)
04A8  6D4E756D546F5573+  "mNumToUs"
04B0  6500               "e\0"
                         const [6]: "mNumToUse"
04B2  04                 const type 4
04B3  09                 string size (9)
04B4  6D696E56616C7565+  "minValue"
04BC  00                 "\0"
                         const [7]: "minValue"
04BD  04                 const type 4
04BE  09                 string size (9)
04BF  6D617856616C7565+  "maxValue"
04C7  00                 "\0"
                         const [8]: "maxValue"
04C8  04                 const type 4
04C9  11                 string size (17)
04CA  6D4D61784C6F6354+  "mMaxLocT"
04D2  6167537566666978+  "agSuffix"
04DA  00                 "\0"
                         const [9]: "mMaxLocTagSuffix"
04DB  01                 const type 3
04DC  6B25B193           const [10]: (-1817107093)
04E0  04                 const type 4
04E1  72                 string size (114)
04E2  56656E646F722066+  "Vendor f"
04EA  6C61766F7572206C+  "lavour l"
04F2  6F63207465787420+  "oc text "
04FA  64617461206E6F74+  "data not"
0502  2073657420757020+  " set up "
050A  636F72726563746C+  "correctl"
0512  7921204E756D546F+  "y! NumTo"
051A  557365206D617820+  "Use max "
0522  76616C7565206D75+  "value mu"
052A  7374206265206C65+  "st be le"
0532  7373207468616E20+  "ss than "
053A  657175616C20746F+  "equal to"
0542  204D61784C6F6354+  " MaxLocT"
054A  6167537566666978+  "agSuffix"
0552  2100               "!\0"
                         const [11]: "Vendor flavour loc text data not set up correctly! NumToUse max value must be less than equal to MaxLocTagSuffix!"
0554  01                 const type 3
0555  FACEF312           const [12]: (317968122)
0559  01                 const type 3
055A  BCD6AE9F           const [13]: (-1615931716)
055E  01                 const type 3
055F  01000000           const [14]: (1)
0563  04                 const type 4
0564  0E                 string size (14)
0565  6D4C6F6354616750+  "mLocTagP"
056D  726566697800       "refix\0"
                         const [15]: "mLocTagPrefix"
0573  01                 const type 3
0574  D2A3C75E           const [16]: (1590141906)
0578  04                 const type 4
0579  07                 string size (7)
057A  4E554D42455200     "NUMBER\0"
                         const [17]: "NUMBER"
0581  04                 const type 4
0582  13                 string size (19)
0583  6D48617347656E64+  "mHasGend"
058B  657256617269616E+  "erVarian"
0593  747300             "ts\0"
                         const [18]: "mHasGenderVariants"
0596  01                 const type 3
0597  D40BDB05           const [19]: (98241492)
059B  01                 const type 3
059C  B043DCE6           const [20]: (-421772368)
05A0  04                 const type 4
05A1  16                 string size (22)
05A2  6D547261696C696E+  "mTrailin"
05AA  674C6F634C6F7765+  "gLocLowe"
05B2  726361736500       "rcase\0"
                         const [21]: "mTrailingLocLowercase"
05B8  04                 const type 4
05B9  07                 string size (7)
05BA  737472696E6700     "string\0"
                         const [22]: "string"
05C1  01                 const type 3
05C2  25D6D0BD           const [23]: (-1110387163)
05C6  04                 const type 4
05C7  18                 string size (24)
05C8  6D456C656D656E74+  "mElement"
05D0  536570617261746F+  "Separato"
05D8  724C6F6354616700   "rLocTag\0"
                         const [24]: "mElementSeparatorLocTag"
05E0  04                 const type 4
05E1  16                 string size (22)
05E2  6D4D757475616C6C+  "mMutuall"
05EA  794578636C757369+  "yExclusi"
05F2  76654C6F6300       "veLoc\0"
                         const [25]: "mMutuallyExclusiveLoc"
05F8  04                 const type 4
05F9  12                 string size (18)
05FA  6D4578636C757369+  "mExclusi"
0602  7665496E64696365+  "veIndice"
060A  7300               "s\0"
                         const [26]: "mExclusiveIndices"
060C  04                 const type 4
060D  16                 string size (22)
060E  6D5265706C616365+  "mReplace"
0616  6D656E744C6F6354+  "mentLocT"
061E  61674B657900       "agKey\0"
                         const [27]: "mReplacementLocTagKey"
                         * functions:
0624  00                 sizep (0)
                         * lines:
0626  01                 sizelineinfo (246)
                         [pc] (line)
0627  08                 [001] (8)
0628  00                 [002] (8)
0629  00                 [003] (8)
062A  00                 [004] (9)
062B  08                 [005] (12)
062C  00                 [006] (13)
062D  00                 [007] (13)
062E  00                 [008] (13)
062F  08                 [009] (13)
0630  00                 [010] (13)
0631  00                 [011] (14)
0632  00                 [012] (14)
0633  09                 [013] (14)
0634  00                 [014] (14)
0635  00                 [015] (14)
0636  00                 [016] (14)
0637  0C                 [017] (14)
0638  00                 [018] (14)
0639  00                 [019] (14)
063A  00                 [020] (14)
063B  0D                 [021] (14)
063C  00                 [022] (14)
063D  00                 [023] (14)
063E  00                 [024] (14)
063F  0D                 [025] (14)
0640  00                 [026] (16)
0641  00                 [027] (16)
0642  00                 [028] (16)
0643  0D                 [029] (16)
0644  00                 [030] (16)
0645  00                 [031] (16)
0646  00                 [032] (16)
0647  0D                 [033] (19)
0648  00                 [034] (20)
0649  00                 [035] (20)
064A  00                 [036] (20)
064B  0D                 [037] (20)
064C  00                 [038] (21)
064D  00                 [039] (23)
064E  00                 [040] (24)
064F  0E                 [041] (24)
0650  00                 [042] (24)
0651  00                 [043] (24)
0652  00                 [044] (24)
0653  0E                 [045] (24)
0654  00                 [046] (25)
0655  00                 [047] (27)
0656  00                 [048] (27)
0657  0E                 [049] (27)
0658  00                 [050] (27)
0659  00                 [051] (27)
065A  00                 [052] (28)
065B  0E                 [053] (28)
065C  00                 [054] (28)
065D  00                 [055] (29)
065E  00                 [056] (29)
065F  0E                 [057] (29)
0660  00                 [058] (32)
0661  00                 [059] (33)
0662  00                 [060] (33)
0663  0E                 [061] (34)
0664  00                 [062] (34)
0665  00                 [063] (34)
0666  00                 [064] (34)
0667  0E                 [065] (35)
0668  00                 [066] (35)
0669  00                 [067] (35)
066A  00                 [068] (37)
066B  0E                 [069] (37)
066C  00                 [070] (37)
066D  00                 [071] (37)
066E  00                 [072] (40)
066F  0E                 [073] (42)
0670  00                 [074] (42)
0671  00                 [075] (42)
0672  00                 [076] (43)
0673  0E                 [077] (43)
0674  00                 [078] (44)
0675  00                 [079] (44)
0676  00                 [080] (44)
0677  0E                 [081] (44)
0678  00                 [082] (46)
0679  00                 [083] (47)
067A  00                 [084] (47)
067B  0E                 [085] (47)
067C  00                 [086] (48)
067D  00                 [087] (48)
067E  00                 [088] (48)
067F  0E                 [089] (48)
0680  00                 [090] (49)
0681  00                 [091] (49)
0682  00                 [092] (49)
0683  0E                 [093] (49)
0684  00                 [094] (49)
0685  00                 [095] (50)
0686  00                 [096] (50)
0687  0E                 [097] (50)
0688  00                 [098] (50)
0689  00                 [099] (50)
068A  00                 [100] (50)
068B  10                 [101] (52)
068C  00                 [102] (52)
068D  00                 [103] (52)
068E  00                 [104] (52)
068F  10                 [105] (52)
0690  00                 [106] (54)
0691  00                 [107] (54)
0692  00                 [108] (56)
0693  10                 [109] (56)
0694  00                 [110] (56)
0695  00                 [111] (56)
0696  00                 [112] (56)
0697  10                 [113] (57)
0698  00                 [114] (57)
0699  00                 [115] (57)
069A  00                 [116] (57)
069B  10                 [117] (57)
069C  00                 [118] (57)
069D  00                 [119] (57)
069E  00                 [120] (57)
069F  10                 [121] (59)
06A0  00                 [122] (59)
06A1  00                 [123] (59)
06A2  00                 [124] (59)
06A3  10                 [125] (59)
06A4  00                 [126] (59)
06A5  00                 [127] (59)
06A6  00                 [128] (61)
06A7  13                 [129] (63)
06A8  00                 [130] (63)
06A9  00                 [131] (63)
06AA  00                 [132] (63)
06AB  14                 [133] (63)
06AC  00                 [134] (64)
06AD  00                 [135] (64)
06AE  00                 [136] (64)
06AF  14                 [137] (64)
06B0  00                 [138] (64)
06B1  00                 [139] (64)
06B2  00                 [140] (64)
06B3  14                 [141] (64)
06B4  00                 [142] (66)
06B5  00                 [143] (66)
06B6  00                 [144] (66)
06B7  14                 [145] (66)
06B8  00                 [146] (66)
06B9  00                 [147] (66)
06BA  00                 [148] (66)
06BB  15                 [149] (70)
06BC  00                 [150] (70)
06BD  00                 [151] (70)
06BE  00                 [152] (70)
06BF  17                 [153] (70)
06C0  00                 [154] (71)
06C1  00                 [155] (71)
06C2  00                 [156] (71)
06C3  18                 [157] (71)
06C4  00                 [158] (71)
06C5  00                 [159] (74)
06C6  00                 [160] (74)
06C7  18                 [161] (74)
06C8  00                 [162] (77)
06C9  00                 [163] (77)
06CA  00                 [164] (78)
06CB  18                 [165] (79)
06CC  00                 [166] (79)
06CD  00                 [167] (79)
06CE  00                 [168] (79)
06CF  18                 [169] (79)
06D0  00                 [170] (80)
06D1  00                 [171] (80)
06D2  00                 [172] (80)
06D3  18                 [173] (80)
06D4  00                 [174] (80)
06D5  00                 [175] (80)
06D6  00                 [176] (80)
06D7  18                 [177] (80)
06D8  00                 [178] (82)
06D9  00                 [179] (82)
06DA  00                 [180] (82)
06DB  19                 [181] (82)
06DC  00                 [182] (82)
06DD  00                 [183] (82)
06DE  00                 [184] (82)
06DF  1B                 [185] (84)
06E0  00                 [186] (84)
06E1  00                 [187] (84)
06E2  00                 [188] (87)
06E3  1B                 [189] (87)
06E4  00                 [190] (88)
06E5  00                 [191] (88)
06E6  00                 [192] (88)
06E7  1B                 [193] (88)
06E8  00                 [194] (89)
06E9  00                 [195] (89)
06EA  00                 [196] (89)
06EB  1B                 [197] (90)
06EC  00                 [198] (91)
06ED  00                 [199] (91)
06EE  00                 [200] (91)
06EF  1B                 [201] (91)
06F0  00                 [202] (92)
06F1  00                 [203] (92)
06F2  00                 [204] (92)
06F3  1C                 [205] (93)
06F4  00                 [206] (94)
06F5  00                 [207] (91)
06F6  00                 [208] (98)
06F7  1C                 [209] (98)
06F8  00                 [210] (100)
06F9  00                 [211] (100)
06FA  00                 [212] (100)
06FB  1C                 [213] (100)
06FC  00                 [214] (101)
06FD  00                 [215] (101)
06FE  00                 [216] (101)
06FF  1D                 [217] (101)
0700  00                 [218] (100)
0701  00                 [219] (88)
0702  00                 [220] (106)
0703  1D                 [221] (107)
0704  00                 [222] (110)
0705  00                 [223] (110)
0706  00                 [224] (110)
0707  1D                 [225] (110)
0708  00                 [226] (20)
0709  00                 [227] (113)
070A  00                 [228] (113)
070B  20                 [229] (113)
070C  00                 [230] (113)
070D  00                 [231] (113)
070E  00                 [232] (114)
070F  21                 [233] (114)
0710  00                 [234] (114)
0711  00                 [235] (114)
0712  00                 [236] (114)
0713  21                 [237] (114)
0714  00                 [238] (114)
0715  00                 [239] (114)
0716  00                 [240] (116)
0717  22                 [241] (116)
0718  00                 [242] (116)
0719  00                 [243] (116)
071A  00                 [244] (116)
071B  22                 [245] (116)
071C  00                 [246] (118)
                         * locals:
09FF  00                 sizelocvars (0)
                         * upvalues:
0A00  00                 sizeupvalues (0)
                         ** end of function **

                         * lines:
0A01  11                 sizelineinfo (17)
                         [pc] (line)
0A02  01                 [01] (1)
0A03  00                 [02] (1)
0A04  00                 [03] (1)
0A05  00                 [04] (1)
0A06  01                 [05] (1)
0A07  00                 [06] (2)
0A08  00                 [07] (2)
0A09  00                 [08] (2)
0A0A  01                 [09] (4)
0A0B  00                 [10] (5)
0A0C  00                 [11] (118)
0A0D  00                 [12] (118)
0A0E  01                 [13] (118)
0A0F  00                 [14] (118)
0A10  00                 [15] (118)
0A11  00                 [16] (7)
0A12  01                 [17] (118)
                         * locals:
0A46  00                 sizelocvars (0)
                         * upvalues:
0A47  00                 sizeupvalues (0)
                         ** end of function **

0A48                     ** end of chunk **
