1	C:\wlua_dump\path\Lotus\Interface\TestNemesisTest.lua
Pos   Hex Data           Description or Code
------------------------------------------------------------------------
0000                     ** source chunk: C:\wlua_dump\path\Lotus\Interface\TestNemesisTest.lua
                         ** global header start **
0000  7F                 header signature: ""
0001  00                 version (major:minor hex digits)
0002  00                 format (0=official)
0003  00                 endianness (1=little endian)
0004  00                 size of int (bytes)
0005  00                 size of size_t (bytes)
0006  02                 size of Instruction (bytes)
0007  4F                 size of number (bytes)
0008  8A                 integral (1=integral)
4138
                         * number type: single
                         * x86 standard (32-bit, little endian, doubles)
                         ** global header end **
Lotus.Interface.CardUtilitiesRedux
Lotus.Interface.UIStyleUtilities
Lotus.Interface.LotusUtilities
EE.Interface.Utilities
Lotus.Interface.UIUtilities
Lotus.Scripts.Nemesis.NemesisGenerator
EE.Interface.AnchorMgr
Lotus.Interface.LoadoutUtilities
Lotus.Interface.Components.AbilityList
Center
Size
FadeSize
InvertX
InvertY
Timer
Positions
IconFocused
Loader
IsLoading
Shutdown
GenerateFromManifest
DisplayCurrentNemesis
Speak
OnPasscodeCheck
SpawnAllyInLevel
OnVanquishOrConvertNemesis
OnGetNemesisCode
OnStartNemesis
SpawnAgentOnly
SpawnInLevel
SpawnInLevelBypassCode
ActiveInAccount
AddToVanquished
AddToConverted
RankUp
ShowNemesisCommands
UpgradeKnife
Initialize
ShowCreation
onRawInputEvent
onViewportSizeChanged
Update
AbilityPressed
AbilityFocused
AbilityUnfocused
HintIconFocused
HintIconUnfocused
onKeyDown_MENU_MOUSE_Z
SupportsThemes
ClearHistory
OnPasscodeHint
GiveHint
_T
InfoPopup_Data
gToolTip
HideBackground
gGameRules
DisableUIInput
SetSquadOverlayTitle
SetButtons
mMovie
gNemesis
IsLoading
Loader
UISys
MenuTaunt
mTransmissionSet
PLAY_MENU_TAUNT
mForcedVerticalSeparation
mMovie
StatBlurer
_height
StatBg
PopUp.BottomAnimation
UISys
FlashInstance_EASE_IN_OUT_BACK
_y
FlashInstance_SMOOTH_STEP
_alpha
StatList
AbilityList
RageBarContainer
mMovie
PopUp.BottomAnimation.gotoAndPlay
IconFocused
Timer
table
Positions
mMovie
Hint.Hint
UISys
FlashInstance_EASE_IN_OUT_BACK
_x
_y
mHints
mHintProgress
emptyIcons
Background1Color
Hint.Hint
immortalMods
mMovie
.Progress.gotoAndStop
.Icon
Progress
_visible
DetailMap
DetailMapTint
red
green
blue
_alpha
mPowerSuit
Seed
string
%18.0f
 (OVERRIDE)
Agent
mAgent
PowerData
Health
mScaledHealth
Shield
mScaledShield
Armor
mScaledArmor
Speed
mScaledMovementSpeed
mExtraAbility
table
mCustomization
Lotus_Game
PrimaryColors
mAbilityColor1
mEnergyColor
mAbilityColor2
mEnergyColor1
mSkipAbilityColorGet
mMovie
/Game/WEAKNESSES
mWeaknesses
/Game/RESISTANCES
mResistances
/Game/IMMUNITIES
mImmunities
mWeapon
/Lotus/Language/Menu/Global_ProductCategory_Weapon
mWeaponUpgrade
mWeaponFingerprint
<
>
%
/Lotus/Language/Kingpins/NemesisView_StatWeaponBonus
 
/Lotus/Language/Kingpins/NemesisView_StatBirthplace
birthNode
killingPowersuitType
/Lotus/Language/Kingpins/NemesisView_StatProgenitor
Popup.Rank.Label
text
rank
mTraits
/Lotus/Language/Kingpins/NemesisView_Trait
mQuirk
/Lotus/Language/Kingpins/NemesisView_Quirk
textColor
_G
UIColor_White
PopUp.Name.Label
name
Hint
_visible
Popup.gotoAndPlay
logoSound
mLabel
mValue

<
>
 
mMovie
gBackgroundRegion
mAgent
AIPoint
_T
NemesisMenuAvatar
gGameData
mHenchmenKilled
math
faceAnimations
mRank
mKillingSuit
mShoulderHelmet
gRegion
Lotus_Game
Helmet
_T
NemesisSeed
mManifest
manifest
mAgentIdx
killingPowersuitType
helmet
birthNode
mBirthNode
agentIdx
rank
faction
Grineer
killingSuit
mMovie
name
mName
_T
gNemesis
generatedProfile
properties
gGameData
nemesisPreviewLevel
Created
mMovie
gBackgroundRegion
_T
NemesisMenuAvatar
gFlashMgr
cjson
GuessResult
gGameData
_T
forceSpawnNemesis
Lotus_Game
NE_NEMESIS
mManifest
OnPasscodeCheck
_T
TestNemesisAlly
mLabel
Code: 
mValue
gPlayerProfileMgr
Engine
gGameConfig
nemesis.php?
&mode=q
OnGetNemesisCode
failed to set nemesis active
gGameData
OnVanquishOrConvertNemesis
gGameData
manifest
killingPowersuitType
Engine
DT_INVALID
helmet
agentIdx
birthNode
OnStartNemesis
rank
gGameData
Need to be logged in
spawning in level
_T
gNemesis
generatedProfile
properties
spawning in level
_T
gNemesis
generatedProfile
properties
mAgent
gRegion
Grineer
no npcMgr in this level
mLevel
ZERO_ROTATION
mRank
rank
_T
gNemesis
generatedProfile
_G
UIMovie_GenericMenu
mMovie
_T
NemesisCommandDone
SetCallBack
NemesisGetCommands
SetElementsFunction
_T
NemesisCommandDone
NemesisGetCommands
mMovie
Callback

table
mName
GENERATE
Callback
GenerateFromManifest
SPEAK
Speak
SPAWN AGENT ONLY (NO FIGHT LOGIC)
SpawnAgentOnly
SPAWN (WITH LEGIT PASSCODE CHECKS)
SpawnInLevel
SPAWN (FORCE CORRECT PASSCODE)
SpawnInLevelBypassCode
SPAWN ALLY
SpawnAllyInLevel
SET ACCOUNT
ActiveInAccount
ADD TO VANQUISHED
AddToVanquished
ADD TO CONVERTED
AddToConverted
RANK UP
RankUp
CLEAR HISTORY
ClearHistory
GIVE HINT
GiveHint
Lotus_Game
UIStyle_Content
UIStyle_FloatingContent

mName
/Lotus/Language/Kingpins/NemesisViewer_Title
#
string
%X
<p><font color="
">
mMovie
OPEN_COLOR
</font><font color="
CLOSE_COLOR
NAME
NAME_CAPS
</font></p>
/Lotus/Language/Kingpins/KuvaLichTutorial
table
Label
[DEV] GENERATE
CallBack
[DEV] COMMANDS
/Lotus/Language/Menu/General_Tutorial
CallOut
MENU_GENERIC1
/Lotus/Language/Menu/Exit
MENU_CANCEL
_T
SetButtons
mMovie
mMovie
GenerateFromManifest

mMovie
ShowNemesisCommands

EE.Interface.Components.List
mMovie
StatList.Stat
mForcedVerticalSeparation
mForcedHorizontalSeparation
mElementDrawCallback
BaseRedraw
Redraw
StatList
_alpha
StatBlurer
StatBg
statBackerMaterial
_color
Background1
mMovie
mClipName
.Label.text
mLabel
.Value.text
mValue
Label
textColor
FloatingContent
Value
FloatingContentHighlight
dropShadow_color
Background1
mMovie
AbilityList
mForcedHorizontalSeparation
mShowTitle
mShowRank
mShowPassive
mSimplePopup
mUnderlineWidthOffset
_alpha
_T
syncingInventory
Arsenal
_T
triggeredConsoleTag
gRegion

InHub
UI_MODE_IN_DOJO
InSimulacrum
Mods
ConsoleActivate
ConsoleTeleportAndActivate
NemesisTest - ERROR: Could not find Arsenal script.
Kneeling
KneelAction
BackgroundMovie
ShowBlockingMessage
0
Arsenal_ReturnToNemesis
Arsenal_QuickUpgrade
type
Lotus_Game
LOT_DATAKNIFE
slot
SUIT_SLOT
triggeredConsole
_T
BackgroundMovie
ShowBlockingMessage
2
mGuessHistory
Lotus_Game
emptyIcons
immortalMods
table
States
Icons
mMovie
CombinationHistory.Hint
_visible
EE.Interface.Components.Grid
mMovie
CombinationHistory.Grid.Element
mRowSeparation
mColumnSeparation
CombinationHistory.ScrollBar
mElementDrawCallback
CombinationHistory.Hint
textColor
FloatingContent
verticalAlignment
center
/Lotus/Language/Kingpins/NemesisView_NoHistoryName
CombinationHistory.Hint.text
/Lotus/Language/Kingpins/NemesisView_NoHistoryHint
LICH_NAME
CurrentCombination.Bg
_color
Background1
CurrentCombination.Edge
FloatingContentHighlight
mClipName
Id
mMovie
OrderNumber
text
_alpha
textColor
FloatingContent
Icons
States
_G
UIColor_White
Background1Color
UIColor_RGB_White
NegativeColor
FloatingContentColor
.Symbol
_width
_height
modIconVisRangeMaterial
DetailMap
_color
DetailMapTint
red
green
blue
Strikethrough
_visible
strikeThroughIcons
mMovie
CurrentCombination
_visible
immortalModType
emptyIcons
Content
Background1Color
Lotus_Game
mItemType
mInstance
ContentColor
CurrentCombination.Symbol
_alpha
modIconMaterial
DetailMap
_color
DetailMapTint
red
green
blue
_width
_height
Hint.Hint
mMovie
_color
Content
.Icon
modIconMaterial
_x
_y
table
Positions
/Lotus/Language/Kingpins/NemesisView_HintLabel
Hint.Label
text
textColor
FloatingContent
textWidth
Hint.Underline
_visible
gGameData
mHenchmenKilled
math
mMovie
RageBarContainer.Bar.Label
text
/Lotus/Language/Kingpins/LichRage
RageBarContainer.Bar.Mask
_width
FloatingContent
Lotus_Game
UIStyle_FloatingContent
FloatingContentColor
FloatingContentHighlight
UIStyle_FloatingContentHighlight
FloatingContentHighlightColor
Background1
UIStyle_Background1
Background1Color
Background2
UIStyle_Background2
Positive
UIStyle_Positive
Negative
UIStyle_Negative
PositiveColor
NegativeColor
Content
UIStyle_Content
ContentColor
FloatingContentProcedural
Background1Procedural
_T
gNemesis
TopMenuOpen
TopMenuMovie
SkipDisableInputOnClose
true
Close

Lotus.Interface.Libs.TimerMgr
mMovie
Logo
_alpha
_color
PopUp
ANCHOR_V_TOP
ANCHOR_H_LEFT
AbilityList
RageBarContainer
StatList
StatBlurer
StatBg
LinesContainer
ANCHOR_H_RIGHT
CurrentCombination
CombinationHistory
Hint
UpgradeBtn
ANCHOR_V_BOTTOM
_G
UISound_Open
ShowBackground
SetSquadOverlayTitle
/Lotus/Language/Menu/Profile_Profile
/Lotus/Language/Kingpins/NemesisViewer_Title
Lotus.Interface.Components.ThemedButton
/Lotus/Language/Kingpins/NemesisView_UpgradeKnife
UpgradeKnife
<MENU_GENERIC2>
RageBarContainer.Bar
INDIFFERENT
BaseUpdateColors
UpdateColors
BaseResize
Resize
mFontSize
mLabelYOffset
CENTER_ALIGNED
RageBarContainer.Bar.FillCapLeft
UIMaterial_VitruvianLines
RageBarContainer.Bar.FillCapRight
RageBarContainer.Bar.Fill
_xscale
_yscale
PopUp.CloudTop
smokeMaterial
PopUp.CloudBottom
PopUp.CloudDots
kuvaMaterial
Popup.BottomAnimation
_visible
LinesContainer.Lines
_x
Lotus.Interface.Components.ThemedSpinner
Spinner
Lotus.Interface.Libs.DioramaLoader
_root
_xmouse
_ymouse
Nemesis_HistoryEntry
gGameData
CombinationHistory.Hint.text
/Lotus/Language/Kingpins/NemesisView_NoHistoryHint
LICH_NAME
mName
UI_MODE_IN_SPACE_SHIP
UI_MODE_IN_SPACE_HUB
mClipName
Lotus_Game
UIStyle_Negative
mInnerAlpha
mMovie
Fill
_color
_alpha
FillCapLeft
FillCapRight
mClipName
mWidth
mMovie
Fill
_width
_height
mHeight
FillCapRight
_x
gGameRules
mTarget
name
mName
rank
mRank
faction
Grineer
killingPowersuitType
mKillingSuit
birthNode
mBirthNode
_T
HideBackground
IsLoading
Loader
mMovie

EN_MOUSE_B0
1
mRows
mRowSeparation
mMovie
CombinationHistory
_y
modIconVisRangeMaterial
Lotus_Game
VISIBILITY_CENTER
VISIBILITY_SIZE
VISIBILITY_FADE_SIZE
mMovie
_root
_xmouse
_ymouse
math
heading
mMovie
_T
curTransmission
STOP_MENU_TAUNT
immortalMods
IconFocused
Hint.Hint
CustomEntry
Name
mMovie
_screenX
_screenY
_width
_height
_T
InfoPopup_Data
IconFocused
_T
InfoPopup_Data
mScrollBar
gGameData

cjson
Hint
math
gGameRules
/Lotus/Language/Game/KuvaMurmur
NemesisHintProgress
math
gGameRules
gGameData
mHintProgress
/Lotus/Language/Game/KuvaMurmur
                         
0001                     ** function [0] definition (level 1)
                         ** start of function **
0001  00                 string size (0)
                         source name: (none)
0002  00                 line defined (0)
0003  00                 last line defined (0)
0004  00                 nups (0)
0005  00                 numparams (0)
0006  02                 is_vararg (2)
0007  4F                 maxstacksize (79)
                         * code:
0009  03                 sizecode (394)
000A  19000000           [001] loadk      0   0        ; 0
000E  5D400000           [002] getglobal  1   1        ; 849075268
0012  99800000           [003] loadk      2   2        ; "Lotus.Interface.CardUtilitiesRedux"
0016  62800001           [004] call       1   2   2  
001A  9D400000           [005] getglobal  2   1        ; 849075268
001E  D9C00000           [006] loadk      3   3        ; "Lotus.Interface.UIStyleUtilities"
0022  A2800001           [007] call       2   2   2  
0026  DD400000           [008] getglobal  3   1        ; 849075268
002A  19010100           [009] loadk      4   4        ; "Lotus.Interface.LotusUtilities"
002E  E2800001           [010] call       3   2   2  
0032  1D410000           [011] getglobal  4   1        ; 849075268
0036  59410100           [012] loadk      5   5        ; "EE.Interface.Utilities"
003A  22810001           [013] call       4   2   2  
003E  5D410000           [014] getglobal  5   1        ; 849075268
0042  99810100           [015] loadk      6   6        ; "Lotus.Interface.UIUtilities"
0046  62810001           [016] call       5   2   2  
004A  9D410000           [017] getglobal  6   1        ; 849075268
004E  D9C10100           [018] loadk      7   7        ; "Lotus.Scripts.Nemesis.NemesisGenerator"
0052  A2810001           [019] call       6   2   2  
0056  DD410000           [020] getglobal  7   1        ; 849075268
005A  19020200           [021] loadk      8   8        ; "EE.Interface.AnchorMgr"
005E  E2810001           [022] call       7   2   2  
0062  1D420000           [023] getglobal  8   1        ; 849075268
0066  59420200           [024] loadk      9   9        ; "Lotus.Interface.LoadoutUtilities"
006A  22820001           [025] call       8   2   2  
006E  5D420000           [026] getglobal  9   1        ; 849075268
0072  99820200           [027] loadk      10  10       ; "Lotus.Interface.Components.AbilityList"
0076  62820001           [028] call       9   2   2  
007A  8B420100           [029] newtable   10  0   5    ; array=0, hash=5
007E  8C02C385           [030] settable   10  267 268  ; "Center" 0
0082  8C82C386           [031] settable   10  269 270  ; "Size" 102
0086  8C02C487           [032] settable   10  271 272  ; "FadeSize" -51
008A  8C82C488           [033] settable   10  273 274  ; "InvertX" 0
008E  8C82C489           [034] settable   10  275 274  ; "InvertY" 0
0092  D7020000           [035] loadbool   11  0   0    ; false
0096  06030006           [036] loadnil    12  12     
009A  57030000           [037] loadbool   13  0   0    ; false
009E  86038008           [038] loadnil    14  17     
00A2  97040000           [039] loadbool   18  0   0    ; false
00A6  CB040000           [040] newtable   19  0   0    ; array=0, hash=0
00AA  0605000E           [041] loadnil    20  28     
00AE  4B070000           [042] newtable   29  0   0    ; array=0, hash=0
00B2  8BC70000           [043] newtable   30  0   3    ; array=0, hash=3
00B6  8C47458A           [044] settable   30  276 277  ; "Timer" nil
00BA  CB070000           [045] newtable   31  0   0    ; array=0, hash=0
00BE  8CC7078B           [046] settable   30  278 31   ; "Positions"
00C2  8C07C68B           [047] settable   30  279 280  ; "IconFocused" 0
00C6  D7070000           [048] loadbool   31  0   0    ; false
00CA  17080000           [049] loadbool   32  0   0    ; false
00CE  57080000           [050] loadbool   33  0   0    ; false
00D2  99480600           [051] loadk      34  25       ; 0
00D6  D9480600           [052] loadk      35  25       ; 0
00DA  17090000           [053] loadbool   36  0   0    ; false
00DE  46098012           [054] loadnil    37  37     
00E2  8B890000           [055] newtable   38  0   2    ; array=0, hash=2
00E6  8C49458D           [056] settable   38  282 277  ; "Loader" nil
00EA  8C09C68D           [057] settable   38  283 280  ; "IsLoading" 0
00EE  C6090017           [058] loadnil    39  46     
00F2  D70B0000           [059] loadbool   47  0   0    ; false
00F6  170C0000           [060] loadbool   48  0   0    ; false
00FA  570C0000           [061] loadbool   49  0   0    ; false
00FE  860C0019           [062] loadnil    50  50     
0102  E50C0000           [063] closure    51  0      
0106  12008001           [064] move       0   3      
010A  12008012           [065] move       0   37     
010E  1200800F           [066] move       0   31     
0112  E00C0700           [067] setglobal  51  28       ; Shutdown
0116  E04C0700           [068] setglobal  51  29       ; 1012367267
011A  E54C0000           [069] closure    51  1      
011E  12000013           [070] move       0   38     
0122  258D0000           [071] closure    52  2      
0126  12000008           [072] move       0   16     
012A  1200800B           [073] move       0   23     
012E  12000003           [074] move       0   6      
0132  1200000E           [075] move       0   28     
0136  65CD0000           [076] closure    53  3      
013A  12000014           [077] move       0   40     
013E  A50D0100           [078] closure    54  4      
0142  1200000F           [079] move       0   30     
0146  12000015           [080] move       0   42     
014A  1200001B           [081] move       0   54     
014E  E54D0100           [082] closure    55  5      
0152  1200800E           [083] move       0   29     
0156  12000003           [084] move       0   6      
015A  12008009           [085] move       0   19     
015E  12000002           [086] move       0   4      
0162  1200001B           [087] move       0   54     
0166  258E0100           [088] closure    56  6      
016A  12000014           [089] move       0   40     
016E  1200000A           [090] move       0   20     
0172  1200000B           [091] move       0   22     
0176  12000002           [092] move       0   4      
017A  12008014           [093] move       0   41     
017E  12008001           [094] move       0   3      
0182  12008016           [095] move       0   45     
0186  12008005           [096] move       0   11     
018A  1200801B           [097] move       0   55     
018E  12000015           [098] move       0   42     
0192  1200801A           [099] move       0   53     
0196  1200001A           [100] move       0   52     
019A  65CE0100           [101] closure    57  7      
019E  1200800B           [102] move       0   23     
01A2  12000008           [103] move       0   16     
01A6  12008005           [104] move       0   11     
01AA  12000000           [105] move       0   0      
01AE  A50E0200           [106] closure    58  8      
01B2  1200000A           [107] move       0   20     
01B6  1200800A           [108] move       0   21     
01BA  1200000C           [109] move       0   24     
01BE  1200000B           [110] move       0   22     
01C2  1200800B           [111] move       0   23     
01C6  12000003           [112] move       0   6      
01CA  1200000D           [113] move       0   26     
01CE  1200800D           [114] move       0   27     
01D2  E54E0200           [115] closure    59  9      
01D6  1200001D           [116] move       0   58     
01DA  12008019           [117] move       0   51     
01DE  12000003           [118] move       0   6      
01E2  1200800B           [119] move       0   23     
01E6  1200800D           [120] move       0   27     
01EA  1200001C           [121] move       0   56     
01EE  1200000D           [122] move       0   26     
01F2  258F0200           [123] closure    60  10     
01F6  1200800C           [124] move       0   25     
01FA  1200801D           [125] move       0   59     
01FE  208F0700           [126] setglobal  60  30       ; GenerateFromManifest
0202  20CF0700           [127] setglobal  60  31       ; -958168834
0206  25CF0200           [128] closure    60  11     
020A  1200801D           [129] move       0   59     
020E  200F0800           [130] setglobal  60  32       ; DisplayCurrentNemesis
0212  204F0800           [131] setglobal  60  33       ; -883013306
0216  250F0300           [132] closure    60  12     
021A  12000009           [133] move       0   18     
021E  12008008           [134] move       0   17     
0222  654F0300           [135] closure    61  13     
0226  12000003           [136] move       0   6      
022A  608F0800           [137] setglobal  61  34       ; Speak
022E  60CF0800           [138] setglobal  61  35       ; 481768752
0232  658F0300           [139] closure    61  14     
0236  12000008           [140] move       0   16     
023A  A5CF0300           [141] closure    62  15     
023E  12000019           [142] move       0   50     
0242  A00F0900           [143] setglobal  62  36       ; OnPasscodeCheck
0246  A04F0900           [144] setglobal  62  37       ; 984290395
024A  A50F0400           [145] closure    62  16     
024E  12008018           [146] move       0   49     
0252  12000003           [147] move       0   6      
0256  1200801E           [148] move       0   61     
025A  12000018           [149] move       0   48     
025E  12000019           [150] move       0   50     
0262  12000004           [151] move       0   8      
0266  E54F0400           [152] closure    63  17     
026A  1200801E           [153] move       0   61     
026E  E08F0900           [154] setglobal  63  38       ; SpawnAllyInLevel
0272  E0CF0900           [155] setglobal  63  39       ; -621075098
0276  E58F0400           [156] closure    63  18     
027A  E00F0A00           [157] setglobal  63  40       ; OnVanquishOrConvertNemesis
027E  E04F0A00           [158] setglobal  63  41       ; 784246381
0282  E5CF0400           [159] closure    63  19     
0286  12000014           [160] move       0   40     
028A  E08F0A00           [161] setglobal  63  42       ; OnGetNemesisCode
028E  E0CF0A00           [162] setglobal  63  43       ; 729881284
0292  E50F0500           [163] closure    63  20     
0296  25500500           [164] closure    64  21     
029A  12000003           [165] move       0   6      
029E  1200800B           [166] move       0   23     
02A2  12000010           [167] move       0   32     
02A6  12008010           [168] move       0   33     
02AA  1200800C           [169] move       0   25     
02AE  12000018           [170] move       0   48     
02B2  1200001F           [171] move       0   62     
02B6  1200801F           [172] move       0   63     
02BA  20100B00           [173] setglobal  64  44       ; OnStartNemesis
02BE  20500B00           [174] setglobal  64  45       ; 1653255136
02C2  25900500           [175] closure    64  22     
02C6  1200000D           [176] move       0   26     
02CA  1200800A           [177] move       0   21     
02CE  1200800D           [178] move       0   27     
02D2  65D00500           [179] closure    65  23     
02D6  12000002           [180] move       0   4      
02DA  1200800B           [181] move       0   23     
02DE  1200001D           [182] move       0   58     
02E2  1200800C           [183] move       0   25     
02E6  1200800D           [184] move       0   27     
02EA  12008018           [185] move       0   49     
02EE  12000018           [186] move       0   48     
02F2  12000020           [187] move       0   64     
02F6  1200001F           [188] move       0   62     
02FA  A5100600           [189] closure    66  24     
02FE  1200800B           [190] move       0   23     
0302  1200001D           [191] move       0   58     
0306  1200800D           [192] move       0   27     
030A  1200801E           [193] move       0   61     
030E  A0900B00           [194] setglobal  66  46       ; SpawnAgentOnly
0312  A0D00B00           [195] setglobal  66  47       ; -1556906895
0316  A5500600           [196] closure    66  25     
031A  12008020           [197] move       0   65     
031E  A0100C00           [198] setglobal  66  48       ; SpawnInLevel
0322  A0500C00           [199] setglobal  66  49       ; 1005696759
0326  A5900600           [200] closure    66  26     
032A  12008020           [201] move       0   65     
032E  A0900C00           [202] setglobal  66  50       ; SpawnInLevelBypassCode
0332  A0D00C00           [203] setglobal  66  51       ; 546993030
0336  A5D00600           [204] closure    66  27     
033A  1200800B           [205] move       0   23     
033E  12000020           [206] move       0   64     
0342  A0100D00           [207] setglobal  66  52       ; ActiveInAccount
0346  A0500D00           [208] setglobal  66  53       ; 927180129
034A  A5100700           [209] closure    66  28     
034E  1200800B           [210] move       0   23     
0352  12000010           [211] move       0   32     
0356  12000020           [212] move       0   64     
035A  A0900D00           [213] setglobal  66  54       ; AddToVanquished
035E  A0D00D00           [214] setglobal  66  55       ; 491298482
0362  A5500700           [215] closure    66  29     
0366  1200800B           [216] move       0   23     
036A  12008010           [217] move       0   33     
036E  12000020           [218] move       0   64     
0372  A0100E00           [219] setglobal  66  56       ; AddToConverted
0376  A0500E00           [220] setglobal  66  57       ; -2124816469
037A  A5900700           [221] closure    66  30     
037E  1200000C           [222] move       0   24     
0382  1200800B           [223] move       0   23     
0386  12000003           [224] move       0   6      
038A  1200800D           [225] move       0   27     
038E  1200001C           [226] move       0   56     
0392  1200000D           [227] move       0   26     
0396  1200801C           [228] move       0   57     
039A  A0900E00           [229] setglobal  66  58       ; RankUp
039E  A0D00E00           [230] setglobal  66  59       ; -328074812
03A2  A5D00700           [231] closure    66  31     
03A6  12000012           [232] move       0   36     
03AA  12008012           [233] move       0   37     
03AE  A0100F00           [234] setglobal  66  60       ; ShowNemesisCommands
03B2  A0500F00           [235] setglobal  66  61       ; 239572667
03B6  A5100800           [236] closure    66  32     
03BA  12000001           [237] move       0   2      
03BE  1200800B           [238] move       0   23     
03C2  E5500800           [239] closure    67  33     
03C6  12000012           [240] move       0   36     
03CA  12000002           [241] move       0   4      
03CE  12000021           [242] move       0   66     
03D2  258B0800           [243] closure    44  34     
03D6  12008005           [244] move       0   11     
03DA  12008021           [245] move       0   67     
03DE  1200801E           [246] move       0   61     
03E2  25D10800           [247] closure    68  35     
03E6  12000014           [248] move       0   40     
03EA  12008009           [249] move       0   19     
03EE  65110900           [250] closure    69  36     
03F2  12008014           [251] move       0   41     
03F6  12008004           [252] move       0   9      
03FA  A5510900           [253] closure    70  37     
03FE  E5910900           [254] closure    71  38     
0402  12000002           [255] move       0   4      
0406  12008001           [256] move       0   3      
040A  12008006           [257] move       0   13     
040E  1200801E           [258] move       0   61     
0412  25D20900           [259] closure    72  39     
0416  12008006           [260] move       0   13     
041A  20920F00           [261] setglobal  72  62       ; UpgradeKnife
041E  20D20F00           [262] setglobal  72  63       ; 1591101427
0422  650B0A00           [263] closure    45  40     
0426  12000006           [264] move       0   12     
042A  25520A00           [265] closure    72  41     
042E  12000006           [266] move       0   12     
0432  12008009           [267] move       0   19     
0436  12000017           [268] move       0   46     
043A  65920A00           [269] closure    73  42     
043E  12000004           [270] move       0   8      
0442  12008000           [271] move       0   1      
0446  12008009           [272] move       0   19     
044A  A5D20A00           [273] closure    74  43     
044E  12008009           [274] move       0   19     
0452  1200000F           [275] move       0   30     
0456  12008002           [276] move       0   5      
045A  E5120B00           [277] closure    75  44     
045E  12000000           [278] move       0   0      
0462  25530B00           [279] closure    76  45     
0466  12008009           [280] move       0   19     
046A  12000001           [281] move       0   2      
046E  12000002           [282] move       0   4      
0472  1200800F           [283] move       0   31     
0476  12008001           [284] move       0   3      
047A  12000015           [285] move       0   42     
047E  12008015           [286] move       0   43     
0482  12008003           [287] move       0   7      
0486  12000007           [288] move       0   14     
048A  12008007           [289] move       0   15     
048E  12008025           [290] move       0   75     
0492  12000022           [291] move       0   68     
0496  12008022           [292] move       0   69     
049A  12000024           [293] move       0   72     
049E  12000025           [294] move       0   74     
04A2  12008013           [295] move       0   39     
04A6  12008008           [296] move       0   17     
04AA  1200001E           [297] move       0   60     
04AE  12000011           [298] move       0   34     
04B2  12008011           [299] move       0   35     
04B6  12008005           [300] move       0   11     
04BA  12008017           [301] move       0   47     
04BE  1200800C           [302] move       0   25     
04C2  1200801D           [303] move       0   59     
04C6  1200800B           [304] move       0   23     
04CA  12000016           [305] move       0   44     
04CE  12008024           [306] move       0   73     
04D2  20131000           [307] setglobal  76  64       ; Initialize
04D6  20531000           [308] setglobal  76  65       ; 1650753590
04DA  25930B00           [309] closure    76  46     
04DE  12000003           [310] move       0   6      
04E2  1200001C           [311] move       0   56     
04E6  20931000           [312] setglobal  76  66       ; ShowCreation
04EA  20D31000           [313] setglobal  76  67       ; 1671775191
04EE  25D30B00           [314] closure    76  47     
04F2  12000009           [315] move       0   18     
04F6  12008008           [316] move       0   17     
04FA  12000013           [317] move       0   38     
04FE  1200801C           [318] move       0   57     
0502  12008013           [319] move       0   39     
0506  12008017           [320] move       0   47     
050A  1200801F           [321] move       0   63     
050E  65130C00           [322] closure    77  48     
0512  12000012           [323] move       0   36     
0516  60131100           [324] setglobal  77  68       ; onRawInputEvent
051A  60531100           [325] setglobal  77  69       ; 290863379
051E  A54B0C00           [326] closure    46  49     
0522  12000006           [327] move       0   12     
0526  12000002           [328] move       0   4      
052A  65930C00           [329] closure    77  50     
052E  12008015           [330] move       0   43     
0532  12000006           [331] move       0   12     
0536  12000017           [332] move       0   46     
053A  12008014           [333] move       0   41     
053E  60931100           [334] setglobal  77  70       ; onViewportSizeChanged
0542  60D31100           [335] setglobal  77  71       ; 982516775
0546  65D30C00           [336] closure    77  51     
054A  12000011           [337] move       0   34     
054E  12008011           [338] move       0   35     
0552  12000008           [339] move       0   16     
0556  12000012           [340] move       0   36     
055A  A5130D00           [341] closure    78  52     
055E  12000026           [342] move       0   76     
0562  12008026           [343] move       0   77     
0566  12008013           [344] move       0   39     
056A  12000015           [345] move       0   42     
056E  1200000E           [346] move       0   28     
0572  12000008           [347] move       0   16     
0576  12008006           [348] move       0   13     
057A  12000023           [349] move       0   70     
057E  12008023           [350] move       0   71     
0582  12000018           [351] move       0   48     
0586  12000019           [352] move       0   50     
058A  1200001F           [353] move       0   62     
058E  A0131200           [354] setglobal  78  72       ; Update
0592  A0531200           [355] setglobal  78  73       ; -1938777623
0596  A5530D00           [356] closure    78  53     
059A  12008014           [357] move       0   41     
059E  A0931200           [358] setglobal  78  74       ; AbilityPressed
05A2  A0D31200           [359] setglobal  78  75       ; -477494023
05A6  A5930D00           [360] closure    78  54     
05AA  12008014           [361] move       0   41     
05AE  A0131300           [362] setglobal  78  76       ; AbilityFocused
05B2  A0531300           [363] setglobal  78  77       ; -1765737056
05B6  A5D30D00           [364] closure    78  55     
05BA  12008014           [365] move       0   41     
05BE  A0931300           [366] setglobal  78  78       ; AbilityUnfocused
05C2  A0D31300           [367] setglobal  78  79       ; 1880584049
05C6  A5130E00           [368] closure    78  56     
05CA  1200800E           [369] move       0   29     
05CE  1200000F           [370] move       0   30     
05D2  12008002           [371] move       0   5      
05D6  A0131400           [372] setglobal  78  80       ; HintIconFocused
05DA  A0531400           [373] setglobal  78  81       ; 72455605
05DE  A5530E00           [374] closure    78  57     
05E2  1200000F           [375] move       0   30     
05E6  A0931400           [376] setglobal  78  82       ; HintIconUnfocused
05EA  A0D31400           [377] setglobal  78  83       ; -855264827
05EE  A5930E00           [378] closure    78  58     
05F2  12000006           [379] move       0   12     
05F6  A0131500           [380] setglobal  78  84       ; onKeyDown_MENU_MOUSE_Z
05FA  A0531500           [381] setglobal  78  85       ; 1458230185
05FE  A5D30E00           [382] closure    78  59     
0602  A0931500           [383] setglobal  78  86       ; SupportsThemes
0606  A0D31500           [384] setglobal  78  87       ; -605602914
060A  A5130F00           [385] closure    78  60     
060E  A0131600           [386] setglobal  78  88       ; ClearHistory
0612  A0531600           [387] setglobal  78  89       ; 808963710
0616  A5530F00           [388] closure    78  61     
061A  A0931600           [389] setglobal  78  90       ; OnPasscodeHint
061E  A0D31600           [390] setglobal  78  91       ; 634487409
0622  A5930F00           [391] closure    78  62     
0626  A0131700           [392] setglobal  78  92       ; GiveHint
062A  A0531700           [393] setglobal  78  93       ; -1890093873
062E  1E008000           [394] return     0   1      
                         * constants:
0632  5E                 sizek (94)
0633  03                 const type 3
0634  00007042           const [0]: (0)
0638  01                 const type 3
0639  44DC9B32           const [1]: (849075268)
063D  04                 const type 4
063E  23                 string size (35)
063F  4C6F7475732E496E+  "Lotus.In"
0647  746572666163652E+  "terface."
064F  436172645574696C+  "CardUtil"
0657  6974696573526564+  "itiesRed"
065F  757800             "ux\0"
                         const [2]: "Lotus.Interface.CardUtilitiesRedux"
0662  04                 const type 4
0663  21                 string size (33)
0664  4C6F7475732E496E+  "Lotus.In"
066C  746572666163652E+  "terface."
0674  55495374796C6555+  "UIStyleU"
067C  74696C6974696573+  "tilities"
0684  00                 "\0"
                         const [3]: "Lotus.Interface.UIStyleUtilities"
0685  04                 const type 4
0686  1F                 string size (31)
0687  4C6F7475732E496E+  "Lotus.In"
068F  746572666163652E+  "terface."
0697  4C6F747573557469+  "LotusUti"
069F  6C697469657300     "lities\0"
                         const [4]: "Lotus.Interface.LotusUtilities"
06A6  04                 const type 4
06A7  17                 string size (23)
06A8  45452E496E746572+  "EE.Inter"
06B0  666163652E557469+  "face.Uti"
06B8  6C697469657300     "lities\0"
                         const [5]: "EE.Interface.Utilities"
06BF  04                 const type 4
06C0  1C                 string size (28)
06C1  4C6F7475732E496E+  "Lotus.In"
06C9  746572666163652E+  "terface."
06D1  55495574696C6974+  "UIUtilit"
06D9  69657300           "ies\0"
                         const [6]: "Lotus.Interface.UIUtilities"
06DD  04                 const type 4
06DE  27                 string size (39)
06DF  4C6F7475732E5363+  "Lotus.Sc"
06E7  72697074732E4E65+  "ripts.Ne"
06EF  6D657369732E4E65+  "mesis.Ne"
06F7  6D6573697347656E+  "mesisGen"
06FF  657261746F7200     "erator\0"
                         const [7]: "Lotus.Scripts.Nemesis.NemesisGenerator"
0706  04                 const type 4
0707  17                 string size (23)
0708  45452E496E746572+  "EE.Inter"
0710  666163652E416E63+  "face.Anc"
0718  686F724D677200     "horMgr\0"
                         const [8]: "EE.Interface.AnchorMgr"
071F  04                 const type 4
0720  21                 string size (33)
0721  4C6F7475732E496E+  "Lotus.In"
0729  746572666163652E+  "terface."
0731  4C6F61646F757455+  "LoadoutU"
0739  74696C6974696573+  "tilities"
0741  00                 "\0"
                         const [9]: "Lotus.Interface.LoadoutUtilities"
0742  04                 const type 4
0743  27                 string size (39)
0744  4C6F7475732E496E+  "Lotus.In"
074C  746572666163652E+  "terface."
0754  436F6D706F6E656E+  "Componen"
075C  74732E4162696C69+  "ts.Abili"
0764  74794C69737400     "tyList\0"
                         const [10]: "Lotus.Interface.Components.AbilityList"
076B  04                 const type 4
076C  07                 string size (7)
076D  43656E74657200     "Center\0"
                         const [11]: "Center"
0774  03                 const type 3
0775  0000003F           const [12]: (0)
0779  04                 const type 4
077A  05                 string size (5)
077B  53697A6500         "Size\0"
                         const [13]: "Size"
0780  03                 const type 3
0781  6666E63E           const [14]: (102)
0785  04                 const type 4
0786  09                 string size (9)
0787  4661646553697A65+  "FadeSize"
078F  00                 "\0"
                         const [15]: "FadeSize"
0790  03                 const type 3
0791  CDCCCC3D           const [16]: (-51)
0795  04                 const type 4
0796  08                 string size (8)
0797  496E766572745800   "InvertX\0"
                         const [17]: "InvertX"
079F  03                 const type 3
07A0  0000803F           const [18]: (0)
07A4  04                 const type 4
07A5  08                 string size (8)
07A6  496E766572745900   "InvertY\0"
                         const [19]: "InvertY"
07AE  04                 const type 4
07AF  06                 string size (6)
07B0  54696D657200       "Timer\0"
                         const [20]: "Timer"
07B6  00                 const type 0
                         const [21]: nil
07B7  04                 const type 4
07B8  0A                 string size (10)
07B9  506F736974696F6E+  "Position"
07C1  7300               "s\0"
                         const [22]: "Positions"
07C3  04                 const type 4
07C4  0C                 string size (12)
07C5  49636F6E466F6375+  "IconFocu"
07CD  73656400           "sed\0"
                         const [23]: "IconFocused"
07D1  01                 const type 3
07D2  00000000           const [24]: (0)
07D6  03                 const type 3
07D7  00000000           const [25]: (0)
07DB  04                 const type 4
07DC  07                 string size (7)
07DD  4C6F6164657200     "Loader\0"
                         const [26]: "Loader"
07E4  04                 const type 4
07E5  0A                 string size (10)
07E6  49734C6F6164696E+  "IsLoadin"
07EE  6700               "g\0"
                         const [27]: "IsLoading"
07F0  04                 const type 4
07F1  09                 string size (9)
07F2  53687574646F776E+  "Shutdown"
07FA  00                 "\0"
                         const [28]: "Shutdown"
07FB  01                 const type 3
07FC  A37F573C           const [29]: (1012367267)
0800  04                 const type 4
0801  15                 string size (21)
0802  47656E6572617465+  "Generate"
080A  46726F6D4D616E69+  "FromMani"
0812  6665737400         "fest\0"
                         const [30]: "GenerateFromManifest"
0817  01                 const type 3
0818  FE80E3C6           const [31]: (-958168834)
081C  04                 const type 4
081D  16                 string size (22)
081E  446973706C617943+  "DisplayC"
0826  757272656E744E65+  "urrentNe"
082E  6D6573697300       "mesis\0"
                         const [32]: "DisplayCurrentNemesis"
0834  01                 const type 3
0835  46495ECB           const [33]: (-883013306)
0839  04                 const type 4
083A  06                 string size (6)
083B  537065616B00       "Speak\0"
                         const [34]: "Speak"
0841  01                 const type 3
0842  3035B71C           const [35]: (481768752)
0846  04                 const type 4
0847  10                 string size (16)
0848  4F6E50617373636F+  "OnPassco"
0850  6465436865636B00   "deCheck\0"
                         const [36]: "OnPasscodeCheck"
0858  01                 const type 3
0859  5B14AB3A           const [37]: (984290395)
085D  04                 const type 4
085E  11                 string size (17)
085F  537061776E416C6C+  "SpawnAll"
0867  79496E4C6576656C+  "yInLevel"
086F  00                 "\0"
                         const [38]: "SpawnAllyInLevel"
0870  01                 const type 3
0871  6625FBDA           const [39]: (-621075098)
0875  04                 const type 4
0876  1B                 string size (27)
0877  4F6E56616E717569+  "OnVanqui"
087F  73684F72436F6E76+  "shOrConv"
0887  6572744E656D6573+  "ertNemes"
088F  697300             "is\0"
                         const [40]: "OnVanquishOrConvertNemesis"
0892  01                 const type 3
0893  6DA6BE2E           const [41]: (784246381)
0897  04                 const type 4
0898  11                 string size (17)
0899  4F6E4765744E656D+  "OnGetNem"
08A1  65736973436F6465+  "esisCode"
08A9  00                 "\0"
                         const [42]: "OnGetNemesisCode"
08AA  01                 const type 3
08AB  C41A812B           const [43]: (729881284)
08AF  04                 const type 4
08B0  0F                 string size (15)
08B1  4F6E53746172744E+  "OnStartN"
08B9  656D6573697300     "emesis\0"
                         const [44]: "OnStartNemesis"
08C0  01                 const type 3
08C1  E0AB8A62           const [45]: (1653255136)
08C5  04                 const type 4
08C6  0F                 string size (15)
08C7  537061776E416765+  "SpawnAge"
08CF  6E744F6E6C7900     "ntOnly\0"
                         const [46]: "SpawnAgentOnly"
08D6  01                 const type 3
08D7  717C33A3           const [47]: (-1556906895)
08DB  04                 const type 4
08DC  0D                 string size (13)
08DD  537061776E496E4C+  "SpawnInL"
08E5  6576656C00         "evel\0"
                         const [48]: "SpawnInLevel"
08EA  01                 const type 3
08EB  F7B6F13B           const [49]: (1005696759)
08EF  04                 const type 4
08F0  17                 string size (23)
08F1  537061776E496E4C+  "SpawnInL"
08F9  6576656C42797061+  "evelBypa"
0901  7373436F646500     "ssCode\0"
                         const [50]: "SpawnInLevelBypassCode"
0908  01                 const type 3
0909  86739A20           const [51]: (546993030)
090D  04                 const type 4
090E  10                 string size (16)
090F  416374697665496E+  "ActiveIn"
0917  4163636F756E7400   "Account\0"
                         const [52]: "ActiveInAccount"
091F  01                 const type 3
0920  61A54337           const [53]: (927180129)
0924  04                 const type 4
0925  10                 string size (16)
0926  416464546F56616E+  "AddToVan"
092E  7175697368656400   "quished\0"
                         const [54]: "AddToVanquished"
0936  01                 const type 3
0937  B29E481D           const [55]: (491298482)
093B  04                 const type 4
093C  0F                 string size (15)
093D  416464546F436F6E+  "AddToCon"
0945  76657274656400     "verted\0"
                         const [56]: "AddToConverted"
094C  01                 const type 3
094D  ABDF5981           const [57]: (-2124816469)
0951  04                 const type 4
0952  07                 string size (7)
0953  52616E6B557000     "RankUp\0"
                         const [58]: "RankUp"
095A  01                 const type 3
095B  C4F971EC           const [59]: (-328074812)
095F  04                 const type 4
0960  14                 string size (20)
0961  53686F774E656D65+  "ShowNeme"
0969  736973436F6D6D61+  "sisComma"
0971  6E647300           "nds\0"
                         const [60]: "ShowNemesisCommands"
0975  01                 const type 3
0976  BB96470E           const [61]: (239572667)
097A  04                 const type 4
097B  0D                 string size (13)
097C  557067726164654B+  "UpgradeK"
0984  6E69666500         "nife\0"
                         const [62]: "UpgradeKnife"
0989  01                 const type 3
098A  F347D65E           const [63]: (1591101427)
098E  04                 const type 4
098F  0B                 string size (11)
0990  496E697469616C69+  "Initiali"
0998  7A6500             "ze\0"
                         const [64]: "Initialize"
099B  01                 const type 3
099C  36806462           const [65]: (1650753590)
09A0  04                 const type 4
09A1  0D                 string size (13)
09A2  53686F7743726561+  "ShowCrea"
09AA  74696F6E00         "tion\0"
                         const [66]: "ShowCreation"
09AF  01                 const type 3
09B0  D743A563           const [67]: (1671775191)
09B4  04                 const type 4
09B5  10                 string size (16)
09B6  6F6E526177496E70+  "onRawInp"
09BE  75744576656E7400   "utEvent\0"
                         const [68]: "onRawInputEvent"
09C6  01                 const type 3
09C7  13395611           const [69]: (290863379)
09CB  04                 const type 4
09CC  16                 string size (22)
09CD  6F6E56696577706F+  "onViewpo"
09D5  727453697A654368+  "rtSizeCh"
09DD  616E67656400       "anged\0"
                         const [70]: "onViewportSizeChanged"
09E3  01                 const type 3
09E4  2704903A           const [71]: (982516775)
09E8  04                 const type 4
09E9  07                 string size (7)
09EA  55706461746500     "Update\0"
                         const [72]: "Update"
09F1  01                 const type 3
09F2  E999708C           const [73]: (-1938777623)
09F6  04                 const type 4
09F7  0F                 string size (15)
09F8  4162696C69747950+  "AbilityP"
0A00  72657373656400     "ressed\0"
                         const [74]: "AbilityPressed"
0A07  01                 const type 3
0A08  F9048AE3           const [75]: (-477494023)
0A0C  04                 const type 4
0A0D  0F                 string size (15)
0A0E  4162696C69747946+  "AbilityF"
0A16  6F637573656400     "ocused\0"
                         const [76]: "AbilityFocused"
0A1D  01                 const type 3
0A1E  A0FDC096           const [77]: (-1765737056)
0A22  04                 const type 4
0A23  11                 string size (17)
0A24  4162696C69747955+  "AbilityU"
0A2C  6E666F6375736564+  "nfocused"
0A34  00                 "\0"
                         const [78]: "AbilityUnfocused"
0A35  01                 const type 3
0A36  716F1770           const [79]: (1880584049)
0A3A  04                 const type 4
0A3B  10                 string size (16)
0A3C  48696E7449636F6E+  "HintIcon"
0A44  466F637573656400   "Focused\0"
                         const [80]: "HintIconFocused"
0A4C  01                 const type 3
0A4D  B5955104           const [81]: (72455605)
0A51  04                 const type 4
0A52  12                 string size (18)
0A53  48696E7449636F6E+  "HintIcon"
0A5B  556E666F63757365+  "Unfocuse"
0A63  6400               "d\0"
                         const [82]: "HintIconUnfocused"
0A65  01                 const type 3
0A66  C5B105CD           const [83]: (-855264827)
0A6A  04                 const type 4
0A6B  17                 string size (23)
0A6C  6F6E4B6579446F77+  "onKeyDow"
0A74  6E5F4D454E555F4D+  "n_MENU_M"
0A7C  4F5553455F5A00     "OUSE_Z\0"
                         const [84]: "onKeyDown_MENU_MOUSE_Z"
0A83  01                 const type 3
0A84  A9D3EA56           const [85]: (1458230185)
0A88  04                 const type 4
0A89  0F                 string size (15)
0A8A  537570706F727473+  "Supports"
0A92  5468656D657300     "Themes\0"
                         const [86]: "SupportsThemes"
0A99  01                 const type 3
0A9A  9E3BE7DB           const [87]: (-605602914)
0A9E  04                 const type 4
0A9F  0D                 string size (13)
0AA0  436C656172486973+  "ClearHis"
0AA8  746F727900         "tory\0"
                         const [88]: "ClearHistory"
0AAD  01                 const type 3
0AAE  7ECE3730           const [89]: (808963710)
0AB2  04                 const type 4
0AB3  0F                 string size (15)
0AB4  4F6E50617373636F+  "OnPassco"
0ABC  646548696E7400     "deHint\0"
                         const [90]: "OnPasscodeHint"
0AC3  01                 const type 3
0AC4  7182D125           const [91]: (634487409)
0AC8  04                 const type 4
0AC9  09                 string size (9)
0ACA  4769766548696E74+  "GiveHint"
0AD2  00                 "\0"
                         const [92]: "GiveHint"
0AD3  01                 const type 3
0AD4  CF74578F           const [93]: (-1890093873)
                         * functions:
0AD8  3F                 sizep (63)
                         
0AD9                     ** function [0] definition (level 2)
                         ** start of function **
0AD9  00                 string size (0)
                         source name: (none)
0ADA  4B                 line defined (75)
0ADB  6F                 last line defined (111)
0ADC  03                 nups (3)
0ADD  00                 numparams (0)
0ADE  00                 is_vararg (0)
0ADF  03                 maxstacksize (3)
                         * code:
0AE0  56                 sizecode (86)
0AE1  1D000000           [01] getglobal  0   0        ; _T
0AE5  0C80C080           [02] settable   0   257 258  ; "InfoPopup_Data" nil
0AE9  1D000000           [03] getglobal  0   0        ; _T
0AED  0C80C081           [04] settable   0   259 258  ; "gToolTip" nil
0AF1  1D000100           [05] getglobal  0   4        ; 1074689893
0AF5  5D000000           [06] getglobal  1   0        ; _T
0AF9  4E40C100           [07] gettable   1   1   261  ; "HideBackground"
0AFD  22800001           [08] call       0   2   2  
0B01  18400000           [09] test       0       1    ; to [11] if false
0B05  1A800080           [10] jmp        3            ; to [14]
0B09  1D000000           [11] getglobal  0   0        ; _T
0B0D  0E804100           [12] gettable   0   0   262  ; -1873712487
0B11  22408000           [13] call       0   1   1  
0B15  13000000           [14] getupval   0   0      
0B19  0EC04100           [15] gettable   0   0   263  ; -1262767739
0B1D  57000000           [16] loadbool   1   0   0    ; false
0B21  22400001           [17] call       0   2   1  
0B25  13000000           [18] getupval   0   0      
0B29  0E004200           [19] gettable   0   0   264  ; -1694810916
0B2D  57000000           [20] loadbool   1   0   0    ; false
0B31  22400001           [21] call       0   2   1  
0B35  1D000100           [22] getglobal  0   4        ; 1074689893
0B39  53008000           [23] getupval   1   1      
0B3D  22800001           [24] call       0   2   2  
0B41  18400000           [25] test       0       1    ; to [27] if false
0B45  1A800080           [26] jmp        3            ; to [30]
0B49  13008000           [27] getupval   0   1      
0B4D  24404200           [28] self       0   0   265  ; -1517569684
0B51  22400001           [29] call       0   2   1  
0B55  1D000100           [30] getglobal  0   4        ; 1074689893
0B59  5D800200           [31] getglobal  1   10       ; gGameRules
0B5D  22800001           [32] call       0   2   2  
0B61  18400000           [33] test       0       1    ; to [35] if false
0B65  1A800380           [34] jmp        15           ; to [50]
0B69  13000001           [35] getupval   0   2      
0B6D  18000000           [36] test       0       0    ; to [38] if true
0B71  1AC00280           [37] jmp        12           ; to [50]
0B75  1D000100           [38] getglobal  0   4        ; 1074689893
0B79  5D000000           [39] getglobal  1   0        ; _T
0B7D  4EC0C200           [40] gettable   1   1   267  ; "DisableUIInput"
0B81  22800001           [41] call       0   2   2  
0B85  18400000           [42] test       0       1    ; to [44] if false
0B89  1A800080           [43] jmp        3            ; to [47]
0B8D  1D000000           [44] getglobal  0   0        ; _T
0B91  0E004300           [45] gettable   0   0   268  ; 1170981787
0B95  22408000           [46] call       0   1   1  
0B99  1D800200           [47] getglobal  0   10       ; gGameRules
0B9D  24404300           [48] self       0   0   269  ; -1198706765
0BA1  22400001           [49] call       0   2   1  
0BA5  1D000100           [50] getglobal  0   4        ; 1074689893
0BA9  5D000000           [51] getglobal  1   0        ; _T
0BAD  4E40C100           [52] gettable   1   1   261  ; "HideBackground"
0BB1  22800001           [53] call       0   2   2  
0BB5  18400000           [54] test       0       1    ; to [56] if false
0BB9  1A800080           [55] jmp        3            ; to [59]
0BBD  1D000000           [56] getglobal  0   0        ; _T
0BC1  0E804100           [57] gettable   0   0   262  ; -1873712487
0BC5  22408000           [58] call       0   1   1  
0BC9  1D000100           [59] getglobal  0   4        ; 1074689893
0BCD  5D000000           [60] getglobal  1   0        ; _T
0BD1  4E80C300           [61] gettable   1   1   270  ; "SetSquadOverlayTitle"
0BD5  22800001           [62] call       0   2   2  
0BD9  18400000           [63] test       0       1    ; to [65] if false
0BDD  1A800080           [64] jmp        3            ; to [68]
0BE1  1D000000           [65] getglobal  0   0        ; _T
0BE5  0EC04300           [66] gettable   0   0   271  ; 1453523133
0BE9  22408000           [67] call       0   1   1  
0BED  1D000100           [68] getglobal  0   4        ; 1074689893
0BF1  5D000000           [69] getglobal  1   0        ; _T
0BF5  4E00C400           [70] gettable   1   1   272  ; "SetButtons"
0BF9  22800001           [71] call       0   2   2  
0BFD  18400000           [72] test       0       1    ; to [74] if false
0C01  1A000180           [73] jmp        5            ; to [79]
0C05  1D000000           [74] getglobal  0   0        ; _T
0C09  0E404400           [75] gettable   0   0   273  ; -270549122
0C0D  5D800400           [76] getglobal  1   18       ; mMovie
0C11  86000001           [77] loadnil    2   2      
0C15  22408001           [78] call       0   3   1  
0C19  13000000           [79] getupval   0   0      
0C1D  0EC04400           [80] gettable   0   0   275  ; -2016270516
0C21  22808000           [81] call       0   1   2  
0C25  18400000           [82] test       0       1    ; to [84] if false
0C29  1A400080           [83] jmp        2            ; to [86]
0C2D  1D000000           [84] getglobal  0   0        ; _T
0C31  0C80408A           [85] settable   0   276 258  ; "gNemesis" nil
0C35  1E008000           [86] return     0   1      
                         * constants:
0C39  15                 sizek (21)
0C3A  04                 const type 4
0C3B  03                 string size (3)
0C3C  5F5400             "_T\0"
                         const [0]: "_T"
0C3F  04                 const type 4
0C40  0F                 string size (15)
0C41  496E666F506F7075+  "InfoPopu"
0C49  705F4461746100     "p_Data\0"
                         const [1]: "InfoPopup_Data"
0C50  00                 const type 0
                         const [2]: nil
0C51  04                 const type 4
0C52  09                 string size (9)
0C53  67546F6F6C546970+  "gToolTip"
0C5B  00                 "\0"
                         const [3]: "gToolTip"
0C5C  01                 const type 3
0C5D  65770E40           const [4]: (1074689893)
0C61  04                 const type 4
0C62  0F                 string size (15)
0C63  486964654261636B+  "HideBack"
0C6B  67726F756E6400     "ground\0"
                         const [5]: "HideBackground"
0C72  01                 const type 3
0C73  996A5190           const [6]: (-1873712487)
0C77  01                 const type 3
0C78  85B1BBB4           const [7]: (-1262767739)
0C7C  01                 const type 3
0C7D  DC3CFB9A           const [8]: (-1694810916)
0C81  01                 const type 3
0C82  6CB98BA5           const [9]: (-1517569684)
0C86  04                 const type 4
0C87  0B                 string size (11)
0C88  6747616D6552756C+  "gGameRul"
0C90  657300             "es\0"
                         const [10]: "gGameRules"
0C93  04                 const type 4
0C94  0F                 string size (15)
0C95  44697361626C6555+  "DisableU"
0C9D  49496E70757400     "IInput\0"
                         const [11]: "DisableUIInput"
0CA4  01                 const type 3
0CA5  9BC3CB45           const [12]: (1170981787)
0CA9  01                 const type 3
0CAA  B32F8DB8           const [13]: (-1198706765)
0CAE  04                 const type 4
0CAF  15                 string size (21)
0CB0  5365745371756164+  "SetSquad"
0CB8  4F7665726C617954+  "OverlayT"
0CC0  69746C6500         "itle\0"
                         const [14]: "SetSquadOverlayTitle"
0CC5  01                 const type 3
0CC6  BD00A356           const [15]: (1453523133)
0CCA  04                 const type 4
0CCB  0B                 string size (11)
0CCC  536574427574746F+  "SetButto"
0CD4  6E7300             "ns\0"
                         const [16]: "SetButtons"
0CD7  01                 const type 3
0CD8  7EBFDFEF           const [17]: (-270549122)
0CDC  04                 const type 4
0CDD  07                 string size (7)
0CDE  6D4D6F76696500     "mMovie\0"
                         const [18]: "mMovie"
0CE5  01                 const type 3
0CE6  4C27D287           const [19]: (-2016270516)
0CEA  04                 const type 4
0CEB  09                 string size (9)
0CEC  674E656D65736973+  "gNemesis"
0CF4  00                 "\0"
                         const [20]: "gNemesis"
                         * functions:
0CF5  00                 sizep (0)
                         * lines:
0CF6  56                 sizelineinfo (86)
                         [pc] (line)
0CF7  4C                 [01] (76)
0CF8  00                 [02] (76)
0CF9  00                 [03] (77)
0CFA  00                 [04] (77)
0CFB  4C                 [05] (78)
0CFC  00                 [06] (78)
0CFD  00                 [07] (78)
0CFE  00                 [08] (78)
0CFF  4D                 [09] (78)
0D00  00                 [10] (78)
0D01  00                 [11] (79)
0D02  00                 [12] (79)
0D03  4D                 [13] (79)
0D04  00                 [14] (82)
0D05  00                 [15] (82)
0D06  00                 [16] (82)
0D07  4E                 [17] (82)
0D08  00                 [18] (83)
0D09  00                 [19] (83)
0D0A  00                 [20] (83)
0D0B  4E                 [21] (83)
0D0C  00                 [22] (85)
0D0D  00                 [23] (85)
0D0E  00                 [24] (85)
0D0F  4E                 [25] (85)
0D10  00                 [26] (85)
0D11  00                 [27] (86)
0D12  00                 [28] (86)
0D13  4E                 [29] (86)
0D14  00                 [30] (89)
0D15  00                 [31] (89)
0D16  00                 [32] (89)
0D17  4E                 [33] (89)
0D18  00                 [34] (89)
0D19  00                 [35] (89)
0D1A  00                 [36] (89)
0D1B  4E                 [37] (89)
0D1C  00                 [38] (90)
0D1D  00                 [39] (90)
0D1E  00                 [40] (90)
0D1F  4F                 [41] (90)
0D20  00                 [42] (90)
0D21  00                 [43] (90)
0D22  00                 [44] (91)
0D23  4F                 [45] (91)
0D24  00                 [46] (91)
0D25  00                 [47] (93)
0D26  00                 [48] (93)
0D27  4F                 [49] (93)
0D28  00                 [50] (96)
0D29  00                 [51] (96)
0D2A  00                 [52] (96)
0D2B  52                 [53] (96)
0D2C  00                 [54] (96)
0D2D  00                 [55] (96)
0D2E  00                 [56] (97)
0D2F  52                 [57] (97)
0D30  00                 [58] (97)
0D31  00                 [59] (100)
0D32  00                 [60] (100)
0D33  52                 [61] (100)
0D34  00                 [62] (100)
0D35  00                 [63] (100)
0D36  00                 [64] (100)
0D37  52                 [65] (101)
0D38  00                 [66] (101)
0D39  00                 [67] (101)
0D3A  00                 [68] (104)
0D3B  53                 [69] (104)
0D3C  00                 [70] (104)
0D3D  00                 [71] (104)
0D3E  00                 [72] (104)
0D3F  53                 [73] (104)
0D40  00                 [74] (105)
0D41  00                 [75] (105)
0D42  00                 [76] (105)
0D43  53                 [77] (105)
0D44  00                 [78] (105)
0D45  00                 [79] (108)
0D46  00                 [80] (108)
0D47  53                 [81] (108)
0D48  00                 [82] (108)
0D49  00                 [83] (108)
0D4A  00                 [84] (109)
0D4B  55                 [85] (109)
0D4C  00                 [86] (111)
                         * locals:
0E4F  00                 sizelocvars (0)
                         * upvalues:
0E50  00                 sizeupvalues (0)
                         ** end of function **

                         
0E51                     ** function [1] definition (level 2)
                         ** start of function **
0E51  00                 string size (0)
                         source name: (none)
0E52  71                 line defined (113)
0E53  74                 last line defined (116)
0E54  01                 nups (1)
0E55  01                 numparams (1)
0E56  00                 is_vararg (0)
0E57  04                 maxstacksize (4)
                         * code:
0E58  09                 sizecode (9)
0E59  53000000           [1] getupval   1   0      
0E5D  4C404080           [2] settable   1   256 257  ; "IsLoading" 1
0E61  53000000           [3] getupval   1   0      
0E65  9DC00000           [4] getglobal  2   3        ; UISys
0E69  8E004101           [5] gettable   2   2   260  ; 1151030240
0E6D  D2000000           [6] move       3   0      
0E71  A2800001           [7] call       2   2   2  
0E75  4C800081           [8] settable   1   258 2    ; "Loader"
0E79  1E008000           [9] return     0   1      
                         * constants:
0E7D  05                 sizek (5)
0E7E  04                 const type 4
0E7F  0A                 string size (10)
0E80  49734C6F6164696E+  "IsLoadin"
0E88  6700               "g\0"
                         const [0]: "IsLoading"
0E8A  01                 const type 3
0E8B  01000000           const [1]: (1)
0E8F  04                 const type 4
0E90  07                 string size (7)
0E91  4C6F6164657200     "Loader\0"
                         const [2]: "Loader"
0E98  04                 const type 4
0E99  06                 string size (6)
0E9A  554953797300       "UISys\0"
                         const [3]: "UISys"
0EA0  01                 const type 3
0EA1  E0539B44           const [4]: (1151030240)
                         * functions:
0EA5  00                 sizep (0)
                         * lines:
0EA6  09                 sizelineinfo (9)
                         [pc] (line)
0EA7  72                 [1] (114)
0EA8  00                 [2] (114)
0EA9  00                 [3] (115)
0EAA  00                 [4] (115)
0EAB  72                 [5] (115)
0EAC  00                 [6] (115)
0EAD  00                 [7] (115)
0EAE  00                 [8] (115)
0EAF  73                 [9] (116)
                         * locals:
0ECB  00                 sizelocvars (0)
                         * upvalues:
0ECC  00                 sizeupvalues (0)
                         ** end of function **

                         
0ECD                     ** function [2] definition (level 2)
                         ** start of function **
0ECD  00                 string size (0)
                         source name: (none)
0ECE  76                 line defined (118)
0ECF  81                 last line defined (129)
0ED0  01                 nups (4)
0ED1  04                 numparams (0)
0ED2  00                 is_vararg (0)
0ED3  00                 maxstacksize (6)
                         * code:
0ED5  25                 sizecode (37)
0ED6  1D000000           [01] getglobal  0   0        ; 1074689893
0EDA  53000000           [02] getupval   1   0      
0EDE  22800001           [03] call       0   2   2  
0EE2  18400000           [04] test       0       1    ; to [6] if false
0EE6  1A800780           [05] jmp        31           ; to [37]
0EEA  1D400000           [06] getglobal  0   1        ; -332969190
0EEE  59800000           [07] loadk      1   2        ; "MenuTaunt"
0EF2  22800001           [08] call       0   2   2  
0EF6  5DC00000           [09] getglobal  1   3        ; 2083004503
0EFA  93008000           [10] getupval   2   1      
0EFE  8E004101           [11] gettable   2   2   260  ; "mTransmissionSet"
0F02  62800001           [12] call       1   2   2  
0F06  6440C100           [13] self       1   1   261  ; -781703361
0F0A  D2000000           [14] move       3   0      
0F0E  62808001           [15] call       1   3   2  
0F12  9D000000           [16] getglobal  2   0        ; 1074689893
0F16  D2008000           [17] move       3   1      
0F1A  A2800001           [18] call       2   2   2  
0F1E  98400000           [19] test       2       1    ; to [21] if false
0F22  1AC00380           [20] jmp        16           ; to [37]
0F26  9DC00000           [21] getglobal  2   3        ; 2083004503
0F2A  D2008000           [22] move       3   1      
0F2E  A2800001           [23] call       2   2   2  
0F32  52000001           [24] move       1   2      
0F36  93000001           [25] getupval   2   2      
0F3A  8E804101           [26] gettable   2   2   262  ; -2060281269
0F3E  D2000000           [27] move       3   0      
0F42  17018000           [28] loadbool   4   1   0    ; true
0F46  A2408001           [29] call       2   3   1  
0F4A  93000000           [30] getupval   2   0      
0F4E  A4C04101           [31] self       2   2   263  ; 677420169
0F52  1D410000           [32] getglobal  4   1        ; -332969190
0F56  59010200           [33] loadk      5   8        ; "PLAY_MENU_TAUNT"
0F5A  22010001           [34] call       4   2   0  
0F5E  A2400000           [35] call       2   0   1  
fail op	8
0F62  48008001           [36] setupval   1   3      
0F66  1E008000           [37] return     0   1      
                         * constants:
0F6A  09                 sizek (9)
0F6B  01                 const type 3
0F6C  65770E40           const [0]: (1074689893)
0F70  01                 const type 3
0F71  1A4B27EC           const [1]: (-332969190)
0F75  04                 const type 4
0F76  0A                 string size (10)
0F77  4D656E755461756E+  "MenuTaun"
0F7F  7400               "t\0"
                         const [2]: "MenuTaunt"
0F81  01                 const type 3
0F82  5720287C           const [3]: (2083004503)
0F86  04                 const type 4
0F87  11                 string size (17)
0F88  6D5472616E736D69+  "mTransmi"
0F90  7373696F6E536574+  "ssionSet"
0F98  00                 "\0"
                         const [4]: "mTransmissionSet"
0F99  01                 const type 3
0F9A  3F2768D1           const [5]: (-781703361)
0F9E  01                 const type 3
0F9F  4B9A3285           const [6]: (-2060281269)
0FA3  01                 const type 3
0FA4  899C6028           const [7]: (677420169)
0FA8  04                 const type 4
0FA9  10                 string size (16)
0FAA  504C41595F4D454E+  "PLAY_MEN"
0FB2  555F5441554E5400   "U_TAUNT\0"
                         const [8]: "PLAY_MENU_TAUNT"
                         * functions:
0FBA  00                 sizep (0)
                         * lines:
0FBB  25                 sizelineinfo (37)
                         [pc] (line)
0FBC  77                 [01] (119)
0FBD  00                 [02] (119)
0FBE  00                 [03] (119)
0FBF  00                 [04] (119)
0FC0  77                 [05] (119)
0FC1  00                 [06] (120)
0FC2  00                 [07] (120)
0FC3  00                 [08] (120)
0FC4  77                 [09] (121)
0FC5  00                 [10] (121)
0FC6  00                 [11] (121)
0FC7  00                 [12] (121)
0FC8  77                 [13] (121)
0FC9  00                 [14] (121)
0FCA  00                 [15] (121)
0FCB  00                 [16] (122)
0FCC  77                 [17] (122)
0FCD  00                 [18] (122)
0FCE  00                 [19] (122)
0FCF  00                 [20] (122)
0FD0  78                 [21] (123)
0FD1  00                 [22] (123)
0FD2  00                 [23] (123)
0FD3  00                 [24] (123)
0FD4  78                 [25] (124)
0FD5  00                 [26] (124)
0FD6  00                 [27] (124)
0FD7  00                 [28] (124)
0FD8  78                 [29] (124)
0FD9  00                 [30] (125)
0FDA  00                 [31] (125)
0FDB  00                 [32] (125)
0FDC  79                 [33] (125)
0FDD  00                 [34] (125)
0FDE  00                 [35] (125)
0FDF  00                 [36] (126)
0FE0  79                 [37] (-127)
                         * locals:
1050  00                 sizelocvars (0)
                         * upvalues:
1051  00                 sizeupvalues (0)
                         ** end of function **

                         
1052                     ** function [3] definition (level 2)
                         ** start of function **
1052  00                 string size (0)
                         source name: (none)
1054  01                 line defined (131)
1055  92                 last line defined (146)
1056  01                 nups (1)
1057  01                 numparams (0)
1058  00                 is_vararg (0)
1059  00                 maxstacksize (11)
                         * code:
105B  64                 sizecode (100)
105C  13000000           [001] getupval   0   0      
1060  24004000           [002] self       0   0   256  ; -988128099
1064  22800001           [003] call       0   2   2  
1068  53000000           [004] getupval   1   0      
106C  4E40C000           [005] gettable   1   1   257  ; "mForcedVerticalSeparation"
1070  44400000           [006] mul        1   0   1  
1074  4380C000           [007] add        1   1   258  ; 0
1078  9DC00000           [008] getglobal  2   3        ; mMovie
107C  A4004101           [009] self       2   2   260  ; 471456102
1080  19410100           [010] loadk      4   5        ; "StatBlurer"
1084  59810100           [011] loadk      5   6        ; "_height"
1088  8DC1C100           [012] sub        6   1   263  ; 0
108C  A2408002           [013] call       2   5   1  
1090  9DC00000           [014] getglobal  2   3        ; mMovie
1094  A4004101           [015] self       2   2   260  ; 471456102
1098  19010200           [016] loadk      4   8        ; "StatBg"
109C  59810100           [017] loadk      5   6        ; "_height"
10A0  8D41C200           [018] sub        6   1   265  ; 0
10A4  A2408002           [019] call       2   5   1  
10A8  9D800200           [020] getglobal  2   10       ; 1390508688
10AC  DDC00000           [021] getglobal  3   3        ; mMovie
10B0  19C10200           [022] loadk      4   11       ; "PopUp.BottomAnimation"
10B4  5D010300           [023] getglobal  5   12       ; UISys
10B8  4E41C302           [024] gettable   5   5   269  ; "FlashInstance_EASE_IN_OUT_BACK"
10BC  8B018000           [025] newtable   6   1   0    ; array=1, hash=0
10C0  D9810300           [026] loadk      7   14       ; "_y"
10C4  9B418000           [027] setlist    6   1   1    ; index 1 to 1
10C8  CB018000           [028] newtable   7   1   0    ; array=1, hash=0
10CC  12028000           [029] move       8   1      
10D0  DB418000           [030] setlist    7   1   1    ; index 1 to 1
10D4  19C20300           [031] loadk      8   15       ; 0
10D8  59020400           [032] loadk      9   16       ; 0
10DC  A5020000           [033] closure    10  0      
10E0  A2408004           [034] call       2   9   1  
10E4  9D800200           [035] getglobal  2   10       ; 1390508688
10E8  DDC00000           [036] getglobal  3   3        ; mMovie
10EC  19010200           [037] loadk      4   8        ; "StatBg"
10F0  5D010300           [038] getglobal  5   12       ; UISys
10F4  4E41C402           [039] gettable   5   5   273  ; "FlashInstance_SMOOTH_STEP"
10F8  8B018000           [040] newtable   6   1   0    ; array=1, hash=0
10FC  D9810400           [041] loadk      7   18       ; "_alpha"
1100  9B418000           [042] setlist    6   1   1    ; index 1 to 1
1104  CB018000           [043] newtable   7   1   0    ; array=1, hash=0
1108  19C20100           [044] loadk      8   7        ; 0
110C  DB418000           [045] setlist    7   1   1    ; index 1 to 1
1110  19C20400           [046] loadk      8   19       ; 0
1114  A2408003           [047] call       2   7   1  
1118  9D800200           [048] getglobal  2   10       ; 1390508688
111C  DDC00000           [049] getglobal  3   3        ; mMovie
1120  19410100           [050] loadk      4   5        ; "StatBlurer"
1124  5D010300           [051] getglobal  5   12       ; UISys
1128  4E41C402           [052] gettable   5   5   273  ; "FlashInstance_SMOOTH_STEP"
112C  8B018000           [053] newtable   6   1   0    ; array=1, hash=0
1130  D9810400           [054] loadk      7   18       ; "_alpha"
1134  9B418000           [055] setlist    6   1   1    ; index 1 to 1
1138  CB018000           [056] newtable   7   1   0    ; array=1, hash=0
113C  19020500           [057] loadk      8   20       ; 0
1140  DB418000           [058] setlist    7   1   1    ; index 1 to 1
1144  19C20400           [059] loadk      8   19       ; 0
1148  A2408003           [060] call       2   7   1  
114C  9D800200           [061] getglobal  2   10       ; 1390508688
1150  DDC00000           [062] getglobal  3   3        ; mMovie
1154  19410500           [063] loadk      4   21       ; "StatList"
1158  5D010300           [064] getglobal  5   12       ; UISys
115C  4E41C402           [065] gettable   5   5   273  ; "FlashInstance_SMOOTH_STEP"
1160  8B018000           [066] newtable   6   1   0    ; array=1, hash=0
1164  D9810400           [067] loadk      7   18       ; "_alpha"
1168  9B418000           [068] setlist    6   1   1    ; index 1 to 1
116C  CB018000           [069] newtable   7   1   0    ; array=1, hash=0
1170  19020500           [070] loadk      8   20       ; 0
1174  DB418000           [071] setlist    7   1   1    ; index 1 to 1
1178  19C20400           [072] loadk      8   19       ; 0
117C  A2408003           [073] call       2   7   1  
1180  9D800200           [074] getglobal  2   10       ; 1390508688
1184  DDC00000           [075] getglobal  3   3        ; mMovie
1188  19810500           [076] loadk      4   22       ; "AbilityList"
118C  5D010300           [077] getglobal  5   12       ; UISys
1190  4E41C402           [078] gettable   5   5   273  ; "FlashInstance_SMOOTH_STEP"
1194  8B018000           [079] newtable   6   1   0    ; array=1, hash=0
1198  D9810400           [080] loadk      7   18       ; "_alpha"
119C  9B418000           [081] setlist    6   1   1    ; index 1 to 1
11A0  CB018000           [082] newtable   7   1   0    ; array=1, hash=0
11A4  19020500           [083] loadk      8   20       ; 0
11A8  DB418000           [084] setlist    7   1   1    ; index 1 to 1
11AC  19C20400           [085] loadk      8   19       ; 0
11B0  A2408003           [086] call       2   7   1  
11B4  9D800200           [087] getglobal  2   10       ; 1390508688
11B8  DDC00000           [088] getglobal  3   3        ; mMovie
11BC  19C10500           [089] loadk      4   23       ; "RageBarContainer"
11C0  5D010300           [090] getglobal  5   12       ; UISys
11C4  4E41C402           [091] gettable   5   5   273  ; "FlashInstance_SMOOTH_STEP"
11C8  8B018000           [092] newtable   6   1   0    ; array=1, hash=0
11CC  D9810400           [093] loadk      7   18       ; "_alpha"
11D0  9B418000           [094] setlist    6   1   1    ; index 1 to 1
11D4  CB018000           [095] newtable   7   1   0    ; array=1, hash=0
11D8  19020500           [096] loadk      8   20       ; 0
11DC  DB418000           [097] setlist    7   1   1    ; index 1 to 1
11E0  19C20400           [098] loadk      8   19       ; 0
11E4  A2408003           [099] call       2   7   1  
11E8  1E008000           [100] return     0   1      
                         * constants:
11EC  18                 sizek (24)
11ED  01                 const type 3
11EE  9D5C1AC5           const [0]: (-988128099)
11F2  04                 const type 4
11F3  1A                 string size (26)
11F4  6D466F7263656456+  "mForcedV"
11FC  6572746963616C53+  "erticalS"
1204  657061726174696F+  "eparatio"
120C  6E00               "n\0"
                         const [1]: "mForcedVerticalSeparation"
120E  03                 const type 3
120F  0000D242           const [2]: (0)
1213  04                 const type 4
1214  07                 string size (7)
1215  6D4D6F76696500     "mMovie\0"
                         const [3]: "mMovie"
121C  01                 const type 3
121D  66D9191C           const [4]: (471456102)
1221  04                 const type 4
1222  0B                 string size (11)
1223  53746174426C7572+  "StatBlur"
122B  657200             "er\0"
                         const [5]: "StatBlurer"
122E  04                 const type 4
122F  08                 string size (8)
1230  5F68656967687400   "_height\0"
                         const [6]: "_height"
1238  03                 const type 3
1239  00002042           const [7]: (0)
123D  04                 const type 4
123E  07                 string size (7)
123F  53746174426700     "StatBg\0"
                         const [8]: "StatBg"
1246  03                 const type 3
1247  00008C42           const [9]: (0)
124B  01                 const type 3
124C  907AE152           const [10]: (1390508688)
1250  04                 const type 4
1251  16                 string size (22)
1252  506F7055702E426F+  "PopUp.Bo"
125A  74746F6D416E696D+  "ttomAnim"
1262  6174696F6E00       "ation\0"
                         const [11]: "PopUp.BottomAnimation"
1268  04                 const type 4
1269  06                 string size (6)
126A  554953797300       "UISys\0"
                         const [12]: "UISys"
1270  04                 const type 4
1271  1F                 string size (31)
1272  466C617368496E73+  "FlashIns"
127A  74616E63655F4541+  "tance_EA"
1282  53455F494E5F4F55+  "SE_IN_OU"
128A  545F4241434B00     "T_BACK\0"
                         const [13]: "FlashInstance_EASE_IN_OUT_BACK"
1291  04                 const type 4
1292  03                 string size (3)
1293  5F7900             "_y\0"
                         const [14]: "_y"
1296  03                 const type 3
1297  0000803F           const [15]: (0)
129B  03                 const type 3
129C  00000000           const [16]: (0)
12A0  04                 const type 4
12A1  1A                 string size (26)
12A2  466C617368496E73+  "FlashIns"
12AA  74616E63655F534D+  "tance_SM"
12B2  4F4F54485F535445+  "OOTH_STE"
12BA  5000               "P\0"
                         const [17]: "FlashInstance_SMOOTH_STEP"
12BC  04                 const type 4
12BD  07                 string size (7)
12BE  5F616C70686100     "_alpha\0"
                         const [18]: "_alpha"
12C5  03                 const type 3
12C6  0000A03F           const [19]: (0)
12CA  03                 const type 3
12CB  0000C842           const [20]: (0)
12CF  04                 const type 4
12D0  09                 string size (9)
12D1  537461744C697374+  "StatList"
12D9  00                 "\0"
                         const [21]: "StatList"
12DA  04                 const type 4
12DB  0C                 string size (12)
12DC  4162696C6974794C+  "AbilityL"
12E4  69737400           "ist\0"
                         const [22]: "AbilityList"
12E8  04                 const type 4
12E9  11                 string size (17)
12EA  5261676542617243+  "RageBarC"
12F2  6F6E7461696E6572+  "ontainer"
12FA  00                 "\0"
                         const [23]: "RageBarContainer"
                         * functions:
12FB  01                 sizep (1)
                         
12FC                     ** function [0] definition (level 3)
                         ** start of function **
12FC  00                 string size (0)
                         source name: (none)
12FE  01                 line defined (138)
12FF  8C                 last line defined (140)
1300  01                 nups (0)
1301  00                 numparams (0)
1302  00                 is_vararg (0)
1303  00                 maxstacksize (4)
                         * code:
1305  06                 sizecode (6)
1306  1D000000           [1] getglobal  0   0        ; -1939558487
130A  5D400000           [2] getglobal  1   1        ; mMovie
130E  99800000           [3] loadk      2   2        ; "PopUp.BottomAnimation.gotoAndPlay"
1312  D9C00000           [4] loadk      3   3        ; 0
1316  22400002           [5] call       0   4   1  
131A  1E008000           [6] return     0   1      
                         * constants:
131E  04                 sizek (4)
131F  01                 const type 3
1320  A9AF648C           const [0]: (-1939558487)
1324  04                 const type 4
1325  07                 string size (7)
1326  6D4D6F76696500     "mMovie\0"
                         const [1]: "mMovie"
132D  04                 const type 4
132E  22                 string size (34)
132F  506F7055702E426F+  "PopUp.Bo"
1337  74746F6D416E696D+  "ttomAnim"
133F  6174696F6E2E676F+  "ation.go"
1347  746F416E64506C61+  "toAndPla"
134F  7900               "y\0"
                         const [2]: "PopUp.BottomAnimation.gotoAndPlay"
1351  03                 const type 3
1352  0000803F           const [3]: (0)
                         * functions:
1356  00                 sizep (0)
                         * lines:
1357  06                 sizelineinfo (6)
                         [pc] (line)
1358  8B                 [1] (-117)
1359  00                 [2] (-117)
135A  00                 [3] (-117)
135B  00                 [4] (-117)
135C  8B                 [5] (-117)
135D  00                 [6] (-116)
                         * locals:
1370  00                 sizelocvars (0)
                         * upvalues:
1371  00                 sizeupvalues (0)
                         ** end of function **

                         * lines:
1372  64                 sizelineinfo (100)
                         [pc] (line)
1373  84                 [001] (-124)
1374  00                 [002] (-124)
1375  00                 [003] (-124)
1376  00                 [004] (-123)
1377  84                 [005] (-123)
1378  00                 [006] (-123)
1379  00                 [007] (-123)
137A  00                 [008] (-121)
137B  84                 [009] (-121)
137C  00                 [010] (-121)
137D  00                 [011] (-121)
137E  00                 [012] (-121)
137F  85                 [013] (-121)
1380  00                 [014] (-120)
1381  00                 [015] (-120)
1382  00                 [016] (-120)
1383  85                 [017] (-120)
1384  00                 [018] (-120)
1385  00                 [019] (-120)
1386  00                 [020] (-119)
1387  85                 [021] (-119)
1388  00                 [022] (-119)
1389  00                 [023] (-119)
138A  00                 [024] (-119)
138B  85                 [025] (-119)
138C  00                 [026] (-119)
138D  00                 [027] (-119)
138E  00                 [028] (-119)
138F  87                 [029] (-119)
1390  00                 [030] (-119)
1391  00                 [031] (-119)
1392  00                 [032] (-119)
1393  87                 [033] (-116)
1394  00                 [034] (-119)
1395  00                 [035] (-115)
1396  00                 [036] (-115)
1397  87                 [037] (-115)
1398  00                 [038] (-115)
1399  00                 [039] (-115)
139A  00                 [040] (-115)
139B  87                 [041] (-115)
139C  00                 [042] (-115)
139D  00                 [043] (-115)
139E  00                 [044] (-115)
139F  87                 [045] (-115)
13A0  00                 [046] (-115)
13A1  00                 [047] (-115)
13A2  00                 [048] (-114)
13A3  87                 [049] (-114)
13A4  00                 [050] (-114)
13A5  00                 [051] (-114)
13A6  00                 [052] (-114)
13A7  88                 [053] (-114)
13A8  00                 [054] (-114)
13A9  00                 [055] (-114)
13AA  00                 [056] (-114)
13AB  88                 [057] (-114)
13AC  00                 [058] (-114)
13AD  00                 [059] (-114)
13AE  00                 [060] (-114)
13AF  88                 [061] (-113)
13B0  00                 [062] (-113)
13B1  00                 [063] (-113)
13B2  00                 [064] (-113)
13B3  88                 [065] (-113)
13B4  00                 [066] (-113)
13B5  00                 [067] (-113)
13B6  00                 [068] (-113)
13B7  88                 [069] (-113)
13B8  00                 [070] (-113)
13B9  00                 [071] (-113)
13BA  00                 [072] (-113)
13BB  88                 [073] (-113)
13BC  00                 [074] (-112)
13BD  00                 [075] (-112)
13BE  00                 [076] (-112)
13BF  89                 [077] (-112)
13C0  00                 [078] (-112)
13C1  00                 [079] (-112)
13C2  00                 [080] (-112)
13C3  89                 [081] (-112)
13C4  00                 [082] (-112)
13C5  00                 [083] (-112)
13C6  00                 [084] (-112)
13C7  89                 [085] (-112)
13C8  00                 [086] (-112)
13C9  00                 [087] (-111)
13CA  00                 [088] (-111)
13CB  89                 [089] (-111)
13CC  00                 [090] (-111)
13CD  00                 [091] (-111)
13CE  00                 [092] (-111)
13CF  89                 [093] (-111)
13D0  00                 [094] (-111)
13D1  00                 [095] (-111)
13D2  00                 [096] (-111)
13D3  89                 [097] (-111)
13D4  00                 [098] (-111)
13D5  00                 [099] (-111)
13D6  00                 [100] (-110)
                         * locals:
1503  00                 sizelocvars (0)
                         * upvalues:
1504  00                 sizeupvalues (0)
                         ** end of function **

                         
1505                     ** function [4] definition (level 2)
                         ** start of function **
1505  00                 string size (0)
                         source name: (none)
1507  01                 line defined (148)
1508  AA                 last line defined (170)
1509  01                 nups (3)
150A  03                 numparams (0)
150B  00                 is_vararg (0)
150C  00                 maxstacksize (19)
                         * code:
150E  4A                 sizecode (74)
150F  13000000           [01] getupval   0   0      
1513  0E004000           [02] gettable   0   0   256  ; "IconFocused"
1517  18000000           [03] test       0       0    ; to [5] if true
151B  1AC00180           [04] jmp        8            ; to [13]
151F  13000000           [05] getupval   0   0      
1523  53008000           [06] getupval   1   1      
1527  6480C000           [07] self       1   1   258  ; 1632191879
152B  D9C00000           [08] loadk      3   3        ; 0
152F  13010001           [09] getupval   4   2      
1533  62800002           [10] call       1   4   2  
1537  0C408080           [11] settable   0   257 1    ; "Timer"
153B  1E008000           [12] return     0   1      
153F  0B000000           [13] newtable   0   0   0    ; array=0, hash=0
1543  59000100           [14] loadk      1   4        ; 0
1547  99C00000           [15] loadk      2   3        ; 0
154B  D9000100           [16] loadk      3   4        ; 0
154F  50400380           [17] forprep    1   14       ; to [32]
1553  5D410100           [18] getglobal  5   5        ; table
1557  4E81C102           [19] gettable   5   5   262  ; -431682403
155B  92010000           [20] move       6   0      
155F  CB010001           [21] newtable   7   2   0    ; array=2, hash=0
1563  13020000           [22] getupval   8   0      
1567  0EC24104           [23] gettable   8   8   263  ; "Positions"
156B  0E020104           [24] gettable   8   8   4  
156F  0E024104           [25] gettable   8   8   260  ; 0
1573  53020000           [26] getupval   9   0      
1577  4EC2C104           [27] gettable   9   9   263  ; "Positions"
157B  4E028104           [28] gettable   9   9   4  
157F  4E02C204           [29] gettable   9   9   264  ; 0
1583  DB410001           [30] setlist    7   2   1    ; index 1 to 2
1587  62418001           [31] call       5   3   1  
158B  5400FC7F           [32] forloop    1   -15      ; to [18] if loop
158F  59010100           [33] loadk      5   4        ; 0
1593  99C10000           [34] loadk      6   3        ; 0
1597  D9010100           [35] loadk      7   4        ; 0
159B  50010780           [36] forprep    5   29       ; to [66]
159F  5D420200           [37] getglobal  9   9        ; 2144646525
15A3  99020100           [38] loadk      10  4        ; 0
15A7  CA020000           [39] len        11  0      
15AB  62828001           [40] call       9   3   2  
15AF  8E420200           [41] gettable   10  0   9  
15B3  DD820200           [42] getglobal  11  10       ; 1390508688
15B7  1DC30200           [43] getglobal  12  11       ; mMovie
15BB  59030300           [44] loadk      13  12       ; "Hint.Hint"
15BF  9D430300           [45] getglobal  14  13       ; -1615931716
15C3  D2030004           [46] move       15  8      
15C7  A2830001           [47] call       14  2   2  
15CB  42838306           [48] concat     13  13  14 
15CF  9D830300           [49] getglobal  14  14       ; UISys
15D3  8EC34307           [50] gettable   14  14  271  ; "FlashInstance_EASE_IN_OUT_BACK"
15D7  CB030001           [51] newtable   15  2   0    ; array=2, hash=0
15DB  19040400           [52] loadk      16  16       ; "_x"
15DF  59440400           [53] loadk      17  17       ; "_y"
15E3  DB430001           [54] setlist    15  2   1    ; index 1 to 2
15E7  0B040001           [55] newtable   16  2   0    ; array=2, hash=0
15EB  4E044105           [56] gettable   17  10  260  ; 0
15EF  8E044205           [57] gettable   18  10  264  ; 0
15F3  1B440001           [58] setlist    16  2   1    ; index 1 to 2
15F7  59040100           [59] loadk      17  4        ; 0
15FB  E2428003           [60] call       11  7   1  
15FF  DD420100           [61] getglobal  11  5        ; table
1603  CE82C405           [62] gettable   11  11  274  ; -843973282
1607  12030000           [63] move       12  0      
160B  52038004           [64] move       13  9      
160F  E2428001           [65] call       11  3   1  
1613  5441F87F           [66] forloop    5   -30      ; to [37] if loop
1617  D3020000           [67] getupval   11  0      
161B  13038000           [68] getupval   12  1      
161F  24834006           [69] self       12  12  258  ; 1632191879
1623  99C30000           [70] loadk      14  3        ; 0
1627  D3030001           [71] getupval   15  2      
162B  22830002           [72] call       12  4   2  
162F  CC028380           [73] settable   11  257 12   ; "Timer"
1633  1E008000           [74] return     0   1      
                         * constants:
1637  13                 sizek (19)
1638  04                 const type 4
1639  0C                 string size (12)
163A  49636F6E466F6375+  "IconFocu"
1642  73656400           "sed\0"
                         const [0]: "IconFocused"
1646  04                 const type 4
1647  06                 string size (6)
1648  54696D657200       "Timer\0"
                         const [1]: "Timer"
164E  01                 const type 3
164F  87454961           const [2]: (1632191879)
1653  03                 const type 3
1654  00004040           const [3]: (0)
1658  03                 const type 3
1659  0000803F           const [4]: (0)
165D  04                 const type 4
165E  06                 string size (6)
165F  7461626C6500       "table\0"
                         const [5]: "table"
1665  01                 const type 3
1666  9D0C45E6           const [6]: (-431682403)
166A  04                 const type 4
166B  0A                 string size (10)
166C  506F736974696F6E+  "Position"
1674  7300               "s\0"
                         const [7]: "Positions"
1676  03                 const type 3
1677  00000040           const [8]: (0)
167B  01                 const type 3
167C  7DB5D47F           const [9]: (2144646525)
1680  01                 const type 3
1681  907AE152           const [10]: (1390508688)
1685  04                 const type 4
1686  07                 string size (7)
1687  6D4D6F76696500     "mMovie\0"
                         const [11]: "mMovie"
168E  04                 const type 4
168F  0A                 string size (10)
1690  48696E742E48696E+  "Hint.Hin"
1698  7400               "t\0"
                         const [12]: "Hint.Hint"
169A  01                 const type 3
169B  BCD6AE9F           const [13]: (-1615931716)
169F  04                 const type 4
16A0  06                 string size (6)
16A1  554953797300       "UISys\0"
                         const [14]: "UISys"
16A7  04                 const type 4
16A8  1F                 string size (31)
16A9  466C617368496E73+  "FlashIns"
16B1  74616E63655F4541+  "tance_EA"
16B9  53455F494E5F4F55+  "SE_IN_OU"
16C1  545F4241434B00     "T_BACK\0"
                         const [15]: "FlashInstance_EASE_IN_OUT_BACK"
16C8  04                 const type 4
16C9  03                 string size (3)
16CA  5F7800             "_x\0"
                         const [16]: "_x"
16CD  04                 const type 4
16CE  03                 string size (3)
16CF  5F7900             "_y\0"
                         const [17]: "_y"
16D2  01                 const type 3
16D3  5EFDB1CD           const [18]: (-843973282)
                         * functions:
16D7  00                 sizep (0)
                         * lines:
16D8  4A                 sizelineinfo (74)
                         [pc] (line)
16D9  95                 [01] (-107)
16DA  00                 [02] (-107)
16DB  00                 [03] (-107)
16DC  00                 [04] (-107)
16DD  95                 [05] (-105)
16DE  00                 [06] (-105)
16DF  00                 [07] (-105)
16E0  00                 [08] (-105)
16E1  95                 [09] (-105)
16E2  00                 [10] (-105)
16E3  00                 [11] (-105)
16E4  00                 [12] (-103)
16E5  95                 [13] (-100)
16E6  00                 [14] (-99)
16E7  00                 [15] (-99)
16E8  00                 [16] (-99)
16E9  97                 [17] (-99)
16EA  00                 [18] (-98)
16EB  00                 [19] (-98)
16EC  00                 [20] (-98)
16ED  97                 [21] (-98)
16EE  00                 [22] (-98)
16EF  00                 [23] (-98)
16F0  00                 [24] (-98)
16F1  97                 [25] (-98)
16F2  00                 [26] (-98)
16F3  00                 [27] (-98)
16F4  00                 [28] (-98)
16F5  97                 [29] (-98)
16F6  00                 [30] (-98)
16F7  00                 [31] (-98)
16F8  00                 [32] (-99)
16F9  97                 [33] (-95)
16FA  00                 [34] (-95)
16FB  00                 [35] (-95)
16FC  00                 [36] (-95)
16FD  97                 [37] (-94)
16FE  00                 [38] (-94)
16FF  00                 [39] (-94)
1700  00                 [40] (-94)
1701  97                 [41] (-93)
1702  00                 [42] (-92)
1703  00                 [43] (-92)
1704  00                 [44] (-92)
1705  99                 [45] (-92)
1706  00                 [46] (-92)
1707  00                 [47] (-92)
1708  00                 [48] (-92)
1709  9C                 [49] (-92)
170A  00                 [50] (-92)
170B  00                 [51] (-92)
170C  00                 [52] (-92)
170D  9D                 [53] (-92)
170E  00                 [54] (-92)
170F  00                 [55] (-92)
1710  00                 [56] (-92)
1711  9D                 [57] (-92)
1712  00                 [58] (-92)
1713  00                 [59] (-92)
1714  00                 [60] (-92)
1715  9D                 [61] (-90)
1716  00                 [62] (-90)
1717  00                 [63] (-90)
1718  00                 [64] (-90)
1719  9D                 [65] (-90)
171A  00                 [66] (-95)
171B  00                 [67] (-87)
171C  00                 [68] (-87)
171D  9E                 [69] (-87)
171E  00                 [70] (-87)
171F  00                 [71] (-87)
1720  00                 [72] (-87)
1721  9E                 [73] (-87)
1722  00                 [74] (-86)
                         * locals:
1801  00                 sizelocvars (0)
                         * upvalues:
1802  00                 sizeupvalues (0)
                         ** end of function **

                         
1803                     ** function [5] definition (level 2)
                         ** start of function **
1803  00                 string size (0)
                         source name: (none)
1805  01                 line defined (172)
1806  D9                 last line defined (217)
1807  01                 nups (5)
1808  05                 numparams (1)
1809  01                 is_vararg (0)
180A  00                 maxstacksize (23)
                         * code:
180C  7E                 sizecode (126)
180D  4B000000           [001] newtable   1   0   0    ; array=0, hash=0
fail op	8
1811  48000000           [002] setupval   1   0      
1815  59000000           [003] loadk      1   0        ; 0
1819  9D400000           [004] getglobal  2   1        ; 1074689893
181D  D2000000           [005] move       3   0      
1821  A2800001           [006] call       2   2   2  
1825  98400000           [007] test       2       1    ; to [9] if false
1829  1A400380           [008] jmp        14           ; to [23]
182D  8E804000           [009] gettable   2   0   258  ; "mHints"
fail op	8
1831  88000000           [010] setupval   2   0      
1835  8EC04000           [011] gettable   2   0   259  ; "mHintProgress"
1839  D3008000           [012] getupval   3   1      
183D  CE00C101           [013] gettable   3   3   260  ; 70204522
1841  13010000           [014] getupval   4   0      
1845  0A010002           [015] len        4   4      
1849  E2800001           [016] call       3   2   2  
184D  5CC00001           [017] div        1   2   3  
1851  93000000           [018] getupval   2   0      
fail op	35
1855  23404101           [019] close      0  
1859  1A400080           [020] jmp        2            ; to [23]
185D  8B000000           [021] newtable   2   0   0    ; array=0, hash=0
fail op	8
1861  88000000           [022] setupval   2   0      
1865  99800100           [023] loadk      2   6        ; 0
1869  D9C00100           [024] loadk      3   7        ; 0
186D  19810100           [025] loadk      4   6        ; 0
1871  90C01780           [026] forprep    2   96       ; to [123]
1875  9D010200           [027] getglobal  6   8        ; emptyIcons
1879  8E814103           [028] gettable   6   6   262  ; 0
187D  DD010200           [029] getglobal  7   8        ; emptyIcons
1881  CE41C203           [030] gettable   7   7   265  ; 0
1885  13020001           [031] getupval   8   2      
1889  0E824204           [032] gettable   8   8   266  ; "Background1Color"
188D  59020000           [033] loadk      9   0        ; 0
1891  99C20200           [034] loadk      10  11       ; 0
1895  D7020000           [035] loadbool   11  0   0    ; false
1899  19030300           [036] loadk      12  12       ; "Hint.Hint"
189D  5D430300           [037] getglobal  13  13       ; -1615931716
18A1  92038002           [038] move       14  5      
18A5  62830001           [039] call       13  2   2  
18A9  02430306           [040] concat     12  12  13 
18AD  53030000           [041] getupval   13  0      
18B1  4E438106           [042] gettable   13  13  5  
fail op	35
18B5  6340C106           [043] close      1  
18B9  1A400480           [044] jmp        18           ; to [63]
18BD  53030000           [045] getupval   13  0      
18C1  4E438106           [046] gettable   13  13  5  
18C5  4383C106           [047] add        13  13  262  ; 0
18C9  9D830300           [048] getglobal  14  14       ; immortalMods
18CD  8E430307           [049] gettable   14  14  13 
18D1  A4C34307           [050] self       14  14  271  ; -240553170
18D5  A2830001           [051] call       14  2   2  
18D9  92010007           [052] move       6   14     
18DD  9D830300           [053] getglobal  14  14       ; immortalMods
18E1  8E430307           [054] gettable   14  14  13 
18E5  A4034407           [055] self       14  14  272  ; 1043469869
18E9  A2830001           [056] call       14  2   2  
18ED  D2010007           [057] move       7   14     
18F1  93030001           [058] getupval   14  2      
18F5  0E824207           [059] gettable   8   14  266  ; "Background1Color"
18F9  59420400           [060] loadk      9   17       ; 0
18FD  99820400           [061] loadk      10  18       ; 0
1901  1A800480           [062] jmp        19           ; to [82]
fail op	21
1905  15400080           [063] concat     0   256 1  
1909  1A000480           [064] jmp        17           ; to [82]
190D  93030001           [065] getupval   14  2      
1911  0E824207           [066] gettable   8   14  266  ; "Background1Color"
1915  59C20400           [067] loadk      9   19       ; 0
1919  99C20200           [068] loadk      10  11       ; 0
191D  9D030500           [069] getglobal  14  20       ; -1939558487
1921  DD430500           [070] getglobal  15  21       ; mMovie
1925  12040006           [071] move       16  12     
1929  59840500           [072] loadk      17  22       ; ".Progress.gotoAndStop"
192D  02440408           [073] concat     16  16  17 
1931  53048001           [074] getupval   17  3      
1935  4EC4C508           [075] gettable   17  17  279  ; -1250011425
1939  8484C400           [076] mul        18  1   274  ; 0
193D  62840001           [077] call       17  2   2  
1941  4384C108           [078] add        17  17  262  ; 0
1945  A2430002           [079] call       14  4   1  
1949  D7028000           [080] loadbool   11  1   0    ; true
194D  59000000           [081] loadk      1   0        ; 0
1951  92030006           [082] move       14  12     
1955  D9030600           [083] loadk      15  24       ; ".Icon"
1959  82C30307           [084] concat     14  14  15 
195D  DD430500           [085] getglobal  15  21       ; mMovie
1961  E443C607           [086] self       15  15  281  ; -2013161817
1965  52040006           [087] move       17  12     
1969  99840600           [088] loadk      18  26       ; "Progress"
196D  D9C40600           [089] loadk      19  27       ; "_visible"
1971  12058005           [090] move       20  11     
1975  E2430003           [091] call       15  6   1  
1979  DD430500           [092] getglobal  15  21       ; mMovie
197D  E403C707           [093] self       15  15  284  ; 643307062
1981  52040007           [094] move       17  14     
1985  92040003           [095] move       18  6      
1989  E2430002           [096] call       15  4   1  
198D  DD430500           [097] getglobal  15  21       ; mMovie
1991  E443C707           [098] self       15  15  285  ; -380388321
1995  52040007           [099] move       17  14     
1999  9D840700           [100] getglobal  18  30       ; -332969190
199D  D9C40700           [101] loadk      19  31       ; "DetailMap"
19A1  A2840001           [102] call       18  2   2  
19A5  D2048003           [103] move       19  7      
19A9  E2438002           [104] call       15  5   1  
19AD  DD430500           [105] getglobal  15  21       ; mMovie
19B1  E403C807           [106] self       15  15  288  ; 808102703
19B5  52040007           [107] move       17  14     
19B9  99440800           [108] loadk      18  33       ; "DetailMapTint"
19BD  CE844804           [109] gettable   19  8   290  ; "red"
19C1  DCC4C809           [110] div        19  19  291  ; 0
19C5  0E054904           [111] gettable   20  8   292  ; "green"
19C9  1CC5480A           [112] div        20  20  291  ; 0
19CD  4E454904           [113] gettable   21  8   293  ; "blue"
19D1  5CC5C80A           [114] div        21  21  291  ; 0
19D5  92058004           [115] move       22  9      
19D9  E2430004           [116] call       15  8   1  
19DD  DD430500           [117] getglobal  15  21       ; mMovie
19E1  E483C907           [118] self       15  15  294  ; 471456102
19E5  52040007           [119] move       17  14     
19E9  99C40900           [120] loadk      18  39       ; "_alpha"
19ED  D2040005           [121] move       19  10     
19F1  E2438002           [122] call       15  5   1  
19F5  9480E77F           [123] forloop    2   -97      ; to [27] if loop
19F9  D3030002           [124] getupval   15  4      
19FD  E2438000           [125] call       15  1   1  
1A01  1E008000           [126] return     0   1      
                         * constants:
1A05  28                 sizek (40)
1A06  03                 const type 3
1A07  00000000           const [0]: (0)
1A0B  01                 const type 3
1A0C  65770E40           const [1]: (1074689893)
1A10  04                 const type 4
1A11  07                 string size (7)
1A12  6D48696E747300     "mHints\0"
                         const [2]: "mHints"
1A19  04                 const type 4
1A1A  0E                 string size (14)
1A1B  6D48696E7450726F+  "mHintPro"
1A23  677265737300       "gress\0"
                         const [3]: "mHintProgress"
1A29  01                 const type 3
1A2A  6A3C2F04           const [4]: (70204522)
1A2E  00                 const type 0
                         const [5]: nil
1A2F  03                 const type 3
1A30  0000803F           const [6]: (0)
1A34  03                 const type 3
1A35  00004040           const [7]: (0)
1A39  04                 const type 4
1A3A  0B                 string size (11)
1A3B  656D70747949636F+  "emptyIco"
1A43  6E7300             "ns\0"
                         const [8]: "emptyIcons"
1A46  03                 const type 3
1A47  00000040           const [9]: (0)
1A4B  04                 const type 4
1A4C  11                 string size (17)
1A4D  4261636B67726F75+  "Backgrou"
1A55  6E6431436F6C6F72+  "nd1Color"
1A5D  00                 "\0"
                         const [10]: "Background1Color"
1A5E  03                 const type 3
1A5F  0000C841           const [11]: (0)
1A63  04                 const type 4
1A64  0A                 string size (10)
1A65  48696E742E48696E+  "Hint.Hin"
1A6D  7400               "t\0"
                         const [12]: "Hint.Hint"
1A6F  01                 const type 3
1A70  BCD6AE9F           const [13]: (-1615931716)
1A74  04                 const type 4
1A75  0D                 string size (13)
1A76  696D6D6F7274616C+  "immortal"
1A7E  4D6F647300         "Mods\0"
                         const [14]: "immortalMods"
1A83  01                 const type 3
1A84  2E73A9F1           const [15]: (-240553170)
1A88  01                 const type 3
1A89  2D16323E           const [16]: (1043469869)
1A8D  03                 const type 3
1A8E  0000403F           const [17]: (0)
1A92  03                 const type 3
1A93  0000C842           const [18]: (0)
1A97  03                 const type 3
1A98  0000A040           const [19]: (0)
1A9C  01                 const type 3
1A9D  A9AF648C           const [20]: (-1939558487)
1AA1  04                 const type 4
1AA2  07                 string size (7)
1AA3  6D4D6F76696500     "mMovie\0"
                         const [21]: "mMovie"
1AAA  04                 const type 4
1AAB  16                 string size (22)
1AAC  2E50726F67726573+  ".Progres"
1AB4  732E676F746F416E+  "s.gotoAn"
1ABC  6453746F7000       "dStop\0"
                         const [22]: ".Progress.gotoAndStop"
1AC2  01                 const type 3
1AC3  DF567EB5           const [23]: (-1250011425)
1AC7  04                 const type 4
1AC8  06                 string size (6)
1AC9  2E49636F6E00       ".Icon\0"
                         const [24]: ".Icon"
1ACF  01                 const type 3
1AD0  A7960188           const [25]: (-2013161817)
1AD4  04                 const type 4
1AD5  09                 string size (9)
1AD6  50726F6772657373+  "Progress"
1ADE  00                 "\0"
                         const [26]: "Progress"
1ADF  04                 const type 4
1AE0  09                 string size (9)
1AE1  5F76697369626C65+  "_visible"
1AE9  00                 "\0"
                         const [27]: "_visible"
1AEA  01                 const type 3
1AEB  36165826           const [28]: (643307062)
1AEF  01                 const type 3
1AF0  1FBC53E9           const [29]: (-380388321)
1AF4  01                 const type 3
1AF5  1A4B27EC           const [30]: (-332969190)
1AF9  04                 const type 4
1AFA  0A                 string size (10)
1AFB  44657461696C4D61+  "DetailMa"
1B03  7000               "p\0"
                         const [31]: "DetailMap"
1B05  01                 const type 3
1B06  2FAB2A30           const [32]: (808102703)
1B0A  04                 const type 4
1B0B  0E                 string size (14)
1B0C  44657461696C4D61+  "DetailMa"
1B14  7054696E7400       "pTint\0"
                         const [33]: "DetailMapTint"
1B1A  04                 const type 4
1B1B  04                 string size (4)
1B1C  72656400           "red\0"
                         const [34]: "red"
1B20  03                 const type 3
1B21  00007F43           const [35]: (0)
1B25  04                 const type 4
1B26  06                 string size (6)
1B27  677265656E00       "green\0"
                         const [36]: "green"
1B2D  04                 const type 4
1B2E  05                 string size (5)
1B2F  626C756500         "blue\0"
                         const [37]: "blue"
1B34  01                 const type 3
1B35  66D9191C           const [38]: (471456102)
1B39  04                 const type 4
1B3A  07                 string size (7)
1B3B  5F616C70686100     "_alpha\0"
                         const [39]: "_alpha"
                         * functions:
1B42  00                 sizep (0)
                         * lines:
1B43  7E                 sizelineinfo (126)
                         [pc] (line)
1B44  AD                 [001] (-83)
1B45  00                 [002] (-83)
1B46  00                 [003] (-82)
1B47  00                 [004] (-81)
1B48  AD                 [005] (-81)
1B49  00                 [006] (-81)
1B4A  00                 [007] (-81)
1B4B  00                 [008] (-81)
1B4C  AE                 [009] (-80)
1B4D  00                 [010] (-80)
1B4E  00                 [011] (-79)
1B4F  00                 [012] (-79)
1B50  AF                 [013] (-79)
1B51  00                 [014] (-79)
1B52  00                 [015] (-79)
1B53  00                 [016] (-79)
1B54  AF                 [017] (-79)
1B55  00                 [018] (-78)
1B56  00                 [019] (-78)
1B57  00                 [020] (-78)
1B58  AF                 [021] (-77)
1B59  00                 [022] (-77)
1B5A  00                 [023] (-72)
1B5B  00                 [024] (-72)
1B5C  AF                 [025] (-72)
1B5D  00                 [026] (-72)
1B5E  00                 [027] (-71)
1B5F  00                 [028] (-71)
1B60  AF                 [029] (-70)
1B61  00                 [030] (-70)
1B62  00                 [031] (-69)
1B63  00                 [032] (-69)
1B64  B0                 [033] (-68)
1B65  00                 [034] (-67)
1B66  00                 [035] (-66)
1B67  00                 [036] (-65)
1B68  B0                 [037] (-65)
1B69  00                 [038] (-65)
1B6A  00                 [039] (-65)
1B6B  00                 [040] (-65)
1B6C  B1                 [041] (-64)
1B6D  00                 [042] (-64)
1B6E  00                 [043] (-64)
1B6F  00                 [044] (-64)
1B70  B1                 [045] (-63)
1B71  00                 [046] (-63)
1B72  00                 [047] (-63)
1B73  00                 [048] (-62)
1B74  B1                 [049] (-62)
1B75  00                 [050] (-62)
1B76  00                 [051] (-62)
1B77  00                 [052] (-62)
1B78  B1                 [053] (-61)
1B79  00                 [054] (-61)
1B7A  00                 [055] (-61)
1B7B  00                 [056] (-61)
1B7C  B1                 [057] (-61)
1B7D  00                 [058] (-60)
1B7E  00                 [059] (-60)
1B7F  00                 [060] (-59)
1B80  B1                 [061] (-58)
1B81  00                 [062] (-58)
1B82  00                 [063] (-57)
1B83  00                 [064] (-57)
1B84  B1                 [065] (-56)
1B85  00                 [066] (-56)
1B86  00                 [067] (-55)
1B87  00                 [068] (-54)
1B88  B2                 [069] (-53)
1B89  00                 [070] (-53)
1B8A  00                 [071] (-53)
1B8B  00                 [072] (-53)
1B8C  B2                 [073] (-53)
1B8D  00                 [074] (-53)
1B8E  00                 [075] (-53)
1B8F  00                 [076] (-53)
1B90  B2                 [077] (-53)
1B91  00                 [078] (-53)
1B92  00                 [079] (-53)
1B93  00                 [080] (-52)
1B94  B3                 [081] (-51)
1B95  00                 [082] (-48)
1B96  00                 [083] (-48)
1B97  00                 [084] (-48)
1B98  B3                 [085] (-47)
1B99  00                 [086] (-47)
1B9A  00                 [087] (-47)
1B9B  00                 [088] (-47)
1B9C  B8                 [089] (-47)
1B9D  00                 [090] (-47)
1B9E  00                 [091] (-47)
1B9F  00                 [092] (-46)
1BA0  B8                 [093] (-46)
1BA1  00                 [094] (-46)
1BA2  00                 [095] (-46)
1BA3  00                 [096] (-46)
1BA4  B8                 [097] (-45)
1BA5  00                 [098] (-45)
1BA6  00                 [099] (-45)
1BA7  00                 [100] (-45)
1BA8  B8                 [101] (-45)
1BA9  00                 [102] (-45)
1BAA  00                 [103] (-45)
1BAB  00                 [104] (-45)
1BAC  B9                 [105] (-44)
1BAD  00                 [106] (-44)
1BAE  00                 [107] (-44)
1BAF  00                 [108] (-44)
1BB0  B9                 [109] (-44)
1BB1  00                 [110] (-44)
1BB2  00                 [111] (-44)
1BB3  00                 [112] (-44)
1BB4  BA                 [113] (-44)
1BB5  00                 [114] (-44)
1BB6  00                 [115] (-44)
1BB7  00                 [116] (-44)
1BB8  BA                 [117] (-43)
1BB9  00                 [118] (-43)
1BBA  00                 [119] (-43)
1BBB  00                 [120] (-43)
1BBC  BB                 [121] (-43)
1BBD  00                 [122] (-43)
1BBE  00                 [123] (-72)
1BBF  00                 [124] (-40)
1BC0  BB                 [125] (-40)
1BC1  00                 [126] (-39)
                         * locals:
1D3C  00                 sizelocvars (0)
                         * upvalues:
1D3D  00                 sizeupvalues (0)
                         ** end of function **

                         
1D3E                     ** function [6] definition (level 2)
                         ** start of function **
1D3E  00                 string size (0)
                         source name: (none)
1D40  01                 line defined (219)
1D41  E2                 last line defined (354)
1D42  02                 nups (12)
1D43  0C                 numparams (4)
1D44  04                 is_vararg (0)
1D45  00                 maxstacksize (37)
                         * code:
1D48  03                 sizecode (397)
1D49  13010000           [001] getupval   4   0      
1D4D  24014002           [002] self       4   4   256  ; 2096569603
1D51  97018000           [003] loadbool   6   1   0    ; true
1D55  D7018000           [004] loadbool   7   1   0    ; true
1D59  22410002           [005] call       4   4   1  
1D5D  25010000           [006] closure    4   0      
1D61  13000000           [007] getupval   0   0      
1D65  5D410000           [008] getglobal  5   1        ; 2083004503
1D69  8E814000           [009] gettable   6   0   258  ; "mPowerSuit"
1D6D  62810001           [010] call       5   2   2  
1D71  97010000           [011] loadbool   6   0   0    ; false
1D75  98010000           [012] test       6       0    ; to [14] if true
1D79  1A001080           [013] jmp        65           ; to [79]
1D7D  D3018000           [014] getupval   7   1      
1D81  D8010000           [015] test       7       0    ; to [17] if true
1D85  1A400580           [016] jmp        22           ; to [39]
1D89  D3010001           [017] getupval   7   2      
1D8D  D8010000           [018] test       7       0    ; to [20] if true
1D91  1A800280           [019] jmp        11           ; to [31]
1D95  D2010002           [020] move       7   4      
1D99  19C20000           [021] loadk      8   3        ; "Seed"
1D9D  5D020100           [022] getglobal  9   4        ; string
1DA1  4E42C104           [023] gettable   9   9   261  ; 1260343128
1DA5  99820100           [024] loadk      10  6        ; "%18.0f"
1DA9  D3028000           [025] getupval   11  1      
1DAD  62828001           [026] call       9   3   2  
1DB1  99C20100           [027] loadk      10  7        ; " (OVERRIDE)"
1DB5  42828204           [028] concat     9   9   10 
1DB9  E2418001           [029] call       7   3   1  
1DBD  1AC00180           [030] jmp        8            ; to [39]
1DC1  D2010002           [031] move       7   4      
1DC5  19C20000           [032] loadk      8   3        ; "Seed"
1DC9  5D020100           [033] getglobal  9   4        ; string
1DCD  4E42C104           [034] gettable   9   9   261  ; 1260343128
1DD1  99820100           [035] loadk      10  6        ; "%18.0f"
1DD5  D3028000           [036] getupval   11  1      
1DD9  62028001           [037] call       9   3   0  
1DDD  E2410000           [038] call       7   0   1  
1DE1  D2010002           [039] move       7   4      
1DE5  19020200           [040] loadk      8   8        ; "Agent"
1DE9  4E424200           [041] gettable   9   0   265  ; "mAgent"
1DED  6482C204           [042] self       9   9   266  ; 880936306
1DF1  62020001           [043] call       9   2   0  
1DF5  E2410000           [044] call       7   0   1  
1DF9  D2010002           [045] move       7   4      
1DFD  19C20200           [046] loadk      8   11       ; "PowerData"
1E01  6482C202           [047] self       9   5   266  ; 880936306
1E05  62020001           [048] call       9   2   0  
1E09  E2410000           [049] call       7   0   1  
1E0D  D2010002           [050] move       7   4      
1E11  19020300           [051] loadk      8   12       ; "Health"
1E15  53028001           [052] getupval   9   3      
1E19  4E42C304           [053] gettable   9   9   269  ; 2115597333
1E1D  8E824300           [054] gettable   10  0   270  ; "mScaledHealth"
1E21  62020001           [055] call       9   2   0  
1E25  E2410000           [056] call       7   0   1  
1E29  D2010002           [057] move       7   4      
1E2D  19C20300           [058] loadk      8   15       ; "Shield"
1E31  53028001           [059] getupval   9   3      
1E35  4E42C304           [060] gettable   9   9   269  ; 2115597333
1E39  8E024400           [061] gettable   10  0   272  ; "mScaledShield"
1E3D  62020001           [062] call       9   2   0  
1E41  E2410000           [063] call       7   0   1  
1E45  D2010002           [064] move       7   4      
1E49  19420400           [065] loadk      8   17       ; "Armor"
1E4D  53028001           [066] getupval   9   3      
1E51  4E42C304           [067] gettable   9   9   269  ; 2115597333
1E55  8E824400           [068] gettable   10  0   274  ; "mScaledArmor"
1E59  62020001           [069] call       9   2   0  
1E5D  E2410000           [070] call       7   0   1  
1E61  D2010002           [071] move       7   4      
1E65  19C20400           [072] loadk      8   19       ; "Speed"
1E69  53028001           [073] getupval   9   3      
1E6D  4E42C304           [074] gettable   9   9   269  ; 2115597333
1E71  8E024500           [075] gettable   10  0   276  ; "mScaledMovementSpeed"
1E75  D9420500           [076] loadk      11  21       ; 0
1E79  62028001           [077] call       9   3   0  
1E7D  E2410000           [078] call       7   0   1  
1E81  DD810500           [079] getglobal  7   22       ; 1074689893
1E85  12028002           [080] move       8   5      
1E89  E2810001           [081] call       7   2   2  
1E8D  D8410000           [082] test       7       1    ; to [84] if false
1E91  1A000980           [083] jmp        37           ; to [121]
1E95  CB010000           [084] newtable   7   0   0    ; array=0, hash=0
1E99  1D820500           [085] getglobal  8   22       ; 1074689893
1E9D  4EC24500           [086] gettable   9   0   279  ; "mExtraAbility"
1EA1  22820001           [087] call       8   2   2  
1EA5  18420000           [088] test       8       1    ; to [90] if false
1EA9  1A000180           [089] jmp        5            ; to [95]
1EAD  1D020600           [090] getglobal  8   24       ; table
1EB1  0E424604           [091] gettable   8   8   281  ; -431682403
1EB5  52028003           [092] move       9   7      
1EB9  8EC24500           [093] gettable   10  0   279  ; "mExtraAbility"
1EBD  22428001           [094] call       8   3   1  
1EC1  0E824600           [095] gettable   8   0   282  ; "mCustomization"
1EC5  24C24604           [096] self       8   8   283  ; -479391803
1EC9  9D020700           [097] getglobal  10  28       ; Lotus_Game
1ECD  8E424705           [098] gettable   10  10  285  ; "PrimaryColors"
1ED1  22828001           [099] call       8   3   2  
1ED5  53020002           [100] getupval   9   4      
1ED9  9DC20700           [101] getglobal  10  31       ; -1247440829
1EDD  CE024804           [102] gettable   11  8   288  ; "mEnergyColor"
1EE1  A2820001           [103] call       10  2   2  
1EE5  4C82028F           [104] settable   9   286 10   ; "mAbilityColor1"
1EE9  53020002           [105] getupval   9   4      
1EED  9DC20700           [106] getglobal  10  31       ; -1247440829
1EF1  CE824804           [107] gettable   11  8   290  ; "mEnergyColor1"
1EF5  A2820001           [108] call       10  2   2  
1EF9  4C828290           [109] settable   9   289 10   ; "mAbilityColor2"
1EFD  53020002           [110] getupval   9   4      
1F01  4C02C991           [111] settable   9   291 292  ; "mSkipAbilityColorGet" 1
1F05  53020002           [112] getupval   9   4      
1F09  6442C904           [113] self       9   9   293  ; -1234485493
1F0D  D2028002           [114] move       11  5      
1F11  17030000           [115] loadbool   12  0   0    ; false
1F15  57030000           [116] loadbool   13  0   0    ; false
1F19  97030000           [117] loadbool   14  0   0    ; false
1F1D  D7038000           [118] loadbool   15  1   0    ; true
1F21  12048003           [119] move       16  7      
1F25  62420004           [120] call       9   8   1  
1F29  65420000           [121] closure    9   1      
1F2D  13008002           [122] getupval   0   5      
1F31  12000002           [123] move       0   4      
1F35  92028004           [124] move       10  9      
1F39  DD820900           [125] getglobal  11  38       ; -764638816
1F3D  1DC30900           [126] getglobal  12  39       ; mMovie
1F41  24034A06           [127] self       12  12  296  ; 98241492
1F45  99430A00           [128] loadk      14  41       ; "/Game/WEAKNESSES"
1F49  D7030000           [129] loadbool   15  0   0    ; false
1F4D  22030002           [130] call       12  4   0  
1F51  E2820000           [131] call       11  0   2  
1F55  0E834A00           [132] gettable   12  0   298  ; "mWeaknesses"
1F59  A2428001           [133] call       10  3   1  
1F5D  92028004           [134] move       10  9      
1F61  DD820900           [135] getglobal  11  38       ; -764638816
1F65  1DC30900           [136] getglobal  12  39       ; mMovie
1F69  24034A06           [137] self       12  12  296  ; 98241492
1F6D  99C30A00           [138] loadk      14  43       ; "/Game/RESISTANCES"
1F71  D7030000           [139] loadbool   15  0   0    ; false
1F75  22030002           [140] call       12  4   0  
1F79  E2820000           [141] call       11  0   2  
1F7D  0E034B00           [142] gettable   12  0   300  ; "mResistances"
1F81  A2428001           [143] call       10  3   1  
1F85  92028004           [144] move       10  9      
1F89  DD820900           [145] getglobal  11  38       ; -764638816
1F8D  1DC30900           [146] getglobal  12  39       ; mMovie
1F91  24034A06           [147] self       12  12  296  ; 98241492
1F95  99430B00           [148] loadk      14  45       ; "/Game/IMMUNITIES"
1F99  D7030000           [149] loadbool   15  0   0    ; false
1F9D  22030002           [150] call       12  4   0  
1FA1  E2820000           [151] call       11  0   2  
1FA5  0E834B00           [152] gettable   12  0   302  ; "mImmunities"
1FA9  A2428001           [153] call       10  3   1  
1FAD  9D420000           [154] getglobal  10  1        ; 2083004503
1FB1  CEC24B00           [155] gettable   11  0   303  ; "mWeapon"
1FB5  A2820001           [156] call       10  2   2  
1FB9  D2020002           [157] move       11  4      
1FBD  1D830900           [158] getglobal  12  38       ; -764638816
1FC1  5DC30900           [159] getglobal  13  39       ; mMovie
1FC5  6403CA06           [160] self       13  13  296  ; 98241492
1FC9  D9030C00           [161] loadk      15  48       ; "/Lotus/Language/Menu/Global_ProductCategory_Weapon"
1FCD  17040000           [162] loadbool   16  0   0    ; false
1FD1  62030002           [163] call       13  4   0  
1FD5  22830000           [164] call       12  0   2  
1FD9  5DC30900           [165] getglobal  13  39       ; mMovie
1FDD  6403CA06           [166] self       13  13  296  ; 98241492
1FE1  E4434C05           [167] self       15  10  305  ; 1634497718
1FE5  E2830001           [168] call       15  2   2  
1FE9  E483CC07           [169] self       15  15  306  ; 1590141906
1FED  E2830001           [170] call       15  2   2  
1FF1  17040000           [171] loadbool   16  0   0    ; false
1FF5  62030002           [172] call       13  4   0  
1FF9  E2420000           [173] call       11  0   1  
1FFD  C6028005           [174] loadnil    11  11     
2001  19C30C00           [175] loadk      12  51       ; 0
2005  5D430000           [176] getglobal  13  1        ; 2083004503
2009  8E034D00           [177] gettable   14  0   308  ; "mWeaponUpgrade"
200D  62830001           [178] call       13  2   2  
2011  9D830500           [179] getglobal  14  22       ; 1074689893
2015  D2038006           [180] move       15  13     
2019  A2830001           [181] call       14  2   2  
201D  98430000           [182] test       14      1    ; to [184] if false
2021  1A800780           [183] jmp        31           ; to [215]
2025  A443CD06           [184] self       14  13  309  ; 1979356343
2029  0E844D00           [185] gettable   16  0   310  ; "mWeaponFingerprint"
202D  A2438001           [186] call       14  3   1  
2031  A4C3CD06           [187] self       14  13  311  ; 50729289
2035  A2830001           [188] call       14  2   2  
2039  D9430500           [189] loadk      15  21       ; 0
203D  12040007           [190] move       16  14     
2041  59440500           [191] loadk      17  21       ; 0
2045  D0030580           [192] forprep    15  21       ; to [214]
2049  E404CE06           [193] self       19  13  312  ; 955459000
204D  4D454509           [194] sub        21  18  277  ; 0
2051  E2848001           [195] call       19  3   2  
2055  13058002           [196] getupval   20  5      
2059  0E454E0A           [197] gettable   20  20  313  ; -265733958
205D  6485CE09           [198] self       21  19  314  ; -1773622680
2061  62050001           [199] call       21  2   0  
2065  22850000           [200] call       20  0   2  
2069  5DC50900           [201] getglobal  21  39       ; mMovie
206D  6405CA0A           [202] self       21  21  296  ; 98241492
2071  D9C50E00           [203] loadk      23  59       ; "<"
2075  1206000A           [204] move       24  20     
2079  59060F00           [205] loadk      25  60       ; ">"
207D  C245860B           [206] concat     23  23  25 
2081  17068000           [207] loadbool   24  1   0    ; true
2085  62850002           [208] call       21  4   2  
2089  D202800A           [209] move       11  21     
208D  6445CF09           [210] self       21  19  317  ; -1378524997
2091  62850001           [211] call       21  2   2  
2095  1203800A           [212] move       12  21     
2099  1A000080           [213] jmp        1            ; to [215]
209D  D443FA7F           [214] forloop    15  -22      ; to [193] if loop
fail op	35
20A1  6380CF05           [215] close      1  
20A5  1A000480           [216] jmp        17           ; to [234]
20A9  53058001           [217] getupval   21  3      
20AD  4E45C30A           [218] gettable   21  21  269  ; 2115597333
20B1  84C54F06           [219] mul        22  12  319  ; 0
20B5  62850001           [220] call       21  2   2  
20B9  99051000           [221] loadk      22  64       ; "%"
20BD  0283850A           [222] concat     12  21  22 
20C1  52050002           [223] move       21  4      
20C5  9DC50900           [224] getglobal  22  39       ; mMovie
20C9  A4054A0B           [225] self       22  22  296  ; 98241492
20CD  19461000           [226] loadk      24  65       ; "/Lotus/Language/Kingpins/NemesisView_StatWeaponBonus"
20D1  57060000           [227] loadbool   25  0   0    ; false
20D5  A2850002           [228] call       22  4   2  
20D9  D2058005           [229] move       23  11     
20DD  19861000           [230] loadk      24  66       ; " "
20E1  52060006           [231] move       25  12     
20E5  C245860B           [232] concat     23  23  25 
20E9  62458001           [233] call       21  3   1  
20ED  53058002           [234] getupval   21  5      
20F1  4EC5D00A           [235] gettable   21  21  323  ; -1153782542
20F5  62858000           [236] call       21  1   2  
20F9  9D850500           [237] getglobal  22  22       ; 1074689893
20FD  D205800A           [238] move       23  21     
2101  A2850001           [239] call       22  2   2  
2105  98450000           [240] test       22      1    ; to [242] if false
2109  1A800380           [241] jmp        15           ; to [257]
210D  92050002           [242] move       22  4      
2111  DDC50900           [243] getglobal  23  39       ; mMovie
2115  E405CA0B           [244] self       23  23  296  ; 98241492
2119  59061100           [245] loadk      25  68       ; "/Lotus/Language/Kingpins/NemesisView_StatBirthplace"
211D  97060000           [246] loadbool   26  0   0    ; false
2121  E2850002           [247] call       23  4   2  
2125  1D461100           [248] getglobal  24  69       ; -421772368
2129  6486D10A           [249] self       25  21  326  ; -361267831
212D  CEC6D100           [250] gettable   27  1   327  ; "birthNode"
2131  62868001           [251] call       25  3   2  
2135  6486CC0C           [252] self       25  25  306  ; 1590141906
2139  62860001           [253] call       25  2   2  
213D  97060000           [254] loadbool   26  0   0    ; false
2141  22068001           [255] call       24  3   0  
2145  A2450000           [256] call       22  0   1  
2149  9D450000           [257] getglobal  22  1        ; 2083004503
214D  CE05D200           [258] gettable   23  1   328  ; "killingPowersuitType"
2151  A2850001           [259] call       22  2   2  
2155  D2050002           [260] move       23  4      
2159  1DC60900           [261] getglobal  24  39       ; mMovie
215D  24064A0C           [262] self       24  24  296  ; 98241492
2161  99461200           [263] loadk      26  73       ; "/Lotus/Language/Kingpins/NemesisView_StatProgenitor"
2165  D7060000           [264] loadbool   27  0   0    ; false
2169  22860002           [265] call       24  4   2  
216D  5DC60900           [266] getglobal  25  39       ; mMovie
2171  6406CA0C           [267] self       25  25  296  ; 98241492
2175  E4464C0B           [268] self       27  22  305  ; 1634497718
2179  E2860001           [269] call       27  2   2  
217D  E486CC0D           [270] self       27  27  306  ; 1590141906
2181  E2860001           [271] call       27  2   2  
2185  17070000           [272] loadbool   28  0   0    ; false
2189  62060002           [273] call       25  4   0  
218D  E2450000           [274] call       23  0   1  
2191  DDC50900           [275] getglobal  23  39       ; mMovie
2195  E485D20B           [276] self       23  23  330  ; 471456102
2199  59C61200           [277] loadk      25  75       ; "Popup.Rank.Label"
219D  99061300           [278] loadk      26  76       ; "text"
21A1  D3068001           [279] getupval   27  3      
21A5  CE46C30D           [280] gettable   27  27  269  ; 2115597333
21A9  0E475301           [281] gettable   28  2   333  ; "rank"
21AD  0347450E           [282] add        28  28  277  ; 0
21B1  E2060001           [283] call       27  2   0  
21B5  E2450000           [284] call       23  0   1  
21B9  D9450500           [285] loadk      23  21       ; 0
21BD  0E865300           [286] gettable   24  0   334  ; "mTraits"
21C1  0A06000C           [287] len        24  24     
21C5  59460500           [288] loadk      25  21       ; 0
21C9  D0450680           [289] forprep    23  26       ; to [316]
21CD  CE865300           [290] gettable   27  0   334  ; "mTraits"
21D1  CE86860D           [291] gettable   27  27  26 
21D5  1D870500           [292] getglobal  28  22       ; 1074689893
21D9  5207800D           [293] move       29  27     
21DD  22870001           [294] call       28  2   2  
21E1  18470000           [295] test       28      1    ; to [297] if false
21E5  1A800480           [296] jmp        19           ; to [316]
21E9  1D470000           [297] getglobal  28  1        ; 2083004503
21ED  5207800D           [298] move       29  27     
21F1  22870001           [299] call       28  2   2  
21F5  24474C0E           [300] self       28  28  305  ; 1634497718
21F9  22870001           [301] call       28  2   2  
21FD  5DC70900           [302] getglobal  29  39       ; mMovie
2201  6407CA0E           [303] self       29  29  296  ; 98241492
2205  E4874C0E           [304] self       31  28  306  ; 1590141906
2209  E2870001           [305] call       31  2   2  
220D  17088000           [306] loadbool   32  1   0    ; true
2211  62870002           [307] call       29  4   2  
2215  92070002           [308] move       30  4      
2219  DDC70900           [309] getglobal  31  39       ; mMovie
221D  E407CA0F           [310] self       31  31  296  ; 98241492
2221  59C81300           [311] loadk      33  79       ; "/Lotus/Language/Kingpins/NemesisView_Trait"
2225  97080000           [312] loadbool   34  0   0    ; false
2229  E2870002           [313] call       31  4   2  
222D  1208800E           [314] move       32  29     
2231  A2478001           [315] call       30  3   1  
2235  D405F97F           [316] forloop    23  -27      ; to [290] if loop
2239  9D870500           [317] getglobal  30  22       ; 1074689893
223D  CE075400           [318] gettable   31  0   336  ; "mQuirk"
2241  A2870001           [319] call       30  2   2  
2245  98470000           [320] test       30      1    ; to [322] if false
2249  1A800480           [321] jmp        19           ; to [341]
224D  9D470000           [322] getglobal  30  1        ; 2083004503
2251  CE075400           [323] gettable   31  0   336  ; "mQuirk"
2255  A2870001           [324] call       30  2   2  
2259  A4474C0F           [325] self       30  30  305  ; 1634497718
225D  A2870001           [326] call       30  2   2  
2261  DDC70900           [327] getglobal  31  39       ; mMovie
2265  E407CA0F           [328] self       31  31  296  ; 98241492
2269  64884C0F           [329] self       33  30  306  ; 1590141906
226D  62880001           [330] call       33  2   2  
2271  97088000           [331] loadbool   34  1   0    ; true
2275  E2870002           [332] call       31  4   2  
2279  12080002           [333] move       32  4      
227D  5DC80900           [334] getglobal  33  39       ; mMovie
2281  6408CA10           [335] self       33  33  296  ; 98241492
2285  D9481400           [336] loadk      35  81       ; "/Lotus/Language/Kingpins/NemesisView_Quirk"
2289  17090000           [337] loadbool   36  0   0    ; false
228D  62880002           [338] call       33  4   2  
2291  9208800F           [339] move       34  31     
2295  22488001           [340] call       32  3   1  
2299  1DC80900           [341] getglobal  32  39       ; mMovie
229D  24885210           [342] self       32  32  330  ; 471456102
22A1  99C81200           [343] loadk      34  75       ; "Popup.Rank.Label"
22A5  D9881400           [344] loadk      35  82       ; "textColor"
22A9  1DC91400           [345] getglobal  36  83       ; _G
22AD  0E095512           [346] gettable   36  36  340  ; "UIColor_White"
22B1  22488002           [347] call       32  5   1  
22B5  1DC80900           [348] getglobal  32  39       ; mMovie
22B9  24885210           [349] self       32  32  330  ; 471456102
22BD  99481500           [350] loadk      34  85       ; "PopUp.Name.Label"
22C1  D9081300           [351] loadk      35  76       ; "text"
22C5  0E895501           [352] gettable   36  2   342  ; "name"
22C9  22488002           [353] call       32  5   1  
22CD  13080000           [354] getupval   32  0      
22D1  24C85510           [355] self       32  32  343  ; 1685109492
22D5  22480001           [356] call       32  2   1  
22D9  13080003           [357] getupval   32  6      
22DD  52088001           [358] move       33  3      
22E1  22480001           [359] call       32  2   1  
22E5  1DC80900           [360] getglobal  32  39       ; mMovie
22E9  24885210           [361] self       32  32  330  ; 471456102
22ED  99081600           [362] loadk      34  88       ; "Hint"
22F1  D9481600           [363] loadk      35  89       ; "_visible"
22F5  13098003           [364] getupval   36  7      
fail op	9
22F9  09090012           [365] settable   36  36  0  
22FD  22488002           [366] call       32  5   1  
2301  13088003           [367] getupval   32  7      
2305  18480000           [368] test       32      1    ; to [370] if false
2309  1A800080           [369] jmp        3            ; to [373]
230D  13080004           [370] getupval   32  8      
2311  52088001           [371] move       33  3      
2315  22480001           [372] call       32  2   1  
2319  1D881600           [373] getglobal  32  90       ; -1939558487
231D  5DC80900           [374] getglobal  33  39       ; mMovie
2321  99C81600           [375] loadk      34  91       ; "Popup.gotoAndPlay"
2325  D9480500           [376] loadk      35  21       ; 0
2329  22480002           [377] call       32  4   1  
232D  13088004           [378] getupval   32  9      
2331  24085710           [379] self       32  32  348  ; 1632191879
2335  99481700           [380] loadk      34  93       ; -51
2339  D3080005           [381] getupval   35  10     
233D  22480002           [382] call       32  4   1  
2341  13088004           [383] getupval   32  9      
2345  24085710           [384] self       32  32  348  ; 1632191879
2349  99480500           [385] loadk      34  21       ; 0
234D  D3088005           [386] getupval   35  11     
2351  22480002           [387] call       32  4   1  
2355  1D880500           [388] getglobal  32  22       ; 1074689893
2359  5D881700           [389] getglobal  33  94       ; logoSound
235D  22880001           [390] call       32  2   2  
2361  18480000           [391] test       32      1    ; to [393] if false
2365  1AC00080           [392] jmp        4            ; to [397]
2369  13088001           [393] getupval   32  3      
236D  0EC85710           [394] gettable   32  32  351  ; 630793108
2371  5D881700           [395] getglobal  33  94       ; logoSound
2375  22480001           [396] call       32  2   1  
2379  1E008000           [397] return     0   1      
                         * constants:
237D  60                 sizek (96)
237E  01                 const type 3
237F  031DF77C           const [0]: (2096569603)
2383  01                 const type 3
2384  5720287C           const [1]: (2083004503)
2388  04                 const type 4
2389  0B                 string size (11)
238A  6D506F7765725375+  "mPowerSu"
2392  697400             "it\0"
                         const [2]: "mPowerSuit"
2395  04                 const type 4
2396  05                 string size (5)
2397  5365656400         "Seed\0"
                         const [3]: "Seed"
239C  04                 const type 4
239D  07                 string size (7)
239E  737472696E6700     "string\0"
                         const [4]: "string"
23A5  01                 const type 3
23A6  584F1F4B           const [5]: (1260343128)
23AA  04                 const type 4
23AB  07                 string size (7)
23AC  2531382E306600     "%18.0f\0"
                         const [6]: "%18.0f"
23B3  04                 const type 4
23B4  0C                 string size (12)
23B5  20284F5645525249+  " (OVERRI"
23BD  44452900           "DE)\0"
                         const [7]: " (OVERRIDE)"
23C1  04                 const type 4
23C2  06                 string size (6)
23C3  4167656E7400       "Agent\0"
                         const [8]: "Agent"
23C9  04                 const type 4
23CA  07                 string size (7)
23CB  6D4167656E7400     "mAgent\0"
                         const [9]: "mAgent"
23D2  01                 const type 3
23D3  72058234           const [10]: (880936306)
23D7  04                 const type 4
23D8  0A                 string size (10)
23D9  506F776572446174+  "PowerDat"
23E1  6100               "a\0"
                         const [11]: "PowerData"
23E3  04                 const type 4
23E4  07                 string size (7)
23E5  4865616C746800     "Health\0"
                         const [12]: "Health"
23EC  01                 const type 3
23ED  1574197E           const [13]: (2115597333)
23F1  04                 const type 4
23F2  0E                 string size (14)
23F3  6D5363616C656448+  "mScaledH"
23FB  65616C746800       "ealth\0"
                         const [14]: "mScaledHealth"
2401  04                 const type 4
2402  07                 string size (7)
2403  536869656C6400     "Shield\0"
                         const [15]: "Shield"
240A  04                 const type 4
240B  0E                 string size (14)
240C  6D5363616C656453+  "mScaledS"
2414  6869656C6400       "hield\0"
                         const [16]: "mScaledShield"
241A  04                 const type 4
241B  06                 string size (6)
241C  41726D6F7200       "Armor\0"
                         const [17]: "Armor"
2422  04                 const type 4
2423  0D                 string size (13)
2424  6D5363616C656441+  "mScaledA"
242C  726D6F7200         "rmor\0"
                         const [18]: "mScaledArmor"
2431  04                 const type 4
2432  06                 string size (6)
2433  537065656400       "Speed\0"
                         const [19]: "Speed"
2439  04                 const type 4
243A  15                 string size (21)
243B  6D5363616C65644D+  "mScaledM"
2443  6F76656D656E7453+  "ovementS"
244B  7065656400         "peed\0"
                         const [20]: "mScaledMovementSpeed"
2450  03                 const type 3
2451  0000803F           const [21]: (0)
2455  01                 const type 3
2456  65770E40           const [22]: (1074689893)
245A  04                 const type 4
245B  0E                 string size (14)
245C  6D45787472614162+  "mExtraAb"
2464  696C69747900       "ility\0"
                         const [23]: "mExtraAbility"
246A  04                 const type 4
246B  06                 string size (6)
246C  7461626C6500       "table\0"
                         const [24]: "table"
2472  01                 const type 3
2473  9D0C45E6           const [25]: (-431682403)
2477  04                 const type 4
2478  0F                 string size (15)
2479  6D437573746F6D69+  "mCustomi"
2481  7A6174696F6E00     "zation\0"
                         const [26]: "mCustomization"
2488  01                 const type 3
2489  C50F6DE3           const [27]: (-479391803)
248D  04                 const type 4
248E  0B                 string size (11)
248F  4C6F7475735F4761+  "Lotus_Ga"
2497  6D6500             "me\0"
                         const [28]: "Lotus_Game"
249A  04                 const type 4
249B  0E                 string size (14)
249C  5072696D61727943+  "PrimaryC"
24A4  6F6C6F727300       "olors\0"
                         const [29]: "PrimaryColors"
24AA  04                 const type 4
24AB  0F                 string size (15)
24AC  6D4162696C697479+  "mAbility"
24B4  436F6C6F723100     "Color1\0"
                         const [30]: "mAbilityColor1"
24BB  01                 const type 3
24BC  4390A5B5           const [31]: (-1247440829)
24C0  04                 const type 4
24C1  0D                 string size (13)
24C2  6D456E6572677943+  "mEnergyC"
24CA  6F6C6F7200         "olor\0"
                         const [32]: "mEnergyColor"
24CF  04                 const type 4
24D0  0F                 string size (15)
24D1  6D4162696C697479+  "mAbility"
24D9  436F6C6F723200     "Color2\0"
                         const [33]: "mAbilityColor2"
24E0  04                 const type 4
24E1  0E                 string size (14)
24E2  6D456E6572677943+  "mEnergyC"
24EA  6F6C6F723100       "olor1\0"
                         const [34]: "mEnergyColor1"
24F0  04                 const type 4
24F1  15                 string size (21)
24F2  6D536B6970416269+  "mSkipAbi"
24FA  6C697479436F6C6F+  "lityColo"
2502  7247657400         "rGet\0"
                         const [35]: "mSkipAbilityColorGet"
2507  01                 const type 3
2508  01000000           const [36]: (1)
250C  01                 const type 3
250D  0B3F6BB6           const [37]: (-1234485493)
2511  01                 const type 3
2512  A0896CD2           const [38]: (-764638816)
2516  04                 const type 4
2517  07                 string size (7)
2518  6D4D6F76696500     "mMovie\0"
                         const [39]: "mMovie"
251F  01                 const type 3
2520  D40BDB05           const [40]: (98241492)
2524  04                 const type 4
2525  11                 string size (17)
2526  2F47616D652F5745+  "/Game/WE"
252E  414B4E4553534553+  "AKNESSES"
2536  00                 "\0"
                         const [41]: "/Game/WEAKNESSES"
2537  04                 const type 4
2538  0C                 string size (12)
2539  6D5765616B6E6573+  "mWeaknes"
2541  73657300           "ses\0"
                         const [42]: "mWeaknesses"
2545  04                 const type 4
2546  12                 string size (18)
2547  2F47616D652F5245+  "/Game/RE"
254F  53495354414E4345+  "SISTANCE"
2557  5300               "S\0"
                         const [43]: "/Game/RESISTANCES"
2559  04                 const type 4
255A  0D                 string size (13)
255B  6D52657369737461+  "mResista"
2563  6E63657300         "nces\0"
                         const [44]: "mResistances"
2568  04                 const type 4
2569  11                 string size (17)
256A  2F47616D652F494D+  "/Game/IM"
2572  4D554E4954494553+  "MUNITIES"
257A  00                 "\0"
                         const [45]: "/Game/IMMUNITIES"
257B  04                 const type 4
257C  0C                 string size (12)
257D  6D496D6D756E6974+  "mImmunit"
2585  69657300           "ies\0"
                         const [46]: "mImmunities"
2589  04                 const type 4
258A  08                 string size (8)
258B  6D576561706F6E00   "mWeapon\0"
                         const [47]: "mWeapon"
2593  04                 const type 4
2594  33                 string size (51)
2595  2F4C6F7475732F4C+  "/Lotus/L"
259D  616E67756167652F+  "anguage/"
25A5  4D656E752F476C6F+  "Menu/Glo"
25AD  62616C5F50726F64+  "bal_Prod"
25B5  7563744361746567+  "uctCateg"
25BD  6F72795F57656170+  "ory_Weap"
25C5  6F6E00             "on\0"
                         const [48]: "/Lotus/Language/Menu/Global_ProductCategory_Weapon"
25C8  01                 const type 3
25C9  B6746C61           const [49]: (1634497718)
25CD  01                 const type 3
25CE  D2A3C75E           const [50]: (1590141906)
25D2  03                 const type 3
25D3  00000000           const [51]: (0)
25D7  04                 const type 4
25D8  0F                 string size (15)
25D9  6D576561706F6E55+  "mWeaponU"
25E1  70677261646500     "pgrade\0"
                         const [52]: "mWeaponUpgrade"
25E8  01                 const type 3
25E9  B794FA75           const [53]: (1979356343)
25ED  04                 const type 4
25EE  13                 string size (19)
25EF  6D576561706F6E46+  "mWeaponF"
25F7  696E676572707269+  "ingerpri"
25FF  6E7400             "nt\0"
                         const [54]: "mWeaponFingerprint"
2602  01                 const type 3
2603  49110603           const [55]: (50729289)
2607  01                 const type 3
2608  B825F338           const [56]: (955459000)
260C  01                 const type 3
260D  BA3829F0           const [57]: (-265733958)
2611  01                 const type 3
2612  68AA4896           const [58]: (-1773622680)
2616  04                 const type 4
2617  02                 string size (2)
2618  3C00               "<\0"
                         const [59]: "<"
261A  04                 const type 4
261B  02                 string size (2)
261C  3E00               ">\0"
                         const [60]: ">"
261E  01                 const type 3
261F  BB60D5AD           const [61]: (-1378524997)
2623  00                 const type 0
                         const [62]: nil
2624  03                 const type 3
2625  0000C842           const [63]: (0)
2629  04                 const type 4
262A  02                 string size (2)
262B  2500               "%\0"
                         const [64]: "%"
262D  04                 const type 4
262E  35                 string size (53)
262F  2F4C6F7475732F4C+  "/Lotus/L"
2637  616E67756167652F+  "anguage/"
263F  4B696E6770696E73+  "Kingpins"
2647  2F4E656D65736973+  "/Nemesis"
264F  566965775F537461+  "View_Sta"
2657  74576561706F6E42+  "tWeaponB"
265F  6F6E757300         "onus\0"
                         const [65]: "/Lotus/Language/Kingpins/NemesisView_StatWeaponBonus"
2664  04                 const type 4
2665  02                 string size (2)
2666  2000               " \0"
                         const [66]: " "
2668  01                 const type 3
2669  F2AC3ABB           const [67]: (-1153782542)
266D  04                 const type 4
266E  34                 string size (52)
266F  2F4C6F7475732F4C+  "/Lotus/L"
2677  616E67756167652F+  "anguage/"
267F  4B696E6770696E73+  "Kingpins"
2687  2F4E656D65736973+  "/Nemesis"
268F  566965775F537461+  "View_Sta"
2697  744269727468706C+  "tBirthpl"
269F  61636500           "ace\0"
                         const [68]: "/Lotus/Language/Kingpins/NemesisView_StatBirthplace"
26A3  01                 const type 3
26A4  B043DCE6           const [69]: (-421772368)
26A8  01                 const type 3
26A9  897D77EA           const [70]: (-361267831)
26AD  04                 const type 4
26AE  0A                 string size (10)
26AF  62697274684E6F64+  "birthNod"
26B7  6500               "e\0"
                         const [71]: "birthNode"
26B9  04                 const type 4
26BA  15                 string size (21)
26BB  6B696C6C696E6750+  "killingP"
26C3  6F77657273756974+  "owersuit"
26CB  5479706500         "Type\0"
                         const [72]: "killingPowersuitType"
26D0  04                 const type 4
26D1  34                 string size (52)
26D2  2F4C6F7475732F4C+  "/Lotus/L"
26DA  616E67756167652F+  "anguage/"
26E2  4B696E6770696E73+  "Kingpins"
26EA  2F4E656D65736973+  "/Nemesis"
26F2  566965775F537461+  "View_Sta"
26FA  7450726F67656E69+  "tProgeni"
2702  746F7200           "tor\0"
                         const [73]: "/Lotus/Language/Kingpins/NemesisView_StatProgenitor"
2706  01                 const type 3
2707  66D9191C           const [74]: (471456102)
270B  04                 const type 4
270C  11                 string size (17)
270D  506F7075702E5261+  "Popup.Ra"
2715  6E6B2E4C6162656C+  "nk.Label"
271D  00                 "\0"
                         const [75]: "Popup.Rank.Label"
271E  04                 const type 4
271F  05                 string size (5)
2720  7465787400         "text\0"
                         const [76]: "text"
2725  04                 const type 4
2726  05                 string size (5)
2727  72616E6B00         "rank\0"
                         const [77]: "rank"
272C  04                 const type 4
272D  08                 string size (8)
272E  6D54726169747300   "mTraits\0"
                         const [78]: "mTraits"
2736  04                 const type 4
2737  2B                 string size (43)
2738  2F4C6F7475732F4C+  "/Lotus/L"
2740  616E67756167652F+  "anguage/"
2748  4B696E6770696E73+  "Kingpins"
2750  2F4E656D65736973+  "/Nemesis"
2758  566965775F547261+  "View_Tra"
2760  697400             "it\0"
                         const [79]: "/Lotus/Language/Kingpins/NemesisView_Trait"
2763  04                 const type 4
2764  07                 string size (7)
2765  6D517569726B00     "mQuirk\0"
                         const [80]: "mQuirk"
276C  04                 const type 4
276D  2B                 string size (43)
276E  2F4C6F7475732F4C+  "/Lotus/L"
2776  616E67756167652F+  "anguage/"
277E  4B696E6770696E73+  "Kingpins"
2786  2F4E656D65736973+  "/Nemesis"
278E  566965775F517569+  "View_Qui"
2796  726B00             "rk\0"
                         const [81]: "/Lotus/Language/Kingpins/NemesisView_Quirk"
2799  04                 const type 4
279A  0A                 string size (10)
279B  74657874436F6C6F+  "textColo"
27A3  7200               "r\0"
                         const [82]: "textColor"
27A5  04                 const type 4
27A6  03                 string size (3)
27A7  5F4700             "_G\0"
                         const [83]: "_G"
27AA  04                 const type 4
27AB  0E                 string size (14)
27AC  5549436F6C6F725F+  "UIColor_"
27B4  576869746500       "White\0"
                         const [84]: "UIColor_White"
27BA  04                 const type 4
27BB  11                 string size (17)
27BC  506F7055702E4E61+  "PopUp.Na"
27C4  6D652E4C6162656C+  "me.Label"
27CC  00                 "\0"
                         const [85]: "PopUp.Name.Label"
27CD  04                 const type 4
27CE  05                 string size (5)
27CF  6E616D6500         "name\0"
                         const [86]: "name"
27D4  01                 const type 3
27D5  F4BA7064           const [87]: (1685109492)
27D9  04                 const type 4
27DA  05                 string size (5)
27DB  48696E7400         "Hint\0"
                         const [88]: "Hint"
27E0  04                 const type 4
27E1  09                 string size (9)
27E2  5F76697369626C65+  "_visible"
27EA  00                 "\0"
                         const [89]: "_visible"
27EB  01                 const type 3
27EC  A9AF648C           const [90]: (-1939558487)
27F0  04                 const type 4
27F1  12                 string size (18)
27F2  506F7075702E676F+  "Popup.go"
27FA  746F416E64506C61+  "toAndPla"
2802  7900               "y\0"
                         const [91]: "Popup.gotoAndPlay"
2804  01                 const type 3
2805  87454961           const [92]: (1632191879)
2809  03                 const type 3
280A  CDCC4C3E           const [93]: (-51)
280E  04                 const type 4
280F  0A                 string size (10)
2810  6C6F676F536F756E+  "logoSoun"
2818  6400               "d\0"
                         const [94]: "logoSound"
281A  01                 const type 3
281B  94239925           const [95]: (630793108)
                         * functions:
281F  02                 sizep (2)
                         
2820                     ** function [0] definition (level 3)
                         ** start of function **
2820  00                 string size (0)
                         source name: (none)
2822  01                 line defined (222)
2823  E0                 last line defined (224)
2824  01                 nups (1)
2825  01                 numparams (2)
2826  02                 is_vararg (0)
2827  00                 maxstacksize (6)
                         * code:
2829  08                 sizecode (8)
282A  93000000           [1] getupval   2   0      
282E  A4004001           [2] self       2   2   256  ; -1484936978
2832  0B810000           [3] newtable   4   0   2    ; array=0, hash=2
2836  0C018080           [4] settable   4   257 0    ; "mLabel"
283A  0C410081           [5] settable   4   258 1    ; "mValue"
283E  57018000           [6] loadbool   5   1   0    ; true
2842  A2400002           [7] call       2   4   1  
2846  1E008000           [8] return     0   1      
                         * constants:
284A  03                 sizek (3)
284B  01                 const type 3
284C  EEA87DA7           const [0]: (-1484936978)
2850  04                 const type 4
2851  07                 string size (7)
2852  6D4C6162656C00     "mLabel\0"
                         const [1]: "mLabel"
2859  04                 const type 4
285A  07                 string size (7)
285B  6D56616C756500     "mValue\0"
                         const [2]: "mValue"
                         * functions:
2862  00                 sizep (0)
                         * lines:
2863  08                 sizelineinfo (8)
                         [pc] (line)
2864  DF                 [1] (-33)
2865  00                 [2] (-33)
2866  00                 [3] (-33)
2867  00                 [4] (-33)
2868  DF                 [5] (-33)
2869  00                 [6] (-33)
286A  00                 [7] (-33)
286B  00                 [8] (-32)
                         * locals:
2884  00                 sizelocvars (0)
                         * upvalues:
2885  00                 sizeupvalues (0)
                         ** end of function **

                         
2886                     ** function [1] definition (level 3)
                         ** start of function **
2886  00                 string size (0)
                         source name: (none)
2888  02                 line defined (260)
2889  90                 last line defined (272)
288A  02                 nups (2)
288B  02                 numparams (2)
288C  02                 is_vararg (0)
288D  00                 maxstacksize (14)
                         * code:
288F  1F                 sizecode (31)
2890  99000000           [01] loadk      2   0        ; ""
2894  CA008000           [02] len        3   1      
2898  19410000           [03] loadk      4   1        ; 0
289C  52018001           [04] move       5   3      
28A0  99410000           [05] loadk      6   1        ; 0
28A4  10010380           [06] forprep    4   13       ; to [20]
28A8  12020001           [07] move       8   2      
28AC  59820000           [08] loadk      9   2        ; "<"
28B0  93020000           [09] getupval   10  0      
28B4  8EC24005           [10] gettable   10  10  259  ; -265733958
28B8  CEC28100           [11] gettable   11  1   7  
28BC  A2820001           [12] call       10  2   2  
28C0  D9020100           [13] loadk      11  4        ; ">"
28C4  82C00204           [14] concat     2   8   11 
fail op	21
28C8  15C08003           [15] concat     0   7   3  
28CC  1A800080           [16] jmp        3            ; to [20]
28D0  12020001           [17] move       8   2      
28D4  59420100           [18] loadk      9   5        ; " "
28D8  82400204           [19] concat     2   8   9  
28DC  1441FC7F           [20] forloop    4   -14      ; to [7] if loop
fail op	21
28E0  15C00083           [21] concat     0   262 3  
28E4  1AC00180           [22] jmp        8            ; to [31]
28E8  13028000           [23] getupval   8   1      
28EC  52020000           [24] move       9   0      
28F0  9DC20100           [25] getglobal  10  7        ; mMovie
28F4  A4024205           [26] self       10  10  264  ; 98241492
28F8  12030001           [27] move       12  2      
28FC  57038000           [28] loadbool   13  1   0    ; true
2900  A2020002           [29] call       10  4   0  
2904  22420000           [30] call       8   0   1  
2908  1E008000           [31] return     0   1      
                         * constants:
290C  09                 sizek (9)
290D  04                 const type 4
290E  01                 string size (0)
                         const [0]: ""
2910  03                 const type 3
2911  0000803F           const [1]: (0)
2915  04                 const type 4
2916  02                 string size (2)
2917  3C00               "<\0"
                         const [2]: "<"
2919  01                 const type 3
291A  BA3829F0           const [3]: (-265733958)
291E  04                 const type 4
291F  02                 string size (2)
2920  3E00               ">\0"
                         const [4]: ">"
2922  04                 const type 4
2923  02                 string size (2)
2924  2000               " \0"
                         const [5]: " "
2926  03                 const type 3
2927  00000000           const [6]: (0)
292B  04                 const type 4
292C  07                 string size (7)
292D  6D4D6F76696500     "mMovie\0"
                         const [7]: "mMovie"
2934  01                 const type 3
2935  D40BDB05           const [8]: (98241492)
                         * functions:
2939  00                 sizep (0)
                         * lines:
293A  1F                 sizelineinfo (31)
                         [pc] (line)
293B  05                 [01] (5)
293C  01                 [02] (6)
293D  00                 [03] (7)
293E  00                 [04] (7)
293F  06                 [05] (7)
2940  01                 [06] (7)
2941  00                 [07] (8)
2942  00                 [08] (8)
2943  07                 [09] (8)
2944  01                 [10] (8)
2945  00                 [11] (8)
2946  00                 [12] (8)
2947  07                 [13] (8)
2948  01                 [14] (8)
2949  00                 [15] (9)
294A  00                 [16] (9)
294B  07                 [17] (10)
294C  01                 [18] (10)
294D  00                 [19] (10)
294E  00                 [20] (7)
294F  07                 [21] (13)
2950  01                 [22] (13)
2951  00                 [23] (14)
2952  00                 [24] (14)
2953  08                 [25] (14)
2954  01                 [26] (14)
2955  00                 [27] (14)
2956  00                 [28] (14)
2957  08                 [29] (14)
2958  01                 [30] (14)
2959  00                 [31] (16)
                         * locals:
29B7  00                 sizelocvars (0)
                         * upvalues:
29B8  00                 sizeupvalues (0)
                         ** end of function **

                         * lines:
29BA  03                 sizelineinfo (397)
                         [pc] (line)
29BB  DC                 [001] (-36)
29BC  00                 [002] (-36)
29BD  00                 [003] (-36)
29BE  00                 [004] (-36)
29BF  DC                 [005] (-36)
29C0  00                 [006] (-32)
29C1  00                 [007] (-32)
29C2  00                 [008] (-30)
29C3  DC                 [009] (-30)
29C4  00                 [010] (-30)
29C5  00                 [011] (-28)
29C6  00                 [012] (-27)
29C7  DC                 [013] (-27)
29C8  00                 [014] (-26)
29C9  00                 [015] (-26)
29CA  00                 [016] (-26)
29CB  DC                 [017] (-25)
29CC  00                 [018] (-25)
29CD  00                 [019] (-25)
29CE  00                 [020] (-24)
29CF  E0                 [021] (-24)
29D0  00                 [022] (-24)
29D1  00                 [023] (-24)
29D2  00                 [024] (-24)
29D3  E0                 [025] (-24)
29D4  00                 [026] (-24)
29D5  00                 [027] (-24)
29D6  00                 [028] (-24)
29D7  E2                 [029] (-24)
29D8  00                 [030] (-24)
29D9  00                 [031] (-22)
29DA  00                 [032] (-22)
29DB  E2                 [033] (-22)
29DC  00                 [034] (-22)
29DD  00                 [035] (-22)
29DE  00                 [036] (-22)
29DF  E2                 [037] (-22)
29E0  00                 [038] (-22)
29E1  00                 [039] (-18)
29E2  00                 [040] (-18)
29E3  E4                 [041] (-18)
29E4  00                 [042] (-18)
29E5  00                 [043] (-18)
29E6  00                 [044] (-18)
29E7  E5                 [045] (-17)
29E8  00                 [046] (-17)
29E9  00                 [047] (-17)
29EA  00                 [048] (-17)
29EB  E5                 [049] (-17)
29EC  00                 [050] (-16)
29ED  00                 [051] (-16)
29EE  00                 [052] (-16)
29EF  E6                 [053] (-16)
29F0  00                 [054] (-16)
29F1  00                 [055] (-16)
29F2  00                 [056] (-16)
29F3  E6                 [057] (-15)
29F4  00                 [058] (-15)
29F5  00                 [059] (-15)
29F6  00                 [060] (-15)
29F7  E6                 [061] (-15)
29F8  00                 [062] (-15)
29F9  00                 [063] (-15)
29FA  00                 [064] (-14)
29FB  E7                 [065] (-14)
29FC  00                 [066] (-14)
29FD  00                 [067] (-14)
29FE  00                 [068] (-14)
29FF  E7                 [069] (-14)
2A00  00                 [070] (-14)
2A01  00                 [071] (-13)
2A02  00                 [072] (-13)
2A03  E7                 [073] (-13)
2A04  00                 [074] (-13)
2A05  00                 [075] (-13)
2A06  00                 [076] (-13)
2A07  E8                 [077] (-13)
2A08  00                 [078] (-13)
2A09  00                 [079] (-10)
2A0A  00                 [080] (-10)
2A0B  E8                 [081] (-10)
2A0C  00                 [082] (-10)
2A0D  00                 [083] (-10)
2A0E  00                 [084] (-9)
2A0F  E8                 [085] (-8)
2A10  00                 [086] (-8)
2A11  00                 [087] (-8)
2A12  00                 [088] (-8)
2A13  E8                 [089] (-8)
2A14  00                 [090] (-7)
2A15  00                 [091] (-7)
2A16  00                 [092] (-7)
2A17  E8                 [093] (-7)
2A18  00                 [094] (-7)
2A19  00                 [095] (-4)
2A1A  00                 [096] (-4)
2A1B  E8                 [097] (-4)
2A1C  00                 [098] (-4)
2A1D  00                 [099] (-4)
2A1E  00                 [100] (-3)
2A1F  E8                 [101] (-3)
2A20  00                 [102] (-3)
2A21  00                 [103] (-3)
2A22  00                 [104] (-3)
2A23  E8                 [105] (-2)
2A24  00                 [106] (-2)
2A25  00                 [107] (-2)
2A26  00                 [108] (-2)
2A27  E8                 [109] (-2)
2A28  00                 [110] (-1)
2A29  00                 [111] (-1)
2A2A  00                 [112] (0)
2A2B  E8                 [113] (0)
2A2C  00                 [114] (0)
2A2D  00                 [115] (0)
2A2E  00                 [116] (0)
2A2F  E8                 [117] (0)
2A30  00                 [118] (0)
2A31  00                 [119] (0)
2A32  00                 [120] (0)
2A33  EA                 [121] (16)
2A34  00                 [122] (16)
2A35  00                 [123] (16)
2A36  00                 [124] (18)
2A37  EA                 [125] (18)
2A38  00                 [126] (18)
2A39  00                 [127] (18)
2A3A  00                 [128] (18)
2A3B  EA                 [129] (18)
2A3C  00                 [130] (18)
2A3D  00                 [131] (18)
2A3E  00                 [132] (18)
2A3F  EA                 [133] (18)
2A40  00                 [134] (19)
2A41  00                 [135] (19)
2A42  00                 [136] (19)
2A43  EA                 [137] (19)
2A44  00                 [138] (19)
2A45  00                 [139] (19)
2A46  00                 [140] (19)
2A47  EA                 [141] (19)
2A48  00                 [142] (19)
2A49  00                 [143] (19)
2A4A  00                 [144] (20)
2A4B  EA                 [145] (20)
2A4C  00                 [146] (20)
2A4D  00                 [147] (20)
2A4E  00                 [148] (20)
2A4F  EA                 [149] (20)
2A50  00                 [150] (20)
2A51  00                 [151] (20)
2A52  00                 [152] (20)
2A53  EE                 [153] (20)
2A54  00                 [154] (22)
2A55  00                 [155] (22)
2A56  00                 [156] (22)
2A57  EE                 [157] (23)
2A58  00                 [158] (23)
2A59  00                 [159] (23)
2A5A  00                 [160] (23)
2A5B  EE                 [161] (23)
2A5C  00                 [162] (23)
2A5D  00                 [163] (23)
2A5E  00                 [164] (23)
2A5F  EE                 [165] (23)
2A60  00                 [166] (23)
2A61  00                 [167] (23)
2A62  00                 [168] (23)
2A63  EE                 [169] (23)
2A64  00                 [170] (23)
2A65  00                 [171] (23)
2A66  00                 [172] (23)
2A67  EE                 [173] (23)
2A68  00                 [174] (25)
2A69  00                 [175] (26)
2A6A  00                 [176] (27)
2A6B  EF                 [177] (27)
2A6C  00                 [178] (27)
2A6D  00                 [179] (28)
2A6E  00                 [180] (28)
2A6F  EF                 [181] (28)
2A70  00                 [182] (28)
2A71  00                 [183] (28)
2A72  00                 [184] (29)
2A73  EF                 [185] (29)
2A74  00                 [186] (29)
2A75  00                 [187] (30)
2A76  00                 [188] (30)
2A77  EF                 [189] (31)
2A78  00                 [190] (31)
2A79  00                 [191] (31)
2A7A  00                 [192] (31)
2A7B  EF                 [193] (32)
2A7C  00                 [194] (32)
2A7D  00                 [195] (32)
2A7E  00                 [196] (33)
2A7F  F0                 [197] (33)
2A80  00                 [198] (33)
2A81  00                 [199] (33)
2A82  00                 [200] (33)
2A83  F0                 [201] (34)
2A84  00                 [202] (34)
2A85  00                 [203] (34)
2A86  00                 [204] (34)
2A87  F0                 [205] (34)
2A88  00                 [206] (34)
2A89  00                 [207] (34)
2A8A  00                 [208] (34)
2A8B  F0                 [209] (34)
2A8C  00                 [210] (36)
2A8D  00                 [211] (36)
2A8E  00                 [212] (36)
2A8F  F0                 [213] (38)
2A90  00                 [214] (31)
2A91  00                 [215] (41)
2A92  00                 [216] (41)
2A93  F0                 [217] (42)
2A94  00                 [218] (42)
2A95  00                 [219] (42)
2A96  00                 [220] (42)
2A97  F0                 [221] (42)
2A98  00                 [222] (42)
2A99  00                 [223] (43)
2A9A  00                 [224] (43)
2A9B  F1                 [225] (43)
2A9C  00                 [226] (43)
2A9D  00                 [227] (43)
2A9E  00                 [228] (43)
2A9F  F1                 [229] (43)
2AA0  00                 [230] (43)
2AA1  00                 [231] (43)
2AA2  00                 [232] (43)
2AA3  F1                 [233] (43)
2AA4  00                 [234] (56)
2AA5  00                 [235] (56)
2AA6  00                 [236] (56)
2AA7  F1                 [237] (57)
2AA8  00                 [238] (57)
2AA9  00                 [239] (57)
2AAA  00                 [240] (57)
2AAB  F1                 [241] (57)
2AAC  00                 [242] (58)
2AAD  00                 [243] (58)
2AAE  00                 [244] (58)
2AAF  F1                 [245] (58)
2AB0  00                 [246] (58)
2AB1  00                 [247] (58)
2AB2  00                 [248] (58)
2AB3  F1                 [249] (58)
2AB4  00                 [250] (58)
2AB5  00                 [251] (58)
2AB6  00                 [252] (58)
2AB7  F2                 [253] (58)
2AB8  00                 [254] (58)
2AB9  00                 [255] (58)
2ABA  00                 [256] (58)
2ABB  F2                 [257] (61)
2ABC  00                 [258] (61)
2ABD  00                 [259] (61)
2ABE  00                 [260] (62)
2ABF  F2                 [261] (62)
2AC0  00                 [262] (62)
2AC1  00                 [263] (62)
2AC2  00                 [264] (62)
2AC3  F2                 [265] (62)
2AC4  00                 [266] (62)
2AC5  00                 [267] (62)
2AC6  00                 [268] (62)
2AC7  F2                 [269] (62)
2AC8  00                 [270] (62)
2AC9  00                 [271] (62)
2ACA  00                 [272] (62)
2ACB  F2                 [273] (62)
2ACC  00                 [274] (62)
2ACD  00                 [275] (64)
2ACE  00                 [276] (64)
2ACF  F2                 [277] (64)
2AD0  00                 [278] (64)
2AD1  00                 [279] (64)
2AD2  00                 [280] (64)
2AD3  F3                 [281] (64)
2AD4  00                 [282] (64)
2AD5  00                 [283] (64)
2AD6  00                 [284] (64)
2AD7  F3                 [285] (66)
2AD8  00                 [286] (66)
2AD9  00                 [287] (66)
2ADA  00                 [288] (66)
2ADB  F3                 [289] (66)
2ADC  00                 [290] (67)
2ADD  00                 [291] (67)
2ADE  00                 [292] (68)
2ADF  F3                 [293] (68)
2AE0  00                 [294] (68)
2AE1  00                 [295] (68)
2AE2  00                 [296] (68)
2AE3  F3                 [297] (69)
2AE4  00                 [298] (69)
2AE5  00                 [299] (69)
2AE6  00                 [300] (69)
2AE7  F3                 [301] (69)
2AE8  00                 [302] (70)
2AE9  00                 [303] (70)
2AEA  00                 [304] (70)
2AEB  F3                 [305] (70)
2AEC  00                 [306] (70)
2AED  00                 [307] (70)
2AEE  00                 [308] (71)
2AEF  F3                 [309] (71)
2AF0  00                 [310] (71)
2AF1  00                 [311] (71)
2AF2  00                 [312] (71)
2AF3  F6                 [313] (71)
2AF4  00                 [314] (71)
2AF5  00                 [315] (71)
2AF6  00                 [316] (66)
2AF7  F6                 [317] (75)
2AF8  00                 [318] (75)
2AF9  00                 [319] (75)
2AFA  00                 [320] (75)
2AFB  F6                 [321] (75)
2AFC  00                 [322] (76)
2AFD  00                 [323] (76)
2AFE  00                 [324] (76)
2AFF  F6                 [325] (76)
2B00  00                 [326] (76)
2B01  00                 [327] (77)
2B02  00                 [328] (77)
2B03  F6                 [329] (77)
2B04  00                 [330] (77)
2B05  00                 [331] (77)
2B06  00                 [332] (77)
2B07  F7                 [333] (78)
2B08  00                 [334] (78)
2B09  00                 [335] (78)
2B0A  00                 [336] (78)
2B0B  F8                 [337] (78)
2B0C  00                 [338] (78)
2B0D  00                 [339] (78)
2B0E  00                 [340] (78)
2B0F  F8                 [341] (81)
2B10  00                 [342] (81)
2B11  00                 [343] (81)
2B12  00                 [344] (81)
2B13  F8                 [345] (81)
2B14  00                 [346] (81)
2B15  00                 [347] (81)
2B16  00                 [348] (82)
2B17  F8                 [349] (82)
2B18  00                 [350] (82)
2B19  00                 [351] (82)
2B1A  00                 [352] (82)
2B1B  F8                 [353] (82)
2B1C  00                 [354] (83)
2B1D  00                 [355] (83)
2B1E  00                 [356] (83)
2B1F  F9                 [357] (85)
2B20  00                 [358] (85)
2B21  00                 [359] (85)
2B22  00                 [360] (86)
2B23  F9                 [361] (86)
2B24  00                 [362] (86)
2B25  00                 [363] (86)
2B26  00                 [364] (86)
2B27  F9                 [365] (86)
2B28  00                 [366] (86)
2B29  00                 [367] (87)
2B2A  00                 [368] (87)
2B2B  F9                 [369] (87)
2B2C  00                 [370] (88)
2B2D  00                 [371] (88)
2B2E  00                 [372] (88)
2B2F  F9                 [373] (91)
2B30  00                 [374] (91)
2B31  00                 [375] (91)
2B32  00                 [376] (91)
2B33  FC                 [377] (91)
2B34  00                 [378] (92)
2B35  00                 [379] (92)
2B36  00                 [380] (92)
2B37  FC                 [381] (92)
2B38  00                 [382] (92)
2B39  00                 [383] (93)
2B3A  00                 [384] (93)
2B3B  FC                 [385] (93)
2B3C  00                 [386] (93)
2B3D  00                 [387] (93)
2B3E  00                 [388] (95)
2B3F  FC                 [389] (95)
2B40  00                 [390] (95)
2B41  00                 [391] (95)
2B42  00                 [392] (95)
2B43  FC                 [393] (96)
2B44  00                 [394] (96)
2B45  00                 [395] (96)
2B46  00                 [396] (96)
2B47  FD                 [397] (98)
                         * locals:
2FEF  00                 sizelocvars (0)
                         * upvalues:
2FF0  00                 sizeupvalues (0)
                         ** end of function **

                         
2FF1                     ** function [7] definition (level 2)
                         ** start of function **
2FF1  00                 string size (0)
                         source name: (none)
2FF3  02                 line defined (356)
2FF4  92                 last line defined (402)
2FF5  03                 nups (4)
2FF6  04                 numparams (0)
2FF7  00                 is_vararg (0)
2FF8  00                 maxstacksize (12)
                         * code:
2FFA  79                 sizecode (121)
2FFB  1D000000           [001] getglobal  0   0        ; 1074689893
2FFF  53000000           [002] getupval   1   0      
3003  22800001           [003] call       0   2   2  
3007  18000000           [004] test       0       0    ; to [6] if true
300B  1A000080           [005] jmp        1            ; to [7]
300F  1E008000           [006] return     0   1      
3013  1D000000           [007] getglobal  0   0        ; 1074689893
3017  5D400000           [008] getglobal  1   1        ; gBackgroundRegion
301B  22800001           [009] call       0   2   2  
301F  18000000           [010] test       0       0    ; to [12] if true
3023  1A000080           [011] jmp        1            ; to [13]
3027  1E008000           [012] return     0   1      
302B  1D000000           [013] getglobal  0   0        ; 1074689893
302F  53008000           [014] getupval   1   1      
3033  22800001           [015] call       0   2   2  
3037  18400000           [016] test       0       1    ; to [18] if false
303B  1AC00080           [017] jmp        4            ; to [22]
303F  1D400000           [018] getglobal  0   1        ; gBackgroundRegion
3043  24804000           [019] self       0   0   258  ; -1693828985
3047  93008000           [020] getupval   2   1      
304B  22408001           [021] call       0   3   1  
304F  1DC00000           [022] getglobal  0   3        ; 2083004503
3053  53000000           [023] getupval   1   0      
3057  4E00C100           [024] gettable   1   1   260  ; "mAgent"
305B  22800001           [025] call       0   2   2  
305F  64404100           [026] self       1   0   261  ; -1088066739
3063  62800001           [027] call       1   2   2  
3067  9D400000           [028] getglobal  2   1        ; gBackgroundRegion
306B  A4804101           [029] self       2   2   262  ; -1485896174
306F  1DC10100           [030] getglobal  4   7        ; -332969190
3073  59010200           [031] loadk      5   8        ; "AIPoint"
3077  22010001           [032] call       4   2   0  
307B  A2800000           [033] call       2   0   2  
307F  DD400200           [034] getglobal  3   9        ; 572299008
3083  19810200           [035] loadk      4   10       ; 0
3087  59C10200           [036] loadk      5   11       ; 0
308B  99810200           [037] loadk      6   10       ; 0
308F  E2800002           [038] call       3   4   2  
3093  1D010300           [039] getglobal  4   12       ; 508519041
3097  59810200           [040] loadk      5   10       ; 0
309B  99410300           [041] loadk      6   13       ; 0
309F  D9810200           [042] loadk      7   10       ; 0
30A3  22810002           [043] call       4   4   2  
30A7  4A010001           [044] len        5   2      
fail op	21
30AB  15400185           [045] concat     0   266 5  
30AF  1A000380           [046] jmp        13           ; to [60]
30B3  5D010000           [047] getglobal  5   0        ; 1074689893
30B7  8E814301           [048] gettable   6   2   270  ; 0
30BB  62810001           [049] call       5   2   2  
30BF  58410000           [050] test       5       1    ; to [52] if false
30C3  1AC00180           [051] jmp        8            ; to [60]
30C7  4E814301           [052] gettable   5   2   270  ; 0
30CB  64C1C302           [053] self       5   5   271  ; 1839670529
30CF  62810001           [054] call       5   2   2  
30D3  D2008002           [055] move       3   5      
30D7  4E814301           [056] gettable   5   2   270  ; 0
30DB  6401C402           [057] self       5   5   272  ; -231049143
30DF  62810001           [058] call       5   2   2  
30E3  12018002           [059] move       4   5      
30E7  53010001           [060] getupval   5   2      
30EB  58010000           [061] test       5       0    ; to [63] if true
30EF  1A400180           [062] jmp        6            ; to [69]
30F3  5D410200           [063] getglobal  5   9        ; 572299008
30F7  99410400           [064] loadk      6   17       ; 0
30FB  D9810200           [065] loadk      7   10       ; 0
30FF  19820200           [066] loadk      8   10       ; 0
3103  62810002           [067] call       5   4   2  
3107  C3408101           [068] add        3   3   5  
310B  5D410000           [069] getglobal  5   1        ; gBackgroundRegion
310F  6481C402           [070] self       5   5   274  ; -1110225722
3113  D2018000           [071] move       7   1      
3117  12028001           [072] move       8   3      
311B  52020002           [073] move       9   4      
311F  62818002           [074] call       5   5   2  
fail op	8
3123  48018000           [075] setupval   5   1      
3127  53018000           [076] getupval   5   1      
312B  64C1C402           [077] self       5   5   275  ; 1444941531
312F  D9010500           [078] loadk      7   20       ; 0
3133  17028000           [079] loadbool   8   1   0    ; true
3137  62410002           [080] call       5   4   1  
313B  5D410500           [081] getglobal  5   21       ; _T
313F  93018000           [082] getupval   6   1      
3143  4C81018B           [083] settable   5   278 6    ; "NemesisMenuAvatar"
3147  5D010000           [084] getglobal  5   0        ; 1074689893
314B  9DC10500           [085] getglobal  6   23       ; gGameData
314F  62810001           [086] call       5   2   2  
3153  58410000           [087] test       5       1    ; to [89] if false
3157  1AC00780           [088] jmp        32           ; to [121]
315B  5D010600           [089] getglobal  5   24       ; 1668611480
315F  9DC10500           [090] getglobal  6   23       ; gGameData
3163  A4414603           [091] self       6   6   281  ; 389385621
3167  A2810001           [092] call       6   2   2  
316B  8E814603           [093] gettable   6   6   282  ; "mHenchmenKilled"
316F  D3018001           [094] getupval   7   3      
3173  9CC10103           [095] div        6   6   7  
3177  D9810200           [096] loadk      7   10       ; 0
317B  19820300           [097] loadk      8   14       ; 0
317F  62810002           [098] call       5   4   2  
3183  9DC10600           [099] getglobal  6   27       ; math
3187  8E014703           [100] gettable   6   6   284  ; -150971781
318B  DD410700           [101] getglobal  7   29       ; -1828500651
318F  19820300           [102] loadk      8   14       ; 0
3193  59820700           [103] loadk      9   30       ; 0
3197  92028002           [104] move       10  5      
319B  E2810002           [105] call       7   4   2  
319F  C3C1818F           [106] add        7   287 7    ; 0
31A3  A2810001           [107] call       6   2   2  
31A7  DD010000           [108] getglobal  7   0        ; 1074689893
31AB  1D020800           [109] getglobal  8   32       ; faceAnimations
31AF  0E820104           [110] gettable   8   8   6  
31B3  E2810001           [111] call       7   2   2  
31B7  D8410000           [112] test       7       1    ; to [114] if false
31BB  1A800180           [113] jmp        7            ; to [121]
31BF  D3018000           [114] getupval   7   1      
31C3  E441C803           [115] self       7   7   289  ; 1895249493
31C7  5D020800           [116] getglobal  9   32       ; faceAnimations
31CB  4E828104           [117] gettable   9   9   6  
31CF  99820800           [118] loadk      10  34       ; 0
31D3  D9820300           [119] loadk      11  14       ; 0
31D7  E2418002           [120] call       7   5   1  
31DB  1E008000           [121] return     0   1      
                         * constants:
31DF  23                 sizek (35)
31E0  01                 const type 3
31E1  65770E40           const [0]: (1074689893)
31E5  04                 const type 4
31E6  12                 string size (18)
31E7  674261636B67726F+  "gBackgro"
31EF  756E64526567696F+  "undRegio"
31F7  6E00               "n\0"
                         const [1]: "gBackgroundRegion"
31F9  01                 const type 3
31FA  87380A9B           const [2]: (-1693828985)
31FE  01                 const type 3
31FF  5720287C           const [3]: (2083004503)
3203  04                 const type 4
3204  07                 string size (7)
3205  6D4167656E7400     "mAgent\0"
                         const [4]: "mAgent"
320C  01                 const type 3
320D  4D6B25BF           const [5]: (-1088066739)
3211  01                 const type 3
3212  12066FA7           const [6]: (-1485896174)
3216  01                 const type 3
3217  1A4B27EC           const [7]: (-332969190)
321B  04                 const type 4
321C  08                 string size (8)
321D  4149506F696E7400   "AIPoint\0"
                         const [8]: "AIPoint"
3225  01                 const type 3
3226  00971C22           const [9]: (572299008)
322A  03                 const type 3
322B  00000000           const [10]: (0)
322F  03                 const type 3
3230  00000040           const [11]: (0)
3234  01                 const type 3
3235  81624F1E           const [12]: (508519041)
3239  03                 const type 3
323A  0000B442           const [13]: (0)
323E  03                 const type 3
323F  0000803F           const [14]: (0)
3243  01                 const type 3
3244  0125A76D           const [15]: (1839670529)
3248  01                 const type 3
3249  49783AF2           const [16]: (-231049143)
324D  03                 const type 3
324E  000000BF           const [17]: (0)
3252  01                 const type 3
3253  C64CD3BD           const [18]: (-1110225722)
3257  01                 const type 3
3258  DB0E2056           const [19]: (1444941531)
325C  03                 const type 3
325D  00C07944           const [20]: (0)
3261  04                 const type 4
3262  03                 string size (3)
3263  5F5400             "_T\0"
                         const [21]: "_T"
3266  04                 const type 4
3267  12                 string size (18)
3268  4E656D657369734D+  "NemesisM"
3270  656E754176617461+  "enuAvata"
3278  7200               "r\0"
                         const [22]: "NemesisMenuAvatar"
327A  04                 const type 4
327B  0A                 string size (10)
327C  6747616D65446174+  "gGameDat"
3284  6100               "a\0"
                         const [23]: "gGameData"
3286  01                 const type 3
3287  98FD7463           const [24]: (1668611480)
328B  01                 const type 3
328C  958D3517           const [25]: (389385621)
3290  04                 const type 4
3291  10                 string size (16)
3292  6D48656E63686D65+  "mHenchme"
329A  6E4B696C6C656400   "nKilled\0"
                         const [26]: "mHenchmenKilled"
32A2  04                 const type 4
32A3  05                 string size (5)
32A4  6D61746800         "math\0"
                         const [27]: "math"
32A9  01                 const type 3
32AA  7B5A00F7           const [28]: (-150971781)
32AE  01                 const type 3
32AF  554B0393           const [29]: (-1828500651)
32B3  03                 const type 3
32B4  0000A040           const [30]: (0)
32B8  03                 const type 3
32B9  0000003F           const [31]: (0)
32BD  04                 const type 4
32BE  0F                 string size (15)
32BF  66616365416E696D+  "faceAnim"
32C7  6174696F6E7300     "ations\0"
                         const [32]: "faceAnimations"
32CE  01                 const type 3
32CF  5536F770           const [33]: (1895249493)
32D3  03                 const type 3
32D4  0000403F           const [34]: (0)
                         * functions:
32D8  00                 sizep (0)
                         * lines:
32D9  79                 sizelineinfo (121)
                         [pc] (line)
32DA  65                 [001] (101)
32DB  01                 [002] (101)
32DC  00                 [003] (101)
32DD  00                 [004] (101)
32DE  65                 [005] (101)
32DF  01                 [006] (102)
32E0  00                 [007] (105)
32E1  00                 [008] (105)
32E2  65                 [009] (105)
32E3  01                 [010] (105)
32E4  00                 [011] (105)
32E5  00                 [012] (106)
32E6  65                 [013] (109)
32E7  01                 [014] (109)
32E8  00                 [015] (109)
32E9  00                 [016] (109)
32EA  65                 [017] (109)
32EB  01                 [018] (110)
32EC  00                 [019] (110)
32ED  00                 [020] (110)
32EE  66                 [021] (110)
32EF  01                 [022] (113)
32F0  00                 [023] (113)
32F1  00                 [024] (113)
32F2  69                 [025] (113)
32F3  01                 [026] (114)
32F4  00                 [027] (114)
32F5  00                 [028] (116)
32F6  69                 [029] (116)
32F7  01                 [030] (116)
32F8  00                 [031] (116)
32F9  00                 [032] (116)
32FA  69                 [033] (116)
32FB  01                 [034] (118)
32FC  00                 [035] (118)
32FD  00                 [036] (118)
32FE  69                 [037] (118)
32FF  01                 [038] (118)
3300  00                 [039] (119)
3301  00                 [040] (119)
3302  69                 [041] (119)
3303  01                 [042] (119)
3304  00                 [043] (119)
3305  00                 [044] (121)
3306  6A                 [045] (121)
3307  01                 [046] (121)
3308  00                 [047] (121)
3309  00                 [048] (121)
330A  6D                 [049] (121)
330B  01                 [050] (121)
330C  00                 [051] (121)
330D  00                 [052] (122)
330E  6D                 [053] (122)
330F  01                 [054] (122)
3310  00                 [055] (122)
3311  00                 [056] (123)
3312  6D                 [057] (123)
3313  01                 [058] (123)
3314  00                 [059] (123)
3315  00                 [060] (126)
3316  6D                 [061] (126)
3317  01                 [062] (126)
3318  00                 [063] (127)
3319  00                 [064] (127)
331A  6D                 [065] (127)
331B  01                 [066] (127)
331C  00                 [067] (127)
331D  00                 [068] (127)
331E  6E                 [069] (-126)
331F  01                 [070] (-126)
3320  00                 [071] (-125)
3321  00                 [072] (-125)
3322  6E                 [073] (-124)
3323  01                 [074] (-126)
3324  00                 [075] (-124)
3325  00                 [076] (-122)
3326  6E                 [077] (-122)
3327  01                 [078] (-122)
3328  00                 [079] (-122)
3329  00                 [080] (-122)
332A  6E                 [081] (-120)
332B  01                 [082] (-120)
332C  00                 [083] (-120)
332D  00                 [084] (-118)
332E  71                 [085] (-118)
332F  01                 [086] (-118)
3330  00                 [087] (-118)
3331  00                 [088] (-118)
3332  71                 [089] (-117)
3333  01                 [090] (-117)
3334  00                 [091] (-117)
3335  00                 [092] (-117)
3336  71                 [093] (-117)
3337  01                 [094] (-117)
3338  00                 [095] (-117)
3339  00                 [096] (-117)
333A  71                 [097] (-117)
333B  01                 [098] (-117)
333C  00                 [099] (-116)
333D  00                 [100] (-116)
333E  72                 [101] (-116)
333F  01                 [102] (-116)
3340  00                 [103] (-116)
3341  00                 [104] (-116)
3342  72                 [105] (-116)
3343  01                 [106] (-116)
3344  00                 [107] (-116)
3345  00                 [108] (-114)
3346  74                 [109] (-114)
3347  01                 [110] (-114)
3348  00                 [111] (-114)
3349  00                 [112] (-114)
334A  74                 [113] (-114)
334B  01                 [114] (-113)
334C  00                 [115] (-113)
334D  00                 [116] (-113)
334E  74                 [117] (-113)
334F  01                 [118] (-113)
3350  00                 [119] (-113)
3351  00                 [120] (-113)
3352  74                 [121] (-110)
                         * locals:
34BE  00                 sizelocvars (0)
                         * upvalues:
34BF  00                 sizeupvalues (0)
                         ** end of function **

                         
34C0                     ** function [8] definition (level 2)
                         ** start of function **
34C0  00                 string size (0)
                         source name: (none)
34C2  03                 line defined (404)
34C3  D2                 last line defined (466)
34C4  03                 nups (8)
34C5  08                 numparams (1)
34C6  01                 is_vararg (0)
34C7  00                 maxstacksize (11)
                         * code:
34CA  01                 sizecode (129)
34CB  59000000           [001] loadk      1   0        ; 0
34CF  86000002           [002] loadnil    2   4      
fail op	35
34D3  63404000           [003] close      1  
34D7  1A400480           [004] jmp        18           ; to [23]
34DB  5D810000           [005] getglobal  5   2        ; -1615931716
34DF  A4C14000           [006] self       6   0   259  ; -881195448
34E3  A2010001           [007] call       6   2   0  
34E7  62810000           [008] call       5   0   2  
fail op	8
34EB  48010000           [009] setupval   5   0      
34EF  64C14000           [010] self       5   0   259  ; -881195448
34F3  62810001           [011] call       5   2   2  
fail op	8
34F7  48018000           [012] setupval   5   1      
fail op	8
34FB  08000001           [013] setupval   0   2      
34FF  53010001           [014] getupval   5   2      
3503  4E00C102           [015] gettable   1   5   260  ; "mRank"
3507  CE404100           [016] gettable   3   0   261  ; "mKillingSuit"
350B  5D810100           [017] getglobal  5   6        ; 2083004503
350F  92018001           [018] move       6   3      
3513  62810001           [019] call       5   2   2  
3517  92008002           [020] move       2   5      
351B  0EC14100           [021] gettable   4   0   263  ; "mShoulderHelmet"
351F  1A401180           [022] jmp        70           ; to [93]
3523  5D010200           [023] getglobal  5   8        ; gRegion
3527  6441C202           [024] self       5   5   265  ; 65205951
352B  62810001           [025] call       5   2   2  
352F  6481C202           [026] self       5   5   266  ; -1917464545
3533  62810001           [027] call       5   2   2  
3537  64C1C202           [028] self       5   5   267  ; 1769516121
353B  62810001           [029] call       5   2   2  
353F  92008002           [030] move       2   5      
3543  64014301           [031] self       5   2   268  ; -491574171
3547  62810001           [032] call       5   2   2  
354B  D2008002           [033] move       3   5      
354F  64414301           [034] self       5   2   269  ; -1348043987
3553  62810001           [035] call       5   2   2  
3557  6481C302           [036] self       5   5   270  ; -1592023674
355B  DDC10300           [037] getglobal  7   15       ; Lotus_Game
355F  CE01C403           [038] gettable   7   7   272  ; "Helmet"
3563  62818001           [039] call       5   3   2  
3567  12018002           [040] move       4   5      
356B  5D410400           [041] getglobal  5   17       ; _T
356F  4E81C402           [042] gettable   5   5   274  ; "NemesisSeed"
fail op	35
3573  6340C002           [043] close      1  
3577  1A400180           [044] jmp        6            ; to [51]
357B  5D410400           [045] getglobal  5   17       ; _T
357F  4E81C402           [046] gettable   5   5   274  ; "NemesisSeed"
fail op	8
3583  48010000           [047] setupval   5   0      
3587  57018000           [048] loadbool   5   1   0    ; true
fail op	8
358B  48018001           [049] setupval   5   3      
358F  1A800180           [050] jmp        7            ; to [58]
3593  57010000           [051] loadbool   5   0   0    ; false
fail op	8
3597  48018001           [052] setupval   5   3      
359B  5DC10400           [053] getglobal  5   19       ; 2144646525
359F  99010500           [054] loadk      6   20       ; 0
35A3  D9410500           [055] loadk      7   21       ; -1
35A7  62818001           [056] call       5   3   2  
fail op	8
35AB  48010000           [057] setupval   5   0      
35AF  5D810500           [058] getglobal  5   22       ; -849773159
35B3  93010000           [059] getupval   6   0      
35B7  62810001           [060] call       5   2   2  
fail op	8
35BB  48018000           [061] setupval   5   1      
35BF  5DC10500           [062] getglobal  5   23       ; 2012104780
35C3  62818000           [063] call       5   1   2  
35C7  9D010600           [064] getglobal  6   24       ; -1692306532
35CB  D3018000           [065] getupval   7   1      
35CF  A2410001           [066] call       6   2   1  
35D3  9DC10300           [067] getglobal  6   15       ; Lotus_Game
35D7  8E414603           [068] gettable   6   6   281  ; 1330439658
35DB  A2818000           [069] call       6   1   2  
fail op	8
35DF  88010001           [070] setupval   6   2      
35E3  93010001           [071] getupval   6   2      
35E7  A4814603           [072] self       6   6   282  ; 1428538802
35EB  13028000           [073] getupval   8   1      
35EF  A2418001           [074] call       6   3   1  
35F3  93010001           [075] getupval   6   2      
35F7  8CC18082           [076] settable   6   261 3    ; "mKillingSuit"
35FB  93010001           [077] getupval   6   2      
35FF  8C018183           [078] settable   6   263 4    ; "mShoulderHelmet"
3603  93010001           [079] getupval   6   2      
3607  8C410082           [080] settable   6   260 1    ; "mRank"
360B  93010001           [081] getupval   6   2      
360F  DD010700           [082] getglobal  7   28       ; manifest
3613  8CC1818D           [083] settable   6   283 7    ; "mManifest"
3617  93010001           [084] getupval   6   2      
361B  DD810700           [085] getglobal  7   30       ; 687937235
361F  19020000           [086] loadk      8   0        ; 0
3623  59020500           [087] loadk      9   20       ; 0
3627  E2818001           [088] call       7   3   2  
362B  8CC1818E           [089] settable   6   285 7    ; "mAgentIdx"
362F  9D010600           [090] getglobal  6   24       ; -1692306532
3633  D2018002           [091] move       7   5      
3637  A2410001           [092] call       6   2   1  
363B  93018002           [093] getupval   6   5      
363F  8EC14703           [094] gettable   6   6   287  ; -2079289879
3643  D3010001           [095] getupval   7   2      
3647  A2810001           [096] call       6   2   2  
fail op	8
364B  88010002           [097] setupval   6   4      
364F  8B010000           [098] newtable   6   0   0    ; array=0, hash=0
fail op	8
3653  88010003           [099] setupval   6   6      
3657  93010003           [100] getupval   6   6      
365B  8CC10090           [101] settable   6   288 3    ; "killingPowersuitType"
365F  93010003           [102] getupval   6   6      
3663  8C018190           [103] settable   6   289 4    ; "helmet"
3667  93010003           [104] getupval   6   6      
366B  D3010001           [105] getupval   7   2      
366F  CEC1C803           [106] gettable   7   7   291  ; "mBirthNode"
3673  8CC10191           [107] settable   6   290 7    ; "birthNode"
3677  93010003           [108] getupval   6   6      
367B  D3010001           [109] getupval   7   2      
367F  CE41C703           [110] gettable   7   7   285  ; "mAgentIdx"
3683  8CC10192           [111] settable   6   292 7    ; "agentIdx"
3687  8B410100           [112] newtable   6   0   5    ; array=0, hash=5
368B  8C418092           [113] settable   6   293 1    ; "rank"
368F  8CC14993           [114] settable   6   294 295  ; "faction" "Grineer"
3693  DD410A00           [115] getglobal  7   41       ; mMovie
3697  E481CA03           [116] self       7   7   298  ; 98241492
369B  64C24A01           [117] self       9   2   299  ; 1634497718
369F  62820001           [118] call       9   2   2  
36A3  6402CB04           [119] self       9   9   300  ; 1590141906
36A7  62820001           [120] call       9   2   2  
36AB  97020000           [121] loadbool   10  0   0    ; false
36AF  E2810002           [122] call       7   4   2  
36B3  8CC10194           [123] settable   6   296 7    ; "killingSuit"
36B7  D3010002           [124] getupval   7   4      
36BB  CE81CB03           [125] gettable   7   7   302  ; "mName"
36BF  8CC18196           [126] settable   6   301 7    ; "name"
36C3  8C018190           [127] settable   6   289 4    ; "helmet"
fail op	8
36C7  88018003           [128] setupval   6   7      
36CB  1E008000           [129] return     0   1      
                         * constants:
36CF  2F                 sizek (47)
36D0  03                 const type 3
36D1  00000000           const [0]: (0)
36D5  00                 const type 0
                         const [1]: nil
36D6  01                 const type 3
36D7  BCD6AE9F           const [2]: (-1615931716)
36DB  01                 const type 3
36DC  48067ACB           const [3]: (-881195448)
36E0  04                 const type 4
36E1  06                 string size (6)
36E2  6D52616E6B00       "mRank\0"
                         const [4]: "mRank"
36E8  04                 const type 4
36E9  0D                 string size (13)
36EA  6D4B696C6C696E67+  "mKilling"
36F2  5375697400         "Suit\0"
                         const [5]: "mKillingSuit"
36F7  01                 const type 3
36F8  5720287C           const [6]: (2083004503)
36FC  04                 const type 4
36FD  10                 string size (16)
36FE  6D53686F756C6465+  "mShoulde"
3706  7248656C6D657400   "rHelmet\0"
                         const [7]: "mShoulderHelmet"
370E  04                 const type 4
370F  08                 string size (8)
3710  67526567696F6E00   "gRegion\0"
                         const [8]: "gRegion"
3718  01                 const type 3
3719  BFF6E203           const [9]: (65205951)
371D  01                 const type 3
371E  1FD0B58D           const [10]: (-1917464545)
3722  01                 const type 3
3723  59AC7869           const [11]: (1769516121)
3727  01                 const type 3
3728  652CB3E2           const [12]: (-491574171)
372C  01                 const type 3
372D  2D7BA6AF           const [13]: (-1348043987)
3731  01                 const type 3
3732  86A51BA1           const [14]: (-1592023674)
3736  04                 const type 4
3737  0B                 string size (11)
3738  4C6F7475735F4761+  "Lotus_Ga"
3740  6D6500             "me\0"
                         const [15]: "Lotus_Game"
3743  04                 const type 4
3744  07                 string size (7)
3745  48656C6D657400     "Helmet\0"
                         const [16]: "Helmet"
374C  04                 const type 4
374D  03                 string size (3)
374E  5F5400             "_T\0"
                         const [17]: "_T"
3751  04                 const type 4
3752  0C                 string size (12)
3753  4E656D6573697353+  "NemesisS"
375B  65656400           "eed\0"
                         const [18]: "NemesisSeed"
375F  01                 const type 3
3760  7DB5D47F           const [19]: (2144646525)
3764  03                 const type 3
3765  0000803F           const [20]: (0)
3769  03                 const type 3
376A  FFFF7F4B           const [21]: (-1)
376E  01                 const type 3
376F  997D59CD           const [22]: (-849773159)
3773  01                 const type 3
3774  4C48EE77           const [23]: (2012104780)
3778  01                 const type 3
3779  9C73219B           const [24]: (-1692306532)
377D  01                 const type 3
377E  EAE54C4F           const [25]: (1330439658)
3782  01                 const type 3
3783  B2C52555           const [26]: (1428538802)
3787  04                 const type 4
3788  0A                 string size (10)
3789  6D4D616E69666573+  "mManifes"
3791  7400               "t\0"
                         const [27]: "mManifest"
3793  04                 const type 4
3794  09                 string size (9)
3795  6D616E6966657374+  "manifest"
379D  00                 "\0"
                         const [28]: "manifest"
379E  04                 const type 4
379F  0A                 string size (10)
37A0  6D4167656E744964+  "mAgentId"
37A8  7800               "x\0"
                         const [29]: "mAgentIdx"
37AA  01                 const type 3
37AB  D3160129           const [30]: (687937235)
37AF  01                 const type 3
37B0  E98D1084           const [31]: (-2079289879)
37B4  04                 const type 4
37B5  15                 string size (21)
37B6  6B696C6C696E6750+  "killingP"
37BE  6F77657273756974+  "owersuit"
37C6  5479706500         "Type\0"
                         const [32]: "killingPowersuitType"
37CB  04                 const type 4
37CC  07                 string size (7)
37CD  68656C6D657400     "helmet\0"
                         const [33]: "helmet"
37D4  04                 const type 4
37D5  0A                 string size (10)
37D6  62697274684E6F64+  "birthNod"
37DE  6500               "e\0"
                         const [34]: "birthNode"
37E0  04                 const type 4
37E1  0B                 string size (11)
37E2  6D42697274684E6F+  "mBirthNo"
37EA  646500             "de\0"
                         const [35]: "mBirthNode"
37ED  04                 const type 4
37EE  09                 string size (9)
37EF  6167656E74496478+  "agentIdx"
37F7  00                 "\0"
                         const [36]: "agentIdx"
37F8  04                 const type 4
37F9  05                 string size (5)
37FA  72616E6B00         "rank\0"
                         const [37]: "rank"
37FF  04                 const type 4
3800  08                 string size (8)
3801  66616374696F6E00   "faction\0"
                         const [38]: "faction"
3809  04                 const type 4
380A  08                 string size (8)
380B  4772696E65657200   "Grineer\0"
                         const [39]: "Grineer"
3813  04                 const type 4
3814  0C                 string size (12)
3815  6B696C6C696E6753+  "killingS"
381D  75697400           "uit\0"
                         const [40]: "killingSuit"
3821  04                 const type 4
3822  07                 string size (7)
3823  6D4D6F76696500     "mMovie\0"
                         const [41]: "mMovie"
382A  01                 const type 3
382B  D40BDB05           const [42]: (98241492)
382F  01                 const type 3
3830  B6746C61           const [43]: (1634497718)
3834  01                 const type 3
3835  D2A3C75E           const [44]: (1590141906)
3839  04                 const type 4
383A  05                 string size (5)
383B  6E616D6500         "name\0"
                         const [45]: "name"
3840  04                 const type 4
3841  06                 string size (6)
3842  6D4E616D6500       "mName\0"
                         const [46]: "mName"
                         * functions:
3848  00                 sizep (0)
                         * lines:
384A  01                 sizelineinfo (129)
                         [pc] (line)
384B  95                 [001] (-107)
384C  01                 [002] (-106)
384D  00                 [003] (-102)
384E  00                 [004] (-102)
384F  96                 [005] (-101)
3850  01                 [006] (-101)
3851  00                 [007] (-101)
3852  00                 [008] (-101)
3853  9A                 [009] (-101)
3854  01                 [010] (-100)
3855  00                 [011] (-100)
3856  00                 [012] (-100)
3857  9A                 [013] (-98)
3858  01                 [014] (-96)
3859  00                 [015] (-96)
385A  00                 [016] (-95)
385B  9B                 [017] (-93)
385C  01                 [018] (-93)
385D  00                 [019] (-93)
385E  00                 [020] (-93)
385F  9B                 [021] (-91)
3860  01                 [022] (-91)
3861  00                 [023] (-89)
3862  00                 [024] (-89)
3863  9B                 [025] (-89)
3864  01                 [026] (-89)
3865  00                 [027] (-89)
3866  00                 [028] (-89)
3867  9B                 [029] (-89)
3868  01                 [030] (-89)
3869  00                 [031] (-88)
386A  00                 [032] (-88)
386B  9B                 [033] (-88)
386C  01                 [034] (-87)
386D  00                 [035] (-87)
386E  00                 [036] (-87)
386F  9C                 [037] (-87)
3870  01                 [038] (-87)
3871  00                 [039] (-87)
3872  00                 [040] (-87)
3873  9C                 [041] (-85)
3874  01                 [042] (-85)
3875  00                 [043] (-85)
3876  00                 [044] (-85)
3877  9C                 [045] (-84)
3878  01                 [046] (-84)
3879  00                 [047] (-84)
387A  00                 [048] (-83)
387B  9E                 [049] (-83)
387C  01                 [050] (-83)
387D  00                 [051] (-81)
387E  00                 [052] (-81)
387F  A0                 [053] (-80)
3880  01                 [054] (-80)
3881  00                 [055] (-80)
3882  00                 [056] (-80)
3883  A0                 [057] (-80)
3884  01                 [058] (-78)
3885  00                 [059] (-78)
3886  00                 [060] (-78)
3887  A1                 [061] (-78)
3888  01                 [062] (-76)
3889  00                 [063] (-76)
388A  00                 [064] (-75)
388B  A3                 [065] (-75)
388C  01                 [066] (-75)
388D  00                 [067] (-73)
388E  00                 [068] (-73)
388F  A3                 [069] (-73)
3890  01                 [070] (-73)
3891  00                 [071] (-72)
3892  00                 [072] (-72)
3893  A3                 [073] (-72)
3894  01                 [074] (-72)
3895  00                 [075] (-71)
3896  00                 [076] (-71)
3897  A3                 [077] (-70)
3898  01                 [078] (-70)
3899  00                 [079] (-69)
389A  00                 [080] (-69)
389B  A5                 [081] (-68)
389C  01                 [082] (-68)
389D  00                 [083] (-68)
389E  00                 [084] (-67)
389F  A5                 [085] (-67)
38A0  01                 [086] (-67)
38A1  00                 [087] (-67)
38A2  00                 [088] (-67)
38A3  A7                 [089] (-67)
38A4  01                 [090] (-65)
38A5  00                 [091] (-65)
38A6  00                 [092] (-65)
38A7  A7                 [093] (-62)
38A8  01                 [094] (-62)
38A9  00                 [095] (-62)
38AA  00                 [096] (-62)
38AB  A7                 [097] (-62)
38AC  01                 [098] (-59)
38AD  00                 [099] (-59)
38AE  00                 [100] (-58)
38AF  A7                 [101] (-58)
38B0  01                 [102] (-57)
38B1  00                 [103] (-57)
38B2  00                 [104] (-56)
38B3  A7                 [105] (-56)
38B4  01                 [106] (-56)
38B5  00                 [107] (-56)
38B6  00                 [108] (-55)
38B7  A7                 [109] (-55)
38B8  01                 [110] (-55)
38B9  00                 [111] (-55)
38BA  00                 [112] (-53)
38BB  A7                 [113] (-52)
38BC  01                 [114] (-51)
38BD  00                 [115] (-50)
38BE  00                 [116] (-50)
38BF  A7                 [117] (-50)
38C0  01                 [118] (-50)
38C1  00                 [119] (-50)
38C2  00                 [120] (-50)
38C3  A8                 [121] (-50)
38C4  01                 [122] (-50)
38C5  00                 [123] (-50)
38C6  00                 [124] (-49)
38C7  A8                 [125] (-49)
38C8  01                 [126] (-49)
38C9  00                 [127] (-48)
38CA  00                 [128] (-47)
38CB  A8                 [129] (-46)
                         * locals:
3A4F  00                 sizelocvars (0)
                         * upvalues:
3A50  00                 sizeupvalues (0)
                         ** end of function **

                         
3A51                     ** function [9] definition (level 2)
                         ** start of function **
3A51  00                 string size (0)
                         source name: (none)
3A53  03                 line defined (468)
3A54  DD                 last line defined (477)
3A55  03                 nups (7)
3A56  07                 numparams (1)
3A57  01                 is_vararg (0)
3A58  00                 maxstacksize (6)
                         * code:
3A5A  18                 sizecode (24)
3A5B  53000000           [01] getupval   1   0      
3A5F  92000000           [02] move       2   0      
3A63  62400001           [03] call       1   2   1  
3A67  53008000           [04] getupval   1   1      
3A6B  93000001           [05] getupval   2   2      
3A6F  8E004001           [06] gettable   2   2   256  ; -1186560387
3A73  D3008001           [07] getupval   3   3      
3A77  A2000001           [08] call       2   2   0  
3A7B  62400000           [09] call       1   0   1  
3A7F  5D400000           [10] getglobal  1   1        ; _T
3A83  4E80C000           [11] gettable   1   1   258  ; "gNemesis"
3A87  93008001           [12] getupval   2   3      
3A8B  4C808081           [13] settable   1   259 2    ; "generatedProfile"
3A8F  5D400000           [14] getglobal  1   1        ; _T
3A93  4E80C000           [15] gettable   1   1   258  ; "gNemesis"
3A97  93000002           [16] getupval   2   4      
3A9B  4C800082           [17] settable   1   260 2    ; "properties"
3A9F  53008002           [18] getupval   1   5      
3AA3  93008001           [19] getupval   2   3      
3AA7  D3000003           [20] getupval   3   6      
3AAB  13010002           [21] getupval   4   4      
3AAF  52010000           [22] move       5   0      
3AB3  62408002           [23] call       1   5   1  
3AB7  1E008000           [24] return     0   1      
                         * constants:
3ABB  05                 sizek (5)
3ABC  01                 const type 3
3ABD  7D8646B9           const [0]: (-1186560387)
3AC1  04                 const type 4
3AC2  03                 string size (3)
3AC3  5F5400             "_T\0"
                         const [1]: "_T"
3AC6  04                 const type 4
3AC7  09                 string size (9)
3AC8  674E656D65736973+  "gNemesis"
3AD0  00                 "\0"
                         const [2]: "gNemesis"
3AD1  04                 const type 4
3AD2  11                 string size (17)
3AD3  67656E6572617465+  "generate"
3ADB  6450726F66696C65+  "dProfile"
3AE3  00                 "\0"
                         const [3]: "generatedProfile"
3AE4  04                 const type 4
3AE5  0B                 string size (11)
3AE6  70726F7065727469+  "properti"
3AEE  657300             "es\0"
                         const [4]: "properties"
                         * functions:
3AF1  00                 sizep (0)
                         * lines:
3AF2  18                 sizelineinfo (24)
                         [pc] (line)
3AF3  D5                 [01] (-43)
3AF4  01                 [02] (-43)
3AF5  00                 [03] (-43)
3AF6  00                 [04] (-41)
3AF7  D5                 [05] (-41)
3AF8  01                 [06] (-41)
3AF9  00                 [07] (-41)
3AFA  00                 [08] (-41)
3AFB  D5                 [09] (-41)
3AFC  01                 [10] (-39)
3AFD  00                 [11] (-39)
3AFE  00                 [12] (-39)
3AFF  D7                 [13] (-39)
3B00  01                 [14] (-38)
3B01  00                 [15] (-38)
3B02  00                 [16] (-38)
3B03  D7                 [17] (-38)
3B04  01                 [18] (-36)
3B05  00                 [19] (-36)
3B06  00                 [20] (-36)
3B07  D7                 [21] (-36)
3B08  01                 [22] (-36)
3B09  00                 [23] (-36)
3B0A  00                 [24] (-35)
                         * locals:
3B53  00                 sizelocvars (0)
                         * upvalues:
3B54  00                 sizeupvalues (0)
                         ** end of function **

                         
3B55                     ** function [10] definition (level 2)
                         ** start of function **
3B55  00                 string size (0)
                         source name: (none)
3B57  03                 line defined (480)
3B58  E3                 last line defined (483)
3B59  03                 nups (2)
3B5A  02                 numparams (0)
3B5B  00                 is_vararg (0)
3B5C  00                 maxstacksize (2)
                         * code:
3B5E  05                 sizecode (5)
3B5F  17000000           [1] loadbool   0   0   0    ; false
fail op	8
3B63  08000000           [2] setupval   0   0      
3B67  13008000           [3] getupval   0   1      
3B6B  22408000           [4] call       0   1   1  
3B6F  1E008000           [5] return     0   1      
                         * constants:
3B73  00                 sizek (0)
                         * functions:
3B74  00                 sizep (0)
                         * lines:
3B75  05                 sizelineinfo (5)
                         [pc] (line)
3B76  E1                 [1] (-31)
3B77  01                 [2] (-31)
3B78  00                 [3] (-30)
3B79  00                 [4] (-30)
3B7A  E1                 [5] (-29)
                         * locals:
3B8A  00                 sizelocvars (0)
                         * upvalues:
3B8B  00                 sizeupvalues (0)
                         ** end of function **

                         
3B8C                     ** function [11] definition (level 2)
                         ** start of function **
3B8C  00                 string size (0)
                         source name: (none)
3B8E  03                 line defined (485)
3B8F  E7                 last line defined (487)
3B90  03                 nups (1)
3B91  01                 numparams (0)
3B92  00                 is_vararg (0)
3B93  00                 maxstacksize (3)
                         * code:
3B95  06                 sizecode (6)
3B96  13000000           [1] getupval   0   0      
3B9A  5D000000           [2] getglobal  1   0        ; gGameData
3B9E  6440C000           [3] self       1   1   257  ; 389385621
3BA2  62000001           [4] call       1   2   0  
3BA6  22400000           [5] call       0   0   1  
3BAA  1E008000           [6] return     0   1      
                         * constants:
3BAE  02                 sizek (2)
3BAF  04                 const type 4
3BB0  0A                 string size (10)
3BB1  6747616D65446174+  "gGameDat"
3BB9  6100               "a\0"
                         const [0]: "gGameData"
3BBB  01                 const type 3
3BBC  958D3517           const [1]: (389385621)
                         * functions:
3BC0  00                 sizep (0)
                         * lines:
3BC1  06                 sizelineinfo (6)
                         [pc] (line)
3BC2  E6                 [1] (-26)
3BC3  01                 [2] (-26)
3BC4  00                 [3] (-26)
3BC5  00                 [4] (-26)
3BC6  E6                 [5] (-26)
3BC7  01                 [6] (-25)
                         * locals:
3BDA  00                 sizelocvars (0)
                         * upvalues:
3BDB  00                 sizeupvalues (0)
                         ** end of function **

                         
3BDC                     ** function [12] definition (level 2)
                         ** start of function **
3BDC  00                 string size (0)
                         source name: (none)
3BDE  03                 line defined (489)
3BDF  EC                 last line defined (492)
3BE0  03                 nups (2)
3BE1  02                 numparams (0)
3BE2  00                 is_vararg (0)
3BE3  00                 maxstacksize (3)
                         * code:
3BE5  07                 sizecode (7)
3BE6  17008000           [1] loadbool   0   1   0    ; true
fail op	8
3BEA  08000000           [2] setupval   0   0      
3BEE  13008000           [3] getupval   0   1      
3BF2  24004000           [4] self       0   0   256  ; 252425949
3BF6  9D400000           [5] getglobal  2   1        ; nemesisPreviewLevel
3BFA  22408001           [6] call       0   3   1  
3BFE  1E008000           [7] return     0   1      
                         * constants:
3C02  02                 sizek (2)
3C03  01                 const type 3
3C04  DDB60B0F           const [0]: (252425949)
3C08  04                 const type 4
3C09  14                 string size (20)
3C0A  6E656D6573697350+  "nemesisP"
3C12  7265766965774C65+  "reviewLe"
3C1A  76656C00           "vel\0"
                         const [1]: "nemesisPreviewLevel"
                         * functions:
3C1E  00                 sizep (0)
                         * lines:
3C1F  07                 sizelineinfo (7)
                         [pc] (line)
3C20  EA                 [1] (-22)
3C21  01                 [2] (-22)
3C22  00                 [3] (-21)
3C23  00                 [4] (-21)
3C24  EA                 [5] (-21)
3C25  01                 [6] (-21)
3C26  00                 [7] (-20)
                         * locals:
3C3C  00                 sizelocvars (0)
                         * upvalues:
3C3D  00                 sizeupvalues (0)
                         ** end of function **

                         
3C3E                     ** function [13] definition (level 2)
                         ** start of function **
3C3E  00                 string size (0)
                         source name: (none)
3C40  03                 line defined (494)
3C41  F0                 last line defined (496)
3C42  03                 nups (1)
3C43  01                 numparams (0)
3C44  00                 is_vararg (0)
3C45  00                 maxstacksize (3)
                         * code:
3C47  08                 sizecode (8)
3C48  13000000           [1] getupval   0   0      
3C4C  0E004000           [2] gettable   0   0   256  ; -2060281269
3C50  5D400000           [3] getglobal  1   1        ; -332969190
3C54  99800000           [4] loadk      2   2        ; "Created"
3C58  62800001           [5] call       1   2   2  
3C5C  97008000           [6] loadbool   2   1   0    ; true
3C60  22408001           [7] call       0   3   1  
3C64  1E008000           [8] return     0   1      
                         * constants:
3C68  03                 sizek (3)
3C69  01                 const type 3
3C6A  4B9A3285           const [0]: (-2060281269)
3C6E  01                 const type 3
3C6F  1A4B27EC           const [1]: (-332969190)
3C73  04                 const type 4
3C74  08                 string size (8)
3C75  4372656174656400   "Created\0"
                         const [2]: "Created"
                         * functions:
3C7D  00                 sizep (0)
                         * lines:
3C7E  08                 sizelineinfo (8)
                         [pc] (line)
3C7F  EF                 [1] (-17)
3C80  01                 [2] (-17)
3C81  00                 [3] (-17)
3C82  00                 [4] (-17)
3C83  EF                 [5] (-17)
3C84  01                 [6] (-17)
3C85  00                 [7] (-17)
3C86  00                 [8] (-16)
                         * locals:
3C9F  00                 sizelocvars (0)
                         * upvalues:
3CA0  00                 sizeupvalues (0)
                         ** end of function **

                         
3CA1                     ** function [14] definition (level 2)
                         ** start of function **
3CA1  00                 string size (0)
                         source name: (none)
3CA3  03                 line defined (498)
3CA4  F9                 last line defined (505)
3CA5  03                 nups (1)
3CA6  01                 numparams (0)
3CA7  00                 is_vararg (0)
3CA8  00                 maxstacksize (3)
                         * code:
3CAA  12                 sizecode (18)
3CAB  1D000000           [01] getglobal  0   0        ; mMovie
3CAF  24404000           [02] self       0   0   257  ; -1517569684
3CB3  22400001           [03] call       0   2   1  
3CB7  1D800000           [04] getglobal  0   2        ; 1074689893
3CBB  53000000           [05] getupval   1   0      
3CBF  22800001           [06] call       0   2   2  
3CC3  18400000           [07] test       0       1    ; to [9] if false
3CC7  1A400180           [08] jmp        6            ; to [15]
3CCB  1DC00000           [09] getglobal  0   3        ; gBackgroundRegion
3CCF  24004100           [10] self       0   0   260  ; -1693828985
3CD3  93000000           [11] getupval   2   0      
3CD7  22408001           [12] call       0   3   1  
3CDB  1D400100           [13] getglobal  0   5        ; _T
3CDF  0CC04183           [14] settable   0   262 263  ; "NemesisMenuAvatar" nil
3CE3  1D000200           [15] getglobal  0   8        ; gFlashMgr
3CE7  24404200           [16] self       0   0   265  ; -991492797
3CEB  22400001           [17] call       0   2   1  
3CEF  1E008000           [18] return     0   1      
                         * constants:
3CF3  0A                 sizek (10)
3CF4  04                 const type 4
3CF5  07                 string size (7)
3CF6  6D4D6F76696500     "mMovie\0"
                         const [0]: "mMovie"
3CFD  01                 const type 3
3CFE  6CB98BA5           const [1]: (-1517569684)
3D02  01                 const type 3
3D03  65770E40           const [2]: (1074689893)
3D07  04                 const type 4
3D08  12                 string size (18)
3D09  674261636B67726F+  "gBackgro"
3D11  756E64526567696F+  "undRegio"
3D19  6E00               "n\0"
                         const [3]: "gBackgroundRegion"
3D1B  01                 const type 3
3D1C  87380A9B           const [4]: (-1693828985)
3D20  04                 const type 4
3D21  03                 string size (3)
3D22  5F5400             "_T\0"
                         const [5]: "_T"
3D25  04                 const type 4
3D26  12                 string size (18)
3D27  4E656D657369734D+  "NemesisM"
3D2F  656E754176617461+  "enuAvata"
3D37  7200               "r\0"
                         const [6]: "NemesisMenuAvatar"
3D39  00                 const type 0
                         const [7]: nil
3D3A  04                 const type 4
3D3B  0A                 string size (10)
3D3C  67466C6173684D67+  "gFlashMg"
3D44  7200               "r\0"
                         const [8]: "gFlashMgr"
3D46  01                 const type 3
3D47  4305E7C4           const [9]: (-991492797)
                         * functions:
3D4B  00                 sizep (0)
                         * lines:
3D4C  12                 sizelineinfo (18)
                         [pc] (line)
3D4D  F3                 [01] (-13)
3D4E  01                 [02] (-13)
3D4F  00                 [03] (-13)
3D50  00                 [04] (-12)
3D51  F3                 [05] (-12)
3D52  01                 [06] (-12)
3D53  00                 [07] (-12)
3D54  00                 [08] (-12)
3D55  F3                 [09] (-11)
3D56  01                 [10] (-11)
3D57  00                 [11] (-11)
3D58  00                 [12] (-11)
3D59  F4                 [13] (-10)
3D5A  01                 [14] (-10)
3D5B  00                 [15] (-8)
3D5C  00                 [16] (-8)
3D5D  F4                 [17] (-8)
3D5E  01                 [18] (-7)
                         * locals:
3D95  00                 sizelocvars (0)
                         * upvalues:
3D96  00                 sizeupvalues (0)
                         ** end of function **

                         
3D97                     ** function [15] definition (level 2)
                         ** start of function **
3D97  00                 string size (0)
                         source name: (none)
3D99  03                 line defined (507)
3D9A  80                 last line defined (512)
3D9B  04                 nups (1)
3D9C  01                 numparams (2)
3D9D  02                 is_vararg (0)
3D9E  00                 maxstacksize (4)
                         * code:
3DA0  09                 sizecode (9)
3DA1  18000000           [1] test       0       0    ; to [3] if true
3DA5  1A400180           [2] jmp        6            ; to [9]
3DA9  9D000000           [3] getglobal  2   0        ; cjson
3DAD  8E404001           [4] gettable   2   2   257  ; -1976663275
3DB1  D2008000           [5] move       3   1      
3DB5  A2800001           [6] call       2   2   2  
3DB9  CE804001           [7] gettable   3   2   258  ; "GuessResult"
fail op	8
3DBD  C8000000           [8] setupval   3   0      
3DC1  1E008000           [9] return     0   1      
                         * constants:
3DC5  03                 sizek (3)
3DC6  04                 const type 4
3DC7  06                 string size (6)
3DC8  636A736F6E00       "cjson\0"
                         const [0]: "cjson"
3DCE  01                 const type 3
3DCF  15832E8A           const [1]: (-1976663275)
3DD3  04                 const type 4
3DD4  0C                 string size (12)
3DD5  4775657373526573+  "GuessRes"
3DDD  756C7400           "ult\0"
                         const [2]: "GuessResult"
                         * functions:
3DE1  00                 sizep (0)
                         * lines:
3DE2  09                 sizelineinfo (9)
                         [pc] (line)
3DE3  FC                 [1] (-4)
3DE4  01                 [2] (-4)
3DE5  00                 [3] (-3)
3DE6  00                 [4] (-3)
3DE7  FC                 [5] (-3)
3DE8  01                 [6] (-3)
3DE9  00                 [7] (-2)
3DEA  00                 [8] (-2)
3DEB  FD                 [9] (0)
                         * locals:
3E07  00                 sizelocvars (0)
                         * upvalues:
3E08  00                 sizeupvalues (0)
                         ** end of function **

                         
3E09                     ** function [16] definition (level 2)
                         ** start of function **
3E09  00                 string size (0)
                         source name: (none)
3E0B  04                 line defined (514)
3E0C  96                 last line defined (534)
3E0D  04                 nups (6)
3E0E  06                 numparams (0)
3E0F  00                 is_vararg (0)
3E10  00                 maxstacksize (7)
                         * code:
3E12  44                 sizecode (68)
3E13  1D000000           [01] getglobal  0   0        ; gGameData
3E17  24404000           [02] self       0   0   257  ; 389385621
3E1B  22800001           [03] call       0   2   2  
3E1F  53000000           [04] getupval   1   0      
3E23  58000000           [05] test       1       0    ; to [7] if true
3E27  1AC00380           [06] jmp        16           ; to [23]
3E2B  5D800000           [07] getglobal  1   2        ; _T
3E2F  4C00C181           [08] settable   1   259 260  ; "forceSpawnNemesis" 1
3E33  53008000           [09] getupval   1   1      
3E37  4E40C100           [10] gettable   1   1   261  ; -478047289
3E3B  92000000           [11] move       2   0      
3E3F  DD800100           [12] getglobal  3   6        ; Lotus_Game
3E43  CEC0C101           [13] gettable   3   3   263  ; "NE_NEMESIS"
3E47  17018000           [14] loadbool   4   1   0    ; true
3E4B  57018000           [15] loadbool   5   1   0    ; true
3E4F  97018000           [16] loadbool   6   1   0    ; true
3E53  62400003           [17] call       1   6   1  
3E57  53000001           [18] getupval   1   2      
3E5B  62408000           [19] call       1   1   1  
3E5F  57000000           [20] loadbool   1   0   0    ; false
fail op	8
3E63  48008001           [21] setupval   1   3      
3E67  1A000B80           [22] jmp        45           ; to [68]
3E6B  53000002           [23] getupval   1   4      
3E6F  58000000           [24] test       1       0    ; to [26] if true
3E73  1AC00680           [25] jmp        28           ; to [54]
3E77  5D800000           [26] getglobal  1   2        ; _T
3E7B  4C00C181           [27] settable   1   259 260  ; "forceSpawnNemesis" 1
3E7F  53008000           [28] getupval   1   1      
3E83  4E40C100           [29] gettable   1   1   261  ; -478047289
3E87  92000000           [30] move       2   0      
3E8B  DD800100           [31] getglobal  3   6        ; Lotus_Game
3E8F  CEC0C101           [32] gettable   3   3   263  ; "NE_NEMESIS"
3E93  13010002           [33] getupval   4   4      
fail op	33
3E97  61000184           [34] tforloop   1       4    ; to [36] if exit
3E9B  1A000080           [35] jmp        1            ; to [37]
3E9F  17410000           [36] loadbool   4   0   1    ; false, to [38]
3EA3  17018000           [37] loadbool   4   1   0    ; true
3EA7  53010002           [38] getupval   5   4      
fail op	33
3EAB  61408184           [39] tforloop   1       5    ; to [41] if exit
3EAF  1A000080           [40] jmp        1            ; to [42]
3EB3  57410000           [41] loadbool   5   0   1    ; false, to [43]
3EB7  57018000           [42] loadbool   5   1   0    ; true
3EBB  93010002           [43] getupval   6   4      
fail op	33
3EBF  61800185           [44] tforloop   1       6    ; to [46] if exit
3EC3  1A000080           [45] jmp        1            ; to [47]
3EC7  97410000           [46] loadbool   6   0   1    ; false, to [48]
3ECB  97018000           [47] loadbool   6   1   0    ; true
3ECF  62400003           [48] call       1   6   1  
3ED3  53000001           [49] getupval   1   2      
3ED7  62408000           [50] call       1   1   1  
3EDB  57000000           [51] loadbool   1   0   0    ; false
fail op	8
3EDF  48008001           [52] setupval   1   3      
3EE3  1A400380           [53] jmp        14           ; to [68]
3EE7  53008002           [54] getupval   1   5      
3EEB  4EC0C200           [55] gettable   1   1   267  ; -124143215
3EEF  62808000           [56] call       1   1   2  
3EF3  9D000300           [57] getglobal  2   12       ; 2083004503
3EF7  CE404300           [58] gettable   3   0   269  ; "mManifest"
3EFB  A2800001           [59] call       2   2   2  
3EFF  A4804301           [60] self       2   2   270  ; -350057302
3F03  12018000           [61] move       4   1      
3F07  A2808001           [62] call       2   3   2  
3F0B  DD000000           [63] getglobal  3   0        ; gGameData
3F0F  E4C0C301           [64] self       3   3   271  ; -1556083999
3F13  52010001           [65] move       5   2      
3F17  99010400           [66] loadk      6   16       ; "OnPasscodeCheck"
3F1B  E2400002           [67] call       3   4   1  
3F1F  1E008000           [68] return     0   1      
                         * constants:
3F23  11                 sizek (17)
3F24  04                 const type 4
3F25  0A                 string size (10)
3F26  6747616D65446174+  "gGameDat"
3F2E  6100               "a\0"
                         const [0]: "gGameData"
3F30  01                 const type 3
3F31  958D3517           const [1]: (389385621)
3F35  04                 const type 4
3F36  03                 string size (3)
3F37  5F5400             "_T\0"
                         const [2]: "_T"
3F3A  04                 const type 4
3F3B  12                 string size (18)
3F3C  666F726365537061+  "forceSpa"
3F44  776E4E656D657369+  "wnNemesi"
3F4C  7300               "s\0"
                         const [3]: "forceSpawnNemesis"
3F4E  01                 const type 3
3F4F  01000000           const [4]: (1)
3F53  01                 const type 3
3F54  C79381E3           const [5]: (-478047289)
3F58  04                 const type 4
3F59  0B                 string size (11)
3F5A  4C6F7475735F4761+  "Lotus_Ga"
3F62  6D6500             "me\0"
                         const [6]: "Lotus_Game"
3F65  04                 const type 4
3F66  0B                 string size (11)
3F67  4E455F4E454D4553+  "NE_NEMES"
3F6F  495300             "IS\0"
                         const [7]: "NE_NEMESIS"
3F72  03                 const type 3
3F73  0000803F           const [8]: (0)
3F77  03                 const type 3
3F78  00000040           const [9]: (0)
3F7C  03                 const type 3
3F7D  00004040           const [10]: (0)
3F81  01                 const type 3
3F82  91B999F8           const [11]: (-124143215)
3F86  01                 const type 3
3F87  5720287C           const [12]: (2083004503)
3F8B  04                 const type 4
3F8C  0A                 string size (10)
3F8D  6D4D616E69666573+  "mManifes"
3F95  7400               "t\0"
                         const [13]: "mManifest"
3F97  01                 const type 3
3F98  AA8C22EB           const [14]: (-350057302)
3F9C  01                 const type 3
3F9D  E10A40A3           const [15]: (-1556083999)
3FA1  04                 const type 4
3FA2  10                 string size (16)
3FA3  4F6E50617373636F+  "OnPassco"
3FAB  6465436865636B00   "deCheck\0"
                         const [16]: "OnPasscodeCheck"
                         * functions:
3FB3  00                 sizep (0)
                         * lines:
3FB4  44                 sizelineinfo (68)
                         [pc] (line)
3FB5  03                 [01] (3)
3FB6  02                 [02] (3)
3FB7  00                 [03] (3)
3FB8  00                 [04] (4)
3FB9  03                 [05] (4)
3FBA  02                 [06] (4)
3FBB  00                 [07] (5)
3FBC  00                 [08] (5)
3FBD  03                 [09] (6)
3FBE  02                 [10] (6)
3FBF  00                 [11] (6)
3FC0  00                 [12] (6)
3FC1  04                 [13] (6)
3FC2  02                 [14] (6)
3FC3  00                 [15] (6)
3FC4  00                 [16] (6)
3FC5  04                 [17] (6)
3FC6  02                 [18] (7)
3FC7  00                 [19] (7)
3FC8  00                 [20] (8)
3FC9  04                 [21] (8)
3FCA  02                 [22] (8)
3FCB  00                 [23] (10)
3FCC  00                 [24] (10)
3FCD  05                 [25] (10)
3FCE  02                 [26] (11)
3FCF  00                 [27] (11)
3FD0  00                 [28] (12)
3FD1  05                 [29] (12)
3FD2  02                 [30] (12)
3FD3  00                 [31] (12)
3FD4  00                 [32] (12)
3FD5  06                 [33] (12)
3FD6  02                 [34] (12)
3FD7  00                 [35] (12)
3FD8  00                 [36] (12)
3FD9  06                 [37] (12)
3FDA  02                 [38] (12)
3FDB  00                 [39] (12)
3FDC  00                 [40] (12)
3FDD  06                 [41] (12)
3FDE  02                 [42] (12)
3FDF  00                 [43] (12)
3FE0  00                 [44] (12)
3FE1  06                 [45] (12)
3FE2  02                 [46] (12)
3FE3  00                 [47] (12)
3FE4  00                 [48] (12)
3FE5  06                 [49] (13)
3FE6  02                 [50] (13)
3FE7  00                 [51] (14)
3FE8  00                 [52] (14)
3FE9  06                 [53] (14)
3FEA  02                 [54] (16)
3FEB  00                 [55] (16)
3FEC  00                 [56] (16)
3FED  06                 [57] (17)
3FEE  02                 [58] (17)
3FEF  00                 [59] (17)
3FF0  00                 [60] (17)
3FF1  06                 [61] (17)
3FF2  02                 [62] (17)
3FF3  00                 [63] (19)
3FF4  00                 [64] (19)
3FF5  06                 [65] (19)
3FF6  02                 [66] (19)
3FF7  00                 [67] (19)
3FF8  00                 [68] (22)
                         * locals:
40C5  00                 sizelocvars (0)
                         * upvalues:
40C6  00                 sizeupvalues (0)
                         ** end of function **

                         
40C7                     ** function [17] definition (level 2)
                         ** start of function **
40C7  00                 string size (0)
                         source name: (none)
40C9  04                 line defined (537)
40CA  9E                 last line defined (542)
40CB  04                 nups (1)
40CC  01                 numparams (0)
40CD  00                 is_vararg (0)
40CE  00                 maxstacksize (2)
                         * code:
40D0  0A                 sizecode (10)
40D1  1D000000           [01] getglobal  0   0        ; _T
40D5  0E404000           [02] gettable   0   0   257  ; "TestNemesisAlly"
40D9  18000000           [03] test       0       0    ; to [5] if true
40DD  1A800080           [04] jmp        3            ; to [8]
40E1  1D000000           [05] getglobal  0   0        ; _T
40E5  0E804000           [06] gettable   0   0   258  ; 2115841144
40E9  22408000           [07] call       0   1   1  
40ED  13000000           [08] getupval   0   0      
40F1  22408000           [09] call       0   1   1  
40F5  1E008000           [10] return     0   1      
                         * constants:
40F9  03                 sizek (3)
40FA  04                 const type 4
40FB  03                 string size (3)
40FC  5F5400             "_T\0"
                         const [0]: "_T"
40FF  04                 const type 4
4100  10                 string size (16)
4101  546573744E656D65+  "TestNeme"
4109  736973416C6C7900   "sisAlly\0"
                         const [1]: "TestNemesisAlly"
4111  01                 const type 3
4112  782C1D7E           const [2]: (2115841144)
                         * functions:
4116  00                 sizep (0)
                         * lines:
4117  0A                 sizelineinfo (10)
                         [pc] (line)
4118  1A                 [01] (26)
4119  02                 [02] (26)
411A  00                 [03] (26)
411B  00                 [04] (26)
411C  1A                 [05] (27)
411D  02                 [06] (27)
411E  00                 [07] (27)
411F  00                 [08] (29)
4120  1A                 [09] (29)
4121  02                 [10] (30)
                         * locals:
4140  00                 sizelocvars (0)
                         * upvalues:
4141  00                 sizeupvalues (0)
                         ** end of function **

                         
4142                     ** function [18] definition (level 2)
                         ** start of function **
4142  00                 string size (0)
                         source name: (none)
4144  04                 line defined (544)
4145  A2                 last line defined (546)
4146  04                 nups (0)
4147  00                 numparams (0)
4148  00                 is_vararg (0)
4149  00                 maxstacksize (2)
                         * code:
414B  01                 sizecode (1)
414C  1E008000           [1] return     0   1      
                         * constants:
4150  00                 sizek (0)
                         * functions:
4151  00                 sizep (0)
                         * lines:
4152  01                 sizelineinfo (1)
                         [pc] (line)
4153  22                 [1] (34)
                         * locals:
4157  00                 sizelocvars (0)
                         * upvalues:
4158  00                 sizeupvalues (0)
                         ** end of function **

                         
4159                     ** function [19] definition (level 2)
                         ** start of function **
4159  00                 string size (0)
                         source name: (none)
415B  04                 line defined (548)
415C  A7                 last line defined (551)
415D  04                 nups (1)
415E  01                 numparams (2)
415F  02                 is_vararg (0)
4160  00                 maxstacksize (6)
                         * code:
4162  0B                 sizecode (11)
4163  93000000           [01] getupval   2   0      
4167  A4004001           [02] self       2   2   256  ; -1484936978
416B  0B810000           [03] newtable   4   0   2    ; array=0, hash=2
416F  0C81C080           [04] settable   4   257 258  ; "mLabel" "Code: "
4173  0C418081           [05] settable   4   259 1    ; "mValue"
4177  57018000           [06] loadbool   5   1   0    ; true
417B  A2400002           [07] call       2   4   1  
417F  93000000           [08] getupval   2   0      
4183  A4004101           [09] self       2   2   260  ; 1685109492
4187  A2400001           [10] call       2   2   1  
418B  1E008000           [11] return     0   1      
                         * constants:
418F  05                 sizek (5)
4190  01                 const type 3
4191  EEA87DA7           const [0]: (-1484936978)
4195  04                 const type 4
4196  07                 string size (7)
4197  6D4C6162656C00     "mLabel\0"
                         const [1]: "mLabel"
419E  04                 const type 4
419F  07                 string size (7)
41A0  436F64653A2000     "Code: \0"
                         const [2]: "Code: "
41A7  04                 const type 4
41A8  07                 string size (7)
41A9  6D56616C756500     "mValue\0"
                         const [3]: "mValue"
41B0  01                 const type 3
41B1  F4BA7064           const [4]: (1685109492)
                         * functions:
41B5  00                 sizep (0)
                         * lines:
41B6  0B                 sizelineinfo (11)
                         [pc] (line)
41B7  25                 [01] (37)
41B8  02                 [02] (37)
41B9  00                 [03] (37)
41BA  00                 [04] (37)
41BB  25                 [05] (37)
41BC  02                 [06] (37)
41BD  00                 [07] (37)
41BE  00                 [08] (38)
41BF  25                 [09] (38)
41C0  02                 [10] (38)
41C1  00                 [11] (39)
                         * locals:
41E3  00                 sizelocvars (0)
                         * upvalues:
41E4  00                 sizeupvalues (0)
                         ** end of function **

                         
41E5                     ** function [20] definition (level 2)
                         ** start of function **
41E5  00                 string size (0)
                         source name: (none)
41E7  04                 line defined (553)
41E8  AF                 last line defined (559)
41E9  04                 nups (0)
41EA  00                 numparams (0)
41EB  00                 is_vararg (0)
41EC  00                 maxstacksize (6)
                         * code:
41EE  15                 sizecode (21)
41EF  17000000           [01] loadbool   0   0   0    ; false
41F3  18000000           [02] test       0       0    ; to [4] if true
41F7  1A000480           [03] jmp        17           ; to [21]
41FB  1D000000           [04] getglobal  0   0        ; gPlayerProfileMgr
41FF  24404000           [05] self       0   0   257  ; 569342746
4203  99800000           [06] loadk      2   2        ; 0
4207  22808001           [07] call       0   3   2  
420B  24C04000           [08] self       0   0   259  ; 910754072
420F  22800001           [09] call       0   2   2  
4213  5D000100           [10] getglobal  1   4        ; Engine
4217  4E40C100           [11] gettable   1   1   261  ; -1513927659
421B  9D800100           [12] getglobal  2   6        ; gGameConfig
421F  A4C04101           [13] self       2   2   263  ; -1875938272
4223  A2800001           [14] call       2   2   2  
4227  D9000200           [15] loadk      3   8        ; "nemesis.php?"
422B  12010000           [16] move       4   0      
422F  59410200           [17] loadk      5   9        ; "&mode=q"
4233  82400101           [18] concat     2   2   5  
4237  D9800200           [19] loadk      3   10       ; "OnGetNemesisCode"
423B  62408001           [20] call       1   3   1  
423F  1E008000           [21] return     0   1      
                         * constants:
4243  0B                 sizek (11)
4244  04                 const type 4
4245  12                 string size (18)
4246  67506C6179657250+  "gPlayerP"
424E  726F66696C654D67+  "rofileMg"
4256  7200               "r\0"
                         const [0]: "gPlayerProfileMgr"
4258  01                 const type 3
4259  1A7BEF21           const [1]: (569342746)
425D  03                 const type 3
425E  00000000           const [2]: (0)
4262  01                 const type 3
4263  18014936           const [3]: (910754072)
4267  04                 const type 4
4268  07                 string size (7)
4269  456E67696E6500     "Engine\0"
                         const [4]: "Engine"
4270  01                 const type 3
4271  154CC3A5           const [5]: (-1513927659)
4275  04                 const type 4
4276  0C                 string size (12)
4277  6747616D65436F6E+  "gGameCon"
427F  66696700           "fig\0"
                         const [6]: "gGameConfig"
4283  01                 const type 3
4284  20742F90           const [7]: (-1875938272)
4288  04                 const type 4
4289  0D                 string size (13)
428A  6E656D657369732E+  "nemesis."
4292  7068703F00         "php?\0"
                         const [8]: "nemesis.php?"
4297  04                 const type 4
4298  08                 string size (8)
4299  266D6F64653D7100   "&mode=q\0"
                         const [9]: "&mode=q"
42A1  04                 const type 4
42A2  11                 string size (17)
42A3  4F6E4765744E656D+  "OnGetNem"
42AB  65736973436F6465+  "esisCode"
42B3  00                 "\0"
                         const [10]: "OnGetNemesisCode"
                         * functions:
42B4  00                 sizep (0)
                         * lines:
42B5  15                 sizelineinfo (21)
                         [pc] (line)
42B6  2A                 [01] (42)
42B7  02                 [02] (42)
42B8  00                 [03] (42)
42B9  00                 [04] (44)
42BA  2A                 [05] (44)
42BB  02                 [06] (44)
42BC  00                 [07] (44)
42BD  00                 [08] (44)
42BE  2A                 [09] (44)
42BF  02                 [10] (45)
42C0  00                 [11] (45)
42C1  00                 [12] (45)
42C2  2C                 [13] (45)
42C3  02                 [14] (45)
42C4  00                 [15] (45)
42C5  00                 [16] (45)
42C6  2C                 [17] (45)
42C7  02                 [18] (45)
42C8  00                 [19] (45)
42C9  00                 [20] (45)
42CA  2C                 [21] (47)
                         * locals:
430A  00                 sizelocvars (0)
                         * upvalues:
430B  00                 sizeupvalues (0)
                         ** end of function **

                         
430C                     ** function [21] definition (level 2)
                         ** start of function **
430C  00                 string size (0)
                         source name: (none)
430E  04                 line defined (561)
430F  C7                 last line defined (583)
4310  04                 nups (8)
4311  08                 numparams (1)
4312  01                 is_vararg (0)
4313  00                 maxstacksize (7)
                         * code:
4315  2D                 sizecode (45)
4316  18400000           [01] test       0       1    ; to [3] if false
431A  1AC00080           [02] jmp        4            ; to [7]
431E  5D000000           [03] getglobal  1   0        ; -1817107093
4322  99400000           [04] loadk      2   1        ; "failed to set nemesis active"
4326  62400001           [05] call       1   2   1  
432A  1E008000           [06] return     0   1      
432E  53000000           [07] getupval   1   0      
4332  4E80C000           [08] gettable   1   1   258  ; -1504505097
4336  93008000           [09] getupval   2   1      
433A  62800001           [10] call       1   2   2  
433E  93000001           [11] getupval   2   2      
4342  98000000           [12] test       2       0    ; to [14] if true
4346  1A000280           [13] jmp        9            ; to [23]
434A  9DC00000           [14] getglobal  2   3        ; gGameData
434E  A4004101           [15] self       2   2   260  ; -1881745731
4352  17018000           [16] loadbool   4   1   0    ; true
4356  52018000           [17] move       5   1      
435A  99410100           [18] loadk      6   5        ; "OnVanquishOrConvertNemesis"
435E  A2408002           [19] call       2   5   1  
4362  97000000           [20] loadbool   2   0   0    ; false
fail op	8
4366  88000001           [21] setupval   2   2      
436A  1A400580           [22] jmp        22           ; to [45]
436E  93008001           [23] getupval   2   3      
4372  98000000           [24] test       2       0    ; to [26] if true
4376  1A000280           [25] jmp        9            ; to [35]
437A  9DC00000           [26] getglobal  2   3        ; gGameData
437E  A4004101           [27] self       2   2   260  ; -1881745731
4382  17010000           [28] loadbool   4   0   0    ; false
4386  52018000           [29] move       5   1      
438A  99410100           [30] loadk      6   5        ; "OnVanquishOrConvertNemesis"
438E  A2408002           [31] call       2   5   1  
4392  97000000           [32] loadbool   2   0   0    ; false
fail op	8
4396  88008001           [33] setupval   2   3      
439A  1A400280           [34] jmp        10           ; to [45]
439E  97008000           [35] loadbool   2   1   0    ; true
fail op	8
43A2  88000002           [36] setupval   2   4      
43A6  93008002           [37] getupval   2   5      
43AA  98000000           [38] test       2       0    ; to [40] if true
43AE  1A800080           [39] jmp        3            ; to [43]
43B2  93000003           [40] getupval   2   6      
43B6  A2408000           [41] call       2   1   1  
43BA  1A400080           [42] jmp        2            ; to [45]
43BE  93008003           [43] getupval   2   7      
43C2  A2408000           [44] call       2   1   1  
43C6  1E008000           [45] return     0   1      
                         * constants:
43CA  06                 sizek (6)
43CB  01                 const type 3
43CC  6B25B193           const [0]: (-1817107093)
43D0  04                 const type 4
43D1  1D                 string size (29)
43D2  6661696C65642074+  "failed t"
43DA  6F20736574206E65+  "o set ne"
43E2  6D65736973206163+  "mesis ac"
43EA  7469766500         "tive\0"
                         const [1]: "failed to set nemesis active"
43EF  01                 const type 3
43F0  F71253A6           const [2]: (-1504505097)
43F4  04                 const type 4
43F5  0A                 string size (10)
43F6  6747616D65446174+  "gGameDat"
43FE  6100               "a\0"
                         const [3]: "gGameData"
4400  01                 const type 3
4401  BDD6D68F           const [4]: (-1881745731)
4405  04                 const type 4
4406  1B                 string size (27)
4407  4F6E56616E717569+  "OnVanqui"
440F  73684F72436F6E76+  "shOrConv"
4417  6572744E656D6573+  "ertNemes"
441F  697300             "is\0"
                         const [5]: "OnVanquishOrConvertNemesis"
                         * functions:
4422  00                 sizep (0)
                         * lines:
4423  2D                 sizelineinfo (45)
                         [pc] (line)
4424  32                 [01] (50)
4425  02                 [02] (50)
4426  00                 [03] (51)
4427  00                 [04] (51)
4428  32                 [05] (51)
4429  02                 [06] (52)
442A  00                 [07] (55)
442B  00                 [08] (55)
442C  33                 [09] (55)
442D  02                 [10] (55)
442E  00                 [11] (56)
442F  00                 [12] (56)
4430  33                 [13] (56)
4431  02                 [14] (57)
4432  00                 [15] (57)
4433  00                 [16] (57)
4434  33                 [17] (57)
4435  02                 [18] (57)
4436  00                 [19] (57)
4437  00                 [20] (58)
4438  34                 [21] (58)
4439  02                 [22] (58)
443A  00                 [23] (59)
443B  00                 [24] (59)
443C  37                 [25] (59)
443D  02                 [26] (60)
443E  00                 [27] (60)
443F  00                 [28] (60)
4440  37                 [29] (60)
4441  02                 [30] (60)
4442  00                 [31] (60)
4443  00                 [32] (61)
4444  37                 [33] (61)
4445  02                 [34] (61)
4446  00                 [35] (63)
4447  00                 [36] (63)
4448  37                 [37] (65)
4449  02                 [38] (65)
444A  00                 [39] (65)
444B  00                 [40] (66)
444C  38                 [41] (66)
444D  02                 [42] (66)
444E  00                 [43] (68)
444F  00                 [44] (68)
4450  38                 [45] (71)
                         * locals:
44D8  00                 sizelocvars (0)
                         * upvalues:
44D9  00                 sizeupvalues (0)
                         ** end of function **

                         
44DA                     ** function [22] definition (level 2)
                         ** start of function **
44DA  00                 string size (0)
                         source name: (none)
44DC  04                 line defined (585)
44DD  CB                 last line defined (587)
44DE  04                 nups (3)
44DF  03                 numparams (0)
44E0  00                 is_vararg (0)
44E1  00                 maxstacksize (11)
                         * code:
44E3  13                 sizecode (19)
44E4  1D000000           [01] getglobal  0   0        ; gGameData
44E8  24404000           [02] self       0   0   257  ; 1386973400
44EC  9D800000           [03] getglobal  2   2        ; manifest
44F0  D3000000           [04] getupval   3   0      
44F4  CEC0C001           [05] gettable   3   3   259  ; "killingPowersuitType"
44F8  1D010100           [06] getglobal  4   4        ; Engine
44FC  0E414102           [07] gettable   4   4   261  ; "DT_INVALID"
4500  53010000           [08] getupval   5   0      
4504  4E81C102           [09] gettable   5   5   262  ; "helmet"
4508  93010000           [10] getupval   6   0      
450C  8EC14103           [11] gettable   6   6   263  ; "agentIdx"
4510  D3010000           [12] getupval   7   0      
4514  CE01C203           [13] gettable   7   7   264  ; "birthNode"
4518  19420200           [14] loadk      8   9        ; "OnStartNemesis"
451C  53028000           [15] getupval   9   1      
4520  93020001           [16] getupval   10  2      
4524  8E824205           [17] gettable   10  10  266  ; "rank"
4528  22408005           [18] call       0   11  1  
452C  1E008000           [19] return     0   1      
                         * constants:
4530  0B                 sizek (11)
4531  04                 const type 4
4532  0A                 string size (10)
4533  6747616D65446174+  "gGameDat"
453B  6100               "a\0"
                         const [0]: "gGameData"
453D  01                 const type 3
453E  D888AB52           const [1]: (1386973400)
4542  04                 const type 4
4543  09                 string size (9)
4544  6D616E6966657374+  "manifest"
454C  00                 "\0"
                         const [2]: "manifest"
454D  04                 const type 4
454E  15                 string size (21)
454F  6B696C6C696E6750+  "killingP"
4557  6F77657273756974+  "owersuit"
455F  5479706500         "Type\0"
                         const [3]: "killingPowersuitType"
4564  04                 const type 4
4565  07                 string size (7)
4566  456E67696E6500     "Engine\0"
                         const [4]: "Engine"
456D  04                 const type 4
456E  0B                 string size (11)
456F  44545F494E56414C+  "DT_INVAL"
4577  494400             "ID\0"
                         const [5]: "DT_INVALID"
457A  04                 const type 4
457B  07                 string size (7)
457C  68656C6D657400     "helmet\0"
                         const [6]: "helmet"
4583  04                 const type 4
4584  09                 string size (9)
4585  6167656E74496478+  "agentIdx"
458D  00                 "\0"
                         const [7]: "agentIdx"
458E  04                 const type 4
458F  0A                 string size (10)
4590  62697274684E6F64+  "birthNod"
4598  6500               "e\0"
                         const [8]: "birthNode"
459A  04                 const type 4
459B  0F                 string size (15)
459C  4F6E53746172744E+  "OnStartN"
45A4  656D6573697300     "emesis\0"
                         const [9]: "OnStartNemesis"
45AB  04                 const type 4
45AC  05                 string size (5)
45AD  72616E6B00         "rank\0"
                         const [10]: "rank"
                         * functions:
45B2  00                 sizep (0)
                         * lines:
45B3  13                 sizelineinfo (19)
                         [pc] (line)
45B4  4A                 [01] (74)
45B5  02                 [02] (74)
45B6  00                 [03] (74)
45B7  00                 [04] (74)
45B8  4A                 [05] (74)
45B9  02                 [06] (74)
45BA  00                 [07] (74)
45BB  00                 [08] (74)
45BC  4A                 [09] (74)
45BD  02                 [10] (74)
45BE  00                 [11] (74)
45BF  00                 [12] (74)
45C0  4A                 [13] (74)
45C1  02                 [14] (74)
45C2  00                 [15] (74)
45C3  00                 [16] (74)
45C4  4A                 [17] (74)
45C5  02                 [18] (74)
45C6  00                 [19] (75)
                         * locals:
4600  00                 sizelocvars (0)
                         * upvalues:
4601  00                 sizeupvalues (0)
                         ** end of function **

                         
4602                     ** function [23] definition (level 2)
                         ** start of function **
4602  00                 string size (0)
                         source name: (none)
4604  04                 line defined (589)
4605  E4                 last line defined (612)
4606  04                 nups (9)
4607  09                 numparams (1)
4608  01                 is_vararg (0)
4609  00                 maxstacksize (3)
                         * code:
460B  2A                 sizecode (42)
460C  5D000000           [01] getglobal  1   0        ; 1074689893
4610  9D400000           [02] getglobal  2   1        ; gGameData
4614  62800001           [03] call       1   2   2  
4618  58000000           [04] test       1       0    ; to [6] if true
461C  1A000180           [05] jmp        5            ; to [11]
4620  53000000           [06] getupval   1   0      
4624  4E80C000           [07] gettable   1   1   258  ; 185724978
4628  99C00000           [08] loadk      2   3        ; "Need to be logged in"
462C  62400001           [09] call       1   2   1  
4630  1E008000           [10] return     0   1      
4634  5D000100           [11] getglobal  1   4        ; -1817107093
4638  99400100           [12] loadk      2   5        ; "spawning in level"
463C  62400001           [13] call       1   2   1  
4640  5D000000           [14] getglobal  1   0        ; 1074689893
4644  93008000           [15] getupval   2   1      
4648  62800001           [16] call       1   2   2  
464C  58000000           [17] test       1       0    ; to [19] if true
4650  1AC00080           [18] jmp        4            ; to [23]
4654  53000001           [19] getupval   1   2      
4658  62408000           [20] call       1   1   1  
465C  57000000           [21] loadbool   1   0   0    ; false
fail op	8
4660  48008001           [22] setupval   1   3      
4664  5D800100           [23] getglobal  1   6        ; _T
4668  4EC0C100           [24] gettable   1   1   263  ; "gNemesis"
466C  93008000           [25] getupval   2   1      
4670  4C800084           [26] settable   1   264 2    ; "generatedProfile"
4674  5D800100           [27] getglobal  1   6        ; _T
4678  4EC0C100           [28] gettable   1   1   263  ; "gNemesis"
467C  93000002           [29] getupval   2   4      
4680  4C808084           [30] settable   1   265 2    ; "properties"
fail op	8
4684  08008002           [31] setupval   0   5      
4688  57008000           [32] loadbool   1   1   0    ; true
fail op	8
468C  48000003           [33] setupval   1   6      
4690  53008001           [34] getupval   1   3      
4694  58400000           [35] test       1       1    ; to [37] if false
4698  1A800080           [36] jmp        3            ; to [40]
469C  53008003           [37] getupval   1   7      
46A0  62408000           [38] call       1   1   1  
46A4  1A400080           [39] jmp        2            ; to [42]
46A8  53000004           [40] getupval   1   8      
46AC  62408000           [41] call       1   1   1  
46B0  1E008000           [42] return     0   1      
                         * constants:
46B4  0A                 sizek (10)
46B5  01                 const type 3
46B6  65770E40           const [0]: (1074689893)
46BA  04                 const type 4
46BB  0A                 string size (10)
46BC  6747616D65446174+  "gGameDat"
46C4  6100               "a\0"
                         const [1]: "gGameData"
46C6  01                 const type 3
46C7  32F0110B           const [2]: (185724978)
46CB  04                 const type 4
46CC  15                 string size (21)
46CD  4E65656420746F20+  "Need to "
46D5  6265206C6F676765+  "be logge"
46DD  6420696E00         "d in\0"
                         const [3]: "Need to be logged in"
46E2  01                 const type 3
46E3  6B25B193           const [4]: (-1817107093)
46E7  04                 const type 4
46E8  12                 string size (18)
46E9  737061776E696E67+  "spawning"
46F1  20696E206C657665+  " in leve"
46F9  6C00               "l\0"
                         const [5]: "spawning in level"
46FB  04                 const type 4
46FC  03                 string size (3)
46FD  5F5400             "_T\0"
                         const [6]: "_T"
4700  04                 const type 4
4701  09                 string size (9)
4702  674E656D65736973+  "gNemesis"
470A  00                 "\0"
                         const [7]: "gNemesis"
470B  04                 const type 4
470C  11                 string size (17)
470D  67656E6572617465+  "generate"
4715  6450726F66696C65+  "dProfile"
471D  00                 "\0"
                         const [8]: "generatedProfile"
471E  04                 const type 4
471F  0B                 string size (11)
4720  70726F7065727469+  "properti"
4728  657300             "es\0"
                         const [9]: "properties"
                         * functions:
472B  00                 sizep (0)
                         * lines:
472C  2A                 sizelineinfo (42)
                         [pc] (line)
472D  4E                 [01] (78)
472E  02                 [02] (78)
472F  00                 [03] (78)
4730  00                 [04] (78)
4731  4E                 [05] (78)
4732  02                 [06] (79)
4733  00                 [07] (79)
4734  00                 [08] (79)
4735  4E                 [09] (79)
4736  02                 [10] (80)
4737  00                 [11] (83)
4738  00                 [12] (83)
4739  4E                 [13] (83)
473A  02                 [14] (85)
473B  00                 [15] (85)
473C  00                 [16] (85)
473D  4E                 [17] (85)
473E  02                 [18] (85)
473F  00                 [19] (86)
4740  00                 [20] (86)
4741  4F                 [21] (87)
4742  02                 [22] (87)
4743  00                 [23] (90)
4744  00                 [24] (90)
4745  4F                 [25] (90)
4746  02                 [26] (90)
4747  00                 [27] (91)
4748  00                 [28] (91)
4749  4F                 [29] (91)
474A  02                 [30] (91)
474B  00                 [31] (93)
474C  00                 [32] (94)
474D  4F                 [33] (94)
474E  02                 [34] (95)
474F  00                 [35] (95)
4750  00                 [36] (95)
4751  50                 [37] (96)
4752  02                 [38] (96)
4753  00                 [39] (96)
4754  00                 [40] (98)
4755  53                 [41] (98)
4756  02                 [42] (100)
                         * locals:
47D5  00                 sizelocvars (0)
                         * upvalues:
47D6  00                 sizeupvalues (0)
                         ** end of function **

                         
47D7                     ** function [24] definition (level 2)
                         ** start of function **
47D7  00                 string size (0)
                         source name: (none)
47D9  04                 line defined (614)
47DA  FE                 last line defined (638)
47DB  04                 nups (4)
47DC  04                 numparams (0)
47DD  00                 is_vararg (0)
47DE  00                 maxstacksize (13)
                         * code:
47E0  37                 sizecode (55)
47E1  1D000000           [01] getglobal  0   0        ; -1817107093
47E5  59400000           [02] loadk      1   1        ; "spawning in level"
47E9  22400001           [03] call       0   2   1  
47ED  1D800000           [04] getglobal  0   2        ; 1074689893
47F1  53000000           [05] getupval   1   0      
47F5  22800001           [06] call       0   2   2  
47F9  18000000           [07] test       0       0    ; to [9] if true
47FD  1A400080           [08] jmp        2            ; to [11]
4801  13008000           [09] getupval   0   1      
4805  22408000           [10] call       0   1   1  
4809  1DC00000           [11] getglobal  0   3        ; _T
480D  0E004100           [12] gettable   0   0   260  ; "gNemesis"
4811  53000000           [13] getupval   1   0      
4815  0C408082           [14] settable   0   261 1    ; "generatedProfile"
4819  1DC00000           [15] getglobal  0   3        ; _T
481D  0E004100           [16] gettable   0   0   260  ; "gNemesis"
4821  53000001           [17] getupval   1   2      
4825  0C400083           [18] settable   0   262 1    ; "properties"
4829  1DC00100           [19] getglobal  0   7        ; -895206725
482D  53000000           [20] getupval   1   0      
4831  4E00C200           [21] gettable   1   1   264  ; "mAgent"
4835  22800001           [22] call       0   2   2  
4839  5D400200           [23] getglobal  1   9        ; gRegion
483D  6480C200           [24] self       1   1   266  ; 65205951
4841  62800001           [25] call       1   2   2  
4845  64C0C200           [26] self       1   1   267  ; 1839670529
4849  62800001           [27] call       1   2   2  
484D  9D000300           [28] getglobal  2   12       ; -332969190
4851  D9400300           [29] loadk      3   13       ; "Grineer"
4855  A2800001           [30] call       2   2   2  
4859  DD400200           [31] getglobal  3   9        ; gRegion
485D  E480C301           [32] self       3   3   270  ; -774964848
4861  E2800001           [33] call       3   2   2  
4865  1D810000           [34] getglobal  4   2        ; 1074689893
4869  52018001           [35] move       5   3      
486D  22810001           [36] call       4   2   2  
4871  18010000           [37] test       4       0    ; to [39] if true
4875  1AC00080           [38] jmp        4            ; to [43]
4879  1D010000           [39] getglobal  4   0        ; -1817107093
487D  59C10300           [40] loadk      5   15       ; "no npcMgr in this level"
4881  22410001           [41] call       4   2   1  
4885  1E008000           [42] return     0   1      
4889  13010000           [43] getupval   4   0      
488D  0E014402           [44] gettable   4   4   272  ; "mLevel"
4891  6441C401           [45] self       5   3   273  ; 436282865
4895  D2010000           [46] move       7   0      
4899  12028000           [47] move       8   1      
489D  5D820400           [48] getglobal  9   18       ; ZERO_ROTATION
48A1  92020001           [49] move       10  2      
48A5  D2020002           [50] move       11  4      
48A9  17030000           [51] loadbool   12  0   0    ; false
48AD  62810004           [52] call       5   8   2  
48B1  93018001           [53] getupval   6   3      
48B5  A2418000           [54] call       6   1   1  
48B9  1E008000           [55] return     0   1      
                         * constants:
48BD  13                 sizek (19)
48BE  01                 const type 3
48BF  6B25B193           const [0]: (-1817107093)
48C3  04                 const type 4
48C4  12                 string size (18)
48C5  737061776E696E67+  "spawning"
48CD  20696E206C657665+  " in leve"
48D5  6C00               "l\0"
                         const [1]: "spawning in level"
48D7  01                 const type 3
48D8  65770E40           const [2]: (1074689893)
48DC  04                 const type 4
48DD  03                 string size (3)
48DE  5F5400             "_T\0"
                         const [3]: "_T"
48E1  04                 const type 4
48E2  09                 string size (9)
48E3  674E656D65736973+  "gNemesis"
48EB  00                 "\0"
                         const [4]: "gNemesis"
48EC  04                 const type 4
48ED  11                 string size (17)
48EE  67656E6572617465+  "generate"
48F6  6450726F66696C65+  "dProfile"
48FE  00                 "\0"
                         const [5]: "generatedProfile"
48FF  04                 const type 4
4900  0B                 string size (11)
4901  70726F7065727469+  "properti"
4909  657300             "es\0"
                         const [6]: "properties"
490C  01                 const type 3
490D  BB3AA4CA           const [7]: (-895206725)
4911  04                 const type 4
4912  07                 string size (7)
4913  6D4167656E7400     "mAgent\0"
                         const [8]: "mAgent"
491A  04                 const type 4
491B  08                 string size (8)
491C  67526567696F6E00   "gRegion\0"
                         const [9]: "gRegion"
4924  01                 const type 3
4925  BFF6E203           const [10]: (65205951)
4929  01                 const type 3
492A  0125A76D           const [11]: (1839670529)
492E  01                 const type 3
492F  1A4B27EC           const [12]: (-332969190)
4933  04                 const type 4
4934  08                 string size (8)
4935  4772696E65657200   "Grineer\0"
                         const [13]: "Grineer"
493D  01                 const type 3
493E  90F9CED1           const [14]: (-774964848)
4942  04                 const type 4
4943  18                 string size (24)
4944  6E6F206E70634D67+  "no npcMg"
494C  7220696E20746869+  "r in thi"
4954  73206C6576656C00   "s level\0"
                         const [15]: "no npcMgr in this level"
495C  04                 const type 4
495D  07                 string size (7)
495E  6D4C6576656C00     "mLevel\0"
                         const [16]: "mLevel"
4965  01                 const type 3
4966  F125011A           const [17]: (436282865)
496A  04                 const type 4
496B  0E                 string size (14)
496C  5A45524F5F524F54+  "ZERO_ROT"
4974  4154494F4E00       "ATION\0"
                         const [18]: "ZERO_ROTATION"
                         * functions:
497A  00                 sizep (0)
                         * lines:
497B  37                 sizelineinfo (55)
                         [pc] (line)
497C  67                 [01] (103)
497D  02                 [02] (103)
497E  00                 [03] (103)
497F  00                 [04] (105)
4980  67                 [05] (105)
4981  02                 [06] (105)
4982  00                 [07] (105)
4983  00                 [08] (105)
4984  67                 [09] (106)
4985  02                 [10] (106)
4986  00                 [11] (109)
4987  00                 [12] (109)
4988  69                 [13] (109)
4989  02                 [14] (109)
498A  00                 [15] (110)
498B  00                 [16] (110)
498C  69                 [17] (110)
498D  02                 [18] (110)
498E  00                 [19] (112)
498F  00                 [20] (112)
4990  69                 [21] (112)
4991  02                 [22] (112)
4992  00                 [23] (113)
4993  00                 [24] (113)
4994  69                 [25] (113)
4995  02                 [26] (113)
4996  00                 [27] (113)
4997  00                 [28] (114)
4998  69                 [29] (114)
4999  02                 [30] (114)
499A  00                 [31] (116)
499B  00                 [32] (116)
499C  6A                 [33] (116)
499D  02                 [34] (117)
499E  00                 [35] (117)
499F  00                 [36] (117)
49A0  6A                 [37] (117)
49A1  02                 [38] (117)
49A2  00                 [39] (118)
49A3  00                 [40] (118)
49A4  6D                 [41] (118)
49A5  02                 [42] (119)
49A6  00                 [43] (122)
49A7  00                 [44] (122)
49A8  6D                 [45] (123)
49A9  02                 [46] (123)
49AA  00                 [47] (123)
49AB  00                 [48] (123)
49AC  6D                 [49] (123)
49AD  02                 [50] (123)
49AE  00                 [51] (123)
49AF  00                 [52] (123)
49B0  6D                 [53] (125)
49B1  02                 [54] (125)
49B2  00                 [55] (126)
                         * locals:
4A58  00                 sizelocvars (0)
                         * upvalues:
4A59  00                 sizeupvalues (0)
                         ** end of function **

                         
4A5A                     ** function [25] definition (level 2)
                         ** start of function **
4A5A  00                 string size (0)
                         source name: (none)
4A5C  05                 line defined (640)
4A5D  82                 last line defined (642)
4A5E  05                 nups (1)
4A5F  01                 numparams (0)
4A60  00                 is_vararg (0)
4A61  00                 maxstacksize (2)
                         * code:
4A63  04                 sizecode (4)
4A64  13000000           [1] getupval   0   0      
4A68  57000000           [2] loadbool   1   0   0    ; false
4A6C  22400001           [3] call       0   2   1  
4A70  1E008000           [4] return     0   1      
                         * constants:
4A74  00                 sizek (0)
                         * functions:
4A75  00                 sizep (0)
                         * lines:
4A76  04                 sizelineinfo (4)
                         [pc] (line)
4A77  81                 [1] (-127)
4A78  02                 [2] (-127)
4A79  00                 [3] (-127)
4A7A  00                 [4] (-126)
                         * locals:
4A87  00                 sizelocvars (0)
                         * upvalues:
4A88  00                 sizeupvalues (0)
                         ** end of function **

                         
4A89                     ** function [26] definition (level 2)
                         ** start of function **
4A89  00                 string size (0)
                         source name: (none)
4A8B  05                 line defined (644)
4A8C  86                 last line defined (646)
4A8D  05                 nups (1)
4A8E  01                 numparams (0)
4A8F  00                 is_vararg (0)
4A90  00                 maxstacksize (2)
                         * code:
4A92  04                 sizecode (4)
4A93  13000000           [1] getupval   0   0      
4A97  57008000           [2] loadbool   1   1   0    ; true
4A9B  22400001           [3] call       0   2   1  
4A9F  1E008000           [4] return     0   1      
                         * constants:
4AA3  00                 sizek (0)
                         * functions:
4AA4  00                 sizep (0)
                         * lines:
4AA5  04                 sizelineinfo (4)
                         [pc] (line)
4AA6  85                 [1] (-123)
4AA7  02                 [2] (-123)
4AA8  00                 [3] (-123)
4AA9  00                 [4] (-122)
                         * locals:
4AB6  00                 sizelocvars (0)
                         * upvalues:
4AB7  00                 sizeupvalues (0)
                         ** end of function **

                         
4AB8                     ** function [27] definition (level 2)
                         ** start of function **
4AB8  00                 string size (0)
                         source name: (none)
4ABA  05                 line defined (648)
4ABB  8E                 last line defined (654)
4ABC  05                 nups (2)
4ABD  02                 numparams (0)
4ABE  00                 is_vararg (0)
4ABF  00                 maxstacksize (2)
                         * code:
4AC1  09                 sizecode (9)
4AC2  1D000000           [1] getglobal  0   0        ; 1074689893
4AC6  53000000           [2] getupval   1   0      
4ACA  22800001           [3] call       0   2   2  
4ACE  18000000           [4] test       0       0    ; to [6] if true
4AD2  1A000080           [5] jmp        1            ; to [7]
4AD6  1E008000           [6] return     0   1      
4ADA  13008000           [7] getupval   0   1      
4ADE  22408000           [8] call       0   1   1  
4AE2  1E008000           [9] return     0   1      
                         * constants:
4AE6  01                 sizek (1)
4AE7  01                 const type 3
4AE8  65770E40           const [0]: (1074689893)
                         * functions:
4AEC  00                 sizep (0)
                         * lines:
4AED  09                 sizelineinfo (9)
                         [pc] (line)
4AEE  89                 [1] (-119)
4AEF  02                 [2] (-119)
4AF0  00                 [3] (-119)
4AF1  00                 [4] (-119)
4AF2  89                 [5] (-119)
4AF3  02                 [6] (-118)
4AF4  00                 [7] (-115)
4AF5  00                 [8] (-115)
4AF6  89                 [9] (-114)
                         * locals:
4B12  00                 sizelocvars (0)
                         * upvalues:
4B13  00                 sizeupvalues (0)
                         ** end of function **

                         
4B14                     ** function [28] definition (level 2)
                         ** start of function **
4B14  00                 string size (0)
                         source name: (none)
4B16  05                 line defined (656)
4B17  98                 last line defined (664)
4B18  05                 nups (3)
4B19  03                 numparams (0)
4B1A  00                 is_vararg (0)
4B1B  00                 maxstacksize (2)
                         * code:
4B1D  0B                 sizecode (11)
4B1E  1D000000           [01] getglobal  0   0        ; 1074689893
4B22  53000000           [02] getupval   1   0      
4B26  22800001           [03] call       0   2   2  
4B2A  18000000           [04] test       0       0    ; to [6] if true
4B2E  1A000080           [05] jmp        1            ; to [7]
4B32  1E008000           [06] return     0   1      
4B36  17008000           [07] loadbool   0   1   0    ; true
fail op	8
4B3A  08008000           [08] setupval   0   1      
4B3E  13000001           [09] getupval   0   2      
4B42  22408000           [10] call       0   1   1  
4B46  1E008000           [11] return     0   1      
                         * constants:
4B4A  01                 sizek (1)
4B4B  01                 const type 3
4B4C  65770E40           const [0]: (1074689893)
                         * functions:
4B50  00                 sizep (0)
                         * lines:
4B51  0B                 sizelineinfo (11)
                         [pc] (line)
4B52  91                 [01] (-111)
4B53  02                 [02] (-111)
4B54  00                 [03] (-111)
4B55  00                 [04] (-111)
4B56  91                 [05] (-111)
4B57  02                 [06] (-110)
4B58  00                 [07] (-106)
4B59  00                 [08] (-106)
4B5A  91                 [09] (-105)
4B5B  02                 [10] (-105)
4B5C  00                 [11] (-104)
                         * locals:
4B7E  00                 sizelocvars (0)
                         * upvalues:
4B7F  00                 sizeupvalues (0)
                         ** end of function **

                         
4B80                     ** function [29] definition (level 2)
                         ** start of function **
4B80  00                 string size (0)
                         source name: (none)
4B82  05                 line defined (666)
4B83  A2                 last line defined (674)
4B84  05                 nups (3)
4B85  03                 numparams (0)
4B86  00                 is_vararg (0)
4B87  00                 maxstacksize (2)
                         * code:
4B89  0B                 sizecode (11)
4B8A  1D000000           [01] getglobal  0   0        ; 1074689893
4B8E  53000000           [02] getupval   1   0      
4B92  22800001           [03] call       0   2   2  
4B96  18000000           [04] test       0       0    ; to [6] if true
4B9A  1A000080           [05] jmp        1            ; to [7]
4B9E  1E008000           [06] return     0   1      
4BA2  17008000           [07] loadbool   0   1   0    ; true
fail op	8
4BA6  08008000           [08] setupval   0   1      
4BAA  13000001           [09] getupval   0   2      
4BAE  22408000           [10] call       0   1   1  
4BB2  1E008000           [11] return     0   1      
                         * constants:
4BB6  01                 sizek (1)
4BB7  01                 const type 3
4BB8  65770E40           const [0]: (1074689893)
                         * functions:
4BBC  00                 sizep (0)
                         * lines:
4BBD  0B                 sizelineinfo (11)
                         [pc] (line)
4BBE  9B                 [01] (-101)
4BBF  02                 [02] (-101)
4BC0  00                 [03] (-101)
4BC1  00                 [04] (-101)
4BC2  9B                 [05] (-101)
4BC3  02                 [06] (-100)
4BC4  00                 [07] (-96)
4BC5  00                 [08] (-96)
4BC6  9B                 [09] (-95)
4BC7  02                 [10] (-95)
4BC8  00                 [11] (-94)
                         * locals:
4BEA  00                 sizelocvars (0)
                         * upvalues:
4BEB  00                 sizeupvalues (0)
                         ** end of function **

                         
4BEC                     ** function [30] definition (level 2)
                         ** start of function **
4BEC  00                 string size (0)
                         source name: (none)
4BEE  05                 line defined (676)
4BEF  B5                 last line defined (693)
4BF0  05                 nups (7)
4BF1  07                 numparams (0)
4BF2  00                 is_vararg (0)
4BF3  00                 maxstacksize (4)
                         * code:
4BF5  25                 sizecode (37)
4BF6  1D000000           [01] getglobal  0   0        ; 1074689893
4BFA  53000000           [02] getupval   1   0      
4BFE  22800001           [03] call       0   2   2  
4C02  18000000           [04] test       0       0    ; to [6] if true
4C06  1A000080           [05] jmp        1            ; to [7]
4C0A  1E008000           [06] return     0   1      
4C0E  13000000           [07] getupval   0   0      
4C12  0E404000           [08] gettable   0   0   257  ; "mRank"
fail op	33
4C16  21000081           [09] tforloop   0       0    ; to [11] if exit
4C1A  1A000080           [10] jmp        1            ; to [12]
4C1E  1E008000           [11] return     0   1      
4C22  13000000           [12] getupval   0   0      
4C26  53000000           [13] getupval   1   0      
4C2A  4E40C000           [14] gettable   1   1   257  ; "mRank"
4C2E  43C0C000           [15] add        1   1   259  ; 0
4C32  0C408080           [16] settable   0   257 1    ; "mRank"
4C36  13000001           [17] getupval   0   2      
4C3A  0E004100           [18] gettable   0   0   260  ; -2079289879
4C3E  53000000           [19] getupval   1   0      
4C42  22800001           [20] call       0   2   2  
fail op	8
4C46  08008000           [21] setupval   0   1      
4C4A  13008001           [22] getupval   0   3      
4C4E  53000000           [23] getupval   1   0      
4C52  4E40C000           [24] gettable   1   1   257  ; "mRank"
4C56  0C408082           [25] settable   0   261 1    ; "rank"
4C5A  1D800100           [26] getglobal  0   6        ; _T
4C5E  0EC04100           [27] gettable   0   0   263  ; "gNemesis"
4C62  53008000           [28] getupval   1   1      
4C66  0C400084           [29] settable   0   264 1    ; "generatedProfile"
4C6A  13000002           [30] getupval   0   4      
4C6E  53008000           [31] getupval   1   1      
4C72  93008002           [32] getupval   2   5      
4C76  D3008001           [33] getupval   3   3      
4C7A  22400002           [34] call       0   4   1  
4C7E  13000003           [35] getupval   0   6      
4C82  22408000           [36] call       0   1   1  
4C86  1E008000           [37] return     0   1      
                         * constants:
4C8A  09                 sizek (9)
4C8B  01                 const type 3
4C8C  65770E40           const [0]: (1074689893)
4C90  04                 const type 4
4C91  06                 string size (6)
4C92  6D52616E6B00       "mRank\0"
                         const [1]: "mRank"
4C98  03                 const type 3
4C99  00008040           const [2]: (0)
4C9D  03                 const type 3
4C9E  0000803F           const [3]: (0)
4CA2  01                 const type 3
4CA3  E98D1084           const [4]: (-2079289879)
4CA7  04                 const type 4
4CA8  05                 string size (5)
4CA9  72616E6B00         "rank\0"
                         const [5]: "rank"
4CAE  04                 const type 4
4CAF  03                 string size (3)
4CB0  5F5400             "_T\0"
                         const [6]: "_T"
4CB3  04                 const type 4
4CB4  09                 string size (9)
4CB5  674E656D65736973+  "gNemesis"
4CBD  00                 "\0"
                         const [7]: "gNemesis"
4CBE  04                 const type 4
4CBF  11                 string size (17)
4CC0  67656E6572617465+  "generate"
4CC8  6450726F66696C65+  "dProfile"
4CD0  00                 "\0"
                         const [8]: "generatedProfile"
                         * functions:
4CD1  00                 sizep (0)
                         * lines:
4CD2  25                 sizelineinfo (37)
                         [pc] (line)
4CD3  A5                 [01] (-91)
4CD4  02                 [02] (-91)
4CD5  00                 [03] (-91)
4CD6  00                 [04] (-91)
4CD7  A5                 [05] (-91)
4CD8  02                 [06] (-90)
4CD9  00                 [07] (-87)
4CDA  00                 [08] (-87)
4CDB  A5                 [09] (-87)
4CDC  02                 [10] (-87)
4CDD  00                 [11] (-86)
4CDE  00                 [12] (-83)
4CDF  A5                 [13] (-83)
4CE0  02                 [14] (-83)
4CE1  00                 [15] (-83)
4CE2  00                 [16] (-83)
4CE3  A5                 [17] (-82)
4CE4  02                 [18] (-82)
4CE5  00                 [19] (-82)
4CE6  00                 [20] (-82)
4CE7  A6                 [21] (-82)
4CE8  02                 [22] (-80)
4CE9  00                 [23] (-80)
4CEA  00                 [24] (-80)
4CEB  A9                 [25] (-80)
4CEC  02                 [26] (-78)
4CED  00                 [27] (-78)
4CEE  00                 [28] (-78)
4CEF  A9                 [29] (-78)
4CF0  02                 [30] (-77)
4CF1  00                 [31] (-77)
4CF2  00                 [32] (-77)
4CF3  A9                 [33] (-77)
4CF4  02                 [34] (-77)
4CF5  00                 [35] (-76)
4CF6  00                 [36] (-76)
4CF7  A9                 [37] (-75)
                         * locals:
4D67  00                 sizelocvars (0)
                         * upvalues:
4D68  00                 sizeupvalues (0)
                         ** end of function **

                         
4D69                     ** function [31] definition (level 2)
                         ** start of function **
4D69  00                 string size (0)
                         source name: (none)
4D6B  05                 line defined (695)
4D6C  E0                 last line defined (736)
4D6D  05                 nups (2)
4D6E  02                 numparams (0)
4D6F  00                 is_vararg (0)
4D70  00                 maxstacksize (4)
                         * code:
4D72  25                 sizecode (37)
4D73  17000000           [01] loadbool   0   0   0    ; false
fail op	8
4D77  08000000           [02] setupval   0   0      
4D7B  1D000000           [03] getglobal  0   0        ; 1074689893
4D7F  5D400000           [04] getglobal  1   1        ; _G
4D83  4E80C000           [05] gettable   1   1   258  ; "UIMovie_GenericMenu"
4D87  22800001           [06] call       0   2   2  
4D8B  18000000           [07] test       0       0    ; to [9] if true
4D8F  1A000080           [08] jmp        1            ; to [10]
4D93  1E008000           [09] return     0   1      
4D97  1DC00000           [10] getglobal  0   3        ; mMovie
4D9B  24004100           [11] self       0   0   260  ; 1609725115
4D9F  9D400000           [12] getglobal  2   1        ; _G
4DA3  8E804001           [13] gettable   2   2   258  ; "UIMovie_GenericMenu"
4DA7  22808001           [14] call       0   3   2  
fail op	8
4DAB  08008000           [15] setupval   0   1      
4DAF  1D000000           [16] getglobal  0   0        ; 1074689893
4DB3  53008000           [17] getupval   1   1      
4DB7  22800001           [18] call       0   2   2  
4DBB  18400000           [19] test       0       1    ; to [21] if false
4DBF  1AC00380           [20] jmp        16           ; to [37]
4DC3  1D400100           [21] getglobal  0   5        ; _T
4DC7  65000000           [22] closure    1   0      
4DCB  0C400083           [23] settable   0   262 1    ; "NemesisCommandDone"
4DCF  13008000           [24] getupval   0   1      
4DD3  24C04100           [25] self       0   0   263  ; 1167009705
4DD7  99000200           [26] loadk      2   8        ; "SetCallBack"
4DDB  D9800100           [27] loadk      3   6        ; "NemesisCommandDone"
4DDF  22400002           [28] call       0   4   1  
4DE3  1D400100           [29] getglobal  0   5        ; _T
4DE7  65400000           [30] closure    1   1      
4DEB  0C408084           [31] settable   0   265 1    ; "NemesisGetCommands"
4DEF  13008000           [32] getupval   0   1      
4DF3  24C04100           [33] self       0   0   263  ; 1167009705
4DF7  99800200           [34] loadk      2   10       ; "SetElementsFunction"
4DFB  D9400200           [35] loadk      3   9        ; "NemesisGetCommands"
4DFF  22400002           [36] call       0   4   1  
4E03  1E008000           [37] return     0   1      
                         * constants:
4E07  0B                 sizek (11)
4E08  01                 const type 3
4E09  65770E40           const [0]: (1074689893)
4E0D  04                 const type 4
4E0E  03                 string size (3)
4E0F  5F4700             "_G\0"
                         const [1]: "_G"
4E12  04                 const type 4
4E13  14                 string size (20)
4E14  55494D6F7669655F+  "UIMovie_"
4E1C  47656E657269634D+  "GenericM"
4E24  656E7500           "enu\0"
                         const [2]: "UIMovie_GenericMenu"
4E28  04                 const type 4
4E29  07                 string size (7)
4E2A  6D4D6F76696500     "mMovie\0"
                         const [3]: "mMovie"
4E31  01                 const type 3
4E32  BB74F25F           const [4]: (1609725115)
4E36  04                 const type 4
4E37  03                 string size (3)
4E38  5F5400             "_T\0"
                         const [5]: "_T"
4E3B  04                 const type 4
4E3C  13                 string size (19)
4E3D  4E656D6573697343+  "NemesisC"
4E45  6F6D6D616E64446F+  "ommandDo"
4E4D  6E6500             "ne\0"
                         const [6]: "NemesisCommandDone"
4E50  01                 const type 3
4E51  A9278F45           const [7]: (1167009705)
4E55  04                 const type 4
4E56  0C                 string size (12)
4E57  53657443616C6C42+  "SetCallB"
4E5F  61636B00           "ack\0"
                         const [8]: "SetCallBack"
4E63  04                 const type 4
4E64  13                 string size (19)
4E65  4E656D6573697347+  "NemesisG"
4E6D  6574436F6D6D616E+  "etComman"
4E75  647300             "ds\0"
                         const [9]: "NemesisGetCommands"
4E78  04                 const type 4
4E79  14                 string size (20)
4E7A  536574456C656D65+  "SetEleme"
4E82  6E747346756E6374+  "ntsFunct"
4E8A  696F6E00           "ion\0"
                         const [10]: "SetElementsFunction"
                         * functions:
4E8E  02                 sizep (2)
                         
4E8F                     ** function [0] definition (level 3)
                         ** start of function **
4E8F  00                 string size (0)
                         source name: (none)
4E91  05                 line defined (705)
4E92  C8                 last line defined (712)
4E93  05                 nups (0)
4E94  00                 numparams (1)
4E95  01                 is_vararg (0)
4E96  00                 maxstacksize (5)
                         * code:
4E98  0E                 sizecode (14)
4E99  5D000000           [01] getglobal  1   0        ; _T
4E9D  4C80C080           [02] settable   1   257 258  ; "NemesisCommandDone" nil
4EA1  5D000000           [03] getglobal  1   0        ; _T
4EA5  4C80C081           [04] settable   1   259 258  ; "NemesisGetCommands" nil
4EA9  4E004100           [05] gettable   1   0   260  ; 0
fail op	35
4EAD  6380C000           [06] close      1  
4EB1  1A400180           [07] jmp        6            ; to [14]
4EB5  5D400100           [08] getglobal  1   5        ; mMovie
4EB9  6480C100           [09] self       1   1   262  ; 1167009705
4EBD  CE004100           [10] gettable   3   0   260  ; 0
4EC1  CEC0C101           [11] gettable   3   3   263  ; "Callback"
4EC5  19010200           [12] loadk      4   8        ; ""
4EC9  62400002           [13] call       1   4   1  
4ECD  1E008000           [14] return     0   1      
                         * constants:
4ED1  09                 sizek (9)
4ED2  04                 const type 4
4ED3  03                 string size (3)
4ED4  5F5400             "_T\0"
                         const [0]: "_T"
4ED7  04                 const type 4
4ED8  13                 string size (19)
4ED9  4E656D6573697343+  "NemesisC"
4EE1  6F6D6D616E64446F+  "ommandDo"
4EE9  6E6500             "ne\0"
                         const [1]: "NemesisCommandDone"
4EEC  00                 const type 0
                         const [2]: nil
4EED  04                 const type 4
4EEE  13                 string size (19)
4EEF  4E656D6573697347+  "NemesisG"
4EF7  6574436F6D6D616E+  "etComman"
4EFF  647300             "ds\0"
                         const [3]: "NemesisGetCommands"
4F02  03                 const type 3
4F03  0000803F           const [4]: (0)
4F07  04                 const type 4
4F08  07                 string size (7)
4F09  6D4D6F76696500     "mMovie\0"
                         const [5]: "mMovie"
4F10  01                 const type 3
4F11  A9278F45           const [6]: (1167009705)
4F15  04                 const type 4
4F16  09                 string size (9)
4F17  43616C6C6261636B+  "Callback"
4F1F  00                 "\0"
                         const [7]: "Callback"
4F20  04                 const type 4
4F21  01                 string size (0)
                         const [8]: ""
                         * functions:
4F23  00                 sizep (0)
                         * lines:
4F24  0E                 sizelineinfo (14)
                         [pc] (line)
4F25  C2                 [01] (-62)
4F26  02                 [02] (-62)
4F27  00                 [03] (-61)
4F28  00                 [04] (-61)
4F29  C2                 [05] (-59)
4F2A  02                 [06] (-59)
4F2B  00                 [07] (-59)
4F2C  00                 [08] (-58)
4F2D  C3                 [09] (-58)
4F2E  02                 [10] (-58)
4F2F  00                 [11] (-58)
4F30  00                 [12] (-58)
4F31  C3                 [13] (-58)
4F32  02                 [14] (-56)
                         * locals:
4F5D  00                 sizelocvars (0)
                         * upvalues:
4F5E  00                 sizeupvalues (0)
                         ** end of function **

                         
4F5F                     ** function [1] definition (level 3)
                         ** start of function **
4F5F  00                 string size (0)
                         source name: (none)
4F61  05                 line defined (716)
4F62  DD                 last line defined (733)
4F63  05                 nups (0)
4F64  00                 numparams (0)
4F65  00                 is_vararg (0)
4F66  00                 maxstacksize (4)
                         * code:
4F68  57                 sizecode (87)
4F69  0B000000           [01] newtable   0   0   0    ; array=0, hash=0
4F6D  5D000000           [02] getglobal  1   0        ; table
4F71  4E40C000           [03] gettable   1   1   257  ; -431682403
4F75  92000000           [04] move       2   0      
4F79  CB800000           [05] newtable   3   0   2    ; array=0, hash=2
4F7D  CCC04081           [06] settable   3   258 259  ; "mName" "GENERATE"
4F81  CC404182           [07] settable   3   260 261  ; "Callback" "GenerateFromManifest"
4F85  62408001           [08] call       1   3   1  
4F89  5D000000           [09] getglobal  1   0        ; table
4F8D  4E40C000           [10] gettable   1   1   257  ; -431682403
4F91  92000000           [11] move       2   0      
4F95  CB800000           [12] newtable   3   0   2    ; array=0, hash=2
4F99  CC804181           [13] settable   3   258 262  ; "mName" "SPEAK"
4F9D  CCC04182           [14] settable   3   260 263  ; "Callback" "Speak"
4FA1  62408001           [15] call       1   3   1  
4FA5  5D000000           [16] getglobal  1   0        ; table
4FA9  4E40C000           [17] gettable   1   1   257  ; -431682403
4FAD  92000000           [18] move       2   0      
4FB1  CB800000           [19] newtable   3   0   2    ; array=0, hash=2
4FB5  CC004281           [20] settable   3   258 264  ; "mName" "SPAWN AGENT ONLY (NO FIGHT LOGIC)"
4FB9  CC404282           [21] settable   3   260 265  ; "Callback" "SpawnAgentOnly"
4FBD  62408001           [22] call       1   3   1  
4FC1  5D000000           [23] getglobal  1   0        ; table
4FC5  4E40C000           [24] gettable   1   1   257  ; -431682403
4FC9  92000000           [25] move       2   0      
4FCD  CB800000           [26] newtable   3   0   2    ; array=0, hash=2
4FD1  CC804281           [27] settable   3   258 266  ; "mName" "SPAWN (WITH LEGIT PASSCODE CHECKS)"
4FD5  CCC04282           [28] settable   3   260 267  ; "Callback" "SpawnInLevel"
4FD9  62408001           [29] call       1   3   1  
4FDD  5D000000           [30] getglobal  1   0        ; table
4FE1  4E40C000           [31] gettable   1   1   257  ; -431682403
4FE5  92000000           [32] move       2   0      
4FE9  CB800000           [33] newtable   3   0   2    ; array=0, hash=2
4FED  CC004381           [34] settable   3   258 268  ; "mName" "SPAWN (FORCE CORRECT PASSCODE)"
4FF1  CC404382           [35] settable   3   260 269  ; "Callback" "SpawnInLevelBypassCode"
4FF5  62408001           [36] call       1   3   1  
4FF9  5D000000           [37] getglobal  1   0        ; table
4FFD  4E40C000           [38] gettable   1   1   257  ; -431682403
5001  92000000           [39] move       2   0      
5005  CB800000           [40] newtable   3   0   2    ; array=0, hash=2
5009  CC804381           [41] settable   3   258 270  ; "mName" "SPAWN ALLY"
500D  CCC04382           [42] settable   3   260 271  ; "Callback" "SpawnAllyInLevel"
5011  62408001           [43] call       1   3   1  
5015  5D000000           [44] getglobal  1   0        ; table
5019  4E40C000           [45] gettable   1   1   257  ; -431682403
501D  92000000           [46] move       2   0      
5021  CB800000           [47] newtable   3   0   2    ; array=0, hash=2
5025  CC004481           [48] settable   3   258 272  ; "mName" "SET ACCOUNT"
5029  CC404482           [49] settable   3   260 273  ; "Callback" "ActiveInAccount"
502D  62408001           [50] call       1   3   1  
5031  5D000000           [51] getglobal  1   0        ; table
5035  4E40C000           [52] gettable   1   1   257  ; -431682403
5039  92000000           [53] move       2   0      
503D  CB800000           [54] newtable   3   0   2    ; array=0, hash=2
5041  CC804481           [55] settable   3   258 274  ; "mName" "ADD TO VANQUISHED"
5045  CCC04482           [56] settable   3   260 275  ; "Callback" "AddToVanquished"
5049  62408001           [57] call       1   3   1  
504D  5D000000           [58] getglobal  1   0        ; table
5051  4E40C000           [59] gettable   1   1   257  ; -431682403
5055  92000000           [60] move       2   0      
5059  CB800000           [61] newtable   3   0   2    ; array=0, hash=2
505D  CC004581           [62] settable   3   258 276  ; "mName" "ADD TO CONVERTED"
5061  CC404582           [63] settable   3   260 277  ; "Callback" "AddToConverted"
5065  62408001           [64] call       1   3   1  
5069  5D000000           [65] getglobal  1   0        ; table
506D  4E40C000           [66] gettable   1   1   257  ; -431682403
5071  92000000           [67] move       2   0      
5075  CB800000           [68] newtable   3   0   2    ; array=0, hash=2
5079  CC804581           [69] settable   3   258 278  ; "mName" "RANK UP"
507D  CCC04582           [70] settable   3   260 279  ; "Callback" "RankUp"
5081  62408001           [71] call       1   3   1  
5085  5D000000           [72] getglobal  1   0        ; table
5089  4E40C000           [73] gettable   1   1   257  ; -431682403
508D  92000000           [74] move       2   0      
5091  CB800000           [75] newtable   3   0   2    ; array=0, hash=2
5095  CC004681           [76] settable   3   258 280  ; "mName" "CLEAR HISTORY"
5099  CC404682           [77] settable   3   260 281  ; "Callback" "ClearHistory"
509D  62408001           [78] call       1   3   1  
50A1  5D000000           [79] getglobal  1   0        ; table
50A5  4E40C000           [80] gettable   1   1   257  ; -431682403
50A9  92000000           [81] move       2   0      
50AD  CB800000           [82] newtable   3   0   2    ; array=0, hash=2
50B1  CC804681           [83] settable   3   258 282  ; "mName" "GIVE HINT"
50B5  CCC04682           [84] settable   3   260 283  ; "Callback" "GiveHint"
50B9  62408001           [85] call       1   3   1  
50BD  1E000001           [86] return     0   2      
50C1  1E008000           [87] return     0   1      
                         * constants:
50C5  1C                 sizek (28)
50C6  04                 const type 4
50C7  06                 string size (6)
50C8  7461626C6500       "table\0"
                         const [0]: "table"
50CE  01                 const type 3
50CF  9D0C45E6           const [1]: (-431682403)
50D3  04                 const type 4
50D4  06                 string size (6)
50D5  6D4E616D6500       "mName\0"
                         const [2]: "mName"
50DB  04                 const type 4
50DC  09                 string size (9)
50DD  47454E4552415445+  "GENERATE"
50E5  00                 "\0"
                         const [3]: "GENERATE"
50E6  04                 const type 4
50E7  09                 string size (9)
50E8  43616C6C6261636B+  "Callback"
50F0  00                 "\0"
                         const [4]: "Callback"
50F1  04                 const type 4
50F2  15                 string size (21)
50F3  47656E6572617465+  "Generate"
50FB  46726F6D4D616E69+  "FromMani"
5103  6665737400         "fest\0"
                         const [5]: "GenerateFromManifest"
5108  04                 const type 4
5109  06                 string size (6)
510A  535045414B00       "SPEAK\0"
                         const [6]: "SPEAK"
5110  04                 const type 4
5111  06                 string size (6)
5112  537065616B00       "Speak\0"
                         const [7]: "Speak"
5118  04                 const type 4
5119  22                 string size (34)
511A  535041574E204147+  "SPAWN AG"
5122  454E54204F4E4C59+  "ENT ONLY"
512A  20284E4F20464947+  " (NO FIG"
5132  4854204C4F474943+  "HT LOGIC"
513A  2900               ")\0"
                         const [8]: "SPAWN AGENT ONLY (NO FIGHT LOGIC)"
513C  04                 const type 4
513D  0F                 string size (15)
513E  537061776E416765+  "SpawnAge"
5146  6E744F6E6C7900     "ntOnly\0"
                         const [9]: "SpawnAgentOnly"
514D  04                 const type 4
514E  23                 string size (35)
514F  535041574E202857+  "SPAWN (W"
5157  495448204C454749+  "ITH LEGI"
515F  542050415353434F+  "T PASSCO"
5167  444520434845434B+  "DE CHECK"
516F  532900             "S)\0"
                         const [10]: "SPAWN (WITH LEGIT PASSCODE CHECKS)"
5172  04                 const type 4
5173  0D                 string size (13)
5174  537061776E496E4C+  "SpawnInL"
517C  6576656C00         "evel\0"
                         const [11]: "SpawnInLevel"
5181  04                 const type 4
5182  1F                 string size (31)
5183  535041574E202846+  "SPAWN (F"
518B  4F52434520434F52+  "ORCE COR"
5193  5245435420504153+  "RECT PAS"
519B  53434F44452900     "SCODE)\0"
                         const [12]: "SPAWN (FORCE CORRECT PASSCODE)"
51A2  04                 const type 4
51A3  17                 string size (23)
51A4  537061776E496E4C+  "SpawnInL"
51AC  6576656C42797061+  "evelBypa"
51B4  7373436F646500     "ssCode\0"
                         const [13]: "SpawnInLevelBypassCode"
51BB  04                 const type 4
51BC  0B                 string size (11)
51BD  535041574E20414C+  "SPAWN AL"
51C5  4C5900             "LY\0"
                         const [14]: "SPAWN ALLY"
51C8  04                 const type 4
51C9  11                 string size (17)
51CA  537061776E416C6C+  "SpawnAll"
51D2  79496E4C6576656C+  "yInLevel"
51DA  00                 "\0"
                         const [15]: "SpawnAllyInLevel"
51DB  04                 const type 4
51DC  0C                 string size (12)
51DD  534554204143434F+  "SET ACCO"
51E5  554E5400           "UNT\0"
                         const [16]: "SET ACCOUNT"
51E9  04                 const type 4
51EA  10                 string size (16)
51EB  416374697665496E+  "ActiveIn"
51F3  4163636F756E7400   "Account\0"
                         const [17]: "ActiveInAccount"
51FB  04                 const type 4
51FC  12                 string size (18)
51FD  41444420544F2056+  "ADD TO V"
5205  414E515549534845+  "ANQUISHE"
520D  4400               "D\0"
                         const [18]: "ADD TO VANQUISHED"
520F  04                 const type 4
5210  10                 string size (16)
5211  416464546F56616E+  "AddToVan"
5219  7175697368656400   "quished\0"
                         const [19]: "AddToVanquished"
5221  04                 const type 4
5222  11                 string size (17)
5223  41444420544F2043+  "ADD TO C"
522B  4F4E564552544544+  "ONVERTED"
5233  00                 "\0"
                         const [20]: "ADD TO CONVERTED"
5234  04                 const type 4
5235  0F                 string size (15)
5236  416464546F436F6E+  "AddToCon"
523E  76657274656400     "verted\0"
                         const [21]: "AddToConverted"
5245  04                 const type 4
5246  08                 string size (8)
5247  52414E4B20555000   "RANK UP\0"
                         const [22]: "RANK UP"
524F  04                 const type 4
5250  07                 string size (7)
5251  52616E6B557000     "RankUp\0"
                         const [23]: "RankUp"
5258  04                 const type 4
5259  0E                 string size (14)
525A  434C454152204849+  "CLEAR HI"
5262  53544F525900       "STORY\0"
                         const [24]: "CLEAR HISTORY"
5268  04                 const type 4
5269  0D                 string size (13)
526A  436C656172486973+  "ClearHis"
5272  746F727900         "tory\0"
                         const [25]: "ClearHistory"
5277  04                 const type 4
5278  0A                 string size (10)
5279  474956452048494E+  "GIVE HIN"
5281  5400               "T\0"
                         const [26]: "GIVE HINT"
5283  04                 const type 4
5284  09                 string size (9)
5285  4769766548696E74+  "GiveHint"
528D  00                 "\0"
                         const [27]: "GiveHint"
                         * functions:
528E  00                 sizep (0)
                         * lines:
528F  57                 sizelineinfo (87)
                         [pc] (line)
5290  CD                 [01] (-51)
5291  02                 [02] (-49)
5292  00                 [03] (-49)
5293  00                 [04] (-49)
5294  CF                 [05] (-49)
5295  02                 [06] (-49)
5296  00                 [07] (-49)
5297  00                 [08] (-49)
5298  CF                 [09] (-48)
5299  02                 [10] (-48)
529A  00                 [11] (-48)
529B  00                 [12] (-48)
529C  CF                 [13] (-48)
529D  02                 [14] (-48)
529E  00                 [15] (-48)
529F  00                 [16] (-47)
52A0  CF                 [17] (-47)
52A1  02                 [18] (-47)
52A2  00                 [19] (-47)
52A3  00                 [20] (-47)
52A4  CF                 [21] (-47)
52A5  02                 [22] (-47)
52A6  00                 [23] (-46)
52A7  00                 [24] (-46)
52A8  CF                 [25] (-46)
52A9  02                 [26] (-46)
52AA  00                 [27] (-46)
52AB  00                 [28] (-46)
52AC  CF                 [29] (-46)
52AD  02                 [30] (-45)
52AE  00                 [31] (-45)
52AF  00                 [32] (-45)
52B0  D0                 [33] (-45)
52B1  02                 [34] (-45)
52B2  00                 [35] (-45)
52B3  00                 [36] (-45)
52B4  D0                 [37] (-44)
52B5  02                 [38] (-44)
52B6  00                 [39] (-44)
52B7  00                 [40] (-44)
52B8  D0                 [41] (-44)
52B9  02                 [42] (-44)
52BA  00                 [43] (-44)
52BB  00                 [44] (-43)
52BC  D0                 [45] (-43)
52BD  02                 [46] (-43)
52BE  00                 [47] (-43)
52BF  00                 [48] (-43)
52C0  D0                 [49] (-43)
52C1  02                 [50] (-43)
52C2  00                 [51] (-42)
52C3  00                 [52] (-42)
52C4  D0                 [53] (-42)
52C5  02                 [54] (-42)
52C6  00                 [55] (-42)
52C7  00                 [56] (-42)
52C8  D0                 [57] (-42)
52C9  02                 [58] (-41)
52CA  00                 [59] (-41)
52CB  00                 [60] (-41)
52CC  D1                 [61] (-41)
52CD  02                 [62] (-41)
52CE  00                 [63] (-41)
52CF  00                 [64] (-41)
52D0  D1                 [65] (-40)
52D1  02                 [66] (-40)
52D2  00                 [67] (-40)
52D3  00                 [68] (-40)
52D4  D1                 [69] (-40)
52D5  02                 [70] (-40)
52D6  00                 [71] (-40)
52D7  00                 [72] (-39)
52D8  D1                 [73] (-39)
52D9  02                 [74] (-39)
52DA  00                 [75] (-39)
52DB  00                 [76] (-39)
52DC  D1                 [77] (-39)
52DD  02                 [78] (-39)
52DE  00                 [79] (-38)
52DF  00                 [80] (-38)
52E0  D1                 [81] (-38)
52E1  02                 [82] (-38)
52E2  00                 [83] (-38)
52E3  00                 [84] (-38)
52E4  D1                 [85] (-38)
52E5  02                 [86] (-36)
52E6  00                 [87] (-35)
                         * locals:
53EC  00                 sizelocvars (0)
                         * upvalues:
53ED  00                 sizeupvalues (0)
                         ** end of function **

                         * lines:
53EE  25                 sizelineinfo (37)
                         [pc] (line)
53EF  B8                 [01] (-72)
53F0  02                 [02] (-72)
53F1  00                 [03] (-70)
53F2  00                 [04] (-70)
53F3  B8                 [05] (-70)
53F4  02                 [06] (-70)
53F5  00                 [07] (-70)
53F6  00                 [08] (-70)
53F7  BA                 [09] (-69)
53F8  02                 [10] (-66)
53F9  00                 [11] (-66)
53FA  00                 [12] (-66)
53FB  BA                 [13] (-66)
53FC  02                 [14] (-66)
53FD  00                 [15] (-66)
53FE  00                 [16] (-65)
53FF  BA                 [17] (-65)
5400  02                 [18] (-65)
5401  00                 [19] (-65)
5402  00                 [20] (-65)
5403  BA                 [21] (-64)
5404  02                 [22] (-56)
5405  00                 [23] (-56)
5406  00                 [24] (-55)
5407  BA                 [25] (-55)
5408  02                 [26] (-55)
5409  00                 [27] (-55)
540A  00                 [28] (-55)
540B  BA                 [29] (-53)
540C  02                 [30] (-35)
540D  00                 [31] (-35)
540E  00                 [32] (-34)
540F  BB                 [33] (-34)
5410  02                 [34] (-34)
5411  00                 [35] (-34)
5412  00                 [36] (-34)
5413  BE                 [37] (-32)
                         * locals:
5483  00                 sizelocvars (0)
                         * upvalues:
5484  00                 sizeupvalues (0)
                         ** end of function **

                         
5485                     ** function [32] definition (level 2)
                         ** start of function **
5485  00                 string size (0)
                         source name: (none)
5487  05                 line defined (738)
5488  F5                 last line defined (757)
5489  05                 nups (2)
548A  02                 numparams (1)
548B  01                 is_vararg (0)
548C  00                 maxstacksize (16)
                         * code:
548E  4B                 sizecode (75)
548F  53000000           [01] getupval   1   0      
5493  4E00C000           [02] gettable   1   1   256  ; -576482948
5497  9D400000           [03] getglobal  2   1        ; Lotus_Game
549B  8E804001           [04] gettable   2   2   258  ; "UIStyle_Content"
549F  D7008000           [05] loadbool   3   1   0    ; true
54A3  17018000           [06] loadbool   4   1   0    ; true
54A7  62800002           [07] call       1   4   2  
54AB  93000000           [08] getupval   2   0      
54AF  8E004001           [09] gettable   2   2   256  ; -576482948
54B3  DD400000           [10] getglobal  3   1        ; Lotus_Game
54B7  CEC0C001           [11] gettable   3   3   259  ; "UIStyle_FloatingContent"
54BB  17018000           [12] loadbool   4   1   0    ; true
54BF  57018000           [13] loadbool   5   1   0    ; true
54C3  A2800002           [14] call       2   4   2  
54C7  D9000100           [15] loadk      3   4        ; ""
54CB  1D410100           [16] getglobal  4   5        ; 1074689893
54CF  53018000           [17] getupval   5   1      
54D3  22810001           [18] call       4   2   2  
54D7  18410000           [19] test       4       1    ; to [21] if false
54DB  1A800080           [20] jmp        3            ; to [24]
54DF  13018000           [21] getupval   4   1      
54E3  CE804102           [22] gettable   3   4   262  ; "mName"
54E7  1A000180           [23] jmp        5            ; to [29]
54EB  1DC10100           [24] getglobal  4   7        ; -421772368
54EF  59010200           [25] loadk      5   8        ; "/Lotus/Language/Kingpins/NemesisViewer_Title"
54F3  97010000           [26] loadbool   6   0   0    ; false
54F7  22818001           [27] call       4   3   2  
54FB  D2000002           [28] move       3   4      
54FF  19410200           [29] loadk      4   9        ; "#"
5503  5D810200           [30] getglobal  5   10       ; string
5507  4EC1C202           [31] gettable   5   5   267  ; 1260343128
550B  99010300           [32] loadk      6   12       ; "%X"
550F  D2018000           [33] move       7   1      
5513  62818001           [34] call       5   3   2  
5517  02410102           [35] concat     4   4   5  
551B  59410200           [36] loadk      5   9        ; "#"
551F  9D810200           [37] getglobal  6   10       ; string
5523  8EC14203           [38] gettable   6   6   267  ; 1260343128
5527  D9010300           [39] loadk      7   12       ; "%X"
552B  12020001           [40] move       8   2      
552F  A2818001           [41] call       6   3   2  
5533  42818102           [42] concat     5   5   6  
5537  99410300           [43] loadk      6   13       ; "<p><font color=\""
553B  D2010002           [44] move       7   4      
553F  19820300           [45] loadk      8   14       ; "\">"
5543  82010203           [46] concat     6   6   8  
5547  D2010003           [47] move       7   6      
554B  1DC20300           [48] getglobal  8   15       ; mMovie
554F  24024404           [49] self       8   8   272  ; 98241492
5553  92020000           [50] move       10  0      
5557  D7020000           [51] loadbool   11  0   0    ; false
555B  0B030100           [52] newtable   12  0   4    ; array=0, hash=4
555F  59830400           [53] loadk      13  18       ; "</font><font color=\""
5563  92038002           [54] move       14  5      
5567  D9830300           [55] loadk      15  14       ; "\">"
556B  42C38306           [56] concat     13  13  15 
556F  0C438388           [57] settable   12  273 13   ; "OPEN_COLOR"
5573  59830400           [58] loadk      13  18       ; "</font><font color=\""
5577  92030002           [59] move       14  4      
557B  D9830300           [60] loadk      15  14       ; "\">"
557F  42C38306           [61] concat     13  13  15 
5583  0C438389           [62] settable   12  275 13   ; "CLOSE_COLOR"
5587  0CC3008A           [63] settable   12  276 3    ; "NAME"
558B  5D830200           [64] getglobal  13  10       ; string
558F  4E83C506           [65] gettable   13  13  278  ; 1671193642
5593  92038001           [66] move       14  3      
5597  62830001           [67] call       13  2   2  
559B  0C43838A           [68] settable   12  277 13   ; "NAME_CAPS"
559F  22828002           [69] call       8   5   2  
55A3  82018203           [70] concat     6   7   8  
55A7  D2010003           [71] move       7   6      
55AB  19C20500           [72] loadk      8   23       ; "</font></p>"
55AF  82018203           [73] concat     6   7   8  
55B3  9E010001           [74] return     6   2      
55B7  1E008000           [75] return     0   1      
                         * constants:
55BB  18                 sizek (24)
55BC  01                 const type 3
55BD  7C91A3DD           const [0]: (-576482948)
55C1  04                 const type 4
55C2  0B                 string size (11)
55C3  4C6F7475735F4761+  "Lotus_Ga"
55CB  6D6500             "me\0"
                         const [1]: "Lotus_Game"
55CE  04                 const type 4
55CF  10                 string size (16)
55D0  55495374796C655F+  "UIStyle_"
55D8  436F6E74656E7400   "Content\0"
                         const [2]: "UIStyle_Content"
55E0  04                 const type 4
55E1  18                 string size (24)
55E2  55495374796C655F+  "UIStyle_"
55EA  466C6F6174696E67+  "Floating"
55F2  436F6E74656E7400   "Content\0"
                         const [3]: "UIStyle_FloatingContent"
55FA  04                 const type 4
55FB  01                 string size (0)
                         const [4]: ""
55FD  01                 const type 3
55FE  65770E40           const [5]: (1074689893)
5602  04                 const type 4
5603  06                 string size (6)
5604  6D4E616D6500       "mName\0"
                         const [6]: "mName"
560A  01                 const type 3
560B  B043DCE6           const [7]: (-421772368)
560F  04                 const type 4
5610  2D                 string size (45)
5611  2F4C6F7475732F4C+  "/Lotus/L"
5619  616E67756167652F+  "anguage/"
5621  4B696E6770696E73+  "Kingpins"
5629  2F4E656D65736973+  "/Nemesis"
5631  5669657765725F54+  "Viewer_T"
5639  69746C6500         "itle\0"
                         const [8]: "/Lotus/Language/Kingpins/NemesisViewer_Title"
563E  04                 const type 4
563F  02                 string size (2)
5640  2300               "#\0"
                         const [9]: "#"
5642  04                 const type 4
5643  07                 string size (7)
5644  737472696E6700     "string\0"
                         const [10]: "string"
564B  01                 const type 3
564C  584F1F4B           const [11]: (1260343128)
5650  04                 const type 4
5651  03                 string size (3)
5652  255800             "%X\0"
                         const [12]: "%X"
5655  04                 const type 4
5656  11                 string size (17)
5657  3C703E3C666F6E74+  "<p><font"
565F  20636F6C6F723D22+  " color=\""
5667  00                 "\0"
                         const [13]: "<p><font color=\""
5668  04                 const type 4
5669  03                 string size (3)
566A  223E00             "\">\0"
                         const [14]: "\">"
566D  04                 const type 4
566E  07                 string size (7)
566F  6D4D6F76696500     "mMovie\0"
                         const [15]: "mMovie"
5676  01                 const type 3
5677  D40BDB05           const [16]: (98241492)
567B  04                 const type 4
567C  0B                 string size (11)
567D  4F50454E5F434F4C+  "OPEN_COL"
5685  4F5200             "OR\0"
                         const [17]: "OPEN_COLOR"
5688  04                 const type 4
5689  15                 string size (21)
568A  3C2F666F6E743E3C+  "</font><"
5692  666F6E7420636F6C+  "font col"
569A  6F723D2200         "or=\"\0"
                         const [18]: "</font><font color=\""
569F  04                 const type 4
56A0  0C                 string size (12)
56A1  434C4F53455F434F+  "CLOSE_CO"
56A9  4C4F5200           "LOR\0"
                         const [19]: "CLOSE_COLOR"
56AD  04                 const type 4
56AE  05                 string size (5)
56AF  4E414D4500         "NAME\0"
                         const [20]: "NAME"
56B4  04                 const type 4
56B5  0A                 string size (10)
56B6  4E414D455F434150+  "NAME_CAP"
56BE  5300               "S\0"
                         const [21]: "NAME_CAPS"
56C0  01                 const type 3
56C1  2A649C63           const [22]: (1671193642)
56C5  04                 const type 4
56C6  0C                 string size (12)
56C7  3C2F666F6E743E3C+  "</font><"
56CF  2F703E00           "/p>\0"
                         const [23]: "</font></p>"
                         * functions:
56D3  00                 sizep (0)
                         * lines:
56D4  4B                 sizelineinfo (75)
                         [pc] (line)
56D5  E3                 [01] (-29)
56D6  02                 [02] (-29)
56D7  00                 [03] (-29)
56D8  00                 [04] (-29)
56D9  E3                 [05] (-29)
56DA  02                 [06] (-29)
56DB  00                 [07] (-29)
56DC  00                 [08] (-28)
56DD  E3                 [09] (-28)
56DE  02                 [10] (-28)
56DF  00                 [11] (-28)
56E0  00                 [12] (-28)
56E1  E3                 [13] (-28)
56E2  02                 [14] (-28)
56E3  00                 [15] (-26)
56E4  00                 [16] (-24)
56E5  E3                 [17] (-24)
56E6  02                 [18] (-24)
56E7  00                 [19] (-24)
56E8  00                 [20] (-24)
56E9  E3                 [21] (-23)
56EA  02                 [22] (-23)
56EB  00                 [23] (-23)
56EC  00                 [24] (-21)
56ED  E3                 [25] (-21)
56EE  02                 [26] (-21)
56EF  00                 [27] (-21)
56F0  00                 [28] (-21)
56F1  E4                 [29] (-18)
56F2  02                 [30] (-18)
56F3  00                 [31] (-18)
56F4  00                 [32] (-18)
56F5  E4                 [33] (-18)
56F6  02                 [34] (-18)
56F7  00                 [35] (-18)
56F8  00                 [36] (-17)
56F9  E4                 [37] (-17)
56FA  02                 [38] (-17)
56FB  00                 [39] (-17)
56FC  00                 [40] (-17)
56FD  E4                 [41] (-17)
56FE  02                 [42] (-17)
56FF  00                 [43] (-16)
5700  00                 [44] (-16)
5701  E4                 [45] (-16)
5702  02                 [46] (-16)
5703  00                 [47] (-15)
5704  00                 [48] (-15)
5705  E4                 [49] (-15)
5706  02                 [50] (-15)
5707  00                 [51] (-15)
5708  00                 [52] (-15)
5709  E4                 [53] (-15)
570A  02                 [54] (-15)
570B  00                 [55] (-15)
570C  00                 [56] (-15)
570D  E6                 [57] (-15)
570E  02                 [58] (-15)
570F  00                 [59] (-15)
5710  00                 [60] (-15)
5711  E8                 [61] (-15)
5712  02                 [62] (-15)
5713  00                 [63] (-15)
5714  00                 [64] (-15)
5715  E8                 [65] (-15)
5716  02                 [66] (-15)
5717  00                 [67] (-15)
5718  00                 [68] (-15)
5719  E8                 [69] (-15)
571A  02                 [70] (-15)
571B  00                 [71] (-14)
571C  00                 [72] (-14)
571D  E8                 [73] (-14)
571E  02                 [74] (-12)
571F  00                 [75] (-11)
                         * locals:
5801  00                 sizelocvars (0)
                         * upvalues:
5802  00                 sizeupvalues (0)
                         ** end of function **

                         
5803                     ** function [33] definition (level 2)
                         ** start of function **
5803  00                 string size (0)
                         source name: (none)
5805  05                 line defined (759)
5806  FB                 last line defined (763)
5807  05                 nups (3)
5808  03                 numparams (0)
5809  00                 is_vararg (0)
580A  00                 maxstacksize (3)
                         * code:
580C  09                 sizecode (9)
580D  17000000           [1] loadbool   0   0   0    ; false
fail op	8
5811  08000000           [2] setupval   0   0      
5815  13008000           [3] getupval   0   1      
5819  0E004000           [4] gettable   0   0   256  ; 185724978
581D  53000001           [5] getupval   1   2      
5821  99400000           [6] loadk      2   1        ; "/Lotus/Language/Kingpins/KuvaLichTutorial"
5825  62000001           [7] call       1   2   0  
5829  22400000           [8] call       0   0   1  
582D  1E008000           [9] return     0   1      
                         * constants:
5831  02                 sizek (2)
5832  01                 const type 3
5833  32F0110B           const [0]: (185724978)
5837  04                 const type 4
5838  2A                 string size (42)
5839  2F4C6F7475732F4C+  "/Lotus/L"
5841  616E67756167652F+  "anguage/"
5849  4B696E6770696E73+  "Kingpins"
5851  2F4B7576614C6963+  "/KuvaLic"
5859  685475746F726961+  "hTutoria"
5861  6C00               "l\0"
                         const [1]: "/Lotus/Language/Kingpins/KuvaLichTutorial"
                         * functions:
5863  00                 sizep (0)
                         * lines:
5864  09                 sizelineinfo (9)
                         [pc] (line)
5865  F8                 [1] (-8)
5866  02                 [2] (-8)
5867  00                 [3] (-6)
5868  00                 [4] (-6)
5869  F8                 [5] (-6)
586A  02                 [6] (-6)
586B  00                 [7] (-6)
586C  00                 [8] (-6)
586D  FA                 [9] (-5)
                         * locals:
5889  00                 sizelocvars (0)
                         * upvalues:
588A  00                 sizeupvalues (0)
                         ** end of function **

                         
588B                     ** function [34] definition (level 2)
                         ** start of function **
588B  00                 string size (0)
                         source name: (none)
588D  05                 line defined (765)
588E  8B                 last line defined (779)
588F  06                 nups (3)
5890  03                 numparams (0)
5891  00                 is_vararg (0)
5892  00                 maxstacksize (6)
                         * code:
5894  38                 sizecode (56)
5895  0B000000           [01] newtable   0   0   0    ; array=0, hash=0
5899  53000000           [02] getupval   1   0      
589D  58400000           [03] test       1       1    ; to [5] if false
58A1  1A800480           [04] jmp        19           ; to [24]
58A5  57000000           [05] loadbool   1   0   0    ; false
58A9  58000000           [06] test       1       0    ; to [8] if true
58AD  1AC00380           [07] jmp        16           ; to [24]
58B1  5D000000           [08] getglobal  1   0        ; table
58B5  4E40C000           [09] gettable   1   1   257  ; -431682403
58B9  92000000           [10] move       2   0      
58BD  CB800000           [11] newtable   3   0   2    ; array=0, hash=2
58C1  CCC04081           [12] settable   3   258 259  ; "Label" "[DEV] GENERATE"
58C5  25010000           [13] closure    4   0      
58C9  CC000182           [14] settable   3   260 4    ; "CallBack"
58CD  62408001           [15] call       1   3   1  
58D1  5D000000           [16] getglobal  1   0        ; table
58D5  4E40C000           [17] gettable   1   1   257  ; -431682403
58D9  92000000           [18] move       2   0      
58DD  CB800000           [19] newtable   3   0   2    ; array=0, hash=2
58E1  CC404181           [20] settable   3   258 261  ; "Label" "[DEV] COMMANDS"
58E5  25410000           [21] closure    4   1      
58E9  CC000182           [22] settable   3   260 4    ; "CallBack"
58ED  62408001           [23] call       1   3   1  
58F1  5D000000           [24] getglobal  1   0        ; table
58F5  4E40C000           [25] gettable   1   1   257  ; -431682403
58F9  92000000           [26] move       2   0      
58FD  CBC00000           [27] newtable   3   0   3    ; array=0, hash=3
5901  CC804181           [28] settable   3   258 262  ; "Label" "/Lotus/Language/Menu/General_Tutorial"
5905  13018000           [29] getupval   4   1      
5909  CC000182           [30] settable   3   260 4    ; "CallBack"
590D  CC00C283           [31] settable   3   263 264  ; "CallOut" "MENU_GENERIC1"
5911  62408001           [32] call       1   3   1  
5915  5D000000           [33] getglobal  1   0        ; table
5919  4E40C000           [34] gettable   1   1   257  ; -431682403
591D  92000000           [35] move       2   0      
5921  CBC00000           [36] newtable   3   0   3    ; array=0, hash=3
5925  CC404281           [37] settable   3   258 265  ; "Label" "/Lotus/Language/Menu/Exit"
5929  13010001           [38] getupval   4   2      
592D  CC000182           [39] settable   3   260 4    ; "CallBack"
5931  CC80C283           [40] settable   3   263 266  ; "CallOut" "MENU_CANCEL"
5935  62408001           [41] call       1   3   1  
5939  5DC00200           [42] getglobal  1   11       ; 1074689893
593D  9D000300           [43] getglobal  2   12       ; _T
5941  8E404301           [44] gettable   2   2   269  ; "SetButtons"
5945  62800001           [45] call       1   2   2  
5949  58400000           [46] test       1       1    ; to [48] if false
594D  1AC00180           [47] jmp        8            ; to [56]
5951  5D000300           [48] getglobal  1   12       ; _T
5955  4E80C300           [49] gettable   1   1   270  ; -270549122
5959  9DC00300           [50] getglobal  2   15       ; mMovie
595D  D2000000           [51] move       3   0      
5961  1D010400           [52] getglobal  4   16       ; 1802065273
5965  59410400           [53] loadk      5   17       ; 0
5969  22010001           [54] call       4   2   0  
596D  62400000           [55] call       1   0   1  
5971  1E008000           [56] return     0   1      
                         * constants:
5975  12                 sizek (18)
5976  04                 const type 4
5977  06                 string size (6)
5978  7461626C6500       "table\0"
                         const [0]: "table"
597E  01                 const type 3
597F  9D0C45E6           const [1]: (-431682403)
5983  04                 const type 4
5984  06                 string size (6)
5985  4C6162656C00       "Label\0"
                         const [2]: "Label"
598B  04                 const type 4
598C  0F                 string size (15)
598D  5B4445565D204745+  "[DEV] GE"
5995  4E455241544500     "NERATE\0"
                         const [3]: "[DEV] GENERATE"
599C  04                 const type 4
599D  09                 string size (9)
599E  43616C6C4261636B+  "CallBack"
59A6  00                 "\0"
                         const [4]: "CallBack"
59A7  04                 const type 4
59A8  0F                 string size (15)
59A9  5B4445565D20434F+  "[DEV] CO"
59B1  4D4D414E445300     "MMANDS\0"
                         const [5]: "[DEV] COMMANDS"
59B8  04                 const type 4
59B9  26                 string size (38)
59BA  2F4C6F7475732F4C+  "/Lotus/L"
59C2  616E67756167652F+  "anguage/"
59CA  4D656E752F47656E+  "Menu/Gen"
59D2  6572616C5F547574+  "eral_Tut"
59DA  6F7269616C00       "orial\0"
                         const [6]: "/Lotus/Language/Menu/General_Tutorial"
59E0  04                 const type 4
59E1  08                 string size (8)
59E2  43616C6C4F757400   "CallOut\0"
                         const [7]: "CallOut"
59EA  04                 const type 4
59EB  0E                 string size (14)
59EC  4D454E555F47454E+  "MENU_GEN"
59F4  455249433100       "ERIC1\0"
                         const [8]: "MENU_GENERIC1"
59FA  04                 const type 4
59FB  1A                 string size (26)
59FC  2F4C6F7475732F4C+  "/Lotus/L"
5A04  616E67756167652F+  "anguage/"
5A0C  4D656E752F457869+  "Menu/Exi"
5A14  7400               "t\0"
                         const [9]: "/Lotus/Language/Menu/Exit"
5A16  04                 const type 4
5A17  0C                 string size (12)
5A18  4D454E555F43414E+  "MENU_CAN"
5A20  43454C00           "CEL\0"
                         const [10]: "MENU_CANCEL"
5A24  01                 const type 3
5A25  65770E40           const [11]: (1074689893)
5A29  04                 const type 4
5A2A  03                 string size (3)
5A2B  5F5400             "_T\0"
                         const [12]: "_T"
5A2E  04                 const type 4
5A2F  0B                 string size (11)
5A30  536574427574746F+  "SetButto"
5A38  6E7300             "ns\0"
                         const [13]: "SetButtons"
5A3B  01                 const type 3
5A3C  7EBFDFEF           const [14]: (-270549122)
5A40  04                 const type 4
5A41  07                 string size (7)
5A42  6D4D6F76696500     "mMovie\0"
                         const [15]: "mMovie"
5A49  01                 const type 3
5A4A  7955696B           const [16]: (1802065273)
5A4E  03                 const type 3
5A4F  0000803F           const [17]: (0)
                         * functions:
5A53  02                 sizep (2)
                         
5A54                     ** function [0] definition (level 3)
                         ** start of function **
5A54  00                 string size (0)
                         source name: (none)
5A56  06                 line defined (769)
5A57  81                 last line defined (769)
5A58  06                 nups (0)
5A59  00                 numparams (0)
5A5A  00                 is_vararg (0)
5A5B  00                 maxstacksize (4)
                         * code:
5A5D  06                 sizecode (6)
5A5E  1D000000           [1] getglobal  0   0        ; mMovie
5A62  24404000           [2] self       0   0   257  ; 1167009705
5A66  99800000           [3] loadk      2   2        ; "GenerateFromManifest"
5A6A  D9C00000           [4] loadk      3   3        ; ""
5A6E  22400002           [5] call       0   4   1  
5A72  1E008000           [6] return     0   1      
                         * constants:
5A76  04                 sizek (4)
5A77  04                 const type 4
5A78  07                 string size (7)
5A79  6D4D6F76696500     "mMovie\0"
                         const [0]: "mMovie"
5A80  01                 const type 3
5A81  A9278F45           const [1]: (1167009705)
5A85  04                 const type 4
5A86  15                 string size (21)
5A87  47656E6572617465+  "Generate"
5A8F  46726F6D4D616E69+  "FromMani"
5A97  6665737400         "fest\0"
                         const [2]: "GenerateFromManifest"
5A9C  04                 const type 4
5A9D  01                 string size (0)
                         const [3]: ""
                         * functions:
5A9F  00                 sizep (0)
                         * lines:
5AA0  06                 sizelineinfo (6)
                         [pc] (line)
5AA1  01                 [1] (1)
5AA2  03                 [2] (1)
5AA3  00                 [3] (1)
5AA4  00                 [4] (1)
5AA5  01                 [5] (1)
5AA6  03                 [6] (1)
                         * locals:
5AB9  00                 sizelocvars (0)
                         * upvalues:
5ABA  00                 sizeupvalues (0)
                         ** end of function **

                         
5ABB                     ** function [1] definition (level 3)
                         ** start of function **
5ABB  00                 string size (0)
                         source name: (none)
5ABD  06                 line defined (770)
5ABE  82                 last line defined (770)
5ABF  06                 nups (0)
5AC0  00                 numparams (0)
5AC1  00                 is_vararg (0)
5AC2  00                 maxstacksize (4)
                         * code:
5AC4  06                 sizecode (6)
5AC5  1D000000           [1] getglobal  0   0        ; mMovie
5AC9  24404000           [2] self       0   0   257  ; 1167009705
5ACD  99800000           [3] loadk      2   2        ; "ShowNemesisCommands"
5AD1  D9C00000           [4] loadk      3   3        ; ""
5AD5  22400002           [5] call       0   4   1  
5AD9  1E008000           [6] return     0   1      
                         * constants:
5ADD  04                 sizek (4)
5ADE  04                 const type 4
5ADF  07                 string size (7)
5AE0  6D4D6F76696500     "mMovie\0"
                         const [0]: "mMovie"
5AE7  01                 const type 3
5AE8  A9278F45           const [1]: (1167009705)
5AEC  04                 const type 4
5AED  14                 string size (20)
5AEE  53686F774E656D65+  "ShowNeme"
5AF6  736973436F6D6D61+  "sisComma"
5AFE  6E647300           "nds\0"
                         const [2]: "ShowNemesisCommands"
5B02  04                 const type 4
5B03  01                 string size (0)
                         const [3]: ""
                         * functions:
5B05  00                 sizep (0)
                         * lines:
5B06  06                 sizelineinfo (6)
                         [pc] (line)
5B07  02                 [1] (2)
5B08  03                 [2] (2)
5B09  00                 [3] (2)
5B0A  00                 [4] (2)
5B0B  02                 [5] (2)
5B0C  03                 [6] (2)
                         * locals:
5B1F  00                 sizelocvars (0)
                         * upvalues:
5B20  00                 sizeupvalues (0)
                         ** end of function **

                         * lines:
5B21  38                 sizelineinfo (56)
                         [pc] (line)
5B22  FE                 [01] (-2)
5B23  02                 [02] (0)
5B24  00                 [03] (0)
5B25  00                 [04] (0)
5B26  00                 [05] (0)
5B27  03                 [06] (0)
5B28  00                 [07] (0)
5B29  00                 [08] (1)
5B2A  00                 [09] (1)
5B2B  03                 [10] (1)
5B2C  00                 [11] (1)
5B2D  00                 [12] (1)
5B2E  00                 [13] (1)
5B2F  03                 [14] (1)
5B30  00                 [15] (1)
5B31  00                 [16] (2)
5B32  00                 [17] (2)
5B33  03                 [18] (2)
5B34  00                 [19] (2)
5B35  00                 [20] (2)
5B36  00                 [21] (2)
5B37  03                 [22] (2)
5B38  00                 [23] (2)
5B39  00                 [24] (5)
5B3A  00                 [25] (5)
5B3B  03                 [26] (5)
5B3C  00                 [27] (5)
5B3D  00                 [28] (5)
5B3E  01                 [29] (5)
5B3F  03                 [30] (5)
5B40  00                 [31] (5)
5B41  00                 [32] (5)
5B42  01                 [33] (6)
5B43  03                 [34] (6)
5B44  00                 [35] (6)
5B45  00                 [36] (6)
5B46  01                 [37] (6)
5B47  03                 [38] (6)
5B48  00                 [39] (6)
5B49  00                 [40] (6)
5B4A  01                 [41] (6)
5B4B  03                 [42] (8)
5B4C  00                 [43] (8)
5B4D  00                 [44] (8)
5B4E  01                 [45] (8)
5B4F  03                 [46] (8)
5B50  00                 [47] (8)
5B51  00                 [48] (9)
5B52  01                 [49] (9)
5B53  03                 [50] (9)
5B54  00                 [51] (9)
5B55  00                 [52] (9)
5B56  01                 [53] (9)
5B57  03                 [54] (9)
5B58  00                 [55] (9)
5B59  00                 [56] (11)
                         * locals:
5C02  00                 sizelocvars (0)
                         * upvalues:
5C03  00                 sizeupvalues (0)
                         ** end of function **

                         
5C04                     ** function [35] definition (level 2)
                         ** start of function **
5C04  00                 string size (0)
                         source name: (none)
5C06  06                 line defined (781)
5C07  A6                 last line defined (806)
5C08  06                 nups (2)
5C09  02                 numparams (0)
5C0A  00                 is_vararg (0)
5C0B  00                 maxstacksize (6)
                         * code:
5C0D  36                 sizecode (54)
5C0E  1D000000           [01] getglobal  0   0        ; 849075268
5C12  59400000           [02] loadk      1   1        ; "EE.Interface.Components.List"
5C16  22800001           [03] call       0   2   2  
5C1A  4E804000           [04] gettable   1   0   258  ; -1274155969
5C1E  9DC00000           [05] getglobal  2   3        ; mMovie
5C22  D9000100           [06] loadk      3   4        ; "StatList.Stat"
5C26  62808001           [07] call       1   3   2  
fail op	8
5C2A  48000000           [08] setupval   1   0      
5C2E  53000000           [09] getupval   1   0      
5C32  4C80C182           [10] settable   1   261 262  ; "mForcedVerticalSeparation" 0
5C36  53000000           [11] getupval   1   0      
5C3A  4C00C283           [12] settable   1   263 264  ; "mForcedHorizontalSeparation" 0
5C3E  53000000           [13] getupval   1   0      
5C42  A5000000           [14] closure    2   0      
5C46  13008000           [15] getupval   0   1      
5C4A  4C808084           [16] settable   1   265 2    ; "mElementDrawCallback"
5C4E  53000000           [17] getupval   1   0      
5C52  93000000           [18] getupval   2   0      
5C56  8EC04201           [19] gettable   2   2   267  ; "Redraw"
5C5A  4C800085           [20] settable   1   266 2    ; "BaseRedraw"
5C5E  53000000           [21] getupval   1   0      
5C62  A5400000           [22] closure    2   1      
5C66  4C808085           [23] settable   1   267 2    ; "Redraw"
5C6A  5DC00000           [24] getglobal  1   3        ; mMovie
5C6E  6400C300           [25] self       1   1   268  ; 471456102
5C72  D9400300           [26] loadk      3   13       ; "StatList"
5C76  19810300           [27] loadk      4   14       ; "_alpha"
5C7A  59010200           [28] loadk      5   8        ; 0
5C7E  62408002           [29] call       1   5   1  
5C82  5DC00000           [30] getglobal  1   3        ; mMovie
5C86  6400C300           [31] self       1   1   268  ; 471456102
5C8A  D9C00300           [32] loadk      3   15       ; "StatBlurer"
5C8E  19810300           [33] loadk      4   14       ; "_alpha"
5C92  59010200           [34] loadk      5   8        ; 0
5C96  62408002           [35] call       1   5   1  
5C9A  5DC00000           [36] getglobal  1   3        ; mMovie
5C9E  6400C400           [37] self       1   1   272  ; 2115970775
5CA2  D9400400           [38] loadk      3   17       ; "StatBg"
5CA6  1D810400           [39] getglobal  4   18       ; statBackerMaterial
5CAA  62400002           [40] call       1   4   1  
5CAE  5DC00000           [41] getglobal  1   3        ; mMovie
5CB2  6400C300           [42] self       1   1   268  ; 471456102
5CB6  D9400400           [43] loadk      3   17       ; "StatBg"
5CBA  19810300           [44] loadk      4   14       ; "_alpha"
5CBE  59010200           [45] loadk      5   8        ; 0
5CC2  62408002           [46] call       1   5   1  
5CC6  5DC00000           [47] getglobal  1   3        ; mMovie
5CCA  6400C300           [48] self       1   1   268  ; 471456102
5CCE  D9400400           [49] loadk      3   17       ; "StatBg"
5CD2  19C10400           [50] loadk      4   19       ; "_color"
5CD6  53018000           [51] getupval   5   1      
5CDA  4E01C502           [52] gettable   5   5   276  ; "Background1"
5CDE  62408002           [53] call       1   5   1  
5CE2  1E008000           [54] return     0   1      
                         * constants:
5CE6  15                 sizek (21)
5CE7  01                 const type 3
5CE8  44DC9B32           const [0]: (849075268)
5CEC  04                 const type 4
5CED  1D                 string size (29)
5CEE  45452E496E746572+  "EE.Inter"
5CF6  666163652E436F6D+  "face.Com"
5CFE  706F6E656E74732E+  "ponents."
5D06  4C69737400         "List\0"
                         const [1]: "EE.Interface.Components.List"
5D0B  01                 const type 3
5D0C  3FEC0DB4           const [2]: (-1274155969)
5D10  04                 const type 4
5D11  07                 string size (7)
5D12  6D4D6F76696500     "mMovie\0"
                         const [3]: "mMovie"
5D19  04                 const type 4
5D1A  0E                 string size (14)
5D1B  537461744C697374+  "StatList"
5D23  2E5374617400       ".Stat\0"
                         const [4]: "StatList.Stat"
5D29  04                 const type 4
5D2A  1A                 string size (26)
5D2B  6D466F7263656456+  "mForcedV"
5D33  6572746963616C53+  "erticalS"
5D3B  657061726174696F+  "eparatio"
5D43  6E00               "n\0"
                         const [5]: "mForcedVerticalSeparation"
5D45  03                 const type 3
5D46  0000B841           const [6]: (0)
5D4A  04                 const type 4
5D4B  1C                 string size (28)
5D4C  6D466F7263656448+  "mForcedH"
5D54  6F72697A6F6E7461+  "orizonta"
5D5C  6C53657061726174+  "lSeparat"
5D64  696F6E00           "ion\0"
                         const [7]: "mForcedHorizontalSeparation"
5D68  03                 const type 3
5D69  00000000           const [8]: (0)
5D6D  04                 const type 4
5D6E  15                 string size (21)
5D6F  6D456C656D656E74+  "mElement"
5D77  4472617743616C6C+  "DrawCall"
5D7F  6261636B00         "back\0"
                         const [9]: "mElementDrawCallback"
5D84  04                 const type 4
5D85  0B                 string size (11)
5D86  4261736552656472+  "BaseRedr"
5D8E  617700             "aw\0"
                         const [10]: "BaseRedraw"
5D91  04                 const type 4
5D92  07                 string size (7)
5D93  52656472617700     "Redraw\0"
                         const [11]: "Redraw"
5D9A  01                 const type 3
5D9B  66D9191C           const [12]: (471456102)
5D9F  04                 const type 4
5DA0  09                 string size (9)
5DA1  537461744C697374+  "StatList"
5DA9  00                 "\0"
                         const [13]: "StatList"
5DAA  04                 const type 4
5DAB  07                 string size (7)
5DAC  5F616C70686100     "_alpha\0"
                         const [14]: "_alpha"
5DB3  04                 const type 4
5DB4  0B                 string size (11)
5DB5  53746174426C7572+  "StatBlur"
5DBD  657200             "er\0"
                         const [15]: "StatBlurer"
5DC0  01                 const type 3
5DC1  D7261F7E           const [16]: (2115970775)
5DC5  04                 const type 4
5DC6  07                 string size (7)
5DC7  53746174426700     "StatBg\0"
                         const [17]: "StatBg"
5DCE  04                 const type 4
5DCF  13                 string size (19)
5DD0  737461744261636B+  "statBack"
5DD8  65724D6174657269+  "erMateri"
5DE0  616C00             "al\0"
                         const [18]: "statBackerMaterial"
5DE3  04                 const type 4
5DE4  07                 string size (7)
5DE5  5F636F6C6F7200     "_color\0"
                         const [19]: "_color"
5DEC  04                 const type 4
5DED  0C                 string size (12)
5DEE  4261636B67726F75+  "Backgrou"
5DF6  6E643100           "nd1\0"
                         const [20]: "Background1"
                         * functions:
5DFA  02                 sizep (2)
                         
5DFB                     ** function [0] definition (level 3)
                         ** start of function **
5DFB  00                 string size (0)
                         source name: (none)
5DFD  06                 line defined (787)
5DFE  9A                 last line defined (794)
5DFF  06                 nups (1)
5E00  01                 numparams (1)
5E01  01                 is_vararg (0)
5E02  00                 maxstacksize (7)
                         * code:
5E04  31                 sizecode (49)
5E05  5D000000           [01] getglobal  1   0        ; mMovie
5E09  6440C000           [02] self       1   1   257  ; 386043535
5E0D  CE804000           [03] gettable   3   0   258  ; "mClipName"
5E11  19C10000           [04] loadk      4   3        ; ".Label.text"
5E15  C2008101           [05] concat     3   3   4  
5E19  0E014100           [06] gettable   4   0   260  ; "mLabel"
5E1D  62400002           [07] call       1   4   1  
5E21  5D000000           [08] getglobal  1   0        ; mMovie
5E25  6440C000           [09] self       1   1   257  ; 386043535
5E29  CE804000           [10] gettable   3   0   258  ; "mClipName"
5E2D  19410100           [11] loadk      4   5        ; ".Value.text"
5E31  C2008101           [12] concat     3   3   4  
5E35  1D810100           [13] getglobal  4   6        ; -764638816
5E39  4EC14100           [14] gettable   5   0   263  ; "mValue"
5E3D  22010001           [15] call       4   2   0  
5E41  62400000           [16] call       1   0   1  
5E45  5D000000           [17] getglobal  1   0        ; mMovie
5E49  6400C200           [18] self       1   1   264  ; -2013161817
5E4D  CE804000           [19] gettable   3   0   258  ; "mClipName"
5E51  19410200           [20] loadk      4   9        ; "Label"
5E55  59810200           [21] loadk      5   10       ; "textColor"
5E59  93010000           [22] getupval   6   0      
5E5D  8EC14203           [23] gettable   6   6   267  ; "FloatingContent"
5E61  62400003           [24] call       1   6   1  
5E65  5D000000           [25] getglobal  1   0        ; mMovie
5E69  6400C200           [26] self       1   1   264  ; -2013161817
5E6D  CE804000           [27] gettable   3   0   258  ; "mClipName"
5E71  19010300           [28] loadk      4   12       ; "Value"
5E75  59810200           [29] loadk      5   10       ; "textColor"
5E79  93010000           [30] getupval   6   0      
5E7D  8E414303           [31] gettable   6   6   269  ; "FloatingContentHighlight"
5E81  62400003           [32] call       1   6   1  
5E85  5D000000           [33] getglobal  1   0        ; mMovie
5E89  6400C200           [34] self       1   1   264  ; -2013161817
5E8D  CE804000           [35] gettable   3   0   258  ; "mClipName"
5E91  19410200           [36] loadk      4   9        ; "Label"
5E95  59810300           [37] loadk      5   14       ; "dropShadow_color"
5E99  93010000           [38] getupval   6   0      
5E9D  8EC14303           [39] gettable   6   6   271  ; "Background1"
5EA1  62400003           [40] call       1   6   1  
5EA5  5D000000           [41] getglobal  1   0        ; mMovie
5EA9  6400C200           [42] self       1   1   264  ; -2013161817
5EAD  CE804000           [43] gettable   3   0   258  ; "mClipName"
5EB1  19010300           [44] loadk      4   12       ; "Value"
5EB5  59810300           [45] loadk      5   14       ; "dropShadow_color"
5EB9  93010000           [46] getupval   6   0      
5EBD  8EC14303           [47] gettable   6   6   271  ; "Background1"
5EC1  62400003           [48] call       1   6   1  
5EC5  1E008000           [49] return     0   1      
                         * constants:
5EC9  10                 sizek (16)
5ECA  04                 const type 4
5ECB  07                 string size (7)
5ECC  6D4D6F76696500     "mMovie\0"
                         const [0]: "mMovie"
5ED3  01                 const type 3
5ED4  8F8E0217           const [1]: (386043535)
5ED8  04                 const type 4
5ED9  0A                 string size (10)
5EDA  6D436C69704E616D+  "mClipNam"
5EE2  6500               "e\0"
                         const [2]: "mClipName"
5EE4  04                 const type 4
5EE5  0C                 string size (12)
5EE6  2E4C6162656C2E74+  ".Label.t"
5EEE  65787400           "ext\0"
                         const [3]: ".Label.text"
5EF2  04                 const type 4
5EF3  07                 string size (7)
5EF4  6D4C6162656C00     "mLabel\0"
                         const [4]: "mLabel"
5EFB  04                 const type 4
5EFC  0C                 string size (12)
5EFD  2E56616C75652E74+  ".Value.t"
5F05  65787400           "ext\0"
                         const [5]: ".Value.text"
5F09  01                 const type 3
5F0A  A0896CD2           const [6]: (-764638816)
5F0E  04                 const type 4
5F0F  07                 string size (7)
5F10  6D56616C756500     "mValue\0"
                         const [7]: "mValue"
5F17  01                 const type 3
5F18  A7960188           const [8]: (-2013161817)
5F1C  04                 const type 4
5F1D  06                 string size (6)
5F1E  4C6162656C00       "Label\0"
                         const [9]: "Label"
5F24  04                 const type 4
5F25  0A                 string size (10)
5F26  74657874436F6C6F+  "textColo"
5F2E  7200               "r\0"
                         const [10]: "textColor"
5F30  04                 const type 4
5F31  10                 string size (16)
5F32  466C6F6174696E67+  "Floating"
5F3A  436F6E74656E7400   "Content\0"
                         const [11]: "FloatingContent"
5F42  04                 const type 4
5F43  06                 string size (6)
5F44  56616C756500       "Value\0"
                         const [12]: "Value"
5F4A  04                 const type 4
5F4B  19                 string size (25)
5F4C  466C6F6174696E67+  "Floating"
5F54  436F6E74656E7448+  "ContentH"
5F5C  6967686C69676874+  "ighlight"
5F64  00                 "\0"
                         const [13]: "FloatingContentHighlight"
5F65  04                 const type 4
5F66  11                 string size (17)
5F67  64726F7053686164+  "dropShad"
5F6F  6F775F636F6C6F72+  "ow_color"
5F77  00                 "\0"
                         const [14]: "dropShadow_color"
5F78  04                 const type 4
5F79  0C                 string size (12)
5F7A  4261636B67726F75+  "Backgrou"
5F82  6E643100           "nd1\0"
                         const [15]: "Background1"
                         * functions:
5F86  00                 sizep (0)
                         * lines:
5F87  31                 sizelineinfo (49)
                         [pc] (line)
5F88  14                 [01] (20)
5F89  03                 [02] (20)
5F8A  00                 [03] (20)
5F8B  00                 [04] (20)
5F8C  14                 [05] (20)
5F8D  03                 [06] (20)
5F8E  00                 [07] (20)
5F8F  00                 [08] (21)
5F90  14                 [09] (21)
5F91  03                 [10] (21)
5F92  00                 [11] (21)
5F93  00                 [12] (21)
5F94  14                 [13] (21)
5F95  03                 [14] (21)
5F96  00                 [15] (21)
5F97  00                 [16] (21)
5F98  14                 [17] (22)
5F99  03                 [18] (22)
5F9A  00                 [19] (22)
5F9B  00                 [20] (22)
5F9C  14                 [21] (22)
5F9D  03                 [22] (22)
5F9E  00                 [23] (22)
5F9F  00                 [24] (22)
5FA0  14                 [25] (23)
5FA1  03                 [26] (23)
5FA2  00                 [27] (23)
5FA3  00                 [28] (23)
5FA4  15                 [29] (23)
5FA5  03                 [30] (23)
5FA6  00                 [31] (23)
5FA7  00                 [32] (23)
5FA8  15                 [33] (24)
5FA9  03                 [34] (24)
5FAA  00                 [35] (24)
5FAB  00                 [36] (24)
5FAC  15                 [37] (24)
5FAD  03                 [38] (24)
5FAE  00                 [39] (24)
5FAF  00                 [40] (24)
5FB0  15                 [41] (25)
5FB1  03                 [42] (25)
5FB2  00                 [43] (25)
5FB3  00                 [44] (25)
5FB4  15                 [45] (25)
5FB5  03                 [46] (25)
5FB6  00                 [47] (25)
5FB7  00                 [48] (25)
5FB8  15                 [49] (26)
                         * locals:
604C  00                 sizelocvars (0)
                         * upvalues:
604D  00                 sizeupvalues (0)
                         ** end of function **

                         
604E                     ** function [1] definition (level 3)
                         ** start of function **
604E  00                 string size (0)
                         source name: (none)
6050  06                 line defined (797)
6051  9F                 last line defined (799)
6052  06                 nups (0)
6053  00                 numparams (4)
6054  04                 is_vararg (0)
6055  00                 maxstacksize (9)
                         * code:
6057  06                 sizecode (6)
6058  24014000           [1] self       4   0   256  ; -463663419
605C  92018000           [2] move       6   1      
6060  D2010001           [3] move       7   2      
6064  12028001           [4] move       8   3      
6068  22418002           [5] call       4   5   1  
606C  1E008000           [6] return     0   1      
                         * constants:
6070  01                 sizek (1)
6071  01                 const type 3
6072  C50E5DE4           const [0]: (-463663419)
                         * functions:
6076  00                 sizep (0)
                         * lines:
6077  06                 sizelineinfo (6)
                         [pc] (line)
6078  1E                 [1] (30)
6079  03                 [2] (30)
607A  00                 [3] (30)
607B  00                 [4] (30)
607C  1E                 [5] (30)
607D  03                 [6] (31)
                         * locals:
6090  00                 sizelocvars (0)
                         * upvalues:
6091  00                 sizeupvalues (0)
                         ** end of function **

                         * lines:
6092  36                 sizelineinfo (54)
                         [pc] (line)
6093  0E                 [01] (14)
6094  03                 [02] (14)
6095  00                 [03] (14)
6096  00                 [04] (15)
6097  0E                 [05] (15)
6098  03                 [06] (15)
6099  00                 [07] (15)
609A  00                 [08] (15)
609B  0E                 [09] (16)
609C  03                 [10] (16)
609D  00                 [11] (17)
609E  00                 [12] (17)
609F  0F                 [13] (18)
60A0  03                 [14] (26)
60A1  00                 [15] (26)
60A2  00                 [16] (26)
60A3  0F                 [17] (27)
60A4  03                 [18] (27)
60A5  00                 [19] (27)
60A6  00                 [20] (27)
60A7  0F                 [21] (28)
60A8  03                 [22] (31)
60A9  00                 [23] (31)
60AA  00                 [24] (33)
60AB  0F                 [25] (33)
60AC  03                 [26] (33)
60AD  00                 [27] (33)
60AE  00                 [28] (33)
60AF  0F                 [29] (33)
60B0  03                 [30] (34)
60B1  00                 [31] (34)
60B2  00                 [32] (34)
60B3  10                 [33] (34)
60B4  03                 [34] (34)
60B5  00                 [35] (34)
60B6  00                 [36] (35)
60B7  10                 [37] (35)
60B8  03                 [38] (35)
60B9  00                 [39] (35)
60BA  00                 [40] (35)
60BB  11                 [41] (36)
60BC  03                 [42] (36)
60BD  00                 [43] (36)
60BE  00                 [44] (36)
60BF  11                 [45] (36)
60C0  03                 [46] (36)
60C1  00                 [47] (37)
60C2  00                 [48] (37)
60C3  12                 [49] (37)
60C4  03                 [50] (37)
60C5  00                 [51] (37)
60C6  00                 [52] (37)
60C7  1A                 [53] (37)
60C8  03                 [54] (38)
                         * locals:
616B  00                 sizelocvars (0)
                         * upvalues:
616C  00                 sizeupvalues (0)
                         ** end of function **

                         
616D                     ** function [36] definition (level 2)
                         ** start of function **
616D  00                 string size (0)
                         source name: (none)
616F  06                 line defined (808)
6170  B3                 last line defined (819)
6171  06                 nups (2)
6172  02                 numparams (0)
6173  00                 is_vararg (0)
6174  00                 maxstacksize (5)
                         * code:
6176  1C                 sizecode (28)
6177  13008000           [01] getupval   0   1      
617B  0E004000           [02] gettable   0   0   256  ; 1191123516
617F  5D400000           [03] getglobal  1   1        ; mMovie
6183  99800000           [04] loadk      2   2        ; "AbilityList"
6187  22808001           [05] call       0   3   2  
fail op	8
618B  08000000           [06] setupval   0   0      
618F  13000000           [07] getupval   0   0      
6193  0C00C181           [08] settable   0   259 260  ; "mForcedHorizontalSeparation" 0
6197  13000000           [09] getupval   0   0      
619B  0C80C182           [10] settable   0   261 262  ; "mShowTitle" 0
619F  13000000           [11] getupval   0   0      
61A3  0C80C183           [12] settable   0   263 262  ; "mShowRank" 0
61A7  13000000           [13] getupval   0   0      
61AB  0C804184           [14] settable   0   264 262  ; "mShowPassive" 0
61AF  13000000           [15] getupval   0   0      
61B3  0C80C284           [16] settable   0   265 266  ; "mSimplePopup" 1
61B7  13000000           [17] getupval   0   0      
61BB  0C00C385           [18] settable   0   267 268  ; "mUnderlineWidthOffset" 0
61BF  13000000           [19] getupval   0   0      
61C3  24404300           [20] self       0   0   269  ; -1156631833
61C7  22400001           [21] call       0   2   1  
61CB  1D400000           [22] getglobal  0   1        ; mMovie
61CF  24804300           [23] self       0   0   270  ; 471456102
61D3  99800000           [24] loadk      2   2        ; "AbilityList"
61D7  D9C00300           [25] loadk      3   15       ; "_alpha"
61DB  19010400           [26] loadk      4   16       ; 0
61DF  22408002           [27] call       0   5   1  
61E3  1E008000           [28] return     0   1      
                         * constants:
61E7  11                 sizek (17)
61E8  01                 const type 3
61E9  3C1AFF46           const [0]: (1191123516)
61ED  04                 const type 4
61EE  07                 string size (7)
61EF  6D4D6F76696500     "mMovie\0"
                         const [1]: "mMovie"
61F6  04                 const type 4
61F7  0C                 string size (12)
61F8  4162696C6974794C+  "AbilityL"
6200  69737400           "ist\0"
                         const [2]: "AbilityList"
6204  04                 const type 4
6205  1C                 string size (28)
6206  6D466F7263656448+  "mForcedH"
620E  6F72697A6F6E7461+  "orizonta"
6216  6C53657061726174+  "lSeparat"
621E  696F6E00           "ion\0"
                         const [3]: "mForcedHorizontalSeparation"
6222  03                 const type 3
6223  0000B442           const [4]: (0)
6227  04                 const type 4
6228  0B                 string size (11)
6229  6D53686F77546974+  "mShowTit"
6231  6C6500             "le\0"
                         const [5]: "mShowTitle"
6234  01                 const type 3
6235  00000000           const [6]: (0)
6239  04                 const type 4
623A  0A                 string size (10)
623B  6D53686F7752616E+  "mShowRan"
6243  6B00               "k\0"
                         const [7]: "mShowRank"
6245  04                 const type 4
6246  0D                 string size (13)
6247  6D53686F77506173+  "mShowPas"
624F  7369766500         "sive\0"
                         const [8]: "mShowPassive"
6254  04                 const type 4
6255  0D                 string size (13)
6256  6D53696D706C6550+  "mSimpleP"
625E  6F70757000         "opup\0"
                         const [9]: "mSimplePopup"
6263  01                 const type 3
6264  01000000           const [10]: (1)
6268  04                 const type 4
6269  16                 string size (22)
626A  6D556E6465726C69+  "mUnderli"
6272  6E6557696474684F+  "neWidthO"
627A  666673657400       "ffset\0"
                         const [11]: "mUnderlineWidthOffset"
6280  03                 const type 3
6281  0000F041           const [12]: (0)
6285  01                 const type 3
6286  E7320FBB           const [13]: (-1156631833)
628A  01                 const type 3
628B  66D9191C           const [14]: (471456102)
628F  04                 const type 4
6290  07                 string size (7)
6291  5F616C70686100     "_alpha\0"
                         const [15]: "_alpha"
6298  03                 const type 3
6299  00000000           const [16]: (0)
                         * functions:
629D  00                 sizep (0)
                         * lines:
629E  1C                 sizelineinfo (28)
                         [pc] (line)
629F  29                 [01] (41)
62A0  03                 [02] (41)
62A1  00                 [03] (41)
62A2  00                 [04] (41)
62A3  29                 [05] (41)
62A4  03                 [06] (41)
62A5  00                 [07] (42)
62A6  00                 [08] (42)
62A7  29                 [09] (43)
62A8  03                 [10] (43)
62A9  00                 [11] (44)
62AA  00                 [12] (44)
62AB  29                 [13] (45)
62AC  03                 [14] (45)
62AD  00                 [15] (46)
62AE  00                 [16] (46)
62AF  29                 [17] (47)
62B0  03                 [18] (47)
62B1  00                 [19] (48)
62B2  00                 [20] (48)
62B3  29                 [21] (48)
62B4  03                 [22] (50)
62B5  00                 [23] (50)
62B6  00                 [24] (50)
62B7  2A                 [25] (50)
62B8  03                 [26] (50)
62B9  00                 [27] (50)
62BA  00                 [28] (51)
                         * locals:
630F  00                 sizelocvars (0)
                         * upvalues:
6310  00                 sizeupvalues (0)
                         ** end of function **

                         
6311                     ** function [37] definition (level 2)
                         ** start of function **
6311  00                 string size (0)
                         source name: (none)
6313  06                 line defined (821)
6314  B7                 last line defined (823)
6315  06                 nups (0)
6316  00                 numparams (0)
6317  00                 is_vararg (0)
6318  00                 maxstacksize (2)
                         * code:
631A  0C                 sizecode (12)
631B  1D000000           [01] getglobal  0   0        ; _T
631F  0E404000           [02] gettable   0   0   257  ; "syncingInventory"
fail op	35
6323  63804000           [03] close      1  
6327  1A000180           [04] jmp        5            ; to [10]
632B  1D000000           [05] getglobal  0   0        ; _T
632F  0E404000           [06] gettable   0   0   257  ; "syncingInventory"
fail op	9
6333  09000000           [07] settable   0   0   0  
6337  1A400080           [08] jmp        2            ; to [11]
633B  17400000           [09] loadbool   0   0   1    ; false, to [11]
633F  17008000           [10] loadbool   0   1   0    ; true
6343  1E000001           [11] return     0   2      
6347  1E008000           [12] return     0   1      
                         * constants:
634B  03                 sizek (3)
634C  04                 const type 4
634D  03                 string size (3)
634E  5F5400             "_T\0"
                         const [0]: "_T"
6351  04                 const type 4
6352  11                 string size (17)
6353  73796E63696E6749+  "syncingI"
635B  6E76656E746F7279+  "nventory"
6363  00                 "\0"
                         const [1]: "syncingInventory"
6364  00                 const type 0
                         const [2]: nil
                         * functions:
6365  00                 sizep (0)
                         * lines:
6366  0C                 sizelineinfo (12)
                         [pc] (line)
6367  36                 [01] (54)
6368  03                 [02] (54)
6369  00                 [03] (54)
636A  00                 [04] (54)
636B  36                 [05] (54)
636C  03                 [06] (54)
636D  00                 [07] (54)
636E  00                 [08] (54)
636F  36                 [09] (54)
6370  03                 [10] (54)
6371  00                 [11] (54)
6372  00                 [12] (55)
                         * locals:
6397  00                 sizelocvars (0)
                         * upvalues:
6398  00                 sizeupvalues (0)
                         ** end of function **

                         
6399                     ** function [38] definition (level 2)
                         ** start of function **
6399  00                 string size (0)
                         source name: (none)
639B  06                 line defined (825)
639C  E2                 last line defined (866)
639D  06                 nups (4)
639E  04                 numparams (0)
639F  00                 is_vararg (0)
63A0  00                 maxstacksize (12)
                         * code:
63A2  71                 sizecode (113)
63A3  19000000           [001] loadk      0   0        ; "Arsenal"
63A7  5D400000           [002] getglobal  1   1        ; _T
63AB  4C000081           [003] settable   1   258 0    ; "triggeredConsoleTag"
63AF  5DC00000           [004] getglobal  1   3        ; gRegion
63B3  6400C100           [005] self       1   1   260  ; 65205951
63B7  62800001           [006] call       1   2   2  
63BB  86000001           [007] loadnil    2   2      
63BF  DD400100           [008] getglobal  3   5        ; 1074689893
63C3  12018000           [009] move       4   1      
63C7  E2800001           [010] call       3   2   2  
63CB  D8400000           [011] test       3       1    ; to [13] if false
63CF  1A800080           [012] jmp        3            ; to [16]
63D3  E480C100           [013] self       3   1   262  ; 1839670529
63D7  E2800001           [014] call       3   2   2  
63DB  92008001           [015] move       2   3      
63DF  D3000000           [016] getupval   3   0      
63E3  CEC0C101           [017] gettable   3   3   263  ; -1827748401
63E7  12010000           [018] move       4   0      
63EB  E2800001           [019] call       3   2   2  
63EF  19010200           [020] loadk      4   8        ; ""
63F3  53018000           [021] getupval   5   1      
63F7  4E41C202           [022] gettable   5   5   265  ; -2065906648
63FB  62818000           [023] call       5   1   2  
63FF  9D410000           [024] getglobal  6   1        ; _T
6403  8E814203           [025] gettable   6   6   266  ; "InHub"
6407  98010000           [026] test       6       0    ; to [28] if true
640B  1AC00080           [027] jmp        4            ; to [32]
640F  93018000           [028] getupval   6   1      
6413  8EC14203           [029] gettable   6   6   267  ; "UI_MODE_IN_DOJO"
fail op	35
6417  23808102           [030] close      0  
641B  1AC00080           [031] jmp        4            ; to [36]
641F  9D410000           [032] getglobal  6   1        ; _T
6423  8E014303           [033] gettable   6   6   268  ; "InSimulacrum"
6427  98010000           [034] test       6       0    ; to [36] if true
642B  1A400180           [035] jmp        6            ; to [42]
fail op	35
642F  63004000           [036] close      1  
6433  1A400080           [037] jmp        2            ; to [40]
fail op	35
6437  23404300           [038] close      0  
643B  1A400080           [039] jmp        2            ; to [42]
643F  19810300           [040] loadk      4   14       ; "ConsoleActivate"
6443  1A000080           [041] jmp        1            ; to [43]
6447  19C10300           [042] loadk      4   15       ; "ConsoleTeleportAndActivate"
644B  93010000           [043] getupval   6   0      
644F  8E014403           [044] gettable   6   6   272  ; 467537747
6453  D2010002           [045] move       7   4      
6457  12020001           [046] move       8   2      
645B  A2818001           [047] call       6   3   2  
645F  DD410100           [048] getglobal  7   5        ; 1074689893
6463  12020003           [049] move       8   6      
6467  E2810001           [050] call       7   2   2  
646B  D8010000           [051] test       7       0    ; to [53] if true
646F  1AC00080           [052] jmp        4            ; to [57]
6473  DD410400           [053] getglobal  7   17       ; -1817107093
6477  19820400           [054] loadk      8   18       ; "NemesisTest - ERROR: Could not find Arsenal script."
647B  E2410001           [055] call       7   2   1  
647F  1AC00D80           [056] jmp        56           ; to [113]
6483  DD410000           [057] getglobal  7   1        ; _T
6487  CEC1C403           [058] gettable   7   7   275  ; "Kneeling"
648B  D8010000           [059] test       7       0    ; to [61] if true
648F  1A000580           [060] jmp        21           ; to [82]
6493  DD410100           [061] getglobal  7   5        ; 1074689893
6497  12028000           [062] move       8   1      
649B  E2810001           [063] call       7   2   2  
649F  D8410000           [064] test       7       1    ; to [66] if false
64A3  1AC00380           [065] jmp        16           ; to [82]
64A7  DDC10000           [066] getglobal  7   3        ; gRegion
64AB  E401C503           [067] self       7   7   276  ; -1593214796
64AF  5D420500           [068] getglobal  9   21       ; -332969190
64B3  99820500           [069] loadk      10  22       ; "KneelAction"
64B7  62820001           [070] call       9   2   2  
64BB  A482C100           [071] self       10  1   262  ; 1839670529
64BF  A2020001           [072] call       10  2   0  
64C3  E2810000           [073] call       7   0   2  
64C7  1D420100           [074] getglobal  8   5        ; 1074689893
64CB  52028003           [075] move       9   7      
64CF  22820001           [076] call       8   2   2  
64D3  18420000           [077] test       8       1    ; to [79] if false
64D7  1A800080           [078] jmp        3            ; to [82]
64DB  24C2C500           [079] self       8   1   279  ; 2038856795
64DF  92028003           [080] move       10  7      
64E3  22428001           [081] call       8   3   1  
64E7  1D420100           [082] getglobal  8   5        ; 1074689893
64EB  5D420000           [083] getglobal  9   1        ; _T
64EF  4E02C604           [084] gettable   9   9   280  ; "BackgroundMovie"
64F3  22820001           [085] call       8   2   2  
64F7  18420000           [086] test       8       1    ; to [88] if false
64FB  1A400180           [087] jmp        6            ; to [94]
64FF  1D420000           [088] getglobal  8   1        ; _T
6503  0E024604           [089] gettable   8   8   280  ; "BackgroundMovie"
6507  24424604           [090] self       8   8   281  ; 1167009705
650B  99820600           [091] loadk      10  26       ; "ShowBlockingMessage"
650F  D9C20600           [092] loadk      11  27       ; "0"
6513  22420002           [093] call       8   4   1  
6517  17020000           [094] loadbool   8   0   0    ; false
fail op	8
651B  08020001           [095] setupval   8   2      
651F  1D420000           [096] getglobal  8   1        ; _T
6523  0C42478E           [097] settable   8   284 285  ; "Arsenal_ReturnToNemesis" 1
6527  1D420000           [098] getglobal  8   1        ; _T
652B  4B820000           [099] newtable   9   0   2    ; array=0, hash=2
652F  9D020800           [100] getglobal  10  32       ; Lotus_Game
6533  8E424805           [101] gettable   10  10  289  ; "LOT_DATAKNIFE"
6537  4C82828F           [102] settable   9   287 10   ; "type"
653B  9D020800           [103] getglobal  10  32       ; Lotus_Game
653F  8EC24805           [104] gettable   10  10  291  ; "SUIT_SLOT"
6543  4C820291           [105] settable   9   290 10   ; "slot"
6547  0C42028F           [106] settable   8   286 9    ; "Arsenal_QuickUpgrade"
654B  1D420000           [107] getglobal  8   1        ; _T
654F  0CC20092           [108] settable   8   292 3    ; "triggeredConsole"
6553  24424903           [109] self       8   6   293  ; -636985499
6557  22420001           [110] call       8   2   1  
655B  13028001           [111] getupval   8   3      
655F  22428000           [112] call       8   1   1  
6563  1E008000           [113] return     0   1      
                         * constants:
6567  26                 sizek (38)
6568  04                 const type 4
6569  08                 string size (8)
656A  417273656E616C00   "Arsenal\0"
                         const [0]: "Arsenal"
6572  04                 const type 4
6573  03                 string size (3)
6574  5F5400             "_T\0"
                         const [1]: "_T"
6577  04                 const type 4
6578  14                 string size (20)
6579  7472696767657265+  "triggere"
6581  64436F6E736F6C65+  "dConsole"
6589  54616700           "Tag\0"
                         const [2]: "triggeredConsoleTag"
658D  04                 const type 4
658E  08                 string size (8)
658F  67526567696F6E00   "gRegion\0"
                         const [3]: "gRegion"
6597  01                 const type 3
6598  BFF6E203           const [4]: (65205951)
659C  01                 const type 3
659D  65770E40           const [5]: (1074689893)
65A1  01                 const type 3
65A2  0125A76D           const [6]: (1839670529)
65A6  01                 const type 3
65A7  CFC50E93           const [7]: (-1827748401)
65AB  04                 const type 4
65AC  01                 string size (0)
                         const [8]: ""
65AE  01                 const type 3
65AF  28C4DC84           const [9]: (-2065906648)
65B3  04                 const type 4
65B4  06                 string size (6)
65B5  496E48756200       "InHub\0"
                         const [10]: "InHub"
65BB  04                 const type 4
65BC  10                 string size (16)
65BD  55495F4D4F44455F+  "UI_MODE_"
65C5  494E5F444F4A4F00   "IN_DOJO\0"
                         const [11]: "UI_MODE_IN_DOJO"
65CD  04                 const type 4
65CE  0D                 string size (13)
65CF  496E53696D756C61+  "InSimula"
65D7  6372756D00         "crum\0"
                         const [12]: "InSimulacrum"
65DC  04                 const type 4
65DD  05                 string size (5)
65DE  4D6F647300         "Mods\0"
                         const [13]: "Mods"
65E3  04                 const type 4
65E4  10                 string size (16)
65E5  436F6E736F6C6541+  "ConsoleA"
65ED  6374697661746500   "ctivate\0"
                         const [14]: "ConsoleActivate"
65F5  04                 const type 4
65F6  1B                 string size (27)
65F7  436F6E736F6C6554+  "ConsoleT"
65FF  656C65706F727441+  "eleportA"
6607  6E64416374697661+  "ndActiva"
660F  746500             "te\0"
                         const [15]: "ConsoleTeleportAndActivate"
6612  01                 const type 3
6613  530FDE1B           const [16]: (467537747)
6617  01                 const type 3
6618  6B25B193           const [17]: (-1817107093)
661C  04                 const type 4
661D  34                 string size (52)
661E  4E656D6573697354+  "NemesisT"
6626  657374202D204552+  "est - ER"
662E  524F523A20436F75+  "ROR: Cou"
6636  6C64206E6F742066+  "ld not f"
663E  696E642041727365+  "ind Arse"
6646  6E616C2073637269+  "nal scri"
664E  70742E00           "pt.\0"
                         const [18]: "NemesisTest - ERROR: Could not find Arsenal script."
6652  04                 const type 4
6653  09                 string size (9)
6654  4B6E65656C696E67+  "Kneeling"
665C  00                 "\0"
                         const [19]: "Kneeling"
665D  01                 const type 3
665E  B47809A1           const [20]: (-1593214796)
6662  01                 const type 3
6663  1A4B27EC           const [21]: (-332969190)
6667  04                 const type 4
6668  0C                 string size (12)
6669  4B6E65656C416374+  "KneelAct"
6671  696F6E00           "ion\0"
                         const [22]: "KneelAction"
6675  01                 const type 3
6676  5B7C8679           const [23]: (2038856795)
667A  04                 const type 4
667B  10                 string size (16)
667C  4261636B67726F75+  "Backgrou"
6684  6E644D6F76696500   "ndMovie\0"
                         const [24]: "BackgroundMovie"
668C  01                 const type 3
668D  A9278F45           const [25]: (1167009705)
6691  04                 const type 4
6692  14                 string size (20)
6693  53686F77426C6F63+  "ShowBloc"
669B  6B696E674D657373+  "kingMess"
66A3  61676500           "age\0"
                         const [26]: "ShowBlockingMessage"
66A7  04                 const type 4
66A8  02                 string size (2)
66A9  3000               "0\0"
                         const [27]: "0"
66AB  04                 const type 4
66AC  18                 string size (24)
66AD  417273656E616C5F+  "Arsenal_"
66B5  52657475726E546F+  "ReturnTo"
66BD  4E656D6573697300   "Nemesis\0"
                         const [28]: "Arsenal_ReturnToNemesis"
66C5  01                 const type 3
66C6  01000000           const [29]: (1)
66CA  04                 const type 4
66CB  15                 string size (21)
66CC  417273656E616C5F+  "Arsenal_"
66D4  517569636B557067+  "QuickUpg"
66DC  7261646500         "rade\0"
                         const [30]: "Arsenal_QuickUpgrade"
66E1  04                 const type 4
66E2  05                 string size (5)
66E3  7479706500         "type\0"
                         const [31]: "type"
66E8  04                 const type 4
66E9  0B                 string size (11)
66EA  4C6F7475735F4761+  "Lotus_Ga"
66F2  6D6500             "me\0"
                         const [32]: "Lotus_Game"
66F5  04                 const type 4
66F6  0E                 string size (14)
66F7  4C4F545F44415441+  "LOT_DATA"
66FF  4B4E49464500       "KNIFE\0"
                         const [33]: "LOT_DATAKNIFE"
6705  04                 const type 4
6706  05                 string size (5)
6707  736C6F7400         "slot\0"
                         const [34]: "slot"
670C  04                 const type 4
670D  0A                 string size (10)
670E  535549545F534C4F+  "SUIT_SLO"
6716  5400               "T\0"
                         const [35]: "SUIT_SLOT"
6718  04                 const type 4
6719  11                 string size (17)
671A  7472696767657265+  "triggere"
6722  64436F6E736F6C65+  "dConsole"
672A  00                 "\0"
                         const [36]: "triggeredConsole"
672B  01                 const type 3
672C  655F08DA           const [37]: (-636985499)
                         * functions:
6730  00                 sizep (0)
                         * lines:
6731  71                 sizelineinfo (113)
                         [pc] (line)
6732  3A                 [001] (58)
6733  03                 [002] (59)
6734  00                 [003] (59)
6735  00                 [004] (61)
6736  3B                 [005] (61)
6737  03                 [006] (61)
6738  00                 [007] (62)
6739  00                 [008] (63)
673A  3B                 [009] (63)
673B  03                 [010] (63)
673C  00                 [011] (63)
673D  00                 [012] (63)
673E  3D                 [013] (64)
673F  03                 [014] (64)
6740  00                 [015] (64)
6741  00                 [016] (67)
6742  3D                 [017] (67)
6743  03                 [018] (67)
6744  00                 [019] (67)
6745  00                 [020] (68)
6746  3D                 [021] (69)
6747  03                 [022] (69)
6748  00                 [023] (69)
6749  00                 [024] (70)
674A  3E                 [025] (70)
674B  03                 [026] (70)
674C  00                 [027] (70)
674D  00                 [028] (70)
674E  3F                 [029] (70)
674F  03                 [030] (70)
6750  00                 [031] (70)
6751  00                 [032] (70)
6752  3F                 [033] (70)
6753  03                 [034] (70)
6754  00                 [035] (70)
6755  00                 [036] (70)
6756  3F                 [037] (70)
6757  03                 [038] (70)
6758  00                 [039] (70)
6759  00                 [040] (71)
675A  3F                 [041] (71)
675B  03                 [042] (73)
675C  00                 [043] (75)
675D  00                 [044] (75)
675E  3F                 [045] (75)
675F  03                 [046] (75)
6760  00                 [047] (75)
6761  00                 [048] (76)
6762  40                 [049] (76)
6763  03                 [050] (76)
6764  00                 [051] (76)
6765  00                 [052] (76)
6766  40                 [053] (77)
6767  03                 [054] (77)
6768  00                 [055] (77)
6769  00                 [056] (77)
676A  40                 [057] (79)
676B  03                 [058] (79)
676C  00                 [059] (79)
676D  00                 [060] (79)
676E  43                 [061] (79)
676F  03                 [062] (79)
6770  00                 [063] (79)
6771  00                 [064] (79)
6772  43                 [065] (79)
6773  03                 [066] (80)
6774  00                 [067] (80)
6775  00                 [068] (80)
6776  43                 [069] (80)
6777  03                 [070] (80)
6778  00                 [071] (80)
6779  00                 [072] (80)
677A  43                 [073] (80)
677B  03                 [074] (81)
677C  00                 [075] (81)
677D  00                 [076] (81)
677E  44                 [077] (81)
677F  03                 [078] (81)
6780  00                 [079] (82)
6781  00                 [080] (82)
6782  45                 [081] (82)
6783  03                 [082] (86)
6784  00                 [083] (86)
6785  00                 [084] (86)
6786  45                 [085] (86)
6787  03                 [086] (86)
6788  00                 [087] (86)
6789  00                 [088] (87)
678A  45                 [089] (87)
678B  03                 [090] (87)
678C  00                 [091] (87)
678D  00                 [092] (87)
678E  46                 [093] (87)
678F  03                 [094] (90)
6790  00                 [095] (90)
6791  00                 [096] (92)
6792  46                 [097] (92)
6793  03                 [098] (93)
6794  00                 [099] (93)
6795  00                 [100] (93)
6796  46                 [101] (93)
6797  03                 [102] (93)
6798  00                 [103] (93)
6799  00                 [104] (93)
679A  46                 [105] (93)
679B  03                 [106] (93)
679C  00                 [107] (94)
679D  00                 [108] (94)
679E  46                 [109] (95)
679F  03                 [110] (95)
67A0  00                 [111] (96)
67A1  00                 [112] (96)
67A2  46                 [113] (98)
                         * locals:
68F6  00                 sizelocvars (0)
                         * upvalues:
68F7  00                 sizeupvalues (0)
                         ** end of function **

                         
68F8                     ** function [39] definition (level 2)
                         ** start of function **
68F8  00                 string size (0)
                         source name: (none)
68FA  06                 line defined (868)
68FB  EA                 last line defined (874)
68FC  06                 nups (1)
68FD  01                 numparams (0)
68FE  00                 is_vararg (0)
68FF  00                 maxstacksize (4)
                         * code:
6901  0F                 sizecode (15)
6902  17008000           [01] loadbool   0   1   0    ; true
fail op	8
6906  08000000           [02] setupval   0   0      
690A  1D000000           [03] getglobal  0   0        ; 1074689893
690E  5D400000           [04] getglobal  1   1        ; _T
6912  4E80C000           [05] gettable   1   1   258  ; "BackgroundMovie"
6916  22800001           [06] call       0   2   2  
691A  18400000           [07] test       0       1    ; to [9] if false
691E  1A400180           [08] jmp        6            ; to [15]
6922  1D400000           [09] getglobal  0   1        ; _T
6926  0E804000           [10] gettable   0   0   258  ; "BackgroundMovie"
692A  24C04000           [11] self       0   0   259  ; 1167009705
692E  99000100           [12] loadk      2   4        ; "ShowBlockingMessage"
6932  D9400100           [13] loadk      3   5        ; "2"
6936  22400002           [14] call       0   4   1  
693A  1E008000           [15] return     0   1      
                         * constants:
693E  06                 sizek (6)
693F  01                 const type 3
6940  65770E40           const [0]: (1074689893)
6944  04                 const type 4
6945  03                 string size (3)
6946  5F5400             "_T\0"
                         const [1]: "_T"
6949  04                 const type 4
694A  10                 string size (16)
694B  4261636B67726F75+  "Backgrou"
6953  6E644D6F76696500   "ndMovie\0"
                         const [2]: "BackgroundMovie"
695B  01                 const type 3
695C  A9278F45           const [3]: (1167009705)
6960  04                 const type 4
6961  14                 string size (20)
6962  53686F77426C6F63+  "ShowBloc"
696A  6B696E674D657373+  "kingMess"
6972  61676500           "age\0"
                         const [4]: "ShowBlockingMessage"
6976  04                 const type 4
6977  02                 string size (2)
6978  3200               "2\0"
                         const [5]: "2"
                         * functions:
697A  00                 sizep (0)
                         * lines:
697B  0F                 sizelineinfo (15)
                         [pc] (line)
697C  65                 [01] (101)
697D  03                 [02] (101)
697E  00                 [03] (103)
697F  00                 [04] (103)
6980  65                 [05] (103)
6981  03                 [06] (103)
6982  00                 [07] (103)
6983  00                 [08] (103)
6984  67                 [09] (104)
6985  03                 [10] (104)
6986  00                 [11] (104)
6987  00                 [12] (104)
6988  67                 [13] (104)
6989  03                 [14] (104)
698A  00                 [15] (106)
                         * locals:
69B8  00                 sizelocvars (0)
                         * upvalues:
69B9  00                 sizeupvalues (0)
                         ** end of function **

                         
69BA                     ** function [40] definition (level 2)
                         ** start of function **
69BA  00                 string size (0)
                         source name: (none)
69BC  06                 line defined (876)
69BD  8F                 last line defined (911)
69BE  07                 nups (1)
69BF  01                 numparams (1)
69C0  01                 is_vararg (0)
69C1  00                 maxstacksize (29)
                         * code:
69C3  58                 sizecode (88)
69C4  53000000           [01] getupval   1   0      
69C8  6400C000           [02] self       1   1   256  ; 2096569603
69CC  62400001           [03] call       1   2   1  
69D0  46008000           [04] loadnil    1   1      
69D4  9D400000           [05] getglobal  2   1        ; 1074689893
69D8  D2000000           [06] move       3   0      
69DC  A2800001           [07] call       2   2   2  
69E0  98400000           [08] test       2       1    ; to [10] if false
69E4  1A000080           [09] jmp        1            ; to [11]
69E8  4E804000           [10] gettable   1   0   258  ; "mGuessHistory"
69EC  8A008000           [11] len        2   1      
69F0  D9C00000           [12] loadk      3   3        ; 0
69F4  19010100           [13] loadk      4   4        ; 0
69F8  90000E80           [14] forprep    2   57       ; to [72]
69FC  9D410100           [15] getglobal  6   5        ; Lotus_Game
6A00  8E814103           [16] gettable   6   6   262  ; 1640430966
6A04  CE418100           [17] gettable   7   1   5  
6A08  A2C10101           [18] call       6   2   7  
6A0C  0B038001           [19] newtable   12  3   0    ; array=3, hash=0
6A10  52038003           [20] move       13  7      
6A14  92038004           [21] move       14  9      
6A18  D2038005           [22] move       15  11     
6A1C  1B438001           [23] setlist    12  3   1    ; index 1 to 3
6A20  4B038001           [24] newtable   13  3   0    ; array=3, hash=0
6A24  92030003           [25] move       14  6      
6A28  D2030004           [26] move       15  8      
6A2C  12040005           [27] move       16  10     
6A30  5B438001           [28] setlist    13  3   1    ; index 1 to 3
6A34  8B030000           [29] newtable   14  0   0    ; array=0, hash=0
6A38  D9C30000           [30] loadk      15  3        ; 0
6A3C  0A048006           [31] len        16  13     
6A40  59C40000           [32] loadk      17  3        ; 0
6A44  D0430780           [33] forprep    15  30       ; to [64]
6A48  CE848406           [34] gettable   19  13  18 
6A4C  1DC50100           [35] getglobal  20  7        ; emptyIcons
6A50  0EC5400A           [36] gettable   20  20  259  ; 0
6A54  5DC50100           [37] getglobal  21  7        ; emptyIcons
6A58  4E05C20A           [38] gettable   21  21  264  ; 0
6A5C  99450200           [39] loadk      22  9        ; 0
fail op	33
6A60  2180C209           [40] tforloop   0       266  ; to [42] if exit
6A64  1A000380           [41] jmp        13           ; to [55]
6A68  DDC50200           [42] getglobal  23  11       ; immortalMods
6A6C  03C6C009           [43] add        24  19  259  ; 0
6A70  CE05860B           [44] gettable   23  23  24 
6A74  E405C30B           [45] self       23  23  268  ; -240553170
6A78  E2850001           [46] call       23  2   2  
6A7C  1205800B           [47] move       20  23     
6A80  DDC50200           [48] getglobal  23  11       ; immortalMods
6A84  03C6C009           [49] add        24  19  259  ; 0
6A88  CE05860B           [50] gettable   23  23  24 
6A8C  E445C30B           [51] self       23  23  269  ; 1043469869
6A90  E2850001           [52] call       23  2   2  
6A94  5205800B           [53] move       21  23     
6A98  99850300           [54] loadk      22  14       ; 0
6A9C  DDC50300           [55] getglobal  23  15       ; table
6AA0  CE05C40B           [56] gettable   23  23  272  ; -431682403
6AA4  12060007           [57] move       24  14     
6AA8  4B068001           [58] newtable   25  3   0    ; array=3, hash=0
6AAC  9206000A           [59] move       26  20     
6AB0  D206800A           [60] move       27  21     
6AB4  1207000B           [61] move       28  22     
6AB8  5B468001           [62] setlist    25  3   1    ; index 1 to 3
6ABC  E2458001           [63] call       23  3   1  
6AC0  D403F87F           [64] forloop    15  -31      ; to [34] if loop
6AC4  D3050000           [65] getupval   23  0      
6AC8  E445C40B           [66] self       23  23  273  ; -1484936978
6ACC  4B860000           [67] newtable   25  0   2    ; array=0, hash=2
6AD0  4C060389           [68] settable   25  274 12   ; "States"
6AD4  4C868389           [69] settable   25  275 14   ; "Icons"
6AD8  97068000           [70] loadbool   26  1   0    ; true
6ADC  E2450002           [71] call       23  4   1  
6AE0  9440F17F           [72] forloop    2   -58      ; to [15] if loop
6AE4  D3050000           [73] getupval   23  0      
6AE8  E405C50B           [74] self       23  23  276  ; 1685109492
6AEC  E2450001           [75] call       23  2   1  
6AF0  D3050000           [76] getupval   23  0      
6AF4  E445C50B           [77] self       23  23  277  ; -988128099
6AF8  E2850001           [78] call       23  2   2  
6AFC  1D860500           [79] getglobal  24  22       ; mMovie
6B00  24C6450C           [80] self       24  24  279  ; 471456102
6B04  99060600           [81] loadk      26  24       ; "CombinationHistory.Hint"
6B08  D9460600           [82] loadk      27  25       ; "_visible"
fail op	35
6B0C  6380C60B           [83] close      1  
6B10  1A000080           [84] jmp        1            ; to [86]
6B14  17470000           [85] loadbool   28  0   1    ; false, to [87]
6B18  17078000           [86] loadbool   28  1   0    ; true
6B1C  22468002           [87] call       24  5   1  
6B20  1E008000           [88] return     0   1      
                         * constants:
6B24  1B                 sizek (27)
6B25  01                 const type 3
6B26  031DF77C           const [0]: (2096569603)
6B2A  01                 const type 3
6B2B  65770E40           const [1]: (1074689893)
6B2F  04                 const type 4
6B30  0E                 string size (14)
6B31  6D47756573734869+  "mGuessHi"
6B39  73746F727900       "story\0"
                         const [2]: "mGuessHistory"
6B3F  03                 const type 3
6B40  0000803F           const [3]: (0)
6B44  03                 const type 3
6B45  000080BF           const [4]: (0)
6B49  04                 const type 4
6B4A  0B                 string size (11)
6B4B  4C6F7475735F4761+  "Lotus_Ga"
6B53  6D6500             "me\0"
                         const [5]: "Lotus_Game"
6B56  01                 const type 3
6B57  76FDC661           const [6]: (1640430966)
6B5B  04                 const type 4
6B5C  0B                 string size (11)
6B5D  656D70747949636F+  "emptyIco"
6B65  6E7300             "ns\0"
                         const [7]: "emptyIcons"
6B68  03                 const type 3
6B69  00000040           const [8]: (0)
6B6D  03                 const type 3
6B6E  00003442           const [9]: (0)
6B72  03                 const type 3
6B73  0000E040           const [10]: (0)
6B77  04                 const type 4
6B78  0D                 string size (13)
6B79  696D6D6F7274616C+  "immortal"
6B81  4D6F647300         "Mods\0"
                         const [11]: "immortalMods"
6B86  01                 const type 3
6B87  2E73A9F1           const [12]: (-240553170)
6B8B  01                 const type 3
6B8C  2D16323E           const [13]: (1043469869)
6B90  03                 const type 3
6B91  00009642           const [14]: (0)
6B95  04                 const type 4
6B96  06                 string size (6)
6B97  7461626C6500       "table\0"
                         const [15]: "table"
6B9D  01                 const type 3
6B9E  9D0C45E6           const [16]: (-431682403)
6BA2  01                 const type 3
6BA3  EEA87DA7           const [17]: (-1484936978)
6BA7  04                 const type 4
6BA8  07                 string size (7)
6BA9  53746174657300     "States\0"
                         const [18]: "States"
6BB0  04                 const type 4
6BB1  06                 string size (6)
6BB2  49636F6E7300       "Icons\0"
                         const [19]: "Icons"
6BB8  01                 const type 3
6BB9  F4BA7064           const [20]: (1685109492)
6BBD  01                 const type 3
6BBE  9D5C1AC5           const [21]: (-988128099)
6BC2  04                 const type 4
6BC3  07                 string size (7)
6BC4  6D4D6F76696500     "mMovie\0"
                         const [22]: "mMovie"
6BCB  01                 const type 3
6BCC  66D9191C           const [23]: (471456102)
6BD0  04                 const type 4
6BD1  18                 string size (24)
6BD2  436F6D62696E6174+  "Combinat"
6BDA  696F6E486973746F+  "ionHisto"
6BE2  72792E48696E7400   "ry.Hint\0"
                         const [24]: "CombinationHistory.Hint"
6BEA  04                 const type 4
6BEB  09                 string size (9)
6BEC  5F76697369626C65+  "_visible"
6BF4  00                 "\0"
                         const [25]: "_visible"
6BF5  03                 const type 3
6BF6  00000000           const [26]: (0)
                         * functions:
6BFA  00                 sizep (0)
                         * lines:
6BFB  58                 sizelineinfo (88)
                         [pc] (line)
6BFC  6D                 [01] (109)
6BFD  03                 [02] (109)
6BFE  00                 [03] (109)
6BFF  00                 [04] (111)
6C00  6D                 [05] (112)
6C01  03                 [06] (112)
6C02  00                 [07] (112)
6C03  00                 [08] (112)
6C04  6D                 [09] (112)
6C05  03                 [10] (113)
6C06  00                 [11] (117)
6C07  00                 [12] (117)
6C08  6F                 [13] (117)
6C09  03                 [14] (117)
6C0A  00                 [15] (119)
6C0B  00                 [16] (119)
6C0C  70                 [17] (119)
6C0D  03                 [18] (119)
6C0E  00                 [19] (120)
6C0F  00                 [20] (120)
6C10  70                 [21] (120)
6C11  03                 [22] (120)
6C12  00                 [23] (120)
6C13  00                 [24] (121)
6C14  70                 [25] (121)
6C15  03                 [26] (121)
6C16  00                 [27] (121)
6C17  00                 [28] (121)
6C18  70                 [29] (122)
6C19  03                 [30] (123)
6C1A  00                 [31] (123)
6C1B  00                 [32] (123)
6C1C  70                 [33] (123)
6C1D  03                 [34] (124)
6C1E  00                 [35] (125)
6C1F  00                 [36] (125)
6C20  71                 [37] (126)
6C21  03                 [38] (126)
6C22  00                 [39] (127)
6C23  00                 [40] (-128)
6C24  75                 [41] (-128)
6C25  03                 [42] (-127)
6C26  00                 [43] (-127)
6C27  00                 [44] (-127)
6C28  75                 [45] (-127)
6C29  03                 [46] (-127)
6C2A  00                 [47] (-127)
6C2B  00                 [48] (-126)
6C2C  75                 [49] (-126)
6C2D  03                 [50] (-126)
6C2E  00                 [51] (-126)
6C2F  00                 [52] (-126)
6C30  75                 [53] (-126)
6C31  03                 [54] (-125)
6C32  00                 [55] (-123)
6C33  00                 [56] (-123)
6C34  77                 [57] (-123)
6C35  03                 [58] (-123)
6C36  00                 [59] (-123)
6C37  00                 [60] (-123)
6C38  77                 [61] (-123)
6C39  03                 [62] (-123)
6C3A  00                 [63] (-123)
6C3B  00                 [64] (123)
6C3C  77                 [65] (-120)
6C3D  03                 [66] (-120)
6C3E  00                 [67] (-120)
6C3F  00                 [68] (-120)
6C40  77                 [69] (-120)
6C41  03                 [70] (-120)
6C42  00                 [71] (-120)
6C43  00                 [72] (117)
6C44  78                 [73] (-117)
6C45  03                 [74] (-117)
6C46  00                 [75] (-117)
6C47  00                 [76] (-115)
6C48  78                 [77] (-115)
6C49  03                 [78] (-115)
6C4A  00                 [79] (-114)
6C4B  00                 [80] (-114)
6C4C  78                 [81] (-114)
6C4D  03                 [82] (-114)
6C4E  00                 [83] (-114)
6C4F  00                 [84] (-114)
6C50  78                 [85] (-114)
6C51  03                 [86] (-114)
6C52  00                 [87] (-114)
6C53  00                 [88] (-113)
                         * locals:
6D5C  00                 sizelocvars (0)
                         * upvalues:
6D5D  00                 sizeupvalues (0)
                         ** end of function **

                         
6D5E                     ** function [41] definition (level 2)
                         ** start of function **
6D5E  00                 string size (0)
                         source name: (none)
6D60  07                 line defined (913)
6D61  CE                 last line defined (974)
6D62  07                 nups (3)
6D63  03                 numparams (0)
6D64  00                 is_vararg (0)
6D65  00                 maxstacksize (7)
                         * code:
6D67  45                 sizecode (69)
6D68  1D000000           [01] getglobal  0   0        ; 849075268
6D6C  59400000           [02] loadk      1   1        ; "EE.Interface.Components.Grid"
6D70  22800001           [03] call       0   2   2  
6D74  4E804000           [04] gettable   1   0   258  ; -1703198922
6D78  9DC00000           [05] getglobal  2   3        ; mMovie
6D7C  D9000100           [06] loadk      3   4        ; "CombinationHistory.Grid.Element"
6D80  06010002           [07] loadnil    4   4      
6D84  59410100           [08] loadk      5   5        ; 0
6D88  99810100           [09] loadk      6   6        ; 0
6D8C  62800003           [10] call       1   6   2  
fail op	8
6D90  48000000           [11] setupval   1   0      
6D94  53000000           [12] getupval   1   0      
6D98  4C00C283           [13] settable   1   263 264  ; "mRowSeparation" 0
6D9C  53000000           [14] getupval   1   0      
6DA0  4C80C284           [15] settable   1   265 266  ; "mColumnSeparation" 0
6DA4  53000000           [16] getupval   1   0      
6DA8  64C0C200           [17] self       1   1   267  ; 1035345719
6DAC  D9000300           [18] loadk      3   12       ; "CombinationHistory.ScrollBar"
6DB0  19410300           [19] loadk      4   13       ; 0
6DB4  62400002           [20] call       1   4   1  
6DB8  53000000           [21] getupval   1   0      
6DBC  6480C300           [22] self       1   1   270  ; -104757962
6DC0  62400001           [23] call       1   2   1  
6DC4  53000000           [24] getupval   1   0      
6DC8  A5000000           [25] closure    2   0      
6DCC  13000000           [26] getupval   0   0      
6DD0  13008000           [27] getupval   0   1      
6DD4  4C808087           [28] settable   1   271 2    ; "mElementDrawCallback"
6DD8  5DC00000           [29] getglobal  1   3        ; mMovie
6DDC  6400C400           [30] self       1   1   272  ; 471456102
6DE0  D9400400           [31] loadk      3   17       ; "CombinationHistory.Hint"
6DE4  19810400           [32] loadk      4   18       ; "textColor"
6DE8  53018000           [33] getupval   5   1      
6DEC  4EC1C402           [34] gettable   5   5   275  ; "FloatingContent"
6DF0  62408002           [35] call       1   5   1  
6DF4  5DC00000           [36] getglobal  1   3        ; mMovie
6DF8  6400C400           [37] self       1   1   272  ; 471456102
6DFC  D9400400           [38] loadk      3   17       ; "CombinationHistory.Hint"
6E00  19010500           [39] loadk      4   20       ; "verticalAlignment"
6E04  59410500           [40] loadk      5   21       ; "center"
6E08  62408002           [41] call       1   5   1  
6E0C  5D800500           [42] getglobal  1   22       ; -421772368
6E10  99C00500           [43] loadk      2   23       ; "/Lotus/Language/Kingpins/NemesisView_NoHistoryName"
6E14  D7000000           [44] loadbool   3   0   0    ; false
6E18  62808001           [45] call       1   3   2  
6E1C  9DC00000           [46] getglobal  2   3        ; mMovie
6E20  A4004601           [47] self       2   2   280  ; 386043535
6E24  19410600           [48] loadk      4   25       ; "CombinationHistory.Hint.text"
6E28  59810600           [49] loadk      5   26       ; "/Lotus/Language/Kingpins/NemesisView_NoHistoryHint"
6E2C  8B410000           [50] newtable   6   0   1    ; array=0, hash=1
6E30  8C41808D           [51] settable   6   283 1    ; "LICH_NAME"
6E34  A2408002           [52] call       2   5   1  
6E38  9DC00000           [53] getglobal  2   3        ; mMovie
6E3C  A4004401           [54] self       2   2   272  ; 471456102
6E40  19010700           [55] loadk      4   28       ; "CurrentCombination.Bg"
6E44  59410700           [56] loadk      5   29       ; "_color"
6E48  93018000           [57] getupval   6   1      
6E4C  8E814703           [58] gettable   6   6   286  ; "Background1"
6E50  A2408002           [59] call       2   5   1  
6E54  9DC00000           [60] getglobal  2   3        ; mMovie
6E58  A4004401           [61] self       2   2   272  ; 471456102
6E5C  19C10700           [62] loadk      4   31       ; "CurrentCombination.Edge"
6E60  59410700           [63] loadk      5   29       ; "_color"
6E64  93018000           [64] getupval   6   1      
6E68  8E014803           [65] gettable   6   6   288  ; "FloatingContentHighlight"
6E6C  A2408002           [66] call       2   5   1  
6E70  93000001           [67] getupval   2   2      
6E74  A2408000           [68] call       2   1   1  
6E78  1E008000           [69] return     0   1      
                         * constants:
6E7C  21                 sizek (33)
6E7D  01                 const type 3
6E7E  44DC9B32           const [0]: (849075268)
6E82  04                 const type 4
6E83  1D                 string size (29)
6E84  45452E496E746572+  "EE.Inter"
6E8C  666163652E436F6D+  "face.Com"
6E94  706F6E656E74732E+  "ponents."
6E9C  4772696400         "Grid\0"
                         const [1]: "EE.Interface.Components.Grid"
6EA1  01                 const type 3
6EA2  363F7B9A           const [2]: (-1703198922)
6EA6  04                 const type 4
6EA7  07                 string size (7)
6EA8  6D4D6F76696500     "mMovie\0"
                         const [3]: "mMovie"
6EAF  04                 const type 4
6EB0  20                 string size (32)
6EB1  436F6D62696E6174+  "Combinat"
6EB9  696F6E486973746F+  "ionHisto"
6EC1  72792E477269642E+  "ry.Grid."
6EC9  456C656D656E7400   "Element\0"
                         const [4]: "CombinationHistory.Grid.Element"
6ED1  03                 const type 3
6ED2  0000803F           const [5]: (0)
6ED6  03                 const type 3
6ED7  0000C040           const [6]: (0)
6EDB  04                 const type 4
6EDC  0F                 string size (15)
6EDD  6D526F7753657061+  "mRowSepa"
6EE5  726174696F6E00     "ration\0"
                         const [7]: "mRowSeparation"
6EEC  03                 const type 3
6EED  00007042           const [8]: (0)
6EF1  04                 const type 4
6EF2  12                 string size (18)
6EF3  6D436F6C756D6E53+  "mColumnS"
6EFB  657061726174696F+  "eparatio"
6F03  6E00               "n\0"
                         const [9]: "mColumnSeparation"
6F05  03                 const type 3
6F06  00004843           const [10]: (0)
6F0A  01                 const type 3
6F0B  371FB63D           const [11]: (1035345719)
6F0F  04                 const type 4
6F10  1D                 string size (29)
6F11  436F6D62696E6174+  "Combinat"
6F19  696F6E486973746F+  "ionHisto"
6F21  72792E5363726F6C+  "ry.Scrol"
6F29  6C42617200         "lBar\0"
                         const [12]: "CombinationHistory.ScrollBar"
6F2E  03                 const type 3
6F2F  0000A0C0           const [13]: (0)
6F33  01                 const type 3
6F34  3685C1F9           const [14]: (-104757962)
6F38  04                 const type 4
6F39  15                 string size (21)
6F3A  6D456C656D656E74+  "mElement"
6F42  4472617743616C6C+  "DrawCall"
6F4A  6261636B00         "back\0"
                         const [15]: "mElementDrawCallback"
6F4F  01                 const type 3
6F50  66D9191C           const [16]: (471456102)
6F54  04                 const type 4
6F55  18                 string size (24)
6F56  436F6D62696E6174+  "Combinat"
6F5E  696F6E486973746F+  "ionHisto"
6F66  72792E48696E7400   "ry.Hint\0"
                         const [17]: "CombinationHistory.Hint"
6F6E  04                 const type 4
6F6F  0A                 string size (10)
6F70  74657874436F6C6F+  "textColo"
6F78  7200               "r\0"
                         const [18]: "textColor"
6F7A  04                 const type 4
6F7B  10                 string size (16)
6F7C  466C6F6174696E67+  "Floating"
6F84  436F6E74656E7400   "Content\0"
                         const [19]: "FloatingContent"
6F8C  04                 const type 4
6F8D  12                 string size (18)
6F8E  766572746963616C+  "vertical"
6F96  416C69676E6D656E+  "Alignmen"
6F9E  7400               "t\0"
                         const [20]: "verticalAlignment"
6FA0  04                 const type 4
6FA1  07                 string size (7)
6FA2  63656E74657200     "center\0"
                         const [21]: "center"
6FA9  01                 const type 3
6FAA  B043DCE6           const [22]: (-421772368)
6FAE  04                 const type 4
6FAF  33                 string size (51)
6FB0  2F4C6F7475732F4C+  "/Lotus/L"
6FB8  616E67756167652F+  "anguage/"
6FC0  4B696E6770696E73+  "Kingpins"
6FC8  2F4E656D65736973+  "/Nemesis"
6FD0  566965775F4E6F48+  "View_NoH"
6FD8  6973746F72794E61+  "istoryNa"
6FE0  6D6500             "me\0"
                         const [23]: "/Lotus/Language/Kingpins/NemesisView_NoHistoryName"
6FE3  01                 const type 3
6FE4  8F8E0217           const [24]: (386043535)
6FE8  04                 const type 4
6FE9  1D                 string size (29)
6FEA  436F6D62696E6174+  "Combinat"
6FF2  696F6E486973746F+  "ionHisto"
6FFA  72792E48696E742E+  "ry.Hint."
7002  7465787400         "text\0"
                         const [25]: "CombinationHistory.Hint.text"
7007  04                 const type 4
7008  33                 string size (51)
7009  2F4C6F7475732F4C+  "/Lotus/L"
7011  616E67756167652F+  "anguage/"
7019  4B696E6770696E73+  "Kingpins"
7021  2F4E656D65736973+  "/Nemesis"
7029  566965775F4E6F48+  "View_NoH"
7031  6973746F72794869+  "istoryHi"
7039  6E7400             "nt\0"
                         const [26]: "/Lotus/Language/Kingpins/NemesisView_NoHistoryHint"
703C  04                 const type 4
703D  0A                 string size (10)
703E  4C4943485F4E414D+  "LICH_NAM"
7046  4500               "E\0"
                         const [27]: "LICH_NAME"
7048  04                 const type 4
7049  16                 string size (22)
704A  43757272656E7443+  "CurrentC"
7052  6F6D62696E617469+  "ombinati"
705A  6F6E2E426700       "on.Bg\0"
                         const [28]: "CurrentCombination.Bg"
7060  04                 const type 4
7061  07                 string size (7)
7062  5F636F6C6F7200     "_color\0"
                         const [29]: "_color"
7069  04                 const type 4
706A  0C                 string size (12)
706B  4261636B67726F75+  "Backgrou"
7073  6E643100           "nd1\0"
                         const [30]: "Background1"
7077  04                 const type 4
7078  18                 string size (24)
7079  43757272656E7443+  "CurrentC"
7081  6F6D62696E617469+  "ombinati"
7089  6F6E2E4564676500   "on.Edge\0"
                         const [31]: "CurrentCombination.Edge"
7091  04                 const type 4
7092  19                 string size (25)
7093  466C6F6174696E67+  "Floating"
709B  436F6E74656E7448+  "ContentH"
70A3  6967686C69676874+  "ighlight"
70AB  00                 "\0"
                         const [32]: "FloatingContentHighlight"
                         * functions:
70AC  01                 sizep (1)
                         
70AD                     ** function [0] definition (level 3)
                         ** start of function **
70AD  00                 string size (0)
                         source name: (none)
70AF  07                 line defined (921)
70B0  C4                 last line defined (964)
70B1  07                 nups (2)
70B2  02                 numparams (1)
70B3  01                 is_vararg (0)
70B4  00                 maxstacksize (22)
                         * code:
70B7  01                 sizecode (190)
70B8  4E004000           [001] gettable   1   0   256  ; "mClipName"
fail op	35
70BC  2340C000           [002] close      0  
70C0  1A000080           [003] jmp        1            ; to [5]
70C4  1E008000           [004] return     0   1      
70C8  53000000           [005] getupval   1   0      
70CC  6480C000           [006] self       1   1   258  ; -988128099
70D0  62800001           [007] call       1   2   2  
70D4  8EC04000           [008] gettable   2   0   259  ; "Id"
70D8  4D808000           [009] sub        1   1   2  
70DC  4300C100           [010] add        1   1   260  ; 0
70E0  9D400100           [011] getglobal  2   5        ; mMovie
70E4  A4804101           [012] self       2   2   262  ; -2013161817
70E8  0E014000           [013] gettable   4   0   256  ; "mClipName"
70EC  59C10100           [014] loadk      5   7        ; "OrderNumber"
70F0  99010200           [015] loadk      6   8        ; "text"
70F4  D2018000           [016] move       7   1      
70F8  A2400003           [017] call       2   6   1  
70FC  9D400100           [018] getglobal  2   5        ; mMovie
7100  A4804101           [019] self       2   2   262  ; -2013161817
7104  0E014000           [020] gettable   4   0   256  ; "mClipName"
7108  59C10100           [021] loadk      5   7        ; "OrderNumber"
710C  99410200           [022] loadk      6   9        ; "_alpha"
7110  D9810200           [023] loadk      7   10       ; 0
7114  A2400003           [024] call       2   6   1  
7118  9D400100           [025] getglobal  2   5        ; mMovie
711C  A4804101           [026] self       2   2   262  ; -2013161817
7120  0E014000           [027] gettable   4   0   256  ; "mClipName"
7124  59C10100           [028] loadk      5   7        ; "OrderNumber"
7128  99C10200           [029] loadk      6   11       ; "textColor"
712C  D3018000           [030] getupval   7   1      
7130  CE01C303           [031] gettable   7   7   268  ; "FloatingContent"
7134  A2400003           [032] call       2   6   1  
7138  99000100           [033] loadk      2   4        ; 0
713C  D9400300           [034] loadk      3   13       ; 0
7140  19010100           [035] loadk      4   4        ; 0
7144  90C02580           [036] forprep    2   152      ; to [189]
7148  8E814300           [037] gettable   6   0   270  ; "Icons"
714C  8E410103           [038] gettable   6   6   5  
7150  CEC14300           [039] gettable   7   0   271  ; "States"
7154  CE418103           [040] gettable   7   7   5  
7158  19020400           [041] loadk      8   16       ; 0
715C  5D420400           [042] getglobal  9   17       ; _G
7160  4E82C404           [043] gettable   9   9   274  ; "UIColor_White"
7164  93028000           [044] getupval   10  1      
7168  8EC24405           [045] gettable   10  10  275  ; "Background1Color"
716C  D9020500           [046] loadk      11  20       ; 0
7170  17030000           [047] loadbool   12  0   0    ; false
fail op	35
7174  2340C503           [048] close      0  
7178  1A000180           [049] jmp        5            ; to [55]
717C  19820500           [050] loadk      8   22       ; 0
7180  D9420500           [051] loadk      11  21       ; 0
7184  5D430400           [052] getglobal  13  17       ; _G
7188  8EC2C506           [053] gettable   10  13  279  ; "UIColor_RGB_White"
718C  1A400280           [054] jmp        10           ; to [65]
fail op	35
7190  2300C103           [055] close      0  
7194  1AC00080           [056] jmp        4            ; to [61]
7198  53038000           [057] getupval   13  1      
719C  8E02C606           [058] gettable   10  13  280  ; "NegativeColor"
71A0  17038000           [059] loadbool   12  1   0    ; true
71A4  1AC00080           [060] jmp        4            ; to [65]
fail op	35
71A8  2340C603           [061] close      0  
71AC  1A400080           [062] jmp        2            ; to [65]
71B0  53038000           [063] getupval   13  1      
71B4  8E82C606           [064] gettable   10  13  282  ; "FloatingContentColor"
71B8  4E034000           [065] gettable   13  0   256  ; "mClipName"
71BC  99C30600           [066] loadk      14  27       ; ".Symbol"
71C0  DD030700           [067] getglobal  15  28       ; -1615931716
71C4  12048002           [068] move       16  5      
71C8  E2830001           [069] call       15  2   2  
71CC  42C38306           [070] concat     13  13  15 
71D0  9D430100           [071] getglobal  14  5        ; mMovie
71D4  A4434707           [072] self       14  14  285  ; 471456102
71D8  12048006           [073] move       16  13     
71DC  59840700           [074] loadk      17  30       ; "_width"
71E0  99C40700           [075] loadk      18  31       ; 0
71E4  A2438002           [076] call       14  5   1  
71E8  9D430100           [077] getglobal  14  5        ; mMovie
71EC  A4434707           [078] self       14  14  285  ; 471456102
71F0  12048006           [079] move       16  13     
71F4  59040800           [080] loadk      17  32       ; "_height"
71F8  99C40700           [081] loadk      18  31       ; 0
71FC  A2438002           [082] call       14  5   1  
7200  9D430100           [083] getglobal  14  5        ; mMovie
7204  A4434707           [084] self       14  14  285  ; 471456102
7208  12048006           [085] move       16  13     
720C  59440200           [086] loadk      17  9        ; "_alpha"
7210  92040004           [087] move       18  8      
7214  A2438002           [088] call       14  5   1  
7218  9D430100           [089] getglobal  14  5        ; mMovie
721C  A4434807           [090] self       14  14  289  ; 1145284071
7220  12048006           [091] move       16  13     
7224  4E044103           [092] gettable   17  6   260  ; 0
7228  9D840800           [093] getglobal  18  34       ; modIconVisRangeMaterial
722C  A2438002           [094] call       14  5   1  
7230  9D430100           [095] getglobal  14  5        ; mMovie
7234  A4C34807           [096] self       14  14  291  ; -380388321
7238  12048006           [097] move       16  13     
723C  5D040900           [098] getglobal  17  36       ; -332969190
7240  99440900           [099] loadk      18  37       ; "DetailMap"
7244  62840001           [100] call       17  2   2  
7248  8E444603           [101] gettable   18  6   281  ; 0
724C  A2438002           [102] call       14  5   1  
7250  9D430100           [103] getglobal  14  5        ; mMovie
7254  A4434707           [104] self       14  14  285  ; 471456102
7258  12048006           [105] move       16  13     
725C  59840900           [106] loadk      17  38       ; "_color"
7260  92048004           [107] move       18  9      
7264  A2438002           [108] call       14  5   1  
7268  9D430100           [109] getglobal  14  5        ; mMovie
726C  A4C34907           [110] self       14  14  295  ; 808102703
7270  12048006           [111] move       16  13     
7274  59040A00           [112] loadk      17  40       ; "DetailMapTint"
7278  8E444A05           [113] gettable   18  10  297  ; "red"
727C  9C844A09           [114] div        18  18  298  ; 0
7280  CEC44A05           [115] gettable   19  10  299  ; "green"
7284  DC84CA09           [116] div        19  19  298  ; 0
7288  0E054B05           [117] gettable   20  10  300  ; "blue"
728C  1C854A0A           [118] div        20  20  298  ; 0
7290  52058005           [119] move       21  11     
7294  A2430004           [120] call       14  8   1  
7298  9D430100           [121] getglobal  14  5        ; mMovie
729C  A4434707           [122] self       14  14  285  ; 471456102
72A0  12048006           [123] move       16  13     
72A4  59440B00           [124] loadk      17  45       ; "Strikethrough"
72A8  02440408           [125] concat     16  16  17 
72AC  59840B00           [126] loadk      17  46       ; "_visible"
72B0  92040006           [127] move       18  12     
72B4  A2438002           [128] call       14  5   1  
72B8  9D430100           [129] getglobal  14  5        ; mMovie
72BC  A4434807           [130] self       14  14  289  ; 1145284071
72C0  12048006           [131] move       16  13     
72C4  59440B00           [132] loadk      17  45       ; "Strikethrough"
72C8  02440408           [133] concat     16  16  17 
72CC  5DC40B00           [134] getglobal  17  47       ; strikeThroughIcons
72D0  4E04C108           [135] gettable   17  17  260  ; 0
72D4  9D840800           [136] getglobal  18  34       ; modIconVisRangeMaterial
72D8  A2438002           [137] call       14  5   1  
72DC  9D430100           [138] getglobal  14  5        ; mMovie
72E0  A4C34807           [139] self       14  14  291  ; -380388321
72E4  12048006           [140] move       16  13     
72E8  59440B00           [141] loadk      17  45       ; "Strikethrough"
72EC  02440408           [142] concat     16  16  17 
72F0  5D040900           [143] getglobal  17  36       ; -332969190
72F4  99440900           [144] loadk      18  37       ; "DetailMap"
72F8  62840001           [145] call       17  2   2  
72FC  9DC40B00           [146] getglobal  18  47       ; strikeThroughIcons
7300  8E444609           [147] gettable   18  18  281  ; 0
7304  A2438002           [148] call       14  5   1  
7308  9D430100           [149] getglobal  14  5        ; mMovie
730C  A4434707           [150] self       14  14  285  ; 471456102
7310  12048006           [151] move       16  13     
7314  59440B00           [152] loadk      17  45       ; "Strikethrough"
7318  02440408           [153] concat     16  16  17 
731C  59840900           [154] loadk      17  38       ; "_color"
7320  92048004           [155] move       18  9      
7324  A2438002           [156] call       14  5   1  
7328  9D430100           [157] getglobal  14  5        ; mMovie
732C  A4C34907           [158] self       14  14  295  ; 808102703
7330  12048006           [159] move       16  13     
7334  59440B00           [160] loadk      17  45       ; "Strikethrough"
7338  02440408           [161] concat     16  16  17 
733C  59040A00           [162] loadk      17  40       ; "DetailMapTint"
7340  93048000           [163] getupval   18  1      
7344  8E044609           [164] gettable   18  18  280  ; "NegativeColor"
7348  8E444A09           [165] gettable   18  18  297  ; "red"
734C  9C844A09           [166] div        18  18  298  ; 0
7350  D3048000           [167] getupval   19  1      
7354  CE04C609           [168] gettable   19  19  280  ; "NegativeColor"
7358  CEC4CA09           [169] gettable   19  19  299  ; "green"
735C  DC84CA09           [170] div        19  19  298  ; 0
7360  13058000           [171] getupval   20  1      
7364  0E05460A           [172] gettable   20  20  280  ; "NegativeColor"
7368  0E054B0A           [173] gettable   20  20  300  ; "blue"
736C  1C854A0A           [174] div        20  20  298  ; 0
7370  59050100           [175] loadk      21  4        ; 0
7374  A2430004           [176] call       14  8   1  
7378  9D430100           [177] getglobal  14  5        ; mMovie
737C  A4434707           [178] self       14  14  285  ; 471456102
7380  12048006           [179] move       16  13     
7384  59840700           [180] loadk      17  30       ; "_width"
7388  8E444303           [181] gettable   18  6   269  ; 0
738C  A2438002           [182] call       14  5   1  
7390  9D430100           [183] getglobal  14  5        ; mMovie
7394  A4434707           [184] self       14  14  285  ; 471456102
7398  12048006           [185] move       16  13     
739C  59040800           [186] loadk      17  32       ; "_height"
73A0  8E444303           [187] gettable   18  6   269  ; 0
73A4  A2438002           [188] call       14  5   1  
73A8  9480D97F           [189] forloop    2   -153     ; to [37] if loop
73AC  1E008000           [190] return     0   1      
                         * constants:
73B0  30                 sizek (48)
73B1  04                 const type 4
73B2  0A                 string size (10)
73B3  6D436C69704E616D+  "mClipNam"
73BB  6500               "e\0"
                         const [0]: "mClipName"
73BD  00                 const type 0
                         const [1]: nil
73BE  01                 const type 3
73BF  9D5C1AC5           const [2]: (-988128099)
73C3  04                 const type 4
73C4  03                 string size (3)
73C5  496400             "Id\0"
                         const [3]: "Id"
73C8  03                 const type 3
73C9  0000803F           const [4]: (0)
73CD  04                 const type 4
73CE  07                 string size (7)
73CF  6D4D6F76696500     "mMovie\0"
                         const [5]: "mMovie"
73D6  01                 const type 3
73D7  A7960188           const [6]: (-2013161817)
73DB  04                 const type 4
73DC  0C                 string size (12)
73DD  4F726465724E756D+  "OrderNum"
73E5  62657200           "ber\0"
                         const [7]: "OrderNumber"
73E9  04                 const type 4
73EA  05                 string size (5)
73EB  7465787400         "text\0"
                         const [8]: "text"
73F0  04                 const type 4
73F1  07                 string size (7)
73F2  5F616C70686100     "_alpha\0"
                         const [9]: "_alpha"
73F9  03                 const type 3
73FA  0000F041           const [10]: (0)
73FE  04                 const type 4
73FF  0A                 string size (10)
7400  74657874436F6C6F+  "textColo"
7408  7200               "r\0"
                         const [11]: "textColor"
740A  04                 const type 4
740B  10                 string size (16)
740C  466C6F6174696E67+  "Floating"
7414  436F6E74656E7400   "Content\0"
                         const [12]: "FloatingContent"
741C  03                 const type 3
741D  00004040           const [13]: (0)
7421  04                 const type 4
7422  06                 string size (6)
7423  49636F6E7300       "Icons\0"
                         const [14]: "Icons"
7429  04                 const type 4
742A  07                 string size (7)
742B  53746174657300     "States\0"
                         const [15]: "States"
7432  03                 const type 3
7433  0000C842           const [16]: (0)
7437  04                 const type 4
7438  03                 string size (3)
7439  5F4700             "_G\0"
                         const [17]: "_G"
743C  04                 const type 4
743D  0E                 string size (14)
743E  5549436F6C6F725F+  "UIColor_"
7446  576869746500       "White\0"
                         const [18]: "UIColor_White"
744C  04                 const type 4
744D  11                 string size (17)
744E  4261636B67726F75+  "Backgrou"
7456  6E6431436F6C6F72+  "nd1Color"
745E  00                 "\0"
                         const [19]: "Background1Color"
745F  03                 const type 3
7460  0000403F           const [20]: (0)
7464  03                 const type 3
7465  00000000           const [21]: (0)
7469  03                 const type 3
746A  00007042           const [22]: (0)
746E  04                 const type 4
746F  12                 string size (18)
7470  5549436F6C6F725F+  "UIColor_"
7478  5247425F57686974+  "RGB_Whit"
7480  6500               "e\0"
                         const [23]: "UIColor_RGB_White"
7482  04                 const type 4
7483  0E                 string size (14)
7484  4E65676174697665+  "Negative"
748C  436F6C6F7200       "Color\0"
                         const [24]: "NegativeColor"
7492  03                 const type 3
7493  00000040           const [25]: (0)
7497  04                 const type 4
7498  15                 string size (21)
7499  466C6F6174696E67+  "Floating"
74A1  436F6E74656E7443+  "ContentC"
74A9  6F6C6F7200         "olor\0"
                         const [26]: "FloatingContentColor"
74AE  04                 const type 4
74AF  08                 string size (8)
74B0  2E53796D626F6C00   ".Symbol\0"
                         const [27]: ".Symbol"
74B8  01                 const type 3
74B9  BCD6AE9F           const [28]: (-1615931716)
74BD  01                 const type 3
74BE  66D9191C           const [29]: (471456102)
74C2  04                 const type 4
74C3  07                 string size (7)
74C4  5F776964746800     "_width\0"
                         const [30]: "_width"
74CB  03                 const type 3
74CC  00009642           const [31]: (0)
74D0  04                 const type 4
74D1  08                 string size (8)
74D2  5F68656967687400   "_height\0"
                         const [32]: "_height"
74DA  01                 const type 3
74DB  E7A54344           const [33]: (1145284071)
74DF  04                 const type 4
74E0  18                 string size (24)
74E1  6D6F6449636F6E56+  "modIconV"
74E9  697352616E67654D+  "isRangeM"
74F1  6174657269616C00   "aterial\0"
                         const [34]: "modIconVisRangeMaterial"
74F9  01                 const type 3
74FA  1FBC53E9           const [35]: (-380388321)
74FE  01                 const type 3
74FF  1A4B27EC           const [36]: (-332969190)
7503  04                 const type 4
7504  0A                 string size (10)
7505  44657461696C4D61+  "DetailMa"
750D  7000               "p\0"
                         const [37]: "DetailMap"
750F  04                 const type 4
7510  07                 string size (7)
7511  5F636F6C6F7200     "_color\0"
                         const [38]: "_color"
7518  01                 const type 3
7519  2FAB2A30           const [39]: (808102703)
751D  04                 const type 4
751E  0E                 string size (14)
751F  44657461696C4D61+  "DetailMa"
7527  7054696E7400       "pTint\0"
                         const [40]: "DetailMapTint"
752D  04                 const type 4
752E  04                 string size (4)
752F  72656400           "red\0"
                         const [41]: "red"
7533  03                 const type 3
7534  00007F43           const [42]: (0)
7538  04                 const type 4
7539  06                 string size (6)
753A  677265656E00       "green\0"
                         const [43]: "green"
7540  04                 const type 4
7541  05                 string size (5)
7542  626C756500         "blue\0"
                         const [44]: "blue"
7547  04                 const type 4
7548  0E                 string size (14)
7549  537472696B657468+  "Striketh"
7551  726F75676800       "rough\0"
                         const [45]: "Strikethrough"
7557  04                 const type 4
7558  09                 string size (9)
7559  5F76697369626C65+  "_visible"
7561  00                 "\0"
                         const [46]: "_visible"
7562  04                 const type 4
7563  13                 string size (19)
7564  737472696B655468+  "strikeTh"
756C  726F75676849636F+  "roughIco"
7574  6E7300             "ns\0"
                         const [47]: "strikeThroughIcons"
                         * functions:
7577  00                 sizep (0)
                         * lines:
7579  01                 sizelineinfo (190)
                         [pc] (line)
757A  9A                 [001] (-102)
757B  03                 [002] (-102)
757C  00                 [003] (-102)
757D  00                 [004] (-101)
757E  9A                 [005] (-99)
757F  03                 [006] (-99)
7580  00                 [007] (-99)
7581  00                 [008] (-99)
7582  9A                 [009] (-99)
7583  03                 [010] (-99)
7584  00                 [011] (-98)
7585  00                 [012] (-98)
7586  9B                 [013] (-98)
7587  03                 [014] (-98)
7588  00                 [015] (-98)
7589  00                 [016] (-98)
758A  9D                 [017] (-98)
758B  03                 [018] (-97)
758C  00                 [019] (-97)
758D  00                 [020] (-97)
758E  9D                 [021] (-97)
758F  03                 [022] (-97)
7590  00                 [023] (-97)
7591  00                 [024] (-97)
7592  9D                 [025] (-96)
7593  03                 [026] (-96)
7594  00                 [027] (-96)
7595  00                 [028] (-96)
7596  9D                 [029] (-96)
7597  03                 [030] (-96)
7598  00                 [031] (-96)
7599  00                 [032] (-96)
759A  9D                 [033] (-95)
759B  03                 [034] (-95)
759C  00                 [035] (-95)
759D  00                 [036] (-95)
759E  9D                 [037] (-94)
759F  03                 [038] (-94)
75A0  00                 [039] (-93)
75A1  00                 [040] (-93)
75A2  9E                 [041] (-92)
75A3  03                 [042] (-91)
75A4  00                 [043] (-91)
75A5  00                 [044] (-90)
75A6  9E                 [045] (-90)
75A7  03                 [046] (-89)
75A8  00                 [047] (-88)
75A9  00                 [048] (-87)
75AA  9E                 [049] (-87)
75AB  03                 [050] (-86)
75AC  00                 [051] (-85)
75AD  00                 [052] (-84)
75AE  9E                 [053] (-84)
75AF  03                 [054] (-84)
75B0  00                 [055] (-83)
75B1  00                 [056] (-83)
75B2  9E                 [057] (-82)
75B3  03                 [058] (-82)
75B4  00                 [059] (-81)
75B5  00                 [060] (-81)
75B6  9E                 [061] (-80)
75B7  03                 [062] (-80)
75B8  00                 [063] (-79)
75B9  00                 [064] (-79)
75BA  9E                 [065] (-76)
75BB  03                 [066] (-76)
75BC  00                 [067] (-76)
75BD  00                 [068] (-76)
75BE  9F                 [069] (-76)
75BF  03                 [070] (-76)
75C0  00                 [071] (-75)
75C1  00                 [072] (-75)
75C2  9F                 [073] (-75)
75C3  03                 [074] (-75)
75C4  00                 [075] (-75)
75C5  00                 [076] (-75)
75C6  9F                 [077] (-74)
75C7  03                 [078] (-74)
75C8  00                 [079] (-74)
75C9  00                 [080] (-74)
75CA  9F                 [081] (-74)
75CB  03                 [082] (-74)
75CC  00                 [083] (-73)
75CD  00                 [084] (-73)
75CE  9F                 [085] (-73)
75CF  03                 [086] (-73)
75D0  00                 [087] (-73)
75D1  00                 [088] (-73)
75D2  9F                 [089] (-72)
75D3  03                 [090] (-72)
75D4  00                 [091] (-72)
75D5  00                 [092] (-72)
75D6  9F                 [093] (-72)
75D7  03                 [094] (-72)
75D8  00                 [095] (-71)
75D9  00                 [096] (-71)
75DA  A0                 [097] (-71)
75DB  03                 [098] (-71)
75DC  00                 [099] (-71)
75DD  00                 [100] (-71)
75DE  A0                 [101] (-71)
75DF  03                 [102] (-71)
75E0  00                 [103] (-70)
75E1  00                 [104] (-70)
75E2  A0                 [105] (-70)
75E3  03                 [106] (-70)
75E4  00                 [107] (-70)
75E5  00                 [108] (-70)
75E6  A0                 [109] (-69)
75E7  03                 [110] (-69)
75E8  00                 [111] (-69)
75E9  00                 [112] (-69)
75EA  A0                 [113] (-69)
75EB  03                 [114] (-69)
75EC  00                 [115] (-69)
75ED  00                 [116] (-69)
75EE  A0                 [117] (-69)
75EF  03                 [118] (-69)
75F0  00                 [119] (-69)
75F1  00                 [120] (-69)
75F2  A0                 [121] (-68)
75F3  03                 [122] (-68)
75F4  00                 [123] (-68)
75F5  00                 [124] (-68)
75F6  A0                 [125] (-68)
75F7  03                 [126] (-68)
75F8  00                 [127] (-68)
75F9  00                 [128] (-68)
75FA  A1                 [129] (-67)
75FB  03                 [130] (-67)
75FC  00                 [131] (-67)
75FD  00                 [132] (-67)
75FE  A1                 [133] (-67)
75FF  03                 [134] (-67)
7600  00                 [135] (-67)
7601  00                 [136] (-67)
7602  A1                 [137] (-67)
7603  03                 [138] (-66)
7604  00                 [139] (-66)
7605  00                 [140] (-66)
7606  A1                 [141] (-66)
7607  03                 [142] (-66)
7608  00                 [143] (-66)
7609  00                 [144] (-66)
760A  A2                 [145] (-66)
760B  03                 [146] (-66)
760C  00                 [147] (-66)
760D  00                 [148] (-66)
760E  A2                 [149] (-65)
760F  03                 [150] (-65)
7610  00                 [151] (-65)
7611  00                 [152] (-65)
7612  A3                 [153] (-65)
7613  03                 [154] (-65)
7614  00                 [155] (-65)
7615  00                 [156] (-65)
7616  A3                 [157] (-64)
7617  03                 [158] (-64)
7618  00                 [159] (-64)
7619  00                 [160] (-64)
761A  A4                 [161] (-64)
761B  03                 [162] (-64)
761C  00                 [163] (-64)
761D  00                 [164] (-64)
761E  A5                 [165] (-64)
761F  03                 [166] (-64)
7620  00                 [167] (-64)
7621  00                 [168] (-64)
7622  A5                 [169] (-64)
7623  03                 [170] (-64)
7624  00                 [171] (-64)
7625  00                 [172] (-64)
7626  A6                 [173] (-64)
7627  03                 [174] (-64)
7628  00                 [175] (-64)
7629  00                 [176] (-64)
762A  A6                 [177] (-63)
762B  03                 [178] (-63)
762C  00                 [179] (-63)
762D  00                 [180] (-63)
762E  A7                 [181] (-63)
762F  03                 [182] (-63)
7630  00                 [183] (-62)
7631  00                 [184] (-62)
7632  A8                 [185] (-62)
7633  03                 [186] (-62)
7634  00                 [187] (-62)
7635  00                 [188] (-62)
7636  A9                 [189] (-95)
7637  03                 [190] (-60)
                         * locals:
7872  00                 sizelocvars (0)
                         * upvalues:
7873  00                 sizeupvalues (0)
                         ** end of function **

                         * lines:
7874  45                 sizelineinfo (69)
                         [pc] (line)
7875  92                 [01] (-110)
7876  03                 [02] (-110)
7877  00                 [03] (-110)
7878  00                 [04] (-109)
7879  92                 [05] (-109)
787A  03                 [06] (-109)
787B  00                 [07] (-109)
787C  00                 [08] (-109)
787D  92                 [09] (-109)
787E  03                 [10] (-109)
787F  00                 [11] (-109)
7880  00                 [12] (-108)
7881  93                 [13] (-108)
7882  03                 [14] (-107)
7883  00                 [15] (-107)
7884  00                 [16] (-106)
7885  93                 [17] (-106)
7886  03                 [18] (-106)
7887  00                 [19] (-106)
7888  00                 [20] (-106)
7889  93                 [21] (-105)
788A  03                 [22] (-105)
788B  00                 [23] (-105)
788C  00                 [24] (-104)
788D  93                 [25] (-60)
788E  03                 [26] (-60)
788F  00                 [27] (-60)
7890  00                 [28] (-60)
7891  93                 [29] (-58)
7892  03                 [30] (-58)
7893  00                 [31] (-58)
7894  00                 [32] (-58)
7895  93                 [33] (-58)
7896  03                 [34] (-58)
7897  00                 [35] (-58)
7898  00                 [36] (-57)
7899  93                 [37] (-57)
789A  03                 [38] (-57)
789B  00                 [39] (-57)
789C  00                 [40] (-57)
789D  93                 [41] (-57)
789E  03                 [42] (-56)
789F  00                 [43] (-56)
78A0  00                 [44] (-56)
78A1  94                 [45] (-56)
78A2  03                 [46] (-55)
78A3  00                 [47] (-55)
78A4  00                 [48] (-55)
78A5  94                 [49] (-55)
78A6  03                 [50] (-55)
78A7  00                 [51] (-55)
78A8  00                 [52] (-55)
78A9  95                 [53] (-54)
78AA  03                 [54] (-54)
78AB  00                 [55] (-54)
78AC  00                 [56] (-54)
78AD  95                 [57] (-54)
78AE  03                 [58] (-54)
78AF  00                 [59] (-54)
78B0  00                 [60] (-53)
78B1  96                 [61] (-53)
78B2  03                 [62] (-53)
78B3  00                 [63] (-53)
78B4  00                 [64] (-53)
78B5  96                 [65] (-53)
78B6  03                 [66] (-53)
78B7  00                 [67] (-51)
78B8  00                 [68] (-51)
78B9  96                 [69] (-50)
                         * locals:
7989  00                 sizelocvars (0)
                         * upvalues:
798A  00                 sizeupvalues (0)
                         ** end of function **

                         
798B                     ** function [42] definition (level 2)
                         ** start of function **
798B  00                 string size (0)
                         source name: (none)
798D  07                 line defined (976)
798E  F4                 last line defined (1012)
798F  07                 nups (3)
7990  03                 numparams (0)
7991  00                 is_vararg (0)
7992  00                 maxstacksize (25)
                         * code:
7994  7A                 sizecode (122)
7995  13000000           [001] getupval   0   0      
7999  0E004000           [002] gettable   0   0   256  ; -124143215
799D  22808000           [003] call       0   1   2  
79A1  4A000000           [004] len        1   0      
fail op	21
79A5  55408080           [005] concat     1   257 1  
79A9  1A000080           [006] jmp        1            ; to [8]
79AD  57400000           [007] loadbool   1   0   1    ; false, to [9]
79B1  57008000           [008] loadbool   1   1   0    ; true
79B5  9D800000           [009] getglobal  2   2        ; mMovie
79B9  A4C04001           [010] self       2   2   259  ; 471456102
79BD  19010100           [011] loadk      4   4        ; "CurrentCombination"
79C1  59410100           [012] loadk      5   5        ; "_visible"
79C5  92018000           [013] move       6   1      
79C9  A2408002           [014] call       2   5   1  
79CD  58000000           [015] test       1       0    ; to [17] if true
79D1  1A001A80           [016] jmp        105          ; to [122]
79D5  99800100           [017] loadk      2   6        ; 0
79D9  D9C00100           [018] loadk      3   7        ; 0
79DD  19810100           [019] loadk      4   6        ; 0
79E1  90C01880           [020] forprep    2   100      ; to [121]
79E5  8E410100           [021] gettable   6   0   5  
79E9  DD010200           [022] getglobal  7   8        ; 1074689893
79ED  12020003           [023] move       8   6      
79F1  E2810001           [024] call       7   2   2  
79F5  D8410000           [025] test       7       1    ; to [27] if false
79F9  1AC00080           [026] jmp        4            ; to [31]
79FD  D3018000           [027] getupval   7   1      
7A01  CE41C203           [028] gettable   7   7   265  ; "immortalModType"
fail op	35
7A05  23C00103           [029] close      0  
7A09  1A000080           [030] jmp        1            ; to [32]
7A0D  D7410000           [031] loadbool   7   0   1    ; false, to [33]
7A11  D7018000           [032] loadbool   7   1   0    ; true
7A15  1D820200           [033] getglobal  8   10       ; emptyIcons
7A19  0E824104           [034] gettable   8   8   262  ; 0
7A1D  5D820200           [035] getglobal  9   10       ; emptyIcons
7A21  4EC2C204           [036] gettable   9   9   267  ; 0
7A25  93020001           [037] getupval   10  2      
7A29  8E024305           [038] gettable   10  10  268  ; "Content"
7A2D  D3020001           [039] getupval   11  2      
7A31  CE42C305           [040] gettable   11  11  269  ; "Background1Color"
7A35  19830300           [041] loadk      12  14       ; 0
7A39  59C30300           [042] loadk      13  15       ; 0
7A3D  99030400           [043] loadk      14  16       ; 0
7A41  D8010000           [044] test       7       0    ; to [46] if true
7A45  1A800380           [045] jmp        15           ; to [61]
7A49  DD430400           [046] getglobal  15  17       ; Lotus_Game
7A4D  CE83C407           [047] gettable   15  15  274  ; -1445633957
7A51  E2838000           [048] call       15  1   2  
7A55  CC838189           [049] settable   15  275 6    ; "mItemType"
7A59  0E04C507           [050] gettable   16  15  276  ; "mInstance"
7A5D  24444508           [051] self       16  16  277  ; -240553170
7A61  22840001           [052] call       16  2   2  
7A65  12020008           [053] move       8   16     
7A69  1D840500           [054] getglobal  16  22       ; 2083004503
7A6D  4E04C507           [055] gettable   17  15  276  ; "mInstance"
7A71  64C4C508           [056] self       17  17  279  ; 1043469869
7A75  62040001           [057] call       17  2   0  
7A79  22840000           [058] call       16  0   2  
7A7D  52020008           [059] move       9   16     
7A81  1A000180           [060] jmp        5            ; to [66]
7A85  13040001           [061] getupval   16  2      
7A89  CE024608           [062] gettable   11  16  280  ; "ContentColor"
7A8D  19430000           [063] loadk      12  1        ; 0
7A91  59430600           [064] loadk      13  25       ; 0
7A95  99830600           [065] loadk      14  26       ; 0
7A99  19C40600           [066] loadk      16  27       ; "CurrentCombination.Symbol"
7A9D  5D040700           [067] getglobal  17  28       ; -1615931716
7AA1  92048002           [068] move       18  5      
7AA5  62840001           [069] call       17  2   2  
7AA9  02440408           [070] concat     16  16  17 
7AAD  5D840000           [071] getglobal  17  2        ; mMovie
7AB1  64C4C008           [072] self       17  17  259  ; 471456102
7AB5  D2040008           [073] move       19  16     
7AB9  19450700           [074] loadk      20  29       ; "_alpha"
7ABD  52058006           [075] move       21  13     
7AC1  62448002           [076] call       17  5   1  
7AC5  5D840000           [077] getglobal  17  2        ; mMovie
7AC9  6484C708           [078] self       17  17  286  ; 1145284071
7ACD  D2040008           [079] move       19  16     
7AD1  12050004           [080] move       20  8      
7AD5  5DC50700           [081] getglobal  21  31       ; modIconMaterial
7AD9  62448002           [082] call       17  5   1  
7ADD  5D840000           [083] getglobal  17  2        ; mMovie
7AE1  6404C808           [084] self       17  17  288  ; -380388321
7AE5  D2040008           [085] move       19  16     
7AE9  1D450800           [086] getglobal  20  33       ; -332969190
7AED  59850800           [087] loadk      21  34       ; "DetailMap"
7AF1  22850001           [088] call       20  2   2  
7AF5  52058004           [089] move       21  9      
7AF9  62448002           [090] call       17  5   1  
7AFD  5D840000           [091] getglobal  17  2        ; mMovie
7B01  64C4C008           [092] self       17  17  259  ; 471456102
7B05  D2040008           [093] move       19  16     
7B09  19C50800           [094] loadk      20  35       ; "_color"
7B0D  52050005           [095] move       21  10     
7B11  62448002           [096] call       17  5   1  
7B15  5D840000           [097] getglobal  17  2        ; mMovie
7B19  6404C908           [098] self       17  17  292  ; 808102703
7B1D  D2040008           [099] move       19  16     
7B21  19450900           [100] loadk      20  37       ; "DetailMapTint"
7B25  4E85C905           [101] gettable   21  11  294  ; "red"
7B29  5CC5C90A           [102] div        21  21  295  ; 0
7B2D  8E05CA05           [103] gettable   22  11  296  ; "green"
7B31  9CC5490B           [104] div        22  22  295  ; 0
7B35  CE45CA05           [105] gettable   23  11  297  ; "blue"
7B39  DCC5C90B           [106] div        23  23  295  ; 0
7B3D  12060006           [107] move       24  12     
7B41  62440004           [108] call       17  8   1  
7B45  5D840000           [109] getglobal  17  2        ; mMovie
7B49  64C4C008           [110] self       17  17  259  ; 471456102
7B4D  D2040008           [111] move       19  16     
7B51  19850A00           [112] loadk      20  42       ; "_width"
7B55  52050007           [113] move       21  14     
7B59  62448002           [114] call       17  5   1  
7B5D  5D840000           [115] getglobal  17  2        ; mMovie
7B61  64C4C008           [116] self       17  17  259  ; 471456102
7B65  D2040008           [117] move       19  16     
7B69  19C50A00           [118] loadk      20  43       ; "_height"
7B6D  52050007           [119] move       21  14     
7B71  62448002           [120] call       17  5   1  
7B75  9480E67F           [121] forloop    2   -101     ; to [21] if loop
7B79  1E008000           [122] return     0   1      
                         * constants:
7B7D  2C                 sizek (44)
7B7E  01                 const type 3
7B7F  91B999F8           const [0]: (-124143215)
7B83  03                 const type 3
7B84  00000000           const [1]: (0)
7B88  04                 const type 4
7B89  07                 string size (7)
7B8A  6D4D6F76696500     "mMovie\0"
                         const [2]: "mMovie"
7B91  01                 const type 3
7B92  66D9191C           const [3]: (471456102)
7B96  04                 const type 4
7B97  13                 string size (19)
7B98  43757272656E7443+  "CurrentC"
7BA0  6F6D62696E617469+  "ombinati"
7BA8  6F6E00             "on\0"
                         const [4]: "CurrentCombination"
7BAB  04                 const type 4
7BAC  09                 string size (9)
7BAD  5F76697369626C65+  "_visible"
7BB5  00                 "\0"
                         const [5]: "_visible"
7BB6  03                 const type 3
7BB7  0000803F           const [6]: (0)
7BBB  03                 const type 3
7BBC  00004040           const [7]: (0)
7BC0  01                 const type 3
7BC1  65770E40           const [8]: (1074689893)
7BC5  04                 const type 4
7BC6  10                 string size (16)
7BC7  696D6D6F7274616C+  "immortal"
7BCF  4D6F645479706500   "ModType\0"
                         const [9]: "immortalModType"
7BD7  04                 const type 4
7BD8  0B                 string size (11)
7BD9  656D70747949636F+  "emptyIco"
7BE1  6E7300             "ns\0"
                         const [10]: "emptyIcons"
7BE4  03                 const type 3
7BE5  00000040           const [11]: (0)
7BE9  04                 const type 4
7BEA  08                 string size (8)
7BEB  436F6E74656E7400   "Content\0"
                         const [12]: "Content"
7BF3  04                 const type 4
7BF4  11                 string size (17)
7BF5  4261636B67726F75+  "Backgrou"
7BFD  6E6431436F6C6F72+  "nd1Color"
7C05  00                 "\0"
                         const [13]: "Background1Color"
7C06  03                 const type 3
7C07  0000403F           const [14]: (0)
7C0B  03                 const type 3
7C0C  0000C842           const [15]: (0)
7C10  03                 const type 3
7C11  0000B442           const [16]: (0)
7C15  04                 const type 4
7C16  0B                 string size (11)
7C17  4C6F7475735F4761+  "Lotus_Ga"
7C1F  6D6500             "me\0"
                         const [17]: "Lotus_Game"
7C22  01                 const type 3
7C23  5B60D5A9           const [18]: (-1445633957)
7C27  04                 const type 4
7C28  0A                 string size (10)
7C29  6D4974656D547970+  "mItemTyp"
7C31  6500               "e\0"
                         const [19]: "mItemType"
7C33  04                 const type 4
7C34  0A                 string size (10)
7C35  6D496E7374616E63+  "mInstanc"
7C3D  6500               "e\0"
                         const [20]: "mInstance"
7C3F  01                 const type 3
7C40  2E73A9F1           const [21]: (-240553170)
7C44  01                 const type 3
7C45  5720287C           const [22]: (2083004503)
7C49  01                 const type 3
7C4A  2D16323E           const [23]: (1043469869)
7C4E  04                 const type 4
7C4F  0D                 string size (13)
7C50  436F6E74656E7443+  "ContentC"
7C58  6F6C6F7200         "olor\0"
                         const [24]: "ContentColor"
7C5D  03                 const type 3
7C5E  00009642           const [25]: (0)
7C62  03                 const type 3
7C63  00003442           const [26]: (0)
7C67  04                 const type 4
7C68  1A                 string size (26)
7C69  43757272656E7443+  "CurrentC"
7C71  6F6D62696E617469+  "ombinati"
7C79  6F6E2E53796D626F+  "on.Symbo"
7C81  6C00               "l\0"
                         const [27]: "CurrentCombination.Symbol"
7C83  01                 const type 3
7C84  BCD6AE9F           const [28]: (-1615931716)
7C88  04                 const type 4
7C89  07                 string size (7)
7C8A  5F616C70686100     "_alpha\0"
                         const [29]: "_alpha"
7C91  01                 const type 3
7C92  E7A54344           const [30]: (1145284071)
7C96  04                 const type 4
7C97  10                 string size (16)
7C98  6D6F6449636F6E4D+  "modIconM"
7CA0  6174657269616C00   "aterial\0"
                         const [31]: "modIconMaterial"
7CA8  01                 const type 3
7CA9  1FBC53E9           const [32]: (-380388321)
7CAD  01                 const type 3
7CAE  1A4B27EC           const [33]: (-332969190)
7CB2  04                 const type 4
7CB3  0A                 string size (10)
7CB4  44657461696C4D61+  "DetailMa"
7CBC  7000               "p\0"
                         const [34]: "DetailMap"
7CBE  04                 const type 4
7CBF  07                 string size (7)
7CC0  5F636F6C6F7200     "_color\0"
                         const [35]: "_color"
7CC7  01                 const type 3
7CC8  2FAB2A30           const [36]: (808102703)
7CCC  04                 const type 4
7CCD  0E                 string size (14)
7CCE  44657461696C4D61+  "DetailMa"
7CD6  7054696E7400       "pTint\0"
                         const [37]: "DetailMapTint"
7CDC  04                 const type 4
7CDD  04                 string size (4)
7CDE  72656400           "red\0"
                         const [38]: "red"
7CE2  03                 const type 3
7CE3  00007F43           const [39]: (0)
7CE7  04                 const type 4
7CE8  06                 string size (6)
7CE9  677265656E00       "green\0"
                         const [40]: "green"
7CEF  04                 const type 4
7CF0  05                 string size (5)
7CF1  626C756500         "blue\0"
                         const [41]: "blue"
7CF6  04                 const type 4
7CF7  07                 string size (7)
7CF8  5F776964746800     "_width\0"
                         const [42]: "_width"
7CFF  04                 const type 4
7D00  08                 string size (8)
7D01  5F68656967687400   "_height\0"
                         const [43]: "_height"
                         * functions:
7D09  00                 sizep (0)
                         * lines:
7D0A  7A                 sizelineinfo (122)
                         [pc] (line)
7D0B  D1                 [001] (-47)
7D0C  03                 [002] (-47)
7D0D  00                 [003] (-47)
7D0E  00                 [004] (-46)
7D0F  D1                 [005] (-46)
7D10  03                 [006] (-46)
7D11  00                 [007] (-46)
7D12  00                 [008] (-46)
7D13  D1                 [009] (-45)
7D14  03                 [010] (-45)
7D15  00                 [011] (-45)
7D16  00                 [012] (-45)
7D17  D2                 [013] (-45)
7D18  03                 [014] (-45)
7D19  00                 [015] (-44)
7D1A  00                 [016] (-44)
7D1B  D2                 [017] (-43)
7D1C  03                 [018] (-43)
7D1D  00                 [019] (-43)
7D1E  00                 [020] (-43)
7D1F  D2                 [021] (-42)
7D20  03                 [022] (-41)
7D21  00                 [023] (-41)
7D22  00                 [024] (-41)
7D23  D2                 [025] (-41)
7D24  03                 [026] (-41)
7D25  00                 [027] (-41)
7D26  00                 [028] (-41)
7D27  D2                 [029] (-41)
7D28  03                 [030] (-41)
7D29  00                 [031] (-41)
7D2A  00                 [032] (-41)
7D2B  D3                 [033] (-40)
7D2C  03                 [034] (-40)
7D2D  00                 [035] (-39)
7D2E  00                 [036] (-39)
7D2F  D3                 [037] (-38)
7D30  03                 [038] (-38)
7D31  00                 [039] (-37)
7D32  00                 [040] (-37)
7D33  D3                 [041] (-36)
7D34  03                 [042] (-35)
7D35  00                 [043] (-34)
7D36  00                 [044] (-33)
7D37  D3                 [045] (-33)
7D38  03                 [046] (-32)
7D39  00                 [047] (-32)
7D3A  00                 [048] (-32)
7D3B  D3                 [049] (-31)
7D3C  03                 [050] (-30)
7D3D  00                 [051] (-30)
7D3E  00                 [052] (-30)
7D3F  D3                 [053] (-30)
7D40  03                 [054] (-29)
7D41  00                 [055] (-29)
7D42  00                 [056] (-29)
7D43  D4                 [057] (-29)
7D44  03                 [058] (-29)
7D45  00                 [059] (-29)
7D46  00                 [060] (-29)
7D47  D4                 [061] (-27)
7D48  03                 [062] (-27)
7D49  00                 [063] (-26)
7D4A  00                 [064] (-25)
7D4B  D5                 [065] (-24)
7D4C  03                 [066] (-22)
7D4D  00                 [067] (-22)
7D4E  00                 [068] (-22)
7D4F  D5                 [069] (-22)
7D50  03                 [070] (-22)
7D51  00                 [071] (-21)
7D52  00                 [072] (-21)
7D53  D5                 [073] (-21)
7D54  03                 [074] (-21)
7D55  00                 [075] (-21)
7D56  00                 [076] (-21)
7D57  D5                 [077] (-20)
7D58  03                 [078] (-20)
7D59  00                 [079] (-20)
7D5A  00                 [080] (-20)
7D5B  D6                 [081] (-20)
7D5C  03                 [082] (-20)
7D5D  00                 [083] (-19)
7D5E  00                 [084] (-19)
7D5F  D7                 [085] (-19)
7D60  03                 [086] (-19)
7D61  00                 [087] (-19)
7D62  00                 [088] (-19)
7D63  D7                 [089] (-19)
7D64  03                 [090] (-19)
7D65  00                 [091] (-18)
7D66  00                 [092] (-18)
7D67  D7                 [093] (-18)
7D68  03                 [094] (-18)
7D69  00                 [095] (-18)
7D6A  00                 [096] (-18)
7D6B  D7                 [097] (-17)
7D6C  03                 [098] (-17)
7D6D  00                 [099] (-17)
7D6E  00                 [100] (-17)
7D6F  D7                 [101] (-17)
7D70  03                 [102] (-17)
7D71  00                 [103] (-17)
7D72  00                 [104] (-17)
7D73  D7                 [105] (-17)
7D74  03                 [106] (-17)
7D75  00                 [107] (-17)
7D76  00                 [108] (-17)
7D77  D7                 [109] (-16)
7D78  03                 [110] (-16)
7D79  00                 [111] (-16)
7D7A  00                 [112] (-16)
7D7B  D7                 [113] (-16)
7D7C  03                 [114] (-16)
7D7D  00                 [115] (-15)
7D7E  00                 [116] (-15)
7D7F  D7                 [117] (-15)
7D80  03                 [118] (-15)
7D81  00                 [119] (-15)
7D82  00                 [120] (-15)
7D83  D7                 [121] (-43)
7D84  03                 [122] (-12)
                         * locals:
7EF3  00                 sizelocvars (0)
                         * upvalues:
7EF4  00                 sizeupvalues (0)
                         ** end of function **

                         
7EF5                     ** function [43] definition (level 2)
                         ** start of function **
7EF5  00                 string size (0)
                         source name: (none)
7EF7  07                 line defined (1014)
7EF8  89                 last line defined (1033)
7EF9  08                 nups (3)
7EFA  03                 numparams (0)
7EFB  00                 is_vararg (0)
7EFC  00                 maxstacksize (14)
                         * code:
7EFE  65                 sizecode (101)
7EFF  19000000           [001] loadk      0   0        ; 0
7F03  59400000           [002] loadk      1   1        ; 0
7F07  99000000           [003] loadk      2   0        ; 0
7F0B  10400A80           [004] forprep    0   42       ; to [47]
7F0F  19810000           [005] loadk      4   2        ; "Hint.Hint"
7F13  5DC10000           [006] getglobal  5   3        ; -1615931716
7F17  92018001           [007] move       6   3      
7F1B  62810001           [008] call       5   2   2  
7F1F  02410102           [009] concat     4   4   5  
7F23  5D010100           [010] getglobal  5   4        ; mMovie
7F27  6441C102           [011] self       5   5   261  ; 471456102
7F2B  D2010002           [012] move       7   4      
7F2F  19820100           [013] loadk      8   6        ; "_color"
7F33  53020000           [014] getupval   9   0      
7F37  4EC2C104           [015] gettable   9   9   263  ; "Content"
7F3B  62418002           [016] call       5   5   1  
7F3F  5D010100           [017] getglobal  5   4        ; mMovie
7F43  6401C202           [018] self       5   5   264  ; 2115970775
7F47  D2010002           [019] move       7   4      
7F4B  19420200           [020] loadk      8   9        ; ".Icon"
7F4F  C2018203           [021] concat     7   7   8  
7F53  1D820200           [022] getglobal  8   10       ; modIconMaterial
7F57  62410002           [023] call       5   4   1  
7F5B  5DC10200           [024] getglobal  5   11       ; -174740002
7F5F  9D010100           [025] getglobal  6   4        ; mMovie
7F63  A4014303           [026] self       6   6   268  ; 1803241227
7F67  12020002           [027] move       8   4      
7F6B  59420300           [028] loadk      9   13       ; "_x"
7F6F  A2010002           [029] call       6   4   0  
7F73  62810000           [030] call       5   0   2  
7F77  9DC10200           [031] getglobal  6   11       ; -174740002
7F7B  DD010100           [032] getglobal  7   4        ; mMovie
7F7F  E401C303           [033] self       7   7   268  ; 1803241227
7F83  52020002           [034] move       9   4      
7F87  99820300           [035] loadk      10  14       ; "_y"
7F8B  E2010002           [036] call       7   4   0  
7F8F  A2810000           [037] call       6   0   2  
7F93  DDC10300           [038] getglobal  7   15       ; table
7F97  CE01C403           [039] gettable   7   7   272  ; -431682403
7F9B  13028000           [040] getupval   8   1      
7F9F  0E424404           [041] gettable   8   8   273  ; "Positions"
7FA3  4B020001           [042] newtable   9   2   0    ; array=2, hash=0
7FA7  92028002           [043] move       10  5      
7FAB  D2020003           [044] move       11  6      
7FAF  5B420001           [045] setlist    9   2   1    ; index 1 to 2
7FB3  E2418001           [046] call       7   3   1  
7FB7  1400F57F           [047] forloop    0   -43      ; to [5] if loop
7FBB  DD810400           [048] getglobal  7   18       ; -764638816
7FBF  1D020100           [049] getglobal  8   4        ; mMovie
7FC3  24C24404           [050] self       8   8   275  ; 98241492
7FC7  99020500           [051] loadk      10  20       ; "/Lotus/Language/Kingpins/NemesisView_HintLabel"
7FCB  D7020000           [052] loadbool   11  0   0    ; false
7FCF  22020002           [053] call       8   4   0  
7FD3  E2810000           [054] call       7   0   2  
7FD7  1D020100           [055] getglobal  8   4        ; mMovie
7FDB  24424104           [056] self       8   8   261  ; 471456102
7FDF  99420500           [057] loadk      10  21       ; "Hint.Label"
7FE3  D9820500           [058] loadk      11  22       ; "text"
7FE7  12038003           [059] move       12  7      
7FEB  22428002           [060] call       8   5   1  
7FEF  1D020100           [061] getglobal  8   4        ; mMovie
7FF3  24424104           [062] self       8   8   261  ; 471456102
7FF7  99420500           [063] loadk      10  21       ; "Hint.Label"
7FFB  D9C20500           [064] loadk      11  23       ; "textColor"
7FFF  13030000           [065] getupval   12  0      
8003  0E034606           [066] gettable   12  12  280  ; "FloatingContent"
8007  22428002           [067] call       8   5   1  
800B  1DC20200           [068] getglobal  8   11       ; -174740002
800F  5D020100           [069] getglobal  9   4        ; mMovie
8013  6402C304           [070] self       9   9   268  ; 1803241227
8017  D9420500           [071] loadk      11  21       ; "Hint.Label"
801B  19430600           [072] loadk      12  25       ; "textWidth"
801F  62020002           [073] call       9   4   0  
8023  22820000           [074] call       8   0   2  
8027  53020001           [075] getupval   9   2      
802B  4E82C604           [076] gettable   9   9   282  ; 210856140
802F  9D020100           [077] getglobal  10  4        ; mMovie
8033  D9C20600           [078] loadk      11  27       ; "Hint.Underline"
8037  03034704           [079] add        12  8   284  ; 0
803B  62420002           [080] call       9   4   1  
803F  5D020100           [081] getglobal  9   4        ; mMovie
8043  6442C104           [082] self       9   9   261  ; 471456102
8047  D9C20600           [083] loadk      11  27       ; "Hint.Underline"
804B  19830100           [084] loadk      12  6        ; "_color"
804F  53030000           [085] getupval   13  0      
8053  4E03C606           [086] gettable   13  13  280  ; "FloatingContent"
8057  62428002           [087] call       9   5   1  
805B  5D020100           [088] getglobal  9   4        ; mMovie
805F  6442C104           [089] self       9   9   261  ; 471456102
8063  D9C20600           [090] loadk      11  27       ; "Hint.Underline"
8067  19430300           [091] loadk      12  13       ; "_x"
806B  5C434704           [092] div        13  8   285  ; 0
fail op	0
806F  40038006           [093] move       13  13     
8073  62428002           [094] call       9   5   1  
8077  5D020100           [095] getglobal  9   4        ; mMovie
807B  6442C104           [096] self       9   9   261  ; 471456102
807F  D9820000           [097] loadk      11  2        ; "Hint.Hint"
8083  19830700           [098] loadk      12  30       ; "_visible"
8087  57030000           [099] loadbool   13  0   0    ; false
808B  62428002           [100] call       9   5   1  
808F  1E008000           [101] return     0   1      
                         * constants:
8093  1F                 sizek (31)
8094  03                 const type 3
8095  0000803F           const [0]: (0)
8099  03                 const type 3
809A  00004040           const [1]: (0)
809E  04                 const type 4
809F  0A                 string size (10)
80A0  48696E742E48696E+  "Hint.Hin"
80A8  7400               "t\0"
                         const [2]: "Hint.Hint"
80AA  01                 const type 3
80AB  BCD6AE9F           const [3]: (-1615931716)
80AF  04                 const type 4
80B0  07                 string size (7)
80B1  6D4D6F76696500     "mMovie\0"
                         const [4]: "mMovie"
80B8  01                 const type 3
80B9  66D9191C           const [5]: (471456102)
80BD  04                 const type 4
80BE  07                 string size (7)
80BF  5F636F6C6F7200     "_color\0"
                         const [6]: "_color"
80C6  04                 const type 4
80C7  08                 string size (8)
80C8  436F6E74656E7400   "Content\0"
                         const [7]: "Content"
80D0  01                 const type 3
80D1  D7261F7E           const [8]: (2115970775)
80D5  04                 const type 4
80D6  06                 string size (6)
80D7  2E49636F6E00       ".Icon\0"
                         const [9]: ".Icon"
80DD  04                 const type 4
80DE  10                 string size (16)
80DF  6D6F6449636F6E4D+  "modIconM"
80E7  6174657269616C00   "aterial\0"
                         const [10]: "modIconMaterial"
80EF  01                 const type 3
80F0  DEAD95F5           const [11]: (-174740002)
80F4  01                 const type 3
80F5  0B477B6B           const [12]: (1803241227)
80F9  04                 const type 4
80FA  03                 string size (3)
80FB  5F7800             "_x\0"
                         const [13]: "_x"
80FE  04                 const type 4
80FF  03                 string size (3)
8100  5F7900             "_y\0"
                         const [14]: "_y"
8103  04                 const type 4
8104  06                 string size (6)
8105  7461626C6500       "table\0"
                         const [15]: "table"
810B  01                 const type 3
810C  9D0C45E6           const [16]: (-431682403)
8110  04                 const type 4
8111  0A                 string size (10)
8112  506F736974696F6E+  "Position"
811A  7300               "s\0"
                         const [17]: "Positions"
811C  01                 const type 3
811D  A0896CD2           const [18]: (-764638816)
8121  01                 const type 3
8122  D40BDB05           const [19]: (98241492)
8126  04                 const type 4
8127  2F                 string size (47)
8128  2F4C6F7475732F4C+  "/Lotus/L"
8130  616E67756167652F+  "anguage/"
8138  4B696E6770696E73+  "Kingpins"
8140  2F4E656D65736973+  "/Nemesis"
8148  566965775F48696E+  "View_Hin"
8150  744C6162656C00     "tLabel\0"
                         const [20]: "/Lotus/Language/Kingpins/NemesisView_HintLabel"
8157  04                 const type 4
8158  0B                 string size (11)
8159  48696E742E4C6162+  "Hint.Lab"
8161  656C00             "el\0"
                         const [21]: "Hint.Label"
8164  04                 const type 4
8165  05                 string size (5)
8166  7465787400         "text\0"
                         const [22]: "text"
816B  04                 const type 4
816C  0A                 string size (10)
816D  74657874436F6C6F+  "textColo"
8175  7200               "r\0"
                         const [23]: "textColor"
8177  04                 const type 4
8178  10                 string size (16)
8179  466C6F6174696E67+  "Floating"
8181  436F6E74656E7400   "Content\0"
                         const [24]: "FloatingContent"
8189  04                 const type 4
818A  0A                 string size (10)
818B  7465787457696474+  "textWidt"
8193  6800               "h\0"
                         const [25]: "textWidth"
8195  01                 const type 3
8196  CC68910C           const [26]: (210856140)
819A  04                 const type 4
819B  0F                 string size (15)
819C  48696E742E556E64+  "Hint.Und"
81A4  65726C696E6500     "erline\0"
                         const [27]: "Hint.Underline"
81AB  03                 const type 3
81AC  0000A041           const [28]: (0)
81B0  03                 const type 3
81B1  00000040           const [29]: (0)
81B5  04                 const type 4
81B6  09                 string size (9)
81B7  5F76697369626C65+  "_visible"
81BF  00                 "\0"
                         const [30]: "_visible"
                         * functions:
81C0  00                 sizep (0)
                         * lines:
81C1  65                 sizelineinfo (101)
                         [pc] (line)
81C2  F7                 [001] (-9)
81C3  03                 [002] (-9)
81C4  00                 [003] (-9)
81C5  00                 [004] (-9)
81C6  F7                 [005] (-8)
81C7  03                 [006] (-8)
81C8  00                 [007] (-8)
81C9  00                 [008] (-8)
81CA  F7                 [009] (-8)
81CB  03                 [010] (-7)
81CC  00                 [011] (-7)
81CD  00                 [012] (-7)
81CE  F7                 [013] (-7)
81CF  03                 [014] (-7)
81D0  00                 [015] (-7)
81D1  00                 [016] (-7)
81D2  F8                 [017] (-6)
81D3  03                 [018] (-6)
81D4  00                 [019] (-6)
81D5  00                 [020] (-6)
81D6  F8                 [021] (-6)
81D7  03                 [022] (-6)
81D8  00                 [023] (-6)
81D9  00                 [024] (-4)
81DA  F8                 [025] (-4)
81DB  03                 [026] (-4)
81DC  00                 [027] (-4)
81DD  00                 [028] (-4)
81DE  F8                 [029] (-4)
81DF  03                 [030] (-4)
81E0  00                 [031] (-3)
81E1  00                 [032] (-3)
81E2  F8                 [033] (-3)
81E3  03                 [034] (-3)
81E4  00                 [035] (-3)
81E5  00                 [036] (-3)
81E6  F9                 [037] (-3)
81E7  03                 [038] (-2)
81E8  00                 [039] (-2)
81E9  00                 [040] (-2)
81EA  F9                 [041] (-2)
81EB  03                 [042] (-2)
81EC  00                 [043] (-2)
81ED  00                 [044] (-2)
81EE  F9                 [045] (-2)
81EF  03                 [046] (-2)
81F0  00                 [047] (-9)
81F1  00                 [048] (1)
81F2  F9                 [049] (1)
81F3  03                 [050] (1)
81F4  00                 [051] (1)
81F5  00                 [052] (1)
81F6  F9                 [053] (1)
81F7  03                 [054] (1)
81F8  00                 [055] (2)
81F9  00                 [056] (2)
81FA  F9                 [057] (2)
81FB  03                 [058] (2)
81FC  00                 [059] (2)
81FD  00                 [060] (2)
81FE  F9                 [061] (3)
81FF  03                 [062] (3)
8200  00                 [063] (3)
8201  00                 [064] (3)
8202  FA                 [065] (3)
8203  03                 [066] (3)
8204  00                 [067] (3)
8205  00                 [068] (4)
8206  FA                 [069] (4)
8207  03                 [070] (4)
8208  00                 [071] (4)
8209  00                 [072] (4)
820A  FA                 [073] (4)
820B  03                 [074] (4)
820C  00                 [075] (5)
820D  00                 [076] (5)
820E  FA                 [077] (5)
820F  03                 [078] (5)
8210  00                 [079] (5)
8211  00                 [080] (5)
8212  FA                 [081] (6)
8213  03                 [082] (6)
8214  00                 [083] (6)
8215  00                 [084] (6)
8216  FA                 [085] (6)
8217  03                 [086] (6)
8218  00                 [087] (6)
8219  00                 [088] (7)
821A  FA                 [089] (7)
821B  03                 [090] (7)
821C  00                 [091] (7)
821D  00                 [092] (7)
821E  FC                 [093] (7)
821F  03                 [094] (7)
8220  00                 [095] (8)
8221  00                 [096] (8)
8222  FC                 [097] (8)
8223  03                 [098] (8)
8224  00                 [099] (8)
8225  00                 [100] (8)
8226  FC                 [101] (9)
                         * locals:
8356  00                 sizelocvars (0)
                         * upvalues:
8357  00                 sizeupvalues (0)
                         ** end of function **

                         
8358                     ** function [44] definition (level 2)
                         ** start of function **
8358  00                 string size (0)
                         source name: (none)
835A  08                 line defined (1035)
835B  93                 last line defined (1043)
835C  08                 nups (1)
835D  01                 numparams (0)
835E  00                 is_vararg (0)
835F  00                 maxstacksize (10)
                         * code:
8361  2B                 sizecode (43)
8362  1D000000           [01] getglobal  0   0        ; 1074689893
8366  5D400000           [02] getglobal  1   1        ; gGameData
836A  22800001           [03] call       0   2   2  
836E  18400000           [04] test       0       1    ; to [6] if false
8372  1A000980           [05] jmp        37           ; to [43]
8376  19800000           [06] loadk      0   2        ; 0
837A  5DC00000           [07] getglobal  1   3        ; 1668611480
837E  9D400000           [08] getglobal  2   1        ; gGameData
8382  A4004101           [09] self       2   2   260  ; 389385621
8386  A2800001           [10] call       2   2   2  
838A  8E404101           [11] gettable   2   2   261  ; "mHenchmenKilled"
838E  D3000000           [12] getupval   3   0      
8392  9CC00001           [13] div        2   2   3  
8396  D9800100           [14] loadk      3   6        ; 0
839A  19C10100           [15] loadk      4   7        ; 0
839E  62800002           [16] call       1   4   2  
83A2  9D000200           [17] getglobal  2   8        ; math
83A6  8E404201           [18] gettable   2   2   265  ; -150971781
83AA  DD800200           [19] getglobal  3   10       ; -1828500651
83AE  19C10100           [20] loadk      4   7        ; 0
83B2  59C10200           [21] loadk      5   11       ; 0
83B6  92018000           [22] move       6   1      
83BA  E2800002           [23] call       3   4   2  
83BE  C3C00086           [24] add        3   268 3    ; 0
83C2  A2800001           [25] call       2   2   2  
83C6  DD400300           [26] getglobal  3   13       ; mMovie
83CA  E480C301           [27] self       3   3   270  ; 471456102
83CE  59C10300           [28] loadk      5   15       ; "RageBarContainer.Bar.Label"
83D2  99010400           [29] loadk      6   16       ; "text"
83D6  DD410400           [30] getglobal  7   17       ; -421772368
83DA  19820400           [31] loadk      8   18       ; "/Lotus/Language/Kingpins/LichRage"
83DE  52020001           [32] move       9   2      
83E2  02420204           [33] concat     8   8   9  
83E6  4B020000           [34] newtable   9   0   0    ; array=0, hash=0
83EA  E2018001           [35] call       7   3   0  
83EE  E2400000           [36] call       3   0   1  
83F2  DD400300           [37] getglobal  3   13       ; mMovie
83F6  E480C301           [38] self       3   3   270  ; 471456102
83FA  59C10400           [39] loadk      5   19       ; "RageBarContainer.Bar.Mask"
83FE  99010500           [40] loadk      6   20       ; "_width"
8402  C4018000           [41] mul        7   1   0  
8406  E2408002           [42] call       3   5   1  
840A  1E008000           [43] return     0   1      
                         * constants:
840E  15                 sizek (21)
840F  01                 const type 3
8410  65770E40           const [0]: (1074689893)
8414  04                 const type 4
8415  0A                 string size (10)
8416  6747616D65446174+  "gGameDat"
841E  6100               "a\0"
                         const [1]: "gGameData"
8420  03                 const type 3
8421  00001744           const [2]: (0)
8425  01                 const type 3
8426  98FD7463           const [3]: (1668611480)
842A  01                 const type 3
842B  958D3517           const [4]: (389385621)
842F  04                 const type 4
8430  10                 string size (16)
8431  6D48656E63686D65+  "mHenchme"
8439  6E4B696C6C656400   "nKilled\0"
                         const [5]: "mHenchmenKilled"
8441  03                 const type 3
8442  00000000           const [6]: (0)
8446  03                 const type 3
8447  0000803F           const [7]: (0)
844B  04                 const type 4
844C  05                 string size (5)
844D  6D61746800         "math\0"
                         const [8]: "math"
8452  01                 const type 3
8453  7B5A00F7           const [9]: (-150971781)
8457  01                 const type 3
8458  554B0393           const [10]: (-1828500651)
845C  03                 const type 3
845D  0000A040           const [11]: (0)
8461  03                 const type 3
8462  0000003F           const [12]: (0)
8466  04                 const type 4
8467  07                 string size (7)
8468  6D4D6F76696500     "mMovie\0"
                         const [13]: "mMovie"
846F  01                 const type 3
8470  66D9191C           const [14]: (471456102)
8474  04                 const type 4
8475  1B                 string size (27)
8476  5261676542617243+  "RageBarC"
847E  6F6E7461696E6572+  "ontainer"
8486  2E4261722E4C6162+  ".Bar.Lab"
848E  656C00             "el\0"
                         const [15]: "RageBarContainer.Bar.Label"
8491  04                 const type 4
8492  05                 string size (5)
8493  7465787400         "text\0"
                         const [16]: "text"
8498  01                 const type 3
8499  B043DCE6           const [17]: (-421772368)
849D  04                 const type 4
849E  22                 string size (34)
849F  2F4C6F7475732F4C+  "/Lotus/L"
84A7  616E67756167652F+  "anguage/"
84AF  4B696E6770696E73+  "Kingpins"
84B7  2F4C696368526167+  "/LichRag"
84BF  6500               "e\0"
                         const [18]: "/Lotus/Language/Kingpins/LichRage"
84C1  04                 const type 4
84C2  1A                 string size (26)
84C3  5261676542617243+  "RageBarC"
84CB  6F6E7461696E6572+  "ontainer"
84D3  2E4261722E4D6173+  ".Bar.Mas"
84DB  6B00               "k\0"
                         const [19]: "RageBarContainer.Bar.Mask"
84DD  04                 const type 4
84DE  07                 string size (7)
84DF  5F776964746800     "_width\0"
                         const [20]: "_width"
                         * functions:
84E6  00                 sizep (0)
                         * lines:
84E7  2B                 sizelineinfo (43)
                         [pc] (line)
84E8  0C                 [01] (12)
84E9  04                 [02] (12)
84EA  00                 [03] (12)
84EB  00                 [04] (12)
84EC  0C                 [05] (12)
84ED  04                 [06] (13)
84EE  00                 [07] (14)
84EF  00                 [08] (14)
84F0  0C                 [09] (14)
84F1  04                 [10] (14)
84F2  00                 [11] (14)
84F3  00                 [12] (14)
84F4  0C                 [13] (14)
84F5  04                 [14] (14)
84F6  00                 [15] (14)
84F7  00                 [16] (14)
84F8  0C                 [17] (15)
84F9  04                 [18] (15)
84FA  00                 [19] (15)
84FB  00                 [20] (15)
84FC  0D                 [21] (15)
84FD  04                 [22] (15)
84FE  00                 [23] (15)
84FF  00                 [24] (15)
8500  0E                 [25] (15)
8501  04                 [26] (16)
8502  00                 [27] (16)
8503  00                 [28] (16)
8504  0E                 [29] (16)
8505  04                 [30] (16)
8506  00                 [31] (16)
8507  00                 [32] (16)
8508  0E                 [33] (16)
8509  04                 [34] (16)
850A  00                 [35] (16)
850B  00                 [36] (16)
850C  0E                 [37] (17)
850D  04                 [38] (17)
850E  00                 [39] (17)
850F  00                 [40] (17)
8510  0E                 [41] (17)
8511  04                 [42] (17)
8512  00                 [43] (19)
                         * locals:
8594  00                 sizelocvars (0)
                         * upvalues:
8595  00                 sizeupvalues (0)
                         ** end of function **

                         
8596                     ** function [45] definition (level 2)
                         ** start of function **
8596  00                 string size (0)
                         source name: (none)
8598  08                 line defined (1045)
8599  C0                 last line defined (1216)
859A  09                 nups (27)
859B  1B                 numparams (0)
859C  00                 is_vararg (0)
859D  00                 maxstacksize (12)
                         * code:
85A0  04                 sizecode (618)
85A1  0B400300           [001] newtable   0   0   13   ; array=0, hash=13
85A5  53008000           [002] getupval   1   1      
85A9  4E40C000           [003] gettable   1   1   257  ; -576482948
85AD  9D800000           [004] getglobal  2   2        ; Lotus_Game
85B1  8EC04001           [005] gettable   2   2   259  ; "UIStyle_FloatingContent"
85B5  D7008000           [006] loadbool   3   1   0    ; true
85B9  62808001           [007] call       1   3   2  
85BD  0C400080           [008] settable   0   256 1    ; "FloatingContent"
85C1  53008000           [009] getupval   1   1      
85C5  4E40C000           [010] gettable   1   1   257  ; -576482948
85C9  9D800000           [011] getglobal  2   2        ; Lotus_Game
85CD  8EC04001           [012] gettable   2   2   259  ; "UIStyle_FloatingContent"
85D1  62800001           [013] call       1   2   2  
85D5  0C400082           [014] settable   0   260 1    ; "FloatingContentColor"
85D9  53008000           [015] getupval   1   1      
85DD  4E40C000           [016] gettable   1   1   257  ; -576482948
85E1  9D800000           [017] getglobal  2   2        ; Lotus_Game
85E5  8E804101           [018] gettable   2   2   262  ; "UIStyle_FloatingContentHighlight"
85E9  D7008000           [019] loadbool   3   1   0    ; true
85ED  62808001           [020] call       1   3   2  
85F1  0C408082           [021] settable   0   261 1    ; "FloatingContentHighlight"
85F5  53008000           [022] getupval   1   1      
85F9  4E40C000           [023] gettable   1   1   257  ; -576482948
85FD  9D800000           [024] getglobal  2   2        ; Lotus_Game
8601  8E804101           [025] gettable   2   2   262  ; "UIStyle_FloatingContentHighlight"
8605  62800001           [026] call       1   2   2  
8609  0C408083           [027] settable   0   263 1    ; "FloatingContentHighlightColor"
860D  53008000           [028] getupval   1   1      
8611  4E40C000           [029] gettable   1   1   257  ; -576482948
8615  9D800000           [030] getglobal  2   2        ; Lotus_Game
8619  8E404201           [031] gettable   2   2   265  ; "UIStyle_Background1"
861D  D7008000           [032] loadbool   3   1   0    ; true
8621  62808001           [033] call       1   3   2  
8625  0C400084           [034] settable   0   264 1    ; "Background1"
8629  53008000           [035] getupval   1   1      
862D  4E40C000           [036] gettable   1   1   257  ; -576482948
8631  9D800000           [037] getglobal  2   2        ; Lotus_Game
8635  8E404201           [038] gettable   2   2   265  ; "UIStyle_Background1"
8639  62800001           [039] call       1   2   2  
863D  0C400085           [040] settable   0   266 1    ; "Background1Color"
8641  53008000           [041] getupval   1   1      
8645  4E40C000           [042] gettable   1   1   257  ; -576482948
8649  9D800000           [043] getglobal  2   2        ; Lotus_Game
864D  8E004301           [044] gettable   2   2   268  ; "UIStyle_Background2"
8651  D7008000           [045] loadbool   3   1   0    ; true
8655  62808001           [046] call       1   3   2  
8659  0C408085           [047] settable   0   267 1    ; "Background2"
865D  53008000           [048] getupval   1   1      
8661  4E40C000           [049] gettable   1   1   257  ; -576482948
8665  9D800000           [050] getglobal  2   2        ; Lotus_Game
8669  8E804301           [051] gettable   2   2   270  ; "UIStyle_Positive"
866D  D7008000           [052] loadbool   3   1   0    ; true
8671  62808001           [053] call       1   3   2  
8675  0C408086           [054] settable   0   269 1    ; "Positive"
8679  53008000           [055] getupval   1   1      
867D  4E40C000           [056] gettable   1   1   257  ; -576482948
8681  9D800000           [057] getglobal  2   2        ; Lotus_Game
8685  8E004401           [058] gettable   2   2   272  ; "UIStyle_Negative"
8689  D7008000           [059] loadbool   3   1   0    ; true
868D  62808001           [060] call       1   3   2  
8691  0C408087           [061] settable   0   271 1    ; "Negative"
8695  53008000           [062] getupval   1   1      
8699  4E40C000           [063] gettable   1   1   257  ; -576482948
869D  9D800000           [064] getglobal  2   2        ; Lotus_Game
86A1  8E804301           [065] gettable   2   2   270  ; "UIStyle_Positive"
86A5  62800001           [066] call       1   2   2  
86A9  0C408088           [067] settable   0   273 1    ; "PositiveColor"
86AD  53008000           [068] getupval   1   1      
86B1  4E40C000           [069] gettable   1   1   257  ; -576482948
86B5  9D800000           [070] getglobal  2   2        ; Lotus_Game
86B9  8E004401           [071] gettable   2   2   272  ; "UIStyle_Negative"
86BD  62800001           [072] call       1   2   2  
86C1  0C400089           [073] settable   0   274 1    ; "NegativeColor"
86C5  53008000           [074] getupval   1   1      
86C9  4E40C000           [075] gettable   1   1   257  ; -576482948
86CD  9D800000           [076] getglobal  2   2        ; Lotus_Game
86D1  8E004501           [077] gettable   2   2   276  ; "UIStyle_Content"
86D5  D7008000           [078] loadbool   3   1   0    ; true
86D9  62808001           [079] call       1   3   2  
86DD  0C408089           [080] settable   0   275 1    ; "Content"
86E1  53008000           [081] getupval   1   1      
86E5  4E40C000           [082] gettable   1   1   257  ; -576482948
86E9  9D800000           [083] getglobal  2   2        ; Lotus_Game
86ED  8E004501           [084] gettable   2   2   276  ; "UIStyle_Content"
86F1  62800001           [085] call       1   2   2  
86F5  0C40808A           [086] settable   0   277 1    ; "ContentColor"
fail op	8
86F9  08000000           [087] setupval   0   0      
86FD  13000000           [088] getupval   0   0      
8701  53000001           [089] getupval   1   2      
8705  4EC0C500           [090] gettable   1   1   279  ; -1749580735
8709  93000000           [091] getupval   2   0      
870D  8E004001           [092] gettable   2   2   256  ; "FloatingContent"
8711  62800001           [093] call       1   2   2  
8715  0C40008B           [094] settable   0   278 1    ; "FloatingContentProcedural"
8719  13000000           [095] getupval   0   0      
871D  53000001           [096] getupval   1   2      
8721  4EC0C500           [097] gettable   1   1   279  ; -1749580735
8725  93000000           [098] getupval   2   0      
8729  8E004201           [099] gettable   2   2   264  ; "Background1"
872D  62800001           [100] call       1   2   2  
8731  0C40008C           [101] settable   0   280 1    ; "Background1Procedural"
8735  1D400600           [102] getglobal  0   25       ; _T
8739  0E804600           [103] gettable   0   0   282  ; "gNemesis"
fail op	35
873D  23C04600           [104] close      0  
8741  1A800080           [105] jmp        3            ; to [109]
8745  1D400600           [106] getglobal  0   25       ; _T
8749  4B000000           [107] newtable   1   0   0    ; array=0, hash=0
874D  0C40008D           [108] settable   0   282 1    ; "gNemesis"
8751  1D400600           [109] getglobal  0   25       ; _T
8755  0E004700           [110] gettable   0   0   284  ; "TopMenuOpen"
fail op	8
8759  08008001           [111] setupval   0   3      
875D  1D400600           [112] getglobal  0   25       ; _T
8761  0E404700           [113] gettable   0   0   285  ; "TopMenuMovie"
8765  53008001           [114] getupval   1   3      
8769  58000000           [115] test       1       0    ; to [117] if true
876D  1A000380           [116] jmp        13           ; to [130]
8771  5D800700           [117] getglobal  1   30       ; 1074689893
8775  92000000           [118] move       2   0      
8779  62800001           [119] call       1   2   2  
877D  58400000           [120] test       1       1    ; to [122] if false
8781  1AC00180           [121] jmp        8            ; to [130]
8785  64C04700           [122] self       1   0   287  ; 1167009705
8789  D9000800           [123] loadk      3   32       ; "SkipDisableInputOnClose"
878D  19410800           [124] loadk      4   33       ; "true"
8791  62400002           [125] call       1   4   1  
8795  64C04700           [126] self       1   0   287  ; 1167009705
8799  D9800800           [127] loadk      3   34       ; "Close"
879D  19C10800           [128] loadk      4   35       ; ""
87A1  62400002           [129] call       1   4   1  
87A5  53000002           [130] getupval   1   4      
87A9  4E00C900           [131] gettable   1   1   292  ; -1262767739
87AD  97008000           [132] loadbool   2   1   0    ; true
87B1  62400001           [133] call       1   2   1  
87B5  53000002           [134] getupval   1   4      
87B9  4E40C900           [135] gettable   1   1   293  ; -1694810916
87BD  97008000           [136] loadbool   2   1   0    ; true
87C1  62400001           [137] call       1   2   1  
87C5  5D800900           [138] getglobal  1   38       ; 849075268
87C9  99C00900           [139] loadk      2   39       ; "Lotus.Interface.Libs.TimerMgr"
87CD  62800001           [140] call       1   2   2  
87D1  8E00CA00           [141] gettable   2   1   296  ; -1029178688
87D5  A2808000           [142] call       2   1   2  
fail op	8
87D9  88008002           [143] setupval   2   5      
87DD  9D400A00           [144] getglobal  2   41       ; mMovie
87E1  A4804A01           [145] self       2   2   298  ; 471456102
87E5  19C10A00           [146] loadk      4   43       ; "Logo"
87E9  59010B00           [147] loadk      5   44       ; "_alpha"
87ED  99410B00           [148] loadk      6   45       ; 0
87F1  A2408002           [149] call       2   5   1  
87F5  9D400A00           [150] getglobal  2   41       ; mMovie
87F9  A4804A01           [151] self       2   2   298  ; 471456102
87FD  19C10A00           [152] loadk      4   43       ; "Logo"
8801  59810B00           [153] loadk      5   46       ; "_color"
8805  93010000           [154] getupval   6   0      
8809  8EC14203           [155] gettable   6   6   267  ; "Background2"
880D  A2408002           [156] call       2   5   1  
8811  93008003           [157] getupval   2   7      
8815  8EC04B01           [158] gettable   2   2   303  ; 1191123516
8819  DD400A00           [159] getglobal  3   41       ; mMovie
881D  A2800001           [160] call       2   2   2  
fail op	8
8821  88000003           [161] setupval   2   6      
8825  93000003           [162] getupval   2   6      
8829  A4004C01           [163] self       2   2   304  ; -1716902634
882D  1D410A00           [164] getglobal  4   41       ; mMovie
8831  59410C00           [165] loadk      5   49       ; "PopUp"
8835  8B010001           [166] newtable   6   2   0    ; array=2, hash=0
8839  D3010003           [167] getupval   7   6      
883D  CE81CC03           [168] gettable   7   7   306  ; "ANCHOR_V_TOP"
8841  13020003           [169] getupval   8   6      
8845  0EC24C04           [170] gettable   8   8   307  ; "ANCHOR_H_LEFT"
8849  9B410001           [171] setlist    6   2   1    ; index 1 to 2
884D  A2408002           [172] call       2   5   1  
8851  93000003           [173] getupval   2   6      
8855  A4004C01           [174] self       2   2   304  ; -1716902634
8859  1D410A00           [175] getglobal  4   41       ; mMovie
885D  59010D00           [176] loadk      5   52       ; "AbilityList"
8861  8B010001           [177] newtable   6   2   0    ; array=2, hash=0
8865  D3010003           [178] getupval   7   6      
8869  CE81CC03           [179] gettable   7   7   306  ; "ANCHOR_V_TOP"
886D  13020003           [180] getupval   8   6      
8871  0EC24C04           [181] gettable   8   8   307  ; "ANCHOR_H_LEFT"
8875  9B410001           [182] setlist    6   2   1    ; index 1 to 2
8879  A2408002           [183] call       2   5   1  
887D  93000003           [184] getupval   2   6      
8881  A4004C01           [185] self       2   2   304  ; -1716902634
8885  1D410A00           [186] getglobal  4   41       ; mMovie
8889  59410D00           [187] loadk      5   53       ; "RageBarContainer"
888D  8B010001           [188] newtable   6   2   0    ; array=2, hash=0
8891  D3010003           [189] getupval   7   6      
8895  CE81CC03           [190] gettable   7   7   306  ; "ANCHOR_V_TOP"
8899  13020003           [191] getupval   8   6      
889D  0EC24C04           [192] gettable   8   8   307  ; "ANCHOR_H_LEFT"
88A1  9B410001           [193] setlist    6   2   1    ; index 1 to 2
88A5  A2408002           [194] call       2   5   1  
88A9  93000003           [195] getupval   2   6      
88AD  A4004C01           [196] self       2   2   304  ; -1716902634
88B1  1D410A00           [197] getglobal  4   41       ; mMovie
88B5  59810D00           [198] loadk      5   54       ; "StatList"
88B9  8B010001           [199] newtable   6   2   0    ; array=2, hash=0
88BD  D3010003           [200] getupval   7   6      
88C1  CE81CC03           [201] gettable   7   7   306  ; "ANCHOR_V_TOP"
88C5  13020003           [202] getupval   8   6      
88C9  0EC24C04           [203] gettable   8   8   307  ; "ANCHOR_H_LEFT"
88CD  9B410001           [204] setlist    6   2   1    ; index 1 to 2
88D1  A2408002           [205] call       2   5   1  
88D5  93000003           [206] getupval   2   6      
88D9  A4004C01           [207] self       2   2   304  ; -1716902634
88DD  1D410A00           [208] getglobal  4   41       ; mMovie
88E1  59C10D00           [209] loadk      5   55       ; "StatBlurer"
88E5  8B010001           [210] newtable   6   2   0    ; array=2, hash=0
88E9  D3010003           [211] getupval   7   6      
88ED  CE81CC03           [212] gettable   7   7   306  ; "ANCHOR_V_TOP"
88F1  13020003           [213] getupval   8   6      
88F5  0EC24C04           [214] gettable   8   8   307  ; "ANCHOR_H_LEFT"
88F9  9B410001           [215] setlist    6   2   1    ; index 1 to 2
88FD  A2408002           [216] call       2   5   1  
8901  93000003           [217] getupval   2   6      
8905  A4004C01           [218] self       2   2   304  ; -1716902634
8909  1D410A00           [219] getglobal  4   41       ; mMovie
890D  59010E00           [220] loadk      5   56       ; "StatBg"
8911  8B010001           [221] newtable   6   2   0    ; array=2, hash=0
8915  D3010003           [222] getupval   7   6      
8919  CE81CC03           [223] gettable   7   7   306  ; "ANCHOR_V_TOP"
891D  13020003           [224] getupval   8   6      
8921  0EC24C04           [225] gettable   8   8   307  ; "ANCHOR_H_LEFT"
8925  9B410001           [226] setlist    6   2   1    ; index 1 to 2
8929  A2408002           [227] call       2   5   1  
892D  93000003           [228] getupval   2   6      
8931  A4004C01           [229] self       2   2   304  ; -1716902634
8935  1D410A00           [230] getglobal  4   41       ; mMovie
8939  59410E00           [231] loadk      5   57       ; "LinesContainer"
893D  8B010001           [232] newtable   6   2   0    ; array=2, hash=0
8941  D3010003           [233] getupval   7   6      
8945  CE81CC03           [234] gettable   7   7   306  ; "ANCHOR_V_TOP"
8949  13020003           [235] getupval   8   6      
894D  0E824E04           [236] gettable   8   8   314  ; "ANCHOR_H_RIGHT"
8951  9B410001           [237] setlist    6   2   1    ; index 1 to 2
8955  A2408002           [238] call       2   5   1  
8959  93000003           [239] getupval   2   6      
895D  A4004C01           [240] self       2   2   304  ; -1716902634
8961  1D410A00           [241] getglobal  4   41       ; mMovie
8965  59C10E00           [242] loadk      5   59       ; "CurrentCombination"
8969  8B010001           [243] newtable   6   2   0    ; array=2, hash=0
896D  D3010003           [244] getupval   7   6      
8971  CE81CC03           [245] gettable   7   7   306  ; "ANCHOR_V_TOP"
8975  13020003           [246] getupval   8   6      
8979  0E824E04           [247] gettable   8   8   314  ; "ANCHOR_H_RIGHT"
897D  9B410001           [248] setlist    6   2   1    ; index 1 to 2
8981  A2408002           [249] call       2   5   1  
8985  93000003           [250] getupval   2   6      
8989  A4004C01           [251] self       2   2   304  ; -1716902634
898D  1D410A00           [252] getglobal  4   41       ; mMovie
8991  59010F00           [253] loadk      5   60       ; "CombinationHistory"
8995  8B010001           [254] newtable   6   2   0    ; array=2, hash=0
8999  D3010003           [255] getupval   7   6      
899D  CE81CC03           [256] gettable   7   7   306  ; "ANCHOR_V_TOP"
89A1  13020003           [257] getupval   8   6      
89A5  0E824E04           [258] gettable   8   8   314  ; "ANCHOR_H_RIGHT"
89A9  9B410001           [259] setlist    6   2   1    ; index 1 to 2
89AD  A2408002           [260] call       2   5   1  
89B1  93000003           [261] getupval   2   6      
89B5  A4004C01           [262] self       2   2   304  ; -1716902634
89B9  1D410A00           [263] getglobal  4   41       ; mMovie
89BD  59410F00           [264] loadk      5   61       ; "Hint"
89C1  8B010001           [265] newtable   6   2   0    ; array=2, hash=0
89C5  D3010003           [266] getupval   7   6      
89C9  CE81CC03           [267] gettable   7   7   306  ; "ANCHOR_V_TOP"
89CD  13020003           [268] getupval   8   6      
89D1  0E824E04           [269] gettable   8   8   314  ; "ANCHOR_H_RIGHT"
89D5  9B410001           [270] setlist    6   2   1    ; index 1 to 2
89D9  A2408002           [271] call       2   5   1  
89DD  93000003           [272] getupval   2   6      
89E1  A4004C01           [273] self       2   2   304  ; -1716902634
89E5  1D410A00           [274] getglobal  4   41       ; mMovie
89E9  59810F00           [275] loadk      5   62       ; "UpgradeBtn"
89ED  8B010001           [276] newtable   6   2   0    ; array=2, hash=0
89F1  D3010003           [277] getupval   7   6      
89F5  CEC1CF03           [278] gettable   7   7   319  ; "ANCHOR_V_BOTTOM"
89F9  13020003           [279] getupval   8   6      
89FD  0E824E04           [280] gettable   8   8   314  ; "ANCHOR_H_RIGHT"
8A01  9B410001           [281] setlist    6   2   1    ; index 1 to 2
8A05  A2408002           [282] call       2   5   1  
8A09  93000003           [283] getupval   2   6      
8A0D  A4005001           [284] self       2   2   320  ; -1938777623
8A11  1D410A00           [285] getglobal  4   41       ; mMovie
8A15  24415002           [286] self       4   4   321  ; -174729759
8A19  22810001           [287] call       4   2   2  
8A1D  5D410A00           [288] getglobal  5   41       ; mMovie
8A21  6481D002           [289] self       5   5   322  ; -301556379
8A25  62010001           [290] call       5   2   0  
8A29  A2400000           [291] call       2   0   1  
8A2D  93000001           [292] getupval   2   2      
8A31  8EC05001           [293] gettable   2   2   323  ; 630793108
8A35  DD001100           [294] getglobal  3   68       ; _G
8A39  CE40D101           [295] gettable   3   3   325  ; "UISound_Open"
8A3D  A2400001           [296] call       2   2   1  
8A41  9D800700           [297] getglobal  2   30       ; 1074689893
8A45  DD400600           [298] getglobal  3   25       ; _T
8A49  CE80D101           [299] gettable   3   3   326  ; "ShowBackground"
8A4D  A2800001           [300] call       2   2   2  
8A51  98400000           [301] test       2       1    ; to [303] if false
8A55  1AC00080           [302] jmp        4            ; to [307]
8A59  9D400600           [303] getglobal  2   25       ; _T
8A5D  8EC05101           [304] gettable   2   2   327  ; 398318646
8A61  D9001200           [305] loadk      3   72       ; 0
8A65  A2400001           [306] call       2   2   1  
8A69  9D800700           [307] getglobal  2   30       ; 1074689893
8A6D  DD400600           [308] getglobal  3   25       ; _T
8A71  CE40D201           [309] gettable   3   3   329  ; "SetSquadOverlayTitle"
8A75  A2800001           [310] call       2   2   2  
8A79  98400000           [311] test       2       1    ; to [313] if false
8A7D  1A000380           [312] jmp        13           ; to [326]
8A81  9D400600           [313] getglobal  2   25       ; _T
8A85  8E805201           [314] gettable   2   2   330  ; 1453523133
8A89  DD400A00           [315] getglobal  3   41       ; mMovie
8A8D  E4C0D201           [316] self       3   3   331  ; 98241492
8A91  59011300           [317] loadk      5   76       ; "/Lotus/Language/Menu/Profile_Profile"
8A95  97010000           [318] loadbool   6   0   0    ; false
8A99  E2800002           [319] call       3   4   2  
8A9D  1D410A00           [320] getglobal  4   41       ; mMovie
8AA1  24C15202           [321] self       4   4   331  ; 98241492
8AA5  99411300           [322] loadk      6   77       ; "/Lotus/Language/Kingpins/NemesisViewer_Title"
8AA9  D7010000           [323] loadbool   7   0   0    ; false
8AAD  22010002           [324] call       4   4   0  
8AB1  A2400000           [325] call       2   0   1  
8AB5  9D800900           [326] getglobal  2   38       ; 849075268
8AB9  D9801300           [327] loadk      3   78       ; "Lotus.Interface.Components.ThemedButton"
8ABD  A2800001           [328] call       2   2   2  
8AC1  CEC04B01           [329] gettable   3   2   303  ; 1191123516
8AC5  1D410A00           [330] getglobal  4   41       ; mMovie
8AC9  59810F00           [331] loadk      5   62       ; "UpgradeBtn"
8ACD  99C11300           [332] loadk      6   79       ; "/Lotus/Language/Kingpins/NemesisView_UpgradeKnife"
8AD1  D9011400           [333] loadk      7   80       ; "UpgradeKnife"
8AD5  19421400           [334] loadk      8   81       ; "<MENU_GENERIC2>"
8AD9  E2800003           [335] call       3   6   2  
fail op	8
8ADD  C8000004           [336] setupval   3   8      
8AE1  D3000004           [337] getupval   3   8      
8AE5  E480D401           [338] self       3   3   338  ; -1464598297
8AE9  E2400001           [339] call       3   2   1  
8AED  D3000004           [340] getupval   3   8      
8AF1  E4C0D401           [341] self       3   3   339  ; -2011541260
8AF5  59011500           [342] loadk      5   84       ; 0
8AF9  E2408001           [343] call       3   3   1  
8AFD  D3000004           [344] getupval   3   8      
8B01  E440D501           [345] self       3   3   341  ; 1685109492
8B05  E2400001           [346] call       3   2   1  
8B09  CEC04B01           [347] gettable   3   2   303  ; 1191123516
8B0D  1D410A00           [348] getglobal  4   41       ; mMovie
8B11  59811500           [349] loadk      5   86       ; "RageBarContainer.Bar"
8B15  99C11500           [350] loadk      6   87       ; "INDIFFERENT"
8B19  E2800002           [351] call       3   4   2  
fail op	8
8B1D  C8008004           [352] setupval   3   9      
8B21  D3008004           [353] getupval   3   9      
8B25  13018004           [354] getupval   4   9      
8B29  0E415602           [355] gettable   4   4   345  ; "UpdateColors"
8B2D  CC0001AC           [356] settable   3   344 4    ; "BaseUpdateColors"
8B31  D3008004           [357] getupval   3   9      
8B35  25010000           [358] closure    4   0      
8B39  13008000           [359] getupval   0   1      
8B3D  CC0081AC           [360] settable   3   345 4    ; "UpdateColors"
8B41  D3008004           [361] getupval   3   9      
8B45  13018004           [362] getupval   4   9      
8B49  0EC15602           [363] gettable   4   4   347  ; "Resize"
8B4D  CC0001AD           [364] settable   3   346 4    ; "BaseResize"
8B51  D3008004           [365] getupval   3   9      
8B55  25410000           [366] closure    4   1      
8B59  CC0081AD           [367] settable   3   347 4    ; "Resize"
8B5D  D3008004           [368] getupval   3   9      
8B61  CC4057AE           [369] settable   3   348 349  ; "mFontSize" 0
8B65  D3008004           [370] getupval   3   9      
8B69  CCC057AF           [371] settable   3   350 351  ; "mLabelYOffset" 0
8B6D  D3008004           [372] getupval   3   9      
8B71  E480D401           [373] self       3   3   338  ; -1464598297
8B75  E2400001           [374] call       3   2   1  
8B79  D3008004           [375] getupval   3   9      
8B7D  E4C0D401           [376] self       3   3   339  ; -2011541260
8B81  59011800           [377] loadk      5   96       ; 0
8B85  E2408001           [378] call       3   3   1  
8B89  D3008004           [379] getupval   3   9      
8B8D  E440D801           [380] self       3   3   353  ; -389167504
8B91  53010001           [381] getupval   5   2      
8B95  4E81D802           [382] gettable   5   5   354  ; "CENTER_ALIGNED"
8B99  E2408001           [383] call       3   3   1  
8B9D  D3008004           [384] getupval   3   9      
8BA1  E440D501           [385] self       3   3   341  ; 1685109492
8BA5  E2400001           [386] call       3   2   1  
8BA9  D3000005           [387] getupval   3   10     
8BAD  E2408000           [388] call       3   1   1  
8BB1  DD400A00           [389] getglobal  3   41       ; mMovie
8BB5  E4C0D801           [390] self       3   3   355  ; 2115970775
8BB9  59011900           [391] loadk      5   100      ; "RageBarContainer.Bar.FillCapLeft"
8BBD  9D011100           [392] getglobal  6   68       ; _G
8BC1  8E415903           [393] gettable   6   6   357  ; "UIMaterial_VitruvianLines"
8BC5  E2400002           [394] call       3   4   1  
8BC9  DD400A00           [395] getglobal  3   41       ; mMovie
8BCD  E4C0D801           [396] self       3   3   355  ; 2115970775
8BD1  59811900           [397] loadk      5   102      ; "RageBarContainer.Bar.FillCapRight"
8BD5  9D011100           [398] getglobal  6   68       ; _G
8BD9  8E415903           [399] gettable   6   6   357  ; "UIMaterial_VitruvianLines"
8BDD  E2400002           [400] call       3   4   1  
8BE1  DD400A00           [401] getglobal  3   41       ; mMovie
8BE5  E4C0D801           [402] self       3   3   355  ; 2115970775
8BE9  59C11900           [403] loadk      5   103      ; "RageBarContainer.Bar.Fill"
8BED  9D011100           [404] getglobal  6   68       ; _G
8BF1  8E415903           [405] gettable   6   6   357  ; "UIMaterial_VitruvianLines"
8BF5  E2400002           [406] call       3   4   1  
8BF9  DD400A00           [407] getglobal  3   41       ; mMovie
8BFD  E480CA01           [408] self       3   3   298  ; 471456102
8C01  59410D00           [409] loadk      5   53       ; "RageBarContainer"
8C05  99010B00           [410] loadk      6   44       ; "_alpha"
8C09  D9011A00           [411] loadk      7   104      ; 0
8C0D  E2408002           [412] call       3   5   1  
8C11  DD400A00           [413] getglobal  3   41       ; mMovie
8C15  E480CA01           [414] self       3   3   298  ; 471456102
8C19  59410D00           [415] loadk      5   53       ; "RageBarContainer"
8C1D  99411A00           [416] loadk      6   105      ; "_xscale"
8C21  D9811A00           [417] loadk      7   106      ; 0
8C25  E2408002           [418] call       3   5   1  
8C29  DD400A00           [419] getglobal  3   41       ; mMovie
8C2D  E480CA01           [420] self       3   3   298  ; 471456102
8C31  59410D00           [421] loadk      5   53       ; "RageBarContainer"
8C35  99C11A00           [422] loadk      6   107      ; "_yscale"
8C39  D9811A00           [423] loadk      7   106      ; 0
8C3D  E2408002           [424] call       3   5   1  
8C41  D3008005           [425] getupval   3   11     
8C45  E2408000           [426] call       3   1   1  
8C49  D3000006           [427] getupval   3   12     
8C4D  E2408000           [428] call       3   1   1  
8C51  D3008006           [429] getupval   3   13     
8C55  E2408000           [430] call       3   1   1  
8C59  D3000007           [431] getupval   3   14     
8C5D  E2408000           [432] call       3   1   1  
8C61  DD400A00           [433] getglobal  3   41       ; mMovie
8C65  E4C0D801           [434] self       3   3   355  ; 2115970775
8C69  59011B00           [435] loadk      5   108      ; "PopUp.CloudTop"
8C6D  9D411B00           [436] getglobal  6   109      ; smokeMaterial
8C71  E2400002           [437] call       3   4   1  
8C75  DD400A00           [438] getglobal  3   41       ; mMovie
8C79  E4C0D801           [439] self       3   3   355  ; 2115970775
8C7D  59811B00           [440] loadk      5   110      ; "PopUp.CloudBottom"
8C81  9D411B00           [441] getglobal  6   109      ; smokeMaterial
8C85  E2400002           [442] call       3   4   1  
8C89  DD400A00           [443] getglobal  3   41       ; mMovie
8C8D  E4C0D801           [444] self       3   3   355  ; 2115970775
8C91  59C11B00           [445] loadk      5   111      ; "PopUp.CloudDots"
8C95  9D011C00           [446] getglobal  6   112      ; kuvaMaterial
8C99  E2400002           [447] call       3   4   1  
8C9D  DD400A00           [448] getglobal  3   41       ; mMovie
8CA1  E480CA01           [449] self       3   3   298  ; 471456102
8CA5  59411C00           [450] loadk      5   113      ; "Popup.BottomAnimation"
8CA9  99811C00           [451] loadk      6   114      ; "_visible"
8CAD  D7010000           [452] loadbool   7   0   0    ; false
8CB1  E2408002           [453] call       3   5   1  
8CB5  DD400A00           [454] getglobal  3   41       ; mMovie
8CB9  E480CA01           [455] self       3   3   298  ; 471456102
8CBD  59C11C00           [456] loadk      5   115      ; "LinesContainer.Lines"
8CC1  99011D00           [457] loadk      6   116      ; "_x"
8CC5  D9411D00           [458] loadk      7   117      ; 0
8CC9  E2408002           [459] call       3   5   1  
8CCD  DD400A00           [460] getglobal  3   41       ; mMovie
8CD1  E480CA01           [461] self       3   3   298  ; 471456102
8CD5  59C11C00           [462] loadk      5   115      ; "LinesContainer.Lines"
8CD9  99810B00           [463] loadk      6   46       ; "_color"
8CDD  D3010000           [464] getupval   7   0      
8CE1  CE01C003           [465] gettable   7   7   256  ; "FloatingContent"
8CE5  E2408002           [466] call       3   5   1  
8CE9  DD400A00           [467] getglobal  3   41       ; mMovie
8CED  E4C0D801           [468] self       3   3   355  ; 2115970775
8CF1  59C11C00           [469] loadk      5   115      ; "LinesContainer.Lines"
8CF5  9D011100           [470] getglobal  6   68       ; _G
8CF9  8E415903           [471] gettable   6   6   357  ; "UIMaterial_VitruvianLines"
8CFD  E2400002           [472] call       3   4   1  
8D01  DD800900           [473] getglobal  3   38       ; 849075268
8D05  19811D00           [474] loadk      4   118      ; "Lotus.Interface.Components.ThemedSpinner"
8D09  E2800001           [475] call       3   2   2  
8D0D  0EC1CB01           [476] gettable   4   3   303  ; 1191123516
8D11  5D410A00           [477] getglobal  5   41       ; mMovie
8D15  99C11D00           [478] loadk      6   119      ; "Spinner"
8D19  22818001           [479] call       4   3   2  
fail op	8
8D1D  08018007           [480] setupval   4   15     
8D21  13018007           [481] getupval   4   15     
8D25  24015E02           [482] self       4   4   376  ; -492641364
8D29  97018000           [483] loadbool   6   1   0    ; true
8D2D  22418001           [484] call       4   3   1  
8D31  13010008           [485] getupval   4   16     
fail op	35
8D35  23C04602           [486] close      0  
8D39  1A800180           [487] jmp        7            ; to [495]
8D3D  1D810900           [488] getglobal  4   38       ; 849075268
8D41  59411E00           [489] loadk      5   121      ; "Lotus.Interface.Libs.DioramaLoader"
8D45  22810001           [490] call       4   2   2  
8D49  4E815E02           [491] gettable   5   4   378  ; -1069406678
8D4D  9D410A00           [492] getglobal  6   41       ; mMovie
8D51  62810001           [493] call       5   2   2  
fail op	8
8D55  48010008           [494] setupval   5   16     
8D59  53018008           [495] getupval   5   17     
8D5D  62418000           [496] call       5   1   1  
8D61  5D410A00           [497] getglobal  5   41       ; mMovie
8D65  64C1DE02           [498] self       5   5   379  ; 1800181858
8D69  D7018000           [499] loadbool   7   1   0    ; true
8D6D  62418001           [500] call       5   3   1  
8D71  5D011F00           [501] getglobal  5   124      ; -174740002
8D75  9D410A00           [502] getglobal  6   41       ; mMovie
8D79  A4415F03           [503] self       6   6   381  ; 1803241227
8D7D  19821F00           [504] loadk      8   126      ; "_root"
8D81  59C21F00           [505] loadk      9   127      ; "_xmouse"
8D85  A2010002           [506] call       6   4   0  
8D89  62810000           [507] call       5   0   2  
fail op	8
8D8D  48010009           [508] setupval   5   18     
8D91  5D011F00           [509] getglobal  5   124      ; -174740002
8D95  9D410A00           [510] getglobal  6   41       ; mMovie
8D99  A4415F03           [511] self       6   6   381  ; 1803241227
8D9D  19821F00           [512] loadk      8   126      ; "_root"
8DA1  59022000           [513] loadk      9   128      ; "_ymouse"
8DA5  A2010002           [514] call       6   4   0  
8DA9  62810000           [515] call       5   0   2  
fail op	8
8DAD  48018009           [516] setupval   5   19     
8DB1  46018002           [517] loadnil    5   5      
8DB5  9D810700           [518] getglobal  6   30       ; 1074689893
8DB9  DD410600           [519] getglobal  7   25       ; _T
8DBD  CE41E003           [520] gettable   7   7   385  ; "Nemesis_HistoryEntry"
8DC1  A2810001           [521] call       6   2   2  
8DC5  98410000           [522] test       6       1    ; to [524] if false
8DC9  1A800180           [523] jmp        7            ; to [531]
8DCD  97018000           [524] loadbool   6   1   0    ; true
fail op	8
8DD1  8801000A           [525] setupval   6   20     
8DD5  9D410600           [526] getglobal  6   25       ; _T
8DD9  4E416003           [527] gettable   5   6   385  ; "Nemesis_HistoryEntry"
8DDD  9D410600           [528] getglobal  6   25       ; _T
8DE1  8CC1C6C0           [529] settable   6   385 283  ; "Nemesis_HistoryEntry" nil
8DE5  1A000580           [530] jmp        21           ; to [552]
8DE9  9D810700           [531] getglobal  6   30       ; 1074689893
8DED  DD812000           [532] getglobal  7   130      ; gGameData
8DF1  A2810001           [533] call       6   2   2  
8DF5  98410000           [534] test       6       1    ; to [536] if false
8DF9  1AC00380           [535] jmp        16           ; to [552]
8DFD  9D812000           [536] getglobal  6   130      ; gGameData
8E01  A4C16003           [537] self       6   6   387  ; 389385621
8E05  A2810001           [538] call       6   2   2  
8E09  A4016103           [539] self       6   6   388  ; 188678183
8E0D  A2810001           [540] call       6   2   2  
8E11  98010000           [541] test       6       0    ; to [543] if true
8E15  1A000280           [542] jmp        9            ; to [552]
8E19  9D812000           [543] getglobal  6   130      ; gGameData
8E1D  A4C16003           [544] self       6   6   387  ; 389385621
8E21  A2810001           [545] call       6   2   2  
8E25  52010003           [546] move       5   6      
8E29  97010000           [547] loadbool   6   0   0    ; false
8E2D  98010000           [548] test       6       0    ; to [550] if true
8E31  1A400080           [549] jmp        2            ; to [552]
8E35  97018000           [550] loadbool   6   1   0    ; true
fail op	8
8E39  8801800A           [551] setupval   6   21     
8E3D  9D810700           [552] getglobal  6   30       ; 1074689893
8E41  D2018002           [553] move       7   5      
8E45  A2810001           [554] call       6   2   2  
8E49  98410000           [555] test       6       1    ; to [557] if false
8E4D  1A400380           [556] jmp        14           ; to [571]
8E51  97018000           [557] loadbool   6   1   0    ; true
fail op	8
8E55  8801000B           [558] setupval   6   22     
8E59  9301800B           [559] getupval   6   23     
8E5D  D2018002           [560] move       7   5      
8E61  A2410001           [561] call       6   2   1  
8E65  9D410A00           [562] getglobal  6   41       ; mMovie
8E69  A4416103           [563] self       6   6   389  ; 386043535
8E6D  19822100           [564] loadk      8   134      ; "CombinationHistory.Hint.text"
8E71  59C22100           [565] loadk      9   135      ; "/Lotus/Language/Kingpins/NemesisView_NoHistoryHint"
8E75  8B420000           [566] newtable   10  0   1    ; array=0, hash=1
8E79  D302000C           [567] getupval   11  24     
8E7D  CE42E205           [568] gettable   11  11  393  ; "mName"
8E81  8CC202C4           [569] settable   10  392 11   ; "LICH_NAME"
8E85  A2418002           [570] call       6   5   1  
8E89  93010002           [571] getupval   6   4      
8E8D  8E816203           [572] gettable   6   6   394  ; -2065906648
8E91  A2818000           [573] call       6   1   2  
8E95  DD410A00           [574] getglobal  7   41       ; mMovie
8E99  E481CA03           [575] self       7   7   298  ; 471456102
8E9D  59C20E00           [576] loadk      9   59       ; "CurrentCombination"
8EA1  99821C00           [577] loadk      10  114      ; "_visible"
8EA5  D302000A           [578] getupval   11  20     
fail op	9
8EA9  C9028005           [579] settable   11  11  0  
8EAD  E2418002           [580] call       7   5   1  
8EB1  DD410A00           [581] getglobal  7   41       ; mMovie
8EB5  E481CA03           [582] self       7   7   298  ; 471456102
8EB9  59020F00           [583] loadk      9   60       ; "CombinationHistory"
8EBD  99821C00           [584] loadk      10  114      ; "_visible"
8EC1  D302000A           [585] getupval   11  20     
fail op	9
8EC5  C9028005           [586] settable   11  11  0  
8EC9  E2418002           [587] call       7   5   1  
8ECD  DD410A00           [588] getglobal  7   41       ; mMovie
8ED1  E481CA03           [589] self       7   7   298  ; 471456102
8ED5  59420E00           [590] loadk      9   57       ; "LinesContainer"
8ED9  99821C00           [591] loadk      10  114      ; "_visible"
8EDD  D302000A           [592] getupval   11  20     
fail op	9
8EE1  C9028005           [593] settable   11  11  0  
8EE5  E2418002           [594] call       7   5   1  
8EE9  D3010004           [595] getupval   7   8      
8EED  E4C1E203           [596] self       7   7   395  ; 1649906088
8EF1  5302000A           [597] getupval   9   20     
8EF5  58420000           [598] test       9       1    ; to [600] if false
8EF9  1AC00180           [599] jmp        8            ; to [608]
8EFD  53020002           [600] getupval   9   4      
8F01  4E02E304           [601] gettable   9   9   396  ; "UI_MODE_IN_SPACE_SHIP"
fail op	35
8F05  63400203           [602] close      1  
8F09  1A000180           [603] jmp        5            ; to [609]
8F0D  53020002           [604] getupval   9   4      
8F11  4E42E304           [605] gettable   9   9   397  ; "UI_MODE_IN_SPACE_HUB"
fail op	35
8F15  63400203           [606] close      1  
8F19  1A000080           [607] jmp        1            ; to [609]
8F1D  57420000           [608] loadbool   9   0   1    ; false, to [610]
8F21  57028000           [609] loadbool   9   1   0    ; true
8F25  E2418001           [610] call       7   3   1  
8F29  D301800C           [611] getupval   7   25     
8F2D  E2418000           [612] call       7   1   1  
8F31  D301000A           [613] getupval   7   20     
8F35  D8410000           [614] test       7       1    ; to [616] if false
8F39  1A400080           [615] jmp        2            ; to [618]
8F3D  D301000D           [616] getupval   7   26     
8F41  E2418000           [617] call       7   1   1  
8F45  1E008000           [618] return     0   1      
                         * constants:
8F4A  01                 sizek (142)
8F4B  04                 const type 4
8F4C  10                 string size (16)
8F4D  466C6F6174696E67+  "Floating"
8F55  436F6E74656E7400   "Content\0"
                         const [0]: "FloatingContent"
8F5D  01                 const type 3
8F5E  7C91A3DD           const [1]: (-576482948)
8F62  04                 const type 4
8F63  0B                 string size (11)
8F64  4C6F7475735F4761+  "Lotus_Ga"
8F6C  6D6500             "me\0"
                         const [2]: "Lotus_Game"
8F6F  04                 const type 4
8F70  18                 string size (24)
8F71  55495374796C655F+  "UIStyle_"
8F79  466C6F6174696E67+  "Floating"
8F81  436F6E74656E7400   "Content\0"
                         const [3]: "UIStyle_FloatingContent"
8F89  04                 const type 4
8F8A  15                 string size (21)
8F8B  466C6F6174696E67+  "Floating"
8F93  436F6E74656E7443+  "ContentC"
8F9B  6F6C6F7200         "olor\0"
                         const [4]: "FloatingContentColor"
8FA0  04                 const type 4
8FA1  19                 string size (25)
8FA2  466C6F6174696E67+  "Floating"
8FAA  436F6E74656E7448+  "ContentH"
8FB2  6967686C69676874+  "ighlight"
8FBA  00                 "\0"
                         const [5]: "FloatingContentHighlight"
8FBB  04                 const type 4
8FBC  21                 string size (33)
8FBD  55495374796C655F+  "UIStyle_"
8FC5  466C6F6174696E67+  "Floating"
8FCD  436F6E74656E7448+  "ContentH"
8FD5  6967686C69676874+  "ighlight"
8FDD  00                 "\0"
                         const [6]: "UIStyle_FloatingContentHighlight"
8FDE  04                 const type 4
8FDF  1E                 string size (30)
8FE0  466C6F6174696E67+  "Floating"
8FE8  436F6E74656E7448+  "ContentH"
8FF0  6967686C69676874+  "ighlight"
8FF8  436F6C6F7200       "Color\0"
                         const [7]: "FloatingContentHighlightColor"
8FFE  04                 const type 4
8FFF  0C                 string size (12)
9000  4261636B67726F75+  "Backgrou"
9008  6E643100           "nd1\0"
                         const [8]: "Background1"
900C  04                 const type 4
900D  14                 string size (20)
900E  55495374796C655F+  "UIStyle_"
9016  4261636B67726F75+  "Backgrou"
901E  6E643100           "nd1\0"
                         const [9]: "UIStyle_Background1"
9022  04                 const type 4
9023  11                 string size (17)
9024  4261636B67726F75+  "Backgrou"
902C  6E6431436F6C6F72+  "nd1Color"
9034  00                 "\0"
                         const [10]: "Background1Color"
9035  04                 const type 4
9036  0C                 string size (12)
9037  4261636B67726F75+  "Backgrou"
903F  6E643200           "nd2\0"
                         const [11]: "Background2"
9043  04                 const type 4
9044  14                 string size (20)
9045  55495374796C655F+  "UIStyle_"
904D  4261636B67726F75+  "Backgrou"
9055  6E643200           "nd2\0"
                         const [12]: "UIStyle_Background2"
9059  04                 const type 4
905A  09                 string size (9)
905B  506F736974697665+  "Positive"
9063  00                 "\0"
                         const [13]: "Positive"
9064  04                 const type 4
9065  11                 string size (17)
9066  55495374796C655F+  "UIStyle_"
906E  506F736974697665+  "Positive"
9076  00                 "\0"
                         const [14]: "UIStyle_Positive"
9077  04                 const type 4
9078  09                 string size (9)
9079  4E65676174697665+  "Negative"
9081  00                 "\0"
                         const [15]: "Negative"
9082  04                 const type 4
9083  11                 string size (17)
9084  55495374796C655F+  "UIStyle_"
908C  4E65676174697665+  "Negative"
9094  00                 "\0"
                         const [16]: "UIStyle_Negative"
9095  04                 const type 4
9096  0E                 string size (14)
9097  506F736974697665+  "Positive"
909F  436F6C6F7200       "Color\0"
                         const [17]: "PositiveColor"
90A5  04                 const type 4
90A6  0E                 string size (14)
90A7  4E65676174697665+  "Negative"
90AF  436F6C6F7200       "Color\0"
                         const [18]: "NegativeColor"
90B5  04                 const type 4
90B6  08                 string size (8)
90B7  436F6E74656E7400   "Content\0"
                         const [19]: "Content"
90BF  04                 const type 4
90C0  10                 string size (16)
90C1  55495374796C655F+  "UIStyle_"
90C9  436F6E74656E7400   "Content\0"
                         const [20]: "UIStyle_Content"
90D1  04                 const type 4
90D2  0D                 string size (13)
90D3  436F6E74656E7443+  "ContentC"
90DB  6F6C6F7200         "olor\0"
                         const [21]: "ContentColor"
90E0  04                 const type 4
90E1  1A                 string size (26)
90E2  466C6F6174696E67+  "Floating"
90EA  436F6E74656E7450+  "ContentP"
90F2  726F636564757261+  "rocedura"
90FA  6C00               "l\0"
                         const [22]: "FloatingContentProcedural"
90FC  01                 const type 3
90FD  4184B797           const [23]: (-1749580735)
9101  04                 const type 4
9102  16                 string size (22)
9103  4261636B67726F75+  "Backgrou"
910B  6E643150726F6365+  "nd1Proce"
9113  647572616C00       "dural\0"
                         const [24]: "Background1Procedural"
9119  04                 const type 4
911A  03                 string size (3)
911B  5F5400             "_T\0"
                         const [25]: "_T"
911E  04                 const type 4
911F  09                 string size (9)
9120  674E656D65736973+  "gNemesis"
9128  00                 "\0"
                         const [26]: "gNemesis"
9129  00                 const type 0
                         const [27]: nil
912A  04                 const type 4
912B  0C                 string size (12)
912C  546F704D656E754F+  "TopMenuO"
9134  70656E00           "pen\0"
                         const [28]: "TopMenuOpen"
9138  04                 const type 4
9139  0D                 string size (13)
913A  546F704D656E754D+  "TopMenuM"
9142  6F76696500         "ovie\0"
                         const [29]: "TopMenuMovie"
9147  01                 const type 3
9148  65770E40           const [30]: (1074689893)
914C  01                 const type 3
914D  A9278F45           const [31]: (1167009705)
9151  04                 const type 4
9152  18                 string size (24)
9153  536B697044697361+  "SkipDisa"
915B  626C65496E707574+  "bleInput"
9163  4F6E436C6F736500   "OnClose\0"
                         const [32]: "SkipDisableInputOnClose"
916B  04                 const type 4
916C  05                 string size (5)
916D  7472756500         "true\0"
                         const [33]: "true"
9172  04                 const type 4
9173  06                 string size (6)
9174  436C6F736500       "Close\0"
                         const [34]: "Close"
917A  04                 const type 4
917B  01                 string size (0)
                         const [35]: ""
917D  01                 const type 3
917E  85B1BBB4           const [36]: (-1262767739)
9182  01                 const type 3
9183  DC3CFB9A           const [37]: (-1694810916)
9187  01                 const type 3
9188  44DC9B32           const [38]: (849075268)
918C  04                 const type 4
918D  1E                 string size (30)
918E  4C6F7475732E496E+  "Lotus.In"
9196  746572666163652E+  "terface."
919E  4C6962732E54696D+  "Libs.Tim"
91A6  65724D677200       "erMgr\0"
                         const [39]: "Lotus.Interface.Libs.TimerMgr"
91AC  01                 const type 3
91AD  C0FAA7C2           const [40]: (-1029178688)
91B1  04                 const type 4
91B2  07                 string size (7)
91B3  6D4D6F76696500     "mMovie\0"
                         const [41]: "mMovie"
91BA  01                 const type 3
91BB  66D9191C           const [42]: (471456102)
91BF  04                 const type 4
91C0  05                 string size (5)
91C1  4C6F676F00         "Logo\0"
                         const [43]: "Logo"
91C6  04                 const type 4
91C7  07                 string size (7)
91C8  5F616C70686100     "_alpha\0"
                         const [44]: "_alpha"
91CF  03                 const type 3
91D0  00004842           const [45]: (0)
91D4  04                 const type 4
91D5  07                 string size (7)
91D6  5F636F6C6F7200     "_color\0"
                         const [46]: "_color"
91DD  01                 const type 3
91DE  3C1AFF46           const [47]: (1191123516)
91E2  01                 const type 3
91E3  1625AA99           const [48]: (-1716902634)
91E7  04                 const type 4
91E8  06                 string size (6)
91E9  506F70557000       "PopUp\0"
                         const [49]: "PopUp"
91EF  04                 const type 4
91F0  0D                 string size (13)
91F1  414E43484F525F56+  "ANCHOR_V"
91F9  5F544F5000         "_TOP\0"
                         const [50]: "ANCHOR_V_TOP"
91FE  04                 const type 4
91FF  0E                 string size (14)
9200  414E43484F525F48+  "ANCHOR_H"
9208  5F4C45465400       "_LEFT\0"
                         const [51]: "ANCHOR_H_LEFT"
920E  04                 const type 4
920F  0C                 string size (12)
9210  4162696C6974794C+  "AbilityL"
9218  69737400           "ist\0"
                         const [52]: "AbilityList"
921C  04                 const type 4
921D  11                 string size (17)
921E  5261676542617243+  "RageBarC"
9226  6F6E7461696E6572+  "ontainer"
922E  00                 "\0"
                         const [53]: "RageBarContainer"
922F  04                 const type 4
9230  09                 string size (9)
9231  537461744C697374+  "StatList"
9239  00                 "\0"
                         const [54]: "StatList"
923A  04                 const type 4
923B  0B                 string size (11)
923C  53746174426C7572+  "StatBlur"
9244  657200             "er\0"
                         const [55]: "StatBlurer"
9247  04                 const type 4
9248  07                 string size (7)
9249  53746174426700     "StatBg\0"
                         const [56]: "StatBg"
9250  04                 const type 4
9251  0F                 string size (15)
9252  4C696E6573436F6E+  "LinesCon"
925A  7461696E657200     "tainer\0"
                         const [57]: "LinesContainer"
9261  04                 const type 4
9262  0F                 string size (15)
9263  414E43484F525F48+  "ANCHOR_H"
926B  5F524947485400     "_RIGHT\0"
                         const [58]: "ANCHOR_H_RIGHT"
9272  04                 const type 4
9273  13                 string size (19)
9274  43757272656E7443+  "CurrentC"
927C  6F6D62696E617469+  "ombinati"
9284  6F6E00             "on\0"
                         const [59]: "CurrentCombination"
9287  04                 const type 4
9288  13                 string size (19)
9289  436F6D62696E6174+  "Combinat"
9291  696F6E486973746F+  "ionHisto"
9299  727900             "ry\0"
                         const [60]: "CombinationHistory"
929C  04                 const type 4
929D  05                 string size (5)
929E  48696E7400         "Hint\0"
                         const [61]: "Hint"
92A3  04                 const type 4
92A4  0B                 string size (11)
92A5  5570677261646542+  "UpgradeB"
92AD  746E00             "tn\0"
                         const [62]: "UpgradeBtn"
92B0  04                 const type 4
92B1  10                 string size (16)
92B2  414E43484F525F56+  "ANCHOR_V"
92BA  5F424F54544F4D00   "_BOTTOM\0"
                         const [63]: "ANCHOR_V_BOTTOM"
92C2  01                 const type 3
92C3  E999708C           const [64]: (-1938777623)
92C7  01                 const type 3
92C8  E1D595F5           const [65]: (-174729759)
92CC  01                 const type 3
92CD  659D06EE           const [66]: (-301556379)
92D1  01                 const type 3
92D2  94239925           const [67]: (630793108)
92D6  04                 const type 4
92D7  03                 string size (3)
92D8  5F4700             "_G\0"
                         const [68]: "_G"
92DB  04                 const type 4
92DC  0D                 string size (13)
92DD  5549536F756E645F+  "UISound_"
92E5  4F70656E00         "Open\0"
                         const [69]: "UISound_Open"
92EA  04                 const type 4
92EB  0F                 string size (15)
92EC  53686F774261636B+  "ShowBack"
92F4  67726F756E6400     "ground\0"
                         const [70]: "ShowBackground"
92FB  01                 const type 3
92FC  36DCBD17           const [71]: (398318646)
9300  03                 const type 3
9301  0000803E           const [72]: (0)
9305  04                 const type 4
9306  15                 string size (21)
9307  5365745371756164+  "SetSquad"
930F  4F7665726C617954+  "OverlayT"
9317  69746C6500         "itle\0"
                         const [73]: "SetSquadOverlayTitle"
931C  01                 const type 3
931D  BD00A356           const [74]: (1453523133)
9321  01                 const type 3
9322  D40BDB05           const [75]: (98241492)
9326  04                 const type 4
9327  25                 string size (37)
9328  2F4C6F7475732F4C+  "/Lotus/L"
9330  616E67756167652F+  "anguage/"
9338  4D656E752F50726F+  "Menu/Pro"
9340  66696C655F50726F+  "file_Pro"
9348  66696C6500         "file\0"
                         const [76]: "/Lotus/Language/Menu/Profile_Profile"
934D  04                 const type 4
934E  2D                 string size (45)
934F  2F4C6F7475732F4C+  "/Lotus/L"
9357  616E67756167652F+  "anguage/"
935F  4B696E6770696E73+  "Kingpins"
9367  2F4E656D65736973+  "/Nemesis"
936F  5669657765725F54+  "Viewer_T"
9377  69746C6500         "itle\0"
                         const [77]: "/Lotus/Language/Kingpins/NemesisViewer_Title"
937C  04                 const type 4
937D  28                 string size (40)
937E  4C6F7475732E496E+  "Lotus.In"
9386  746572666163652E+  "terface."
938E  436F6D706F6E656E+  "Componen"
9396  74732E5468656D65+  "ts.Theme"
939E  64427574746F6E00   "dButton\0"
                         const [78]: "Lotus.Interface.Components.ThemedButton"
93A6  04                 const type 4
93A7  32                 string size (50)
93A8  2F4C6F7475732F4C+  "/Lotus/L"
93B0  616E67756167652F+  "anguage/"
93B8  4B696E6770696E73+  "Kingpins"
93C0  2F4E656D65736973+  "/Nemesis"
93C8  566965775F557067+  "View_Upg"
93D0  726164654B6E6966+  "radeKnif"
93D8  6500               "e\0"
                         const [79]: "/Lotus/Language/Kingpins/NemesisView_UpgradeKnife"
93DA  04                 const type 4
93DB  0D                 string size (13)
93DC  557067726164654B+  "UpgradeK"
93E4  6E69666500         "nife\0"
                         const [80]: "UpgradeKnife"
93E9  04                 const type 4
93EA  10                 string size (16)
93EB  3C4D454E555F4745+  "<MENU_GE"
93F3  4E45524943323E00   "NERIC2>\0"
                         const [81]: "<MENU_GENERIC2>"
93FB  01                 const type 3
93FC  E700B4A8           const [82]: (-1464598297)
9400  01                 const type 3
9401  F4501A88           const [83]: (-2011541260)
9405  03                 const type 3
9406  00005C43           const [84]: (0)
940A  01                 const type 3
940B  F4BA7064           const [85]: (1685109492)
940F  04                 const type 4
9410  15                 string size (21)
9411  5261676542617243+  "RageBarC"
9419  6F6E7461696E6572+  "ontainer"
9421  2E42617200         ".Bar\0"
                         const [86]: "RageBarContainer.Bar"
9426  04                 const type 4
9427  0C                 string size (12)
9428  494E444946464552+  "INDIFFER"
9430  454E5400           "ENT\0"
                         const [87]: "INDIFFERENT"
9434  04                 const type 4
9435  11                 string size (17)
9436  4261736555706461+  "BaseUpda"
943E  7465436F6C6F7273+  "teColors"
9446  00                 "\0"
                         const [88]: "BaseUpdateColors"
9447  04                 const type 4
9448  0D                 string size (13)
9449  557064617465436F+  "UpdateCo"
9451  6C6F727300         "lors\0"
                         const [89]: "UpdateColors"
9456  04                 const type 4
9457  0B                 string size (11)
9458  4261736552657369+  "BaseResi"
9460  7A6500             "ze\0"
                         const [90]: "BaseResize"
9463  04                 const type 4
9464  07                 string size (7)
9465  526573697A6500     "Resize\0"
                         const [91]: "Resize"
946C  04                 const type 4
946D  0A                 string size (10)
946E  6D466F6E7453697A+  "mFontSiz"
9476  6500               "e\0"
                         const [92]: "mFontSize"
9478  03                 const type 3
9479  00000842           const [93]: (0)
947D  04                 const type 4
947E  0E                 string size (14)
947F  6D4C6162656C594F+  "mLabelYO"
9487  666673657400       "ffset\0"
                         const [94]: "mLabelYOffset"
948D  03                 const type 3
948E  000010C1           const [95]: (0)
9492  03                 const type 3
9493  0000FA43           const [96]: (0)
9497  01                 const type 3
9498  70C6CDE8           const [97]: (-389167504)
949C  04                 const type 4
949D  0F                 string size (15)
949E  43454E5445525F41+  "CENTER_A"
94A6  4C49474E454400     "LIGNED\0"
                         const [98]: "CENTER_ALIGNED"
94AD  01                 const type 3
94AE  D7261F7E           const [99]: (2115970775)
94B2  04                 const type 4
94B3  21                 string size (33)
94B4  5261676542617243+  "RageBarC"
94BC  6F6E7461696E6572+  "ontainer"
94C4  2E4261722E46696C+  ".Bar.Fil"
94CC  6C4361704C656674+  "lCapLeft"
94D4  00                 "\0"
                         const [100]: "RageBarContainer.Bar.FillCapLeft"
94D5  04                 const type 4
94D6  1A                 string size (26)
94D7  55494D6174657269+  "UIMateri"
94DF  616C5F5669747275+  "al_Vitru"
94E7  7669616E4C696E65+  "vianLine"
94EF  7300               "s\0"
                         const [101]: "UIMaterial_VitruvianLines"
94F1  04                 const type 4
94F2  22                 string size (34)
94F3  5261676542617243+  "RageBarC"
94FB  6F6E7461696E6572+  "ontainer"
9503  2E4261722E46696C+  ".Bar.Fil"
950B  6C43617052696768+  "lCapRigh"
9513  7400               "t\0"
                         const [102]: "RageBarContainer.Bar.FillCapRight"
9515  04                 const type 4
9516  1A                 string size (26)
9517  5261676542617243+  "RageBarC"
951F  6F6E7461696E6572+  "ontainer"
9527  2E4261722E46696C+  ".Bar.Fil"
952F  6C00               "l\0"
                         const [103]: "RageBarContainer.Bar.Fill"
9531  03                 const type 3
9532  00000000           const [104]: (0)
9536  04                 const type 4
9537  08                 string size (8)
9538  5F787363616C6500   "_xscale\0"
                         const [105]: "_xscale"
9540  03                 const type 3
9541  00005442           const [106]: (0)
9545  04                 const type 4
9546  08                 string size (8)
9547  5F797363616C6500   "_yscale\0"
                         const [107]: "_yscale"
954F  04                 const type 4
9550  0F                 string size (15)
9551  506F7055702E436C+  "PopUp.Cl"
9559  6F7564546F7000     "oudTop\0"
                         const [108]: "PopUp.CloudTop"
9560  04                 const type 4
9561  0E                 string size (14)
9562  736D6F6B654D6174+  "smokeMat"
956A  657269616C00       "erial\0"
                         const [109]: "smokeMaterial"
9570  04                 const type 4
9571  12                 string size (18)
9572  506F7055702E436C+  "PopUp.Cl"
957A  6F7564426F74746F+  "oudBotto"
9582  6D00               "m\0"
                         const [110]: "PopUp.CloudBottom"
9584  04                 const type 4
9585  10                 string size (16)
9586  506F7055702E436C+  "PopUp.Cl"
958E  6F7564446F747300   "oudDots\0"
                         const [111]: "PopUp.CloudDots"
9596  04                 const type 4
9597  0D                 string size (13)
9598  6B7576614D617465+  "kuvaMate"
95A0  7269616C00         "rial\0"
                         const [112]: "kuvaMaterial"
95A5  04                 const type 4
95A6  16                 string size (22)
95A7  506F7075702E426F+  "Popup.Bo"
95AF  74746F6D416E696D+  "ttomAnim"
95B7  6174696F6E00       "ation\0"
                         const [113]: "Popup.BottomAnimation"
95BD  04                 const type 4
95BE  09                 string size (9)
95BF  5F76697369626C65+  "_visible"
95C7  00                 "\0"
                         const [114]: "_visible"
95C8  04                 const type 4
95C9  15                 string size (21)
95CA  4C696E6573436F6E+  "LinesCon"
95D2  7461696E65722E4C+  "tainer.L"
95DA  696E657300         "ines\0"
                         const [115]: "LinesContainer.Lines"
95DF  04                 const type 4
95E0  03                 string size (3)
95E1  5F7800             "_x\0"
                         const [116]: "_x"
95E4  03                 const type 3
95E5  000020C2           const [117]: (0)
95E9  04                 const type 4
95EA  29                 string size (41)
95EB  4C6F7475732E496E+  "Lotus.In"
95F3  746572666163652E+  "terface."
95FB  436F6D706F6E656E+  "Componen"
9603  74732E5468656D65+  "ts.Theme"
960B  645370696E6E6572+  "dSpinner"
9613  00                 "\0"
                         const [118]: "Lotus.Interface.Components.ThemedSpinner"
9614  04                 const type 4
9615  08                 string size (8)
9616  5370696E6E657200   "Spinner\0"
                         const [119]: "Spinner"
961E  01                 const type 3
961F  ACE3A2E2           const [120]: (-492641364)
9623  04                 const type 4
9624  23                 string size (35)
9625  4C6F7475732E496E+  "Lotus.In"
962D  746572666163652E+  "terface."
9635  4C6962732E44696F+  "Libs.Dio"
963D  72616D614C6F6164+  "ramaLoad"
9645  657200             "er\0"
                         const [121]: "Lotus.Interface.Libs.DioramaLoader"
9648  01                 const type 3
9649  2A2642C0           const [122]: (-1069406678)
964D  01                 const type 3
964E  62984C6B           const [123]: (1800181858)
9652  01                 const type 3
9653  DEAD95F5           const [124]: (-174740002)
9657  01                 const type 3
9658  0B477B6B           const [125]: (1803241227)
965C  04                 const type 4
965D  06                 string size (6)
965E  5F726F6F7400       "_root\0"
                         const [126]: "_root"
9664  04                 const type 4
9665  08                 string size (8)
9666  5F786D6F75736500   "_xmouse\0"
                         const [127]: "_xmouse"
966E  04                 const type 4
966F  08                 string size (8)
9670  5F796D6F75736500   "_ymouse\0"
                         const [128]: "_ymouse"
9678  04                 const type 4
9679  15                 string size (21)
967A  4E656D657369735F+  "Nemesis_"
9682  486973746F727945+  "HistoryE"
968A  6E74727900         "ntry\0"
                         const [129]: "Nemesis_HistoryEntry"
968F  04                 const type 4
9690  0A                 string size (10)
9691  6747616D65446174+  "gGameDat"
9699  6100               "a\0"
                         const [130]: "gGameData"
969B  01                 const type 3
969C  958D3517           const [131]: (389385621)
96A0  01                 const type 3
96A1  27003F0B           const [132]: (188678183)
96A5  01                 const type 3
96A6  8F8E0217           const [133]: (386043535)
96AA  04                 const type 4
96AB  1D                 string size (29)
96AC  436F6D62696E6174+  "Combinat"
96B4  696F6E486973746F+  "ionHisto"
96BC  72792E48696E742E+  "ry.Hint."
96C4  7465787400         "text\0"
                         const [134]: "CombinationHistory.Hint.text"
96C9  04                 const type 4
96CA  33                 string size (51)
96CB  2F4C6F7475732F4C+  "/Lotus/L"
96D3  616E67756167652F+  "anguage/"
96DB  4B696E6770696E73+  "Kingpins"
96E3  2F4E656D65736973+  "/Nemesis"
96EB  566965775F4E6F48+  "View_NoH"
96F3  6973746F72794869+  "istoryHi"
96FB  6E7400             "nt\0"
                         const [135]: "/Lotus/Language/Kingpins/NemesisView_NoHistoryHint"
96FE  04                 const type 4
96FF  0A                 string size (10)
9700  4C4943485F4E414D+  "LICH_NAM"
9708  4500               "E\0"
                         const [136]: "LICH_NAME"
970A  04                 const type 4
970B  06                 string size (6)
970C  6D4E616D6500       "mName\0"
                         const [137]: "mName"
9712  01                 const type 3
9713  28C4DC84           const [138]: (-2065906648)
9717  01                 const type 3
9718  A8915762           const [139]: (1649906088)
971C  04                 const type 4
971D  16                 string size (22)
971E  55495F4D4F44455F+  "UI_MODE_"
9726  494E5F5350414345+  "IN_SPACE"
972E  5F5348495000       "_SHIP\0"
                         const [140]: "UI_MODE_IN_SPACE_SHIP"
9734  04                 const type 4
9735  15                 string size (21)
9736  55495F4D4F44455F+  "UI_MODE_"
973E  494E5F5350414345+  "IN_SPACE"
9746  5F48554200         "_HUB\0"
                         const [141]: "UI_MODE_IN_SPACE_HUB"
                         * functions:
974B  02                 sizep (2)
                         
974C                     ** function [0] definition (level 3)
                         ** start of function **
974C  00                 string size (0)
                         source name: (none)
974E  08                 line defined (1119)
974F  EB                 last line defined (1131)
9750  08                 nups (1)
9751  01                 numparams (1)
9752  01                 is_vararg (0)
9753  00                 maxstacksize (9)
                         * code:
9755  35                 sizecode (53)
9756  64004000           [01] self       1   0   256  ; 1121590160
975A  62400001           [02] call       1   2   1  
975E  4E404000           [03] gettable   1   0   257  ; "mClipName"
9762  93000000           [04] getupval   2   0      
9766  8E804001           [05] gettable   2   2   258  ; -576482948
976A  DDC00000           [06] getglobal  3   3        ; Lotus_Game
976E  CE00C101           [07] gettable   3   3   260  ; "UIStyle_Negative"
9772  17018000           [08] loadbool   4   1   0    ; true
9776  A2808001           [09] call       2   3   2  
977A  0C80C182           [10] settable   0   261 262  ; "mInnerAlpha" 0
977E  DDC00100           [11] getglobal  3   7        ; mMovie
9782  E400C201           [12] self       3   3   264  ; -2013161817
9786  52018000           [13] move       5   1      
978A  99410200           [14] loadk      6   9        ; "Fill"
978E  D9810200           [15] loadk      7   10       ; "_color"
9792  12020001           [16] move       8   2      
9796  E2400003           [17] call       3   6   1  
979A  DDC00100           [18] getglobal  3   7        ; mMovie
979E  E400C201           [19] self       3   3   264  ; -2013161817
97A2  52018000           [20] move       5   1      
97A6  99410200           [21] loadk      6   9        ; "Fill"
97AA  D9C10200           [22] loadk      7   11       ; "_alpha"
97AE  0E424100           [23] gettable   8   0   261  ; "mInnerAlpha"
97B2  E2400003           [24] call       3   6   1  
97B6  DDC00100           [25] getglobal  3   7        ; mMovie
97BA  E400C201           [26] self       3   3   264  ; -2013161817
97BE  52018000           [27] move       5   1      
97C2  99010300           [28] loadk      6   12       ; "FillCapLeft"
97C6  D9810200           [29] loadk      7   10       ; "_color"
97CA  12020001           [30] move       8   2      
97CE  E2400003           [31] call       3   6   1  
97D2  DDC00100           [32] getglobal  3   7        ; mMovie
97D6  E400C201           [33] self       3   3   264  ; -2013161817
97DA  52018000           [34] move       5   1      
97DE  99010300           [35] loadk      6   12       ; "FillCapLeft"
97E2  D9C10200           [36] loadk      7   11       ; "_alpha"
97E6  0E424100           [37] gettable   8   0   261  ; "mInnerAlpha"
97EA  E2400003           [38] call       3   6   1  
97EE  DDC00100           [39] getglobal  3   7        ; mMovie
97F2  E400C201           [40] self       3   3   264  ; -2013161817
97F6  52018000           [41] move       5   1      
97FA  99410300           [42] loadk      6   13       ; "FillCapRight"
97FE  D9810200           [43] loadk      7   10       ; "_color"
9802  12020001           [44] move       8   2      
9806  E2400003           [45] call       3   6   1  
980A  DDC00100           [46] getglobal  3   7        ; mMovie
980E  E400C201           [47] self       3   3   264  ; -2013161817
9812  52018000           [48] move       5   1      
9816  99410300           [49] loadk      6   13       ; "FillCapRight"
981A  D9C10200           [50] loadk      7   11       ; "_alpha"
981E  0E424100           [51] gettable   8   0   261  ; "mInnerAlpha"
9822  E2400003           [52] call       3   6   1  
9826  1E008000           [53] return     0   1      
                         * constants:
982A  0E                 sizek (14)
982B  01                 const type 3
982C  901BDA42           const [0]: (1121590160)
9830  04                 const type 4
9831  0A                 string size (10)
9832  6D436C69704E616D+  "mClipNam"
983A  6500               "e\0"
                         const [1]: "mClipName"
983C  01                 const type 3
983D  7C91A3DD           const [2]: (-576482948)
9841  04                 const type 4
9842  0B                 string size (11)
9843  4C6F7475735F4761+  "Lotus_Ga"
984B  6D6500             "me\0"
                         const [3]: "Lotus_Game"
984E  04                 const type 4
984F  11                 string size (17)
9850  55495374796C655F+  "UIStyle_"
9858  4E65676174697665+  "Negative"
9860  00                 "\0"
                         const [4]: "UIStyle_Negative"
9861  04                 const type 4
9862  0C                 string size (12)
9863  6D496E6E6572416C+  "mInnerAl"
986B  70686100           "pha\0"
                         const [5]: "mInnerAlpha"
986F  03                 const type 3
9870  0000F041           const [6]: (0)
9874  04                 const type 4
9875  07                 string size (7)
9876  6D4D6F76696500     "mMovie\0"
                         const [7]: "mMovie"
987D  01                 const type 3
987E  A7960188           const [8]: (-2013161817)
9882  04                 const type 4
9883  05                 string size (5)
9884  46696C6C00         "Fill\0"
                         const [9]: "Fill"
9889  04                 const type 4
988A  07                 string size (7)
988B  5F636F6C6F7200     "_color\0"
                         const [10]: "_color"
9892  04                 const type 4
9893  07                 string size (7)
9894  5F616C70686100     "_alpha\0"
                         const [11]: "_alpha"
989B  04                 const type 4
989C  0C                 string size (12)
989D  46696C6C4361704C+  "FillCapL"
98A5  65667400           "eft\0"
                         const [12]: "FillCapLeft"
98A9  04                 const type 4
98AA  0D                 string size (13)
98AB  46696C6C43617052+  "FillCapR"
98B3  6967687400         "ight\0"
                         const [13]: "FillCapRight"
                         * functions:
98B8  00                 sizep (0)
                         * lines:
98B9  35                 sizelineinfo (53)
                         [pc] (line)
98BA  60                 [01] (96)
98BB  04                 [02] (96)
98BC  00                 [03] (98)
98BD  00                 [04] (99)
98BE  60                 [05] (99)
98BF  04                 [06] (99)
98C0  00                 [07] (99)
98C1  00                 [08] (99)
98C2  62                 [09] (99)
98C3  04                 [10] (100)
98C4  00                 [11] (101)
98C5  00                 [12] (101)
98C6  63                 [13] (101)
98C7  04                 [14] (101)
98C8  00                 [15] (101)
98C9  00                 [16] (101)
98CA  63                 [17] (101)
98CB  04                 [18] (102)
98CC  00                 [19] (102)
98CD  00                 [20] (102)
98CE  63                 [21] (102)
98CF  04                 [22] (102)
98D0  00                 [23] (102)
98D1  00                 [24] (102)
98D2  63                 [25] (103)
98D3  04                 [26] (103)
98D4  00                 [27] (103)
98D5  00                 [28] (103)
98D6  63                 [29] (103)
98D7  04                 [30] (103)
98D8  00                 [31] (103)
98D9  00                 [32] (104)
98DA  63                 [33] (104)
98DB  04                 [34] (104)
98DC  00                 [35] (104)
98DD  00                 [36] (104)
98DE  64                 [37] (104)
98DF  04                 [38] (104)
98E0  00                 [39] (105)
98E1  00                 [40] (105)
98E2  65                 [41] (105)
98E3  04                 [42] (105)
98E4  00                 [43] (105)
98E5  00                 [44] (105)
98E6  65                 [45] (105)
98E7  04                 [46] (106)
98E8  00                 [47] (106)
98E9  00                 [48] (106)
98EA  65                 [49] (106)
98EB  04                 [50] (106)
98EC  00                 [51] (106)
98ED  00                 [52] (106)
98EE  65                 [53] (107)
                         * locals:
998E  00                 sizelocvars (0)
                         * upvalues:
998F  00                 sizeupvalues (0)
                         ** end of function **

                         
9990                     ** function [1] definition (level 3)
                         ** start of function **
9990  00                 string size (0)
                         source name: (none)
9992  08                 line defined (1134)
9993  F7                 last line defined (1143)
9994  08                 nups (0)
9995  00                 numparams (1)
9996  01                 is_vararg (0)
9997  00                 maxstacksize (9)
                         * code:
9999  1A                 sizecode (26)
999A  64004000           [01] self       1   0   256  ; 1854917242
999E  62400001           [02] call       1   2   1  
99A2  4E404000           [03] gettable   1   0   257  ; "mClipName"
99A6  8E804000           [04] gettable   2   0   258  ; "mWidth"
99AA  DDC00000           [05] getglobal  3   3        ; mMovie
99AE  E400C101           [06] self       3   3   260  ; -2013161817
99B2  52018000           [07] move       5   1      
99B6  99410100           [08] loadk      6   5        ; "Fill"
99BA  D9810100           [09] loadk      7   6        ; "_width"
99BE  03C24101           [10] add        8   2   263  ; 0
99C2  E2400003           [11] call       3   6   1  
99C6  DDC00000           [12] getglobal  3   3        ; mMovie
99CA  E400C101           [13] self       3   3   260  ; -2013161817
99CE  52018000           [14] move       5   1      
99D2  99410100           [15] loadk      6   5        ; "Fill"
99D6  D9010200           [16] loadk      7   8        ; "_height"
99DA  0E424200           [17] gettable   8   0   265  ; "mHeight"
99DE  E2400003           [18] call       3   6   1  
99E2  DDC00000           [19] getglobal  3   3        ; mMovie
99E6  E400C101           [20] self       3   3   260  ; -2013161817
99EA  52018000           [21] move       5   1      
99EE  99810200           [22] loadk      6   10       ; "FillCapRight"
99F2  D9C10200           [23] loadk      7   11       ; "_x"
99F6  03024301           [24] add        8   2   268  ; 0
99FA  E2400003           [25] call       3   6   1  
99FE  1E008000           [26] return     0   1      
                         * constants:
9A02  0D                 sizek (13)
9A03  01                 const type 3
9A04  7ACA8F6E           const [0]: (1854917242)
9A08  04                 const type 4
9A09  0A                 string size (10)
9A0A  6D436C69704E616D+  "mClipNam"
9A12  6500               "e\0"
                         const [1]: "mClipName"
9A14  04                 const type 4
9A15  07                 string size (7)
9A16  6D576964746800     "mWidth\0"
                         const [2]: "mWidth"
9A1D  04                 const type 4
9A1E  07                 string size (7)
9A1F  6D4D6F76696500     "mMovie\0"
                         const [3]: "mMovie"
9A26  01                 const type 3
9A27  A7960188           const [4]: (-2013161817)
9A2B  04                 const type 4
9A2C  05                 string size (5)
9A2D  46696C6C00         "Fill\0"
                         const [5]: "Fill"
9A32  04                 const type 4
9A33  07                 string size (7)
9A34  5F776964746800     "_width\0"
                         const [6]: "_width"
9A3B  03                 const type 3
9A3C  00000040           const [7]: (0)
9A40  04                 const type 4
9A41  08                 string size (8)
9A42  5F68656967687400   "_height\0"
                         const [8]: "_height"
9A4A  04                 const type 4
9A4B  08                 string size (8)
9A4C  6D48656967687400   "mHeight\0"
                         const [9]: "mHeight"
9A54  04                 const type 4
9A55  0D                 string size (13)
9A56  46696C6C43617052+  "FillCapR"
9A5E  6967687400         "ight\0"
                         const [10]: "FillCapRight"
9A63  04                 const type 4
9A64  03                 string size (3)
9A65  5F7800             "_x\0"
                         const [11]: "_x"
9A68  03                 const type 3
9A69  00008442           const [12]: (0)
                         * functions:
9A6D  00                 sizep (0)
                         * lines:
9A6E  1A                 sizelineinfo (26)
                         [pc] (line)
9A6F  6F                 [01] (111)
9A70  04                 [02] (111)
9A71  00                 [03] (113)
9A72  00                 [04] (114)
9A73  6F                 [05] (116)
9A74  04                 [06] (116)
9A75  00                 [07] (116)
9A76  00                 [08] (116)
9A77  71                 [09] (116)
9A78  04                 [10] (116)
9A79  00                 [11] (116)
9A7A  00                 [12] (117)
9A7B  72                 [13] (117)
9A7C  04                 [14] (117)
9A7D  00                 [15] (117)
9A7E  00                 [16] (117)
9A7F  74                 [17] (117)
9A80  04                 [18] (117)
9A81  00                 [19] (118)
9A82  00                 [20] (118)
9A83  74                 [21] (118)
9A84  04                 [22] (118)
9A85  00                 [23] (118)
9A86  00                 [24] (118)
9A87  74                 [25] (118)
9A88  04                 [26] (119)
                         * locals:
9AD7  00                 sizelocvars (0)
                         * upvalues:
9AD8  00                 sizeupvalues (0)
                         ** end of function **

                         * lines:
9ADA  04                 sizelineinfo (618)
                         [pc] (line)
9ADB  16                 [001] (22)
9ADC  04                 [002] (24)
9ADD  00                 [003] (24)
9ADE  00                 [004] (24)
9ADF  18                 [005] (24)
9AE0  04                 [006] (24)
9AE1  00                 [007] (24)
9AE2  00                 [008] (24)
9AE3  18                 [009] (25)
9AE4  04                 [010] (25)
9AE5  00                 [011] (25)
9AE6  00                 [012] (25)
9AE7  18                 [013] (25)
9AE8  04                 [014] (25)
9AE9  00                 [015] (26)
9AEA  00                 [016] (26)
9AEB  18                 [017] (26)
9AEC  04                 [018] (26)
9AED  00                 [019] (26)
9AEE  00                 [020] (26)
9AEF  18                 [021] (26)
9AF0  04                 [022] (27)
9AF1  00                 [023] (27)
9AF2  00                 [024] (27)
9AF3  18                 [025] (27)
9AF4  04                 [026] (27)
9AF5  00                 [027] (27)
9AF6  00                 [028] (28)
9AF7  18                 [029] (28)
9AF8  04                 [030] (28)
9AF9  00                 [031] (28)
9AFA  00                 [032] (28)
9AFB  19                 [033] (28)
9AFC  04                 [034] (28)
9AFD  00                 [035] (29)
9AFE  00                 [036] (29)
9AFF  19                 [037] (29)
9B00  04                 [038] (29)
9B01  00                 [039] (29)
9B02  00                 [040] (29)
9B03  19                 [041] (30)
9B04  04                 [042] (30)
9B05  00                 [043] (30)
9B06  00                 [044] (30)
9B07  19                 [045] (30)
9B08  04                 [046] (30)
9B09  00                 [047] (30)
9B0A  00                 [048] (31)
9B0B  19                 [049] (31)
9B0C  04                 [050] (31)
9B0D  00                 [051] (31)
9B0E  00                 [052] (31)
9B0F  19                 [053] (31)
9B10  04                 [054] (31)
9B11  00                 [055] (32)
9B12  00                 [056] (32)
9B13  1A                 [057] (32)
9B14  04                 [058] (32)
9B15  00                 [059] (32)
9B16  00                 [060] (32)
9B17  1A                 [061] (32)
9B18  04                 [062] (33)
9B19  00                 [063] (33)
9B1A  00                 [064] (33)
9B1B  1A                 [065] (33)
9B1C  04                 [066] (33)
9B1D  00                 [067] (33)
9B1E  00                 [068] (34)
9B1F  1A                 [069] (34)
9B20  04                 [070] (34)
9B21  00                 [071] (34)
9B22  00                 [072] (34)
9B23  1A                 [073] (34)
9B24  04                 [074] (35)
9B25  00                 [075] (35)
9B26  00                 [076] (35)
9B27  1A                 [077] (35)
9B28  04                 [078] (35)
9B29  00                 [079] (35)
9B2A  00                 [080] (35)
9B2B  1A                 [081] (36)
9B2C  04                 [082] (36)
9B2D  00                 [083] (36)
9B2E  00                 [084] (36)
9B2F  1B                 [085] (36)
9B30  04                 [086] (36)
9B31  00                 [087] (37)
9B32  00                 [088] (39)
9B33  1B                 [089] (39)
9B34  04                 [090] (39)
9B35  00                 [091] (39)
9B36  00                 [092] (39)
9B37  1B                 [093] (39)
9B38  04                 [094] (39)
9B39  00                 [095] (40)
9B3A  00                 [096] (40)
9B3B  1B                 [097] (40)
9B3C  04                 [098] (40)
9B3D  00                 [099] (40)
9B3E  00                 [100] (40)
9B3F  1B                 [101] (40)
9B40  04                 [102] (42)
9B41  00                 [103] (42)
9B42  00                 [104] (42)
9B43  1B                 [105] (42)
9B44  04                 [106] (43)
9B45  00                 [107] (43)
9B46  00                 [108] (43)
9B47  1C                 [109] (46)
9B48  04                 [110] (46)
9B49  00                 [111] (46)
9B4A  00                 [112] (47)
9B4B  1C                 [113] (47)
9B4C  04                 [114] (48)
9B4D  00                 [115] (48)
9B4E  00                 [116] (48)
9B4F  1C                 [117] (48)
9B50  04                 [118] (48)
9B51  00                 [119] (48)
9B52  00                 [120] (48)
9B53  1C                 [121] (48)
9B54  04                 [122] (49)
9B55  00                 [123] (49)
9B56  00                 [124] (49)
9B57  1C                 [125] (49)
9B58  04                 [126] (50)
9B59  00                 [127] (50)
9B5A  00                 [128] (50)
9B5B  1C                 [129] (50)
9B5C  04                 [130] (53)
9B5D  00                 [131] (53)
9B5E  00                 [132] (53)
9B5F  1C                 [133] (53)
9B60  04                 [134] (54)
9B61  00                 [135] (54)
9B62  00                 [136] (54)
9B63  1D                 [137] (54)
9B64  04                 [138] (56)
9B65  00                 [139] (56)
9B66  00                 [140] (56)
9B67  1D                 [141] (57)
9B68  04                 [142] (57)
9B69  00                 [143] (57)
9B6A  00                 [144] (60)
9B6B  1D                 [145] (60)
9B6C  04                 [146] (60)
9B6D  00                 [147] (60)
9B6E  00                 [148] (60)
9B6F  1D                 [149] (60)
9B70  04                 [150] (61)
9B71  00                 [151] (61)
9B72  00                 [152] (61)
9B73  1D                 [153] (61)
9B74  04                 [154] (61)
9B75  00                 [155] (61)
9B76  00                 [156] (61)
9B77  1D                 [157] (63)
9B78  04                 [158] (63)
9B79  00                 [159] (63)
9B7A  00                 [160] (63)
9B7B  1E                 [161] (63)
9B7C  04                 [162] (64)
9B7D  00                 [163] (64)
9B7E  00                 [164] (64)
9B7F  1E                 [165] (64)
9B80  04                 [166] (64)
9B81  00                 [167] (64)
9B82  00                 [168] (64)
9B83  1E                 [169] (64)
9B84  04                 [170] (64)
9B85  00                 [171] (64)
9B86  00                 [172] (64)
9B87  1E                 [173] (65)
9B88  04                 [174] (65)
9B89  00                 [175] (65)
9B8A  00                 [176] (65)
9B8B  1E                 [177] (65)
9B8C  04                 [178] (65)
9B8D  00                 [179] (65)
9B8E  00                 [180] (65)
9B8F  1E                 [181] (65)
9B90  04                 [182] (65)
9B91  00                 [183] (65)
9B92  00                 [184] (66)
9B93  1E                 [185] (66)
9B94  04                 [186] (66)
9B95  00                 [187] (66)
9B96  00                 [188] (66)
9B97  1F                 [189] (66)
9B98  04                 [190] (66)
9B99  00                 [191] (66)
9B9A  00                 [192] (66)
9B9B  1F                 [193] (66)
9B9C  04                 [194] (66)
9B9D  00                 [195] (67)
9B9E  00                 [196] (67)
9B9F  1F                 [197] (67)
9BA0  04                 [198] (67)
9BA1  00                 [199] (67)
9BA2  00                 [200] (67)
9BA3  1F                 [201] (67)
9BA4  04                 [202] (67)
9BA5  00                 [203] (67)
9BA6  00                 [204] (67)
9BA7  1F                 [205] (67)
9BA8  04                 [206] (68)
9BA9  00                 [207] (68)
9BAA  00                 [208] (68)
9BAB  1F                 [209] (68)
9BAC  04                 [210] (68)
9BAD  00                 [211] (68)
9BAE  00                 [212] (68)
9BAF  1F                 [213] (68)
9BB0  04                 [214] (68)
9BB1  00                 [215] (68)
9BB2  00                 [216] (68)
9BB3  20                 [217] (69)
9BB4  04                 [218] (69)
9BB5  00                 [219] (69)
9BB6  00                 [220] (69)
9BB7  20                 [221] (69)
9BB8  04                 [222] (69)
9BB9  00                 [223] (69)
9BBA  00                 [224] (69)
9BBB  20                 [225] (69)
9BBC  04                 [226] (69)
9BBD  00                 [227] (69)
9BBE  00                 [228] (70)
9BBF  20                 [229] (70)
9BC0  04                 [230] (70)
9BC1  00                 [231] (70)
9BC2  00                 [232] (70)
9BC3  20                 [233] (70)
9BC4  04                 [234] (70)
9BC5  00                 [235] (70)
9BC6  00                 [236] (70)
9BC7  20                 [237] (70)
9BC8  04                 [238] (70)
9BC9  00                 [239] (71)
9BCA  00                 [240] (71)
9BCB  20                 [241] (71)
9BCC  04                 [242] (71)
9BCD  00                 [243] (71)
9BCE  00                 [244] (71)
9BCF  21                 [245] (71)
9BD0  04                 [246] (71)
9BD1  00                 [247] (71)
9BD2  00                 [248] (71)
9BD3  21                 [249] (71)
9BD4  04                 [250] (72)
9BD5  00                 [251] (72)
9BD6  00                 [252] (72)
9BD7  21                 [253] (72)
9BD8  04                 [254] (72)
9BD9  00                 [255] (72)
9BDA  00                 [256] (72)
9BDB  21                 [257] (72)
9BDC  04                 [258] (72)
9BDD  00                 [259] (72)
9BDE  00                 [260] (72)
9BDF  21                 [261] (73)
9BE0  04                 [262] (73)
9BE1  00                 [263] (73)
9BE2  00                 [264] (73)
9BE3  21                 [265] (73)
9BE4  04                 [266] (73)
9BE5  00                 [267] (73)
9BE6  00                 [268] (73)
9BE7  22                 [269] (73)
9BE8  04                 [270] (73)
9BE9  00                 [271] (73)
9BEA  00                 [272] (74)
9BEB  22                 [273] (74)
9BEC  04                 [274] (74)
9BED  00                 [275] (74)
9BEE  00                 [276] (74)
9BEF  22                 [277] (74)
9BF0  04                 [278] (74)
9BF1  00                 [279] (74)
9BF2  00                 [280] (74)
9BF3  22                 [281] (74)
9BF4  04                 [282] (74)
9BF5  00                 [283] (75)
9BF6  00                 [284] (75)
9BF7  22                 [285] (75)
9BF8  04                 [286] (75)
9BF9  00                 [287] (75)
9BFA  00                 [288] (75)
9BFB  22                 [289] (75)
9BFC  04                 [290] (75)
9BFD  00                 [291] (75)
9BFE  00                 [292] (77)
9BFF  23                 [293] (77)
9C00  04                 [294] (77)
9C01  00                 [295] (77)
9C02  00                 [296] (77)
9C03  23                 [297] (78)
9C04  04                 [298] (78)
9C05  00                 [299] (78)
9C06  00                 [300] (78)
9C07  23                 [301] (78)
9C08  04                 [302] (78)
9C09  00                 [303] (79)
9C0A  00                 [304] (79)
9C0B  23                 [305] (79)
9C0C  04                 [306] (79)
9C0D  00                 [307] (82)
9C0E  00                 [308] (82)
9C0F  23                 [309] (82)
9C10  04                 [310] (82)
9C11  00                 [311] (82)
9C12  00                 [312] (82)
9C13  23                 [313] (83)
9C14  04                 [314] (83)
9C15  00                 [315] (83)
9C16  00                 [316] (83)
9C17  23                 [317] (83)
9C18  04                 [318] (83)
9C19  00                 [319] (83)
9C1A  00                 [320] (83)
9C1B  24                 [321] (83)
9C1C  04                 [322] (83)
9C1D  00                 [323] (83)
9C1E  00                 [324] (83)
9C1F  24                 [325] (83)
9C20  04                 [326] (86)
9C21  00                 [327] (86)
9C22  00                 [328] (86)
9C23  24                 [329] (87)
9C24  04                 [330] (87)
9C25  00                 [331] (87)
9C26  00                 [332] (87)
9C27  24                 [333] (87)
9C28  04                 [334] (87)
9C29  00                 [335] (87)
9C2A  00                 [336] (87)
9C2B  24                 [337] (88)
9C2C  04                 [338] (88)
9C2D  00                 [339] (88)
9C2E  00                 [340] (89)
9C2F  24                 [341] (89)
9C30  04                 [342] (89)
9C31  00                 [343] (89)
9C32  00                 [344] (90)
9C33  25                 [345] (90)
9C34  04                 [346] (90)
9C35  00                 [347] (92)
9C36  00                 [348] (92)
9C37  27                 [349] (92)
9C38  04                 [350] (92)
9C39  00                 [351] (92)
9C3A  00                 [352] (92)
9C3B  27                 [353] (93)
9C3C  04                 [354] (93)
9C3D  00                 [355] (93)
9C3E  00                 [356] (93)
9C3F  27                 [357] (94)
9C40  04                 [358] (107)
9C41  00                 [359] (107)
9C42  00                 [360] (107)
9C43  27                 [361] (108)
9C44  04                 [362] (108)
9C45  00                 [363] (108)
9C46  00                 [364] (108)
9C47  27                 [365] (109)
9C48  04                 [366] (119)
9C49  00                 [367] (119)
9C4A  00                 [368] (120)
9C4B  27                 [369] (120)
9C4C  04                 [370] (121)
9C4D  00                 [371] (121)
9C4E  00                 [372] (122)
9C4F  27                 [373] (122)
9C50  04                 [374] (122)
9C51  00                 [375] (123)
9C52  00                 [376] (123)
9C53  28                 [377] (123)
9C54  04                 [378] (123)
9C55  00                 [379] (124)
9C56  00                 [380] (124)
9C57  28                 [381] (124)
9C58  04                 [382] (124)
9C59  00                 [383] (124)
9C5A  00                 [384] (125)
9C5B  28                 [385] (125)
9C5C  04                 [386] (125)
9C5D  00                 [387] (126)
9C5E  00                 [388] (126)
9C5F  28                 [389] (-128)
9C60  04                 [390] (-128)
9C61  00                 [391] (-128)
9C62  00                 [392] (-128)
9C63  28                 [393] (-128)
9C64  04                 [394] (-128)
9C65  00                 [395] (-127)
9C66  00                 [396] (-127)
9C67  28                 [397] (-127)
9C68  04                 [398] (-127)
9C69  00                 [399] (-127)
9C6A  00                 [400] (-127)
9C6B  28                 [401] (-126)
9C6C  04                 [402] (-126)
9C6D  00                 [403] (-126)
9C6E  00                 [404] (-126)
9C6F  2A                 [405] (-126)
9C70  04                 [406] (-126)
9C71  00                 [407] (-125)
9C72  00                 [408] (-125)
9C73  2A                 [409] (-125)
9C74  04                 [410] (-125)
9C75  00                 [411] (-125)
9C76  00                 [412] (-125)
9C77  2A                 [413] (-124)
9C78  04                 [414] (-124)
9C79  00                 [415] (-124)
9C7A  00                 [416] (-124)
9C7B  2A                 [417] (-124)
9C7C  04                 [418] (-124)
9C7D  00                 [419] (-123)
9C7E  00                 [420] (-123)
9C7F  2B                 [421] (-123)
9C80  04                 [422] (-123)
9C81  00                 [423] (-123)
9C82  00                 [424] (-123)
9C83  2B                 [425] (-121)
9C84  04                 [426] (-121)
9C85  00                 [427] (-120)
9C86  00                 [428] (-120)
9C87  2B                 [429] (-119)
9C88  04                 [430] (-119)
9C89  00                 [431] (-118)
9C8A  00                 [432] (-118)
9C8B  2E                 [433] (-116)
9C8C  04                 [434] (-116)
9C8D  00                 [435] (-116)
9C8E  00                 [436] (-116)
9C8F  2E                 [437] (-116)
9C90  04                 [438] (-115)
9C91  00                 [439] (-115)
9C92  00                 [440] (-115)
9C93  2E                 [441] (-115)
9C94  04                 [442] (-115)
9C95  00                 [443] (-114)
9C96  00                 [444] (-114)
9C97  2F                 [445] (-114)
9C98  04                 [446] (-114)
9C99  00                 [447] (-114)
9C9A  00                 [448] (-113)
9C9B  2F                 [449] (-113)
9C9C  04                 [450] (-113)
9C9D  00                 [451] (-113)
9C9E  00                 [452] (-113)
9C9F  30                 [453] (-113)
9CA0  04                 [454] (-111)
9CA1  00                 [455] (-111)
9CA2  00                 [456] (-111)
9CA3  30                 [457] (-111)
9CA4  04                 [458] (-111)
9CA5  00                 [459] (-111)
9CA6  00                 [460] (-110)
9CA7  30                 [461] (-110)
9CA8  04                 [462] (-110)
9CA9  00                 [463] (-110)
9CAA  00                 [464] (-110)
9CAB  30                 [465] (-110)
9CAC  04                 [466] (-110)
9CAD  00                 [467] (-109)
9CAE  00                 [468] (-109)
9CAF  30                 [469] (-109)
9CB0  04                 [470] (-109)
9CB1  00                 [471] (-109)
9CB2  00                 [472] (-109)
9CB3  30                 [473] (-107)
9CB4  04                 [474] (-107)
9CB5  00                 [475] (-107)
9CB6  00                 [476] (-106)
9CB7  30                 [477] (-106)
9CB8  04                 [478] (-106)
9CB9  00                 [479] (-106)
9CBA  00                 [480] (-106)
9CBB  30                 [481] (-105)
9CBC  04                 [482] (-105)
9CBD  00                 [483] (-105)
9CBE  00                 [484] (-105)
9CBF  31                 [485] (-103)
9CC0  04                 [486] (-103)
9CC1  00                 [487] (-103)
9CC2  00                 [488] (-102)
9CC3  31                 [489] (-102)
9CC4  04                 [490] (-102)
9CC5  00                 [491] (-101)
9CC6  00                 [492] (-101)
9CC7  31                 [493] (-101)
9CC8  04                 [494] (-101)
9CC9  00                 [495] (-98)
9CCA  00                 [496] (-98)
9CCB  31                 [497] (-96)
9CCC  04                 [498] (-96)
9CCD  00                 [499] (-96)
9CCE  00                 [500] (-96)
9CCF  32                 [501] (-95)
9CD0  04                 [502] (-95)
9CD1  00                 [503] (-95)
9CD2  00                 [504] (-95)
9CD3  32                 [505] (-95)
9CD4  04                 [506] (-95)
9CD5  00                 [507] (-95)
9CD6  00                 [508] (-95)
9CD7  32                 [509] (-94)
9CD8  04                 [510] (-94)
9CD9  00                 [511] (-94)
9CDA  00                 [512] (-94)
9CDB  32                 [513] (-94)
9CDC  04                 [514] (-94)
9CDD  00                 [515] (-94)
9CDE  00                 [516] (-94)
9CDF  35                 [517] (-92)
9CE0  04                 [518] (-91)
9CE1  00                 [519] (-91)
9CE2  00                 [520] (-91)
9CE3  35                 [521] (-91)
9CE4  04                 [522] (-91)
9CE5  00                 [523] (-91)
9CE6  00                 [524] (-90)
9CE7  35                 [525] (-90)
9CE8  04                 [526] (-89)
9CE9  00                 [527] (-89)
9CEA  00                 [528] (-88)
9CEB  35                 [529] (-88)
9CEC  04                 [530] (-88)
9CED  00                 [531] (-87)
9CEE  00                 [532] (-87)
9CEF  36                 [533] (-87)
9CF0  04                 [534] (-87)
9CF1  00                 [535] (-87)
9CF2  00                 [536] (-87)
9CF3  36                 [537] (-87)
9CF4  04                 [538] (-87)
9CF5  00                 [539] (-87)
9CF6  00                 [540] (-87)
9CF7  36                 [541] (-87)
9CF8  04                 [542] (-87)
9CF9  00                 [543] (-86)
9CFA  00                 [544] (-86)
9CFB  36                 [545] (-86)
9CFC  04                 [546] (-86)
9CFD  00                 [547] (-84)
9CFE  00                 [548] (-84)
9CFF  38                 [549] (-84)
9D00  04                 [550] (-83)
9D01  00                 [551] (-83)
9D02  00                 [552] (-80)
9D03  38                 [553] (-80)
9D04  04                 [554] (-80)
9D05  00                 [555] (-80)
9D06  00                 [556] (-80)
9D07  38                 [557] (-79)
9D08  04                 [558] (-79)
9D09  00                 [559] (-78)
9D0A  00                 [560] (-78)
9D0B  39                 [561] (-78)
9D0C  04                 [562] (-77)
9D0D  00                 [563] (-77)
9D0E  00                 [564] (-77)
9D0F  39                 [565] (-77)
9D10  04                 [566] (-77)
9D11  00                 [567] (-77)
9D12  00                 [568] (-77)
9D13  39                 [569] (-77)
9D14  04                 [570] (-77)
9D15  00                 [571] (-74)
9D16  00                 [572] (-74)
9D17  3C                 [573] (-74)
9D18  04                 [574] (-73)
9D19  00                 [575] (-73)
9D1A  00                 [576] (-73)
9D1B  3C                 [577] (-73)
9D1C  04                 [578] (-73)
9D1D  00                 [579] (-73)
9D1E  00                 [580] (-73)
9D1F  3C                 [581] (-72)
9D20  04                 [582] (-72)
9D21  00                 [583] (-72)
9D22  00                 [584] (-72)
9D23  3C                 [585] (-72)
9D24  04                 [586] (-72)
9D25  00                 [587] (-72)
9D26  00                 [588] (-71)
9D27  3C                 [589] (-71)
9D28  04                 [590] (-71)
9D29  00                 [591] (-71)
9D2A  00                 [592] (-71)
9D2B  3C                 [593] (-71)
9D2C  04                 [594] (-71)
9D2D  00                 [595] (-70)
9D2E  00                 [596] (-70)
9D2F  3D                 [597] (-70)
9D30  04                 [598] (-70)
9D31  00                 [599] (-70)
9D32  00                 [600] (-70)
9D33  3D                 [601] (-70)
9D34  04                 [602] (-70)
9D35  00                 [603] (-70)
9D36  00                 [604] (-70)
9D37  3D                 [605] (-70)
9D38  04                 [606] (-70)
9D39  00                 [607] (-70)
9D3A  00                 [608] (-70)
9D3B  3D                 [609] (-70)
9D3C  04                 [610] (-70)
9D3D  00                 [611] (-69)
9D3E  00                 [612] (-69)
9D3F  3D                 [613] (-67)
9D40  04                 [614] (-67)
9D41  00                 [615] (-67)
9D42  00                 [616] (-66)
9D43  3D                 [617] (-66)
9D44  04                 [618] (-64)
                         * locals:
A483  00                 sizelocvars (0)
                         * upvalues:
A484  00                 sizeupvalues (0)
                         ** end of function **

                         
A485                     ** function [46] definition (level 2)
                         ** start of function **
A485  00                 string size (0)
                         source name: (none)
A487  09                 line defined (1218)
A488  D3                 last line defined (1235)
A489  09                 nups (2)
A48A  02                 numparams (0)
A48B  00                 is_vararg (0)
A48C  00                 maxstacksize (9)
                         * code:
A48E  19                 sizecode (25)
A48F  1D000000           [01] getglobal  0   0        ; gGameRules
A493  24404000           [02] self       0   0   257  ; -2136864363
A497  22800001           [03] call       0   2   2  
A49B  4E804000           [04] gettable   1   0   258  ; "mTarget"
A49F  93000000           [05] getupval   2   0      
A4A3  8EC04001           [06] gettable   2   2   259  ; -2079289879
A4A7  D2008000           [07] move       3   1      
A4AB  A2800001           [08] call       2   2   2  
A4AF  CBC00000           [09] newtable   3   0   3    ; array=0, hash=3
A4B3  0E414101           [10] gettable   4   2   261  ; "mName"
A4B7  CC000182           [11] settable   3   260 4    ; "name"
A4BB  0EC1C100           [12] gettable   4   1   263  ; "mRank"
A4BF  CC000183           [13] settable   3   262 4    ; "rank"
A4C3  CC404284           [14] settable   3   264 265  ; "faction" "Grineer"
A4C7  0B810000           [15] newtable   4   0   2    ; array=0, hash=2
A4CB  4EC1C200           [16] gettable   5   1   267  ; "mKillingSuit"
A4CF  0C410185           [17] settable   4   266 5    ; "killingPowersuitType"
A4D3  4E41C300           [18] gettable   5   1   269  ; "mBirthNode"
A4D7  0C410186           [19] settable   4   268 5    ; "birthNode"
A4DB  53018000           [20] getupval   5   1      
A4DF  92010001           [21] move       6   2      
A4E3  D2010002           [22] move       7   4      
A4E7  12028001           [23] move       8   3      
A4EB  62410002           [24] call       5   4   1  
A4EF  1E008000           [25] return     0   1      
                         * constants:
A4F3  0E                 sizek (14)
A4F4  04                 const type 4
A4F5  0B                 string size (11)
A4F6  6747616D6552756C+  "gGameRul"
A4FE  657300             "es\0"
                         const [0]: "gGameRules"
A501  01                 const type 3
A502  9509A280           const [1]: (-2136864363)
A506  04                 const type 4
A507  08                 string size (8)
A508  6D54617267657400   "mTarget\0"
                         const [2]: "mTarget"
A510  01                 const type 3
A511  E98D1084           const [3]: (-2079289879)
A515  04                 const type 4
A516  05                 string size (5)
A517  6E616D6500         "name\0"
                         const [4]: "name"
A51C  04                 const type 4
A51D  06                 string size (6)
A51E  6D4E616D6500       "mName\0"
                         const [5]: "mName"
A524  04                 const type 4
A525  05                 string size (5)
A526  72616E6B00         "rank\0"
                         const [6]: "rank"
A52B  04                 const type 4
A52C  06                 string size (6)
A52D  6D52616E6B00       "mRank\0"
                         const [7]: "mRank"
A533  04                 const type 4
A534  08                 string size (8)
A535  66616374696F6E00   "faction\0"
                         const [8]: "faction"
A53D  04                 const type 4
A53E  08                 string size (8)
A53F  4772696E65657200   "Grineer\0"
                         const [9]: "Grineer"
A547  04                 const type 4
A548  15                 string size (21)
A549  6B696C6C696E6750+  "killingP"
A551  6F77657273756974+  "owersuit"
A559  5479706500         "Type\0"
                         const [10]: "killingPowersuitType"
A55E  04                 const type 4
A55F  0D                 string size (13)
A560  6D4B696C6C696E67+  "mKilling"
A568  5375697400         "Suit\0"
                         const [11]: "mKillingSuit"
A56D  04                 const type 4
A56E  0A                 string size (10)
A56F  62697274684E6F64+  "birthNod"
A577  6500               "e\0"
                         const [12]: "birthNode"
A579  04                 const type 4
A57A  0B                 string size (11)
A57B  6D42697274684E6F+  "mBirthNo"
A583  646500             "de\0"
                         const [13]: "mBirthNode"
                         * functions:
A586  00                 sizep (0)
                         * lines:
A587  19                 sizelineinfo (25)
                         [pc] (line)
A588  C3                 [01] (-61)
A589  04                 [02] (-61)
A58A  00                 [03] (-61)
A58B  00                 [04] (-60)
A58C  C3                 [05] (-59)
A58D  04                 [06] (-59)
A58E  00                 [07] (-59)
A58F  00                 [08] (-59)
A590  C3                 [09] (-57)
A591  04                 [10] (-56)
A592  00                 [11] (-56)
A593  00                 [12] (-55)
A594  C4                 [13] (-55)
A595  04                 [14] (-54)
A596  00                 [15] (-51)
A597  00                 [16] (-50)
A598  C5                 [17] (-50)
A599  04                 [18] (-49)
A59A  00                 [19] (-49)
A59B  00                 [20] (-46)
A59C  C5                 [21] (-46)
A59D  04                 [22] (-46)
A59E  00                 [23] (-46)
A59F  00                 [24] (-46)
A5A0  C5                 [25] (-45)
                         * locals:
A5EC  00                 sizelocvars (0)
                         * upvalues:
A5ED  00                 sizeupvalues (0)
                         ** end of function **

                         
A5EE                     ** function [47] definition (level 2)
                         ** start of function **
A5EE  00                 string size (0)
                         source name: (none)
A5F0  09                 line defined (1237)
A5F1  EB                 last line defined (1259)
A5F2  09                 nups (7)
A5F3  07                 numparams (1)
A5F4  01                 is_vararg (0)
A5F5  00                 maxstacksize (4)
                         * code:
A5F7  37                 sizecode (55)
A5F8  53000000           [01] getupval   1   0      
A5FC  58000000           [02] test       1       0    ; to [4] if true
A600  1AC00480           [03] jmp        20           ; to [24]
A604  53008000           [04] getupval   1   1      
A608  6400C000           [05] self       1   1   256  ; 729320363
A60C  62800001           [06] call       1   2   2  
A610  58000000           [07] test       1       0    ; to [9] if true
A614  1A400B80           [08] jmp        46           ; to [55]
A618  57000000           [09] loadbool   1   0   0    ; false
fail op	8
A61C  48000000           [10] setupval   1   0      
A620  53008000           [11] getupval   1   1      
A624  6440C000           [12] self       1   1   257  ; 48435800
A628  62400001           [13] call       1   2   1  
A62C  5D800000           [14] getglobal  1   2        ; 1074689893
A630  9DC00000           [15] getglobal  2   3        ; _T
A634  8E004101           [16] gettable   2   2   260  ; "HideBackground"
A638  62800001           [17] call       1   2   2  
A63C  58400000           [18] test       1       1    ; to [20] if false
A640  1A800880           [19] jmp        35           ; to [55]
A644  5DC00000           [20] getglobal  1   3        ; _T
A648  4E40C100           [21] gettable   1   1   261  ; -1873712487
A64C  62408000           [22] call       1   1   1  
A650  1A800780           [23] jmp        31           ; to [55]
A654  53000001           [24] getupval   1   2      
A658  4E80C100           [25] gettable   1   1   262  ; "IsLoading"
A65C  58000000           [26] test       1       0    ; to [28] if true
A660  1A800680           [27] jmp        27           ; to [55]
A664  5D800000           [28] getglobal  1   2        ; 1074689893
A668  93000001           [29] getupval   2   2      
A66C  8EC04101           [30] gettable   2   2   263  ; "Loader"
A670  62800001           [31] call       1   2   2  
A674  58400000           [32] test       1       1    ; to [34] if false
A678  1A000580           [33] jmp        21           ; to [55]
A67C  53000001           [34] getupval   1   2      
A680  4EC0C100           [35] gettable   1   1   263  ; "Loader"
A684  6400C200           [36] self       1   1   264  ; -1344420604
A688  62800001           [37] call       1   2   2  
A68C  58000000           [38] test       1       0    ; to [40] if true
A690  1A800380           [39] jmp        15           ; to [55]
A694  53000001           [40] getupval   1   2      
A698  4C404283           [41] settable   1   262 265  ; "IsLoading" 0
A69C  53008001           [42] getupval   1   3      
A6A0  62408000           [43] call       1   1   1  
A6A4  53000002           [44] getupval   1   4      
A6A8  6480C200           [45] self       1   1   266  ; -492641364
A6AC  D7000000           [46] loadbool   3   0   0    ; false
A6B0  62408001           [47] call       1   3   1  
A6B4  53008002           [48] getupval   1   5      
A6B8  58000000           [49] test       1       0    ; to [51] if true
A6BC  1AC00080           [50] jmp        4            ; to [55]
A6C0  53000003           [51] getupval   1   6      
A6C4  62408000           [52] call       1   1   1  
A6C8  57000000           [53] loadbool   1   0   0    ; false
fail op	8
A6CC  48008002           [54] setupval   1   5      
A6D0  1E008000           [55] return     0   1      
                         * constants:
A6D4  0B                 sizek (11)
A6D5  01                 const type 3
A6D6  AB8B782B           const [0]: (729320363)
A6DA  01                 const type 3
A6DB  5812E302           const [1]: (48435800)
A6DF  01                 const type 3
A6E0  65770E40           const [2]: (1074689893)
A6E4  04                 const type 4
A6E5  03                 string size (3)
A6E6  5F5400             "_T\0"
                         const [3]: "_T"
A6E9  04                 const type 4
A6EA  0F                 string size (15)
A6EB  486964654261636B+  "HideBack"
A6F3  67726F756E6400     "ground\0"
                         const [4]: "HideBackground"
A6FA  01                 const type 3
A6FB  996A5190           const [5]: (-1873712487)
A6FF  04                 const type 4
A700  0A                 string size (10)
A701  49734C6F6164696E+  "IsLoadin"
A709  6700               "g\0"
                         const [6]: "IsLoading"
A70B  04                 const type 4
A70C  07                 string size (7)
A70D  4C6F6164657200     "Loader\0"
                         const [7]: "Loader"
A714  01                 const type 3
A715  04C5DDAF           const [8]: (-1344420604)
A719  01                 const type 3
A71A  00000000           const [9]: (0)
A71E  01                 const type 3
A71F  ACE3A2E2           const [10]: (-492641364)
                         * functions:
A723  00                 sizep (0)
                         * lines:
A724  37                 sizelineinfo (55)
                         [pc] (line)
A725  D6                 [01] (-42)
A726  04                 [02] (-42)
A727  00                 [03] (-42)
A728  00                 [04] (-41)
A729  D6                 [05] (-41)
A72A  04                 [06] (-41)
A72B  00                 [07] (-41)
A72C  00                 [08] (-41)
A72D  D6                 [09] (-40)
A72E  04                 [10] (-40)
A72F  00                 [11] (-39)
A730  00                 [12] (-39)
A731  D7                 [13] (-39)
A732  04                 [14] (-38)
A733  00                 [15] (-38)
A734  00                 [16] (-38)
A735  D7                 [17] (-38)
A736  04                 [18] (-38)
A737  00                 [19] (-38)
A738  00                 [20] (-37)
A739  D7                 [21] (-37)
A73A  04                 [22] (-37)
A73B  00                 [23] (-32)
A73C  00                 [24] (-31)
A73D  D7                 [25] (-31)
A73E  04                 [26] (-31)
A73F  00                 [27] (-31)
A740  00                 [28] (-31)
A741  D7                 [29] (-31)
A742  04                 [30] (-31)
A743  00                 [31] (-31)
A744  00                 [32] (-31)
A745  D8                 [33] (-31)
A746  04                 [34] (-31)
A747  00                 [35] (-31)
A748  00                 [36] (-31)
A749  D8                 [37] (-31)
A74A  04                 [38] (-31)
A74B  00                 [39] (-31)
A74C  00                 [40] (-30)
A74D  D9                 [41] (-30)
A74E  04                 [42] (-29)
A74F  00                 [43] (-29)
A750  00                 [44] (-28)
A751  D9                 [45] (-28)
A752  04                 [46] (-28)
A753  00                 [47] (-28)
A754  00                 [48] (-26)
A755  D9                 [49] (-26)
A756  04                 [50] (-26)
A757  00                 [51] (-25)
A758  00                 [52] (-25)
A759  DA                 [53] (-24)
A75A  04                 [54] (-24)
A75B  00                 [55] (-21)
                         * locals:
A801  00                 sizelocvars (0)
                         * upvalues:
A802  00                 sizeupvalues (0)
                         ** end of function **

                         
A803                     ** function [48] definition (level 2)
                         ** start of function **
A803  00                 string size (0)
                         source name: (none)
A805  09                 line defined (1261)
A806  F9                 last line defined (1273)
A807  09                 nups (1)
A808  01                 numparams (3)
A809  03                 is_vararg (0)
A80A  00                 maxstacksize (5)
                         * code:
A80C  10                 sizecode (16)
A80D  DD000000           [01] getglobal  3   0        ; mMovie
A811  E440C001           [02] self       3   3   257  ; -493356394
A815  E2800001           [03] call       3   2   2  
fail op	35
A819  6380C001           [04] close      1  
A81D  1A000080           [05] jmp        1            ; to [7]
A821  1E008000           [06] return     0   1      
fail op	35
A825  23C0C000           [07] close      0  
A829  1A800180           [08] jmp        7            ; to [16]
fail op	35
A82D  23004101           [09] close      0  
A831  1A800080           [10] jmp        3            ; to [14]
A835  D7008000           [11] loadbool   3   1   0    ; true
fail op	8
A839  C8000000           [12] setupval   3   0      
A83D  1A400080           [13] jmp        2            ; to [16]
A841  D7000000           [14] loadbool   3   0   0    ; false
fail op	8
A845  C8000000           [15] setupval   3   0      
A849  1E008000           [16] return     0   1      
                         * constants:
A84D  05                 sizek (5)
A84E  04                 const type 4
A84F  07                 string size (7)
A850  6D4D6F76696500     "mMovie\0"
                         const [0]: "mMovie"
A857  01                 const type 3
A858  96FA97E2           const [1]: (-493356394)
A85C  04                 const type 4
A85D  01                 string size (0)
                         const [2]: ""
A85F  04                 const type 4
A860  0C                 string size (12)
A861  454E5F4D4F555345+  "EN_MOUSE"
A869  5F423000           "_B0\0"
                         const [3]: "EN_MOUSE_B0"
A86D  04                 const type 4
A86E  02                 string size (2)
A86F  3100               "1\0"
                         const [4]: "1"
                         * functions:
A871  00                 sizep (0)
                         * lines:
A872  10                 sizelineinfo (16)
                         [pc] (line)
A873  EE                 [01] (-18)
A874  04                 [02] (-18)
A875  00                 [03] (-18)
A876  00                 [04] (-18)
A877  EE                 [05] (-18)
A878  04                 [06] (-17)
A879  00                 [07] (-14)
A87A  00                 [08] (-14)
A87B  EE                 [09] (-13)
A87C  04                 [10] (-13)
A87D  00                 [11] (-12)
A87E  00                 [12] (-12)
A87F  EE                 [13] (-12)
A880  04                 [14] (-10)
A881  00                 [15] (-10)
A882  00                 [16] (-7)
                         * locals:
A8B3  00                 sizelocvars (0)
                         * upvalues:
A8B4  00                 sizeupvalues (0)
                         ** end of function **

                         
A8B5                     ** function [49] definition (level 2)
                         ** start of function **
A8B5  00                 string size (0)
                         source name: (none)
A8B7  09                 line defined (1275)
A8B8  88                 last line defined (1288)
A8B9  0A                 nups (2)
A8BA  02                 numparams (0)
A8BB  00                 is_vararg (0)
A8BC  00                 maxstacksize (8)
                         * code:
A8BE  36                 sizecode (54)
A8BF  13000000           [01] getupval   0   0      
A8C3  0E004000           [02] gettable   0   0   256  ; "mRows"
A8C7  53000000           [03] getupval   1   0      
A8CB  4E40C000           [04] gettable   1   1   257  ; "mRowSeparation"
A8CF  04400000           [05] mul        0   0   1  
A8D3  5D800000           [06] getglobal  1   2        ; -174740002
A8D7  9DC00000           [07] getglobal  2   3        ; mMovie
A8DB  A4004101           [08] self       2   2   260  ; 1803241227
A8DF  19410100           [09] loadk      4   5        ; "CombinationHistory"
A8E3  59810100           [10] loadk      5   6        ; "_y"
A8E7  A2000002           [11] call       2   4   0  
A8EB  62800000           [12] call       1   0   2  
A8EF  4DC0C100           [13] sub        1   1   263  ; 0
A8F3  9C004200           [14] div        2   0   264  ; 0
A8F7  43808000           [15] add        1   1   2  
A8FB  8D404200           [16] sub        2   0   265  ; 0
A8FF  D9400200           [17] loadk      3   9        ; 0
A903  13018000           [18] getupval   4   1      
A907  0E814202           [19] gettable   4   4   266  ; 1704170870
A90B  5DC10000           [20] getglobal  5   3        ; mMovie
A90F  92018000           [21] move       6   1      
A913  22818001           [22] call       4   3   2  
A917  52000002           [23] move       1   4      
A91B  13018000           [24] getupval   4   1      
A91F  0EC14202           [25] gettable   4   4   267  ; -1736116097
A923  5DC10000           [26] getglobal  5   3        ; mMovie
A927  92010001           [27] move       6   2      
A92B  22818001           [28] call       4   3   2  
A92F  92000002           [29] move       2   4      
A933  13018000           [30] getupval   4   1      
A937  0E014302           [31] gettable   4   4   268  ; 1938000739
A93B  5DC10000           [32] getglobal  5   3        ; mMovie
A93F  92018001           [33] move       6   3      
A943  22818001           [34] call       4   3   2  
A947  D2000002           [35] move       3   4      
A94B  1D410300           [36] getglobal  4   13       ; modIconVisRangeMaterial
A94F  24814302           [37] self       4   4   270  ; -1795477990
A953  9DC10300           [38] getglobal  6   15       ; Lotus_Game
A957  8E014403           [39] gettable   6   6   272  ; "VISIBILITY_CENTER"
A95B  D2018000           [40] move       7   1      
A95F  22410002           [41] call       4   4   1  
A963  1D410300           [42] getglobal  4   13       ; modIconVisRangeMaterial
A967  24814302           [43] self       4   4   270  ; -1795477990
A96B  9DC10300           [44] getglobal  6   15       ; Lotus_Game
A96F  8E414403           [45] gettable   6   6   273  ; "VISIBILITY_SIZE"
A973  D2010001           [46] move       7   2      
A977  22410002           [47] call       4   4   1  
A97B  1D410300           [48] getglobal  4   13       ; modIconVisRangeMaterial
A97F  24814302           [49] self       4   4   270  ; -1795477990
A983  9DC10300           [50] getglobal  6   15       ; Lotus_Game
A987  8E814403           [51] gettable   6   6   274  ; "VISIBILITY_FADE_SIZE"
A98B  D2018001           [52] move       7   3      
A98F  22410002           [53] call       4   4   1  
A993  1E008000           [54] return     0   1      
                         * constants:
A997  13                 sizek (19)
A998  04                 const type 4
A999  06                 string size (6)
A99A  6D526F777300       "mRows\0"
                         const [0]: "mRows"
A9A0  04                 const type 4
A9A1  0F                 string size (15)
A9A2  6D526F7753657061+  "mRowSepa"
A9AA  726174696F6E00     "ration\0"
                         const [1]: "mRowSeparation"
A9B1  01                 const type 3
A9B2  DEAD95F5           const [2]: (-174740002)
A9B6  04                 const type 4
A9B7  07                 string size (7)
A9B8  6D4D6F76696500     "mMovie\0"
                         const [3]: "mMovie"
A9BF  01                 const type 3
A9C0  0B477B6B           const [4]: (1803241227)
A9C4  04                 const type 4
A9C5  13                 string size (19)
A9C6  436F6D62696E6174+  "Combinat"
A9CE  696F6E486973746F+  "ionHisto"
A9D6  727900             "ry\0"
                         const [5]: "CombinationHistory"
A9D9  04                 const type 4
A9DA  03                 string size (3)
A9DB  5F7900             "_y\0"
                         const [6]: "_y"
A9DE  03                 const type 3
A9DF  0000F041           const [7]: (0)
A9E3  03                 const type 3
A9E4  00000040           const [8]: (0)
A9E8  03                 const type 3
A9E9  00002041           const [9]: (0)
A9ED  01                 const type 3
A9EE  76959365           const [10]: (1704170870)
A9F2  01                 const type 3
A9F3  7FF88498           const [11]: (-1736116097)
A9F7  01                 const type 3
A9F8  638B8373           const [12]: (1938000739)
A9FC  04                 const type 4
A9FD  18                 string size (24)
A9FE  6D6F6449636F6E56+  "modIconV"
AA06  697352616E67654D+  "isRangeM"
AA0E  6174657269616C00   "aterial\0"
                         const [13]: "modIconVisRangeMaterial"
AA16  01                 const type 3
AA17  1A2EFB94           const [14]: (-1795477990)
AA1B  04                 const type 4
AA1C  0B                 string size (11)
AA1D  4C6F7475735F4761+  "Lotus_Ga"
AA25  6D6500             "me\0"
                         const [15]: "Lotus_Game"
AA28  04                 const type 4
AA29  12                 string size (18)
AA2A  5649534942494C49+  "VISIBILI"
AA32  54595F43454E5445+  "TY_CENTE"
AA3A  5200               "R\0"
                         const [16]: "VISIBILITY_CENTER"
AA3C  04                 const type 4
AA3D  10                 string size (16)
AA3E  5649534942494C49+  "VISIBILI"
AA46  54595F53495A4500   "TY_SIZE\0"
                         const [17]: "VISIBILITY_SIZE"
AA4E  04                 const type 4
AA4F  15                 string size (21)
AA50  5649534942494C49+  "VISIBILI"
AA58  54595F464144455F+  "TY_FADE_"
AA60  53495A4500         "SIZE\0"
                         const [18]: "VISIBILITY_FADE_SIZE"
                         * functions:
AA65  00                 sizep (0)
                         * lines:
AA66  36                 sizelineinfo (54)
                         [pc] (line)
AA67  FC                 [01] (-4)
AA68  04                 [02] (-4)
AA69  00                 [03] (-4)
AA6A  00                 [04] (-4)
AA6B  FC                 [05] (-4)
AA6C  04                 [06] (-3)
AA6D  00                 [07] (-3)
AA6E  00                 [08] (-3)
AA6F  FC                 [09] (-3)
AA70  04                 [10] (-3)
AA71  00                 [11] (-3)
AA72  00                 [12] (-3)
AA73  FC                 [13] (-3)
AA74  04                 [14] (-3)
AA75  00                 [15] (-3)
AA76  00                 [16] (-2)
AA77  FC                 [17] (-1)
AA78  04                 [18] (1)
AA79  00                 [19] (1)
AA7A  00                 [20] (1)
AA7B  FD                 [21] (1)
AA7C  04                 [22] (1)
AA7D  00                 [23] (1)
AA7E  00                 [24] (2)
AA7F  FD                 [25] (2)
AA80  04                 [26] (2)
AA81  00                 [27] (2)
AA82  00                 [28] (2)
AA83  FD                 [29] (2)
AA84  04                 [30] (3)
AA85  00                 [31] (3)
AA86  00                 [32] (3)
AA87  FD                 [33] (3)
AA88  04                 [34] (3)
AA89  00                 [35] (3)
AA8A  00                 [36] (5)
AA8B  FD                 [37] (5)
AA8C  04                 [38] (5)
AA8D  00                 [39] (5)
AA8E  00                 [40] (5)
AA8F  FD                 [41] (5)
AA90  04                 [42] (6)
AA91  00                 [43] (6)
AA92  00                 [44] (6)
AA93  FD                 [45] (6)
AA94  04                 [46] (6)
AA95  00                 [47] (6)
AA96  00                 [48] (7)
AA97  FD                 [49] (7)
AA98  04                 [50] (7)
AA99  00                 [51] (7)
AA9A  00                 [52] (7)
AA9B  FD                 [53] (7)
AA9C  04                 [54] (8)
                         * locals:
AB3F  00                 sizelocvars (0)
                         * upvalues:
AB40  00                 sizeupvalues (0)
                         ** end of function **

                         
AB41                     ** function [50] definition (level 2)
                         ** start of function **
AB41  00                 string size (0)
                         source name: (none)
AB43  0A                 line defined (1290)
AB44  94                 last line defined (1300)
AB45  0A                 nups (4)
AB46  04                 numparams (2)
AB47  02                 is_vararg (0)
AB48  00                 maxstacksize (6)
                         * code:
AB4A  18                 sizecode (24)
AB4B  93000000           [01] getupval   2   0      
fail op	35
AB4F  63004001           [02] close      1  
AB53  1A000180           [03] jmp        5            ; to [9]
AB57  93000000           [04] getupval   2   0      
AB5B  A4404001           [05] self       2   2   257  ; -1938777623
AB5F  12010000           [06] move       4   0      
AB63  52018000           [07] move       5   1      
AB67  A2400002           [08] call       2   4   1  
AB6B  9D800000           [09] getglobal  2   2        ; 1074689893
AB6F  D3008000           [10] getupval   3   1      
AB73  A2800001           [11] call       2   2   2  
AB77  98400000           [12] test       2       1    ; to [14] if false
AB7B  1A400080           [13] jmp        2            ; to [16]
AB7F  93000001           [14] getupval   2   2      
AB83  A2408000           [15] call       2   1   1  
AB87  9D800000           [16] getglobal  2   2        ; 1074689893
AB8B  D3008001           [17] getupval   3   3      
AB8F  A2800001           [18] call       2   2   2  
AB93  98400000           [19] test       2       1    ; to [21] if false
AB97  1A800080           [20] jmp        3            ; to [24]
AB9B  93008001           [21] getupval   2   3      
AB9F  A4C04001           [22] self       2   2   259  ; -1156631833
ABA3  A2400001           [23] call       2   2   1  
ABA7  1E008000           [24] return     0   1      
                         * constants:
ABAB  04                 sizek (4)
ABAC  00                 const type 0
                         const [0]: nil
ABAD  01                 const type 3
ABAE  E999708C           const [1]: (-1938777623)
ABB2  01                 const type 3
ABB3  65770E40           const [2]: (1074689893)
ABB7  01                 const type 3
ABB8  E7320FBB           const [3]: (-1156631833)
                         * functions:
ABBC  00                 sizep (0)
                         * lines:
ABBD  18                 sizelineinfo (24)
                         [pc] (line)
ABBE  0B                 [01] (11)
ABBF  05                 [02] (11)
ABC0  00                 [03] (11)
ABC1  00                 [04] (12)
ABC2  0B                 [05] (12)
ABC3  05                 [06] (12)
ABC4  00                 [07] (12)
ABC5  00                 [08] (12)
ABC6  0B                 [09] (14)
ABC7  05                 [10] (14)
ABC8  00                 [11] (14)
ABC9  00                 [12] (14)
ABCA  0C                 [13] (14)
ABCB  05                 [14] (15)
ABCC  00                 [15] (15)
ABCD  00                 [16] (17)
ABCE  0C                 [17] (17)
ABCF  05                 [18] (17)
ABD0  00                 [19] (17)
ABD1  00                 [20] (17)
ABD2  0C                 [21] (18)
ABD3  05                 [22] (18)
ABD4  00                 [23] (18)
ABD5  00                 [24] (20)
                         * locals:
AC1E  00                 sizelocvars (0)
                         * upvalues:
AC1F  00                 sizeupvalues (0)
                         ** end of function **

                         
AC20                     ** function [51] definition (level 2)
                         ** start of function **
AC20  00                 string size (0)
                         source name: (none)
AC22  0A                 line defined (1302)
AC23  A8                 last line defined (1320)
AC24  0A                 nups (4)
AC25  04                 numparams (0)
AC26  00                 is_vararg (0)
AC27  00                 maxstacksize (9)
                         * code:
AC29  3C                 sizecode (60)
AC2A  1D000000           [01] getglobal  0   0        ; -174740002
AC2E  5D400000           [02] getglobal  1   1        ; mMovie
AC32  6480C000           [03] self       1   1   258  ; 1803241227
AC36  D9C00000           [04] loadk      3   3        ; "_root"
AC3A  19010100           [05] loadk      4   4        ; "_xmouse"
AC3E  62000002           [06] call       1   4   0  
AC42  22800000           [07] call       0   0   2  
AC46  5D000000           [08] getglobal  1   0        ; -174740002
AC4A  9D400000           [09] getglobal  2   1        ; mMovie
AC4E  A4804001           [10] self       2   2   258  ; 1803241227
AC52  19C10000           [11] loadk      4   3        ; "_root"
AC56  59410100           [12] loadk      5   5        ; "_ymouse"
AC5A  A2000002           [13] call       2   4   0  
AC5E  62800000           [14] call       1   0   2  
AC62  93000000           [15] getupval   2   0      
AC66  8D800000           [16] sub        2   0   2  
fail op	8
AC6A  08000000           [17] setupval   0   0      
fail op	8
AC6E  48008000           [18] setupval   1   1      
AC72  DD800100           [19] getglobal  3   6        ; 1074689893
AC76  13010001           [20] getupval   4   2      
AC7A  E2800001           [21] call       3   2   2  
AC7E  D8400000           [22] test       3       1    ; to [24] if false
AC82  1AC00880           [23] jmp        36           ; to [60]
AC86  DDC00100           [24] getglobal  3   7        ; math
AC8A  CE00C201           [25] gettable   3   3   264  ; -113279800
AC8E  12010001           [26] move       4   2      
AC92  E2800001           [27] call       3   2   2  
fail op	21
AC96  15C08084           [28] concat     0   265 3  
AC9A  1A400780           [29] jmp        30           ; to [60]
AC9E  D3008001           [30] getupval   3   3      
ACA2  D8000000           [31] test       3       0    ; to [33] if true
ACA6  1A800680           [32] jmp        27           ; to [60]
ACAA  D3000001           [33] getupval   3   2      
ACAE  E480C201           [34] self       3   3   266  ; 1839670529
ACB2  E2800001           [35] call       3   2   2  
ACB6  13010001           [36] getupval   4   2      
ACBA  24C14202           [37] self       4   4   267  ; 1292478819
ACBE  22810001           [38] call       4   2   2  
ACC2  24014302           [39] self       4   4   268  ; -1815456567
ACC6  22810001           [40] call       4   2   2  
ACCA  4E414302           [41] gettable   5   4   269  ; "heading"
ACCE  84814301           [42] mul        6   2   270  ; 0
ACD2  43818102           [43] add        5   5   6  
ACD6  0C418186           [44] settable   4   269 5    ; "heading"
ACDA  53010001           [45] getupval   5   2      
ACDE  64C1C302           [46] self       5   5   271  ; 970454089
ACE2  D2018001           [47] move       7   3      
ACE6  12020002           [48] move       8   4      
ACEA  62410002           [49] call       5   4   1  
ACEE  53010001           [50] getupval   5   2      
ACF2  64C1C202           [51] self       5   5   267  ; 1292478819
ACF6  62810001           [52] call       5   2   2  
ACFA  6401C402           [53] self       5   5   272  ; 1417583104
ACFE  D2010002           [54] move       7   4      
AD02  62418001           [55] call       5   3   1  
AD06  53010001           [56] getupval   5   2      
AD0A  6441C402           [57] self       5   5   273  ; -1423167726
AD0E  D2010002           [58] move       7   4      
AD12  62418001           [59] call       5   3   1  
AD16  1E008000           [60] return     0   1      
                         * constants:
AD1A  12                 sizek (18)
AD1B  01                 const type 3
AD1C  DEAD95F5           const [0]: (-174740002)
AD20  04                 const type 4
AD21  07                 string size (7)
AD22  6D4D6F76696500     "mMovie\0"
                         const [1]: "mMovie"
AD29  01                 const type 3
AD2A  0B477B6B           const [2]: (1803241227)
AD2E  04                 const type 4
AD2F  06                 string size (6)
AD30  5F726F6F7400       "_root\0"
                         const [3]: "_root"
AD36  04                 const type 4
AD37  08                 string size (8)
AD38  5F786D6F75736500   "_xmouse\0"
                         const [4]: "_xmouse"
AD40  04                 const type 4
AD41  08                 string size (8)
AD42  5F796D6F75736500   "_ymouse\0"
                         const [5]: "_ymouse"
AD4A  01                 const type 3
AD4B  65770E40           const [6]: (1074689893)
AD4F  04                 const type 4
AD50  05                 string size (5)
AD51  6D61746800         "math\0"
                         const [7]: "math"
AD56  01                 const type 3
AD57  C87C3FF9           const [8]: (-113279800)
AD5B  03                 const type 3
AD5C  00000000           const [9]: (0)
AD60  01                 const type 3
AD61  0125A76D           const [10]: (1839670529)
AD65  01                 const type 3
AD66  63A9094D           const [11]: (1292478819)
AD6A  01                 const type 3
AD6B  C954CA93           const [12]: (-1815456567)
AD6F  04                 const type 4
AD70  08                 string size (8)
AD71  68656164696E6700   "heading\0"
                         const [13]: "heading"
AD79  03                 const type 3
AD7A  000000BF           const [14]: (0)
AD7E  01                 const type 3
AD7F  49F4D739           const [15]: (970454089)
AD83  01                 const type 3
AD84  009A7E54           const [16]: (1417583104)
AD88  01                 const type 3
AD89  122F2CAB           const [17]: (-1423167726)
                         * functions:
AD8D  00                 sizep (0)
                         * lines:
AD8E  3C                 sizelineinfo (60)
                         [pc] (line)
AD8F  18                 [01] (24)
AD90  05                 [02] (24)
AD91  00                 [03] (24)
AD92  00                 [04] (24)
AD93  18                 [05] (24)
AD94  05                 [06] (24)
AD95  00                 [07] (24)
AD96  00                 [08] (25)
AD97  18                 [09] (25)
AD98  05                 [10] (25)
AD99  00                 [11] (25)
AD9A  00                 [12] (25)
AD9B  18                 [13] (25)
AD9C  05                 [14] (25)
AD9D  00                 [15] (27)
AD9E  00                 [16] (27)
AD9F  18                 [17] (28)
ADA0  05                 [18] (29)
ADA1  00                 [19] (31)
ADA2  00                 [20] (31)
ADA3  18                 [21] (31)
ADA4  05                 [22] (31)
ADA5  00                 [23] (31)
ADA6  00                 [24] (31)
ADA7  18                 [25] (31)
ADA8  05                 [26] (31)
ADA9  00                 [27] (31)
ADAA  00                 [28] (31)
ADAB  19                 [29] (31)
ADAC  05                 [30] (31)
ADAD  00                 [31] (31)
ADAE  00                 [32] (31)
ADAF  19                 [33] (32)
ADB0  05                 [34] (32)
ADB1  00                 [35] (32)
ADB2  00                 [36] (33)
ADB3  19                 [37] (33)
ADB4  05                 [38] (33)
ADB5  00                 [39] (33)
ADB6  00                 [40] (33)
ADB7  19                 [41] (34)
ADB8  05                 [42] (34)
ADB9  00                 [43] (34)
ADBA  00                 [44] (34)
ADBB  19                 [45] (35)
ADBC  05                 [46] (35)
ADBD  00                 [47] (35)
ADBE  00                 [48] (35)
ADBF  19                 [49] (35)
ADC0  05                 [50] (36)
ADC1  00                 [51] (36)
ADC2  00                 [52] (36)
ADC3  19                 [53] (36)
ADC4  05                 [54] (36)
ADC5  00                 [55] (36)
ADC6  00                 [56] (37)
ADC7  1B                 [57] (37)
ADC8  05                 [58] (37)
ADC9  00                 [59] (37)
ADCA  00                 [60] (40)
                         * locals:
AE7F  00                 sizelocvars (0)
                         * upvalues:
AE80  00                 sizeupvalues (0)
                         ** end of function **

                         
AE81                     ** function [52] definition (level 2)
                         ** start of function **
AE81  00                 string size (0)
                         source name: (none)
AE83  0A                 line defined (1322)
AE84  CC                 last line defined (1356)
AE85  0A                 nups (12)
AE86  0C                 numparams (0)
AE87  00                 is_vararg (0)
AE88  00                 maxstacksize (5)
                         * code:
AE8A  57                 sizecode (87)
AE8B  1D000000           [01] getglobal  0   0        ; 1074689893
AE8F  5D400000           [02] getglobal  1   1        ; mMovie
AE93  22800001           [03] call       0   2   2  
AE97  18000000           [04] test       0       0    ; to [6] if true
AE9B  1A000080           [05] jmp        1            ; to [7]
AE9F  1E008000           [06] return     0   1      
AEA3  1D800000           [07] getglobal  0   2        ; 1661359502
AEA7  22808000           [08] call       0   1   2  
AEAB  5D400000           [09] getglobal  1   1        ; mMovie
AEAF  64C0C000           [10] self       1   1   259  ; 135097114
AEB3  D2000000           [11] move       3   0      
AEB7  62408001           [12] call       1   3   1  
AEBB  53000000           [13] getupval   1   0      
AEBF  92000000           [14] move       2   0      
AEC3  62400001           [15] call       1   2   1  
AEC7  53008000           [16] getupval   1   1      
AECB  62408000           [17] call       1   1   1  
AECF  5D000000           [18] getglobal  1   0        ; 1074689893
AED3  93000001           [19] getupval   2   2      
AED7  62800001           [20] call       1   2   2  
AEDB  58400000           [21] test       1       1    ; to [23] if false
AEDF  1A800080           [22] jmp        3            ; to [26]
AEE3  53000001           [23] getupval   1   2      
AEE7  6400C100           [24] self       1   1   260  ; -1938777623
AEEB  62400001           [25] call       1   2   1  
AEEF  5D000000           [26] getglobal  1   0        ; 1074689893
AEF3  93008001           [27] getupval   2   3      
AEF7  62800001           [28] call       1   2   2  
AEFB  58400000           [29] test       1       1    ; to [31] if false
AEFF  1AC00080           [30] jmp        4            ; to [35]
AF03  53008001           [31] getupval   1   3      
AF07  6400C100           [32] self       1   1   260  ; -1938777623
AF0B  D2000000           [33] move       3   0      
AF0F  62408001           [34] call       1   3   1  
AF13  53000002           [35] getupval   1   4      
fail op	35
AF17  2340C100           [36] close      0  
AF1B  1AC00480           [37] jmp        20           ; to [58]
AF1F  5D000000           [38] getglobal  1   0        ; 1074689893
AF23  9D800100           [39] getglobal  2   6        ; _T
AF27  8EC04101           [40] gettable   2   2   263  ; "curTransmission"
AF2B  62800001           [41] call       1   2   2  
AF2F  58000000           [42] test       1       0    ; to [44] if true
AF33  1A400380           [43] jmp        14           ; to [58]
AF37  5D000000           [44] getglobal  1   0        ; 1074689893
AF3B  93008002           [45] getupval   2   5      
AF3F  62800001           [46] call       1   2   2  
AF43  58400000           [47] test       1       1    ; to [49] if false
AF47  1A400180           [48] jmp        6            ; to [55]
AF4B  53008002           [49] getupval   1   5      
AF4F  6400C200           [50] self       1   1   264  ; 677420169
AF53  DD400200           [51] getglobal  3   9        ; -332969190
AF57  19810200           [52] loadk      4   10       ; "STOP_MENU_TAUNT"
AF5B  E2000001           [53] call       3   2   0  
AF5F  62400000           [54] call       1   0   1  
AF63  46008000           [55] loadnil    1   1      
fail op	8
AF67  48000002           [56] setupval   1   4      
AF6B  1AC00280           [57] jmp        12           ; to [70]
AF6F  5D000000           [58] getglobal  1   0        ; 1074689893
AF73  93000002           [59] getupval   2   4      
AF77  62800001           [60] call       1   2   2  
AF7B  58400000           [61] test       1       1    ; to [63] if false
AF7F  1A800180           [62] jmp        7            ; to [70]
AF83  5D800100           [63] getglobal  1   6        ; _T
AF87  4EC0C100           [64] gettable   1   1   263  ; "curTransmission"
AF8B  93000002           [65] getupval   2   4      
fail op	35
AF8F  23808000           [66] close      0  
AF93  1A400080           [67] jmp        2            ; to [70]
AF97  57008000           [68] loadbool   1   1   0    ; true
fail op	8
AF9B  48000002           [69] setupval   1   4      
AF9F  53000003           [70] getupval   1   6      
AFA3  58000000           [71] test       1       0    ; to [73] if true
AFA7  1A400180           [72] jmp        6            ; to [79]
AFAB  53008003           [73] getupval   1   7      
AFAF  62808000           [74] call       1   1   2  
AFB3  58000000           [75] test       1       0    ; to [77] if true
AFB7  1A400080           [76] jmp        2            ; to [79]
AFBB  53000004           [77] getupval   1   8      
AFBF  62408000           [78] call       1   1   1  
AFC3  53008004           [79] getupval   1   9      
AFC7  58000000           [80] test       1       0    ; to [82] if true
AFCB  1A000180           [81] jmp        5            ; to [87]
AFCF  53000005           [82] getupval   1   10     
AFD3  58000000           [83] test       1       0    ; to [85] if true
AFD7  1A400080           [84] jmp        2            ; to [87]
AFDB  53008005           [85] getupval   1   11     
AFDF  62408000           [86] call       1   1   1  
AFE3  1E008000           [87] return     0   1      
                         * constants:
AFE7  0B                 sizek (11)
AFE8  01                 const type 3
AFE9  65770E40           const [0]: (1074689893)
AFED  04                 const type 4
AFEE  07                 string size (7)
AFEF  6D4D6F76696500     "mMovie\0"
                         const [1]: "mMovie"
AFF6  01                 const type 3
AFF7  8E550663           const [2]: (1661359502)
AFFB  01                 const type 3
AFFC  1A6B0D08           const [3]: (135097114)
B000  01                 const type 3
B001  E999708C           const [4]: (-1938777623)
B005  01                 const type 3
B006  01000000           const [5]: (1)
B00A  04                 const type 4
B00B  03                 string size (3)
B00C  5F5400             "_T\0"
                         const [6]: "_T"
B00F  04                 const type 4
B010  10                 string size (16)
B011  6375725472616E73+  "curTrans"
B019  6D697373696F6E00   "mission\0"
                         const [7]: "curTransmission"
B021  01                 const type 3
B022  899C6028           const [8]: (677420169)
B026  01                 const type 3
B027  1A4B27EC           const [9]: (-332969190)
B02B  04                 const type 4
B02C  10                 string size (16)
B02D  53544F505F4D454E+  "STOP_MEN"
B035  555F5441554E5400   "U_TAUNT\0"
                         const [10]: "STOP_MENU_TAUNT"
                         * functions:
B03D  00                 sizep (0)
                         * lines:
B03E  57                 sizelineinfo (87)
                         [pc] (line)
B03F  2B                 [01] (43)
B040  05                 [02] (43)
B041  00                 [03] (43)
B042  00                 [04] (43)
B043  2B                 [05] (43)
B044  05                 [06] (44)
B045  00                 [07] (47)
B046  00                 [08] (47)
B047  2B                 [09] (48)
B048  05                 [10] (48)
B049  00                 [11] (48)
B04A  00                 [12] (48)
B04B  2B                 [13] (49)
B04C  05                 [14] (49)
B04D  00                 [15] (49)
B04E  00                 [16] (50)
B04F  2B                 [17] (50)
B050  05                 [18] (52)
B051  00                 [19] (52)
B052  00                 [20] (52)
B053  2C                 [21] (52)
B054  05                 [22] (52)
B055  00                 [23] (53)
B056  00                 [24] (53)
B057  2F                 [25] (53)
B058  05                 [26] (56)
B059  00                 [27] (56)
B05A  00                 [28] (56)
B05B  2F                 [29] (56)
B05C  05                 [30] (56)
B05D  00                 [31] (57)
B05E  00                 [32] (57)
B05F  30                 [33] (57)
B060  05                 [34] (57)
B061  00                 [35] (60)
B062  00                 [36] (60)
B063  30                 [37] (60)
B064  05                 [38] (60)
B065  00                 [39] (60)
B066  00                 [40] (60)
B067  30                 [41] (60)
B068  05                 [42] (60)
B069  00                 [43] (60)
B06A  00                 [44] (61)
B06B  30                 [45] (61)
B06C  05                 [46] (61)
B06D  00                 [47] (61)
B06E  00                 [48] (61)
B06F  31                 [49] (62)
B070  05                 [50] (62)
B071  00                 [51] (62)
B072  00                 [52] (62)
B073  31                 [53] (62)
B074  05                 [54] (62)
B075  00                 [55] (64)
B076  00                 [56] (64)
B077  31                 [57] (64)
B078  05                 [58] (65)
B079  00                 [59] (65)
B07A  00                 [60] (65)
B07B  32                 [61] (65)
B07C  05                 [62] (65)
B07D  00                 [63] (65)
B07E  00                 [64] (65)
B07F  32                 [65] (65)
B080  05                 [66] (65)
B081  00                 [67] (65)
B082  00                 [68] (66)
B083  34                 [69] (66)
B084  05                 [70] (69)
B085  00                 [71] (69)
B086  00                 [72] (69)
B087  34                 [73] (69)
B088  05                 [74] (69)
B089  00                 [75] (69)
B08A  00                 [76] (69)
B08B  34                 [77] (70)
B08C  05                 [78] (70)
B08D  00                 [79] (73)
B08E  00                 [80] (73)
B08F  34                 [81] (73)
B090  05                 [82] (73)
B091  00                 [83] (73)
B092  00                 [84] (73)
B093  34                 [85] (74)
B094  05                 [86] (74)
B095  00                 [87] (76)
                         * locals:
B19B  00                 sizelocvars (0)
                         * upvalues:
B19C  00                 sizeupvalues (0)
                         ** end of function **

                         
B19D                     ** function [53] definition (level 2)
                         ** start of function **
B19D  00                 string size (0)
                         source name: (none)
B19F  0A                 line defined (1358)
B1A0  D2                 last line defined (1362)
B1A1  0A                 nups (1)
B1A2  01                 numparams (1)
B1A3  01                 is_vararg (0)
B1A4  00                 maxstacksize (5)
                         * code:
B1A6  0D                 sizecode (13)
B1A7  5D000000           [01] getglobal  1   0        ; 1074689893
B1AB  93000000           [02] getupval   2   0      
B1AF  62800001           [03] call       1   2   2  
B1B3  58400000           [04] test       1       1    ; to [6] if false
B1B7  1A800180           [05] jmp        7            ; to [13]
B1BB  53000000           [06] getupval   1   0      
B1BF  6440C000           [07] self       1   1   257  ; 1002639746
B1C3  DD800000           [08] getglobal  3   2        ; -174740002
B1C7  12010000           [09] move       4   0      
B1CB  E2800001           [10] call       3   2   2  
B1CF  17018000           [11] loadbool   4   1   0    ; true
B1D3  62400002           [12] call       1   4   1  
B1D7  1E008000           [13] return     0   1      
                         * constants:
B1DB  03                 sizek (3)
B1DC  01                 const type 3
B1DD  65770E40           const [0]: (1074689893)
B1E1  01                 const type 3
B1E2  8211C33B           const [1]: (1002639746)
B1E6  01                 const type 3
B1E7  DEAD95F5           const [2]: (-174740002)
                         * functions:
B1EB  00                 sizep (0)
                         * lines:
B1EC  0D                 sizelineinfo (13)
                         [pc] (line)
B1ED  4F                 [01] (79)
B1EE  05                 [02] (79)
B1EF  00                 [03] (79)
B1F0  00                 [04] (79)
B1F1  4F                 [05] (79)
B1F2  05                 [06] (80)
B1F3  00                 [07] (80)
B1F4  00                 [08] (80)
B1F5  4F                 [09] (80)
B1F6  05                 [10] (80)
B1F7  00                 [11] (80)
B1F8  00                 [12] (80)
B1F9  4F                 [13] (82)
                         * locals:
B221  00                 sizelocvars (0)
                         * upvalues:
B222  00                 sizeupvalues (0)
                         ** end of function **

                         
B223                     ** function [54] definition (level 2)
                         ** start of function **
B223  00                 string size (0)
                         source name: (none)
B225  0A                 line defined (1364)
B226  D8                 last line defined (1368)
B227  0A                 nups (1)
B228  01                 numparams (1)
B229  01                 is_vararg (0)
B22A  00                 maxstacksize (5)
                         * code:
B22C  0D                 sizecode (13)
B22D  5D000000           [01] getglobal  1   0        ; 1074689893
B231  93000000           [02] getupval   2   0      
B235  62800001           [03] call       1   2   2  
B239  58400000           [04] test       1       1    ; to [6] if false
B23D  1A800180           [05] jmp        7            ; to [13]
B241  53000000           [06] getupval   1   0      
B245  6440C000           [07] self       1   1   257  ; -1967297336
B249  DD800000           [08] getglobal  3   2        ; -174740002
B24D  12010000           [09] move       4   0      
B251  E2800001           [10] call       3   2   2  
B255  17018000           [11] loadbool   4   1   0    ; true
B259  62400002           [12] call       1   4   1  
B25D  1E008000           [13] return     0   1      
                         * constants:
B261  03                 sizek (3)
B262  01                 const type 3
B263  65770E40           const [0]: (1074689893)
B267  01                 const type 3
B268  C86CBD8A           const [1]: (-1967297336)
B26C  01                 const type 3
B26D  DEAD95F5           const [2]: (-174740002)
                         * functions:
B271  00                 sizep (0)
                         * lines:
B272  0D                 sizelineinfo (13)
                         [pc] (line)
B273  55                 [01] (85)
B274  05                 [02] (85)
B275  00                 [03] (85)
B276  00                 [04] (85)
B277  55                 [05] (85)
B278  05                 [06] (86)
B279  00                 [07] (86)
B27A  00                 [08] (86)
B27B  55                 [09] (86)
B27C  05                 [10] (86)
B27D  00                 [11] (86)
B27E  00                 [12] (86)
B27F  55                 [13] (88)
                         * locals:
B2A7  00                 sizelocvars (0)
                         * upvalues:
B2A8  00                 sizeupvalues (0)
                         ** end of function **

                         
B2A9                     ** function [55] definition (level 2)
                         ** start of function **
B2A9  00                 string size (0)
                         source name: (none)
B2AB  0A                 line defined (1370)
B2AC  DE                 last line defined (1374)
B2AD  0A                 nups (1)
B2AE  01                 numparams (1)
B2AF  01                 is_vararg (0)
B2B0  00                 maxstacksize (5)
                         * code:
B2B2  0D                 sizecode (13)
B2B3  5D000000           [01] getglobal  1   0        ; 1074689893
B2B7  93000000           [02] getupval   2   0      
B2BB  62800001           [03] call       1   2   2  
B2BF  58400000           [04] test       1       1    ; to [6] if false
B2C3  1A800180           [05] jmp        7            ; to [13]
B2C7  53000000           [06] getupval   1   0      
B2CB  6440C000           [07] self       1   1   257  ; 561426718
B2CF  DD800000           [08] getglobal  3   2        ; -174740002
B2D3  12010000           [09] move       4   0      
B2D7  E2800001           [10] call       3   2   2  
B2DB  17018000           [11] loadbool   4   1   0    ; true
B2DF  62400002           [12] call       1   4   1  
B2E3  1E008000           [13] return     0   1      
                         * constants:
B2E7  03                 sizek (3)
B2E8  01                 const type 3
B2E9  65770E40           const [0]: (1074689893)
B2ED  01                 const type 3
B2EE  1EB17621           const [1]: (561426718)
B2F2  01                 const type 3
B2F3  DEAD95F5           const [2]: (-174740002)
                         * functions:
B2F7  00                 sizep (0)
                         * lines:
B2F8  0D                 sizelineinfo (13)
                         [pc] (line)
B2F9  5B                 [01] (91)
B2FA  05                 [02] (91)
B2FB  00                 [03] (91)
B2FC  00                 [04] (91)
B2FD  5B                 [05] (91)
B2FE  05                 [06] (92)
B2FF  00                 [07] (92)
B300  00                 [08] (92)
B301  5B                 [09] (92)
B302  05                 [10] (92)
B303  00                 [11] (92)
B304  00                 [12] (92)
B305  5B                 [13] (94)
                         * locals:
B32D  00                 sizelocvars (0)
                         * upvalues:
B32E  00                 sizeupvalues (0)
                         ** end of function **

                         
B32F                     ** function [56] definition (level 2)
                         ** start of function **
B32F  00                 string size (0)
                         source name: (none)
B331  0A                 line defined (1376)
B332  F3                 last line defined (1395)
B333  0A                 nups (3)
B334  03                 numparams (1)
B335  01                 is_vararg (0)
B336  00                 maxstacksize (16)
                         * code:
B338  46                 sizecode (70)
B339  5D000000           [01] getglobal  1   0        ; -174740002
B33D  92000000           [02] move       2   0      
B341  62800001           [03] call       1   2   2  
B345  12008000           [04] move       0   1      
B349  53000000           [05] getupval   1   0      
B34D  4E008000           [06] gettable   1   1   0  
fail op	35
B351  6340C000           [07] close      1  
B355  1A000F80           [08] jmp        61           ; to [70]
B359  9D800000           [09] getglobal  2   2        ; immortalMods
B35D  C3C0C000           [10] add        3   1   259  ; 0
B361  8EC00001           [11] gettable   2   2   3  
fail op	35
B365  63404001           [12] close      1  
B369  1AC00D80           [13] jmp        56           ; to [70]
B36D  93008000           [14] getupval   2   1      
B371  8C404182           [15] settable   2   260 261  ; "IconFocused" 1
B375  9D800000           [16] getglobal  2   2        ; immortalMods
B379  C3C0C000           [17] add        3   1   259  ; 0
B37D  8EC00001           [18] gettable   2   2   3  
B381  D9800100           [19] loadk      3   6        ; "Hint.Hint"
B385  1DC10100           [20] getglobal  4   7        ; -1615931716
B389  52010000           [21] move       5   0      
B38D  22810001           [22] call       4   2   2  
B391  C2008101           [23] concat     3   3   4  
B395  0B810000           [24] newtable   4   0   2    ; array=0, hash=2
B399  0C414184           [25] settable   4   264 261  ; "CustomEntry" 1
B39D  5D810200           [26] getglobal  5   10       ; mMovie
B3A1  64C1C202           [27] self       5   5   267  ; 98241492
B3A5  E4014301           [28] self       7   2   268  ; 1634497718
B3A9  E2810001           [29] call       7   2   2  
B3AD  E441C303           [30] self       7   7   269  ; 1590141906
B3B1  E2810001           [31] call       7   2   2  
B3B5  17020000           [32] loadbool   8   0   0    ; false
B3B9  62810002           [33] call       5   4   2  
B3BD  0C418184           [34] settable   4   265 5    ; "Name"
B3C1  53010001           [35] getupval   5   2      
B3C5  4E81C302           [36] gettable   5   5   270  ; 1284490972
B3C9  9D810200           [37] getglobal  6   10       ; mMovie
B3CD  D2010002           [38] move       7   4      
B3D1  1D020000           [39] getglobal  8   0        ; -174740002
B3D5  5D820200           [40] getglobal  9   10       ; mMovie
B3D9  64C2C304           [41] self       9   9   271  ; 1803241227
B3DD  D2028001           [42] move       11  3      
B3E1  19030400           [43] loadk      12  16       ; "_screenX"
B3E5  62020002           [44] call       9   4   0  
B3E9  22820000           [45] call       8   0   2  
B3ED  5D020000           [46] getglobal  9   0        ; -174740002
B3F1  9D820200           [47] getglobal  10  10       ; mMovie
B3F5  A4C24305           [48] self       10  10  271  ; 1803241227
B3F9  12038001           [49] move       12  3      
B3FD  59430400           [50] loadk      13  17       ; "_screenY"
B401  A2020002           [51] call       10  4   0  
B405  62820000           [52] call       9   0   2  
B409  9D020000           [53] getglobal  10  0        ; -174740002
B40D  DD820200           [54] getglobal  11  10       ; mMovie
B411  E4C2C305           [55] self       11  11  271  ; 1803241227
B415  52038001           [56] move       13  3      
B419  99830400           [57] loadk      14  18       ; "_width"
B41D  E2020002           [58] call       11  4   0  
B421  A2820000           [59] call       10  0   2  
B425  DD020000           [60] getglobal  11  0        ; -174740002
B429  1D830200           [61] getglobal  12  10       ; mMovie
B42D  24C34306           [62] self       12  12  271  ; 1803241227
B431  92038001           [63] move       14  3      
B435  D9C30400           [64] loadk      15  19       ; "_height"
B439  22030002           [65] call       12  4   0  
B43D  E2020000           [66] call       11  0   0  
B441  62410000           [67] call       5   0   1  
B445  5D010500           [68] getglobal  5   20       ; _T
B449  4C01818A           [69] settable   5   277 4    ; "InfoPopup_Data"
B44D  1E008000           [70] return     0   1      
                         * constants:
B451  16                 sizek (22)
B452  01                 const type 3
B453  DEAD95F5           const [0]: (-174740002)
B457  00                 const type 0
                         const [1]: nil
B458  04                 const type 4
B459  0D                 string size (13)
B45A  696D6D6F7274616C+  "immortal"
B462  4D6F647300         "Mods\0"
                         const [2]: "immortalMods"
B467  03                 const type 3
B468  0000803F           const [3]: (0)
B46C  04                 const type 4
B46D  0C                 string size (12)
B46E  49636F6E466F6375+  "IconFocu"
B476  73656400           "sed\0"
                         const [4]: "IconFocused"
B47A  01                 const type 3
B47B  01000000           const [5]: (1)
B47F  04                 const type 4
B480  0A                 string size (10)
B481  48696E742E48696E+  "Hint.Hin"
B489  7400               "t\0"
                         const [6]: "Hint.Hint"
B48B  01                 const type 3
B48C  BCD6AE9F           const [7]: (-1615931716)
B490  04                 const type 4
B491  0C                 string size (12)
B492  437573746F6D456E+  "CustomEn"
B49A  74727900           "try\0"
                         const [8]: "CustomEntry"
B49E  04                 const type 4
B49F  05                 string size (5)
B4A0  4E616D6500         "Name\0"
                         const [9]: "Name"
B4A5  04                 const type 4
B4A6  07                 string size (7)
B4A7  6D4D6F76696500     "mMovie\0"
                         const [10]: "mMovie"
B4AE  01                 const type 3
B4AF  D40BDB05           const [11]: (98241492)
B4B3  01                 const type 3
B4B4  B6746C61           const [12]: (1634497718)
B4B8  01                 const type 3
B4B9  D2A3C75E           const [13]: (1590141906)
B4BD  01                 const type 3
B4BE  DCC68F4C           const [14]: (1284490972)
B4C2  01                 const type 3
B4C3  0B477B6B           const [15]: (1803241227)
B4C7  04                 const type 4
B4C8  09                 string size (9)
B4C9  5F73637265656E58+  "_screenX"
B4D1  00                 "\0"
                         const [16]: "_screenX"
B4D2  04                 const type 4
B4D3  09                 string size (9)
B4D4  5F73637265656E59+  "_screenY"
B4DC  00                 "\0"
                         const [17]: "_screenY"
B4DD  04                 const type 4
B4DE  07                 string size (7)
B4DF  5F776964746800     "_width\0"
                         const [18]: "_width"
B4E6  04                 const type 4
B4E7  08                 string size (8)
B4E8  5F68656967687400   "_height\0"
                         const [19]: "_height"
B4F0  04                 const type 4
B4F1  03                 string size (3)
B4F2  5F5400             "_T\0"
                         const [20]: "_T"
B4F5  04                 const type 4
B4F6  0F                 string size (15)
B4F7  496E666F506F7075+  "InfoPopu"
B4FF  705F4461746100     "p_Data\0"
                         const [21]: "InfoPopup_Data"
                         * functions:
B506  00                 sizep (0)
                         * lines:
B507  46                 sizelineinfo (70)
                         [pc] (line)
B508  61                 [01] (97)
B509  05                 [02] (97)
B50A  00                 [03] (97)
B50B  00                 [04] (97)
B50C  61                 [05] (98)
B50D  05                 [06] (98)
B50E  00                 [07] (99)
B50F  00                 [08] (99)
B510  61                 [09] (99)
B511  05                 [10] (99)
B512  00                 [11] (99)
B513  00                 [12] (99)
B514  61                 [13] (99)
B515  05                 [14] (100)
B516  00                 [15] (100)
B517  00                 [16] (101)
B518  62                 [17] (101)
B519  05                 [18] (101)
B51A  00                 [19] (102)
B51B  00                 [20] (102)
B51C  62                 [21] (102)
B51D  05                 [22] (102)
B51E  00                 [23] (102)
B51F  00                 [24] (103)
B520  63                 [25] (105)
B521  05                 [26] (106)
B522  00                 [27] (106)
B523  00                 [28] (106)
B524  63                 [29] (106)
B525  05                 [30] (106)
B526  00                 [31] (106)
B527  00                 [32] (106)
B528  63                 [33] (106)
B529  05                 [34] (106)
B52A  00                 [35] (108)
B52B  00                 [36] (108)
B52C  63                 [37] (108)
B52D  05                 [38] (108)
B52E  00                 [39] (109)
B52F  00                 [40] (109)
B530  63                 [41] (109)
B531  05                 [42] (109)
B532  00                 [43] (109)
B533  00                 [44] (109)
B534  63                 [45] (109)
B535  05                 [46] (110)
B536  00                 [47] (110)
B537  00                 [48] (110)
B538  63                 [49] (110)
B539  05                 [50] (110)
B53A  00                 [51] (110)
B53B  00                 [52] (110)
B53C  64                 [53] (111)
B53D  05                 [54] (111)
B53E  00                 [55] (111)
B53F  00                 [56] (111)
B540  64                 [57] (111)
B541  05                 [58] (111)
B542  00                 [59] (111)
B543  00                 [60] (112)
B544  65                 [61] (112)
B545  05                 [62] (112)
B546  00                 [63] (112)
B547  00                 [64] (112)
B548  65                 [65] (112)
B549  05                 [66] (112)
B54A  00                 [67] (108)
B54B  00                 [68] (113)
B54C  65                 [69] (113)
B54D  05                 [70] (115)
                         * locals:
B620  00                 sizelocvars (0)
                         * upvalues:
B621  00                 sizeupvalues (0)
                         ** end of function **

                         
B622                     ** function [57] definition (level 2)
                         ** start of function **
B622  00                 string size (0)
                         source name: (none)
B624  0A                 line defined (1397)
B625  F8                 last line defined (1400)
B626  0A                 nups (1)
B627  01                 numparams (1)
B628  01                 is_vararg (0)
B629  00                 maxstacksize (2)
                         * code:
B62B  05                 sizecode (5)
B62C  53000000           [1] getupval   1   0      
B630  4C404080           [2] settable   1   256 257  ; "IconFocused" 0
B634  5D800000           [3] getglobal  1   2        ; _T
B638  4C00C181           [4] settable   1   259 260  ; "InfoPopup_Data" nil
B63C  1E008000           [5] return     0   1      
                         * constants:
B640  05                 sizek (5)
B641  04                 const type 4
B642  0C                 string size (12)
B643  49636F6E466F6375+  "IconFocu"
B64B  73656400           "sed\0"
                         const [0]: "IconFocused"
B64F  01                 const type 3
B650  00000000           const [1]: (0)
B654  04                 const type 4
B655  03                 string size (3)
B656  5F5400             "_T\0"
                         const [2]: "_T"
B659  04                 const type 4
B65A  0F                 string size (15)
B65B  496E666F506F7075+  "InfoPopu"
B663  705F4461746100     "p_Data\0"
                         const [3]: "InfoPopup_Data"
B66A  00                 const type 0
                         const [4]: nil
                         * functions:
B66B  00                 sizep (0)
                         * lines:
B66C  05                 sizelineinfo (5)
                         [pc] (line)
B66D  76                 [1] (118)
B66E  05                 [2] (118)
B66F  00                 [3] (119)
B670  00                 [4] (119)
B671  76                 [5] (120)
                         * locals:
B681  00                 sizelocvars (0)
                         * upvalues:
B682  00                 sizeupvalues (0)
                         ** end of function **

                         
B683                     ** function [58] definition (level 2)
                         ** start of function **
B683  00                 string size (0)
                         source name: (none)
B685  0A                 line defined (1402)
B686  FE                 last line defined (1406)
B687  0A                 nups (1)
B688  01                 numparams (2)
B689  02                 is_vararg (0)
B68A  00                 maxstacksize (6)
                         * code:
B68C  0D                 sizecode (13)
B68D  9D000000           [01] getglobal  2   0        ; 1074689893
B691  D3000000           [02] getupval   3   0      
B695  A2800001           [03] call       2   2   2  
B699  98400000           [04] test       2       1    ; to [6] if false
B69D  1A800180           [05] jmp        7            ; to [13]
B6A1  93000000           [06] getupval   2   0      
B6A5  8E404001           [07] gettable   2   2   257  ; "mScrollBar"
B6A9  A4804001           [08] self       2   2   258  ; -1622081655
B6AD  1DC10000           [09] getglobal  4   3        ; -174740002
B6B1  52018000           [10] move       5   1      
B6B5  22010001           [11] call       4   2   0  
B6B9  A2400000           [12] call       2   0   1  
B6BD  1E008000           [13] return     0   1      
                         * constants:
B6C1  04                 sizek (4)
B6C2  01                 const type 3
B6C3  65770E40           const [0]: (1074689893)
B6C7  04                 const type 4
B6C8  0B                 string size (11)
B6C9  6D5363726F6C6C42+  "mScrollB"
B6D1  617200             "ar\0"
                         const [1]: "mScrollBar"
B6D4  01                 const type 3
B6D5  89FF509F           const [2]: (-1622081655)
B6D9  01                 const type 3
B6DA  DEAD95F5           const [3]: (-174740002)
                         * functions:
B6DE  00                 sizep (0)
                         * lines:
B6DF  0D                 sizelineinfo (13)
                         [pc] (line)
B6E0  7B                 [01] (123)
B6E1  05                 [02] (123)
B6E2  00                 [03] (123)
B6E3  00                 [04] (123)
B6E4  7B                 [05] (123)
B6E5  05                 [06] (124)
B6E6  00                 [07] (124)
B6E7  00                 [08] (124)
B6E8  7B                 [09] (124)
B6E9  05                 [10] (124)
B6EA  00                 [11] (124)
B6EB  00                 [12] (124)
B6EC  7B                 [13] (126)
                         * locals:
B714  00                 sizelocvars (0)
                         * upvalues:
B715  00                 sizeupvalues (0)
                         ** end of function **

                         
B716                     ** function [59] definition (level 2)
                         ** start of function **
B716  00                 string size (0)
                         source name: (none)
B718  0B                 line defined (1408)
B719  82                 last line defined (1410)
B71A  0B                 nups (0)
B71B  00                 numparams (0)
B71C  00                 is_vararg (0)
B71D  00                 maxstacksize (2)
                         * code:
B71F  03                 sizecode (3)
B720  17008000           [1] loadbool   0   1   0    ; true
B724  1E000001           [2] return     0   2      
B728  1E008000           [3] return     0   1      
                         * constants:
B72C  00                 sizek (0)
                         * functions:
B72D  00                 sizep (0)
                         * lines:
B72E  03                 sizelineinfo (3)
                         [pc] (line)
B72F  81                 [1] (-127)
B730  05                 [2] (-127)
B731  00                 [3] (-126)
                         * locals:
B73B  00                 sizelocvars (0)
                         * upvalues:
B73C  00                 sizeupvalues (0)
                         ** end of function **

                         
B73D                     ** function [60] definition (level 2)
                         ** start of function **
B73D  00                 string size (0)
                         source name: (none)
B73F  0B                 line defined (1412)
B740  86                 last line defined (1414)
B741  0B                 nups (0)
B742  00                 numparams (0)
B743  00                 is_vararg (0)
B744  00                 maxstacksize (2)
                         * code:
B746  04                 sizecode (4)
B747  1D000000           [1] getglobal  0   0        ; gGameData
B74B  24404000           [2] self       0   0   257  ; 983206179
B74F  22400001           [3] call       0   2   1  
B753  1E008000           [4] return     0   1      
                         * constants:
B757  02                 sizek (2)
B758  04                 const type 4
B759  0A                 string size (10)
B75A  6747616D65446174+  "gGameDat"
B762  6100               "a\0"
                         const [0]: "gGameData"
B764  01                 const type 3
B765  23899A3A           const [1]: (983206179)
                         * functions:
B769  00                 sizep (0)
                         * lines:
B76A  04                 sizelineinfo (4)
                         [pc] (line)
B76B  85                 [1] (-123)
B76C  05                 [2] (-123)
B76D  00                 [3] (-123)
B76E  00                 [4] (-122)
                         * locals:
B77B  00                 sizelocvars (0)
                         * upvalues:
B77C  00                 sizeupvalues (0)
                         ** end of function **

                         
B77D                     ** function [61] definition (level 2)
                         ** start of function **
B77D  00                 string size (0)
                         source name: (none)
B77F  0B                 line defined (1416)
B780  9A                 last line defined (1434)
B781  0B                 nups (0)
B782  00                 numparams (2)
B783  02                 is_vararg (0)
B784  00                 maxstacksize (12)
                         * code:
B786  2D                 sizecode (45)
B787  18000000           [01] test       0       0    ; to [3] if true
B78B  1A400A80           [02] jmp        42           ; to [45]
fail op	35
B78F  6300C000           [03] close      1  
B793  1AC00980           [04] jmp        40           ; to [45]
B797  9D400000           [05] getglobal  2   1        ; cjson
B79B  8E804001           [06] gettable   2   2   258  ; -1976663275
B79F  D2008000           [07] move       3   1      
B7A3  A2800001           [08] call       2   2   2  
B7A7  CEC04001           [09] gettable   3   2   259  ; "Hint"
fail op	35
B7AB  2300C101           [10] close      0  
B7AF  1A000080           [11] jmp        1            ; to [13]
B7B3  1AC00780           [12] jmp        32           ; to [45]
fail op	21
B7B7  1540C101           [13] concat     0   3   261
B7BB  1A400480           [14] jmp        18           ; to [33]
B7BF  1D810100           [15] getglobal  4   6        ; math
B7C3  0EC14102           [16] gettable   4   4   263  ; -113279800
B7C7  52018001           [17] move       5   3      
B7CB  22810001           [18] call       4   2   2  
B7CF  04014202           [19] mul        4   4   264  ; 0
B7D3  03010184           [20] add        4   264 4    ; 0
B7D7  5D410200           [21] getglobal  5   9        ; gGameRules
B7DB  6481C202           [22] self       5   5   266  ; 311459921
B7DF  DDC10200           [23] getglobal  7   11       ; -421772368
B7E3  19020300           [24] loadk      8   12       ; "/Lotus/Language/Game/KuvaMurmur"
B7E7  4B020000           [25] newtable   9   0   0    ; array=0, hash=0
B7EB  E2818001           [26] call       7   3   2  
B7EF  12020002           [27] move       8   4      
B7F3  59420100           [28] loadk      9   5        ; 0
B7F7  97020000           [29] loadbool   10  0   0    ; false
B7FB  D9420300           [30] loadk      11  13       ; 0
B7FF  62418003           [31] call       5   7   1  
B803  1AC00280           [32] jmp        12           ; to [45]
B807  5D410200           [33] getglobal  5   9        ; gGameRules
B80B  6481C202           [34] self       5   5   266  ; 311459921
B80F  DDC10200           [35] getglobal  7   11       ; -421772368
B813  19020300           [36] loadk      8   12       ; "/Lotus/Language/Game/KuvaMurmur"
B817  4B020000           [37] newtable   9   0   0    ; array=0, hash=0
B81B  E2818001           [38] call       7   3   2  
B81F  0382C301           [39] add        8   3   270  ; 0
B823  59420100           [40] loadk      9   5        ; 0
B827  97020000           [41] loadbool   10  0   0    ; false
B82B  D9420300           [42] loadk      11  13       ; 0
B82F  62418003           [43] call       5   7   1  
B833  1AC0FF7F           [44] jmp        0            ; to [45]
B837  1E008000           [45] return     0   1      
                         * constants:
B83B  0F                 sizek (15)
B83C  04                 const type 4
B83D  01                 string size (0)
                         const [0]: ""
B83F  04                 const type 4
B840  06                 string size (6)
B841  636A736F6E00       "cjson\0"
                         const [1]: "cjson"
B847  01                 const type 3
B848  15832E8A           const [2]: (-1976663275)
B84C  04                 const type 4
B84D  05                 string size (5)
B84E  48696E7400         "Hint\0"
                         const [3]: "Hint"
B853  03                 const type 3
B854  000040C0           const [4]: (0)
B858  03                 const type 3
B859  00000000           const [5]: (0)
B85D  04                 const type 4
B85E  05                 string size (5)
B85F  6D61746800         "math\0"
                         const [6]: "math"
B864  01                 const type 3
B865  C87C3FF9           const [7]: (-113279800)
B869  03                 const type 3
B86A  0000C842           const [8]: (0)
B86E  04                 const type 4
B86F  0B                 string size (11)
B870  6747616D6552756C+  "gGameRul"
B878  657300             "es\0"
                         const [9]: "gGameRules"
B87B  01                 const type 3
B87C  51809012           const [10]: (311459921)
B880  01                 const type 3
B881  B043DCE6           const [11]: (-421772368)
B885  04                 const type 4
B886  20                 string size (32)
B887  2F4C6F7475732F4C+  "/Lotus/L"
B88F  616E67756167652F+  "anguage/"
B897  47616D652F4B7576+  "Game/Kuv"
B89F  614D75726D757200   "aMurmur\0"
                         const [12]: "/Lotus/Language/Game/KuvaMurmur"
B8A7  03                 const type 3
B8A8  00008040           const [13]: (0)
B8AC  03                 const type 3
B8AD  0000803F           const [14]: (0)
                         * functions:
B8B1  00                 sizep (0)
                         * lines:
B8B2  2D                 sizelineinfo (45)
                         [pc] (line)
B8B3  89                 [01] (-119)
B8B4  05                 [02] (-119)
B8B5  00                 [03] (-119)
B8B6  00                 [04] (-119)
B8B7  89                 [05] (-118)
B8B8  05                 [06] (-118)
B8B9  00                 [07] (-118)
B8BA  00                 [08] (-118)
B8BB  89                 [09] (-117)
B8BC  05                 [10] (-115)
B8BD  00                 [11] (-115)
B8BE  00                 [12] (-115)
B8BF  89                 [13] (-113)
B8C0  05                 [14] (-113)
B8C1  00                 [15] (-112)
B8C2  00                 [16] (-112)
B8C3  8A                 [17] (-112)
B8C4  05                 [18] (-112)
B8C5  00                 [19] (-112)
B8C6  00                 [20] (-112)
B8C7  8A                 [21] (-111)
B8C8  05                 [22] (-111)
B8C9  00                 [23] (-111)
B8CA  00                 [24] (-111)
B8CB  8A                 [25] (-111)
B8CC  05                 [26] (-111)
B8CD  00                 [27] (-111)
B8CE  00                 [28] (-111)
B8CF  8A                 [29] (-111)
B8D0  05                 [30] (-111)
B8D1  00                 [31] (-111)
B8D2  00                 [32] (-111)
B8D3  8B                 [33] (-108)
B8D4  05                 [34] (-108)
B8D5  00                 [35] (-108)
B8D6  00                 [36] (-108)
B8D7  8D                 [37] (-108)
B8D8  05                 [38] (-108)
B8D9  00                 [39] (-108)
B8DA  00                 [40] (-108)
B8DB  8D                 [41] (-108)
B8DC  05                 [42] (-108)
B8DD  00                 [43] (-108)
B8DE  00                 [44] (-107)
B8DF  8D                 [45] (-102)
                         * locals:
B967  00                 sizelocvars (0)
                         * upvalues:
B968  00                 sizeupvalues (0)
                         ** end of function **

                         
B969                     ** function [62] definition (level 2)
                         ** start of function **
B969  00                 string size (0)
                         source name: (none)
B96B  0B                 line defined (1436)
B96C  AF                 last line defined (1455)
B96D  0B                 nups (0)
B96E  00                 numparams (0)
B96F  00                 is_vararg (0)
B970  00                 maxstacksize (13)
                         * code:
B972  36                 sizecode (54)
B973  1D000000           [01] getglobal  0   0        ; -332969190
B977  59400000           [02] loadk      1   1        ; "NemesisHintProgress"
B97B  22800001           [03] call       0   2   2  
B97F  59800000           [04] loadk      1   2        ; -51
B983  9DC00000           [05] getglobal  2   3        ; math
B987  8E004101           [06] gettable   2   2   260  ; -150971781
B98B  C440C100           [07] mul        3   1   261  ; 0
B98F  C3C00083           [08] add        3   262 3    ; 0
B993  A2800001           [09] call       2   2   2  
B997  52000001           [10] move       1   2      
B99B  9DC00100           [11] getglobal  2   7        ; gGameRules
B99F  A4004201           [12] self       2   2   264  ; -317790213
B9A3  12010000           [13] move       4   0      
B9A7  A2808001           [14] call       2   3   2  
B9AB  83400001           [15] add        2   2   1  
B9AF  DDC00100           [16] getglobal  3   7        ; gGameRules
B9B3  E440C201           [17] self       3   3   265  ; -803877924
B9B7  52010000           [18] move       5   0      
B9BB  92010001           [19] move       6   2      
B9BF  E2400002           [20] call       3   4   1  
B9C3  D2000001           [21] move       3   2      
B9C7  1D810200           [22] getglobal  4   10       ; 1074689893
B9CB  5DC10200           [23] getglobal  5   11       ; gGameData
B9CF  22810001           [24] call       4   2   2  
B9D3  18410000           [25] test       4       1    ; to [27] if false
B9D7  1A400280           [26] jmp        10           ; to [37]
B9DB  1DC10200           [27] getglobal  4   11       ; gGameData
B9DF  24014302           [28] self       4   4   268  ; 389385621
B9E3  22810001           [29] call       4   2   2  
B9E7  5D810200           [30] getglobal  5   10       ; 1074689893
B9EB  92010002           [31] move       6   4      
B9EF  62810001           [32] call       5   2   2  
B9F3  58410000           [33] test       5       1    ; to [35] if false
B9F7  1A400080           [34] jmp        2            ; to [37]
B9FB  4E414302           [35] gettable   5   4   269  ; "mHintProgress"
B9FF  C3408101           [36] add        3   3   5  
BA03  5D810300           [37] getglobal  5   14       ; 1668611480
BA07  92018001           [38] move       6   3      
BA0B  D9C10300           [39] loadk      7   15       ; 0
BA0F  19420100           [40] loadk      8   5        ; 0
BA13  62810002           [41] call       5   4   2  
BA17  43418182           [42] add        5   261 5    ; 0
BA1B  9DC10100           [43] getglobal  6   7        ; gGameRules
BA1F  A4014403           [44] self       6   6   272  ; 311459921
BA23  1D420400           [45] getglobal  8   17       ; -421772368
BA27  59820400           [46] loadk      9   18       ; "/Lotus/Language/Game/KuvaMurmur"
BA2B  8B020000           [47] newtable   10  0   0    ; array=0, hash=0
BA2F  22828001           [48] call       8   3   2  
BA33  52028002           [49] move       9   5      
BA37  99C20300           [50] loadk      10  15       ; 0
BA3B  D7020000           [51] loadbool   11  0   0    ; false
BA3F  19C30400           [52] loadk      12  19       ; 0
BA43  A2418003           [53] call       6   7   1  
BA47  1E008000           [54] return     0   1      
                         * constants:
BA4B  14                 sizek (20)
BA4C  01                 const type 3
BA4D  1A4B27EC           const [0]: (-332969190)
BA51  04                 const type 4
BA52  14                 string size (20)
BA53  4E656D6573697348+  "NemesisH"
BA5B  696E7450726F6772+  "intProgr"
BA63  65737300           "ess\0"
                         const [1]: "NemesisHintProgress"
BA67  03                 const type 3
BA68  CDCC4C3E           const [2]: (-51)
BA6C  04                 const type 4
BA6D  05                 string size (5)
BA6E  6D61746800         "math\0"
                         const [3]: "math"
BA73  01                 const type 3
BA74  7B5A00F7           const [4]: (-150971781)
BA78  03                 const type 3
BA79  0000C842           const [5]: (0)
BA7D  03                 const type 3
BA7E  0000003F           const [6]: (0)
BA82  04                 const type 4
BA83  0B                 string size (11)
BA84  6747616D6552756C+  "gGameRul"
BA8C  657300             "es\0"
                         const [7]: "gGameRules"
BA8F  01                 const type 3
BA90  FBE70EED           const [8]: (-317790213)
BA94  01                 const type 3
BA95  DCCB15D0           const [9]: (-803877924)
BA99  01                 const type 3
BA9A  65770E40           const [10]: (1074689893)
BA9E  04                 const type 4
BA9F  0A                 string size (10)
BAA0  6747616D65446174+  "gGameDat"
BAA8  6100               "a\0"
                         const [11]: "gGameData"
BAAA  01                 const type 3
BAAB  958D3517           const [12]: (389385621)
BAAF  04                 const type 4
BAB0  0E                 string size (14)
BAB1  6D48696E7450726F+  "mHintPro"
BAB9  677265737300       "gress\0"
                         const [13]: "mHintProgress"
BABF  01                 const type 3
BAC0  98FD7463           const [14]: (1668611480)
BAC4  03                 const type 3
BAC5  00000000           const [15]: (0)
BAC9  01                 const type 3
BACA  51809012           const [16]: (311459921)
BACE  01                 const type 3
BACF  B043DCE6           const [17]: (-421772368)
BAD3  04                 const type 4
BAD4  20                 string size (32)
BAD5  2F4C6F7475732F4C+  "/Lotus/L"
BADD  616E67756167652F+  "anguage/"
BAE5  47616D652F4B7576+  "Game/Kuv"
BAED  614D75726D757200   "aMurmur\0"
                         const [18]: "/Lotus/Language/Game/KuvaMurmur"
BAF5  03                 const type 3
BAF6  00008040           const [19]: (0)
                         * functions:
BAFA  00                 sizep (0)
                         * lines:
BAFB  36                 sizelineinfo (54)
                         [pc] (line)
BAFC  9E                 [01] (-98)
BAFD  05                 [02] (-98)
BAFE  00                 [03] (-98)
BAFF  00                 [04] (-97)
BB00  9E                 [05] (-96)
BB01  05                 [06] (-96)
BB02  00                 [07] (-96)
BB03  00                 [08] (-96)
BB04  9E                 [09] (-96)
BB05  05                 [10] (-96)
BB06  00                 [11] (-93)
BB07  00                 [12] (-93)
BB08  9F                 [13] (-93)
BB09  05                 [14] (-93)
BB0A  00                 [15] (-92)
BB0B  00                 [16] (-91)
BB0C  A0                 [17] (-91)
BB0D  05                 [18] (-91)
BB0E  00                 [19] (-91)
BB0F  00                 [20] (-91)
BB10  A0                 [21] (-90)
BB11  05                 [22] (-89)
BB12  00                 [23] (-89)
BB13  00                 [24] (-89)
BB14  A0                 [25] (-89)
BB15  05                 [26] (-89)
BB16  00                 [27] (-88)
BB17  00                 [28] (-88)
BB18  A0                 [29] (-88)
BB19  05                 [30] (-87)
BB1A  00                 [31] (-87)
BB1B  00                 [32] (-87)
BB1C  A0                 [33] (-87)
BB1D  05                 [34] (-87)
BB1E  00                 [35] (-86)
BB1F  00                 [36] (-86)
BB20  A0                 [37] (-83)
BB21  05                 [38] (-83)
BB22  00                 [39] (-83)
BB23  00                 [40] (-83)
BB24  A3                 [41] (-83)
BB25  05                 [42] (-83)
BB26  00                 [43] (-82)
BB27  00                 [44] (-82)
BB28  A3                 [45] (-82)
BB29  05                 [46] (-82)
BB2A  00                 [47] (-82)
BB2B  00                 [48] (-82)
BB2C  A3                 [49] (-82)
BB2D  05                 [50] (-82)
BB2E  00                 [51] (-82)
BB2F  00                 [52] (-82)
BB30  A3                 [53] (-82)
BB31  05                 [54] (-81)
                         * locals:
BBD4  00                 sizelocvars (0)
                         * upvalues:
BBD5  00                 sizeupvalues (0)
                         ** end of function **

                         * lines:
BBD7  03                 sizelineinfo (394)
                         [pc] (line)
BBD8  10                 [001] (16)
BBD9  00                 [002] (17)
BBDA  00                 [003] (17)
BBDB  00                 [004] (17)
BBDC  11                 [005] (18)
BBDD  00                 [006] (18)
BBDE  00                 [007] (18)
BBDF  00                 [008] (19)
BBE0  11                 [009] (19)
BBE1  00                 [010] (19)
BBE2  00                 [011] (20)
BBE3  00                 [012] (20)
BBE4  11                 [013] (20)
BBE5  00                 [014] (21)
BBE6  00                 [015] (21)
BBE7  00                 [016] (21)
BBE8  12                 [017] (22)
BBE9  00                 [018] (22)
BBEA  00                 [019] (22)
BBEB  00                 [020] (23)
BBEC  12                 [021] (23)
BBED  00                 [022] (23)
BBEE  00                 [023] (24)
BBEF  00                 [024] (24)
BBF0  12                 [025] (24)
BBF1  00                 [026] (25)
BBF2  00                 [027] (25)
BBF3  00                 [028] (25)
BBF4  13                 [029] (27)
BBF5  00                 [030] (27)
BBF6  00                 [031] (27)
BBF7  00                 [032] (27)
BBF8  13                 [033] (27)
BBF9  00                 [034] (27)
BBFA  00                 [035] (29)
BBFB  00                 [036] (30)
BBFC  13                 [037] (31)
BBFD  00                 [038] (32)
BBFE  00                 [039] (36)
BBFF  00                 [040] (37)
BC00  14                 [041] (38)
BC01  00                 [042] (47)
BC02  00                 [043] (48)
BC03  00                 [044] (48)
BC04  14                 [045] (48)
BC05  00                 [046] (48)
BC06  00                 [047] (48)
BC07  00                 [048] (49)
BC08  14                 [049] (51)
BC09  00                 [050] (52)
BC0A  00                 [051] (54)
BC0B  00                 [052] (55)
BC0C  15                 [053] (56)
BC0D  00                 [054] (58)
BC0E  00                 [055] (59)
BC0F  00                 [056] (59)
BC10  15                 [057] (59)
BC11  00                 [058] (60)
BC12  00                 [059] (70)
BC13  00                 [060] (71)
BC14  15                 [061] (72)
BC15  00                 [062] (73)
BC16  00                 [063] (111)
BC17  00                 [064] (111)
BC18  16                 [065] (111)
BC19  00                 [066] (111)
BC1A  00                 [067] (111)
BC1B  00                 [068] (75)
BC1C  16                 [069] (116)
BC1D  00                 [070] (116)
BC1E  00                 [071] (-127)
BC1F  00                 [072] (-127)
BC20  16                 [073] (-127)
BC21  00                 [074] (-127)
BC22  00                 [075] (-127)
BC23  00                 [076] (-110)
BC24  17                 [077] (-110)
BC25  00                 [078] (-86)
BC26  00                 [079] (-86)
BC27  00                 [080] (-86)
BC28  17                 [081] (-86)
BC29  00                 [082] (-39)
BC2A  00                 [083] (-39)
BC2B  00                 [084] (-39)
BC2C  17                 [085] (-39)
BC2D  00                 [086] (-39)
BC2E  00                 [087] (-39)
BC2F  00                 [088] (98)
BC30  18                 [089] (98)
BC31  00                 [090] (98)
BC32  00                 [091] (98)
BC33  00                 [092] (98)
BC34  18                 [093] (98)
BC35  00                 [094] (98)
BC36  00                 [095] (98)
BC37  00                 [096] (98)
BC38  18                 [097] (98)
BC39  00                 [098] (98)
BC3A  00                 [099] (98)
BC3B  00                 [100] (98)
BC3C  19                 [101] (-110)
BC3D  00                 [102] (-110)
BC3E  00                 [103] (-110)
BC3F  00                 [104] (-110)
BC40  19                 [105] (-110)
BC41  00                 [106] (-46)
BC42  00                 [107] (-46)
BC43  00                 [108] (-46)
BC44  19                 [109] (-46)
BC45  00                 [110] (-46)
BC46  00                 [111] (-46)
BC47  00                 [112] (-46)
BC48  1B                 [113] (-46)
BC49  00                 [114] (-46)
BC4A  00                 [115] (-35)
BC4B  00                 [116] (-35)
BC4C  1B                 [117] (-35)
BC4D  00                 [118] (-35)
BC4E  00                 [119] (-35)
BC4F  00                 [120] (-35)
BC50  1B                 [121] (-35)
BC51  00                 [122] (-35)
BC52  00                 [123] (-29)
BC53  00                 [124] (-29)
BC54  1B                 [125] (-29)
BC55  00                 [126] (-29)
BC56  00                 [127] (-32)
BC57  00                 [128] (-25)
BC58  1B                 [129] (-25)
BC59  00                 [130] (-25)
BC5A  00                 [131] (-27)
BC5B  00                 [132] (-20)
BC5C  1B                 [133] (-20)
BC5D  00                 [134] (-20)
BC5E  00                 [135] (-16)
BC5F  00                 [136] (-16)
BC60  1D                 [137] (-16)
BC61  00                 [138] (-18)
BC62  00                 [139] (-7)
BC63  00                 [140] (-7)
BC64  1E                 [141] (0)
BC65  00                 [142] (0)
BC66  00                 [143] (0)
BC67  00                 [144] (-5)
BC68  1F                 [145] (22)
BC69  00                 [146] (22)
BC6A  00                 [147] (22)
BC6B  00                 [148] (22)
BC6C  20                 [149] (22)
BC6D  00                 [150] (22)
BC6E  00                 [151] (22)
BC6F  00                 [152] (30)
BC70  24                 [153] (30)
BC71  00                 [154] (30)
BC72  00                 [155] (25)
BC73  00                 [156] (34)
BC74  25                 [157] (34)
BC75  00                 [158] (32)
BC76  00                 [159] (39)
BC77  00                 [160] (39)
BC78  26                 [161] (39)
BC79  00                 [162] (36)
BC7A  00                 [163] (47)
BC7B  00                 [164] (71)
BC7C  2F                 [165] (71)
BC7D  00                 [166] (71)
BC7E  00                 [167] (71)
BC7F  00                 [168] (71)
BC80  30                 [169] (71)
BC81  00                 [170] (71)
BC82  00                 [171] (71)
BC83  00                 [172] (71)
BC84  30                 [173] (71)
BC85  00                 [174] (49)
BC86  00                 [175] (75)
BC87  00                 [176] (75)
BC88  30                 [177] (75)
BC89  00                 [178] (75)
BC8A  00                 [179] (100)
BC8B  00                 [180] (100)
BC8C  30                 [181] (100)
BC8D  00                 [182] (100)
BC8E  00                 [183] (100)
BC8F  00                 [184] (100)
BC90  30                 [185] (100)
BC91  00                 [186] (100)
BC92  00                 [187] (100)
BC93  00                 [188] (100)
BC94  31                 [189] (126)
BC95  00                 [190] (126)
BC96  00                 [191] (126)
BC97  00                 [192] (126)
BC98  33                 [193] (126)
BC99  00                 [194] (126)
BC9A  00                 [195] (102)
BC9B  00                 [196] (-126)
BC9C  34                 [197] (-126)
BC9D  00                 [198] (-126)
BC9E  00                 [199] (-128)
BC9F  00                 [200] (-122)
BCA0  36                 [201] (-122)
BCA1  00                 [202] (-122)
BCA2  00                 [203] (-124)
BCA3  00                 [204] (-114)
BCA4  37                 [205] (-114)
BCA5  00                 [206] (-114)
BCA6  00                 [207] (-114)
BCA7  00                 [208] (-120)
BCA8  38                 [209] (-104)
BCA9  00                 [210] (-104)
BCAA  00                 [211] (-104)
BCAB  00                 [212] (-104)
BCAC  3A                 [213] (-104)
BCAD  00                 [214] (-112)
BCAE  00                 [215] (-94)
BCAF  00                 [216] (-94)
BCB0  3B                 [217] (-94)
BCB1  00                 [218] (-94)
BCB2  00                 [219] (-94)
BCB3  00                 [220] (-102)
BCB4  3B                 [221] (-75)
BCB5  00                 [222] (-75)
BCB6  00                 [223] (-75)
BCB7  00                 [224] (-75)
BCB8  3B                 [225] (-75)
BCB9  00                 [226] (-75)
BCBA  00                 [227] (-75)
BCBB  00                 [228] (-75)
BCBC  3C                 [229] (-75)
BCBD  00                 [230] (-92)
BCBE  00                 [231] (-32)
BCBF  00                 [232] (-32)
BCC0  46                 [233] (-32)
BCC1  00                 [234] (-32)
BCC2  00                 [235] (-73)
BCC3  00                 [236] (-11)
BCC4  47                 [237] (-11)
BCC5  00                 [238] (-11)
BCC6  00                 [239] (-5)
BCC7  00                 [240] (-5)
BCC8  48                 [241] (-5)
BCC9  00                 [242] (-5)
BCCA  00                 [243] (11)
BCCB  00                 [244] (11)
BCCC  49                 [245] (11)
BCCD  00                 [246] (11)
BCCE  00                 [247] (38)
BCCF  00                 [248] (38)
BCD0  6F                 [249] (38)
BCD1  00                 [250] (51)
BCD2  00                 [251] (51)
BCD3  00                 [252] (51)
BCD4  6F                 [253] (55)
BCD5  00                 [254] (98)
BCD6  00                 [255] (98)
BCD7  00                 [256] (98)
BCD8  6F                 [257] (98)
BCD9  00                 [258] (98)
BCDA  00                 [259] (106)
BCDB  00                 [260] (106)
BCDC  6F                 [261] (106)
BCDD  00                 [262] (100)
BCDE  00                 [263] (-113)
BCDF  00                 [264] (-113)
BCE0  6F                 [265] (-50)
BCE1  00                 [266] (-50)
BCE2  00                 [267] (-50)
BCE3  00                 [268] (-50)
BCE4  4B                 [269] (-12)
BCE5  00                 [270] (-12)
BCE6  00                 [271] (-12)
BCE7  00                 [272] (-12)
BCE8  74                 [273] (9)
BCE9  00                 [274] (9)
BCEA  00                 [275] (9)
BCEB  00                 [276] (9)
BCEC  74                 [277] (19)
BCED  00                 [278] (19)
BCEE  00                 [279] (-64)
BCEF  00                 [280] (-64)
BCF0  81                 [281] (-64)
BCF1  00                 [282] (-64)
BCF2  00                 [283] (-64)
BCF3  00                 [284] (-64)
BCF4  81                 [285] (-64)
BCF5  00                 [286] (-64)
BCF6  00                 [287] (-64)
BCF7  00                 [288] (-64)
BCF8  81                 [289] (-64)
BCF9  00                 [290] (-64)
BCFA  00                 [291] (-64)
BCFB  00                 [292] (-64)
BCFC  81                 [293] (-64)
BCFD  00                 [294] (-64)
BCFE  00                 [295] (-64)
BCFF  00                 [296] (-64)
BD00  81                 [297] (-64)
BD01  00                 [298] (-64)
BD02  00                 [299] (-64)
BD03  00                 [300] (-64)
BD04  92                 [301] (-64)
BD05  00                 [302] (-64)
BD06  00                 [303] (-64)
BD07  00                 [304] (-64)
BD08  92                 [305] (-64)
BD09  00                 [306] (-64)
BD0A  00                 [307] (-64)
BD0B  00                 [308] (21)
BD0C  AA                 [309] (-45)
BD0D  00                 [310] (-45)
BD0E  00                 [311] (-45)
BD0F  00                 [312] (-45)
BD10  AA                 [313] (-62)
BD11  00                 [314] (-21)
BD12  00                 [315] (-21)
BD13  00                 [316] (-21)
BD14  AA                 [317] (-21)
BD15  00                 [318] (-21)
BD16  00                 [319] (-21)
BD17  00                 [320] (-21)
BD18  AA                 [321] (-21)
BD19  00                 [322] (-7)
BD1A  00                 [323] (-7)
BD1B  00                 [324] (-7)
BD1C  D9                 [325] (-19)
BD1D  00                 [326] (8)
BD1E  00                 [327] (8)
BD1F  00                 [328] (8)
BD20  D9                 [329] (20)
BD21  00                 [330] (20)
BD22  00                 [331] (20)
BD23  00                 [332] (20)
BD24  D9                 [333] (20)
BD25  00                 [334] (20)
BD26  00                 [335] (10)
BD27  00                 [336] (40)
BD28  D9                 [337] (40)
BD29  00                 [338] (40)
BD2A  00                 [339] (40)
BD2B  00                 [340] (40)
BD2C  D9                 [341] (76)
BD2D  00                 [342] (76)
BD2E  00                 [343] (76)
BD2F  00                 [344] (76)
BD30  D9                 [345] (76)
BD31  00                 [346] (76)
BD32  00                 [347] (76)
BD33  00                 [348] (76)
BD34  62                 [349] (76)
BD35  01                 [350] (76)
BD36  00                 [351] (76)
BD37  00                 [352] (76)
BD38  62                 [353] (76)
BD39  01                 [354] (76)
BD3A  00                 [355] (42)
BD3B  00                 [356] (82)
BD3C  62                 [357] (82)
BD3D  01                 [358] (82)
BD3E  00                 [359] (78)
BD3F  00                 [360] (88)
BD40  62                 [361] (88)
BD41  01                 [362] (88)
BD42  00                 [363] (84)
BD43  00                 [364] (94)
BD44  62                 [365] (94)
BD45  01                 [366] (94)
BD46  00                 [367] (90)
BD47  00                 [368] (115)
BD48  62                 [369] (115)
BD49  01                 [370] (115)
BD4A  00                 [371] (115)
BD4B  00                 [372] (115)
BD4C  62                 [373] (96)
BD4D  01                 [374] (120)
BD4E  00                 [375] (120)
BD4F  00                 [376] (120)
BD50  62                 [377] (117)
BD51  01                 [378] (126)
BD52  00                 [379] (126)
BD53  00                 [380] (126)
BD54  62                 [381] (122)
BD55  01                 [382] (-126)
BD56  00                 [383] (-126)
BD57  00                 [384] (-128)
BD58  62                 [385] (-122)
BD59  01                 [386] (-122)
BD5A  00                 [387] (-124)
BD5B  00                 [388] (-102)
BD5C  62                 [389] (-102)
BD5D  01                 [390] (-120)
BD5E  00                 [391] (-81)
BD5F  00                 [392] (-81)
BD60  62                 [393] (-100)
BD61  01                 [394] (-81)
                         * locals:
C200  00                 sizelocvars (0)
                         * upvalues:
C201  00                 sizeupvalues (0)
                         ** end of function **

C202                     ** end of chunk **
