1	C:\wlua_dump\path\Lotus\Powersuits\NpcPowersuits\NpcPowersuitAbilitiesRiotProjectileAreaAttack.lua
Pos   Hex Data           Description or Code
------------------------------------------------------------------------
0000                     ** source chunk: C:\wlua_dump\path\Lotus\Powersuits\NpcPowersuits\NpcPowersuitAbilitiesRiotProjectileAreaAttack.lua
                         ** global header start **
0000  7F                 header signature: ""
0001  00                 version (major:minor hex digits)
0002  00                 format (0=official)
0003  00                 endianness (1=little endian)
0004  00                 size of int (bytes)
0005  00                 size of size_t (bytes)
0006  02                 size of Instruction (bytes)
0007  02                 size of number (bytes)
0008  0A                 integral (1=integral)
410
                         * number type: single
                         * x86 standard (32-bit, little endian, doubles)
                         ** global header end **
NpcEvaluateAbility
ActivateAbility
DeactivateAbility
visible
avatar
gBaseAvatarType
distanceToTarget
maxRange
minRange
ActivateIfFindType
BlockIfFindType
gRegion
FindType
FindRangeMin
FindRangeMax
NumToFindOnBlock
gRegion
shieldType
EMPTY_SYMBOL
shieldOffset
ZERO_ROTATION

activateAnim
Engine
ATMM_ANIMATION_DRIVEN
PRT_ONCE
loopAnim
PRT_LOOP
blockingAnimations
math
launchDuration
numProjectiles
RandomizeProjectileNum
fireFromWeapon
MAIN_HAND
THIRD_PERSON
mediumange
launchPitchMax
velMultLong
launchExtentInnerLong
launchExtentOuterLong
shortRange
launchPitchMedium
velMultMedium
launchExtentInnerMedium
launchExtentOuterMedium
launchPitchShort
velMultShort
launchExtentInner
launchExtentOuter
pitch
heading
launchSound
fanFormation
projectileSpreadAngleAdjust
launchBoneLeft
muzzleFX
projType
velStaggerMin
velStaggerMax
projectileSpreadVel
staggerTimeMin
staggerTimeMax
launchBoneRight
deactivateAnim
                         
0001                     ** function [0] definition (level 1)
                         ** start of function **
0001  00                 string size (0)
                         source name: (none)
0002  00                 line defined (0)
0003  00                 last line defined (0)
0004  00                 nups (0)
0005  00                 numparams (0)
0006  02                 is_vararg (2)
0007  02                 maxstacksize (2)
                         * code:
0008  0A                 sizecode (10)
0009  25000000           [01] closure    0   0      
000D  20000000           [02] setglobal  0   0        ; NpcEvaluateAbility
0011  20400000           [03] setglobal  0   1        ; -319690153
0015  25400000           [04] closure    0   1      
0019  20800000           [05] setglobal  0   2        ; ActivateAbility
001D  20C00000           [06] setglobal  0   3        ; -871687712
0021  25800000           [07] closure    0   2      
0025  20000100           [08] setglobal  0   4        ; DeactivateAbility
0029  20400100           [09] setglobal  0   5        ; 33405088
002D  1E008000           [10] return     0   1      
                         * constants:
0031  06                 sizek (6)
0032  04                 const type 4
0033  13                 string size (19)
0034  4E70634576616C75+  "NpcEvalu"
003C  6174654162696C69+  "ateAbili"
0044  747900             "ty\0"
                         const [0]: "NpcEvaluateAbility"
0047  01                 const type 3
0048  57EAF1EC           const [1]: (-319690153)
004C  04                 const type 4
004D  10                 string size (16)
004E  4163746976617465+  "Activate"
0056  4162696C69747900   "Ability\0"
                         const [2]: "ActivateAbility"
005E  01                 const type 3
005F  E0190BCC           const [3]: (-871687712)
0063  04                 const type 4
0064  12                 string size (18)
0065  4465616374697661+  "Deactiva"
006D  74654162696C6974+  "teAbilit"
0075  7900               "y\0"
                         const [4]: "DeactivateAbility"
0077  01                 const type 3
0078  A0B8FD01           const [5]: (33405088)
                         * functions:
007C  03                 sizep (3)
                         
007D                     ** function [0] definition (level 2)
                         ** start of function **
007D  00                 string size (0)
                         source name: (none)
007E  3C                 line defined (60)
007F  57                 last line defined (87)
0080  00                 nups (0)
0081  02                 numparams (2)
0082  00                 is_vararg (0)
0083  09                 maxstacksize (9)
                         * code:
0084  4D                 sizecode (77)
0085  A400C000           [01] self       2   1   256  ; -1411785325
0089  A2800001           [02] call       2   2   2  
008D  A4404001           [03] self       2   2   257  ; 276435261
0091  A2800001           [04] call       2   2   2  
0095  CE804001           [05] gettable   3   2   258  ; "visible"
0099  D8000000           [06] test       3       0    ; to [8] if true
009D  1A000780           [07] jmp        29           ; to [37]
00A1  DDC00000           [08] getglobal  3   3        ; 1074689893
00A5  0E014101           [09] gettable   4   2   260  ; "avatar"
00A9  E2800001           [10] call       3   2   2  
00AD  D8400000           [11] test       3       1    ; to [13] if false
00B1  1AC00580           [12] jmp        24           ; to [37]
00B5  CE004101           [13] gettable   3   2   260  ; "avatar"
00B9  E440C101           [14] self       3   3   261  ; -1957065004
00BD  5D810100           [15] getglobal  5   6        ; gBaseAvatarType
00C1  E2808001           [16] call       3   3   2  
00C5  D8000000           [17] test       3       0    ; to [19] if true
00C9  1A400480           [18] jmp        18           ; to [37]
00CD  CE004101           [19] gettable   3   2   260  ; "avatar"
00D1  E4C0C101           [20] self       3   3   263  ; 1511086594
00D5  E2800001           [21] call       3   2   2  
00D9  D8400000           [22] test       3       1    ; to [24] if false
00DD  1A000380           [23] jmp        13           ; to [37]
00E1  CE004101           [24] gettable   3   2   260  ; "avatar"
00E5  E400C201           [25] self       3   3   264  ; -1519595333
00E9  E2800001           [26] call       3   2   2  
00ED  D8400000           [27] test       3       1    ; to [29] if false
00F1  1AC00180           [28] jmp        8            ; to [37]
00F5  CE404201           [29] gettable   3   2   265  ; "distanceToTarget"
00F9  1D810200           [30] getglobal  4   10       ; maxRange
fail op	33
00FD  61C00002           [31] tforloop   1       3    ; to [33] if exit
0101  1AC00080           [32] jmp        4            ; to [37]
0105  CE404201           [33] gettable   3   2   265  ; "distanceToTarget"
0109  1DC10200           [34] getglobal  4   11       ; minRange
fail op	21
010D  15008101           [35] concat     0   3   4  
0111  1A400080           [36] jmp        2            ; to [39]
0115  D9000300           [37] loadk      3   12       ; 0
0119  DE000001           [38] return     3   2      
011D  DD400300           [39] getglobal  3   13       ; ActivateIfFindType
0121  D8400000           [40] test       3       1    ; to [42] if false
0125  1A800080           [41] jmp        3            ; to [45]
0129  DD800300           [42] getglobal  3   14       ; BlockIfFindType
012D  D8000000           [43] test       3       0    ; to [45] if true
0131  1A800680           [44] jmp        27           ; to [72]
0135  DDC00300           [45] getglobal  3   15       ; gRegion
0139  E400C401           [46] self       3   3   272  ; 152279552
013D  5D410400           [47] getglobal  5   17       ; FindType
0141  A481C400           [48] self       6   1   274  ; 1839670529
0145  A2810001           [49] call       6   2   2  
0149  DDC10400           [50] getglobal  7   19       ; FindRangeMin
014D  1D020500           [51] getglobal  8   20       ; FindRangeMax
0151  E2800003           [52] call       3   6   2  
0155  0A018001           [53] len        4   3      
0159  5D410500           [54] getglobal  5   21       ; NumToFindOnBlock
fail op	21
015D  15400102           [55] concat     0   4   5  
0161  1A400180           [56] jmp        6            ; to [63]
0165  1D410300           [57] getglobal  4   13       ; ActivateIfFindType
0169  18010000           [58] test       4       0    ; to [60] if true
016D  1A800080           [59] jmp        3            ; to [63]
0171  19010300           [60] loadk      4   12       ; 0
0175  1E010001           [61] return     4   2      
0179  1A000280           [62] jmp        9            ; to [72]
017D  0A018001           [63] len        4   3      
0181  5D410500           [64] getglobal  5   21       ; NumToFindOnBlock
fail op	33
0185  21008102           [65] tforloop   0       4    ; to [67] if exit
0189  1A000180           [66] jmp        5            ; to [72]
018D  1D810300           [67] getglobal  4   14       ; BlockIfFindType
0191  18010000           [68] test       4       0    ; to [70] if true
0195  1A400080           [69] jmp        2            ; to [72]
0199  19010300           [70] loadk      4   12       ; 0
019D  1E010001           [71] return     4   2      
01A1  24814500           [72] self       4   0   278  ; -1398432575
01A5  8E014101           [73] gettable   6   2   260  ; "avatar"
01A9  22418001           [74] call       4   3   1  
01AD  19C10500           [75] loadk      4   23       ; 0
01B1  1E010001           [76] return     4   2      
01B5  1E008000           [77] return     0   1      
                         * constants:
01B9  18                 sizek (24)
01BA  01                 const type 3
01BB  93DDD9AB           const [0]: (-1411785325)
01BF  01                 const type 3
01C0  3D117A10           const [1]: (276435261)
01C4  04                 const type 4
01C5  08                 string size (8)
01C6  76697369626C6500   "visible\0"
                         const [2]: "visible"
01CE  01                 const type 3
01CF  65770E40           const [3]: (1074689893)
01D3  04                 const type 4
01D4  07                 string size (7)
01D5  61766174617200     "avatar\0"
                         const [4]: "avatar"
01DC  01                 const type 3
01DD  D48E598B           const [5]: (-1957065004)
01E1  04                 const type 4
01E2  10                 string size (16)
01E3  6742617365417661+  "gBaseAva"
01EB  7461725479706500   "tarType\0"
                         const [6]: "gBaseAvatarType"
01F3  01                 const type 3
01F4  025A115A           const [7]: (1511086594)
01F8  01                 const type 3
01F9  BBD06CA5           const [8]: (-1519595333)
01FD  04                 const type 4
01FE  11                 string size (17)
01FF  64697374616E6365+  "distance"
0207  546F546172676574+  "ToTarget"
020F  00                 "\0"
                         const [9]: "distanceToTarget"
0210  04                 const type 4
0211  09                 string size (9)
0212  6D617852616E6765+  "maxRange"
021A  00                 "\0"
                         const [10]: "maxRange"
021B  04                 const type 4
021C  09                 string size (9)
021D  6D696E52616E6765+  "minRange"
0225  00                 "\0"
                         const [11]: "minRange"
0226  03                 const type 3
0227  00000000           const [12]: (0)
022B  04                 const type 4
022C  13                 string size (19)
022D  4163746976617465+  "Activate"
0235  496646696E645479+  "IfFindTy"
023D  706500             "pe\0"
                         const [13]: "ActivateIfFindType"
0240  04                 const type 4
0241  10                 string size (16)
0242  426C6F636B496646+  "BlockIfF"
024A  696E645479706500   "indType\0"
                         const [14]: "BlockIfFindType"
0252  04                 const type 4
0253  08                 string size (8)
0254  67526567696F6E00   "gRegion\0"
                         const [15]: "gRegion"
025C  01                 const type 3
025D  009A1309           const [16]: (152279552)
0261  04                 const type 4
0262  09                 string size (9)
0263  46696E6454797065+  "FindType"
026B  00                 "\0"
                         const [17]: "FindType"
026C  01                 const type 3
026D  0125A76D           const [18]: (1839670529)
0271  04                 const type 4
0272  0D                 string size (13)
0273  46696E6452616E67+  "FindRang"
027B  654D696E00         "eMin\0"
                         const [19]: "FindRangeMin"
0280  04                 const type 4
0281  0D                 string size (13)
0282  46696E6452616E67+  "FindRang"
028A  654D617800         "eMax\0"
                         const [20]: "FindRangeMax"
028F  04                 const type 4
0290  11                 string size (17)
0291  4E756D546F46696E+  "NumToFin"
0299  644F6E426C6F636B+  "dOnBlock"
02A1  00                 "\0"
                         const [21]: "NumToFindOnBlock"
02A2  01                 const type 3
02A3  C19CA5AC           const [22]: (-1398432575)
02A7  03                 const type 3
02A8  0000803F           const [23]: (0)
                         * functions:
02AC  00                 sizep (0)
                         * lines:
02AD  4D                 sizelineinfo (77)
                         [pc] (line)
02AE  3E                 [01] (62)
02AF  00                 [02] (62)
02B0  00                 [03] (62)
02B1  00                 [04] (62)
02B2  3E                 [05] (65)
02B3  00                 [06] (65)
02B4  00                 [07] (65)
02B5  00                 [08] (66)
02B6  3E                 [09] (66)
02B7  00                 [10] (66)
02B8  00                 [11] (66)
02B9  00                 [12] (66)
02BA  3E                 [13] (67)
02BB  00                 [14] (67)
02BC  00                 [15] (67)
02BD  00                 [16] (67)
02BE  41                 [17] (67)
02BF  00                 [18] (67)
02C0  00                 [19] (68)
02C1  00                 [20] (68)
02C2  41                 [21] (68)
02C3  00                 [22] (68)
02C4  00                 [23] (68)
02C5  00                 [24] (69)
02C6  41                 [25] (69)
02C7  00                 [26] (69)
02C8  00                 [27] (69)
02C9  00                 [28] (69)
02CA  42                 [29] (70)
02CB  00                 [30] (70)
02CC  00                 [31] (70)
02CD  00                 [32] (70)
02CE  42                 [33] (71)
02CF  00                 [34] (71)
02D0  00                 [35] (71)
02D1  00                 [36] (71)
02D2  42                 [37] (73)
02D3  00                 [38] (73)
02D4  00                 [39] (76)
02D5  00                 [40] (76)
02D6  42                 [41] (76)
02D7  00                 [42] (76)
02D8  00                 [43] (76)
02D9  00                 [44] (76)
02DA  42                 [45] (77)
02DB  00                 [46] (77)
02DC  00                 [47] (77)
02DD  00                 [48] (77)
02DE  43                 [49] (77)
02DF  00                 [50] (77)
02E0  00                 [51] (77)
02E1  00                 [52] (77)
02E2  43                 [53] (78)
02E3  00                 [54] (78)
02E4  00                 [55] (78)
02E5  00                 [56] (78)
02E6  43                 [57] (78)
02E7  00                 [58] (78)
02E8  00                 [59] (78)
02E9  00                 [60] (79)
02EA  43                 [61] (79)
02EB  00                 [62] (79)
02EC  00                 [63] (80)
02ED  00                 [64] (80)
02EE  43                 [65] (80)
02EF  00                 [66] (80)
02F0  00                 [67] (80)
02F1  00                 [68] (80)
02F2  43                 [69] (80)
02F3  00                 [70] (81)
02F4  00                 [71] (81)
02F5  00                 [72] (85)
02F6  44                 [73] (85)
02F7  00                 [74] (85)
02F8  00                 [75] (86)
02F9  00                 [76] (86)
02FA  44                 [77] (87)
                         * locals:
03E2  00                 sizelocvars (0)
                         * upvalues:
03E3  00                 sizeupvalues (0)
                         ** end of function **

                         
03E4                     ** function [1] definition (level 2)
                         ** start of function **
03E4  00                 string size (0)
                         source name: (none)
03E5  59                 line defined (89)
03E6  E2                 last line defined (226)
03E7  01                 nups (0)
03E8  00                 numparams (4)
03E9  04                 is_vararg (0)
03EA  00                 maxstacksize (34)
                         * code:
03ED  02                 sizecode (349)
03EE  1D010000           [001] getglobal  4   0        ; gRegion
03F2  24414002           [002] self       4   4   257  ; -1520831144
03F6  22810001           [003] call       4   2   2  
03FA  18010000           [004] test       4       0    ; to [6] if true
03FE  1A000180           [005] jmp        5            ; to [11]
0402  1D810000           [006] getglobal  4   2        ; 1074689893
0406  52010001           [007] move       5   2      
040A  22810001           [008] call       4   2   2  
040E  18010000           [009] test       4       0    ; to [11] if true
0412  1A000080           [010] jmp        1            ; to [12]
0416  1E008000           [011] return     0   1      
041A  24C14001           [012] self       4   2   259  ; 1839670529
041E  22810001           [013] call       4   2   2  
0422  6401C100           [014] self       5   1   260  ; -1862702724
0426  D2010002           [015] move       7   4      
042A  62418001           [016] call       5   3   1  
042E  59410100           [017] loadk      5   5        ; 0
0432  99810100           [018] loadk      6   6        ; 0
0436  D9410100           [019] loadk      7   5        ; 0
043A  19420100           [020] loadk      8   5        ; 0
043E  46028004           [021] loadnil    9   9      
0442  9D820000           [022] getglobal  10  2        ; 1074689893
0446  DDC20100           [023] getglobal  11  7        ; shieldType
044A  A2820001           [024] call       10  2   2  
044E  98420000           [025] test       10      1    ; to [27] if false
0452  1AC00180           [026] jmp        8            ; to [35]
0456  A402C200           [027] self       10  1   264  ; -1421644046
045A  1DC30100           [028] getglobal  12  7        ; shieldType
045E  5D430200           [029] getglobal  13  9        ; EMPTY_SYMBOL
0462  9D830200           [030] getglobal  14  10       ; shieldOffset
0466  DDC30200           [031] getglobal  15  11       ; ZERO_ROTATION
046A  12048000           [032] move       16  1      
046E  A2828003           [033] call       10  7   2  
0472  52020005           [034] move       9   10     
0476  A402C300           [035] self       10  1   268  ; -1925372830
047A  19430300           [036] loadk      12  13       ; ""
047E  6483C300           [037] self       13  1   270  ; 2056776437
0482  DDC30300           [038] getglobal  15  15       ; activateAnim
0486  17040000           [039] loadbool   16  0   0    ; false
048A  5D040400           [040] getglobal  17  16       ; Engine
048E  4E44C408           [041] gettable   17  17  273  ; "ATMM_ANIMATION_DRIVEN"
0492  9D040400           [042] getglobal  18  16       ; Engine
0496  8E844409           [043] gettable   18  18  274  ; "PRT_ONCE"
049A  D7048000           [044] loadbool   19  1   0    ; true
049E  62038003           [045] call       13  7   0  
04A2  A2420000           [046] call       10  0   1  
04A6  A482C300           [047] self       10  1   270  ; 2056776437
04AA  1DC30400           [048] getglobal  12  19       ; loopAnim
04AE  57030000           [049] loadbool   13  0   0    ; false
04B2  9D030400           [050] getglobal  14  16       ; Engine
04B6  8E434407           [051] gettable   14  14  273  ; "ATMM_ANIMATION_DRIVEN"
04BA  DD030400           [052] getglobal  15  16       ; Engine
04BE  CE03C507           [053] gettable   15  15  276  ; "PRT_LOOP"
04C2  1D440500           [054] getglobal  16  21       ; blockingAnimations
04C6  A2428003           [055] call       10  7   1  
04CA  9D820500           [056] getglobal  10  22       ; math
04CE  8EC24505           [057] gettable   10  10  279  ; -1962864584
04D2  DD020600           [058] getglobal  11  24       ; launchDuration
04D6  1D830500           [059] getglobal  12  22       ; math
04DA  0EC34506           [060] gettable   12  12  279  ; -1962864584
04DE  5D430600           [061] getglobal  13  25       ; numProjectiles
04E2  99830100           [062] loadk      14  6        ; 0
04E6  22838001           [063] call       12  3   2  
04EA  DC028305           [064] div        11  11  12 
04EE  19430100           [065] loadk      12  5        ; 0
04F2  A2828001           [066] call       10  3   2  
04F6  DD420600           [067] getglobal  11  25       ; numProjectiles
04FA  1D830600           [068] getglobal  12  26       ; RandomizeProjectileNum
04FE  18030000           [069] test       12      0    ; to [71] if true
0502  1A000180           [070] jmp        5            ; to [76]
0506  1DC30600           [071] getglobal  12  27       ; -1941280958
050A  59830100           [072] loadk      13  6        ; 0
050E  9D430600           [073] getglobal  14  25       ; numProjectiles
0512  22838001           [074] call       12  3   2  
0516  D2020006           [075] move       11  12     
051A  06030006           [076] loadnil    12  12     
051E  5D030700           [077] getglobal  13  28       ; fireFromWeapon
0522  58030000           [078] test       13      0    ; to [80] if true
0526  1A400480           [079] jmp        18           ; to [98]
052A  6443C700           [080] self       13  1   285  ; -1917464545
052E  62830001           [081] call       13  2   2  
0532  6483C706           [082] self       13  13  286  ; 1856017039
0536  DD030400           [083] getglobal  15  16       ; Engine
053A  CEC3C707           [084] gettable   15  15  287  ; "MAIN_HAND"
053E  62838001           [085] call       13  3   2  
0542  9D830000           [086] getglobal  14  2        ; 1074689893
0546  D2038006           [087] move       15  13     
054A  A2830001           [088] call       14  2   2  
054E  98430000           [089] test       14      1    ; to [91] if false
0552  1A800180           [090] jmp        7            ; to [98]
0556  A403C806           [091] self       14  13  288  ; -479621877
055A  1D040400           [092] getglobal  16  16       ; Engine
055E  0E444808           [093] gettable   16  16  289  ; "THIRD_PERSON"
0562  5D040400           [094] getglobal  17  16       ; Engine
0566  4EC4C708           [095] gettable   17  17  287  ; "MAIN_HAND"
056A  A2830002           [096] call       14  4   2  
056E  12030007           [097] move       12  14     
fail op	21
0572  15C08282           [098] concat     0   261 11 
0576  1A403980           [099] jmp        230          ; to [330]
057A  9D830000           [100] getglobal  14  2        ; 1074689893
057E  D2030001           [101] move       15  2      
0582  A2830001           [102] call       14  2   2  
0586  98430000           [103] test       14      1    ; to [105] if false
058A  1A003880           [104] jmp        225          ; to [330]
058E  A4834801           [105] self       14  2   290  ; -2082918326
0592  12048000           [106] move       16  1      
0596  A2838001           [107] call       14  3   2  
059A  DDC30800           [108] getglobal  15  35       ; 508519041
059E  E2838000           [109] call       15  1   2  
05A2  1DC40800           [110] getglobal  16  35       ; 508519041
05A6  22848000           [111] call       16  1   2  
05AA  5D040900           [112] getglobal  17  36       ; mediumange
fail op	21
05AE  15808308           [113] concat     0   17  14 
05B2  1A000180           [114] jmp        5            ; to [120]
05B6  5D410900           [115] getglobal  5   37       ; launchPitchMax
05BA  9D810900           [116] getglobal  6   38       ; velMultLong
05BE  DDC10900           [117] getglobal  7   39       ; launchExtentInnerLong
05C2  1D020A00           [118] getglobal  8   40       ; launchExtentOuterLong
05C6  1AC00280           [119] jmp        12           ; to [132]
05CA  5D440A00           [120] getglobal  17  41       ; shortRange
fail op	21
05CE  15808308           [121] concat     0   17  14 
05D2  1A000180           [122] jmp        5            ; to [128]
05D6  5D810A00           [123] getglobal  5   42       ; launchPitchMedium
05DA  9DC10A00           [124] getglobal  6   43       ; velMultMedium
05DE  DD010B00           [125] getglobal  7   44       ; launchExtentInnerMedium
05E2  1D420B00           [126] getglobal  8   45       ; launchExtentOuterMedium
05E6  1AC00080           [127] jmp        4            ; to [132]
05EA  5D810B00           [128] getglobal  5   46       ; launchPitchShort
05EE  9DC10B00           [129] getglobal  6   47       ; velMultShort
05F2  DD010C00           [130] getglobal  7   48       ; launchExtentInner
05F6  1D420C00           [131] getglobal  8   49       ; launchExtentOuter
05FA  4E84CC07           [132] gettable   17  15  306  ; "pitch"
05FE  4D448108           [133] sub        17  17  5  
0602  CC430499           [134] settable   15  306 17   ; "pitch"
0606  6404CD00           [135] self       17  1   308  ; 54877834
060A  62840001           [136] call       17  2   2  
060E  4EC4CC08           [137] gettable   17  17  307  ; "heading"
0612  CC438499           [138] settable   15  307 17   ; "heading"
0616  4E844C08           [139] gettable   17  16  306  ; "pitch"
061A  4D448108           [140] sub        17  17  5  
061E  0C440499           [141] settable   16  306 17   ; "pitch"
0622  6404CD00           [142] self       17  1   308  ; 54877834
0626  62840001           [143] call       17  2   2  
062A  4EC4CC08           [144] gettable   17  17  307  ; "heading"
062E  0C448499           [145] settable   16  307 17   ; "heading"
0632  6444CD00           [146] self       17  1   309  ; 630793108
0636  DD840D00           [147] getglobal  19  54       ; launchSound
063A  17050000           [148] loadbool   20  0   0    ; false
063E  62440002           [149] call       17  4   1  
0642  59440100           [150] loadk      17  5        ; 0
0646  9DC40D00           [151] getglobal  18  55       ; fanFormation
064A  98040000           [152] test       18      0    ; to [154] if true
064E  1AC00280           [153] jmp        12           ; to [166]
0652  9D440C00           [154] getglobal  18  49       ; launchExtentOuter
0656  8DC40109           [155] sub        18  18  7  
065A  DD440600           [156] getglobal  19  25       ; numProjectiles
065E  9CC40409           [157] div        18  18  19 
0662  CD84C105           [158] sub        19  11  262  ; 0
0666  84C40409           [159] mul        18  18  19 
066A  83848403           [160] add        18  7   18 
066E  DD040E00           [161] getglobal  19  56       ; projectileSpreadAngleAdjust
0672  0D85C105           [162] sub        20  11  262  ; 0
0676  C4048509           [163] mul        19  19  20 
067A  4DC40409           [164] sub        17  18  19 
067E  1A800380           [165] jmp        15           ; to [181]
0682  9D440C00           [166] getglobal  18  49       ; launchExtentOuter
0686  8DC40109           [167] sub        18  18  7  
068A  DD440600           [168] getglobal  19  25       ; numProjectiles
068E  9CC40409           [169] div        18  18  19 
0692  DDC40600           [170] getglobal  19  27       ; -1941280958
0696  19450100           [171] loadk      20  5        ; 0
069A  5D450600           [172] getglobal  21  25       ; numProjectiles
069E  4D85C10A           [173] sub        21  21  262  ; 0
06A2  E2848001           [174] call       19  3   2  
06A6  84C40409           [175] mul        18  18  19 
06AA  83848403           [176] add        18  7   18 
06AE  DD040E00           [177] getglobal  19  56       ; projectileSpreadAngleAdjust
06B2  0D85C105           [178] sub        20  11  262  ; 0
06B6  C4048509           [179] mul        19  19  20 
06BA  4DC40409           [180] sub        17  18  19 
06BE  8EC4CC07           [181] gettable   18  15  307  ; "heading"
06C2  8D440409           [182] sub        18  18  17 
06C6  CC838499           [183] settable   15  307 18   ; "heading"
06CA  8EC44C08           [184] gettable   18  16  307  ; "heading"
06CE  83440409           [185] add        18  18  17 
06D2  0C848499           [186] settable   16  307 18   ; "heading"
06D6  86040009           [187] loadnil    18  18     
06DA  DD840000           [188] getglobal  19  2        ; 1074689893
06DE  12050006           [189] move       20  12     
06E2  E2840001           [190] call       19  2   2  
06E6  D8440000           [191] test       19      1    ; to [193] if false
06EA  1A000180           [192] jmp        5            ; to [198]
06EE  E4444E06           [193] self       19  12  313  ; -1565518332
06F2  5D850E00           [194] getglobal  21  58       ; launchBoneLeft
06F6  E2848001           [195] call       19  3   2  
06FA  92048009           [196] move       18  19     
06FE  1AC00080           [197] jmp        4            ; to [202]
0702  E444CE00           [198] self       19  1   313  ; -1565518332
0706  5D850E00           [199] getglobal  21  58       ; launchBoneLeft
070A  E2848001           [200] call       19  3   2  
070E  92048009           [201] move       18  19     
0712  DD040000           [202] getglobal  19  0        ; gRegion
0716  E4C4CE09           [203] self       19  19  315  ; -1110225722
071A  5D050F00           [204] getglobal  21  60       ; muzzleFX
071E  92050009           [205] move       22  18     
0722  D2058007           [206] move       23  15     
0726  12068000           [207] move       24  1      
072A  E2840003           [208] call       19  6   2  
072E  1D050000           [209] getglobal  20  0        ; gRegion
0732  24C54E0A           [210] self       20  20  315  ; -1110225722
0736  9D450F00           [211] getglobal  22  61       ; projType
073A  D2050009           [212] move       23  18     
073E  12068007           [213] move       24  15     
0742  22858002           [214] call       20  5   2  
0746  5D850000           [215] getglobal  21  2        ; 1074689893
074A  9205000A           [216] move       22  20     
074E  62850001           [217] call       21  2   2  
0752  58450000           [218] test       21      1    ; to [220] if false
0756  1A000580           [219] jmp        21           ; to [241]
075A  64854F0A           [220] self       21  20  318  ; 1986606410
075E  D2058000           [221] move       23  1      
0762  62458001           [222] call       21  3   1  
0766  64C54F0A           [223] self       21  20  319  ; -1617033739
076A  E405D000           [224] self       23  1   320  ; 757002394
076E  E2050001           [225] call       23  2   0  
0772  62450000           [226] call       21  0   1  
0776  6445500A           [227] self       21  20  321  ; 1080330867
077A  E485500A           [228] self       23  20  322  ; 397752257
077E  E2850001           [229] call       23  2   2  
0782  1DC60600           [230] getglobal  24  27       ; -1941280958
0786  5DC61000           [231] getglobal  25  67       ; velStaggerMin
078A  9D061100           [232] getglobal  26  68       ; velStaggerMax
078E  22868001           [233] call       24  3   2  
0792  03060603           [234] add        24  6   24 
0796  5D461100           [235] getglobal  25  69       ; projectileSpreadVel
079A  8D86C105           [236] sub        26  11  262  ; 0
079E  4486860C           [237] mul        25  25  26 
07A2  0346060C           [238] add        24  24  25 
07A6  C405860B           [239] mul        23  23  24 
07AA  62458001           [240] call       21  3   1  
07AE  5D851100           [241] getglobal  21  70       ; 538022378
07B2  9DC50600           [242] getglobal  22  27       ; -1941280958
07B6  DDC51100           [243] getglobal  23  71       ; staggerTimeMin
07BA  1D061200           [244] getglobal  24  72       ; staggerTimeMax
07BE  A2058001           [245] call       22  3   0  
07C2  62450000           [246] call       21  0   1  
07C6  5D850000           [247] getglobal  21  2        ; 1074689893
07CA  92058000           [248] move       22  1      
07CE  62850001           [249] call       21  2   2  
07D2  58050000           [250] test       21      0    ; to [252] if true
07D6  1A000080           [251] jmp        1            ; to [253]
07DA  1E008000           [252] return     0   1      
07DE  4605800A           [253] loadnil    21  21     
07E2  9D850000           [254] getglobal  22  2        ; 1074689893
07E6  D2050006           [255] move       23  12     
07EA  A2850001           [256] call       22  2   2  
07EE  98450000           [257] test       22      1    ; to [259] if false
07F2  1A000180           [258] jmp        5            ; to [264]
07F6  A4454E06           [259] self       22  12  313  ; -1565518332
07FA  1D461200           [260] getglobal  24  73       ; launchBoneRight
07FE  A2858001           [261] call       22  3   2  
0802  5205000B           [262] move       21  22     
0806  1AC00080           [263] jmp        4            ; to [268]
080A  A445CE00           [264] self       22  1   313  ; -1565518332
080E  1D461200           [265] getglobal  24  73       ; launchBoneRight
0812  A2858001           [266] call       22  3   2  
0816  5205000B           [267] move       21  22     
081A  A445CD00           [268] self       22  1   309  ; 630793108
081E  1D860D00           [269] getglobal  24  54       ; launchSound
0822  57060000           [270] loadbool   25  0   0    ; false
0826  A2450002           [271] call       22  4   1  
082A  9D050000           [272] getglobal  22  0        ; gRegion
082E  A4C54E0B           [273] self       22  22  315  ; -1110225722
0832  1D060F00           [274] getglobal  24  60       ; muzzleFX
0836  5206800A           [275] move       25  21     
083A  92060008           [276] move       26  16     
083E  D2068000           [277] move       27  1      
0842  A2850003           [278] call       22  6   2  
0846  DD050000           [279] getglobal  23  0        ; gRegion
084A  E4C5CE0B           [280] self       23  23  315  ; -1110225722
084E  5D460F00           [281] getglobal  25  61       ; projType
0852  9206800A           [282] move       26  21     
0856  D2060008           [283] move       27  16     
085A  E2858002           [284] call       23  5   2  
085E  1D860000           [285] getglobal  24  2        ; 1074689893
0862  5206800B           [286] move       25  23     
0866  22860001           [287] call       24  2   2  
086A  18460000           [288] test       24      1    ; to [290] if false
086E  1A000580           [289] jmp        21           ; to [311]
0872  2486CF0B           [290] self       24  23  318  ; 1986606410
0876  92068000           [291] move       26  1      
087A  22468001           [292] call       24  3   1  
087E  24C6CF0B           [293] self       24  23  319  ; -1617033739
0882  A406D000           [294] self       26  1   320  ; 757002394
0886  A2060001           [295] call       26  2   0  
088A  22460000           [296] call       24  0   1  
088E  2446D00B           [297] self       24  23  321  ; 1080330867
0892  A486D00B           [298] self       26  23  322  ; 397752257
0896  A2860001           [299] call       26  2   2  
089A  DDC60600           [300] getglobal  27  27       ; -1941280958
089E  1DC71000           [301] getglobal  28  67       ; velStaggerMin
08A2  5D071100           [302] getglobal  29  68       ; velStaggerMax
08A6  E2868001           [303] call       27  3   2  
08AA  C3C60603           [304] add        27  6   27 
08AE  1D471100           [305] getglobal  28  69       ; projectileSpreadVel
08B2  4D87C105           [306] sub        29  11  262  ; 0
08B6  0447070E           [307] mul        28  28  29 
08BA  C306870D           [308] add        27  27  28 
08BE  84C6060D           [309] mul        26  26  27 
08C2  22468001           [310] call       24  3   1  
08C6  2406CD00           [311] self       24  1   308  ; 54877834
08CA  22860001           [312] call       24  2   2  
08CE  0EC64C0C           [313] gettable   24  24  307  ; "heading"
08D2  CC038699           [314] settable   15  307 24   ; "heading"
08D6  2406CD00           [315] self       24  1   308  ; 54877834
08DA  22860001           [316] call       24  2   2  
08DE  0EC64C0C           [317] gettable   24  24  307  ; "heading"
08E2  0C048699           [318] settable   16  307 24   ; "heading"
08E6  1D861100           [319] getglobal  24  70       ; 538022378
08EA  52060005           [320] move       25  10     
08EE  22460001           [321] call       24  2   1  
08F2  1D860000           [322] getglobal  24  2        ; 1074689893
08F6  52068000           [323] move       25  1      
08FA  22860001           [324] call       24  2   2  
08FE  18060000           [325] test       24      0    ; to [327] if true
0902  1A000080           [326] jmp        1            ; to [328]
0906  1E008000           [327] return     0   1      
090A  CD82C105           [328] sub        11  11  262  ; 0
090E  1AC0C57F           [329] jmp        -232         ; to [98]
0912  2406C300           [330] self       24  1   268  ; -1925372830
0916  99460300           [331] loadk      26  13       ; ""
091A  E486C300           [332] self       27  1   270  ; 2056776437
091E  5D871200           [333] getglobal  29  74       ; deactivateAnim
0922  97070000           [334] loadbool   30  0   0    ; false
0926  DD070400           [335] getglobal  31  16       ; Engine
092A  CE47C40F           [336] gettable   31  31  273  ; "ATMM_ANIMATION_DRIVEN"
092E  1D080400           [337] getglobal  32  16       ; Engine
0932  0E884410           [338] gettable   32  32  274  ; "PRT_ONCE"
0936  57088000           [339] loadbool   33  1   0    ; true
093A  E2068003           [340] call       27  7   0  
093E  22460000           [341] call       24  0   1  
0942  1D860000           [342] getglobal  24  2        ; 1074689893
0946  52068004           [343] move       25  9      
094A  22860001           [344] call       24  2   2  
094E  18460000           [345] test       24      1    ; to [347] if false
0952  1A400080           [346] jmp        2            ; to [349]
0956  24C6D204           [347] self       24  9   331  ; -725453761
095A  22460001           [348] call       24  2   1  
095E  1E008000           [349] return     0   1      
                         * constants:
0962  4C                 sizek (76)
0963  04                 const type 4
0964  08                 string size (8)
0965  67526567696F6E00   "gRegion\0"
                         const [0]: "gRegion"
096D  01                 const type 3
096E  58F559A5           const [1]: (-1520831144)
0972  01                 const type 3
0973  65770E40           const [2]: (1074689893)
0977  01                 const type 3
0978  0125A76D           const [3]: (1839670529)
097C  01                 const type 3
097D  7C69F990           const [4]: (-1862702724)
0981  03                 const type 3
0982  00000000           const [5]: (0)
0986  03                 const type 3
0987  0000803F           const [6]: (0)
098B  04                 const type 4
098C  0B                 string size (11)
098D  736869656C645479+  "shieldTy"
0995  706500             "pe\0"
                         const [7]: "shieldType"
0998  01                 const type 3
0999  F26E43AB           const [8]: (-1421644046)
099D  04                 const type 4
099E  0D                 string size (13)
099F  454D5054595F5359+  "EMPTY_SY"
09A7  4D424F4C00         "MBOL\0"
                         const [9]: "EMPTY_SYMBOL"
09AC  04                 const type 4
09AD  0D                 string size (13)
09AE  736869656C644F66+  "shieldOf"
09B6  6673657400         "fset\0"
                         const [10]: "shieldOffset"
09BB  04                 const type 4
09BC  0E                 string size (14)
09BD  5A45524F5F524F54+  "ZERO_ROT"
09C5  4154494F4E00       "ATION\0"
                         const [11]: "ZERO_ROTATION"
09CB  01                 const type 3
09CC  62243D8D           const [12]: (-1925372830)
09D0  04                 const type 4
09D1  01                 string size (0)
                         const [13]: ""
09D3  01                 const type 3
09D4  F5EA977A           const [14]: (2056776437)
09D8  04                 const type 4
09D9  0D                 string size (13)
09DA  6163746976617465+  "activate"
09E2  416E696D00         "Anim\0"
                         const [15]: "activateAnim"
09E7  04                 const type 4
09E8  07                 string size (7)
09E9  456E67696E6500     "Engine\0"
                         const [16]: "Engine"
09F0  04                 const type 4
09F1  16                 string size (22)
09F2  41544D4D5F414E49+  "ATMM_ANI"
09FA  4D4154494F4E5F44+  "MATION_D"
0A02  524956454E00       "RIVEN\0"
                         const [17]: "ATMM_ANIMATION_DRIVEN"
0A08  04                 const type 4
0A09  09                 string size (9)
0A0A  5052545F4F4E4345+  "PRT_ONCE"
0A12  00                 "\0"
                         const [18]: "PRT_ONCE"
0A13  04                 const type 4
0A14  09                 string size (9)
0A15  6C6F6F70416E696D+  "loopAnim"
0A1D  00                 "\0"
                         const [19]: "loopAnim"
0A1E  04                 const type 4
0A1F  09                 string size (9)
0A20  5052545F4C4F4F50+  "PRT_LOOP"
0A28  00                 "\0"
                         const [20]: "PRT_LOOP"
0A29  04                 const type 4
0A2A  13                 string size (19)
0A2B  626C6F636B696E67+  "blocking"
0A33  416E696D6174696F+  "Animatio"
0A3B  6E7300             "ns\0"
                         const [21]: "blockingAnimations"
0A3E  04                 const type 4
0A3F  05                 string size (5)
0A40  6D61746800         "math\0"
                         const [22]: "math"
0A45  01                 const type 3
0A46  3810018B           const [23]: (-1962864584)
0A4A  04                 const type 4
0A4B  0F                 string size (15)
0A4C  6C61756E63684475+  "launchDu"
0A54  726174696F6E00     "ration\0"
                         const [24]: "launchDuration"
0A5B  04                 const type 4
0A5C  0F                 string size (15)
0A5D  6E756D50726F6A65+  "numProje"
0A65  6374696C657300     "ctiles\0"
                         const [25]: "numProjectiles"
0A6C  04                 const type 4
0A6D  17                 string size (23)
0A6E  52616E646F6D697A+  "Randomiz"
0A76  6550726F6A656374+  "eProject"
0A7E  696C654E756D00     "ileNum\0"
                         const [26]: "RandomizeProjectileNum"
0A85  01                 const type 3
0A86  42674A8C           const [27]: (-1941280958)
0A8A  04                 const type 4
0A8B  0F                 string size (15)
0A8C  6669726546726F6D+  "fireFrom"
0A94  576561706F6E00     "Weapon\0"
                         const [28]: "fireFromWeapon"
0A9B  01                 const type 3
0A9C  1FD0B58D           const [29]: (-1917464545)
0AA0  01                 const type 3
0AA1  8F92A06E           const [30]: (1856017039)
0AA5  04                 const type 4
0AA6  0A                 string size (10)
0AA7  4D41494E5F48414E+  "MAIN_HAN"
0AAF  4400               "D\0"
                         const [31]: "MAIN_HAND"
0AB1  01                 const type 3
0AB2  0B8D69E3           const [32]: (-479621877)
0AB6  04                 const type 4
0AB7  0D                 string size (13)
0AB8  54484952445F5045+  "THIRD_PE"
0AC0  52534F4E00         "RSON\0"
                         const [33]: "THIRD_PERSON"
0AC5  01                 const type 3
0AC6  4A30D983           const [34]: (-2082918326)
0ACA  01                 const type 3
0ACB  81624F1E           const [35]: (508519041)
0ACF  04                 const type 4
0AD0  0B                 string size (11)
0AD1  6D656469756D616E+  "mediuman"
0AD9  676500             "ge\0"
                         const [36]: "mediumange"
0ADC  04                 const type 4
0ADD  0F                 string size (15)
0ADE  6C61756E63685069+  "launchPi"
0AE6  7463684D617800     "tchMax\0"
                         const [37]: "launchPitchMax"
0AED  04                 const type 4
0AEE  0C                 string size (12)
0AEF  76656C4D756C744C+  "velMultL"
0AF7  6F6E6700           "ong\0"
                         const [38]: "velMultLong"
0AFB  04                 const type 4
0AFC  16                 string size (22)
0AFD  6C61756E63684578+  "launchEx"
0B05  74656E74496E6E65+  "tentInne"
0B0D  724C6F6E6700       "rLong\0"
                         const [39]: "launchExtentInnerLong"
0B13  04                 const type 4
0B14  16                 string size (22)
0B15  6C61756E63684578+  "launchEx"
0B1D  74656E744F757465+  "tentOute"
0B25  724C6F6E6700       "rLong\0"
                         const [40]: "launchExtentOuterLong"
0B2B  04                 const type 4
0B2C  0B                 string size (11)
0B2D  73686F727452616E+  "shortRan"
0B35  676500             "ge\0"
                         const [41]: "shortRange"
0B38  04                 const type 4
0B39  12                 string size (18)
0B3A  6C61756E63685069+  "launchPi"
0B42  7463684D65646975+  "tchMediu"
0B4A  6D00               "m\0"
                         const [42]: "launchPitchMedium"
0B4C  04                 const type 4
0B4D  0E                 string size (14)
0B4E  76656C4D756C744D+  "velMultM"
0B56  656469756D00       "edium\0"
                         const [43]: "velMultMedium"
0B5C  04                 const type 4
0B5D  18                 string size (24)
0B5E  6C61756E63684578+  "launchEx"
0B66  74656E74496E6E65+  "tentInne"
0B6E  724D656469756D00   "rMedium\0"
                         const [44]: "launchExtentInnerMedium"
0B76  04                 const type 4
0B77  18                 string size (24)
0B78  6C61756E63684578+  "launchEx"
0B80  74656E744F757465+  "tentOute"
0B88  724D656469756D00   "rMedium\0"
                         const [45]: "launchExtentOuterMedium"
0B90  04                 const type 4
0B91  11                 string size (17)
0B92  6C61756E63685069+  "launchPi"
0B9A  74636853686F7274+  "tchShort"
0BA2  00                 "\0"
                         const [46]: "launchPitchShort"
0BA3  04                 const type 4
0BA4  0D                 string size (13)
0BA5  76656C4D756C7453+  "velMultS"
0BAD  686F727400         "hort\0"
                         const [47]: "velMultShort"
0BB2  04                 const type 4
0BB3  12                 string size (18)
0BB4  6C61756E63684578+  "launchEx"
0BBC  74656E74496E6E65+  "tentInne"
0BC4  7200               "r\0"
                         const [48]: "launchExtentInner"
0BC6  04                 const type 4
0BC7  12                 string size (18)
0BC8  6C61756E63684578+  "launchEx"
0BD0  74656E744F757465+  "tentOute"
0BD8  7200               "r\0"
                         const [49]: "launchExtentOuter"
0BDA  04                 const type 4
0BDB  06                 string size (6)
0BDC  706974636800       "pitch\0"
                         const [50]: "pitch"
0BE2  04                 const type 4
0BE3  08                 string size (8)
0BE4  68656164696E6700   "heading\0"
                         const [51]: "heading"
0BEC  01                 const type 3
0BED  8A5E4503           const [52]: (54877834)
0BF1  01                 const type 3
0BF2  94239925           const [53]: (630793108)
0BF6  04                 const type 4
0BF7  0C                 string size (12)
0BF8  6C61756E6368536F+  "launchSo"
0C00  756E6400           "und\0"
                         const [54]: "launchSound"
0C04  04                 const type 4
0C05  0D                 string size (13)
0C06  66616E466F726D61+  "fanForma"
0C0E  74696F6E00         "tion\0"
                         const [55]: "fanFormation"
0C13  04                 const type 4
0C14  1C                 string size (28)
0C15  70726F6A65637469+  "projecti"
0C1D  6C65537072656164+  "leSpread"
0C25  416E676C6541646A+  "AngleAdj"
0C2D  75737400           "ust\0"
                         const [56]: "projectileSpreadAngleAdjust"
0C31  01                 const type 3
0C32  0416B0A2           const [57]: (-1565518332)
0C36  04                 const type 4
0C37  0F                 string size (15)
0C38  6C61756E6368426F+  "launchBo"
0C40  6E654C65667400     "neLeft\0"
                         const [58]: "launchBoneLeft"
0C47  01                 const type 3
0C48  C64CD3BD           const [59]: (-1110225722)
0C4C  04                 const type 4
0C4D  09                 string size (9)
0C4E  6D757A7A6C654658+  "muzzleFX"
0C56  00                 "\0"
                         const [60]: "muzzleFX"
0C57  04                 const type 4
0C58  09                 string size (9)
0C59  70726F6A54797065+  "projType"
0C61  00                 "\0"
                         const [61]: "projType"
0C62  01                 const type 3
0C63  4A356976           const [62]: (1986606410)
0C67  01                 const type 3
0C68  F5059E9F           const [63]: (-1617033739)
0C6C  01                 const type 3
0C6D  9AF01E2D           const [64]: (757002394)
0C71  01                 const type 3
0C72  738A6440           const [65]: (1080330867)
0C76  01                 const type 3
0C77  C137B517           const [66]: (397752257)
0C7B  04                 const type 4
0C7C  0E                 string size (14)
0C7D  76656C5374616767+  "velStagg"
0C85  65724D696E00       "erMin\0"
                         const [67]: "velStaggerMin"
0C8B  04                 const type 4
0C8C  0E                 string size (14)
0C8D  76656C5374616767+  "velStagg"
0C95  65724D617800       "erMax\0"
                         const [68]: "velStaggerMax"
0C9B  04                 const type 4
0C9C  14                 string size (20)
0C9D  70726F6A65637469+  "projecti"
0CA5  6C65537072656164+  "leSpread"
0CAD  56656C00           "Vel\0"
                         const [69]: "projectileSpreadVel"
0CB1  01                 const type 3
0CB2  EA911120           const [70]: (538022378)
0CB6  04                 const type 4
0CB7  0F                 string size (15)
0CB8  7374616767657254+  "staggerT"
0CC0  696D654D696E00     "imeMin\0"
                         const [71]: "staggerTimeMin"
0CC7  04                 const type 4
0CC8  0F                 string size (15)
0CC9  7374616767657254+  "staggerT"
0CD1  696D654D617800     "imeMax\0"
                         const [72]: "staggerTimeMax"
0CD8  04                 const type 4
0CD9  10                 string size (16)
0CDA  6C61756E6368426F+  "launchBo"
0CE2  6E65526967687400   "neRight\0"
                         const [73]: "launchBoneRight"
0CEA  04                 const type 4
0CEB  0F                 string size (15)
0CEC  6465616374697661+  "deactiva"
0CF4  7465416E696D00     "teAnim\0"
                         const [74]: "deactivateAnim"
0CFB  01                 const type 3
0CFC  3F74C2D4           const [75]: (-725453761)
                         * functions:
0D00  00                 sizep (0)
                         * lines:
0D02  02                 sizelineinfo (349)
                         [pc] (line)
0D03  5A                 [001] (90)
0D04  00                 [002] (90)
0D05  00                 [003] (90)
0D06  00                 [004] (90)
0D07  5A                 [005] (90)
0D08  00                 [006] (90)
0D09  00                 [007] (90)
0D0A  00                 [008] (90)
0D0B  5A                 [009] (90)
0D0C  00                 [010] (90)
0D0D  00                 [011] (91)
0D0E  00                 [012] (94)
0D0F  5A                 [013] (94)
0D10  00                 [014] (95)
0D11  00                 [015] (95)
0D12  00                 [016] (95)
0D13  5A                 [017] (97)
0D14  00                 [018] (98)
0D15  00                 [019] (99)
0D16  00                 [020] (100)
0D17  5A                 [021] (102)
0D18  00                 [022] (103)
0D19  00                 [023] (103)
0D1A  00                 [024] (103)
0D1B  5A                 [025] (103)
0D1C  00                 [026] (103)
0D1D  00                 [027] (104)
0D1E  00                 [028] (104)
0D1F  5A                 [029] (104)
0D20  00                 [030] (104)
0D21  00                 [031] (104)
0D22  00                 [032] (104)
0D23  5A                 [033] (104)
0D24  00                 [034] (104)
0D25  00                 [035] (107)
0D26  00                 [036] (107)
0D27  5A                 [037] (107)
0D28  00                 [038] (107)
0D29  00                 [039] (107)
0D2A  00                 [040] (107)
0D2B  5B                 [041] (107)
0D2C  00                 [042] (107)
0D2D  00                 [043] (107)
0D2E  00                 [044] (107)
0D2F  5E                 [045] (107)
0D30  00                 [046] (107)
0D31  00                 [047] (108)
0D32  00                 [048] (108)
0D33  5E                 [049] (108)
0D34  00                 [050] (108)
0D35  00                 [051] (108)
0D36  00                 [052] (108)
0D37  5F                 [053] (108)
0D38  00                 [054] (108)
0D39  00                 [055] (108)
0D3A  00                 [056] (110)
0D3B  5F                 [057] (110)
0D3C  00                 [058] (110)
0D3D  00                 [059] (110)
0D3E  00                 [060] (110)
0D3F  5F                 [061] (110)
0D40  00                 [062] (110)
0D41  00                 [063] (110)
0D42  00                 [064] (110)
0D43  61                 [065] (110)
0D44  00                 [066] (110)
0D45  00                 [067] (112)
0D46  00                 [068] (114)
0D47  62                 [069] (114)
0D48  00                 [070] (114)
0D49  00                 [071] (115)
0D4A  00                 [072] (115)
0D4B  63                 [073] (115)
0D4C  00                 [074] (115)
0D4D  00                 [075] (115)
0D4E  00                 [076] (118)
0D4F  64                 [077] (120)
0D50  00                 [078] (120)
0D51  00                 [079] (120)
0D52  00                 [080] (121)
0D53  66                 [081] (121)
0D54  00                 [082] (121)
0D55  00                 [083] (121)
0D56  00                 [084] (121)
0D57  67                 [085] (121)
0D58  00                 [086] (122)
0D59  00                 [087] (122)
0D5A  00                 [088] (122)
0D5B  67                 [089] (122)
0D5C  00                 [090] (122)
0D5D  00                 [091] (123)
0D5E  00                 [092] (123)
0D5F  67                 [093] (123)
0D60  00                 [094] (123)
0D61  00                 [095] (123)
0D62  00                 [096] (123)
0D63  67                 [097] (123)
0D64  00                 [098] (127)
0D65  00                 [099] (127)
0D66  00                 [100] (127)
0D67  67                 [101] (127)
0D68  00                 [102] (127)
0D69  00                 [103] (127)
0D6A  00                 [104] (127)
0D6B  68                 [105] (-128)
0D6C  00                 [106] (-128)
0D6D  00                 [107] (-128)
0D6E  00                 [108] (-127)
0D6F  68                 [109] (-127)
0D70  00                 [110] (-126)
0D71  00                 [111] (-126)
0D72  00                 [112] (-121)
0D73  68                 [113] (-121)
0D74  00                 [114] (-121)
0D75  00                 [115] (-120)
0D76  00                 [116] (-119)
0D77  68                 [117] (-118)
0D78  00                 [118] (-117)
0D79  00                 [119] (-117)
0D7A  00                 [120] (-115)
0D7B  68                 [121] (-115)
0D7C  00                 [122] (-115)
0D7D  00                 [123] (-114)
0D7E  00                 [124] (-113)
0D7F  68                 [125] (-112)
0D80  00                 [126] (-111)
0D81  00                 [127] (-111)
0D82  00                 [128] (-108)
0D83  68                 [129] (-107)
0D84  00                 [130] (-106)
0D85  00                 [131] (-105)
0D86  00                 [132] (-101)
0D87  68                 [133] (-101)
0D88  00                 [134] (-101)
0D89  00                 [135] (-100)
0D8A  00                 [136] (-100)
0D8B  6B                 [137] (-100)
0D8C  00                 [138] (-100)
0D8D  00                 [139] (-99)
0D8E  00                 [140] (-99)
0D8F  6B                 [141] (-99)
0D90  00                 [142] (-98)
0D91  00                 [143] (-98)
0D92  00                 [144] (-98)
0D93  6B                 [145] (-98)
0D94  00                 [146] (-96)
0D95  00                 [147] (-96)
0D96  00                 [148] (-96)
0D97  6B                 [149] (-96)
0D98  00                 [150] (-95)
0D99  00                 [151] (-93)
0D9A  00                 [152] (-93)
0D9B  6B                 [153] (-93)
0D9C  00                 [154] (-92)
0D9D  00                 [155] (-92)
0D9E  00                 [156] (-92)
0D9F  6B                 [157] (-92)
0DA0  00                 [158] (-92)
0DA1  00                 [159] (-92)
0DA2  00                 [160] (-92)
0DA3  6B                 [161] (-92)
0DA4  00                 [162] (-92)
0DA5  00                 [163] (-92)
0DA6  00                 [164] (-92)
0DA7  6B                 [165] (-92)
0DA8  00                 [166] (-90)
0DA9  00                 [167] (-90)
0DAA  00                 [168] (-90)
0DAB  6B                 [169] (-90)
0DAC  00                 [170] (-90)
0DAD  00                 [171] (-90)
0DAE  00                 [172] (-90)
0DAF  6B                 [173] (-90)
0DB0  00                 [174] (-90)
0DB1  00                 [175] (-90)
0DB2  00                 [176] (-90)
0DB3  6B                 [177] (-90)
0DB4  00                 [178] (-90)
0DB5  00                 [179] (-90)
0DB6  00                 [180] (-90)
0DB7  6B                 [181] (-87)
0DB8  00                 [182] (-87)
0DB9  00                 [183] (-87)
0DBA  00                 [184] (-86)
0DBB  6C                 [185] (-86)
0DBC  00                 [186] (-86)
0DBD  00                 [187] (-84)
0DBE  00                 [188] (-82)
0DBF  6C                 [189] (-82)
0DC0  00                 [190] (-82)
0DC1  00                 [191] (-82)
0DC2  00                 [192] (-82)
0DC3  6C                 [193] (-81)
0DC4  00                 [194] (-81)
0DC5  00                 [195] (-81)
0DC6  00                 [196] (-81)
0DC7  6C                 [197] (-81)
0DC8  00                 [198] (-79)
0DC9  00                 [199] (-79)
0DCA  00                 [200] (-79)
0DCB  6C                 [201] (-79)
0DCC  00                 [202] (-76)
0DCD  00                 [203] (-76)
0DCE  00                 [204] (-76)
0DCF  6C                 [205] (-76)
0DD0  00                 [206] (-76)
0DD1  00                 [207] (-76)
0DD2  00                 [208] (-76)
0DD3  6C                 [209] (-75)
0DD4  00                 [210] (-75)
0DD5  00                 [211] (-75)
0DD6  00                 [212] (-75)
0DD7  6C                 [213] (-75)
0DD8  00                 [214] (-75)
0DD9  00                 [215] (-73)
0DDA  00                 [216] (-73)
0DDB  6C                 [217] (-73)
0DDC  00                 [218] (-73)
0DDD  00                 [219] (-73)
0DDE  00                 [220] (-72)
0DDF  6E                 [221] (-72)
0DE0  00                 [222] (-72)
0DE1  00                 [223] (-71)
0DE2  00                 [224] (-71)
0DE3  6E                 [225] (-71)
0DE4  00                 [226] (-71)
0DE5  00                 [227] (-70)
0DE6  00                 [228] (-70)
0DE7  6E                 [229] (-70)
0DE8  00                 [230] (-70)
0DE9  00                 [231] (-70)
0DEA  00                 [232] (-70)
0DEB  6E                 [233] (-70)
0DEC  00                 [234] (-70)
0DED  00                 [235] (-70)
0DEE  00                 [236] (-70)
0DEF  6E                 [237] (-70)
0DF0  00                 [238] (-70)
0DF1  00                 [239] (-70)
0DF2  00                 [240] (-70)
0DF3  6E                 [241] (-67)
0DF4  00                 [242] (-67)
0DF5  00                 [243] (-67)
0DF6  00                 [244] (-67)
0DF7  6E                 [245] (-67)
0DF8  00                 [246] (-67)
0DF9  00                 [247] (-66)
0DFA  00                 [248] (-66)
0DFB  6E                 [249] (-66)
0DFC  00                 [250] (-66)
0DFD  00                 [251] (-66)
0DFE  00                 [252] (-65)
0DFF  6E                 [253] (-62)
0E00  00                 [254] (-61)
0E01  00                 [255] (-61)
0E02  00                 [256] (-61)
0E03  6E                 [257] (-61)
0E04  00                 [258] (-61)
0E05  00                 [259] (-60)
0E06  00                 [260] (-60)
0E07  6E                 [261] (-60)
0E08  00                 [262] (-60)
0E09  00                 [263] (-60)
0E0A  00                 [264] (-58)
0E0B  70                 [265] (-58)
0E0C  00                 [266] (-58)
0E0D  00                 [267] (-58)
0E0E  00                 [268] (-55)
0E0F  72                 [269] (-55)
0E10  00                 [270] (-55)
0E11  00                 [271] (-55)
0E12  00                 [272] (-54)
0E13  72                 [273] (-54)
0E14  00                 [274] (-54)
0E15  00                 [275] (-54)
0E16  00                 [276] (-54)
0E17  72                 [277] (-54)
0E18  00                 [278] (-54)
0E19  00                 [279] (-53)
0E1A  00                 [280] (-53)
0E1B  73                 [281] (-53)
0E1C  00                 [282] (-53)
0E1D  00                 [283] (-53)
0E1E  00                 [284] (-53)
0E1F  73                 [285] (-51)
0E20  00                 [286] (-51)
0E21  00                 [287] (-51)
0E22  00                 [288] (-51)
0E23  73                 [289] (-51)
0E24  00                 [290] (-50)
0E25  00                 [291] (-50)
0E26  00                 [292] (-50)
0E27  73                 [293] (-49)
0E28  00                 [294] (-49)
0E29  00                 [295] (-49)
0E2A  00                 [296] (-49)
0E2B  73                 [297] (-48)
0E2C  00                 [298] (-48)
0E2D  00                 [299] (-48)
0E2E  00                 [300] (-48)
0E2F  76                 [301] (-48)
0E30  00                 [302] (-48)
0E31  00                 [303] (-48)
0E32  00                 [304] (-48)
0E33  78                 [305] (-48)
0E34  00                 [306] (-48)
0E35  00                 [307] (-48)
0E36  00                 [308] (-48)
0E37  78                 [309] (-48)
0E38  00                 [310] (-48)
0E39  00                 [311] (-45)
0E3A  00                 [312] (-45)
0E3B  78                 [313] (-45)
0E3C  00                 [314] (-45)
0E3D  00                 [315] (-44)
0E3E  00                 [316] (-44)
0E3F  79                 [317] (-44)
0E40  00                 [318] (-44)
0E41  00                 [319] (-42)
0E42  00                 [320] (-42)
0E43  79                 [321] (-42)
0E44  00                 [322] (-41)
0E45  00                 [323] (-41)
0E46  00                 [324] (-41)
0E47  79                 [325] (-41)
0E48  00                 [326] (-41)
0E49  00                 [327] (-40)
0E4A  00                 [328] (-37)
0E4B  79                 [329] (-37)
0E4C  00                 [330] (-34)
0E4D  00                 [331] (-34)
0E4E  00                 [332] (-34)
0E4F  79                 [333] (-34)
0E50  00                 [334] (-34)
0E51  00                 [335] (-34)
0E52  00                 [336] (-34)
0E53  79                 [337] (-34)
0E54  00                 [338] (-34)
0E55  00                 [339] (-34)
0E56  00                 [340] (-34)
0E57  7A                 [341] (-34)
0E58  00                 [342] (-33)
0E59  00                 [343] (-33)
0E5A  00                 [344] (-33)
0E5B  7A                 [345] (-33)
0E5C  00                 [346] (-33)
0E5D  00                 [347] (-32)
0E5E  00                 [348] (-32)
0E5F  7A                 [349] (-30)
                         * locals:
1277  00                 sizelocvars (0)
                         * upvalues:
1278  00                 sizeupvalues (0)
                         ** end of function **

                         
1279                     ** function [2] definition (level 2)
                         ** start of function **
1279  00                 string size (0)
                         source name: (none)
127B  01                 line defined (228)
127C  E6                 last line defined (230)
127D  01                 nups (0)
127E  00                 numparams (2)
127F  02                 is_vararg (0)
1280  00                 maxstacksize (6)
                         * code:
1282  05                 sizecode (5)
1283  A400C000           [1] self       2   1   256  ; 2056776437
1287  06010002           [2] loadnil    4   4      
128B  57010000           [3] loadbool   5   0   0    ; false
128F  A2400002           [4] call       2   4   1  
1293  1E008000           [5] return     0   1      
                         * constants:
1297  01                 sizek (1)
1298  01                 const type 3
1299  F5EA977A           const [0]: (2056776437)
                         * functions:
129D  00                 sizep (0)
                         * lines:
129E  05                 sizelineinfo (5)
                         [pc] (line)
129F  E5                 [1] (-27)
12A0  00                 [2] (-27)
12A1  00                 [3] (-27)
12A2  00                 [4] (-27)
12A3  E5                 [5] (-26)
                         * locals:
12B3  00                 sizelocvars (0)
                         * upvalues:
12B4  00                 sizeupvalues (0)
                         ** end of function **

                         * lines:
12B5  0A                 sizelineinfo (10)
                         [pc] (line)
12B6  57                 [01] (87)
12B7  00                 [02] (87)
12B8  00                 [03] (60)
12B9  00                 [04] (-30)
12BA  57                 [05] (-30)
12BB  00                 [06] (89)
12BC  00                 [07] (-26)
12BD  00                 [08] (-26)
12BE  3C                 [09] (-28)
12BF  00                 [10] (-26)
                         * locals:
12DE  00                 sizelocvars (0)
                         * upvalues:
12DF  00                 sizeupvalues (0)
                         ** end of function **

12E0                     ** end of chunk **
