1	C:\wlua_dump\path\Lotus\InterfaceContextAction.lua
Pos   Hex Data           Description or Code
------------------------------------------------------------------------
0000                     ** source chunk: C:\wlua_dump\path\Lotus\InterfaceContextAction.lua
                         ** global header start **
0000  7F                 header signature: ""
0001  00                 version (major:minor hex digits)
0002  00                 format (0=official)
0003  00                 endianness (1=little endian)
0004  00                 size of int (bytes)
0005  00                 size of size_t (bytes)
0006  02                 size of Instruction (bytes)
0007  17                 size of number (bytes)
0008  49                 integral (1=integral)
473
                         * number type: single
                         * x86 standard (32-bit, little endian, doubles)
                         ** global header end **
EE.Interface.Utilities

Marker.LeftBraceClip
Marker.RightBraceClip
Shutdown
Update
Initialize
OnGamepadTransition
gRegion
x
Effects
gParticleSysType
gLensFlareType
mMovie
gRegion
_T
TopMenuOpen

_G
StalkerMode
gMatchingService
string
Foreground
Middle
Shadow
BackShadow
InSimulacrum
gGameRules
gLotusPhotoBoothGameRulesType
reviveActionType
finisherActionType
x
y
z
gContextActionType
ZERO_VECTOR
ZERO_ROTATION
onEnterSound
Marker.Callout
UIMaterial_PlainText
Marker.Instruction
Marker.Panel.Foreground.LeftDeco
UIMaterial_Plain
Marker.Panel.Foreground.RightSide
UIMaterial_Rectangle
UIMaterial_RectangleNoDepth
UISys
FlashInstance_EASE_IN
_x
_alpha
<USE>
Engine
MAIN_HAND
<MELEE_SWING>
<MELEE>
 
Marker.Callout.text
Marker.CalloutMiddle.text
text
Marker.InstructionMiddle
textWidth
_xscale
FlashInstance_EASE_OUT
Marker.Panel
Marker.Circle
Marker.Panel.
.RightSide
_width
markerFx
Marker
gZipLineActionType
Marker.Corona
_visible
WeaponPickupDetailMovie
WeaponPickupDetailText
Marker.CalloutMiddle
PM_AIM
_root
heading
pitch
bank
math
_heading
mMovie
mMovie
x
_x
_alpha
Foreground
_z
Middle
BackShadow
.Middle
nonDepthTestMaterial
Marker.Instruction
Marker.Panel
Marker.Panel.Foreground
Marker.Panel.Middle
Marker.Panel.BackShadow
Marker.Circle
Marker.Circle.Foreground
Marker.Circle.Middle
Marker.Circle.Shadow
Marker.Callout
text

Marker.CalloutMiddle
Marker.InstructionMiddle
_color
Marker.Panel.Middle.LeftDeco
Marker.Panel.Middle.RightSide
Marker.Panel.Foreground.RightSide
Marker.Panel.Shadow.RightSide
Marker.Panel.BackShadow.RightSide
_G
UIMaterial_Rectangle
RectInnerColor
UIColorObject_White
r
g
b
RectEdgeColor
mMovie
Marker.Callout.text
Marker.CalloutMiddle.text
                         
0001                     ** function [0] definition (level 1)
                         ** start of function **
0001  00                 string size (0)
                         source name: (none)
0002  00                 line defined (0)
0003  00                 last line defined (0)
0004  00                 nups (0)
0005  00                 numparams (0)
0006  02                 is_vararg (2)
0007  17                 maxstacksize (23)
                         * code:
0008  49                 sizecode (73)
0009  1D000000           [01] getglobal  0   0        ; 849075268
000D  59400000           [02] loadk      1   1        ; "EE.Interface.Utilities"
0011  22800001           [03] call       0   2   2  
0015  46000002           [04] loadnil    1   4      
0019  59810000           [05] loadk      5   2        ; ""
001D  86018003           [06] loadnil    6   7      
0021  19C20000           [07] loadk      8   3        ; 0
0025  57020000           [08] loadbool   9   0   0    ; false
0029  86020005           [09] loadnil    10  10     
002D  CB020001           [10] newtable   11  2   0    ; array=2, hash=0
0031  19030100           [11] loadk      12  4        ; "Marker.LeftBraceClip"
0035  59430100           [12] loadk      13  5        ; "Marker.RightBraceClip"
0039  DB420001           [13] setlist    11  2   1    ; index 1 to 2
003D  0B030000           [14] newtable   12  0   0    ; array=0, hash=0
0041  57030000           [15] loadbool   13  0   0    ; false
0045  99830100           [16] loadk      14  6        ; 0
0049  D9C30100           [17] loadk      15  7        ; 0
004D  06040008           [18] loadnil    16  16     
0051  57048000           [19] loadbool   17  1   0    ; true
0055  97048000           [20] loadbool   18  1   0    ; true
0059  C6048009           [21] loadnil    19  19     
005D  25050000           [22] closure    20  0      
0061  12000008           [23] move       0   16     
0065  12008009           [24] move       0   19     
0069  20050200           [25] setglobal  20  8        ; Shutdown
006D  20450200           [26] setglobal  20  9        ; 1012367267
0071  25450000           [27] closure    20  1      
0075  12000006           [28] move       0   12     
0079  12000000           [29] move       0   0      
007D  65850000           [30] closure    21  2      
0081  12000008           [31] move       0   16     
0085  12008009           [32] move       0   19     
0089  12000009           [33] move       0   18     
008D  A5C50000           [34] closure    22  3      
0091  12008004           [35] move       0   9      
0095  12008000           [36] move       0   1      
0099  12000002           [37] move       0   4      
009D  12000001           [38] move       0   2      
00A1  12008003           [39] move       0   7      
00A5  12000005           [40] move       0   10     
00A9  12000003           [41] move       0   6      
00AD  12000007           [42] move       0   14     
00B1  12008006           [43] move       0   13     
00B5  12000000           [44] move       0   0      
00B9  12008008           [45] move       0   17     
00BD  12008005           [46] move       0   11     
00C1  1200000A           [47] move       0   20     
00C5  12008002           [48] move       0   5      
00C9  1200800A           [49] move       0   21     
00CD  12008009           [50] move       0   19     
00D1  12008001           [51] move       0   3      
00D5  12000008           [52] move       0   16     
00D9  12000009           [53] move       0   18     
00DD  A0850200           [54] setglobal  22  10       ; Update
00E1  A0C50200           [55] setglobal  22  11       ; -1938777623
00E5  A5050100           [56] closure    22  4      
00E9  12008000           [57] move       0   1      
00ED  12000002           [58] move       0   4      
00F1  12000003           [59] move       0   6      
00F5  12000007           [60] move       0   14     
00F9  12008005           [61] move       0   11     
00FD  12000006           [62] move       0   12     
0101  1200000A           [63] move       0   20     
0105  12008007           [64] move       0   15     
0109  12000004           [65] move       0   8      
010D  12008004           [66] move       0   9      
0111  A0050300           [67] setglobal  22  12       ; Initialize
0115  A0450300           [68] setglobal  22  13       ; 1650753590
0119  A5450100           [69] closure    22  5      
011D  12008002           [70] move       0   5      
0121  A0850300           [71] setglobal  22  14       ; OnGamepadTransition
0125  A0C50300           [72] setglobal  22  15       ; -1729825229
0129  1E008000           [73] return     0   1      
                         * constants:
012D  10                 sizek (16)
012E  01                 const type 3
012F  44DC9B32           const [0]: (849075268)
0133  04                 const type 4
0134  17                 string size (23)
0135  45452E496E746572+  "EE.Inter"
013D  666163652E557469+  "face.Uti"
0145  6C697469657300     "lities\0"
                         const [1]: "EE.Interface.Utilities"
014C  04                 const type 4
014D  01                 string size (0)
                         const [2]: ""
014F  03                 const type 3
0150  0000803F           const [3]: (0)
0154  04                 const type 4
0155  15                 string size (21)
0156  4D61726B65722E4C+  "Marker.L"
015E  6566744272616365+  "eftBrace"
0166  436C697000         "Clip\0"
                         const [4]: "Marker.LeftBraceClip"
016B  04                 const type 4
016C  16                 string size (22)
016D  4D61726B65722E52+  "Marker.R"
0175  6967687442726163+  "ightBrac"
017D  65436C697000       "eClip\0"
                         const [5]: "Marker.RightBraceClip"
0183  03                 const type 3
0184  00000000           const [6]: (0)
0188  03                 const type 3
0189  0000C8C2           const [7]: (0)
018D  04                 const type 4
018E  09                 string size (9)
018F  53687574646F776E+  "Shutdown"
0197  00                 "\0"
                         const [8]: "Shutdown"
0198  01                 const type 3
0199  A37F573C           const [9]: (1012367267)
019D  04                 const type 4
019E  07                 string size (7)
019F  55706461746500     "Update\0"
                         const [10]: "Update"
01A6  01                 const type 3
01A7  E999708C           const [11]: (-1938777623)
01AB  04                 const type 4
01AC  0B                 string size (11)
01AD  496E697469616C69+  "Initiali"
01B5  7A6500             "ze\0"
                         const [12]: "Initialize"
01B8  01                 const type 3
01B9  36806462           const [13]: (1650753590)
01BD  04                 const type 4
01BE  14                 string size (20)
01BF  4F6E47616D657061+  "OnGamepa"
01C7  645472616E736974+  "dTransit"
01CF  696F6E00           "ion\0"
                         const [14]: "OnGamepadTransition"
01D3  01                 const type 3
01D4  33F6E498           const [15]: (-1729825229)
                         * functions:
01D8  06                 sizep (6)
                         
01D9                     ** function [0] definition (level 2)
                         ** start of function **
01D9  00                 string size (0)
                         source name: (none)
01DA  2D                 line defined (45)
01DB  32                 last line defined (50)
01DC  02                 nups (2)
01DD  00                 numparams (0)
01DE  00                 is_vararg (0)
01DF  03                 maxstacksize (3)
                         * code:
01E0  0C                 sizecode (12)
01E1  1D000000           [01] getglobal  0   0        ; 1074689893
01E5  53000000           [02] getupval   1   0      
01E9  22800001           [03] call       0   2   2  
01ED  18400000           [04] test       0       1    ; to [6] if false
01F1  1A400180           [05] jmp        6            ; to [12]
01F5  1D400000           [06] getglobal  0   1        ; gRegion
01F9  24804000           [07] self       0   0   258  ; -1693828985
01FD  93000000           [08] getupval   2   0      
0201  22408001           [09] call       0   3   1  
0205  06000000           [10] loadnil    0   0      
fail op	8
0209  08008000           [11] setupval   0   1      
020D  1E008000           [12] return     0   1      
                         * constants:
0211  03                 sizek (3)
0212  01                 const type 3
0213  65770E40           const [0]: (1074689893)
0217  04                 const type 4
0218  08                 string size (8)
0219  67526567696F6E00   "gRegion\0"
                         const [1]: "gRegion"
0221  01                 const type 3
0222  87380A9B           const [2]: (-1693828985)
                         * functions:
0226  00                 sizep (0)
                         * lines:
0227  0C                 sizelineinfo (12)
                         [pc] (line)
0228  2E                 [01] (46)
0229  00                 [02] (46)
022A  00                 [03] (46)
022B  00                 [04] (46)
022C  2E                 [05] (46)
022D  00                 [06] (47)
022E  00                 [07] (47)
022F  00                 [08] (47)
0230  2E                 [09] (47)
0231  00                 [10] (48)
0232  00                 [11] (48)
0233  00                 [12] (50)
                         * locals:
0258  00                 sizelocvars (0)
                         * upvalues:
0259  00                 sizeupvalues (0)
                         ** end of function **

                         
025A                     ** function [1] definition (level 2)
                         ** start of function **
025A  00                 string size (0)
                         source name: (none)
025B  34                 line defined (52)
025C  3B                 last line defined (59)
025D  02                 nups (2)
025E  02                 numparams (2)
025F  00                 is_vararg (0)
0260  08                 maxstacksize (8)
                         * code:
0261  15                 sizecode (21)
0262  8B000000           [01] newtable   2   0   0    ; array=0, hash=0
0266  D3000000           [02] getupval   3   0      
026A  CE008001           [03] gettable   3   3   0  
026E  CE00C001           [04] gettable   3   3   256  ; "x"
0272  8CC00080           [05] settable   2   256 3    ; "x"
0276  58400000           [06] test       1       1    ; to [8] if false
027A  1AC00280           [07] jmp        12           ; to [20]
027E  CE004001           [08] gettable   3   2   256  ; "x"
0282  13018000           [09] getupval   4   1      
0286  0E414002           [10] gettable   4   4   257  ; -132701534
fail op	35
028A  63804000           [11] close      1  
028E  1A000080           [12] jmp        1            ; to [14]
0292  57410000           [13] loadbool   5   0   1    ; false, to [15]
0296  57018000           [14] loadbool   5   1   0    ; true
029A  99C10000           [15] loadk      6   3        ; 0
029E  D9010100           [16] loadk      7   4        ; 0
02A2  22810002           [17] call       4   4   2  
02A6  C3008101           [18] add        3   3   4  
02AA  8CC00080           [19] settable   2   256 3    ; "x"
02AE  9E000001           [20] return     2   2      
02B2  1E008000           [21] return     0   1      
                         * constants:
02B6  05                 sizek (5)
02B7  04                 const type 4
02B8  02                 string size (2)
02B9  7800               "x\0"
                         const [0]: "x"
02BB  01                 const type 3
02BC  A22217F8           const [1]: (-132701534)
02C0  03                 const type 3
02C1  00000040           const [2]: (0)
02C5  03                 const type 3
02C6  0000A041           const [3]: (0)
02CA  03                 const type 3
02CB  0000A0C1           const [4]: (0)
                         * functions:
02CF  00                 sizep (0)
                         * lines:
02D0  15                 sizelineinfo (21)
                         [pc] (line)
02D1  35                 [01] (53)
02D2  00                 [02] (54)
02D3  00                 [03] (54)
02D4  00                 [04] (54)
02D5  36                 [05] (54)
02D6  00                 [06] (55)
02D7  00                 [07] (55)
02D8  00                 [08] (56)
02D9  36                 [09] (56)
02DA  00                 [10] (56)
02DB  00                 [11] (56)
02DC  00                 [12] (56)
02DD  36                 [13] (56)
02DE  00                 [14] (56)
02DF  00                 [15] (56)
02E0  00                 [16] (56)
02E1  36                 [17] (56)
02E2  00                 [18] (56)
02E3  00                 [19] (56)
02E4  00                 [20] (58)
02E5  37                 [21] (59)
                         * locals:
0325  00                 sizelocvars (0)
                         * upvalues:
0326  00                 sizeupvalues (0)
                         ** end of function **

                         
0327                     ** function [2] definition (level 2)
                         ** start of function **
0327  00                 string size (0)
                         source name: (none)
0328  3D                 line defined (61)
0329  49                 last line defined (73)
032A  03                 nups (3)
032B  00                 numparams (0)
032C  00                 is_vararg (0)
032D  08                 maxstacksize (8)
                         * code:
032E  20                 sizecode (32)
032F  1D000000           [01] getglobal  0   0        ; 1074689893
0333  53000000           [02] getupval   1   0      
0337  22800001           [03] call       0   2   2  
033B  18400000           [04] test       0       1    ; to [6] if false
033F  1A400680           [05] jmp        26           ; to [32]
0343  1D400000           [06] getglobal  0   1        ; Effects
0347  0E804000           [07] gettable   0   0   258  ; 71290280
034B  53000000           [08] getupval   1   0      
034F  9DC00000           [09] getglobal  2   3        ; gParticleSysType
0353  22408001           [10] call       0   3   1  
0357  13000000           [11] getupval   0   0      
035B  24004100           [12] self       0   0   260  ; 366271214
035F  9D400100           [13] getglobal  2   5        ; gLensFlareType
0363  22808001           [14] call       0   3   2  
0367  5D800100           [15] getglobal  1   6        ; 1672515847
036B  92000000           [16] move       2   0      
036F  62000101           [17] call       1   2   4  
0373  1A400080           [18] jmp        2            ; to [21]
0377  A4C1C102           [19] self       6   5   263  ; -725453761
037B  A2410001           [20] call       6   2   1  
037F  56800000           [21] tforloop   1       2    ; to [23] if exit
0383  1AC0FE7F           [22] jmp        -4           ; to [19]
0387  93010000           [23] getupval   6   0      
038B  A4014203           [24] self       6   6   264  ; 766584623
038F  A2410001           [25] call       6   2   1  
0393  86010003           [26] loadnil    6   6      
fail op	8
0397  88010000           [27] setupval   6   0      
039B  86010003           [28] loadnil    6   6      
fail op	8
039F  88018000           [29] setupval   6   1      
03A3  97018000           [30] loadbool   6   1   0    ; true
fail op	8
03A7  88010001           [31] setupval   6   2      
03AB  1E008000           [32] return     0   1      
                         * constants:
03AF  09                 sizek (9)
03B0  01                 const type 3
03B1  65770E40           const [0]: (1074689893)
03B5  04                 const type 4
03B6  08                 string size (8)
03B7  4566666563747300   "Effects\0"
                         const [1]: "Effects"
03BF  01                 const type 3
03C0  A8CD3F04           const [2]: (71290280)
03C4  04                 const type 4
03C5  11                 string size (17)
03C6  675061727469636C+  "gParticl"
03CE  6553797354797065+  "eSysType"
03D6  00                 "\0"
                         const [3]: "gParticleSysType"
03D7  01                 const type 3
03D8  EEDAD415           const [4]: (366271214)
03DC  04                 const type 4
03DD  0F                 string size (15)
03DE  674C656E73466C61+  "gLensFla"
03E6  72655479706500     "reType\0"
                         const [5]: "gLensFlareType"
03ED  01                 const type 3
03EE  0791B063           const [6]: (1672515847)
03F2  01                 const type 3
03F3  3F74C2D4           const [7]: (-725453761)
03F7  01                 const type 3
03F8  2F27B12D           const [8]: (766584623)
                         * functions:
03FC  00                 sizep (0)
                         * lines:
03FD  20                 sizelineinfo (32)
                         [pc] (line)
03FE  3E                 [01] (62)
03FF  00                 [02] (62)
0400  00                 [03] (62)
0401  00                 [04] (62)
0402  3E                 [05] (62)
0403  00                 [06] (63)
0404  00                 [07] (63)
0405  00                 [08] (63)
0406  3E                 [09] (63)
0407  00                 [10] (63)
0408  00                 [11] (64)
0409  00                 [12] (64)
040A  3E                 [13] (64)
040B  00                 [14] (64)
040C  00                 [15] (65)
040D  00                 [16] (65)
040E  3E                 [17] (65)
040F  00                 [18] (65)
0410  00                 [19] (66)
0411  00                 [20] (66)
0412  3F                 [21] (65)
0413  00                 [22] (66)
0414  00                 [23] (68)
0415  00                 [24] (68)
0416  3F                 [25] (68)
0417  00                 [26] (69)
0418  00                 [27] (69)
0419  00                 [28] (70)
041A  3F                 [29] (70)
041B  00                 [30] (71)
041C  00                 [31] (71)
041D  00                 [32] (73)
                         * locals:
047E  00                 sizelocvars (0)
                         * upvalues:
047F  00                 sizeupvalues (0)
                         ** end of function **

                         
0480                     ** function [3] definition (level 2)
                         ** start of function **
0480  00                 string size (0)
                         source name: (none)
0481  4B                 line defined (75)
0482  ED                 last line defined (365)
0483  02                 nups (19)
0484  13                 numparams (0)
0485  00                 is_vararg (0)
0486  00                 maxstacksize (74)
                         * code:
0489  08                 sizecode (1129)
048A  13000000           [0001] getupval   0   0      
048E  18000000           [0002] test       0       0    ; to [4] if true
0492  1A400280           [0003] jmp        10           ; to [14]
0496  1D000000           [0004] getglobal  0   0        ; 1074689893
049A  5D400000           [0005] getglobal  1   1        ; mMovie
049E  22800001           [0006] call       0   2   2  
04A2  18400000           [0007] test       0       1    ; to [9] if false
04A6  1A000180           [0008] jmp        5            ; to [14]
04AA  1D000000           [0009] getglobal  0   0        ; 1074689893
04AE  5D800000           [0010] getglobal  1   2        ; gRegion
04B2  22800001           [0011] call       0   2   2  
04B6  18000000           [0012] test       0       0    ; to [14] if true
04BA  1A000080           [0013] jmp        1            ; to [15]
04BE  1E008000           [0014] return     0   1      
04C2  1D400000           [0015] getglobal  0   1        ; mMovie
04C6  24C04000           [0016] self       0   0   259  ; 135097114
04CA  9D000100           [0017] getglobal  2   4        ; 1289681407
04CE  A2008000           [0018] call       2   1   0  
04D2  22400000           [0019] call       0   0   1  
04D6  1D000000           [0020] getglobal  0   0        ; 1074689893
04DA  53008000           [0021] getupval   1   1      
04DE  22800001           [0022] call       0   2   2  
04E2  18000000           [0023] test       0       0    ; to [25] if true
04E6  1A400480           [0024] jmp        18           ; to [43]
04EA  1D800000           [0025] getglobal  0   2        ; gRegion
04EE  24404100           [0026] self       0   0   261  ; -1280573509
04F2  22800001           [0027] call       0   2   2  
04F6  4A000000           [0028] len        1   0      
fail op	21
04FA  15400083           [0029] concat     0   262 1  
04FE  1A400080           [0030] jmp        2            ; to [33]
0502  4EC04100           [0031] gettable   1   0   263  ; 0
fail op	8
0506  48008000           [0032] setupval   1   1      
050A  5D000000           [0033] getglobal  1   0        ; 1074689893
050E  93008000           [0034] getupval   2   1      
0512  62800001           [0035] call       1   2   2  
0516  58000000           [0036] test       1       0    ; to [38] if true
051A  1A000080           [0037] jmp        1            ; to [39]
051E  1E008000           [0038] return     0   1      
0522  53008000           [0039] getupval   1   1      
0526  6400C200           [0040] self       1   1   264  ; -1704783487
052A  62800001           [0041] call       1   2   2  
fail op	8
052E  48000001           [0042] setupval   1   2      
0532  5D000000           [0043] getglobal  1   0        ; 1074689893
0536  93000001           [0044] getupval   2   2      
053A  62800001           [0045] call       1   2   2  
053E  58000000           [0046] test       1       0    ; to [48] if true
0542  1A000080           [0047] jmp        1            ; to [49]
0546  1E008000           [0048] return     0   1      
054A  53008000           [0049] getupval   1   1      
054E  6440C200           [0050] self       1   1   265  ; -2135866365
0552  62800001           [0051] call       1   2   2  
fail op	8
0556  48008001           [0052] setupval   1   3      
055A  53000002           [0053] getupval   1   4      
055E  93000001           [0054] getupval   2   2      
0562  A4804201           [0055] self       2   2   266  ; -1944400657
0566  A2800001           [0056] call       2   2   2  
fail op	35
056A  23808000           [0057] close      0  
056E  1A000080           [0058] jmp        1            ; to [60]
0572  57400000           [0059] loadbool   1   0   1    ; false, to [61]
0576  57008000           [0060] loadbool   1   1   0    ; true
057A  93000001           [0061] getupval   2   2      
057E  A4804201           [0062] self       2   2   266  ; -1944400657
0582  A2800001           [0063] call       2   2   2  
fail op	8
0586  88000002           [0064] setupval   2   4      
058A  58400000           [0065] test       1       1    ; to [67] if false
058E  1A800180           [0066] jmp        7            ; to [74]
0592  93008002           [0067] getupval   2   5      
0596  DDC00200           [0068] getglobal  3   11       ; _T
059A  CE00C301           [0069] gettable   3   3   268  ; "TopMenuOpen"
fail op	35
059E  23C00001           [0070] close      0  
05A2  1A000080           [0071] jmp        1            ; to [73]
05A6  57400000           [0072] loadbool   1   0   1    ; false, to [74]
05AA  57008000           [0073] loadbool   1   1   0    ; true
05AE  9DC00200           [0074] getglobal  2   11       ; _T
05B2  8E004301           [0075] gettable   2   2   268  ; "TopMenuOpen"
fail op	8
05B6  88008002           [0076] setupval   2   5      
05BA  86000001           [0077] loadnil    2   2      
05BE  D9400300           [0078] loadk      3   13       ; ""
05C2  1D010000           [0079] getglobal  4   0        ; 1074689893
05C6  53010001           [0080] getupval   5   2      
05CA  22810001           [0081] call       4   2   2  
05CE  18410000           [0082] test       4       1    ; to [84] if false
05D2  1A400880           [0083] jmp        34           ; to [118]
05D6  1D810300           [0084] getglobal  4   14       ; _G
05DA  0EC14302           [0085] gettable   4   4   271  ; "StalkerMode"
05DE  18010000           [0086] test       4       0    ; to [88] if true
05E2  1AC00180           [0087] jmp        8            ; to [96]
05E6  1D010000           [0088] getglobal  4   0        ; 1074689893
05EA  5D010400           [0089] getglobal  5   16       ; gMatchingService
05EE  6441C402           [0090] self       5   5   273  ; -706726330
05F2  62010001           [0091] call       5   2   0  
05F6  22810000           [0092] call       4   0   2  
fail op	9
05FA  09010002           [0093] settable   4   4   0  
05FE  18410000           [0094] test       4       1    ; to [96] if false
0602  1A400580           [0095] jmp        22           ; to [118]
0606  13010001           [0096] getupval   4   2      
060A  24814402           [0097] self       4   4   274  ; 498102036
060E  22810001           [0098] call       4   2   2  
0612  59C10100           [0099] loadk      5   7        ; 0
0616  92010002           [0100] move       6   4      
061A  D9C10100           [0101] loadk      7   7        ; 0
061E  50410380           [0102] forprep    5   14       ; to [117]
0622  53020001           [0103] getupval   9   2      
0626  64C2C404           [0104] self       9   9   275  ; 1844546866
062A  CDC24104           [0105] sub        11  8   263  ; 0
062E  62828001           [0106] call       9   3   2  
fail op	35
0632  6300C504           [0107] close      1  
0636  1AC00180           [0108] jmp        8            ; to [117]
fail op	35
063A  6340C304           [0109] close      1  
063E  1A400180           [0110] jmp        6            ; to [117]
0642  93020001           [0111] getupval   10  2      
0646  A4424505           [0112] self       10  10  277  ; -1767027308
064A  0DC34104           [0113] sub        12  8   263  ; 0
064E  A2828001           [0114] call       10  3   2  
0652  92000005           [0115] move       2   10     
0656  D2008004           [0116] move       3   9      
065A  5401FC7F           [0117] forloop    5   -15      ; to [103] if loop
065E  9D020000           [0118] getglobal  10  0        ; 1074689893
0662  D2020001           [0119] move       11  2      
0666  A2820001           [0120] call       10  2   2  
066A  98020000           [0121] test       10      0    ; to [123] if true
066E  1A000380           [0122] jmp        13           ; to [136]
0672  9D020000           [0123] getglobal  10  0        ; 1074689893
0676  D3020003           [0124] getupval   11  6      
067A  A2820001           [0125] call       10  2   2  
067E  98420000           [0126] test       10      1    ; to [128] if false
0682  1AC00180           [0127] jmp        8            ; to [136]
0686  93028003           [0128] getupval   10  7      
fail op	21
068A  15C04105           [0129] concat     0   10  263
068E  1A000180           [0130] jmp        5            ; to [136]
0692  93028003           [0131] getupval   10  7      
0696  83C24105           [0132] add        10  10  263  ; 0
fail op	8
069A  88028003           [0133] setupval   10  7      
069E  1E008000           [0134] return     0   1      
06A2  1A800180           [0135] jmp        7            ; to [143]
06A6  9D020000           [0136] getglobal  10  0        ; 1074689893
06AA  D2020001           [0137] move       11  2      
06AE  A2820001           [0138] call       10  2   2  
06B2  98420000           [0139] test       10      1    ; to [141] if false
06B6  1A400080           [0140] jmp        2            ; to [143]
06BA  99820100           [0141] loadk      10  6        ; 0
fail op	8
06BE  88028003           [0142] setupval   10  7      
06C2  58400000           [0143] test       1       1    ; to [145] if false
06C6  1A800080           [0144] jmp        3            ; to [148]
06CA  93020003           [0145] getupval   10  6      
fail op	35
06CE  63800005           [0146] close      1  
06D2  1A40A180           [0147] jmp        646          ; to [794]
fail op	8
06D6  88000003           [0148] setupval   2   6      
06DA  9D020000           [0149] getglobal  10  0        ; 1074689893
06DE  D3020003           [0150] getupval   11  6      
06E2  A2820001           [0151] call       10  2   2  
06E6  98420000           [0152] test       10      1    ; to [154] if false
06EA  1AC00080           [0153] jmp        4            ; to [158]
06EE  93020003           [0154] getupval   10  6      
06F2  A4824505           [0155] self       10  10  278  ; 1073502333
06F6  A2820001           [0156] call       10  2   2  
06FA  1A400080           [0157] jmp        2            ; to [160]
06FE  97420000           [0158] loadbool   10  0   1    ; false, to [160]
0702  97028000           [0159] loadbool   10  1   0    ; true
fail op	8
0706  88020004           [0160] setupval   10  8      
070A  93020001           [0161] getupval   10  2      
070E  A4824205           [0162] self       10  10  266  ; -1944400657
0712  A2820001           [0163] call       10  2   2  
0716  98020000           [0164] test       10      0    ; to [166] if true
071A  1AC00280           [0165] jmp        12           ; to [178]
071E  9DC20500           [0166] getglobal  10  23       ; string
0722  8E024605           [0167] gettable   10  10  280  ; -965268854
0726  D2028001           [0168] move       11  3      
072A  A2820001           [0169] call       10  2   2  
fail op	21
072E  15800283           [0170] concat     0   262 10 
0732  1AC00080           [0171] jmp        4            ; to [176]
0736  9DC20200           [0172] getglobal  10  11       ; _T
073A  8E024305           [0173] gettable   10  10  268  ; "TopMenuOpen"
fail op	9
073E  89020005           [0174] settable   10  10  0  
0742  1A400080           [0175] jmp        2            ; to [178]
0746  97420000           [0176] loadbool   10  0   1    ; false, to [178]
074A  97028000           [0177] loadbool   10  1   0    ; true
074E  D7020000           [0178] loadbool   11  0   0    ; false
0752  0B030002           [0179] newtable   12  4   0    ; array=4, hash=0
0756  59430600           [0180] loadk      13  25       ; "Foreground"
075A  99830600           [0181] loadk      14  26       ; "Middle"
075E  D9C30600           [0182] loadk      15  27       ; "Shadow"
0762  19040700           [0183] loadk      16  28       ; "BackShadow"
0766  1B430002           [0184] setlist    12  4   1    ; index 1 to 4
076A  5D030000           [0185] getglobal  13  0        ; 1074689893
076E  93030003           [0186] getupval   14  6      
0772  62830001           [0187] call       13  2   2  
0776  58430000           [0188] test       13      1    ; to [190] if false
077A  1AC02D80           [0189] jmp        184          ; to [374]
077E  53030003           [0190] getupval   13  6      
0782  9DC30200           [0191] getglobal  14  11       ; _T
0786  8E434707           [0192] gettable   14  14  285  ; "InSimulacrum"
078A  98030000           [0193] test       14      0    ; to [195] if true
078E  1AC00280           [0194] jmp        12           ; to [207]
0792  9D030000           [0195] getglobal  14  0        ; 1074689893
0796  DD830700           [0196] getglobal  15  30       ; gGameRules
079A  A2830001           [0197] call       14  2   2  
079E  98430000           [0198] test       14      1    ; to [200] if false
07A2  1A800180           [0199] jmp        7            ; to [207]
07A6  9D830700           [0200] getglobal  14  30       ; gGameRules
07AA  A4C34707           [0201] self       14  14  287  ; -1957065004
07AE  1D040800           [0202] getglobal  16  32       ; gLotusPhotoBoothGameRulesType
07B2  A2838001           [0203] call       14  3   2  
07B6  98030000           [0204] test       14      0    ; to [206] if true
07BA  1A000080           [0205] jmp        1            ; to [207]
07BE  97020000           [0206] loadbool   10  0   0    ; false
07C2  9D030000           [0207] getglobal  14  0        ; 1074689893
07C6  DD430800           [0208] getglobal  15  33       ; reviveActionType
07CA  A2830001           [0209] call       14  2   2  
07CE  98430000           [0210] test       14      1    ; to [212] if false
07D2  1AC00380           [0211] jmp        16           ; to [228]
07D6  93030003           [0212] getupval   14  6      
07DA  A4C34707           [0213] self       14  14  287  ; -1957065004
07DE  1D440800           [0214] getglobal  16  33       ; reviveActionType
07E2  A2838001           [0215] call       14  3   2  
07E6  98030000           [0216] test       14      0    ; to [218] if true
07EA  1A400280           [0217] jmp        10           ; to [228]
07EE  93030003           [0218] getupval   14  6      
07F2  A4834807           [0219] self       14  14  290  ; -1813737495
07F6  A2830001           [0220] call       14  2   2  
07FA  52030007           [0221] move       13  14     
07FE  93038000           [0222] getupval   14  1      
0802  A4C34807           [0223] self       14  14  291  ; -1813551355
0806  A2830001           [0224] call       14  2   2  
fail op	35
080A  23808306           [0225] close      0  
080E  1A000080           [0226] jmp        1            ; to [228]
0812  97020000           [0227] loadbool   10  0   0    ; false
0816  9D030000           [0228] getglobal  14  0        ; 1074689893
081A  DD030900           [0229] getglobal  15  36       ; finisherActionType
081E  A2830001           [0230] call       14  2   2  
0822  98430000           [0231] test       14      1    ; to [233] if false
0826  1A800280           [0232] jmp        11           ; to [244]
082A  93030003           [0233] getupval   14  6      
082E  A4C34707           [0234] self       14  14  287  ; -1957065004
0832  1D040900           [0235] getglobal  16  36       ; finisherActionType
0836  A2838001           [0236] call       14  3   2  
083A  98030000           [0237] test       14      0    ; to [239] if true
083E  1A000180           [0238] jmp        5            ; to [244]
0842  93030003           [0239] getupval   14  6      
0846  A4434907           [0240] self       14  14  293  ; -590993082
084A  A2830001           [0241] call       14  2   2  
084E  52030007           [0242] move       13  14     
0852  D7028000           [0243] loadbool   11  1   0    ; true
0856  9D030000           [0244] getglobal  14  0        ; 1074689893
085A  D3030003           [0245] getupval   15  6      
085E  E483C907           [0246] self       15  15  294  ; -671439554
0862  E2030001           [0247] call       15  2   0  
0866  A2830000           [0248] call       14  0   2  
086A  98430000           [0249] test       14      1    ; to [251] if false
086E  1AC00080           [0250] jmp        4            ; to [255]
0872  93030003           [0251] getupval   14  6      
0876  A4834907           [0252] self       14  14  294  ; -671439554
087A  A2830001           [0253] call       14  2   2  
087E  52030007           [0254] move       13  14     
0882  93030003           [0255] getupval   14  6      
0886  A4C34907           [0256] self       14  14  295  ; -1593774612
088A  A2830001           [0257] call       14  2   2  
088E  D3030003           [0258] getupval   15  6      
0892  E403CA07           [0259] self       15  15  296  ; -1151429441
0896  E2830001           [0260] call       15  2   2  
089A  0E444A07           [0261] gettable   16  14  297  ; "x"
089E  4E44CA07           [0262] gettable   17  15  297  ; "x"
08A2  1C440408           [0263] div        16  16  17 
08A6  8C038494           [0264] settable   14  297 16   ; "x"
08AA  0E844A07           [0265] gettable   16  14  298  ; "y"
08AE  4E84CA07           [0266] gettable   17  15  298  ; "y"
08B2  1C440408           [0267] div        16  16  17 
08B6  8C030495           [0268] settable   14  298 16   ; "y"
08BA  0EC44A07           [0269] gettable   16  14  299  ; "z"
08BE  4EC4CA07           [0270] gettable   17  15  299  ; "z"
08C2  1C440408           [0271] div        16  16  17 
08C6  8C038495           [0272] settable   14  299 16   ; "z"
08CA  1D040000           [0273] getglobal  16  0        ; 1074689893
08CE  52048006           [0274] move       17  13     
08D2  22840001           [0275] call       16  2   2  
08D6  18440000           [0276] test       16      1    ; to [278] if false
08DA  1AC00180           [0277] jmp        8            ; to [286]
08DE  24C4C706           [0278] self       16  13  287  ; -1957065004
08E2  9D040B00           [0279] getglobal  18  44       ; gContextActionType
08E6  22848001           [0280] call       16  3   2  
08EA  18040000           [0281] test       16      0    ; to [283] if true
08EE  1AC00080           [0282] jmp        4            ; to [287]
08F2  2444CB06           [0283] self       16  13  301  ; -1133186363
08F6  22840001           [0284] call       16  2   2  
08FA  1A400080           [0285] jmp        2            ; to [288]
08FE  17440000           [0286] loadbool   16  0   1    ; false, to [288]
0902  17048000           [0287] loadbool   16  1   0    ; true
0906  18040000           [0288] test       16      0    ; to [290] if true
090A  1AC00280           [0289] jmp        12           ; to [302]
090E  5D440000           [0290] getglobal  17  1        ; mMovie
0912  6484CB08           [0291] self       17  17  302  ; 1637870004
0916  D2048006           [0292] move       19  13     
091A  12050007           [0293] move       20  14     
091E  53050003           [0294] getupval   21  6      
0922  64C5CB0A           [0295] self       21  21  303  ; -1649445842
0926  62850001           [0296] call       21  2   2  
092A  93050003           [0297] getupval   22  6      
092E  A4054A0B           [0298] self       22  22  296  ; -1151429441
0932  A2050001           [0299] call       22  2   0  
0936  62440000           [0300] call       17  0   1  
093A  1A800280           [0301] jmp        11           ; to [313]
093E  5D440000           [0302] getglobal  17  1        ; mMovie
0942  6484CB08           [0303] self       17  17  302  ; 1637870004
0946  C6048009           [0304] loadnil    19  19     
094A  1D050C00           [0305] getglobal  20  48       ; ZERO_VECTOR
094E  5D450C00           [0306] getglobal  21  49       ; ZERO_ROTATION
0952  9D850C00           [0307] getglobal  22  50       ; 572299008
0956  D9C50100           [0308] loadk      23  7        ; 0
095A  19C60100           [0309] loadk      24  7        ; 0
095E  59C60100           [0310] loadk      25  7        ; 0
0962  A2050002           [0311] call       22  4   0  
0966  62440000           [0312] call       17  0   1  
096A  53040003           [0313] getupval   17  6      
096E  64C4CC08           [0314] self       17  17  307  ; -736465524
0972  62840001           [0315] call       17  2   2  
0976  58040000           [0316] test       17      0    ; to [318] if true
097A  1A800180           [0317] jmp        7            ; to [325]
097E  53048004           [0318] getupval   17  9      
0982  4E04CD08           [0319] gettable   17  17  308  ; 630793108
0986  9D440D00           [0320] getglobal  18  53       ; onEnterSound
098A  D3040003           [0321] getupval   19  6      
098E  E484CD09           [0322] self       19  19  310  ; 1839670529
0992  E2040001           [0323] call       19  2   0  
0996  62440000           [0324] call       17  0   1  
099A  53040005           [0325] getupval   17  10     
fail op	35
099E  63008408           [0326] close      1  
09A2  1A400B80           [0327] jmp        46           ; to [374]
fail op	8
09A6  08040005           [0328] setupval   16  10     
09AA  5D440000           [0329] getglobal  17  1        ; mMovie
09AE  64C4CD08           [0330] self       17  17  311  ; 2115970775
09B2  D9040E00           [0331] loadk      19  56       ; "Marker.Callout"
09B6  13058004           [0332] getupval   20  9      
09BA  0E454E0A           [0333] gettable   20  20  313  ; -132701534
09BE  53050005           [0334] getupval   21  10     
09C2  8605000B           [0335] loadnil    22  22     
09C6  DD850300           [0336] getglobal  23  14       ; _G
09CA  CE85CE0B           [0337] gettable   23  23  314  ; "UIMaterial_PlainText"
09CE  22050002           [0338] call       20  4   0  
09D2  62440000           [0339] call       17  0   1  
09D6  5D440000           [0340] getglobal  17  1        ; mMovie
09DA  64C4CD08           [0341] self       17  17  311  ; 2115970775
09DE  D9C40E00           [0342] loadk      19  59       ; "Marker.Instruction"
09E2  13058004           [0343] getupval   20  9      
09E6  0E454E0A           [0344] gettable   20  20  313  ; -132701534
09EA  53050005           [0345] getupval   21  10     
09EE  8605000B           [0346] loadnil    22  22     
09F2  DD850300           [0347] getglobal  23  14       ; _G
09F6  CE85CE0B           [0348] gettable   23  23  314  ; "UIMaterial_PlainText"
09FA  22050002           [0349] call       20  4   0  
09FE  62440000           [0350] call       17  0   1  
0A02  5D440000           [0351] getglobal  17  1        ; mMovie
0A06  64C4CD08           [0352] self       17  17  311  ; 2115970775
0A0A  D9040F00           [0353] loadk      19  60       ; "Marker.Panel.Foreground.LeftDeco"
0A0E  13058004           [0354] getupval   20  9      
0A12  0E454E0A           [0355] gettable   20  20  313  ; -132701534
0A16  53050005           [0356] getupval   21  10     
0A1A  8605000B           [0357] loadnil    22  22     
0A1E  DD850300           [0358] getglobal  23  14       ; _G
0A22  CE45CF0B           [0359] gettable   23  23  317  ; "UIMaterial_Plain"
0A26  22050002           [0360] call       20  4   0  
0A2A  62440000           [0361] call       17  0   1  
0A2E  5D440000           [0362] getglobal  17  1        ; mMovie
0A32  64C4CD08           [0363] self       17  17  311  ; 2115970775
0A36  D9840F00           [0364] loadk      19  62       ; "Marker.Panel.Foreground.RightSide"
0A3A  13058004           [0365] getupval   20  9      
0A3E  0E454E0A           [0366] gettable   20  20  313  ; -132701534
0A42  53050005           [0367] getupval   21  10     
0A46  9D850300           [0368] getglobal  22  14       ; _G
0A4A  8EC54F0B           [0369] gettable   22  22  319  ; "UIMaterial_Rectangle"
0A4E  DD850300           [0370] getglobal  23  14       ; _G
0A52  CE05D00B           [0371] gettable   23  23  320  ; "UIMaterial_RectangleNoDepth"
0A56  22050002           [0372] call       20  4   0  
0A5A  62440000           [0373] call       17  0   1  
0A5E  5D441000           [0374] getglobal  17  65       ; 1672515847
0A62  93048005           [0375] getupval   18  11     
0A66  62040101           [0376] call       17  2   4  
0A6A  1A400680           [0377] jmp        26           ; to [404]
0A6E  93050006           [0378] getupval   22  12     
0A72  D205000A           [0379] move       23  20     
0A76  12060005           [0380] move       24  10     
0A7A  A2858001           [0381] call       22  3   2  
0A7E  DD851000           [0382] getglobal  23  66       ; 1390508688
0A82  1D460000           [0383] getglobal  24  1        ; mMovie
0A86  5206800A           [0384] move       25  21     
0A8A  9DC61000           [0385] getglobal  26  67       ; UISys
0A8E  8E06510D           [0386] gettable   26  26  324  ; "FlashInstance_EASE_IN"
0A92  CB060001           [0387] newtable   27  2   0    ; array=2, hash=0
0A96  19471100           [0388] loadk      28  69       ; "_x"
0A9A  59871100           [0389] loadk      29  70       ; "_alpha"
0A9E  DB460001           [0390] setlist    27  2   1    ; index 1 to 2
0AA2  0B078000           [0391] newtable   28  1   0    ; array=1, hash=0
0AA6  4E474A0B           [0392] gettable   29  22  297  ; "x"
0AAA  93078004           [0393] getupval   30  9      
0AAE  8E474E0F           [0394] gettable   30  30  313  ; -132701534
fail op	5
0AB2  C5070005           [0395] getglobal  31  5120     ; nil
0AB6  1A000080           [0396] jmp        1            ; to [398]
0ABA  D3070005           [0397] getupval   31  10     
0ABE  19C81100           [0398] loadk      32  71       ; 0
0AC2  59880100           [0399] loadk      33  6        ; 0
0AC6  A2070002           [0400] call       30  4   0  
0ACA  1B470000           [0401] setlist    28  0   1    ; index 1 to top
0ACE  59071200           [0402] loadk      29  72       ; -102
0AD2  E2458003           [0403] call       23  7   1  
0AD6  56840000           [0404] tforloop   17      2    ; to [406] if exit
0ADA  1AC0F87F           [0405] jmp        -28          ; to [378]
0ADE  D8020000           [0406] test       11      0    ; to [408] if true
0AE2  1A800080           [0407] jmp        3            ; to [411]
fail op	35
0AE6  2340C301           [0408] close      0  
0AEA  1A000080           [0409] jmp        1            ; to [411]
0AEE  97020000           [0410] loadbool   10  0   0    ; false
0AF2  98020000           [0411] test       10      0    ; to [413] if true
0AF6  1AC04480           [0412] jmp        276          ; to [689]
0AFA  DD450000           [0413] getglobal  23  1        ; mMovie
0AFE  E445D20B           [0414] self       23  23  329  ; 1649906088
0B02  57068000           [0415] loadbool   25  1   0    ; true
0B06  E2458001           [0416] call       23  3   1  
0B0A  DD450000           [0417] getglobal  23  1        ; mMovie
0B0E  E485D20B           [0418] self       23  23  330  ; 98241492
0B12  52068001           [0419] move       25  3      
0B16  97060000           [0420] loadbool   26  0   0    ; false
0B1A  E2850002           [0421] call       23  4   2  
0B1E  19C61200           [0422] loadk      24  75       ; "<USE>"
fail op	8
0B22  08068006           [0423] setupval   24  13     
0B26  17060000           [0424] loadbool   24  0   0    ; false
0B2A  18060000           [0425] test       24      0    ; to [427] if true
0B2E  1A000880           [0426] jmp        33           ; to [460]
0B32  D8020000           [0427] test       11      0    ; to [429] if true
0B36  1A800780           [0428] jmp        31           ; to [460]
0B3A  1D060000           [0429] getglobal  24  0        ; 1074689893
0B3E  53068000           [0430] getupval   25  1      
0B42  22860001           [0431] call       24  2   2  
0B46  18460000           [0432] test       24      1    ; to [434] if false
0B4A  1A400680           [0433] jmp        26           ; to [460]
0B4E  1D060000           [0434] getglobal  24  0        ; 1074689893
0B52  53068001           [0435] getupval   25  3      
0B56  22860001           [0436] call       24  2   2  
0B5A  18460000           [0437] test       24      1    ; to [439] if false
0B5E  1A000580           [0438] jmp        21           ; to [460]
0B62  13068001           [0439] getupval   24  3      
0B66  2406530C           [0440] self       24  24  332  ; -1917464545
0B6A  22860001           [0441] call       24  2   2  
0B6E  2446530C           [0442] self       24  24  333  ; 1856017039
0B72  9D861300           [0443] getglobal  26  78       ; Engine
0B76  8EC6530D           [0444] gettable   26  26  335  ; "MAIN_HAND"
0B7A  22868001           [0445] call       24  3   2  
0B7E  5D060000           [0446] getglobal  25  0        ; 1074689893
0B82  9206000C           [0447] move       26  24     
0B86  62860001           [0448] call       25  2   2  
0B8A  58460000           [0449] test       25      1    ; to [451] if false
0B8E  1A800180           [0450] jmp        7            ; to [458]
0B92  6406540C           [0451] self       25  24  336  ; -857886821
0B96  62860001           [0452] call       25  2   2  
0B9A  58060000           [0453] test       25      0    ; to [455] if true
0B9E  1A800080           [0454] jmp        3            ; to [458]
0BA2  59461400           [0455] loadk      25  81       ; "<MELEE_SWING>"
fail op	8
0BA6  48068006           [0456] setupval   25  13     
0BAA  1A400080           [0457] jmp        2            ; to [460]
0BAE  59861400           [0458] loadk      25  82       ; "<MELEE>"
fail op	8
0BB2  48068006           [0459] setupval   25  13     
0BB6  5DC60500           [0460] getglobal  25  23       ; string
0BBA  4EC6D40C           [0461] gettable   25  25  339  ; 1664893510
0BBE  9206800B           [0462] move       26  23     
0BC2  D3068006           [0463] getupval   27  13     
0BC6  19071500           [0464] loadk      28  84       ; " "
0BCA  C206870D           [0465] concat     27  27  28 
0BCE  19470300           [0466] loadk      28  13       ; ""
0BD2  62860002           [0467] call       25  4   2  
0BD6  D205800C           [0468] move       23  25     
0BDA  5DC60500           [0469] getglobal  25  23       ; string
0BDE  4EC6D40C           [0470] gettable   25  25  339  ; 1664893510
0BE2  9206800B           [0471] move       26  23     
0BE6  D3068006           [0472] getupval   27  13     
0BEA  19470300           [0473] loadk      28  13       ; ""
0BEE  62860002           [0474] call       25  4   2  
0BF2  D205800C           [0475] move       23  25     
0BF6  5D460000           [0476] getglobal  25  1        ; mMovie
0BFA  6446D50C           [0477] self       25  25  341  ; 386043535
0BFE  D9861500           [0478] loadk      27  86       ; "Marker.Callout.text"
0C02  13078006           [0479] getupval   28  13     
0C06  62460002           [0480] call       25  4   1  
0C0A  5D460000           [0481] getglobal  25  1        ; mMovie
0C0E  6446D50C           [0482] self       25  25  341  ; 386043535
0C12  D9C61500           [0483] loadk      27  87       ; "Marker.CalloutMiddle.text"
0C16  13078006           [0484] getupval   28  13     
0C1A  62460002           [0485] call       25  4   1  
0C1E  5D460000           [0486] getglobal  25  1        ; mMovie
0C22  6406D60C           [0487] self       25  25  344  ; -693657623
0C26  D9C60E00           [0488] loadk      27  59       ; "Marker.Instruction"
0C2A  19471600           [0489] loadk      28  89       ; "text"
0C2E  5207800B           [0490] move       29  23     
0C32  62468002           [0491] call       25  5   1  
0C36  5D460000           [0492] getglobal  25  1        ; mMovie
0C3A  6406D60C           [0493] self       25  25  344  ; -693657623
0C3E  D9861600           [0494] loadk      27  90       ; "Marker.InstructionMiddle"
0C42  19471600           [0495] loadk      28  89       ; "text"
0C46  5207800B           [0496] move       29  23     
0C4A  62468002           [0497] call       25  5   1  
0C4E  5DC61600           [0498] getglobal  25  91       ; -174740002
0C52  9D460000           [0499] getglobal  26  1        ; mMovie
0C56  A406570D           [0500] self       26  26  348  ; 1803241227
0C5A  19C70E00           [0501] loadk      28  59       ; "Marker.Instruction"
0C5E  59471700           [0502] loadk      29  93       ; "textWidth"
0C62  A2060002           [0503] call       26  4   0  
0C66  62860000           [0504] call       25  0   2  
0C6A  9DC61600           [0505] getglobal  26  91       ; -174740002
0C6E  DD460000           [0506] getglobal  27  1        ; mMovie
0C72  E406D70D           [0507] self       27  27  348  ; 1803241227
0C76  59C70E00           [0508] loadk      29  59       ; "Marker.Instruction"
0C7A  99871700           [0509] loadk      30  94       ; "_xscale"
0C7E  E2060002           [0510] call       27  4   0  
0C82  A2860000           [0511] call       26  0   2  
0C86  9CC6510D           [0512] div        26  26  327  ; 0
0C8A  4486860C           [0513] mul        25  25  26 
fail op	35
0C8E  2300D50B           [0514] close      0  
0C92  1A000080           [0515] jmp        1            ; to [517]
0C96  4DC6D70C           [0516] sub        25  25  351  ; 0
0C9A  9D861000           [0517] getglobal  26  66       ; 1390508688
0C9E  DD460000           [0518] getglobal  27  1        ; mMovie
0CA2  19C70E00           [0519] loadk      28  59       ; "Marker.Instruction"
0CA6  5DC71000           [0520] getglobal  29  67       ; UISys
0CAA  4E07D80E           [0521] gettable   29  29  352  ; "FlashInstance_EASE_OUT"
0CAE  8B078000           [0522] newtable   30  1   0    ; array=1, hash=0
0CB2  D9871100           [0523] loadk      31  70       ; "_alpha"
0CB6  9B478000           [0524] setlist    30  1   1    ; index 1 to 1
0CBA  CB078000           [0525] newtable   31  1   0    ; array=1, hash=0
0CBE  19C81100           [0526] loadk      32  71       ; 0
0CC2  DB478000           [0527] setlist    31  1   1    ; index 1 to 1
0CC6  19081200           [0528] loadk      32  72       ; -102
0CCA  59481800           [0529] loadk      33  97       ; 41
0CCE  A2460004           [0530] call       26  8   1  
0CD2  9D861000           [0531] getglobal  26  66       ; 1390508688
0CD6  DD460000           [0532] getglobal  27  1        ; mMovie
0CDA  19871800           [0533] loadk      28  98       ; "Marker.Panel"
0CDE  5DC71000           [0534] getglobal  29  67       ; UISys
0CE2  4E07D80E           [0535] gettable   29  29  352  ; "FlashInstance_EASE_OUT"
0CE6  8B078000           [0536] newtable   30  1   0    ; array=1, hash=0
0CEA  D9871100           [0537] loadk      31  70       ; "_alpha"
0CEE  9B478000           [0538] setlist    30  1   1    ; index 1 to 1
0CF2  CB078000           [0539] newtable   31  1   0    ; array=1, hash=0
0CF6  19C81100           [0540] loadk      32  71       ; 0
0CFA  DB478000           [0541] setlist    31  1   1    ; index 1 to 1
0CFE  19081200           [0542] loadk      32  72       ; -102
0D02  59481800           [0543] loadk      33  97       ; 41
0D06  A2460004           [0544] call       26  8   1  
0D0A  9D861000           [0545] getglobal  26  66       ; 1390508688
0D0E  DD460000           [0546] getglobal  27  1        ; mMovie
0D12  19871600           [0547] loadk      28  90       ; "Marker.InstructionMiddle"
0D16  5DC71000           [0548] getglobal  29  67       ; UISys
0D1A  4E07D80E           [0549] gettable   29  29  352  ; "FlashInstance_EASE_OUT"
0D1E  8B078000           [0550] newtable   30  1   0    ; array=1, hash=0
0D22  D9871100           [0551] loadk      31  70       ; "_alpha"
0D26  9B478000           [0552] setlist    30  1   1    ; index 1 to 1
0D2A  CB078000           [0553] newtable   31  1   0    ; array=1, hash=0
0D2E  19C81800           [0554] loadk      32  99       ; 0
0D32  DB478000           [0555] setlist    31  1   1    ; index 1 to 1
0D36  19081200           [0556] loadk      32  72       ; -102
0D3A  59481800           [0557] loadk      33  97       ; 41
0D3E  A2460004           [0558] call       26  8   1  
0D42  93060005           [0559] getupval   26  10     
0D46  98060000           [0560] test       26      0    ; to [562] if true
0D4A  1A400380           [0561] jmp        14           ; to [576]
0D4E  9D861000           [0562] getglobal  26  66       ; 1390508688
0D52  DD460000           [0563] getglobal  27  1        ; mMovie
0D56  19071900           [0564] loadk      28  100      ; "Marker.Circle"
0D5A  5DC71000           [0565] getglobal  29  67       ; UISys
0D5E  4E07D80E           [0566] gettable   29  29  352  ; "FlashInstance_EASE_OUT"
0D62  8B078000           [0567] newtable   30  1   0    ; array=1, hash=0
0D66  D9871100           [0568] loadk      31  70       ; "_alpha"
0D6A  9B478000           [0569] setlist    30  1   1    ; index 1 to 1
0D6E  CB078000           [0570] newtable   31  1   0    ; array=1, hash=0
0D72  19C81100           [0571] loadk      32  71       ; 0
0D76  DB478000           [0572] setlist    31  1   1    ; index 1 to 1
0D7A  19081200           [0573] loadk      32  72       ; -102
0D7E  59481800           [0574] loadk      33  97       ; 41
0D82  A2460004           [0575] call       26  8   1  
0D86  9D461000           [0576] getglobal  26  65       ; 1672515847
0D8A  D2060006           [0577] move       27  12     
0D8E  A2060101           [0578] call       26  2   4  
0D92  1A000480           [0579] jmp        17           ; to [597]
0D96  DD871000           [0580] getglobal  31  66       ; 1390508688
0D9A  1D480000           [0581] getglobal  32  1        ; mMovie
0D9E  59481900           [0582] loadk      33  101      ; "Marker.Panel."
0DA2  9208000F           [0583] move       34  30     
0DA6  D9881900           [0584] loadk      35  102      ; ".RightSide"
0DAA  42C88810           [0585] concat     33  33  35 
0DAE  9DC81000           [0586] getglobal  34  67       ; UISys
0DB2  8E085811           [0587] gettable   34  34  352  ; "FlashInstance_EASE_OUT"
0DB6  CB088000           [0588] newtable   35  1   0    ; array=1, hash=0
0DBA  19C91900           [0589] loadk      36  103      ; "_width"
0DBE  DB488000           [0590] setlist    35  1   1    ; index 1 to 1
0DC2  0B098000           [0591] newtable   36  1   0    ; array=1, hash=0
0DC6  4309DA0C           [0592] add        37  25  360  ; 0
0DCA  1B498000           [0593] setlist    36  1   1    ; index 1 to 1
0DCE  59091200           [0594] loadk      37  72       ; -102
0DD2  99491800           [0595] loadk      38  97       ; 41
0DD6  E2470004           [0596] call       31  8   1  
0DDA  96860000           [0597] tforloop   26      2    ; to [599] if exit
0DDE  1A00FB7F           [0598] jmp        -19          ; to [580]
0DE2  D3070007           [0599] getupval   31  14     
0DE6  E2478000           [0600] call       31  1   1  
0DEA  DD070000           [0601] getglobal  31  0        ; 1074689893
0DEE  1D481A00           [0602] getglobal  32  105      ; markerFx
0DF2  E2870001           [0603] call       31  2   2  
0DF6  D8470000           [0604] test       31      1    ; to [606] if false
0DFA  1AC01280           [0605] jmp        76           ; to [682]
0DFE  DD070000           [0606] getglobal  31  0        ; 1074689893
0E02  13088001           [0607] getupval   32  3      
0E06  E2870001           [0608] call       31  2   2  
0E0A  D8470000           [0609] test       31      1    ; to [611] if false
0E0E  1A801180           [0610] jmp        71           ; to [682]
0E12  DD070000           [0611] getglobal  31  0        ; 1074689893
0E16  13088001           [0612] getupval   32  3      
0E1A  24885A10           [0613] self       32  32  362  ; 1525877273
0E1E  22080001           [0614] call       32  2   0  
0E22  E2870000           [0615] call       31  0   2  
0E26  D8470000           [0616] test       31      1    ; to [618] if false
0E2A  1AC00F80           [0617] jmp        64           ; to [682]
0E2E  DD070000           [0618] getglobal  31  0        ; 1074689893
0E32  13080003           [0619] getupval   32  6      
0E36  E2870001           [0620] call       31  2   2  
0E3A  D8470000           [0621] test       31      1    ; to [623] if false
0E3E  1A800E80           [0622] jmp        59           ; to [682]
0E42  D3078004           [0623] getupval   31  9      
0E46  CEC7DA0F           [0624] gettable   31  31  363  ; 110860349
0E4A  1D480000           [0625] getglobal  32  1        ; mMovie
0E4E  59081B00           [0626] loadk      33  108      ; "Marker"
0E52  E2C78001           [0627] call       31  3   3  
0E56  53080003           [0628] getupval   33  6      
0E5A  64C8C710           [0629] self       33  33  287  ; -1957065004
0E5E  DD481B00           [0630] getglobal  35  109      ; gZipLineActionType
0E62  62888001           [0631] call       33  3   2  
0E66  58080000           [0632] test       33      0    ; to [634] if true
0E6A  1AC00480           [0633] jmp        20           ; to [654]
0E6E  53088001           [0634] getupval   33  3      
0E72  6488DB10           [0635] self       33  33  366  ; -1493157159
0E76  62880001           [0636] call       33  2   2  
0E7A  9DC81B00           [0637] getglobal  34  111      ; -1596245111
0E7E  D3088001           [0638] getupval   35  3      
0E82  E488DA11           [0639] self       35  35  362  ; 1525877273
0E86  E2880001           [0640] call       35  2   2  
0E8A  E408DC11           [0641] self       35  35  368  ; -1168753176
0E8E  E2080001           [0642] call       35  2   0  
0E92  A2880000           [0643] call       34  0   2  
0E96  C4485C11           [0644] mul        35  34  369  ; 0
0E9A  C3C88810           [0645] add        35  33  35 
0E9E  13090003           [0646] getupval   36  6      
0EA2  24895C12           [0647] self       36  36  370  ; -231466012
0EA6  92098011           [0648] move       38  35     
0EAA  22898001           [0649] call       36  3   2  
0EAE  4E894A12           [0650] gettable   37  36  298  ; "y"
0EB2  0C490995           [0651] settable   36  298 37   ; "y"
fail op	8
0EB6  08098007           [0652] setupval   36  15     
0EBA  1AC00680           [0653] jmp        28           ; to [682]
0EBE  53090003           [0654] getupval   37  6      
0EC2  64C9DC12           [0655] self       37  37  371  ; 813400067
0EC6  62890001           [0656] call       37  2   2  
0ECA  58090000           [0657] test       37      0    ; to [659] if true
0ECE  1A000480           [0658] jmp        17           ; to [676]
0ED2  53090003           [0659] getupval   37  6      
0ED6  64C9C912           [0660] self       37  37  295  ; -1593774612
0EDA  62890001           [0661] call       37  2   2  
0EDE  93098001           [0662] getupval   38  3      
0EE2  A4895B13           [0663] self       38  38  366  ; -1493157159
0EE6  A2890001           [0664] call       38  2   2  
0EEA  DD091D00           [0665] getglobal  39  116      ; 1287559689
0EEE  120A8012           [0666] move       40  37     
0EF2  530A8001           [0667] getupval   41  3      
0EF6  648ADA14           [0668] self       41  41  362  ; 1525877273
0EFA  628A0001           [0669] call       41  2   2  
0EFE  640ADC14           [0670] self       41  41  368  ; -1168753176
0F02  620A0001           [0671] call       41  2   0  
0F06  E2890000           [0672] call       39  0   2  
0F0A  83C90913           [0673] add        38  38  39 
fail op	8
0F0E  88098007           [0674] setupval   38  15     
0F12  1A400180           [0675] jmp        6            ; to [682]
0F16  9D490000           [0676] getglobal  38  1        ; mMovie
0F1A  A4495D13           [0677] self       38  38  373  ; 777882568
0F1E  120A800F           [0678] move       40  31     
0F22  520A0010           [0679] move       41  32     
0F26  A2890002           [0680] call       38  4   2  
fail op	8
0F2A  88098007           [0681] setupval   38  15     
0F2E  9D490000           [0682] getglobal  38  1        ; mMovie
0F32  A4895D13           [0683] self       38  38  374  ; 471456102
0F36  19CA1D00           [0684] loadk      40  119      ; "Marker.Corona"
0F3A  590A1E00           [0685] loadk      41  120      ; "_visible"
0F3E  930A0005           [0686] getupval   42  10     
0F42  A2498002           [0687] call       38  5   1  
0F46  1A001A80           [0688] jmp        105          ; to [794]
0F4A  9D090000           [0689] getglobal  38  0        ; 1074689893
0F4E  DDC90200           [0690] getglobal  39  11       ; _T
0F52  CE49DE13           [0691] gettable   39  39  377  ; "WeaponPickupDetailMovie"
0F56  A2890001           [0692] call       38  2   2  
0F5A  98490000           [0693] test       38      1    ; to [695] if false
0F5E  1A400180           [0694] jmp        6            ; to [701]
0F62  9DC90200           [0695] getglobal  38  11       ; _T
0F66  8E495E13           [0696] gettable   38  38  377  ; "WeaponPickupDetailMovie"
0F6A  A4895E13           [0697] self       38  38  378  ; -1517569684
0F6E  A2490001           [0698] call       38  2   1  
0F72  9DC90200           [0699] getglobal  38  11       ; _T
0F76  8C09C5BD           [0700] settable   38  379 276  ; "WeaponPickupDetailText" nil
0F7A  9D490000           [0701] getglobal  38  1        ; mMovie
0F7E  A4095613           [0702] self       38  38  344  ; -693657623
0F82  190A0E00           [0703] loadk      40  56       ; "Marker.Callout"
0F86  594A1600           [0704] loadk      41  89       ; "text"
0F8A  994A0300           [0705] loadk      42  13       ; ""
0F8E  A2498002           [0706] call       38  5   1  
0F92  9D490000           [0707] getglobal  38  1        ; mMovie
0F96  A4095613           [0708] self       38  38  344  ; -693657623
0F9A  190A1F00           [0709] loadk      40  124      ; "Marker.CalloutMiddle"
0F9E  594A1600           [0710] loadk      41  89       ; "text"
0FA2  994A0300           [0711] loadk      42  13       ; ""
0FA6  A2498002           [0712] call       38  5   1  
0FAA  9D891000           [0713] getglobal  38  66       ; 1390508688
0FAE  DD490000           [0714] getglobal  39  1        ; mMovie
0FB2  19CA0E00           [0715] loadk      40  59       ; "Marker.Instruction"
0FB6  5DCA1000           [0716] getglobal  41  67       ; UISys
0FBA  4E0AD814           [0717] gettable   41  41  352  ; "FlashInstance_EASE_OUT"
0FBE  8B0A8000           [0718] newtable   42  1   0    ; array=1, hash=0
0FC2  D98A1100           [0719] loadk      43  70       ; "_alpha"
0FC6  9B4A8000           [0720] setlist    42  1   1    ; index 1 to 1
0FCA  CB0A8000           [0721] newtable   43  1   0    ; array=1, hash=0
0FCE  198B0100           [0722] loadk      44  6        ; 0
0FD2  DB4A8000           [0723] setlist    43  1   1    ; index 1 to 1
0FD6  190B1200           [0724] loadk      44  72       ; -102
0FDA  598B0100           [0725] loadk      45  6        ; 0
0FDE  A50B0000           [0726] closure    46  0      
0FE2  A2498004           [0727] call       38  9   1  
0FE6  9D891000           [0728] getglobal  38  66       ; 1390508688
0FEA  DD490000           [0729] getglobal  39  1        ; mMovie
0FEE  198A1600           [0730] loadk      40  90       ; "Marker.InstructionMiddle"
0FF2  5DCA1000           [0731] getglobal  41  67       ; UISys
0FF6  4E0AD814           [0732] gettable   41  41  352  ; "FlashInstance_EASE_OUT"
0FFA  8B0A8000           [0733] newtable   42  1   0    ; array=1, hash=0
0FFE  D98A1100           [0734] loadk      43  70       ; "_alpha"
1002  9B4A8000           [0735] setlist    42  1   1    ; index 1 to 1
1006  CB0A8000           [0736] newtable   43  1   0    ; array=1, hash=0
100A  198B0100           [0737] loadk      44  6        ; 0
100E  DB4A8000           [0738] setlist    43  1   1    ; index 1 to 1
1012  190B1200           [0739] loadk      44  72       ; -102
1016  A2498003           [0740] call       38  7   1  
101A  9D891000           [0741] getglobal  38  66       ; 1390508688
101E  DD490000           [0742] getglobal  39  1        ; mMovie
1022  190A1900           [0743] loadk      40  100      ; "Marker.Circle"
1026  5DCA1000           [0744] getglobal  41  67       ; UISys
102A  4E0AD814           [0745] gettable   41  41  352  ; "FlashInstance_EASE_OUT"
102E  8B0A8000           [0746] newtable   42  1   0    ; array=1, hash=0
1032  D98A1100           [0747] loadk      43  70       ; "_alpha"
1036  9B4A8000           [0748] setlist    42  1   1    ; index 1 to 1
103A  CB0A8000           [0749] newtable   43  1   0    ; array=1, hash=0
103E  198B0100           [0750] loadk      44  6        ; 0
1042  DB4A8000           [0751] setlist    43  1   1    ; index 1 to 1
1046  190B1200           [0752] loadk      44  72       ; -102
104A  594B1800           [0753] loadk      45  97       ; 41
104E  A2490004           [0754] call       38  8   1  
1052  9D891000           [0755] getglobal  38  66       ; 1390508688
1056  DD490000           [0756] getglobal  39  1        ; mMovie
105A  198A1800           [0757] loadk      40  98       ; "Marker.Panel"
105E  5DCA1000           [0758] getglobal  41  67       ; UISys
1062  4E0AD814           [0759] gettable   41  41  352  ; "FlashInstance_EASE_OUT"
1066  8B0A8000           [0760] newtable   42  1   0    ; array=1, hash=0
106A  D98A1100           [0761] loadk      43  70       ; "_alpha"
106E  9B4A8000           [0762] setlist    42  1   1    ; index 1 to 1
1072  CB0A8000           [0763] newtable   43  1   0    ; array=1, hash=0
1076  198B0100           [0764] loadk      44  6        ; 0
107A  DB4A8000           [0765] setlist    43  1   1    ; index 1 to 1
107E  190B1200           [0766] loadk      44  72       ; -102
1082  594B1800           [0767] loadk      45  97       ; 41
1086  A2490004           [0768] call       38  8   1  
108A  9D491000           [0769] getglobal  38  65       ; 1672515847
108E  D2090006           [0770] move       39  12     
1092  A2090101           [0771] call       38  2   4  
1096  1A000480           [0772] jmp        17           ; to [790]
109A  DD8A1000           [0773] getglobal  43  66       ; 1390508688
109E  1D4B0000           [0774] getglobal  44  1        ; mMovie
10A2  594B1900           [0775] loadk      45  101      ; "Marker.Panel."
10A6  920B0015           [0776] move       46  42     
10AA  D98B1900           [0777] loadk      47  102      ; ".RightSide"
10AE  42CB8B16           [0778] concat     45  45  47 
10B2  9DCB1000           [0779] getglobal  46  67       ; UISys
10B6  8E0B5817           [0780] gettable   46  46  352  ; "FlashInstance_EASE_OUT"
10BA  CB0B8000           [0781] newtable   47  1   0    ; array=1, hash=0
10BE  19CC1900           [0782] loadk      48  103      ; "_width"
10C2  DB4B8000           [0783] setlist    47  1   1    ; index 1 to 1
10C6  0B0C8000           [0784] newtable   48  1   0    ; array=1, hash=0
10CA  59CC1100           [0785] loadk      49  71       ; 0
10CE  1B4C8000           [0786] setlist    48  1   1    ; index 1 to 1
10D2  590C1200           [0787] loadk      49  72       ; -102
10D6  994C1800           [0788] loadk      50  97       ; 41
10DA  E24A0004           [0789] call       43  8   1  
10DE  96890000           [0790] tforloop   38      2    ; to [792] if exit
10E2  1A00FB7F           [0791] jmp        -19          ; to [773]
10E6  D30A0007           [0792] getupval   43  14     
10EA  E24A8000           [0793] call       43  1   1  
10EE  DD0A0000           [0794] getglobal  43  0        ; 1074689893
10F2  130B0003           [0795] getupval   44  6      
10F6  E28A0001           [0796] call       43  2   2  
10FA  D84A0000           [0797] test       43      1    ; to [799] if false
10FE  1AC01980           [0798] jmp        104          ; to [903]
1102  C60A8015           [0799] loadnil    43  43     
1106  1D0B0000           [0800] getglobal  44  0        ; 1074689893
110A  530B8000           [0801] getupval   45  1      
110E  228B0001           [0802] call       44  2   2  
1112  184B0000           [0803] test       44      1    ; to [805] if false
1116  1AC00980           [0804] jmp        40           ; to [845]
111A  130B0003           [0805] getupval   44  6      
111E  24CB4716           [0806] self       44  44  287  ; -1957065004
1122  9D4B1B00           [0807] getglobal  46  109      ; gZipLineActionType
1126  228B8001           [0808] call       44  3   2  
112A  180B0000           [0809] test       44      0    ; to [811] if true
112E  1A400880           [0810] jmp        34           ; to [845]
1132  1D0B0000           [0811] getglobal  44  0        ; 1074689893
1136  530B8001           [0812] getupval   45  3      
113A  228B0001           [0813] call       44  2   2  
113E  184B0000           [0814] test       44      1    ; to [816] if false
1142  1A000F80           [0815] jmp        61           ; to [877]
1146  1D0B0000           [0816] getglobal  44  0        ; 1074689893
114A  530B8001           [0817] getupval   45  3      
114E  648BDA16           [0818] self       45  45  362  ; 1525877273
1152  620B0001           [0819] call       45  2   0  
1156  228B0000           [0820] call       44  0   2  
115A  184B0000           [0821] test       44      1    ; to [823] if false
115E  1A400D80           [0822] jmp        54           ; to [877]
1162  130B8001           [0823] getupval   44  3      
1166  248B5B16           [0824] self       44  44  366  ; -1493157159
116A  228B0001           [0825] call       44  2   2  
116E  5DCB1B00           [0826] getglobal  45  111      ; -1596245111
1172  930B8001           [0827] getupval   46  3      
1176  A48B5A17           [0828] self       46  46  362  ; 1525877273
117A  A28B0001           [0829] call       46  2   2  
117E  A40B5C17           [0830] self       46  46  368  ; -1168753176
1182  A20B0001           [0831] call       46  2   0  
1186  628B0000           [0832] call       45  0   2  
118A  844BDC16           [0833] mul        46  45  369  ; 0
118E  838B0B16           [0834] add        46  44  46 
1192  D30B0003           [0835] getupval   47  6      
1196  E48BDC17           [0836] self       47  47  370  ; -231466012
119A  520C0017           [0837] move       49  46     
119E  994C1F00           [0838] loadk      50  125      ; 0
11A2  E28B0002           [0839] call       47  4   2  
11A6  D20A8017           [0840] move       43  47     
11AA  CE8BCA15           [0841] gettable   47  43  298  ; "y"
11AE  CD8BDF17           [0842] sub        47  47  382  ; -51
11B2  CCCA0B95           [0843] settable   43  298 47   ; "y"
11B6  1AC00780           [0844] jmp        32           ; to [877]
11BA  DD0B0000           [0845] getglobal  47  0        ; 1074689893
11BE  130C8001           [0846] getupval   48  3      
11C2  E28B0001           [0847] call       47  2   2  
11C6  D84B0000           [0848] test       47      1    ; to [850] if false
11CA  1A800680           [0849] jmp        27           ; to [877]
11CE  D30B0003           [0850] getupval   47  6      
11D2  E4CBDC17           [0851] self       47  47  371  ; 813400067
11D6  E28B0001           [0852] call       47  2   2  
11DA  D80B0000           [0853] test       47      0    ; to [855] if true
11DE  1A400580           [0854] jmp        22           ; to [877]
11E2  DD0B0000           [0855] getglobal  47  0        ; 1074689893
11E6  130C8001           [0856] getupval   48  3      
11EA  248C5A18           [0857] self       48  48  362  ; 1525877273
11EE  220C0001           [0858] call       48  2   0  
11F2  E28B0000           [0859] call       47  0   2  
11F6  D84B0000           [0860] test       47      1    ; to [862] if false
11FA  1A800380           [0861] jmp        15           ; to [877]
11FE  D30B0003           [0862] getupval   47  6      
1202  E4CBC917           [0863] self       47  47  295  ; -1593774612
1206  E28B0001           [0864] call       47  2   2  
120A  130C8001           [0865] getupval   48  3      
120E  248C5B18           [0866] self       48  48  366  ; -1493157159
1212  228C0001           [0867] call       48  2   2  
1216  5D0C1D00           [0868] getglobal  49  116      ; 1287559689
121A  920C8017           [0869] move       50  47     
121E  D30C8001           [0870] getupval   51  3      
1222  E48CDA19           [0871] self       51  51  362  ; 1525877273
1226  E28C0001           [0872] call       51  2   2  
122A  E40CDC19           [0873] self       51  51  368  ; -1168753176
122E  E20C0001           [0874] call       51  2   0  
1232  628C0000           [0875] call       49  0   2  
1236  C34A0C18           [0876] add        43  48  49 
123A  D80A0000           [0877] test       43      0    ; to [879] if true
123E  1AC00580           [0878] jmp        24           ; to [903]
1242  130C0003           [0879] getupval   48  6      
1246  24CC5F18           [0880] self       48  48  383  ; -1663490625
124A  920C8015           [0881] move       50  43     
124E  228C8001           [0882] call       48  3   2  
1252  530C0003           [0883] getupval   49  6      
1256  640CCA18           [0884] self       49  49  296  ; -1151429441
125A  628C0001           [0885] call       49  2   2  
125E  8E4C4A18           [0886] gettable   50  48  297  ; "x"
1262  CE4CCA18           [0887] gettable   51  49  297  ; "x"
1266  9CCC0C19           [0888] div        50  50  51 
126A  0C8C8C94           [0889] settable   48  297 50   ; "x"
126E  8E8C4A18           [0890] gettable   50  48  298  ; "y"
1272  CE8CCA18           [0891] gettable   51  49  298  ; "y"
1276  9CCC0C19           [0892] div        50  50  51 
127A  0C8C0C95           [0893] settable   48  298 50   ; "y"
127E  8ECC4A18           [0894] gettable   50  48  299  ; "z"
1282  CECCCA18           [0895] gettable   51  49  299  ; "z"
1286  9CCC0C19           [0896] div        50  50  51 
128A  0C8C8C95           [0897] settable   48  299 50   ; "z"
128E  9D4C0000           [0898] getglobal  50  1        ; mMovie
1292  A40C6019           [0899] self       50  50  384  ; -1021299408
1296  120D0018           [0900] move       52  48     
129A  A24C8001           [0901] call       50  3   1  
fail op	8
129E  C80A8007           [0902] setupval   43  15     
12A2  9D0C0000           [0903] getglobal  50  0        ; 1074689893
12A6  D30C0003           [0904] getupval   51  6      
12AA  A28C0001           [0905] call       50  2   2  
12AE  984C0000           [0906] test       50      1    ; to [908] if false
12B2  1A000980           [0907] jmp        37           ; to [945]
12B6  9D0C0000           [0908] getglobal  50  0        ; 1074689893
12BA  D30C8000           [0909] getupval   51  1      
12BE  A28C0001           [0910] call       50  2   2  
12C2  984C0000           [0911] test       50      1    ; to [913] if false
12C6  1AC00780           [0912] jmp        32           ; to [945]
12CA  9D0C0000           [0913] getglobal  50  0        ; 1074689893
12CE  D30C8001           [0914] getupval   51  3      
12D2  A28C0001           [0915] call       50  2   2  
12D6  984C0000           [0916] test       50      1    ; to [918] if false
12DA  1A800680           [0917] jmp        27           ; to [945]
12DE  930C8001           [0918] getupval   50  3      
12E2  A44C6019           [0919] self       50  50  385  ; -214694299
12E6  1D8D1300           [0920] getglobal  52  78       ; Engine
12EA  0E8D601A           [0921] gettable   52  52  386  ; "PM_AIM"
12EE  A28C8001           [0922] call       50  3   2  
12F2  D30C0008           [0923] getupval   51  16     
fail op	35
12F6  63808C19           [0924] close      1  
12FA  1A800480           [0925] jmp        19           ; to [945]
fail op	8
12FE  880C0008           [0926] setupval   50  16     
1302  DD8C1000           [0927] getglobal  51  66       ; 1390508688
1306  1D4D0000           [0928] getglobal  52  1        ; mMovie
130A  59CD2000           [0929] loadk      53  131      ; "_root"
130E  9DCD1000           [0930] getglobal  54  67       ; UISys
1312  8E0D581B           [0931] gettable   54  54  352  ; "FlashInstance_EASE_OUT"
1316  CB0D8000           [0932] newtable   55  1   0    ; array=1, hash=0
131A  198E1100           [0933] loadk      56  70       ; "_alpha"
131E  DB4D8000           [0934] setlist    55  1   1    ; index 1 to 1
1322  0B0E0000           [0935] newtable   56  0   0    ; array=0, hash=0
1326  530E8004           [0936] getupval   57  9      
132A  4E4ECE1C           [0937] gettable   57  57  313  ; -132701534
132E  930E0008           [0938] getupval   58  16     
1332  D90E2100           [0939] loadk      59  132      ; 0
1336  19CF1100           [0940] loadk      60  71       ; 0
133A  620E0002           [0941] call       57  4   0  
133E  1B4E0000           [0942] setlist    56  0   1    ; index 1 to top
1342  590E1200           [0943] loadk      57  72       ; -102
1346  E24C8003           [0944] call       51  7   1  
134A  D30C0004           [0945] getupval   51  8      
134E  D80C0000           [0946] test       51      0    ; to [948] if true
1352  1A801F80           [0947] jmp        127          ; to [1075]
1356  D30C8000           [0948] getupval   51  1      
135A  E48CDA19           [0949] self       51  51  362  ; 1525877273
135E  E28C0001           [0950] call       51  2   2  
1362  1D0D0000           [0951] getglobal  52  0        ; 1074689893
1366  520D8019           [0952] move       53  51     
136A  228D0001           [0953] call       52  2   2  
136E  184D0000           [0954] test       52      1    ; to [956] if false
1372  1A402480           [0955] jmp        146          ; to [1102]
1376  1D4D0000           [0956] getglobal  52  1        ; mMovie
137A  244D611A           [0957] self       52  52  389  ; 542959260
137E  228D0001           [0958] call       52  2   2  
1382  648DE119           [0959] self       53  51  390  ; 506169391
1386  628D0001           [0960] call       53  2   2  
138A  9D4D0000           [0961] getglobal  54  1        ; mMovie
138E  A4CD611B           [0962] self       54  54  391  ; 1800421277
1392  A28D0001           [0963] call       54  2   2  
1396  D30D8004           [0964] getupval   55  9      
139A  CE4DCE1B           [0965] gettable   55  55  313  ; -132701534
139E  1D0E0000           [0966] getglobal  56  0        ; 1074689893
13A2  530E0003           [0967] getupval   57  6      
13A6  228E0001           [0968] call       56  2   2  
fail op	9
13AA  090E001C           [0969] settable   56  56  0  
13AE  530E0003           [0970] getupval   57  6      
13B2  640EE21C           [0971] self       57  57  392  ; -413628875
13B6  628E0001           [0972] call       57  2   2  
13BA  998E0100           [0973] loadk      58  6        ; 0
13BE  E28D0002           [0974] call       55  4   2  
fail op	21
13C2  15C00D83           [0975] concat     0   262 55 
13C6  1A000C80           [0976] jmp        49           ; to [1026]
13CA  1D0E0000           [0977] getglobal  56  0        ; 1074689893
13CE  520E001B           [0978] move       57  54     
13D2  228E0001           [0979] call       56  2   2  
13D6  184E0000           [0980] test       56      1    ; to [982] if false
13DA  1AC00A80           [0981] jmp        44           ; to [1026]
13DE  248E4D1B           [0982] self       56  54  310  ; 1839670529
13E2  228E0001           [0983] call       56  2   2  
13E6  0D0E8E1A           [0984] sub        56  53  56 
13EA  0C8E4195           [0985] settable   56  298 262  ; "y" 0
13EE  5D4E2200           [0986] getglobal  57  137      ; 1166235580
13F2  920E001C           [0987] move       58  56     
13F6  624E0001           [0988] call       57  2   1  
13FA  04CE0D1C           [0989] mul        56  56  55 
13FE  648E621B           [0990] self       57  54  394  ; 54877834
1402  628E0001           [0991] call       57  2   2  
1406  9D0E1D00           [0992] getglobal  58  116      ; 1287559689
140A  D20E001C           [0993] move       59  56     
140E  1DCF2200           [0994] getglobal  60  139      ; 508519041
1412  4E0FE31C           [0995] gettable   61  57  396  ; "heading"
fail op	0
1416  400F801E           [0996] move       61  61     
141A  8E4FE31C           [0997] gettable   62  57  397  ; "pitch"
fail op	0
141E  800F001F           [0998] move       62  62     
1422  CE8FE31C           [0999] gettable   63  57  398  ; "bank"
fail op	0
1426  C00F801F           [1000] move       63  63     
142A  220F0002           [1001] call       60  4   0  
142E  A28E0000           [1002] call       58  0   2  
1432  D30E0003           [1003] getupval   59  6      
1436  E4CEC91D           [1004] self       59  59  295  ; -1593774612
143A  E28E0001           [1005] call       59  2   2  
143E  C3CE0E1D           [1006] add        59  58  59 
1442  1D4F0000           [1007] getglobal  60  1        ; mMovie
1446  240F601E           [1008] self       60  60  384  ; -1021299408
144A  920F801D           [1009] move       62  59     
144E  224F8001           [1010] call       60  3   1  
1452  1D0F0000           [1011] getglobal  60  0        ; 1074689893
1456  530F8007           [1012] getupval   61  15     
145A  228F0001           [1013] call       60  2   2  
145E  184F0000           [1014] test       60      1    ; to [1016] if false
1462  1A400680           [1015] jmp        26           ; to [1042]
1466  130F0003           [1016] getupval   60  6      
146A  248F4D1E           [1017] self       60  60  310  ; 1839670529
146E  228F0001           [1018] call       60  2   2  
1472  030F0E1E           [1019] add        60  60  56 
1476  530F0003           [1020] getupval   61  6      
147A  64CFC91E           [1021] self       61  61  295  ; -1593774612
147E  628F0001           [1022] call       61  2   2  
1482  034F0F1E           [1023] add        60  60  61 
fail op	8
1486  080F8007           [1024] setupval   60  15     
148A  1AC00380           [1025] jmp        16           ; to [1042]
148E  1D0F0000           [1026] getglobal  60  0        ; 1074689893
1492  530F8007           [1027] getupval   61  15     
1496  228F0001           [1028] call       60  2   2  
149A  184F0000           [1029] test       60      1    ; to [1031] if false
149E  1A800280           [1030] jmp        11           ; to [1042]
14A2  130F8004           [1031] getupval   60  9      
14A6  0ECF5A1E           [1032] gettable   60  60  363  ; 110860349
14AA  5D4F0000           [1033] getglobal  61  1        ; mMovie
14AE  990F1B00           [1034] loadk      62  108      ; "Marker"
14B2  22CF8001           [1035] call       60  3   3  
14B6  9D4F0000           [1036] getglobal  62  1        ; mMovie
14BA  A44F5D1F           [1037] self       62  62  373  ; 777882568
14BE  1210001E           [1038] move       64  60     
14C2  5210801E           [1039] move       65  61     
14C6  A28F0002           [1040] call       62  4   2  
fail op	8
14CA  880F8007           [1041] setupval   62  15     
14CE  9D4F0000           [1042] getglobal  62  1        ; mMovie
14D2  A4CF631F           [1043] self       62  62  399  ; 296304951
14D6  A28F0001           [1044] call       62  2   2  
14DA  DD4F0000           [1045] getglobal  63  1        ; mMovie
14DE  E44FE11F           [1046] self       63  63  389  ; 542959260
14E2  E28F0001           [1047] call       63  2   2  
14E6  120D801F           [1048] move       52  63     
14EA  CD0F8D1A           [1049] sub        63  53  52 
14EE  CC8F4195           [1050] settable   63  298 262  ; "y" 0
14F2  1D502200           [1051] getglobal  64  137      ; 1166235580
14F6  5210801F           [1052] move       65  63     
14FA  22500001           [1053] call       64  2   1  
14FE  1D102400           [1054] getglobal  64  144      ; math
1502  0E506420           [1055] gettable   64  64  401  ; 1063477592
1506  4ED0CA1F           [1056] gettable   65  63  299  ; "z"
150A  8E50CA1F           [1057] gettable   66  63  297  ; "x"
150E  22908001           [1058] call       64  3   2  
1512  53108004           [1059] getupval   65  9      
1516  4E90E420           [1060] gettable   65  65  402  ; -1075800375
151A  92100020           [1061] move       66  64     
151E  62900001           [1062] call       65  2   2  
1522  92108020           [1063] move       66  65     
1526  C3D06421           [1064] add        67  66  403  ; 0
152A  0E11631F           [1065] gettable   68  62  396  ; "heading"
152E  83109121           [1066] add        66  67  68 
1532  8D9010CA           [1067] sub        66  404 66   ; 0
1536  DD500000           [1068] getglobal  67  1        ; mMovie
153A  E490DD21           [1069] self       67  67  374  ; 471456102
153E  59111B00           [1070] loadk      69  108      ; "Marker"
1542  99512500           [1071] loadk      70  149      ; "_heading"
1546  DF116521           [1072] mod        71  66  404  ; 0
154A  E2508002           [1073] call       67  5   1  
154E  1A800680           [1074] jmp        27           ; to [1102]
1552  DD100000           [1075] getglobal  67  0        ; 1074689893
1556  13118007           [1076] getupval   68  15     
155A  E2900001           [1077] call       67  2   2  
155E  D8500000           [1078] test       67      1    ; to [1080] if false
1562  1A800280           [1079] jmp        11           ; to [1091]
1566  D3108004           [1080] getupval   67  9      
156A  CED0DA21           [1081] gettable   67  67  363  ; 110860349
156E  1D510000           [1082] getglobal  68  1        ; mMovie
1572  59111B00           [1083] loadk      69  108      ; "Marker"
1576  E2D08001           [1084] call       67  3   3  
157A  5D510000           [1085] getglobal  69  1        ; mMovie
157E  6451DD22           [1086] self       69  69  373  ; 777882568
1582  D2118021           [1087] move       71  67     
1586  12120022           [1088] move       72  68     
158A  62910002           [1089] call       69  4   2  
fail op	8
158E  48118007           [1090] setupval   69  15     
1592  5D110000           [1091] getglobal  69  0        ; 1074689893
1596  92110001           [1092] move       70  2      
159A  62910001           [1093] call       69  2   2  
159E  58510000           [1094] test       69      1    ; to [1096] if false
15A2  1A400180           [1095] jmp        6            ; to [1102]
15A6  5D510000           [1096] getglobal  69  1        ; mMovie
15AA  6491DD22           [1097] self       69  69  374  ; 471456102
15AE  D9111B00           [1098] loadk      71  108      ; "Marker"
15B2  19522500           [1099] loadk      72  149      ; "_heading"
15B6  59920100           [1100] loadk      73  6        ; 0
15BA  62518002           [1101] call       69  5   1  
15BE  5D110000           [1102] getglobal  69  0        ; 1074689893
15C2  93118007           [1103] getupval   70  15     
15C6  62910001           [1104] call       69  2   2  
15CA  58510000           [1105] test       69      1    ; to [1107] if false
15CE  1A400580           [1106] jmp        22           ; to [1129]
15D2  5D110000           [1107] getglobal  69  0        ; 1074689893
15D6  93118008           [1108] getupval   70  17     
15DA  62910001           [1109] call       69  2   2  
15DE  58110000           [1110] test       69      0    ; to [1112] if true
15E2  1A000380           [1111] jmp        13           ; to [1125]
15E6  53110009           [1112] getupval   69  18     
15EA  58110000           [1113] test       69      0    ; to [1115] if true
15EE  1A400380           [1114] jmp        14           ; to [1129]
15F2  5D910000           [1115] getglobal  69  2        ; gRegion
15F6  6491E522           [1116] self       69  69  406  ; -1110225722
15FA  DD511A00           [1117] getglobal  71  105      ; markerFx
15FE  13128007           [1118] getupval   72  15     
1602  5D520C00           [1119] getglobal  73  49       ; ZERO_ROTATION
1606  62918002           [1120] call       69  5   2  
fail op	8
160A  48118008           [1121] setupval   69  17     
160E  57110000           [1122] loadbool   69  0   0    ; false
fail op	8
1612  48110009           [1123] setupval   69  18     
1616  1AC00080           [1124] jmp        4            ; to [1129]
161A  53118008           [1125] getupval   69  17     
161E  64D1E522           [1126] self       69  69  407  ; -333955620
1622  D3118007           [1127] getupval   71  15     
1626  62518001           [1128] call       69  3   1  
162A  1E008000           [1129] return     0   1      
                         * constants:
162F  01                 sizek (152)
1630  01                 const type 3
1631  65770E40           const [0]: (1074689893)
1635  04                 const type 4
1636  07                 string size (7)
1637  6D4D6F76696500     "mMovie\0"
                         const [1]: "mMovie"
163E  04                 const type 4
163F  08                 string size (8)
1640  67526567696F6E00   "gRegion\0"
                         const [2]: "gRegion"
1648  01                 const type 3
1649  1A6B0D08           const [3]: (135097114)
164D  01                 const type 3
164E  FFF9DE4C           const [4]: (1289681407)
1652  01                 const type 3
1653  BBFFABB3           const [5]: (-1280573509)
1657  03                 const type 3
1658  00000000           const [6]: (0)
165C  03                 const type 3
165D  0000803F           const [7]: (0)
1661  01                 const type 3
1662  8111639A           const [8]: (-1704783487)
1666  01                 const type 3
1667  0344B180           const [9]: (-2135866365)
166B  01                 const type 3
166C  EFCC1A8C           const [10]: (-1944400657)
1670  04                 const type 4
1671  03                 string size (3)
1672  5F5400             "_T\0"
                         const [11]: "_T"
1675  04                 const type 4
1676  0C                 string size (12)
1677  546F704D656E754F+  "TopMenuO"
167F  70656E00           "pen\0"
                         const [12]: "TopMenuOpen"
1683  04                 const type 4
1684  01                 string size (0)
                         const [13]: ""
1686  04                 const type 4
1687  03                 string size (3)
1688  5F4700             "_G\0"
                         const [14]: "_G"
168B  04                 const type 4
168C  0C                 string size (12)
168D  5374616C6B65724D+  "StalkerM"
1695  6F646500           "ode\0"
                         const [15]: "StalkerMode"
1699  04                 const type 4
169A  11                 string size (17)
169B  674D61746368696E+  "gMatchin"
16A3  6753657276696365+  "gService"
16AB  00                 "\0"
                         const [16]: "gMatchingService"
16AC  01                 const type 3
16AD  4636E0D5           const [17]: (-706726330)
16B1  01                 const type 3
16B2  146FB01D           const [18]: (498102036)
16B6  01                 const type 3
16B7  328DF16D           const [19]: (1844546866)
16BB  00                 const type 0
                         const [20]: nil
16BC  01                 const type 3
16BD  944DAD96           const [21]: (-1767027308)
16C1  01                 const type 3
16C2  7D58FC3F           const [22]: (1073502333)
16C6  04                 const type 4
16C7  07                 string size (7)
16C8  737472696E6700     "string\0"
                         const [23]: "string"
16CF  01                 const type 3
16D0  8A2A77C6           const [24]: (-965268854)
16D4  04                 const type 4
16D5  0B                 string size (11)
16D6  466F726567726F75+  "Foregrou"
16DE  6E6400             "nd\0"
                         const [25]: "Foreground"
16E1  04                 const type 4
16E2  07                 string size (7)
16E3  4D6964646C6500     "Middle\0"
                         const [26]: "Middle"
16EA  04                 const type 4
16EB  07                 string size (7)
16EC  536861646F7700     "Shadow\0"
                         const [27]: "Shadow"
16F3  04                 const type 4
16F4  0B                 string size (11)
16F5  4261636B53686164+  "BackShad"
16FD  6F7700             "ow\0"
                         const [28]: "BackShadow"
1700  04                 const type 4
1701  0D                 string size (13)
1702  496E53696D756C61+  "InSimula"
170A  6372756D00         "crum\0"
                         const [29]: "InSimulacrum"
170F  04                 const type 4
1710  0B                 string size (11)
1711  6747616D6552756C+  "gGameRul"
1719  657300             "es\0"
                         const [30]: "gGameRules"
171C  01                 const type 3
171D  D48E598B           const [31]: (-1957065004)
1721  04                 const type 4
1722  1E                 string size (30)
1723  674C6F7475735068+  "gLotusPh"
172B  6F746F426F6F7468+  "otoBooth"
1733  47616D6552756C65+  "GameRule"
173B  735479706500       "sType\0"
                         const [32]: "gLotusPhotoBoothGameRulesType"
1741  04                 const type 4
1742  11                 string size (17)
1743  7265766976654163+  "reviveAc"
174B  74696F6E54797065+  "tionType"
1753  00                 "\0"
                         const [33]: "reviveActionType"
1754  01                 const type 3
1755  E98FE493           const [34]: (-1813737495)
1759  01                 const type 3
175A  0567E793           const [35]: (-1813551355)
175E  04                 const type 4
175F  13                 string size (19)
1760  66696E6973686572+  "finisher"
1768  416374696F6E5479+  "ActionTy"
1770  706500             "pe\0"
                         const [36]: "finisherActionType"
1773  01                 const type 3
1774  4629C6DC           const [37]: (-590993082)
1778  01                 const type 3
1779  3EA5FAD7           const [38]: (-671439554)
177D  01                 const type 3
177E  ECED00A1           const [39]: (-1593774612)
1782  01                 const type 3
1783  BF945EBB           const [40]: (-1151429441)
1787  04                 const type 4
1788  02                 string size (2)
1789  7800               "x\0"
                         const [41]: "x"
178B  04                 const type 4
178C  02                 string size (2)
178D  7900               "y\0"
                         const [42]: "y"
178F  04                 const type 4
1790  02                 string size (2)
1791  7A00               "z\0"
                         const [43]: "z"
1793  04                 const type 4
1794  13                 string size (19)
1795  67436F6E74657874+  "gContext"
179D  416374696F6E5479+  "ActionTy"
17A5  706500             "pe\0"
                         const [44]: "gContextActionType"
17A8  01                 const type 3
17A9  C5F274BC           const [45]: (-1133186363)
17AD  01                 const type 3
17AE  B4E99F61           const [46]: (1637870004)
17B2  01                 const type 3
17B3  2E74AF9D           const [47]: (-1649445842)
17B7  04                 const type 4
17B8  0C                 string size (12)
17B9  5A45524F5F564543+  "ZERO_VEC"
17C1  544F5200           "TOR\0"
                         const [48]: "ZERO_VECTOR"
17C5  04                 const type 4
17C6  0E                 string size (14)
17C7  5A45524F5F524F54+  "ZERO_ROT"
17CF  4154494F4E00       "ATION\0"
                         const [49]: "ZERO_ROTATION"
17D5  01                 const type 3
17D6  00971C22           const [50]: (572299008)
17DA  01                 const type 3
17DB  8C6D1AD4           const [51]: (-736465524)
17DF  01                 const type 3
17E0  94239925           const [52]: (630793108)
17E4  04                 const type 4
17E5  0D                 string size (13)
17E6  6F6E456E74657253+  "onEnterS"
17EE  6F756E6400         "ound\0"
                         const [53]: "onEnterSound"
17F3  01                 const type 3
17F4  0125A76D           const [54]: (1839670529)
17F8  01                 const type 3
17F9  D7261F7E           const [55]: (2115970775)
17FD  04                 const type 4
17FE  0F                 string size (15)
17FF  4D61726B65722E43+  "Marker.C"
1807  616C6C6F757400     "allout\0"
                         const [56]: "Marker.Callout"
180E  01                 const type 3
180F  A22217F8           const [57]: (-132701534)
1813  04                 const type 4
1814  15                 string size (21)
1815  55494D6174657269+  "UIMateri"
181D  616C5F506C61696E+  "al_Plain"
1825  5465787400         "Text\0"
                         const [58]: "UIMaterial_PlainText"
182A  04                 const type 4
182B  13                 string size (19)
182C  4D61726B65722E49+  "Marker.I"
1834  6E73747275637469+  "nstructi"
183C  6F6E00             "on\0"
                         const [59]: "Marker.Instruction"
183F  04                 const type 4
1840  21                 string size (33)
1841  4D61726B65722E50+  "Marker.P"
1849  616E656C2E466F72+  "anel.For"
1851  6567726F756E642E+  "eground."
1859  4C6566744465636F+  "LeftDeco"
1861  00                 "\0"
                         const [60]: "Marker.Panel.Foreground.LeftDeco"
1862  04                 const type 4
1863  11                 string size (17)
1864  55494D6174657269+  "UIMateri"
186C  616C5F506C61696E+  "al_Plain"
1874  00                 "\0"
                         const [61]: "UIMaterial_Plain"
1875  04                 const type 4
1876  22                 string size (34)
1877  4D61726B65722E50+  "Marker.P"
187F  616E656C2E466F72+  "anel.For"
1887  6567726F756E642E+  "eground."
188F  5269676874536964+  "RightSid"
1897  6500               "e\0"
                         const [62]: "Marker.Panel.Foreground.RightSide"
1899  04                 const type 4
189A  15                 string size (21)
189B  55494D6174657269+  "UIMateri"
18A3  616C5F5265637461+  "al_Recta"
18AB  6E676C6500         "ngle\0"
                         const [63]: "UIMaterial_Rectangle"
18B0  04                 const type 4
18B1  1C                 string size (28)
18B2  55494D6174657269+  "UIMateri"
18BA  616C5F5265637461+  "al_Recta"
18C2  6E676C654E6F4465+  "ngleNoDe"
18CA  70746800           "pth\0"
                         const [64]: "UIMaterial_RectangleNoDepth"
18CE  01                 const type 3
18CF  0791B063           const [65]: (1672515847)
18D3  01                 const type 3
18D4  907AE152           const [66]: (1390508688)
18D8  04                 const type 4
18D9  06                 string size (6)
18DA  554953797300       "UISys\0"
                         const [67]: "UISys"
18E0  04                 const type 4
18E1  16                 string size (22)
18E2  466C617368496E73+  "FlashIns"
18EA  74616E63655F4541+  "tance_EA"
18F2  53455F494E00       "SE_IN\0"
                         const [68]: "FlashInstance_EASE_IN"
18F8  04                 const type 4
18F9  03                 string size (3)
18FA  5F7800             "_x\0"
                         const [69]: "_x"
18FD  04                 const type 4
18FE  07                 string size (7)
18FF  5F616C70686100     "_alpha\0"
                         const [70]: "_alpha"
1906  03                 const type 3
1907  0000C842           const [71]: (0)
190B  03                 const type 3
190C  9A99193E           const [72]: (-102)
1910  01                 const type 3
1911  A8915762           const [73]: (1649906088)
1915  01                 const type 3
1916  D40BDB05           const [74]: (98241492)
191A  04                 const type 4
191B  06                 string size (6)
191C  3C5553453E00       "<USE>\0"
                         const [75]: "<USE>"
1922  01                 const type 3
1923  1FD0B58D           const [76]: (-1917464545)
1927  01                 const type 3
1928  8F92A06E           const [77]: (1856017039)
192C  04                 const type 4
192D  07                 string size (7)
192E  456E67696E6500     "Engine\0"
                         const [78]: "Engine"
1935  04                 const type 4
1936  0A                 string size (10)
1937  4D41494E5F48414E+  "MAIN_HAN"
193F  4400               "D\0"
                         const [79]: "MAIN_HAND"
1941  01                 const type 3
1942  9BAFDDCC           const [80]: (-857886821)
1946  04                 const type 4
1947  0E                 string size (14)
1948  3C4D454C45455F53+  "<MELEE_S"
1950  57494E473E00       "WING>\0"
                         const [81]: "<MELEE_SWING>"
1956  04                 const type 4
1957  08                 string size (8)
1958  3C4D454C45453E00   "<MELEE>\0"
                         const [82]: "<MELEE>"
1960  01                 const type 3
1961  46423C63           const [83]: (1664893510)
1965  04                 const type 4
1966  02                 string size (2)
1967  2000               " \0"
                         const [84]: " "
1969  01                 const type 3
196A  8F8E0217           const [85]: (386043535)
196E  04                 const type 4
196F  14                 string size (20)
1970  4D61726B65722E43+  "Marker.C"
1978  616C6C6F75742E74+  "allout.t"
1980  65787400           "ext\0"
                         const [86]: "Marker.Callout.text"
1984  04                 const type 4
1985  1A                 string size (26)
1986  4D61726B65722E43+  "Marker.C"
198E  616C6C6F75744D69+  "alloutMi"
1996  64646C652E746578+  "ddle.tex"
199E  7400               "t\0"
                         const [87]: "Marker.CalloutMiddle.text"
19A0  01                 const type 3
19A1  E99FA7D6           const [88]: (-693657623)
19A5  04                 const type 4
19A6  05                 string size (5)
19A7  7465787400         "text\0"
                         const [89]: "text"
19AC  04                 const type 4
19AD  19                 string size (25)
19AE  4D61726B65722E49+  "Marker.I"
19B6  6E73747275637469+  "nstructi"
19BE  6F6E4D6964646C65+  "onMiddle"
19C6  00                 "\0"
                         const [90]: "Marker.InstructionMiddle"
19C7  01                 const type 3
19C8  DEAD95F5           const [91]: (-174740002)
19CC  01                 const type 3
19CD  0B477B6B           const [92]: (1803241227)
19D1  04                 const type 4
19D2  0A                 string size (10)
19D3  7465787457696474+  "textWidt"
19DB  6800               "h\0"
                         const [93]: "textWidth"
19DD  04                 const type 4
19DE  08                 string size (8)
19DF  5F787363616C6500   "_xscale\0"
                         const [94]: "_xscale"
19E7  03                 const type 3
19E8  00006041           const [95]: (0)
19EC  04                 const type 4
19ED  17                 string size (23)
19EE  466C617368496E73+  "FlashIns"
19F6  74616E63655F4541+  "tance_EA"
19FE  53455F4F555400     "SE_OUT\0"
                         const [96]: "FlashInstance_EASE_OUT"
1A05  03                 const type 3
1A06  295C8F3D           const [97]: (41)
1A0A  04                 const type 4
1A0B  0D                 string size (13)
1A0C  4D61726B65722E50+  "Marker.P"
1A14  616E656C00         "anel\0"
                         const [98]: "Marker.Panel"
1A19  03                 const type 3
1A1A  0000A041           const [99]: (0)
1A1E  04                 const type 4
1A1F  0E                 string size (14)
1A20  4D61726B65722E43+  "Marker.C"
1A28  6972636C6500       "ircle\0"
                         const [100]: "Marker.Circle"
1A2E  04                 const type 4
1A2F  0E                 string size (14)
1A30  4D61726B65722E50+  "Marker.P"
1A38  616E656C2E00       "anel.\0"
                         const [101]: "Marker.Panel."
1A3E  04                 const type 4
1A3F  0B                 string size (11)
1A40  2E52696768745369+  ".RightSi"
1A48  646500             "de\0"
                         const [102]: ".RightSide"
1A4B  04                 const type 4
1A4C  07                 string size (7)
1A4D  5F776964746800     "_width\0"
                         const [103]: "_width"
1A54  03                 const type 3
1A55  00000842           const [104]: (0)
1A59  04                 const type 4
1A5A  09                 string size (9)
1A5B  6D61726B65724678+  "markerFx"
1A63  00                 "\0"
                         const [105]: "markerFx"
1A64  01                 const type 3
1A65  190AF35A           const [106]: (1525877273)
1A69  01                 const type 3
1A6A  3D989B06           const [107]: (110860349)
1A6E  04                 const type 4
1A6F  07                 string size (7)
1A70  4D61726B657200     "Marker\0"
                         const [108]: "Marker"
1A77  04                 const type 4
1A78  13                 string size (19)
1A79  675A69704C696E65+  "gZipLine"
1A81  416374696F6E5479+  "ActionTy"
1A89  706500             "pe\0"
                         const [109]: "gZipLineActionType"
1A8C  01                 const type 3
1A8D  D93A00A7           const [110]: (-1493157159)
1A91  01                 const type 3
1A92  893BDBA0           const [111]: (-1596245111)
1A96  01                 const type 3
1A97  E83D56BA           const [112]: (-1168753176)
1A9B  03                 const type 3
1A9C  0000C03F           const [113]: (0)
1AA0  01                 const type 3
1AA1  E41B34F2           const [114]: (-231466012)
1AA5  01                 const type 3
1AA6  03807B30           const [115]: (813400067)
1AAA  01                 const type 3
1AAB  099ABE4C           const [116]: (1287559689)
1AAF  01                 const type 3
1AB0  C88B5D2E           const [117]: (777882568)
1AB4  01                 const type 3
1AB5  66D9191C           const [118]: (471456102)
1AB9  04                 const type 4
1ABA  0E                 string size (14)
1ABB  4D61726B65722E43+  "Marker.C"
1AC3  6F726F6E6100       "orona\0"
                         const [119]: "Marker.Corona"
1AC9  04                 const type 4
1ACA  09                 string size (9)
1ACB  5F76697369626C65+  "_visible"
1AD3  00                 "\0"
                         const [120]: "_visible"
1AD4  04                 const type 4
1AD5  18                 string size (24)
1AD6  576561706F6E5069+  "WeaponPi"
1ADE  636B757044657461+  "ckupDeta"
1AE6  696C4D6F76696500   "ilMovie\0"
                         const [121]: "WeaponPickupDetailMovie"
1AEE  01                 const type 3
1AEF  6CB98BA5           const [122]: (-1517569684)
1AF3  04                 const type 4
1AF4  17                 string size (23)
1AF5  576561706F6E5069+  "WeaponPi"
1AFD  636B757044657461+  "ckupDeta"
1B05  696C5465787400     "ilText\0"
                         const [123]: "WeaponPickupDetailText"
1B0C  04                 const type 4
1B0D  15                 string size (21)
1B0E  4D61726B65722E43+  "Marker.C"
1B16  616C6C6F75744D69+  "alloutMi"
1B1E  64646C6500         "ddle\0"
                         const [124]: "Marker.CalloutMiddle"
1B23  03                 const type 3
1B24  0000003F           const [125]: (0)
1B28  03                 const type 3
1B29  CDCCCC3D           const [126]: (-51)
1B2D  01                 const type 3
1B2E  BF25D99C           const [127]: (-1663490625)
1B32  01                 const type 3
1B33  303520C3           const [128]: (-1021299408)
1B37  01                 const type 3
1B38  650634F3           const [129]: (-214694299)
1B3C  04                 const type 4
1B3D  07                 string size (7)
1B3E  504D5F41494D00     "PM_AIM\0"
                         const [130]: "PM_AIM"
1B45  04                 const type 4
1B46  06                 string size (6)
1B47  5F726F6F7400       "_root\0"
                         const [131]: "_root"
1B4D  03                 const type 3
1B4E  00007041           const [132]: (0)
1B52  01                 const type 3
1B53  9CE65C20           const [133]: (542959260)
1B57  01                 const type 3
1B58  2F882B1E           const [134]: (506169391)
1B5C  01                 const type 3
1B5D  9D3F506B           const [135]: (1800421277)
1B61  01                 const type 3
1B62  358658E7           const [136]: (-413628875)
1B66  01                 const type 3
1B67  BC578345           const [137]: (1166235580)
1B6B  01                 const type 3
1B6C  8A5E4503           const [138]: (54877834)
1B70  01                 const type 3
1B71  81624F1E           const [139]: (508519041)
1B75  04                 const type 4
1B76  08                 string size (8)
1B77  68656164696E6700   "heading\0"
                         const [140]: "heading"
1B7F  04                 const type 4
1B80  06                 string size (6)
1B81  706974636800       "pitch\0"
                         const [141]: "pitch"
1B87  04                 const type 4
1B88  05                 string size (5)
1B89  62616E6B00         "bank\0"
                         const [142]: "bank"
1B8E  01                 const type 3
1B8F  3741A911           const [143]: (296304951)
1B93  04                 const type 4
1B94  05                 string size (5)
1B95  6D61746800         "math\0"
                         const [144]: "math"
1B9A  01                 const type 3
1B9B  5861633F           const [145]: (1063477592)
1B9F  01                 const type 3
1BA0  C996E0BF           const [146]: (-1075800375)
1BA4  03                 const type 3
1BA5  0000B442           const [147]: (0)
1BA9  03                 const type 3
1BAA  0000B443           const [148]: (0)
1BAE  04                 const type 4
1BAF  09                 string size (9)
1BB0  5F68656164696E67+  "_heading"
1BB8  00                 "\0"
                         const [149]: "_heading"
1BB9  01                 const type 3
1BBA  C64CD3BD           const [150]: (-1110225722)
1BBE  01                 const type 3
1BBF  DC3D18EC           const [151]: (-333955620)
                         * functions:
1BC3  01                 sizep (1)
                         
1BC4                     ** function [0] definition (level 3)
                         ** start of function **
1BC4  00                 string size (0)
                         source name: (none)
1BC6  01                 line defined (252)
1BC7  FE                 last line defined (254)
1BC8  01                 nups (0)
1BC9  00                 numparams (0)
1BCA  00                 is_vararg (0)
1BCB  00                 maxstacksize (3)
                         * code:
1BCD  05                 sizecode (5)
1BCE  1D000000           [1] getglobal  0   0        ; mMovie
1BD2  24404000           [2] self       0   0   257  ; 1649906088
1BD6  97000000           [3] loadbool   2   0   0    ; false
1BDA  22408001           [4] call       0   3   1  
1BDE  1E008000           [5] return     0   1      
                         * constants:
1BE2  02                 sizek (2)
1BE3  04                 const type 4
1BE4  07                 string size (7)
1BE5  6D4D6F76696500     "mMovie\0"
                         const [0]: "mMovie"
1BEC  01                 const type 3
1BED  A8915762           const [1]: (1649906088)
                         * functions:
1BF1  00                 sizep (0)
                         * lines:
1BF2  05                 sizelineinfo (5)
                         [pc] (line)
1BF3  FD                 [1] (-3)
1BF4  00                 [2] (-3)
1BF5  00                 [3] (-3)
1BF6  00                 [4] (-3)
1BF7  FD                 [5] (-2)
                         * locals:
1C07  00                 sizelocvars (0)
                         * upvalues:
1C08  00                 sizeupvalues (0)
                         ** end of function **

                         * lines:
1C0A  08                 sizelineinfo (1129)
                         [pc] (line)
1C0B  4C                 [0001] (76)
1C0C  00                 [0002] (76)
1C0D  00                 [0003] (76)
1C0E  00                 [0004] (76)
1C0F  4C                 [0005] (76)
1C10  00                 [0006] (76)
1C11  00                 [0007] (76)
1C12  00                 [0008] (76)
1C13  4C                 [0009] (76)
1C14  00                 [0010] (76)
1C15  00                 [0011] (76)
1C16  00                 [0012] (76)
1C17  4C                 [0013] (76)
1C18  00                 [0014] (77)
1C19  00                 [0015] (80)
1C1A  00                 [0016] (80)
1C1B  4C                 [0017] (80)
1C1C  00                 [0018] (80)
1C1D  00                 [0019] (80)
1C1E  00                 [0020] (82)
1C1F  4C                 [0021] (82)
1C20  00                 [0022] (82)
1C21  00                 [0023] (82)
1C22  00                 [0024] (82)
1C23  4C                 [0025] (83)
1C24  00                 [0026] (83)
1C25  00                 [0027] (83)
1C26  00                 [0028] (84)
1C27  4C                 [0029] (84)
1C28  00                 [0030] (84)
1C29  00                 [0031] (85)
1C2A  00                 [0032] (85)
1C2B  4C                 [0033] (87)
1C2C  00                 [0034] (87)
1C2D  00                 [0035] (87)
1C2E  00                 [0036] (87)
1C2F  4C                 [0037] (87)
1C30  00                 [0038] (88)
1C31  00                 [0039] (90)
1C32  00                 [0040] (90)
1C33  4C                 [0041] (90)
1C34  00                 [0042] (90)
1C35  00                 [0043] (93)
1C36  00                 [0044] (93)
1C37  4C                 [0045] (93)
1C38  00                 [0046] (93)
1C39  00                 [0047] (93)
1C3A  00                 [0048] (94)
1C3B  4C                 [0049] (97)
1C3C  00                 [0050] (97)
1C3D  00                 [0051] (97)
1C3E  00                 [0052] (97)
1C3F  4D                 [0053] (99)
1C40  00                 [0054] (99)
1C41  00                 [0055] (99)
1C42  00                 [0056] (99)
1C43  50                 [0057] (99)
1C44  00                 [0058] (99)
1C45  00                 [0059] (99)
1C46  00                 [0060] (99)
1C47  50                 [0061] (100)
1C48  00                 [0062] (100)
1C49  00                 [0063] (100)
1C4A  00                 [0064] (100)
1C4B  50                 [0065] (102)
1C4C  00                 [0066] (102)
1C4D  00                 [0067] (102)
1C4E  00                 [0068] (102)
1C4F  50                 [0069] (102)
1C50  00                 [0070] (102)
1C51  00                 [0071] (102)
1C52  00                 [0072] (102)
1C53  50                 [0073] (102)
1C54  00                 [0074] (103)
1C55  00                 [0075] (103)
1C56  00                 [0076] (103)
1C57  52                 [0077] (106)
1C58  00                 [0078] (107)
1C59  00                 [0079] (108)
1C5A  00                 [0080] (108)
1C5B  52                 [0081] (108)
1C5C  00                 [0082] (108)
1C5D  00                 [0083] (108)
1C5E  00                 [0084] (108)
1C5F  52                 [0085] (108)
1C60  00                 [0086] (108)
1C61  00                 [0087] (108)
1C62  00                 [0088] (108)
1C63  52                 [0089] (108)
1C64  00                 [0090] (108)
1C65  00                 [0091] (108)
1C66  00                 [0092] (108)
1C67  52                 [0093] (108)
1C68  00                 [0094] (108)
1C69  00                 [0095] (108)
1C6A  00                 [0096] (109)
1C6B  53                 [0097] (109)
1C6C  00                 [0098] (109)
1C6D  00                 [0099] (110)
1C6E  00                 [0100] (110)
1C6F  53                 [0101] (110)
1C70  00                 [0102] (110)
1C71  00                 [0103] (111)
1C72  00                 [0104] (111)
1C73  53                 [0105] (111)
1C74  00                 [0106] (111)
1C75  00                 [0107] (112)
1C76  00                 [0108] (112)
1C77  54                 [0109] (112)
1C78  00                 [0110] (112)
1C79  00                 [0111] (113)
1C7A  00                 [0112] (113)
1C7B  54                 [0113] (113)
1C7C  00                 [0114] (113)
1C7D  00                 [0115] (113)
1C7E  00                 [0116] (114)
1C7F  54                 [0117] (110)
1C80  00                 [0118] (121)
1C81  00                 [0119] (121)
1C82  00                 [0120] (121)
1C83  55                 [0121] (121)
1C84  00                 [0122] (121)
1C85  00                 [0123] (121)
1C86  00                 [0124] (121)
1C87  55                 [0125] (121)
1C88  00                 [0126] (121)
1C89  00                 [0127] (121)
1C8A  00                 [0128] (121)
1C8B  57                 [0129] (121)
1C8C  00                 [0130] (121)
1C8D  00                 [0131] (122)
1C8E  00                 [0132] (122)
1C8F  57                 [0133] (122)
1C90  00                 [0134] (123)
1C91  00                 [0135] (123)
1C92  00                 [0136] (124)
1C93  57                 [0137] (124)
1C94  00                 [0138] (124)
1C95  00                 [0139] (124)
1C96  00                 [0140] (124)
1C97  57                 [0141] (125)
1C98  00                 [0142] (125)
1C99  00                 [0143] (-128)
1C9A  00                 [0144] (-128)
1C9B  57                 [0145] (-128)
1C9C  00                 [0146] (-128)
1C9D  00                 [0147] (-128)
1C9E  00                 [0148] (-127)
1C9F  58                 [0149] (-126)
1CA0  00                 [0150] (-126)
1CA1  00                 [0151] (-126)
1CA2  00                 [0152] (-126)
1CA3  5A                 [0153] (-126)
1CA4  00                 [0154] (-126)
1CA5  00                 [0155] (-126)
1CA6  00                 [0156] (-126)
1CA7  5A                 [0157] (-126)
1CA8  00                 [0158] (-126)
1CA9  00                 [0159] (-126)
1CAA  00                 [0160] (-126)
1CAB  5A                 [0161] (-125)
1CAC  00                 [0162] (-125)
1CAD  00                 [0163] (-125)
1CAE  00                 [0164] (-125)
1CAF  5A                 [0165] (-125)
1CB0  00                 [0166] (-125)
1CB1  00                 [0167] (-125)
1CB2  00                 [0168] (-125)
1CB3  5D                 [0169] (-125)
1CB4  00                 [0170] (-125)
1CB5  00                 [0171] (-125)
1CB6  00                 [0172] (-125)
1CB7  5D                 [0173] (-125)
1CB8  00                 [0174] (-125)
1CB9  00                 [0175] (-125)
1CBA  00                 [0176] (-125)
1CBB  5D                 [0177] (-125)
1CBC  00                 [0178] (-124)
1CBD  00                 [0179] (-123)
1CBE  00                 [0180] (-123)
1CBF  5D                 [0181] (-123)
1CC0  00                 [0182] (-123)
1CC1  00                 [0183] (-123)
1CC2  00                 [0184] (-123)
1CC3  5D                 [0185] (-122)
1CC4  00                 [0186] (-122)
1CC5  00                 [0187] (-122)
1CC6  00                 [0188] (-122)
1CC7  5E                 [0189] (-122)
1CC8  00                 [0190] (-121)
1CC9  00                 [0191] (-120)
1CCA  00                 [0192] (-120)
1CCB  61                 [0193] (-120)
1CCC  00                 [0194] (-120)
1CCD  00                 [0195] (-120)
1CCE  00                 [0196] (-120)
1CCF  61                 [0197] (-120)
1CD0  00                 [0198] (-120)
1CD1  00                 [0199] (-120)
1CD2  00                 [0200] (-120)
1CD3  61                 [0201] (-120)
1CD4  00                 [0202] (-120)
1CD5  00                 [0203] (-120)
1CD6  00                 [0204] (-120)
1CD7  61                 [0205] (-120)
1CD8  00                 [0206] (-119)
1CD9  00                 [0207] (-117)
1CDA  00                 [0208] (-117)
1CDB  63                 [0209] (-117)
1CDC  00                 [0210] (-117)
1CDD  00                 [0211] (-117)
1CDE  00                 [0212] (-117)
1CDF  63                 [0213] (-117)
1CE0  00                 [0214] (-117)
1CE1  00                 [0215] (-117)
1CE2  00                 [0216] (-117)
1CE3  63                 [0217] (-117)
1CE4  00                 [0218] (-116)
1CE5  00                 [0219] (-116)
1CE6  00                 [0220] (-116)
1CE7  63                 [0221] (-116)
1CE8  00                 [0222] (-115)
1CE9  00                 [0223] (-115)
1CEA  00                 [0224] (-115)
1CEB  63                 [0225] (-115)
1CEC  00                 [0226] (-115)
1CED  00                 [0227] (-114)
1CEE  00                 [0228] (-111)
1CEF  63                 [0229] (-111)
1CF0  00                 [0230] (-111)
1CF1  00                 [0231] (-111)
1CF2  00                 [0232] (-111)
1CF3  63                 [0233] (-111)
1CF4  00                 [0234] (-111)
1CF5  00                 [0235] (-111)
1CF6  00                 [0236] (-111)
1CF7  63                 [0237] (-111)
1CF8  00                 [0238] (-111)
1CF9  00                 [0239] (-110)
1CFA  00                 [0240] (-110)
1CFB  64                 [0241] (-110)
1CFC  00                 [0242] (-110)
1CFD  00                 [0243] (-109)
1CFE  00                 [0244] (-107)
1CFF  64                 [0245] (-107)
1D00  00                 [0246] (-107)
1D01  00                 [0247] (-107)
1D02  00                 [0248] (-107)
1D03  64                 [0249] (-107)
1D04  00                 [0250] (-107)
1D05  00                 [0251] (-106)
1D06  00                 [0252] (-106)
1D07  64                 [0253] (-106)
1D08  00                 [0254] (-106)
1D09  00                 [0255] (-104)
1D0A  00                 [0256] (-104)
1D0B  66                 [0257] (-104)
1D0C  00                 [0258] (-103)
1D0D  00                 [0259] (-103)
1D0E  00                 [0260] (-103)
1D0F  66                 [0261] (-101)
1D10  00                 [0262] (-101)
1D11  00                 [0263] (-101)
1D12  00                 [0264] (-101)
1D13  66                 [0265] (-100)
1D14  00                 [0266] (-100)
1D15  00                 [0267] (-100)
1D16  00                 [0268] (-100)
1D17  66                 [0269] (-99)
1D18  00                 [0270] (-99)
1D19  00                 [0271] (-99)
1D1A  00                 [0272] (-99)
1D1B  66                 [0273] (-98)
1D1C  00                 [0274] (-98)
1D1D  00                 [0275] (-98)
1D1E  00                 [0276] (-98)
1D1F  66                 [0277] (-98)
1D20  00                 [0278] (-98)
1D21  00                 [0279] (-98)
1D22  00                 [0280] (-98)
1D23  66                 [0281] (-98)
1D24  00                 [0282] (-98)
1D25  00                 [0283] (-98)
1D26  00                 [0284] (-98)
1D27  66                 [0285] (-98)
1D28  00                 [0286] (-98)
1D29  00                 [0287] (-98)
1D2A  00                 [0288] (-97)
1D2B  66                 [0289] (-97)
1D2C  00                 [0290] (-96)
1D2D  00                 [0291] (-96)
1D2E  00                 [0292] (-96)
1D2F  67                 [0293] (-96)
1D30  00                 [0294] (-96)
1D31  00                 [0295] (-96)
1D32  00                 [0296] (-96)
1D33  67                 [0297] (-96)
1D34  00                 [0298] (-96)
1D35  00                 [0299] (-96)
1D36  00                 [0300] (-96)
1D37  67                 [0301] (-96)
1D38  00                 [0302] (-94)
1D39  00                 [0303] (-94)
1D3A  00                 [0304] (-94)
1D3B  6A                 [0305] (-94)
1D3C  00                 [0306] (-94)
1D3D  00                 [0307] (-94)
1D3E  00                 [0308] (-94)
1D3F  6B                 [0309] (-94)
1D40  00                 [0310] (-94)
1D41  00                 [0311] (-94)
1D42  00                 [0312] (-94)
1D43  6C                 [0313] (-92)
1D44  00                 [0314] (-92)
1D45  00                 [0315] (-92)
1D46  00                 [0316] (-92)
1D47  6C                 [0317] (-92)
1D48  00                 [0318] (-91)
1D49  00                 [0319] (-91)
1D4A  00                 [0320] (-91)
1D4B  6C                 [0321] (-91)
1D4C  00                 [0322] (-91)
1D4D  00                 [0323] (-91)
1D4E  00                 [0324] (-91)
1D4F  6C                 [0325] (-88)
1D50  00                 [0326] (-88)
1D51  00                 [0327] (-88)
1D52  00                 [0328] (-87)
1D53  6C                 [0329] (-86)
1D54  00                 [0330] (-86)
1D55  00                 [0331] (-86)
1D56  00                 [0332] (-86)
1D57  6C                 [0333] (-86)
1D58  00                 [0334] (-86)
1D59  00                 [0335] (-86)
1D5A  00                 [0336] (-86)
1D5B  6C                 [0337] (-86)
1D5C  00                 [0338] (-86)
1D5D  00                 [0339] (-86)
1D5E  00                 [0340] (-85)
1D5F  6C                 [0341] (-85)
1D60  00                 [0342] (-85)
1D61  00                 [0343] (-85)
1D62  00                 [0344] (-85)
1D63  6C                 [0345] (-85)
1D64  00                 [0346] (-85)
1D65  00                 [0347] (-85)
1D66  00                 [0348] (-85)
1D67  6C                 [0349] (-85)
1D68  00                 [0350] (-85)
1D69  00                 [0351] (-84)
1D6A  00                 [0352] (-84)
1D6B  6C                 [0353] (-84)
1D6C  00                 [0354] (-84)
1D6D  00                 [0355] (-84)
1D6E  00                 [0356] (-84)
1D6F  6C                 [0357] (-84)
1D70  00                 [0358] (-84)
1D71  00                 [0359] (-84)
1D72  00                 [0360] (-84)
1D73  6C                 [0361] (-84)
1D74  00                 [0362] (-83)
1D75  00                 [0363] (-83)
1D76  00                 [0364] (-83)
1D77  6C                 [0365] (-83)
1D78  00                 [0366] (-83)
1D79  00                 [0367] (-83)
1D7A  00                 [0368] (-83)
1D7B  6C                 [0369] (-83)
1D7C  00                 [0370] (-83)
1D7D  00                 [0371] (-83)
1D7E  00                 [0372] (-83)
1D7F  6C                 [0373] (-83)
1D80  00                 [0374] (-79)
1D81  00                 [0375] (-79)
1D82  00                 [0376] (-79)
1D83  6C                 [0377] (-79)
1D84  00                 [0378] (-78)
1D85  00                 [0379] (-78)
1D86  00                 [0380] (-78)
1D87  6D                 [0381] (-78)
1D88  00                 [0382] (-77)
1D89  00                 [0383] (-77)
1D8A  00                 [0384] (-77)
1D8B  6D                 [0385] (-77)
1D8C  00                 [0386] (-77)
1D8D  00                 [0387] (-77)
1D8E  00                 [0388] (-77)
1D8F  6D                 [0389] (-77)
1D90  00                 [0390] (-77)
1D91  00                 [0391] (-77)
1D92  00                 [0392] (-77)
1D93  6E                 [0393] (-77)
1D94  00                 [0394] (-77)
1D95  00                 [0395] (-77)
1D96  00                 [0396] (-77)
1D97  6E                 [0397] (-77)
1D98  00                 [0398] (-77)
1D99  00                 [0399] (-77)
1D9A  00                 [0400] (-77)
1D9B  6E                 [0401] (-77)
1D9C  00                 [0402] (-77)
1D9D  00                 [0403] (-77)
1D9E  00                 [0404] (-79)
1D9F  6E                 [0405] (-77)
1DA0  00                 [0406] (-74)
1DA1  00                 [0407] (-74)
1DA2  00                 [0408] (-74)
1DA3  6F                 [0409] (-74)
1DA4  00                 [0410] (-73)
1DA5  00                 [0411] (-70)
1DA6  00                 [0412] (-70)
1DA7  6F                 [0413] (-69)
1DA8  00                 [0414] (-69)
1DA9  00                 [0415] (-69)
1DAA  00                 [0416] (-69)
1DAB  6F                 [0417] (-68)
1DAC  00                 [0418] (-68)
1DAD  00                 [0419] (-68)
1DAE  00                 [0420] (-68)
1DAF  6F                 [0421] (-68)
1DB0  00                 [0422] (-67)
1DB1  00                 [0423] (-67)
1DB2  00                 [0424] (-66)
1DB3  70                 [0425] (-66)
1DB4  00                 [0426] (-66)
1DB5  00                 [0427] (-66)
1DB6  00                 [0428] (-66)
1DB7  70                 [0429] (-66)
1DB8  00                 [0430] (-66)
1DB9  00                 [0431] (-66)
1DBA  00                 [0432] (-66)
1DBB  70                 [0433] (-66)
1DBC  00                 [0434] (-65)
1DBD  00                 [0435] (-65)
1DBE  00                 [0436] (-65)
1DBF  70                 [0437] (-65)
1DC0  00                 [0438] (-65)
1DC1  00                 [0439] (-64)
1DC2  00                 [0440] (-64)
1DC3  71                 [0441] (-64)
1DC4  00                 [0442] (-64)
1DC5  00                 [0443] (-64)
1DC6  00                 [0444] (-64)
1DC7  71                 [0445] (-64)
1DC8  00                 [0446] (-63)
1DC9  00                 [0447] (-63)
1DCA  00                 [0448] (-63)
1DCB  71                 [0449] (-63)
1DCC  00                 [0450] (-63)
1DCD  00                 [0451] (-63)
1DCE  00                 [0452] (-63)
1DCF  71                 [0453] (-63)
1DD0  00                 [0454] (-63)
1DD1  00                 [0455] (-62)
1DD2  00                 [0456] (-62)
1DD3  71                 [0457] (-62)
1DD4  00                 [0458] (-60)
1DD5  00                 [0459] (-60)
1DD6  00                 [0460] (-56)
1DD7  72                 [0461] (-56)
1DD8  00                 [0462] (-56)
1DD9  00                 [0463] (-56)
1DDA  00                 [0464] (-56)
1DDB  6E                 [0465] (-56)
1DDC  00                 [0466] (-56)
1DDD  00                 [0467] (-56)
1DDE  00                 [0468] (-56)
1DDF  79                 [0469] (-55)
1DE0  00                 [0470] (-55)
1DE1  00                 [0471] (-55)
1DE2  00                 [0472] (-55)
1DE3  79                 [0473] (-55)
1DE4  00                 [0474] (-55)
1DE5  00                 [0475] (-55)
1DE6  00                 [0476] (-54)
1DE7  79                 [0477] (-54)
1DE8  00                 [0478] (-54)
1DE9  00                 [0479] (-54)
1DEA  00                 [0480] (-54)
1DEB  79                 [0481] (-53)
1DEC  00                 [0482] (-53)
1DED  00                 [0483] (-53)
1DEE  00                 [0484] (-53)
1DEF  79                 [0485] (-53)
1DF0  00                 [0486] (-51)
1DF1  00                 [0487] (-51)
1DF2  00                 [0488] (-51)
1DF3  79                 [0489] (-51)
1DF4  00                 [0490] (-51)
1DF5  00                 [0491] (-51)
1DF6  00                 [0492] (-50)
1DF7  79                 [0493] (-50)
1DF8  00                 [0494] (-50)
1DF9  00                 [0495] (-50)
1DFA  00                 [0496] (-50)
1DFB  79                 [0497] (-50)
1DFC  00                 [0498] (-49)
1DFD  00                 [0499] (-49)
1DFE  00                 [0500] (-49)
1DFF  79                 [0501] (-49)
1E00  00                 [0502] (-49)
1E01  00                 [0503] (-49)
1E02  00                 [0504] (-49)
1E03  79                 [0505] (-49)
1E04  00                 [0506] (-49)
1E05  00                 [0507] (-49)
1E06  00                 [0508] (-49)
1E07  79                 [0509] (-49)
1E08  00                 [0510] (-49)
1E09  00                 [0511] (-49)
1E0A  00                 [0512] (-49)
1E0B  79                 [0513] (-49)
1E0C  00                 [0514] (-48)
1E0D  00                 [0515] (-48)
1E0E  00                 [0516] (-47)
1E0F  79                 [0517] (-45)
1E10  00                 [0518] (-45)
1E11  00                 [0519] (-45)
1E12  00                 [0520] (-45)
1E13  7A                 [0521] (-45)
1E14  00                 [0522] (-45)
1E15  00                 [0523] (-45)
1E16  00                 [0524] (-45)
1E17  7A                 [0525] (-45)
1E18  00                 [0526] (-45)
1E19  00                 [0527] (-45)
1E1A  00                 [0528] (-45)
1E1B  7A                 [0529] (-45)
1E1C  00                 [0530] (-45)
1E1D  00                 [0531] (-44)
1E1E  00                 [0532] (-44)
1E1F  7B                 [0533] (-44)
1E20  00                 [0534] (-44)
1E21  00                 [0535] (-44)
1E22  00                 [0536] (-44)
1E23  7B                 [0537] (-44)
1E24  00                 [0538] (-44)
1E25  00                 [0539] (-44)
1E26  00                 [0540] (-44)
1E27  7C                 [0541] (-44)
1E28  00                 [0542] (-44)
1E29  00                 [0543] (-44)
1E2A  00                 [0544] (-44)
1E2B  7C                 [0545] (-43)
1E2C  00                 [0546] (-43)
1E2D  00                 [0547] (-43)
1E2E  00                 [0548] (-43)
1E2F  7C                 [0549] (-43)
1E30  00                 [0550] (-43)
1E31  00                 [0551] (-43)
1E32  00                 [0552] (-43)
1E33  7C                 [0553] (-43)
1E34  00                 [0554] (-43)
1E35  00                 [0555] (-43)
1E36  00                 [0556] (-43)
1E37  7C                 [0557] (-43)
1E38  00                 [0558] (-43)
1E39  00                 [0559] (-42)
1E3A  00                 [0560] (-42)
1E3B  7D                 [0561] (-42)
1E3C  00                 [0562] (-41)
1E3D  00                 [0563] (-41)
1E3E  00                 [0564] (-41)
1E3F  7D                 [0565] (-41)
1E40  00                 [0566] (-41)
1E41  00                 [0567] (-41)
1E42  00                 [0568] (-41)
1E43  80                 [0569] (-41)
1E44  00                 [0570] (-41)
1E45  00                 [0571] (-41)
1E46  00                 [0572] (-41)
1E47  80                 [0573] (-41)
1E48  00                 [0574] (-41)
1E49  00                 [0575] (-41)
1E4A  00                 [0576] (-39)
1E4B  80                 [0577] (-39)
1E4C  00                 [0578] (-39)
1E4D  00                 [0579] (-39)
1E4E  00                 [0580] (-37)
1E4F  80                 [0581] (-37)
1E50  00                 [0582] (-37)
1E51  00                 [0583] (-37)
1E52  00                 [0584] (-37)
1E53  80                 [0585] (-37)
1E54  00                 [0586] (-37)
1E55  00                 [0587] (-37)
1E56  00                 [0588] (-37)
1E57  81                 [0589] (-37)
1E58  00                 [0590] (-37)
1E59  00                 [0591] (-37)
1E5A  00                 [0592] (-37)
1E5B  82                 [0593] (-37)
1E5C  00                 [0594] (-37)
1E5D  00                 [0595] (-37)
1E5E  00                 [0596] (-37)
1E5F  82                 [0597] (-39)
1E60  00                 [0598] (-37)
1E61  00                 [0599] (-34)
1E62  00                 [0600] (-34)
1E63  82                 [0601] (-32)
1E64  00                 [0602] (-32)
1E65  00                 [0603] (-32)
1E66  00                 [0604] (-32)
1E67  82                 [0605] (-32)
1E68  00                 [0606] (-32)
1E69  00                 [0607] (-32)
1E6A  00                 [0608] (-32)
1E6B  82                 [0609] (-32)
1E6C  00                 [0610] (-32)
1E6D  00                 [0611] (-32)
1E6E  00                 [0612] (-32)
1E6F  82                 [0613] (-32)
1E70  00                 [0614] (-32)
1E71  00                 [0615] (-32)
1E72  00                 [0616] (-32)
1E73  82                 [0617] (-32)
1E74  00                 [0618] (-32)
1E75  00                 [0619] (-32)
1E76  00                 [0620] (-32)
1E77  82                 [0621] (-32)
1E78  00                 [0622] (-32)
1E79  00                 [0623] (-31)
1E7A  00                 [0624] (-31)
1E7B  82                 [0625] (-31)
1E7C  00                 [0626] (-31)
1E7D  00                 [0627] (-31)
1E7E  00                 [0628] (-29)
1E7F  82                 [0629] (-29)
1E80  00                 [0630] (-29)
1E81  00                 [0631] (-29)
1E82  00                 [0632] (-29)
1E83  82                 [0633] (-29)
1E84  00                 [0634] (-28)
1E85  00                 [0635] (-28)
1E86  00                 [0636] (-28)
1E87  82                 [0637] (-27)
1E88  00                 [0638] (-27)
1E89  00                 [0639] (-27)
1E8A  00                 [0640] (-27)
1E8B  83                 [0641] (-27)
1E8C  00                 [0642] (-27)
1E8D  00                 [0643] (-27)
1E8E  00                 [0644] (-26)
1E8F  83                 [0645] (-26)
1E90  00                 [0646] (-24)
1E91  00                 [0647] (-24)
1E92  00                 [0648] (-24)
1E93  83                 [0649] (-24)
1E94  00                 [0650] (-23)
1E95  00                 [0651] (-23)
1E96  00                 [0652] (-22)
1E97  83                 [0653] (-22)
1E98  00                 [0654] (-21)
1E99  00                 [0655] (-21)
1E9A  00                 [0656] (-21)
1E9B  83                 [0657] (-21)
1E9C  00                 [0658] (-21)
1E9D  00                 [0659] (-20)
1E9E  00                 [0660] (-20)
1E9F  83                 [0661] (-20)
1EA0  00                 [0662] (-19)
1EA1  00                 [0663] (-19)
1EA2  00                 [0664] (-19)
1EA3  83                 [0665] (-19)
1EA4  00                 [0666] (-19)
1EA5  00                 [0667] (-19)
1EA6  00                 [0668] (-19)
1EA7  83                 [0669] (-19)
1EA8  00                 [0670] (-19)
1EA9  00                 [0671] (-19)
1EAA  00                 [0672] (-19)
1EAB  83                 [0673] (-19)
1EAC  00                 [0674] (-19)
1EAD  00                 [0675] (-19)
1EAE  00                 [0676] (-17)
1EAF  83                 [0677] (-17)
1EB0  00                 [0678] (-17)
1EB1  00                 [0679] (-17)
1EB2  00                 [0680] (-17)
1EB3  83                 [0681] (-17)
1EB4  00                 [0682] (-13)
1EB5  00                 [0683] (-13)
1EB6  00                 [0684] (-13)
1EB7  83                 [0685] (-13)
1EB8  00                 [0686] (-13)
1EB9  00                 [0687] (-13)
1EBA  00                 [0688] (-13)
1EBB  83                 [0689] (-11)
1EBC  00                 [0690] (-11)
1EBD  00                 [0691] (-11)
1EBE  00                 [0692] (-11)
1EBF  83                 [0693] (-11)
1EC0  00                 [0694] (-11)
1EC1  00                 [0695] (-10)
1EC2  00                 [0696] (-10)
1EC3  83                 [0697] (-10)
1EC4  00                 [0698] (-10)
1EC5  00                 [0699] (-9)
1EC6  00                 [0700] (-9)
1EC7  83                 [0701] (-7)
1EC8  00                 [0702] (-7)
1EC9  00                 [0703] (-7)
1ECA  00                 [0704] (-7)
1ECB  83                 [0705] (-7)
1ECC  00                 [0706] (-7)
1ECD  00                 [0707] (-6)
1ECE  00                 [0708] (-6)
1ECF  84                 [0709] (-6)
1ED0  00                 [0710] (-6)
1ED1  00                 [0711] (-6)
1ED2  00                 [0712] (-6)
1ED3  85                 [0713] (-5)
1ED4  00                 [0714] (-5)
1ED5  00                 [0715] (-5)
1ED6  00                 [0716] (-5)
1ED7  85                 [0717] (-5)
1ED8  00                 [0718] (-5)
1ED9  00                 [0719] (-5)
1EDA  00                 [0720] (-5)
1EDB  85                 [0721] (-5)
1EDC  00                 [0722] (-5)
1EDD  00                 [0723] (-5)
1EDE  00                 [0724] (-5)
1EDF  85                 [0725] (-5)
1EE0  00                 [0726] (-2)
1EE1  00                 [0727] (-5)
1EE2  00                 [0728] (-1)
1EE3  85                 [0729] (-1)
1EE4  00                 [0730] (-1)
1EE5  00                 [0731] (-1)
1EE6  00                 [0732] (-1)
1EE7  85                 [0733] (-1)
1EE8  00                 [0734] (-1)
1EE9  00                 [0735] (-1)
1EEA  00                 [0736] (-1)
1EEB  86                 [0737] (-1)
1EEC  00                 [0738] (-1)
1EED  00                 [0739] (-1)
1EEE  00                 [0740] (-1)
1EEF  86                 [0741] (0)
1EF0  00                 [0742] (0)
1EF1  00                 [0743] (0)
1EF2  00                 [0744] (0)
1EF3  86                 [0745] (0)
1EF4  00                 [0746] (0)
1EF5  00                 [0747] (0)
1EF6  00                 [0748] (0)
1EF7  86                 [0749] (0)
1EF8  00                 [0750] (0)
1EF9  00                 [0751] (0)
1EFA  00                 [0752] (0)
1EFB  86                 [0753] (0)
1EFC  00                 [0754] (0)
1EFD  00                 [0755] (1)
1EFE  00                 [0756] (1)
1EFF  87                 [0757] (1)
1F00  00                 [0758] (1)
1F01  00                 [0759] (1)
1F02  00                 [0760] (1)
1F03  88                 [0761] (1)
1F04  00                 [0762] (1)
1F05  00                 [0763] (1)
1F06  00                 [0764] (1)
1F07  88                 [0765] (1)
1F08  00                 [0766] (1)
1F09  00                 [0767] (1)
1F0A  00                 [0768] (1)
1F0B  88                 [0769] (2)
1F0C  00                 [0770] (2)
1F0D  00                 [0771] (2)
1F0E  00                 [0772] (2)
1F0F  88                 [0773] (3)
1F10  00                 [0774] (3)
1F11  00                 [0775] (3)
1F12  00                 [0776] (3)
1F13  88                 [0777] (3)
1F14  00                 [0778] (3)
1F15  00                 [0779] (3)
1F16  00                 [0780] (3)
1F17  88                 [0781] (3)
1F18  00                 [0782] (3)
1F19  00                 [0783] (3)
1F1A  00                 [0784] (3)
1F1B  88                 [0785] (3)
1F1C  00                 [0786] (3)
1F1D  00                 [0787] (3)
1F1E  00                 [0788] (3)
1F1F  88                 [0789] (3)
1F20  00                 [0790] (2)
1F21  00                 [0791] (3)
1F22  00                 [0792] (6)
1F23  88                 [0793] (6)
1F24  00                 [0794] (10)
1F25  00                 [0795] (10)
1F26  00                 [0796] (10)
1F27  88                 [0797] (10)
1F28  00                 [0798] (10)
1F29  00                 [0799] (11)
1F2A  00                 [0800] (12)
1F2B  88                 [0801] (12)
1F2C  00                 [0802] (12)
1F2D  00                 [0803] (12)
1F2E  00                 [0804] (12)
1F2F  88                 [0805] (12)
1F30  00                 [0806] (12)
1F31  00                 [0807] (12)
1F32  00                 [0808] (12)
1F33  88                 [0809] (12)
1F34  00                 [0810] (12)
1F35  00                 [0811] (13)
1F36  00                 [0812] (13)
1F37  88                 [0813] (13)
1F38  00                 [0814] (13)
1F39  00                 [0815] (13)
1F3A  00                 [0816] (13)
1F3B  88                 [0817] (13)
1F3C  00                 [0818] (13)
1F3D  00                 [0819] (13)
1F3E  00                 [0820] (13)
1F3F  89                 [0821] (13)
1F40  00                 [0822] (13)
1F41  00                 [0823] (14)
1F42  00                 [0824] (14)
1F43  8B                 [0825] (14)
1F44  00                 [0826] (15)
1F45  00                 [0827] (15)
1F46  00                 [0828] (15)
1F47  8B                 [0829] (15)
1F48  00                 [0830] (15)
1F49  00                 [0831] (15)
1F4A  00                 [0832] (15)
1F4B  8B                 [0833] (16)
1F4C  00                 [0834] (16)
1F4D  00                 [0835] (18)
1F4E  00                 [0836] (18)
1F4F  8B                 [0837] (18)
1F50  00                 [0838] (18)
1F51  00                 [0839] (18)
1F52  00                 [0840] (18)
1F53  8B                 [0841] (19)
1F54  00                 [0842] (19)
1F55  00                 [0843] (19)
1F56  00                 [0844] (20)
1F57  8B                 [0845] (21)
1F58  00                 [0846] (21)
1F59  00                 [0847] (21)
1F5A  00                 [0848] (21)
1F5B  8B                 [0849] (21)
1F5C  00                 [0850] (21)
1F5D  00                 [0851] (21)
1F5E  00                 [0852] (21)
1F5F  8B                 [0853] (21)
1F60  00                 [0854] (21)
1F61  00                 [0855] (21)
1F62  00                 [0856] (21)
1F63  8B                 [0857] (21)
1F64  00                 [0858] (21)
1F65  00                 [0859] (21)
1F66  00                 [0860] (21)
1F67  8B                 [0861] (21)
1F68  00                 [0862] (22)
1F69  00                 [0863] (22)
1F6A  00                 [0864] (22)
1F6B  8B                 [0865] (23)
1F6C  00                 [0866] (23)
1F6D  00                 [0867] (23)
1F6E  00                 [0868] (23)
1F6F  8C                 [0869] (23)
1F70  00                 [0870] (23)
1F71  00                 [0871] (23)
1F72  00                 [0872] (23)
1F73  8C                 [0873] (23)
1F74  00                 [0874] (23)
1F75  00                 [0875] (23)
1F76  00                 [0876] (23)
1F77  8C                 [0877] (26)
1F78  00                 [0878] (26)
1F79  00                 [0879] (27)
1F7A  00                 [0880] (27)
1F7B  8C                 [0881] (27)
1F7C  00                 [0882] (27)
1F7D  00                 [0883] (28)
1F7E  00                 [0884] (28)
1F7F  8D                 [0885] (28)
1F80  00                 [0886] (30)
1F81  00                 [0887] (30)
1F82  00                 [0888] (30)
1F83  8D                 [0889] (30)
1F84  00                 [0890] (31)
1F85  00                 [0891] (31)
1F86  00                 [0892] (31)
1F87  8D                 [0893] (31)
1F88  00                 [0894] (32)
1F89  00                 [0895] (32)
1F8A  00                 [0896] (32)
1F8B  8D                 [0897] (32)
1F8C  00                 [0898] (33)
1F8D  00                 [0899] (33)
1F8E  00                 [0900] (33)
1F8F  8D                 [0901] (33)
1F90  00                 [0902] (34)
1F91  00                 [0903] (38)
1F92  00                 [0904] (38)
1F93  8E                 [0905] (38)
1F94  00                 [0906] (38)
1F95  00                 [0907] (38)
1F96  00                 [0908] (38)
1F97  91                 [0909] (38)
1F98  00                 [0910] (38)
1F99  00                 [0911] (38)
1F9A  00                 [0912] (38)
1F9B  91                 [0913] (39)
1F9C  00                 [0914] (39)
1F9D  00                 [0915] (39)
1F9E  00                 [0916] (39)
1F9F  91                 [0917] (39)
1FA0  00                 [0918] (40)
1FA1  00                 [0919] (40)
1FA2  00                 [0920] (40)
1FA3  91                 [0921] (40)
1FA4  00                 [0922] (40)
1FA5  00                 [0923] (41)
1FA6  00                 [0924] (41)
1FA7  91                 [0925] (41)
1FA8  00                 [0926] (42)
1FA9  00                 [0927] (43)
1FAA  00                 [0928] (43)
1FAB  91                 [0929] (43)
1FAC  00                 [0930] (43)
1FAD  00                 [0931] (43)
1FAE  00                 [0932] (43)
1FAF  91                 [0933] (43)
1FB0  00                 [0934] (43)
1FB1  00                 [0935] (43)
1FB2  00                 [0936] (43)
1FB3  91                 [0937] (43)
1FB4  00                 [0938] (43)
1FB5  00                 [0939] (43)
1FB6  00                 [0940] (43)
1FB7  91                 [0941] (43)
1FB8  00                 [0942] (43)
1FB9  00                 [0943] (43)
1FBA  00                 [0944] (43)
1FBB  91                 [0945] (48)
1FBC  00                 [0946] (48)
1FBD  00                 [0947] (48)
1FBE  00                 [0948] (49)
1FBF  91                 [0949] (49)
1FC0  00                 [0950] (49)
1FC1  00                 [0951] (51)
1FC2  00                 [0952] (51)
1FC3  92                 [0953] (51)
1FC4  00                 [0954] (51)
1FC5  00                 [0955] (51)
1FC6  00                 [0956] (52)
1FC7  92                 [0957] (52)
1FC8  00                 [0958] (52)
1FC9  00                 [0959] (53)
1FCA  00                 [0960] (53)
1FCB  92                 [0961] (55)
1FCC  00                 [0962] (55)
1FCD  00                 [0963] (55)
1FCE  00                 [0964] (56)
1FCF  92                 [0965] (56)
1FD0  00                 [0966] (56)
1FD1  00                 [0967] (56)
1FD2  00                 [0968] (56)
1FD3  93                 [0969] (56)
1FD4  00                 [0970] (56)
1FD5  00                 [0971] (56)
1FD6  00                 [0972] (56)
1FD7  95                 [0973] (56)
1FD8  00                 [0974] (56)
1FD9  00                 [0975] (57)
1FDA  00                 [0976] (57)
1FDB  95                 [0977] (57)
1FDC  00                 [0978] (57)
1FDD  00                 [0979] (57)
1FDE  00                 [0980] (57)
1FDF  95                 [0981] (57)
1FE0  00                 [0982] (58)
1FE1  00                 [0983] (58)
1FE2  00                 [0984] (58)
1FE3  95                 [0985] (59)
1FE4  00                 [0986] (60)
1FE5  00                 [0987] (60)
1FE6  00                 [0988] (60)
1FE7  95                 [0989] (61)
1FE8  00                 [0990] (62)
1FE9  00                 [0991] (62)
1FEA  00                 [0992] (63)
1FEB  95                 [0993] (63)
1FEC  00                 [0994] (63)
1FED  00                 [0995] (63)
1FEE  00                 [0996] (63)
1FEF  95                 [0997] (63)
1FF0  00                 [0998] (63)
1FF1  00                 [0999] (63)
1FF2  00                 [1000] (63)
1FF3  96                 [1001] (63)
1FF4  00                 [1002] (63)
1FF5  00                 [1003] (64)
1FF6  00                 [1004] (64)
1FF7  96                 [1005] (64)
1FF8  00                 [1006] (64)
1FF9  00                 [1007] (65)
1FFA  00                 [1008] (65)
1FFB  96                 [1009] (65)
1FFC  00                 [1010] (65)
1FFD  00                 [1011] (67)
1FFE  00                 [1012] (67)
1FFF  96                 [1013] (67)
2000  00                 [1014] (67)
2001  00                 [1015] (67)
2002  00                 [1016] (68)
2003  98                 [1017] (68)
2004  00                 [1018] (68)
2005  00                 [1019] (68)
2006  00                 [1020] (68)
2007  98                 [1021] (68)
2008  00                 [1022] (68)
2009  00                 [1023] (68)
200A  00                 [1024] (68)
200B  98                 [1025] (69)
200C  00                 [1026] (71)
200D  00                 [1027] (71)
200E  00                 [1028] (71)
200F  99                 [1029] (71)
2010  00                 [1030] (71)
2011  00                 [1031] (72)
2012  00                 [1032] (72)
2013  99                 [1033] (72)
2014  00                 [1034] (72)
2015  00                 [1035] (72)
2016  00                 [1036] (73)
2017  99                 [1037] (73)
2018  00                 [1038] (73)
2019  00                 [1039] (73)
201A  00                 [1040] (73)
201B  9B                 [1041] (73)
201C  00                 [1042] (77)
201D  00                 [1043] (77)
201E  00                 [1044] (77)
201F  9B                 [1045] (78)
2020  00                 [1046] (78)
2021  00                 [1047] (78)
2022  00                 [1048] (78)
2023  9B                 [1049] (79)
2024  00                 [1050] (80)
2025  00                 [1051] (81)
2026  00                 [1052] (81)
2027  9B                 [1053] (81)
2028  00                 [1054] (83)
2029  00                 [1055] (83)
202A  00                 [1056] (83)
202B  9C                 [1057] (83)
202C  00                 [1058] (83)
202D  00                 [1059] (84)
202E  00                 [1060] (84)
202F  9C                 [1061] (84)
2030  00                 [1062] (84)
2031  00                 [1063] (85)
2032  00                 [1064] (86)
2033  9C                 [1065] (86)
2034  00                 [1066] (86)
2035  00                 [1067] (87)
2036  00                 [1068] (88)
2037  9C                 [1069] (88)
2038  00                 [1070] (88)
2039  00                 [1071] (88)
203A  00                 [1072] (88)
203B  9D                 [1073] (88)
203C  00                 [1074] (89)
203D  00                 [1075] (91)
203E  00                 [1076] (91)
203F  9D                 [1077] (91)
2040  00                 [1078] (91)
2041  00                 [1079] (91)
2042  00                 [1080] (92)
2043  9D                 [1081] (92)
2044  00                 [1082] (92)
2045  00                 [1083] (92)
2046  00                 [1084] (92)
2047  9D                 [1085] (93)
2048  00                 [1086] (93)
2049  00                 [1087] (93)
204A  00                 [1088] (93)
204B  9E                 [1089] (93)
204C  00                 [1090] (93)
204D  00                 [1091] (95)
204E  00                 [1092] (95)
204F  9E                 [1093] (95)
2050  00                 [1094] (95)
2051  00                 [1095] (95)
2052  00                 [1096] (96)
2053  9E                 [1097] (96)
2054  00                 [1098] (96)
2055  00                 [1099] (96)
2056  00                 [1100] (96)
2057  9E                 [1101] (96)
2058  00                 [1102] (99)
2059  00                 [1103] (99)
205A  00                 [1104] (99)
205B  9E                 [1105] (99)
205C  00                 [1106] (99)
205D  00                 [1107] (100)
205E  00                 [1108] (100)
205F  9E                 [1109] (100)
2060  00                 [1110] (100)
2061  00                 [1111] (100)
2062  00                 [1112] (101)
2063  9E                 [1113] (101)
2064  00                 [1114] (101)
2065  00                 [1115] (102)
2066  00                 [1116] (102)
2067  9E                 [1117] (102)
2068  00                 [1118] (102)
2069  00                 [1119] (102)
206A  00                 [1120] (102)
206B  9E                 [1121] (102)
206C  00                 [1122] (103)
206D  00                 [1123] (103)
206E  00                 [1124] (104)
206F  9E                 [1125] (106)
2070  00                 [1126] (106)
2071  00                 [1127] (106)
2072  00                 [1128] (106)
2073  9E                 [1129] (109)
                         * locals:
2DAF  00                 sizelocvars (0)
                         * upvalues:
2DB0  00                 sizeupvalues (0)
                         ** end of function **

                         
2DB1                     ** function [4] definition (level 2)
                         ** start of function **
2DB1  00                 string size (0)
                         source name: (none)
2DB3  02                 line defined (367)
2DB4  B3                 last line defined (435)
2DB5  03                 nups (10)
2DB6  0A                 numparams (0)
2DB7  00                 is_vararg (0)
2DB8  00                 maxstacksize (19)
                         * code:
2DBB  02                 sizecode (303)
2DBC  1D000000           [001] getglobal  0   0        ; mMovie
2DC0  24404000           [002] self       0   0   257  ; 2082429591
2DC4  22800001           [003] call       0   2   2  
fail op	8
2DC8  08000000           [004] setupval   0   0      
2DCC  1D800000           [005] getglobal  0   2        ; 1074689893
2DD0  53000000           [006] getupval   1   0      
2DD4  22800001           [007] call       0   2   2  
2DD8  18400000           [008] test       0       1    ; to [10] if false
2DDC  1A800280           [009] jmp        11           ; to [21]
2DE0  13000000           [010] getupval   0   0      
2DE4  24C04000           [011] self       0   0   259  ; -1704783487
2DE8  22800001           [012] call       0   2   2  
fail op	8
2DEC  08008000           [013] setupval   0   1      
2DF0  1D800000           [014] getglobal  0   2        ; 1074689893
2DF4  53008000           [015] getupval   1   1      
2DF8  22800001           [016] call       0   2   2  
2DFC  18000000           [017] test       0       0    ; to [19] if true
2E00  1A400080           [018] jmp        2            ; to [21]
2E04  06000000           [019] loadnil    0   0      
fail op	8
2E08  08000000           [020] setupval   0   0      
2E0C  06000000           [021] loadnil    0   0      
fail op	8
2E10  08000001           [022] setupval   0   2      
2E14  19000100           [023] loadk      0   4        ; 0
fail op	8
2E18  08008001           [024] setupval   0   3      
2E1C  1D400100           [025] getglobal  0   5        ; 1672515847
2E20  53000002           [026] getupval   1   4      
2E24  22000101           [027] call       0   2   4  
2E28  1A800F80           [028] jmp        63           ; to [92]
2E2C  53018002           [029] getupval   5   5      
2E30  8B410000           [030] newtable   6   0   1    ; array=0, hash=1
2E34  DDC10100           [031] getglobal  7   7        ; -174740002
2E38  1D020000           [032] getglobal  8   0        ; mMovie
2E3C  24024204           [033] self       8   8   264  ; 1803241227
2E40  92020002           [034] move       10  4      
2E44  D9420200           [035] loadk      11  9        ; "_x"
2E48  22020002           [036] call       8   4   0  
2E4C  E2810000           [037] call       7   0   2  
2E50  8CC10183           [038] settable   6   262 7    ; "x"
2E54  4C818101           [039] settable   5   3   6  
2E58  53010003           [040] getupval   5   6      
2E5C  92018001           [041] move       6   3      
2E60  D7010000           [042] loadbool   7   0   0    ; false
2E64  62818001           [043] call       5   3   2  
2E68  9D010000           [044] getglobal  6   0        ; mMovie
2E6C  A4814203           [045] self       6   6   266  ; 471456102
2E70  12020002           [046] move       8   4      
2E74  59420200           [047] loadk      9   9        ; "_x"
2E78  8E82C102           [048] gettable   10  5   262  ; "x"
2E7C  A2418002           [049] call       6   5   1  
2E80  9D010000           [050] getglobal  6   0        ; mMovie
2E84  A4814203           [051] self       6   6   266  ; 471456102
2E88  12020002           [052] move       8   4      
2E8C  59C20200           [053] loadk      9   11       ; "_alpha"
2E90  99020100           [054] loadk      10  4        ; 0
2E94  A2418002           [055] call       6   5   1  
2E98  9D010000           [056] getglobal  6   0        ; mMovie
2E9C  A4014303           [057] self       6   6   268  ; -2013161817
2EA0  12020002           [058] move       8   4      
2EA4  59420300           [059] loadk      9   13       ; "Foreground"
2EA8  99820300           [060] loadk      10  14       ; "_z"
2EAC  D3028003           [061] getupval   11  7      
2EB0  A2410003           [062] call       6   6   1  
2EB4  9D010000           [063] getglobal  6   0        ; mMovie
2EB8  A4014303           [064] self       6   6   268  ; -2013161817
2EBC  12020002           [065] move       8   4      
2EC0  59C20300           [066] loadk      9   15       ; "Middle"
2EC4  99820300           [067] loadk      10  14       ; "_z"
2EC8  D3028003           [068] getupval   11  7      
2ECC  A2410003           [069] call       6   6   1  
2ED0  9D010000           [070] getglobal  6   0        ; mMovie
2ED4  A4014303           [071] self       6   6   268  ; -2013161817
2ED8  12020002           [072] move       8   4      
2EDC  59020400           [073] loadk      9   16       ; "BackShadow"
2EE0  99820300           [074] loadk      10  14       ; "_z"
2EE4  D3028003           [075] getupval   11  7      
fail op	0
2EE8  C0028005           [076] move       11  11     
2EEC  A2410003           [077] call       6   6   1  
2EF0  9D010000           [078] getglobal  6   0        ; mMovie
2EF4  A4014303           [079] self       6   6   268  ; -2013161817
2EF8  12020002           [080] move       8   4      
2EFC  59020400           [081] loadk      9   16       ; "BackShadow"
2F00  99C20200           [082] loadk      10  11       ; "_alpha"
2F04  D9420400           [083] loadk      11  17       ; 0
2F08  A2410003           [084] call       6   6   1  
2F0C  9D010000           [085] getglobal  6   0        ; mMovie
2F10  A4814403           [086] self       6   6   274  ; 2115970775
2F14  12020002           [087] move       8   4      
2F18  59C20400           [088] loadk      9   19       ; ".Middle"
2F1C  02420204           [089] concat     8   8   9  
2F20  5D020500           [090] getglobal  9   20       ; nonDepthTestMaterial
2F24  A2410002           [091] call       6   4   1  
2F28  16800000           [092] tforloop   0       2    ; to [94] if exit
2F2C  1A80EF7F           [093] jmp        -65          ; to [29]
2F30  9D010000           [094] getglobal  6   0        ; mMovie
2F34  A4814203           [095] self       6   6   266  ; 471456102
2F38  19420500           [096] loadk      8   21       ; "Marker.Instruction"
2F3C  59C20200           [097] loadk      9   11       ; "_alpha"
2F40  99020100           [098] loadk      10  4        ; 0
2F44  A2418002           [099] call       6   5   1  
2F48  9D010000           [100] getglobal  6   0        ; mMovie
2F4C  A4814203           [101] self       6   6   266  ; 471456102
2F50  19820500           [102] loadk      8   22       ; "Marker.Panel"
2F54  59C20200           [103] loadk      9   11       ; "_alpha"
2F58  99020100           [104] loadk      10  4        ; 0
2F5C  A2418002           [105] call       6   5   1  
2F60  9D010000           [106] getglobal  6   0        ; mMovie
2F64  A4814203           [107] self       6   6   266  ; 471456102
2F68  19C20500           [108] loadk      8   23       ; "Marker.Panel.Foreground"
2F6C  59820300           [109] loadk      9   14       ; "_z"
2F70  93028003           [110] getupval   10  7      
2F74  A2418002           [111] call       6   5   1  
2F78  9D010000           [112] getglobal  6   0        ; mMovie
2F7C  A4814203           [113] self       6   6   266  ; 471456102
2F80  19020600           [114] loadk      8   24       ; "Marker.Panel.Middle"
2F84  59820300           [115] loadk      9   14       ; "_z"
2F88  93028003           [116] getupval   10  7      
2F8C  A2418002           [117] call       6   5   1  
2F90  9D010000           [118] getglobal  6   0        ; mMovie
2F94  A4814203           [119] self       6   6   266  ; 471456102
2F98  19420600           [120] loadk      8   25       ; "Marker.Panel.BackShadow"
2F9C  59820300           [121] loadk      9   14       ; "_z"
2FA0  93028003           [122] getupval   10  7      
fail op	0
2FA4  80020005           [123] move       10  10     
2FA8  A2418002           [124] call       6   5   1  
2FAC  9D010000           [125] getglobal  6   0        ; mMovie
2FB0  A4814203           [126] self       6   6   266  ; 471456102
2FB4  19420600           [127] loadk      8   25       ; "Marker.Panel.BackShadow"
2FB8  59C20200           [128] loadk      9   11       ; "_alpha"
2FBC  99420400           [129] loadk      10  17       ; 0
2FC0  A2418002           [130] call       6   5   1  
2FC4  9D010000           [131] getglobal  6   0        ; mMovie
2FC8  A4814203           [132] self       6   6   266  ; 471456102
2FCC  19820600           [133] loadk      8   26       ; "Marker.Circle"
2FD0  59C20200           [134] loadk      9   11       ; "_alpha"
2FD4  99020100           [135] loadk      10  4        ; 0
2FD8  A2418002           [136] call       6   5   1  
2FDC  9D010000           [137] getglobal  6   0        ; mMovie
2FE0  A4814203           [138] self       6   6   266  ; 471456102
2FE4  19C20600           [139] loadk      8   27       ; "Marker.Circle.Foreground"
2FE8  59820300           [140] loadk      9   14       ; "_z"
2FEC  93028003           [141] getupval   10  7      
2FF0  A2418002           [142] call       6   5   1  
2FF4  9D010000           [143] getglobal  6   0        ; mMovie
2FF8  A4814203           [144] self       6   6   266  ; 471456102
2FFC  19020700           [145] loadk      8   28       ; "Marker.Circle.Middle"
3000  59820300           [146] loadk      9   14       ; "_z"
3004  93028003           [147] getupval   10  7      
fail op	0
3008  80020005           [148] move       10  10     
300C  A2418002           [149] call       6   5   1  
3010  9D010000           [150] getglobal  6   0        ; mMovie
3014  A4814203           [151] self       6   6   266  ; 471456102
3018  19420700           [152] loadk      8   29       ; "Marker.Circle.Shadow"
301C  59C20200           [153] loadk      9   11       ; "_alpha"
3020  99020100           [154] loadk      10  4        ; 0
3024  A2418002           [155] call       6   5   1  
3028  9D010000           [156] getglobal  6   0        ; mMovie
302C  A4814703           [157] self       6   6   286  ; -693657623
3030  19C20700           [158] loadk      8   31       ; "Marker.Callout"
3034  59020800           [159] loadk      9   32       ; "text"
3038  99420800           [160] loadk      10  33       ; ""
303C  A2418002           [161] call       6   5   1  
3040  9D010000           [162] getglobal  6   0        ; mMovie
3044  A4814703           [163] self       6   6   286  ; -693657623
3048  19820800           [164] loadk      8   34       ; "Marker.CalloutMiddle"
304C  59020800           [165] loadk      9   32       ; "text"
3050  99420800           [166] loadk      10  33       ; ""
3054  A2418002           [167] call       6   5   1  
3058  9D010000           [168] getglobal  6   0        ; mMovie
305C  A4814203           [169] self       6   6   266  ; 471456102
3060  19C20700           [170] loadk      8   31       ; "Marker.Callout"
3064  59820300           [171] loadk      9   14       ; "_z"
3068  93028003           [172] getupval   10  7      
306C  A2418002           [173] call       6   5   1  
3070  9D010000           [174] getglobal  6   0        ; mMovie
3074  A4814203           [175] self       6   6   266  ; 471456102
3078  19820800           [176] loadk      8   34       ; "Marker.CalloutMiddle"
307C  59820300           [177] loadk      9   14       ; "_z"
3080  93028003           [178] getupval   10  7      
3084  A2418002           [179] call       6   5   1  
3088  9D010000           [180] getglobal  6   0        ; mMovie
308C  A4814203           [181] self       6   6   266  ; 471456102
3090  19420500           [182] loadk      8   21       ; "Marker.Instruction"
3094  59820300           [183] loadk      9   14       ; "_z"
3098  93028003           [184] getupval   10  7      
309C  A2418002           [185] call       6   5   1  
30A0  9D010000           [186] getglobal  6   0        ; mMovie
30A4  A4814203           [187] self       6   6   266  ; 471456102
30A8  19C20800           [188] loadk      8   35       ; "Marker.InstructionMiddle"
30AC  59820300           [189] loadk      9   14       ; "_z"
30B0  93028003           [190] getupval   10  7      
30B4  A2418002           [191] call       6   5   1  
30B8  9D010000           [192] getglobal  6   0        ; mMovie
30BC  A4814203           [193] self       6   6   266  ; 471456102
30C0  19C20700           [194] loadk      8   31       ; "Marker.Callout"
30C4  59020900           [195] loadk      9   36       ; "_color"
30C8  99420900           [196] loadk      10  37       ; -56
30CC  A2418002           [197] call       6   5   1  
30D0  9D010000           [198] getglobal  6   0        ; mMovie
30D4  A4814203           [199] self       6   6   266  ; 471456102
30D8  19820800           [200] loadk      8   34       ; "Marker.CalloutMiddle"
30DC  59020900           [201] loadk      9   36       ; "_color"
30E0  99820900           [202] loadk      10  38       ; -42
30E4  A2418002           [203] call       6   5   1  
30E8  9D010000           [204] getglobal  6   0        ; mMovie
30EC  A4814203           [205] self       6   6   266  ; 471456102
30F0  19820800           [206] loadk      8   34       ; "Marker.CalloutMiddle"
30F4  59C20200           [207] loadk      9   11       ; "_alpha"
30F8  99C20900           [208] loadk      10  39       ; 0
30FC  A2418002           [209] call       6   5   1  
3100  9D010000           [210] getglobal  6   0        ; mMovie
3104  A4814203           [211] self       6   6   266  ; 471456102
3108  19420500           [212] loadk      8   21       ; "Marker.Instruction"
310C  59020900           [213] loadk      9   36       ; "_color"
3110  99420900           [214] loadk      10  37       ; -56
3114  A2418002           [215] call       6   5   1  
3118  9D010000           [216] getglobal  6   0        ; mMovie
311C  A4814203           [217] self       6   6   266  ; 471456102
3120  19C20800           [218] loadk      8   35       ; "Marker.InstructionMiddle"
3124  59020900           [219] loadk      9   36       ; "_color"
3128  99820900           [220] loadk      10  38       ; -42
312C  A2418002           [221] call       6   5   1  
3130  9D010000           [222] getglobal  6   0        ; mMovie
3134  A4814203           [223] self       6   6   266  ; 471456102
3138  19C20800           [224] loadk      8   35       ; "Marker.InstructionMiddle"
313C  59C20200           [225] loadk      9   11       ; "_alpha"
3140  99C20900           [226] loadk      10  39       ; 0
3144  A2418002           [227] call       6   5   1  
3148  9D010000           [228] getglobal  6   0        ; mMovie
314C  A4814403           [229] self       6   6   274  ; 2115970775
3150  19020A00           [230] loadk      8   40       ; "Marker.Panel.Middle.LeftDeco"
3154  5D020500           [231] getglobal  9   20       ; nonDepthTestMaterial
3158  A2410002           [232] call       6   4   1  
315C  9D010000           [233] getglobal  6   0        ; mMovie
3160  A4814403           [234] self       6   6   274  ; 2115970775
3164  19420A00           [235] loadk      8   41       ; "Marker.Panel.Middle.RightSide"
3168  5D020500           [236] getglobal  9   20       ; nonDepthTestMaterial
316C  A2410002           [237] call       6   4   1  
3170  9D010000           [238] getglobal  6   0        ; mMovie
3174  A4814403           [239] self       6   6   274  ; 2115970775
3178  19C20800           [240] loadk      8   35       ; "Marker.InstructionMiddle"
317C  5D020500           [241] getglobal  9   20       ; nonDepthTestMaterial
3180  A2410002           [242] call       6   4   1  
3184  9D010000           [243] getglobal  6   0        ; mMovie
3188  A4814403           [244] self       6   6   274  ; 2115970775
318C  19820800           [245] loadk      8   34       ; "Marker.CalloutMiddle"
3190  5D020500           [246] getglobal  9   20       ; nonDepthTestMaterial
3194  A2410002           [247] call       6   4   1  
3198  9D010000           [248] getglobal  6   0        ; mMovie
319C  A4814403           [249] self       6   6   274  ; 2115970775
31A0  19020700           [250] loadk      8   28       ; "Marker.Circle.Middle"
31A4  5D020500           [251] getglobal  9   20       ; nonDepthTestMaterial
31A8  A2410002           [252] call       6   4   1  
31AC  9D410100           [253] getglobal  6   5        ; 1672515847
31B0  CB018001           [254] newtable   7   3   0    ; array=3, hash=0
31B4  19820A00           [255] loadk      8   42       ; "Marker.Panel.Foreground.RightSide"
31B8  59C20A00           [256] loadk      9   43       ; "Marker.Panel.Shadow.RightSide"
31BC  99020B00           [257] loadk      10  44       ; "Marker.Panel.BackShadow.RightSide"
31C0  DB418001           [258] setlist    7   3   1    ; index 1 to 3
31C4  A2010101           [259] call       6   2   4  
31C8  1AC00880           [260] jmp        36           ; to [297]
31CC  DD020000           [261] getglobal  11  0        ; mMovie
31D0  E482C405           [262] self       11  11  274  ; 2115970775
31D4  52030005           [263] move       13  10     
31D8  9D430B00           [264] getglobal  14  45       ; _G
31DC  8E834B07           [265] gettable   14  14  302  ; "UIMaterial_Rectangle"
31E0  E2420002           [266] call       11  4   1  
31E4  DD020000           [267] getglobal  11  0        ; mMovie
31E8  E4C2CB05           [268] self       11  11  303  ; 808102703
31EC  52030005           [269] move       13  10     
31F0  99030C00           [270] loadk      14  48       ; "RectInnerColor"
31F4  DD430B00           [271] getglobal  15  45       ; _G
31F8  CE43CC07           [272] gettable   15  15  305  ; "UIColorObject_White"
31FC  CE83CC07           [273] gettable   15  15  306  ; "r"
3200  1D440B00           [274] getglobal  16  45       ; _G
3204  0E444C08           [275] gettable   16  16  305  ; "UIColorObject_White"
3208  0EC44C08           [276] gettable   16  16  307  ; "g"
320C  5D440B00           [277] getglobal  17  45       ; _G
3210  4E44CC08           [278] gettable   17  17  305  ; "UIColorObject_White"
3214  4E04CD08           [279] gettable   17  17  308  ; "b"
3218  99440D00           [280] loadk      18  53       ; 51
321C  E2420004           [281] call       11  8   1  
3220  DD020000           [282] getglobal  11  0        ; mMovie
3224  E4C2CB05           [283] self       11  11  303  ; 808102703
3228  52030005           [284] move       13  10     
322C  99830D00           [285] loadk      14  54       ; "RectEdgeColor"
3230  DD430B00           [286] getglobal  15  45       ; _G
3234  CE43CC07           [287] gettable   15  15  305  ; "UIColorObject_White"
3238  CE83CC07           [288] gettable   15  15  306  ; "r"
323C  1D440B00           [289] getglobal  16  45       ; _G
3240  0E444C08           [290] gettable   16  16  305  ; "UIColorObject_White"
3244  0EC44C08           [291] gettable   16  16  307  ; "g"
3248  5D440B00           [292] getglobal  17  45       ; _G
324C  4E44CC08           [293] gettable   17  17  305  ; "UIColorObject_White"
3250  4E04CD08           [294] gettable   17  17  308  ; "b"
3254  99C40D00           [295] loadk      18  55       ; 0
3258  E2420004           [296] call       11  8   1  
325C  96810000           [297] tforloop   6       2    ; to [299] if exit
3260  1A40F67F           [298] jmp        -38          ; to [261]
3264  D9020E00           [299] loadk      11  56       ; 3
fail op	8
3268  C8020004           [300] setupval   11  8      
326C  D7028000           [301] loadbool   11  1   0    ; true
fail op	8
3270  C8028004           [302] setupval   11  9      
3274  1E008000           [303] return     0   1      
                         * constants:
3278  39                 sizek (57)
3279  04                 const type 4
327A  07                 string size (7)
327B  6D4D6F76696500     "mMovie\0"
                         const [0]: "mMovie"
3282  01                 const type 3
3283  975A1F7C           const [1]: (2082429591)
3287  01                 const type 3
3288  65770E40           const [2]: (1074689893)
328C  01                 const type 3
328D  8111639A           const [3]: (-1704783487)
3291  03                 const type 3
3292  00000000           const [4]: (0)
3296  01                 const type 3
3297  0791B063           const [5]: (1672515847)
329B  04                 const type 4
329C  02                 string size (2)
329D  7800               "x\0"
                         const [6]: "x"
329F  01                 const type 3
32A0  DEAD95F5           const [7]: (-174740002)
32A4  01                 const type 3
32A5  0B477B6B           const [8]: (1803241227)
32A9  04                 const type 4
32AA  03                 string size (3)
32AB  5F7800             "_x\0"
                         const [9]: "_x"
32AE  01                 const type 3
32AF  66D9191C           const [10]: (471456102)
32B3  04                 const type 4
32B4  07                 string size (7)
32B5  5F616C70686100     "_alpha\0"
                         const [11]: "_alpha"
32BC  01                 const type 3
32BD  A7960188           const [12]: (-2013161817)
32C1  04                 const type 4
32C2  0B                 string size (11)
32C3  466F726567726F75+  "Foregrou"
32CB  6E6400             "nd\0"
                         const [13]: "Foreground"
32CE  04                 const type 4
32CF  03                 string size (3)
32D0  5F7A00             "_z\0"
                         const [14]: "_z"
32D3  04                 const type 4
32D4  07                 string size (7)
32D5  4D6964646C6500     "Middle\0"
                         const [15]: "Middle"
32DC  04                 const type 4
32DD  0B                 string size (11)
32DE  4261636B53686164+  "BackShad"
32E6  6F7700             "ow\0"
                         const [16]: "BackShadow"
32E9  03                 const type 3
32EA  0000C841           const [17]: (0)
32EE  01                 const type 3
32EF  D7261F7E           const [18]: (2115970775)
32F3  04                 const type 4
32F4  08                 string size (8)
32F5  2E4D6964646C6500   ".Middle\0"
                         const [19]: ".Middle"
32FD  04                 const type 4
32FE  15                 string size (21)
32FF  6E6F6E4465707468+  "nonDepth"
3307  546573744D617465+  "TestMate"
330F  7269616C00         "rial\0"
                         const [20]: "nonDepthTestMaterial"
3314  04                 const type 4
3315  13                 string size (19)
3316  4D61726B65722E49+  "Marker.I"
331E  6E73747275637469+  "nstructi"
3326  6F6E00             "on\0"
                         const [21]: "Marker.Instruction"
3329  04                 const type 4
332A  0D                 string size (13)
332B  4D61726B65722E50+  "Marker.P"
3333  616E656C00         "anel\0"
                         const [22]: "Marker.Panel"
3338  04                 const type 4
3339  18                 string size (24)
333A  4D61726B65722E50+  "Marker.P"
3342  616E656C2E466F72+  "anel.For"
334A  6567726F756E6400   "eground\0"
                         const [23]: "Marker.Panel.Foreground"
3352  04                 const type 4
3353  14                 string size (20)
3354  4D61726B65722E50+  "Marker.P"
335C  616E656C2E4D6964+  "anel.Mid"
3364  646C6500           "dle\0"
                         const [24]: "Marker.Panel.Middle"
3368  04                 const type 4
3369  18                 string size (24)
336A  4D61726B65722E50+  "Marker.P"
3372  616E656C2E426163+  "anel.Bac"
337A  6B536861646F7700   "kShadow\0"
                         const [25]: "Marker.Panel.BackShadow"
3382  04                 const type 4
3383  0E                 string size (14)
3384  4D61726B65722E43+  "Marker.C"
338C  6972636C6500       "ircle\0"
                         const [26]: "Marker.Circle"
3392  04                 const type 4
3393  19                 string size (25)
3394  4D61726B65722E43+  "Marker.C"
339C  6972636C652E466F+  "ircle.Fo"
33A4  726567726F756E64+  "reground"
33AC  00                 "\0"
                         const [27]: "Marker.Circle.Foreground"
33AD  04                 const type 4
33AE  15                 string size (21)
33AF  4D61726B65722E43+  "Marker.C"
33B7  6972636C652E4D69+  "ircle.Mi"
33BF  64646C6500         "ddle\0"
                         const [28]: "Marker.Circle.Middle"
33C4  04                 const type 4
33C5  15                 string size (21)
33C6  4D61726B65722E43+  "Marker.C"
33CE  6972636C652E5368+  "ircle.Sh"
33D6  61646F7700         "adow\0"
                         const [29]: "Marker.Circle.Shadow"
33DB  01                 const type 3
33DC  E99FA7D6           const [30]: (-693657623)
33E0  04                 const type 4
33E1  0F                 string size (15)
33E2  4D61726B65722E43+  "Marker.C"
33EA  616C6C6F757400     "allout\0"
                         const [31]: "Marker.Callout"
33F1  04                 const type 4
33F2  05                 string size (5)
33F3  7465787400         "text\0"
                         const [32]: "text"
33F8  04                 const type 4
33F9  01                 string size (0)
                         const [33]: ""
33FB  04                 const type 4
33FC  15                 string size (21)
33FD  4D61726B65722E43+  "Marker.C"
3405  616C6C6F75744D69+  "alloutMi"
340D  64646C6500         "ddle\0"
                         const [34]: "Marker.CalloutMiddle"
3412  04                 const type 4
3413  19                 string size (25)
3414  4D61726B65722E49+  "Marker.I"
341C  6E73747275637469+  "nstructi"
3424  6F6E4D6964646C65+  "onMiddle"
342C  00                 "\0"
                         const [35]: "Marker.InstructionMiddle"
342D  04                 const type 4
342E  07                 string size (7)
342F  5F636F6C6F7200     "_color\0"
                         const [36]: "_color"
3436  03                 const type 3
3437  C8C8404A           const [37]: (-56)
343B  03                 const type 3
343C  D6D6564B           const [38]: (-42)
3440  03                 const type 3
3441  0000A041           const [39]: (0)
3445  04                 const type 4
3446  1D                 string size (29)
3447  4D61726B65722E50+  "Marker.P"
344F  616E656C2E4D6964+  "anel.Mid"
3457  646C652E4C656674+  "dle.Left"
345F  4465636F00         "Deco\0"
                         const [40]: "Marker.Panel.Middle.LeftDeco"
3464  04                 const type 4
3465  1E                 string size (30)
3466  4D61726B65722E50+  "Marker.P"
346E  616E656C2E4D6964+  "anel.Mid"
3476  646C652E52696768+  "dle.Righ"
347E  745369646500       "tSide\0"
                         const [41]: "Marker.Panel.Middle.RightSide"
3484  04                 const type 4
3485  22                 string size (34)
3486  4D61726B65722E50+  "Marker.P"
348E  616E656C2E466F72+  "anel.For"
3496  6567726F756E642E+  "eground."
349E  5269676874536964+  "RightSid"
34A6  6500               "e\0"
                         const [42]: "Marker.Panel.Foreground.RightSide"
34A8  04                 const type 4
34A9  1E                 string size (30)
34AA  4D61726B65722E50+  "Marker.P"
34B2  616E656C2E536861+  "anel.Sha"
34BA  646F772E52696768+  "dow.Righ"
34C2  745369646500       "tSide\0"
                         const [43]: "Marker.Panel.Shadow.RightSide"
34C8  04                 const type 4
34C9  22                 string size (34)
34CA  4D61726B65722E50+  "Marker.P"
34D2  616E656C2E426163+  "anel.Bac"
34DA  6B536861646F772E+  "kShadow."
34E2  5269676874536964+  "RightSid"
34EA  6500               "e\0"
                         const [44]: "Marker.Panel.BackShadow.RightSide"
34EC  04                 const type 4
34ED  03                 string size (3)
34EE  5F4700             "_G\0"
                         const [45]: "_G"
34F1  04                 const type 4
34F2  15                 string size (21)
34F3  55494D6174657269+  "UIMateri"
34FB  616C5F5265637461+  "al_Recta"
3503  6E676C6500         "ngle\0"
                         const [46]: "UIMaterial_Rectangle"
3508  01                 const type 3
3509  2FAB2A30           const [47]: (808102703)
350D  04                 const type 4
350E  0F                 string size (15)
350F  52656374496E6E65+  "RectInne"
3517  72436F6C6F7200     "rColor\0"
                         const [48]: "RectInnerColor"
351E  04                 const type 4
351F  14                 string size (20)
3520  5549436F6C6F724F+  "UIColorO"
3528  626A6563745F5768+  "bject_Wh"
3530  69746500           "ite\0"
                         const [49]: "UIColorObject_White"
3534  04                 const type 4
3535  02                 string size (2)
3536  7200               "r\0"
                         const [50]: "r"
3538  04                 const type 4
3539  02                 string size (2)
353A  6700               "g\0"
                         const [51]: "g"
353C  04                 const type 4
353D  02                 string size (2)
353E  6200               "b\0"
                         const [52]: "b"
3540  03                 const type 3
3541  3333333F           const [53]: (51)
3545  04                 const type 4
3546  0E                 string size (14)
3547  5265637445646765+  "RectEdge"
354F  436F6C6F7200       "Color\0"
                         const [54]: "RectEdgeColor"
3555  03                 const type 3
3556  0000803F           const [55]: (0)
355A  03                 const type 3
355B  0317B83F           const [56]: (3)
                         * functions:
355F  00                 sizep (0)
                         * lines:
3561  02                 sizelineinfo (303)
                         [pc] (line)
3562  70                 [001] (112)
3563  01                 [002] (112)
3564  00                 [003] (112)
3565  00                 [004] (112)
3566  70                 [005] (114)
3567  01                 [006] (114)
3568  00                 [007] (114)
3569  00                 [008] (114)
356A  70                 [009] (114)
356B  01                 [010] (115)
356C  00                 [011] (115)
356D  00                 [012] (115)
356E  70                 [013] (115)
356F  01                 [014] (116)
3570  00                 [015] (116)
3571  00                 [016] (116)
3572  72                 [017] (116)
3573  01                 [018] (116)
3574  00                 [019] (117)
3575  00                 [020] (117)
3576  72                 [021] (121)
3577  01                 [022] (121)
3578  00                 [023] (123)
3579  00                 [024] (123)
357A  72                 [025] (125)
357B  01                 [026] (125)
357C  00                 [027] (125)
357D  00                 [028] (125)
357E  72                 [029] (126)
357F  01                 [030] (126)
3580  00                 [031] (126)
3581  00                 [032] (126)
3582  72                 [033] (126)
3583  01                 [034] (126)
3584  00                 [035] (126)
3585  00                 [036] (126)
3586  73                 [037] (126)
3587  01                 [038] (126)
3588  00                 [039] (126)
3589  00                 [040] (127)
358A  73                 [041] (127)
358B  01                 [042] (127)
358C  00                 [043] (127)
358D  00                 [044] (-128)
358E  73                 [045] (-128)
358F  01                 [046] (-128)
3590  00                 [047] (-128)
3591  00                 [048] (-128)
3592  73                 [049] (-128)
3593  01                 [050] (-127)
3594  00                 [051] (-127)
3595  00                 [052] (-127)
3596  74                 [053] (-127)
3597  01                 [054] (-127)
3598  00                 [055] (-127)
3599  00                 [056] (-126)
359A  74                 [057] (-126)
359B  01                 [058] (-126)
359C  00                 [059] (-126)
359D  00                 [060] (-126)
359E  74                 [061] (-126)
359F  01                 [062] (-126)
35A0  00                 [063] (-125)
35A1  00                 [064] (-125)
35A2  74                 [065] (-125)
35A3  01                 [066] (-125)
35A4  00                 [067] (-125)
35A5  00                 [068] (-125)
35A6  74                 [069] (-125)
35A7  01                 [070] (-124)
35A8  00                 [071] (-124)
35A9  00                 [072] (-124)
35AA  75                 [073] (-124)
35AB  01                 [074] (-124)
35AC  00                 [075] (-124)
35AD  00                 [076] (-124)
35AE  75                 [077] (-124)
35AF  01                 [078] (-123)
35B0  00                 [079] (-123)
35B1  00                 [080] (-123)
35B2  79                 [081] (-123)
35B3  01                 [082] (-123)
35B4  00                 [083] (-123)
35B5  00                 [084] (-123)
35B6  79                 [085] (-122)
35B7  01                 [086] (-122)
35B8  00                 [087] (-122)
35B9  00                 [088] (-122)
35BA  7B                 [089] (-122)
35BB  01                 [090] (-122)
35BC  00                 [091] (-122)
35BD  00                 [092] (125)
35BE  7B                 [093] (-122)
35BF  01                 [094] (-119)
35C0  00                 [095] (-119)
35C1  00                 [096] (-119)
35C2  7D                 [097] (-119)
35C3  01                 [098] (-119)
35C4  00                 [099] (-119)
35C5  00                 [100] (-118)
35C6  7D                 [101] (-118)
35C7  01                 [102] (-118)
35C8  00                 [103] (-118)
35C9  00                 [104] (-118)
35CA  7D                 [105] (-118)
35CB  01                 [106] (-117)
35CC  00                 [107] (-117)
35CD  00                 [108] (-117)
35CE  7D                 [109] (-117)
35CF  01                 [110] (-117)
35D0  00                 [111] (-117)
35D1  00                 [112] (-116)
35D2  7E                 [113] (-116)
35D3  01                 [114] (-116)
35D4  00                 [115] (-116)
35D5  00                 [116] (-116)
35D6  7E                 [117] (-116)
35D7  01                 [118] (-115)
35D8  00                 [119] (-115)
35D9  00                 [120] (-115)
35DA  7E                 [121] (-115)
35DB  01                 [122] (-115)
35DC  00                 [123] (-115)
35DD  00                 [124] (-115)
35DE  7E                 [125] (-114)
35DF  01                 [126] (-114)
35E0  00                 [127] (-114)
35E1  00                 [128] (-114)
35E2  7E                 [129] (-114)
35E3  01                 [130] (-114)
35E4  00                 [131] (-113)
35E5  00                 [132] (-113)
35E6  7E                 [133] (-113)
35E7  01                 [134] (-113)
35E8  00                 [135] (-113)
35E9  00                 [136] (-113)
35EA  7E                 [137] (-112)
35EB  01                 [138] (-112)
35EC  00                 [139] (-112)
35ED  00                 [140] (-112)
35EE  7E                 [141] (-112)
35EF  01                 [142] (-112)
35F0  00                 [143] (-111)
35F1  00                 [144] (-111)
35F2  7E                 [145] (-111)
35F3  01                 [146] (-111)
35F4  00                 [147] (-111)
35F5  00                 [148] (-111)
35F6  7E                 [149] (-111)
35F7  01                 [150] (-110)
35F8  00                 [151] (-110)
35F9  00                 [152] (-110)
35FA  7E                 [153] (-110)
35FB  01                 [154] (-110)
35FC  00                 [155] (-110)
35FD  00                 [156] (-108)
35FE  7F                 [157] (-108)
35FF  01                 [158] (-108)
3600  00                 [159] (-108)
3601  00                 [160] (-108)
3602  7F                 [161] (-108)
3603  01                 [162] (-107)
3604  00                 [163] (-107)
3605  00                 [164] (-107)
3606  7F                 [165] (-107)
3607  01                 [166] (-107)
3608  00                 [167] (-107)
3609  00                 [168] (-106)
360A  7F                 [169] (-106)
360B  01                 [170] (-106)
360C  00                 [171] (-106)
360D  00                 [172] (-106)
360E  80                 [173] (-106)
360F  01                 [174] (-105)
3610  00                 [175] (-105)
3611  00                 [176] (-105)
3612  80                 [177] (-105)
3613  01                 [178] (-105)
3614  00                 [179] (-105)
3615  00                 [180] (-104)
3616  80                 [181] (-104)
3617  01                 [182] (-104)
3618  00                 [183] (-104)
3619  00                 [184] (-104)
361A  80                 [185] (-104)
361B  01                 [186] (-103)
361C  00                 [187] (-103)
361D  00                 [188] (-103)
361E  80                 [189] (-103)
361F  01                 [190] (-103)
3620  00                 [191] (-103)
3621  00                 [192] (-101)
3622  80                 [193] (-101)
3623  01                 [194] (-101)
3624  00                 [195] (-101)
3625  00                 [196] (-101)
3626  81                 [197] (-101)
3627  01                 [198] (-100)
3628  00                 [199] (-100)
3629  00                 [200] (-100)
362A  81                 [201] (-100)
362B  01                 [202] (-100)
362C  00                 [203] (-100)
362D  00                 [204] (-99)
362E  81                 [205] (-99)
362F  01                 [206] (-99)
3630  00                 [207] (-99)
3631  00                 [208] (-99)
3632  81                 [209] (-99)
3633  01                 [210] (-98)
3634  00                 [211] (-98)
3635  00                 [212] (-98)
3636  81                 [213] (-98)
3637  01                 [214] (-98)
3638  00                 [215] (-98)
3639  00                 [216] (-97)
363A  81                 [217] (-97)
363B  01                 [218] (-97)
363C  00                 [219] (-97)
363D  00                 [220] (-97)
363E  82                 [221] (-97)
363F  01                 [222] (-96)
3640  00                 [223] (-96)
3641  00                 [224] (-96)
3642  82                 [225] (-96)
3643  01                 [226] (-96)
3644  00                 [227] (-96)
3645  00                 [228] (-94)
3646  82                 [229] (-94)
3647  01                 [230] (-94)
3648  00                 [231] (-94)
3649  00                 [232] (-94)
364A  82                 [233] (-93)
364B  01                 [234] (-93)
364C  00                 [235] (-93)
364D  00                 [236] (-93)
364E  82                 [237] (-93)
364F  01                 [238] (-92)
3650  00                 [239] (-92)
3651  00                 [240] (-92)
3652  82                 [241] (-92)
3653  01                 [242] (-92)
3654  00                 [243] (-91)
3655  00                 [244] (-91)
3656  82                 [245] (-91)
3657  01                 [246] (-91)
3658  00                 [247] (-91)
3659  00                 [248] (-90)
365A  83                 [249] (-90)
365B  01                 [250] (-90)
365C  00                 [251] (-90)
365D  00                 [252] (-90)
365E  83                 [253] (-88)
365F  01                 [254] (-88)
3660  00                 [255] (-88)
3661  00                 [256] (-88)
3662  83                 [257] (-88)
3663  01                 [258] (-88)
3664  00                 [259] (-88)
3665  00                 [260] (-88)
3666  83                 [261] (-87)
3667  01                 [262] (-87)
3668  00                 [263] (-87)
3669  00                 [264] (-87)
366A  83                 [265] (-87)
366B  01                 [266] (-87)
366C  00                 [267] (-86)
366D  00                 [268] (-86)
366E  83                 [269] (-86)
366F  01                 [270] (-86)
3670  00                 [271] (-86)
3671  00                 [272] (-86)
3672  83                 [273] (-86)
3673  01                 [274] (-86)
3674  00                 [275] (-86)
3675  00                 [276] (-86)
3676  84                 [277] (-86)
3677  01                 [278] (-86)
3678  00                 [279] (-86)
3679  00                 [280] (-86)
367A  84                 [281] (-86)
367B  01                 [282] (-85)
367C  00                 [283] (-85)
367D  00                 [284] (-85)
367E  84                 [285] (-85)
367F  01                 [286] (-85)
3680  00                 [287] (-85)
3681  00                 [288] (-85)
3682  84                 [289] (-85)
3683  01                 [290] (-85)
3684  00                 [291] (-85)
3685  00                 [292] (-85)
3686  84                 [293] (-85)
3687  01                 [294] (-85)
3688  00                 [295] (-85)
3689  00                 [296] (-85)
368A  84                 [297] (-88)
368B  01                 [298] (-85)
368C  00                 [299] (-80)
368D  00                 [300] (-80)
368E  84                 [301] (-78)
368F  01                 [302] (-78)
3690  00                 [303] (-77)
                         * locals:
3A1E  00                 sizelocvars (0)
                         * upvalues:
3A1F  00                 sizeupvalues (0)
                         ** end of function **

                         
3A20                     ** function [5] definition (level 2)
                         ** start of function **
3A20  00                 string size (0)
                         source name: (none)
3A22  03                 line defined (437)
3A23  B8                 last line defined (440)
3A24  03                 nups (1)
3A25  01                 numparams (1)
3A26  01                 is_vararg (0)
3A27  00                 maxstacksize (5)
                         * code:
3A29  0B                 sizecode (11)
3A2A  5D000000           [01] getglobal  1   0        ; mMovie
3A2E  6440C000           [02] self       1   1   257  ; 386043535
3A32  D9800000           [03] loadk      3   2        ; "Marker.Callout.text"
3A36  13010000           [04] getupval   4   0      
3A3A  62400002           [05] call       1   4   1  
3A3E  5D000000           [06] getglobal  1   0        ; mMovie
3A42  6440C000           [07] self       1   1   257  ; 386043535
3A46  D9C00000           [08] loadk      3   3        ; "Marker.CalloutMiddle.text"
3A4A  13010000           [09] getupval   4   0      
3A4E  62400002           [10] call       1   4   1  
3A52  1E008000           [11] return     0   1      
                         * constants:
3A56  04                 sizek (4)
3A57  04                 const type 4
3A58  07                 string size (7)
3A59  6D4D6F76696500     "mMovie\0"
                         const [0]: "mMovie"
3A60  01                 const type 3
3A61  8F8E0217           const [1]: (386043535)
3A65  04                 const type 4
3A66  14                 string size (20)
3A67  4D61726B65722E43+  "Marker.C"
3A6F  616C6C6F75742E74+  "allout.t"
3A77  65787400           "ext\0"
                         const [2]: "Marker.Callout.text"
3A7B  04                 const type 4
3A7C  1A                 string size (26)
3A7D  4D61726B65722E43+  "Marker.C"
3A85  616C6C6F75744D69+  "alloutMi"
3A8D  64646C652E746578+  "ddle.tex"
3A95  7400               "t\0"
                         const [3]: "Marker.CalloutMiddle.text"
                         * functions:
3A97  00                 sizep (0)
                         * lines:
3A98  0B                 sizelineinfo (11)
                         [pc] (line)
3A99  B6                 [01] (-74)
3A9A  01                 [02] (-74)
3A9B  00                 [03] (-74)
3A9C  00                 [04] (-74)
3A9D  B6                 [05] (-74)
3A9E  01                 [06] (-73)
3A9F  00                 [07] (-73)
3AA0  00                 [08] (-73)
3AA1  B6                 [09] (-73)
3AA2  01                 [10] (-73)
3AA3  00                 [11] (-72)
                         * locals:
3AC5  00                 sizelocvars (0)
                         * upvalues:
3AC6  00                 sizeupvalues (0)
                         ** end of function **

                         * lines:
3AC7  49                 sizelineinfo (73)
                         [pc] (line)
3AC8  0A                 [01] (10)
3AC9  00                 [02] (10)
3ACA  00                 [03] (10)
3ACB  00                 [04] (12)
3ACC  0A                 [05] (16)
3ACD  00                 [06] (18)
3ACE  00                 [07] (20)
3ACF  00                 [08] (21)
3AD0  0A                 [09] (22)
3AD1  00                 [10] (24)
3AD2  00                 [11] (24)
3AD3  00                 [12] (24)
3AD4  0C                 [13] (24)
3AD5  00                 [14] (25)
3AD6  00                 [15] (27)
3AD7  00                 [16] (29)
3AD8  10                 [17] (31)
3AD9  00                 [18] (32)
3ADA  00                 [19] (34)
3ADB  00                 [20] (38)
3ADC  12                 [21] (43)
3ADD  00                 [22] (50)
3ADE  00                 [23] (50)
3ADF  00                 [24] (50)
3AE0  14                 [25] (50)
3AE1  00                 [26] (45)
3AE2  00                 [27] (59)
3AE3  00                 [28] (59)
3AE4  15                 [29] (59)
3AE5  00                 [30] (73)
3AE6  00                 [31] (73)
3AE7  00                 [32] (73)
3AE8  16                 [33] (73)
3AE9  00                 [34] (109)
3AEA  00                 [35] (109)
3AEB  00                 [36] (109)
3AEC  18                 [37] (109)
3AED  00                 [38] (109)
3AEE  00                 [39] (109)
3AEF  00                 [40] (109)
3AF0  18                 [41] (109)
3AF1  00                 [42] (109)
3AF2  00                 [43] (109)
3AF3  00                 [44] (109)
3AF4  18                 [45] (109)
3AF5  00                 [46] (109)
3AF6  00                 [47] (109)
3AF7  00                 [48] (109)
3AF8  18                 [49] (109)
3AF9  00                 [50] (109)
3AFA  00                 [51] (109)
3AFB  00                 [52] (109)
3AFC  19                 [53] (109)
3AFD  00                 [54] (109)
3AFE  00                 [55] (75)
3AFF  00                 [56] (-77)
3B00  1B                 [57] (-77)
3B01  00                 [58] (-77)
3B02  00                 [59] (-77)
3B03  00                 [60] (-77)
3B04  1D                 [61] (-77)
3B05  00                 [62] (-77)
3B06  00                 [63] (-77)
3B07  00                 [64] (-77)
3B08  1F                 [65] (-77)
3B09  00                 [66] (-77)
3B0A  00                 [67] (-77)
3B0B  00                 [68] (111)
3B0C  20                 [69] (-72)
3B0D  00                 [70] (-72)
3B0E  00                 [71] (-72)
3B0F  00                 [72] (-75)
3B10  22                 [73] (-72)
                         * locals:
3BEC  00                 sizelocvars (0)
                         * upvalues:
3BED  00                 sizeupvalues (0)
                         ** end of function **

3BEE                     ** end of chunk **
