1	C:\wlua_dump\path\Lotus\InterfaceTransmission.lua
Pos   Hex Data           Description or Code
------------------------------------------------------------------------
0000                     ** source chunk: C:\wlua_dump\path\Lotus\InterfaceTransmission.lua
                         ** global header start **
0000  7F                 header signature: ""
0001  00                 version (major:minor hex digits)
0002  00                 format (0=official)
0003  00                 endianness (1=little endian)
0004  00                 size of int (bytes)
0005  00                 size of size_t (bytes)
0006  02                 size of Instruction (bytes)
0007  6A                 size of number (bytes)
0008  87                 integral (1=integral)
4135
                         * number type: single
                         * x86 standard (32-bit, little endian, doubles)
                         ** global header end **
_G
UIColor_Shield
UIColor_Health
EE.Interface.Utilities
Lotus.Interface.LotusUtilities
Lotus.Interface.TransmissionUtilities
Lotus.Scripts.Libs.StoryLib
Lotus.Scripts.Nemesis.NemesisGenerator
CommFrameAlt
Friendly
BeaconAid
Scramble
Scramble_NoMouth
Scramble_Strong
Initialize
Update
PreviewClose
QueueClose
Shutdown
TransmissionQueuedFromHud
_T
QueuedTransmissions
table
UI_MODE_IN_SPACE_SHIP
eudicoSender
HeistIntroCamera_Eudico
gGameData
gPlayerProfileMgr
SolarisSyndicate
mTitle
lotusDefaultLevel
lotusTransmission
gPlayerProfileMgr
eudicoDefaultLevel
Eudico Default Level
eudicoSender
littleDuckDefaultLevel
Little Duck Default Level
littleDuckSender
UI_MODE_IN_SPACE_SHIP
ordisTransmission
gPlayerProfileMgr
operatorTransmission
_T
curTransmission
UI_MODE_IN_SPACE_SHIP
ordisTransmission
gPlayerProfileMgr
ordis3DBank
TextBack
_visible
Name
Text
_T
curTransmission
string
_alpha
text
_visible
gRegion
.Message
_visible
text


Message
text
.Message
_alpha
CommFrameFull
gFlashMgr
subtitlesMovie
Subtitle
_y
Name
CommFrame
CommFrameAlt
mMovie
.Name
textHeight
gClient
time
soundInstance
sentence

_T
curTransmission
.ImageOuter.Image
UISys
FlashInstance_EASE_IN
_alpha
ImageOuter.Image
_width
_height
_T
QueuedTransmissions
curTransmission
CheckAdvanceToNext - skipping, 
 has next transmission 
UISys
CheckAdvanceToNext kicked off resloader: 
CheckAdvanceToNext taking
table
_T
curTransmission
ImageOuter.TextBack
_height
TextBackOuter.TextBack
ImageOuter.LineBottom
_y
_T
curTransmission
nemesisTransmissionType
NemesisResLoader
HideTransmissionComms
Name
_color
Waveform
CommFrameFull
UISys
FlashInstance_SMOOTH_STEP
_alpha
_x
ImageOuter.Image
.ImageOuter.Image
FlashInstance_LINEAR
_width
math
portait3DTexture
ImageOuter
PixelateBias
FlashInstance_EASE_IN_OUT_BACK
_visible
mSmoothHead
gRegion
TransmissionDspOverrides
ZERO_VECTOR
Engine
SP_HIGH
SP_VERY_LOW
CurrentConversation
mHubNpc
IsUnmasked
gAvatarType
typeSound
TransmissionSoundInstance
NemesisAlly
LastNemesisHack
avatar
generatedProfile
gNemesis
target
NemesisTransmissionPortraitUseLocal
gGameData
gGameRules
gLotusGameRulesType
mTarget
mName
string
TransmissionOverrideSubtitles
.Name
RZ_HEADSET_DEVICE
_yscale
.Image
FlashInstance_EASE_IN
lotusTransmission
QueuedTransmissions
Lotus_Game
Transmission_TS_HELD
BlockTransmissionFadeOut
gPortraitRegion
Message
text

ImageOuter.Image
_alpha
ImageOuter.TextBack
TextBackOuter.TextBack
CommFrameFull
_height
_y
ImageOuter
_heading
.Name
UISys
FlashInstance_SMOOTH_STEP
_alpha
ImageOuter.Image
_alpha
ImageOuter.TextBack
TextBackOuter.TextBack
CommFrameFull
_height
_y
ImageOuter
_heading
CommFrame
mAnimateMouth
_T
curTransmission
string
Natah
CommFrameFull.ImageOuter.Image
portraitOverlayMaterialAlt
portraitOverlayMaterial
UISys
VB_ProportionalScale
mMovie
transmissionOverrides
useAlt
CommFrameAlt
_x
CommFrameFull
ImageOuter
_visible
.Name
_width
Name
interpTime
scale
Image
ImageAspect
ImageFrame
ImageFrame.Image
_xscale
_yscale
_T
TransmissionOverrideMovie
TransmissionOverrideMainClipName
TransmissionOverrideSoftMask
TransmissionOverrideX
TransmissionOverrideY
ImageOuter.Image
_width
_height
mMovie
_root
_alpha
Lotus.Interface.Libs.DioramaLoader
mSyncAvatars
mPortrait
_x
_y
CommFrame
CommFrameAlt
Engine
CommFrameFull
Message
_visible
Waveform
text

Name
TransmissionFrame
TransmissionMaskedMaterial
.ImageOuter.Image
portraitMaterial
portraitSoftMaskedMaterial
portraitMaskedMaterial
.Name
CommFrameFull.ImageOuter.Image
portraitOverlayMaterial
CommFrameFull.ImageOuter
ImageFrame
ImageFrame.Image
imageMaterial
CommFrameAlt.Name
textAlign
right
gChallengeMgr
gLotusChallengeMgrType
gPortraitRegion
gGameRules
_T
curTransmission
TransmissionOverrideAspect
.ImageOuter
_width
_height
operatorTransmission
gRegion
gPlayerProfileMgr
mOperatorCustomization
OPERATOR
operatorType
PortraitOperatorAvatar
mCustomization
Lotus_Game
Face
operatorAnim
Engine
ATMM_ANIMATION_DRIVEN
PRT_LOOP
location
badlandWarlordSuit
badlandWarlordName
badlandSupport
LotusMissionInfo_BS_DEFENDER
mDefenderInfo
mMissionInfo
mAttackerInfo
ScenarioBeaconInviteInfo
playerName
inviteLoadOutInfo
loadOut
LOT_NORMAL
SUIT_SLOT
mItem
mItemType
Warlord
/Lotus/Types/Player/TennoMainMenuAvatar
InstantKneel
mCustSlot
SLOT_4

_T
ScenarioBeaconInviteInfo
inviteLoadOutInfo
OnPortraitLoaded

KeepTransmissionBgRegion
gBackgroundRegion
mLevel
gFlashMgr
_T
OrdisSpeaking
gPortraitRegion
gFlashMgr
TransmissionOverrideMainClipName
TransmissionOverrideRecycle
KeepTransmissionBgRegion
_T
curTransmission
mMovie
_T
curTransmission
Waveform
_alpha
Engine
mMovie
_T
RadialSolarMapOpen
curTransmission
QueuedTransmissions
_G
StalkerMode
/Lotus/Types/Game/Transmissions/StalkerTransmission
velocityCoords
_root
_x
x
_y
y
TransmissionSoundInstance
pauseTransmissions
gClient
BlockTransmissionFadeOut
TransmissionOverrideFallback
table
UISys
gPlayerProfileMgr
BlockTransmissionsFromSender
TransmissionHistory
nextTime
repeatsRemaining
Updated pulled nextQueued: 
gRegion
gGameData
mPortrait
KeepTransmissionBgRegion
mZoomer
math
_alpha
ImageFrame
_pitch
_heading
ImageFrame.Image
PlasmaStrength
LotusGlitching
Scramble_Strong
.ImageOuter.Image
PixelateBias
Atten
LotusVoxelAmt
mScale
gBackgroundRegion
gPortraitRegion
Scramble
_T
curTransmission
OnTransmissionDone

table
                         
0001                     ** function [0] definition (level 1)
                         ** start of function **
0001  00                 string size (0)
                         source name: (none)
0002  00                 line defined (0)
0003  00                 last line defined (0)
0004  00                 nups (0)
0005  00                 numparams (0)
0006  02                 is_vararg (2)
0007  6A                 maxstacksize (106)
                         * code:
0009  03                 sizecode (391)
000A  19000000           [001] loadk      0   0        ; 0
000E  59400000           [002] loadk      1   1        ; 0
0012  99800000           [003] loadk      2   2        ; 0
0016  D9C00000           [004] loadk      3   3        ; 0
001A  19010100           [005] loadk      4   4        ; 0
001E  59410100           [006] loadk      5   5        ; 0
0022  99810100           [007] loadk      6   6        ; 0
0026  CB010002           [008] newtable   7   4   0    ; array=4, hash=0
002A  1DC20100           [009] getglobal  8   7        ; _G
002E  0E024204           [010] gettable   8   8   264  ; "UIColor_Shield"
0032  59420200           [011] loadk      9   9        ; 29
0036  9DC20100           [012] getglobal  10  7        ; _G
003A  8E824205           [013] gettable   10  10  266  ; "UIColor_Health"
003E  DDC20100           [014] getglobal  11  7        ; _G
0042  CE02C205           [015] gettable   11  11  264  ; "UIColor_Shield"
0046  DB410002           [016] setlist    7   4   1    ; index 1 to 4
004A  19C20200           [017] loadk      8   11       ; 0
004E  52020000           [018] move       9   0      
0052  99020000           [019] loadk      10  0        ; 0
0056  C6020006           [020] loadnil    11  12     
005A  59030000           [021] loadk      13  0        ; 0
005E  99030000           [022] loadk      14  0        ; 0
0062  D9030000           [023] loadk      15  0        ; 0
0066  17040000           [024] loadbool   16  0   0    ; false
006A  59040000           [025] loadk      17  0        ; 0
006E  99040000           [026] loadk      18  0        ; 0
0072  D9040300           [027] loadk      19  12       ; 0
0076  19450300           [028] loadk      20  13       ; -102
007A  59450000           [029] loadk      21  1        ; 0
007E  99050000           [030] loadk      22  0        ; 0
0082  D9050000           [031] loadk      23  0        ; 0
0086  19060000           [032] loadk      24  0        ; 0
008A  5D860300           [033] getglobal  25  14       ; 849075268
008E  99C60300           [034] loadk      26  15       ; "EE.Interface.Utilities"
0092  62860001           [035] call       25  2   2  
0096  9D860300           [036] getglobal  26  14       ; 849075268
009A  D9060400           [037] loadk      27  16       ; "Lotus.Interface.LotusUtilities"
009E  A2860001           [038] call       26  2   2  
00A2  DD860300           [039] getglobal  27  14       ; 849075268
00A6  19470400           [040] loadk      28  17       ; "Lotus.Interface.TransmissionUtilities"
00AA  E2860001           [041] call       27  2   2  
00AE  1D870300           [042] getglobal  28  14       ; 849075268
00B2  59870400           [043] loadk      29  18       ; "Lotus.Scripts.Libs.StoryLib"
00B6  22870001           [044] call       28  2   2  
00BA  5D870300           [045] getglobal  29  14       ; 849075268
00BE  99C70400           [046] loadk      30  19       ; "Lotus.Scripts.Nemesis.NemesisGenerator"
00C2  62870001           [047] call       29  2   2  
00C6  99070500           [048] loadk      30  20       ; 102
00CA  D9070500           [049] loadk      31  20       ; 102
00CE  19480500           [050] loadk      32  21       ; 0
00D2  59480500           [051] loadk      33  21       ; 0
00D6  99080000           [052] loadk      34  0        ; 0
00DA  D9480000           [053] loadk      35  1        ; 0
00DE  06098012           [054] loadnil    36  37     
00E2  99890500           [055] loadk      38  22       ; "CommFrameAlt"
00E6  D9490000           [056] loadk      39  1        ; 0
00EA  060A0014           [057] loadnil    40  40     
00EE  5DCA0500           [058] getglobal  41  23       ; -332969190
00F2  990A0600           [059] loadk      42  24       ; "Friendly"
00F6  628A0001           [060] call       41  2   2  
00FA  9DCA0500           [061] getglobal  42  23       ; -332969190
00FE  D94A0600           [062] loadk      43  25       ; "BeaconAid"
0102  A28A0001           [063] call       42  2   2  
0106  DDCA0500           [064] getglobal  43  23       ; -332969190
010A  198B0600           [065] loadk      44  26       ; "Scramble"
010E  E28A0001           [066] call       43  2   2  
0112  1DCB0500           [067] getglobal  44  23       ; -332969190
0116  59CB0600           [068] loadk      45  27       ; "Scramble_NoMouth"
011A  228B0001           [069] call       44  2   2  
011E  5DCB0500           [070] getglobal  45  23       ; -332969190
0122  990B0700           [071] loadk      46  28       ; "Scramble_Strong"
0126  628B0001           [072] call       45  2   2  
012A  860B0017           [073] loadnil    46  46     
012E  D70B0000           [074] loadbool   47  0   0    ; false
0132  060C0018           [075] loadnil    48  48     
0136  590C0000           [076] loadk      49  0        ; 0
013A  994C0700           [077] loadk      50  29       ; 0
013E  D20C0019           [078] move       51  50     
0142  170D0000           [079] loadbool   52  0   0    ; false
0146  570D0000           [080] loadbool   53  0   0    ; false
014A  860D801B           [081] loadnil    54  55     
014E  170E0000           [082] loadbool   56  0   0    ; false
0152  570E0000           [083] loadbool   57  0   0    ; false
0156  860E001E           [084] loadnil    58  60     
015A  570F0000           [085] loadbool   61  0   0    ; false
015E  998F0700           [086] loadk      62  30       ; 0
0162  D9CF0700           [087] loadk      63  31       ; 0
0166  19100800           [088] loadk      64  32       ; 0
016A  46108020           [089] loadnil    65  65     
016E  99100000           [090] loadk      66  0        ; 0
0172  C6108021           [091] loadnil    67  67     
0176  17110000           [092] loadbool   68  0   0    ; false
017A  46118022           [093] loadnil    69  69     
017E  99110000           [094] loadk      70  0        ; 0
0182  DD510800           [095] getglobal  71  33       ; -1247440829
0186  19920800           [096] loadk      72  34       ; 0
018A  59D20800           [097] loadk      73  35       ; 0
018E  99120900           [098] loadk      74  36       ; 0
0192  D9120000           [099] loadk      75  0        ; 0
0196  E2918002           [100] call       71  5   2  
019A  1D520800           [101] getglobal  72  33       ; -1247440829
019E  59520900           [102] loadk      73  37       ; 0
01A2  99120000           [103] loadk      74  0        ; 0
01A6  D9920900           [104] loadk      75  38       ; 0
01AA  19130000           [105] loadk      76  0        ; 0
01AE  22928002           [106] call       72  5   2  
01B2  5D520800           [107] getglobal  73  33       ; -1247440829
01B6  99120000           [108] loadk      74  0        ; 0
01BA  D9120000           [109] loadk      75  0        ; 0
01BE  19130000           [110] loadk      76  0        ; 0
01C2  62920002           [111] call       73  4   2  
01C6  97128000           [112] loadbool   74  1   0    ; true
01CA  C6128025           [113] loadnil    75  75     
01CE  17130000           [114] loadbool   76  0   0    ; false
01D2  57138000           [115] loadbool   77  1   0    ; true
01D6  97130000           [116] loadbool   78  0   0    ; false
01DA  D7130000           [117] loadbool   79  0   0    ; false
01DE  17140000           [118] loadbool   80  0   0    ; false
01E2  46148028           [119] loadnil    81  81     
01E6  A5140000           [120] closure    82  0      
01EA  E5540000           [121] closure    83  1      
01EE  1200000D           [122] move       0   26     
01F2  25950000           [123] closure    84  2      
01F6  12008027           [124] move       0   79     
01FA  12000026           [125] move       0   76     
01FE  1200000E           [126] move       0   28     
0202  65D50000           [127] closure    85  3      
0206  12000026           [128] move       0   76     
020A  1200000D           [129] move       0   26     
020E  A5150100           [130] closure    86  4      
0212  12000026           [131] move       0   76     
0216  1200000D           [132] move       0   26     
021A  E5550100           [133] closure    87  5      
021E  1200801B           [134] move       0   55     
0222  12000013           [135] move       0   38     
0226  25960100           [136] closure    88  6      
022A  12000029           [137] move       0   82     
022E  12008004           [138] move       0   9      
0232  12000003           [139] move       0   6      
0236  1200001E           [140] move       0   60     
023A  65D60100           [141] closure    89  7      
023E  1200800C           [142] move       0   25     
0242  1200801B           [143] move       0   55     
0246  12008019           [144] move       0   51     
024A  A5160200           [145] closure    90  8      
024E  12008020           [146] move       0   65     
0252  12000006           [147] move       0   12     
0256  12000021           [148] move       0   66     
025A  12000013           [149] move       0   38     
025E  1200801B           [150] move       0   55     
0262  E5560200           [151] closure    91  9      
0266  12008021           [152] move       0   67     
026A  1200801B           [153] move       0   55     
026E  12000013           [154] move       0   38     
0272  1200800C           [155] move       0   25     
0276  25970200           [156] closure    92  10     
027A  12000028           [157] move       0   80     
027E  12000013           [158] move       0   38     
0282  12008028           [159] move       0   81     
0286  1200801B           [160] move       0   55     
028A  1200800C           [161] move       0   25     
028E  65D70200           [162] closure    93  11     
0292  12008020           [163] move       0   65     
0296  12000021           [164] move       0   66     
029A  1200802D           [165] move       0   91     
029E  1200801B           [166] move       0   55     
02A2  A5170300           [167] closure    94  12     
02A6  1200801B           [168] move       0   55     
02AA  12000013           [169] move       0   38     
02AE  12000010           [170] move       0   32     
02B2  12008010           [171] move       0   33     
02B6  1200000C           [172] move       0   24     
02BA  E5570300           [173] closure    95  13     
02BE  1200801D           [174] move       0   59     
02C2  1200001D           [175] move       0   58     
02C6  1200002A           [176] move       0   84     
02CA  1200001E           [177] move       0   60     
02CE  12008004           [178] move       0   9      
02D2  12000001           [179] move       0   2      
02D6  12000005           [180] move       0   10     
02DA  25980300           [181] closure    96  14     
02DE  12008005           [182] move       0   11     
02E2  12000006           [183] move       0   12     
02E6  65D80300           [184] closure    97  15     
02EA  12000005           [185] move       0   10     
02EE  12008004           [186] move       0   9      
02F2  12008000           [187] move       0   1      
02F6  1200801B           [188] move       0   55     
02FA  12000013           [189] move       0   38     
02FE  12000017           [190] move       0   46     
0302  12000026           [191] move       0   76     
0306  12008026           [192] move       0   77     
030A  12008005           [193] move       0   11     
030E  1200800C           [194] move       0   25     
0312  12000006           [195] move       0   12     
0316  12000001           [196] move       0   2      
031A  12008003           [197] move       0   7      
031E  1200000A           [198] move       0   20     
0322  12008008           [199] move       0   17     
0326  12000009           [200] move       0   18     
032A  12008019           [201] move       0   51     
032E  1200001C           [202] move       0   56     
0332  1200800A           [203] move       0   21     
0336  12000010           [204] move       0   32     
033A  12008010           [205] move       0   33     
033E  1200000F           [206] move       0   30     
0342  1200800F           [207] move       0   31     
0346  1200002A           [208] move       0   84     
034A  1200001F           [209] move       0   62     
034E  1200801F           [210] move       0   63     
0352  12008013           [211] move       0   39     
0356  12008018           [212] move       0   49     
035A  1200800D           [213] move       0   27     
035E  12008022           [214] move       0   69     
0362  12000027           [215] move       0   78     
0366  1200002B           [216] move       0   86     
036A  12008001           [217] move       0   3      
036E  1200000B           [218] move       0   22     
0372  12008029           [219] move       0   83     
0376  1200800E           [220] move       0   29     
037A  1200001B           [221] move       0   54     
037E  1200802B           [222] move       0   87     
0382  1200801E           [223] move       0   61     
0386  1200802C           [224] move       0   89     
038A  12000028           [225] move       0   80     
038E  1200002D           [226] move       0   90     
0392  1200800B           [227] move       0   23     
0396  12008025           [228] move       0   75     
039A  12000030           [229] move       0   96     
039E  12000004           [230] move       0   8      
03A2  1200002F           [231] move       0   94     
03A6  12000023           [232] move       0   70     
03AA  12008023           [233] move       0   71     
03AE  12000024           [234] move       0   72     
03B2  12000025           [235] move       0   74     
03B6  12008024           [236] move       0   73     
03BA  12000002           [237] move       0   4      
03BE  1200802F           [238] move       0   95     
03C2  12008002           [239] move       0   5      
03C6  12000008           [240] move       0   16     
03CA  12000003           [241] move       0   6      
03CE  1200002C           [242] move       0   88     
03D2  12008011           [243] move       0   35     
03D6  12000029           [244] move       0   82     
03DA  A5180400           [245] closure    98  16     
03DE  1200001C           [246] move       0   56     
03E2  12000013           [247] move       0   38     
03E6  12008013           [248] move       0   39     
03EA  12008008           [249] move       0   17     
03EE  12008006           [250] move       0   13     
03F2  12000009           [251] move       0   18     
03F6  12000007           [252] move       0   14     
03FA  1200800A           [253] move       0   21     
03FE  12008012           [254] move       0   37     
0402  1200800D           [255] move       0   27     
0406  12000016           [256] move       0   44     
040A  12008019           [257] move       0   51     
040E  12000019           [258] move       0   50     
0412  1200801B           [259] move       0   55     
0416  1200001F           [260] move       0   62     
041A  12000020           [261] move       0   64     
041E  12008007           [262] move       0   15     
0422  1200001A           [263] move       0   52     
0426  12000026           [264] move       0   76     
042A  1200801E           [265] move       0   61     
042E  1200802B           [266] move       0   87     
0432  12008009           [267] move       0   19     
0436  1200000A           [268] move       0   20     
043A  E5580400           [269] closure    99  17     
043E  1200001C           [270] move       0   56     
0442  1200801B           [271] move       0   55     
0446  12000013           [272] move       0   38     
044A  1200801C           [273] move       0   57     
044E  1200000F           [274] move       0   30     
0452  1200800F           [275] move       0   31     
0456  12008019           [276] move       0   51     
045A  12000019           [277] move       0   50     
045E  12000017           [278] move       0   46     
0462  1200802B           [279] move       0   87     
0466  12008006           [280] move       0   13     
046A  12000007           [281] move       0   14     
046E  12008007           [282] move       0   15     
0472  12000014           [283] move       0   40     
0476  12000011           [284] move       0   34     
047A  12008013           [285] move       0   39     
047E  12008025           [286] move       0   75     
0482  E0D80900           [287] setglobal  99  39       ; Initialize
0486  E0180A00           [288] setglobal  99  40       ; 1650753590
048A  E5980400           [289] closure    99  18     
048E  12000012           [290] move       0   36     
0492  1200001C           [291] move       0   56     
0496  1200801B           [292] move       0   55     
049A  12000013           [293] move       0   38     
049E  1200001B           [294] move       0   54     
04A2  1200800D           [295] move       0   27     
04A6  12008014           [296] move       0   41     
04AA  12000015           [297] move       0   42     
04AE  12000018           [298] move       0   48     
04B2  25D90400           [299] closure    100 19     
04B6  12000017           [300] move       0   46     
04BA  1200001C           [301] move       0   56     
04BE  1200801B           [302] move       0   55     
04C2  12008017           [303] move       0   47     
04C6  12008026           [304] move       0   77     
04CA  12008031           [305] move       0   99     
04CE  65190500           [306] closure    101 20     
04D2  12008017           [307] move       0   47     
04D6  1200801A           [308] move       0   53     
04DA  12000018           [309] move       0   48     
04DE  12000008           [310] move       0   16     
04E2  1200800C           [311] move       0   25     
04E6  12000013           [312] move       0   38     
04EA  A5590500           [313] closure    102 21     
04EE  1200801D           [314] move       0   59     
04F2  12008005           [315] move       0   11     
04F6  E5990500           [316] closure    103 22     
04FA  12008005           [317] move       0   11     
04FE  12000006           [318] move       0   12     
0502  12008004           [319] move       0   9      
0506  12000002           [320] move       0   4      
050A  12000005           [321] move       0   10     
050E  1200801B           [322] move       0   55     
0512  12000013           [323] move       0   38     
0516  12008025           [324] move       0   75     
051A  25DA0500           [325] closure    104 23     
051E  1200801B           [326] move       0   55     
0522  12000022           [327] move       0   68     
0526  12008033           [328] move       0   103    
052A  1200802E           [329] move       0   93     
052E  1200002E           [330] move       0   92     
0532  12008032           [331] move       0   101    
0536  12000032           [332] move       0   100    
053A  1200801D           [333] move       0   59     
053E  1200001D           [334] move       0   58     
0542  1200001C           [335] move       0   56     
0546  1200800C           [336] move       0   25     
054A  12008005           [337] move       0   11     
054E  12000006           [338] move       0   12     
0552  1200001E           [339] move       0   60     
0556  12000029           [340] move       0   82     
055A  1200800D           [341] move       0   27     
055E  1200802A           [342] move       0   85     
0562  12000031           [343] move       0   98     
0566  12008004           [344] move       0   9      
056A  12008000           [345] move       0   1      
056E  12000005           [346] move       0   10     
0572  1200002A           [347] move       0   84     
0576  1200801A           [348] move       0   53     
057A  1200001A           [349] move       0   52     
057E  12008017           [350] move       0   47     
0582  12000017           [351] move       0   46     
0586  12008030           [352] move       0   97     
058A  12000013           [353] move       0   38     
058E  12000011           [354] move       0   34     
0592  1200800A           [355] move       0   21     
0596  12008008           [356] move       0   17     
059A  12000009           [357] move       0   18     
059E  12008012           [358] move       0   37     
05A2  12008015           [359] move       0   43     
05A6  12000016           [360] move       0   44     
05AA  12008027           [361] move       0   79     
05AE  12008016           [362] move       0   45     
05B2  12000027           [363] move       0   78     
05B6  12008013           [364] move       0   39     
05BA  12008022           [365] move       0   69     
05BE  1200000C           [366] move       0   24     
05C2  12000003           [367] move       0   6      
05C6  12008011           [368] move       0   35     
05CA  205A0A00           [369] setglobal  104 41       ; Update
05CE  209A0A00           [370] setglobal  104 42       ; -1938777623
05D2  251A0600           [371] closure    104 24     
05D6  12000033           [372] move       0   102    
05DA  20DA0A00           [373] setglobal  104 43       ; PreviewClose
05DE  201A0B00           [374] setglobal  104 44       ; -1383812347
05E2  255A0600           [375] closure    104 25     
05E6  12000022           [376] move       0   68     
05EA  205A0B00           [377] setglobal  104 45       ; QueueClose
05EE  209A0B00           [378] setglobal  104 46       ; -1400957574
05F2  259A0600           [379] closure    104 26     
05F6  1200001E           [380] move       0   60     
05FA  12008032           [381] move       0   101    
05FE  1200001C           [382] move       0   56     
0602  1200801B           [383] move       0   55     
0606  20DA0B00           [384] setglobal  104 47       ; Shutdown
060A  201A0C00           [385] setglobal  104 48       ; 1012367267
060E  0B1A0000           [386] newtable   104 0   0    ; array=0, hash=0
0612  65DA0600           [387] closure    105 27     
0616  12000034           [388] move       0   104    
061A  605A0C00           [389] setglobal  105 49       ; TransmissionQueuedFromHud
061E  609A0C00           [390] setglobal  105 50       ; -179571231
0622  1E008000           [391] return     0   1      
                         * constants:
0626  33                 sizek (51)
0627  03                 const type 3
0628  00000000           const [0]: (0)
062C  03                 const type 3
062D  0000803F           const [1]: (0)
0631  03                 const type 3
0632  00004040           const [2]: (0)
0636  03                 const type 3
0637  00008040           const [3]: (0)
063B  03                 const type 3
063C  0000A040           const [4]: (0)
0640  03                 const type 3
0641  0000C040           const [5]: (0)
0645  03                 const type 3
0646  0000E040           const [6]: (0)
064A  04                 const type 4
064B  03                 string size (3)
064C  5F4700             "_G\0"
                         const [7]: "_G"
064F  04                 const type 4
0650  0F                 string size (15)
0651  5549436F6C6F725F+  "UIColor_"
0659  536869656C6400     "Shield\0"
                         const [8]: "UIColor_Shield"
0660  03                 const type 3
0661  1DA77F4B           const [9]: (29)
0665  04                 const type 4
0666  0F                 string size (15)
0667  5549436F6C6F725F+  "UIColor_"
066F  4865616C746800     "Health\0"
                         const [10]: "UIColor_Health"
0676  03                 const type 3
0677  00000040           const [11]: (0)
067B  03                 const type 3
067C  0000C842           const [12]: (0)
0680  03                 const type 3
0681  9A99993E           const [13]: (-102)
0685  01                 const type 3
0686  44DC9B32           const [14]: (849075268)
068A  04                 const type 4
068B  17                 string size (23)
068C  45452E496E746572+  "EE.Inter"
0694  666163652E557469+  "face.Uti"
069C  6C697469657300     "lities\0"
                         const [15]: "EE.Interface.Utilities"
06A3  04                 const type 4
06A4  1F                 string size (31)
06A5  4C6F7475732E496E+  "Lotus.In"
06AD  746572666163652E+  "terface."
06B5  4C6F747573557469+  "LotusUti"
06BD  6C697469657300     "lities\0"
                         const [16]: "Lotus.Interface.LotusUtilities"
06C4  04                 const type 4
06C5  26                 string size (38)
06C6  4C6F7475732E496E+  "Lotus.In"
06CE  746572666163652E+  "terface."
06D6  5472616E736D6973+  "Transmis"
06DE  73696F6E5574696C+  "sionUtil"
06E6  697469657300       "ities\0"
                         const [17]: "Lotus.Interface.TransmissionUtilities"
06EC  04                 const type 4
06ED  1C                 string size (28)
06EE  4C6F7475732E5363+  "Lotus.Sc"
06F6  72697074732E4C69+  "ripts.Li"
06FE  62732E53746F7279+  "bs.Story"
0706  4C696200           "Lib\0"
                         const [18]: "Lotus.Scripts.Libs.StoryLib"
070A  04                 const type 4
070B  27                 string size (39)
070C  4C6F7475732E5363+  "Lotus.Sc"
0714  72697074732E4E65+  "ripts.Ne"
071C  6D657369732E4E65+  "mesis.Ne"
0724  6D6573697347656E+  "mesisGen"
072C  657261746F7200     "erator\0"
                         const [19]: "Lotus.Scripts.Nemesis.NemesisGenerator"
0733  03                 const type 3
0734  66262A43           const [20]: (102)
0738  03                 const type 3
0739  0000F842           const [21]: (0)
073D  04                 const type 4
073E  0D                 string size (13)
073F  436F6D6D4672616D+  "CommFram"
0747  65416C7400         "eAlt\0"
                         const [22]: "CommFrameAlt"
074C  01                 const type 3
074D  1A4B27EC           const [23]: (-332969190)
0751  04                 const type 4
0752  09                 string size (9)
0753  467269656E646C79+  "Friendly"
075B  00                 "\0"
                         const [24]: "Friendly"
075C  04                 const type 4
075D  0A                 string size (10)
075E  426561636F6E4169+  "BeaconAi"
0766  6400               "d\0"
                         const [25]: "BeaconAid"
0768  04                 const type 4
0769  09                 string size (9)
076A  536372616D626C65+  "Scramble"
0772  00                 "\0"
                         const [26]: "Scramble"
0773  04                 const type 4
0774  11                 string size (17)
0775  536372616D626C65+  "Scramble"
077D  5F4E6F4D6F757468+  "_NoMouth"
0785  00                 "\0"
                         const [27]: "Scramble_NoMouth"
0786  04                 const type 4
0787  10                 string size (16)
0788  536372616D626C65+  "Scramble"
0790  5F5374726F6E6700   "_Strong\0"
                         const [28]: "Scramble_Strong"
0798  03                 const type 3
0799  0000B442           const [29]: (0)
079D  03                 const type 3
079E  00809D43           const [30]: (0)
07A2  03                 const type 3
07A3  00005243           const [31]: (0)
07A7  03                 const type 3
07A8  00002042           const [32]: (0)
07AC  01                 const type 3
07AD  4390A5B5           const [33]: (-1247440829)
07B1  03                 const type 3
07B2  00006842           const [34]: (0)
07B6  03                 const type 3
07B7  00003143           const [35]: (0)
07BB  03                 const type 3
07BC  00007C43           const [36]: (0)
07C0  03                 const type 3
07C1  00001443           const [37]: (0)
07C5  03                 const type 3
07C6  00005343           const [38]: (0)
07CA  04                 const type 4
07CB  0B                 string size (11)
07CC  496E697469616C69+  "Initiali"
07D4  7A6500             "ze\0"
                         const [39]: "Initialize"
07D7  01                 const type 3
07D8  36806462           const [40]: (1650753590)
07DC  04                 const type 4
07DD  07                 string size (7)
07DE  55706461746500     "Update\0"
                         const [41]: "Update"
07E5  01                 const type 3
07E6  E999708C           const [42]: (-1938777623)
07EA  04                 const type 4
07EB  0D                 string size (13)
07EC  5072657669657743+  "PreviewC"
07F4  6C6F736500         "lose\0"
                         const [43]: "PreviewClose"
07F9  01                 const type 3
07FA  05B384AD           const [44]: (-1383812347)
07FE  04                 const type 4
07FF  0B                 string size (11)
0800  5175657565436C6F+  "QueueClo"
0808  736500             "se\0"
                         const [45]: "QueueClose"
080B  01                 const type 3
080C  7A157FAC           const [46]: (-1400957574)
0810  04                 const type 4
0811  09                 string size (9)
0812  53687574646F776E+  "Shutdown"
081A  00                 "\0"
                         const [47]: "Shutdown"
081B  01                 const type 3
081C  A37F573C           const [48]: (1012367267)
0820  04                 const type 4
0821  1A                 string size (26)
0822  5472616E736D6973+  "Transmis"
082A  73696F6E51756575+  "sionQueu"
0832  656446726F6D4875+  "edFromHu"
083A  6400               "d\0"
                         const [49]: "TransmissionQueuedFromHud"
083C  01                 const type 3
083D  E1F54BF5           const [50]: (-179571231)
                         * functions:
0841  1C                 sizep (28)
                         
0842                     ** function [0] definition (level 2)
                         ** start of function **
0842  00                 string size (0)
                         source name: (none)
0844  01                 line defined (144)
0845  95                 last line defined (149)
0846  01                 nups (0)
0847  00                 numparams (1)
0848  01                 is_vararg (0)
0849  00                 maxstacksize (5)
                         * code:
084B  1D                 sizecode (29)
084C  5D000000           [01] getglobal  1   0        ; _T
0850  4E40C000           [02] gettable   1   1   257  ; "QueuedTransmissions"
0854  58000000           [03] test       1       0    ; to [5] if true
0858  1A000480           [04] jmp        17           ; to [22]
085C  5D800000           [05] getglobal  1   2        ; 1074689893
0860  9D000000           [06] getglobal  2   0        ; _T
0864  8E404001           [07] gettable   2   2   257  ; "QueuedTransmissions"
0868  8EC04001           [08] gettable   2   2   259  ; 0
086C  62800001           [09] call       1   2   2  
0870  58400000           [10] test       1       1    ; to [12] if false
0874  1A400280           [11] jmp        10           ; to [22]
0878  5D000000           [12] getglobal  1   0        ; _T
087C  4E40C000           [13] gettable   1   1   257  ; "QueuedTransmissions"
0880  4EC0C000           [14] gettable   1   1   259  ; 0
0884  6400C100           [15] self       1   1   260  ; 455421500
0888  62800001           [16] call       1   2   2  
088C  A4004100           [17] self       2   0   260  ; 455421500
0890  A2800001           [18] call       2   2   2  
fail op	35
0894  23808000           [19] close      0  
0898  1A000080           [20] jmp        1            ; to [22]
089C  1E008000           [21] return     0   1      
08A0  5D400100           [22] getglobal  1   5        ; table
08A4  4E80C100           [23] gettable   1   1   262  ; -431682403
08A8  9D000000           [24] getglobal  2   0        ; _T
08AC  8E404001           [25] gettable   2   2   257  ; "QueuedTransmissions"
08B0  D9C00000           [26] loadk      3   3        ; 0
08B4  12010000           [27] move       4   0      
08B8  62400002           [28] call       1   4   1  
08BC  1E008000           [29] return     0   1      
                         * constants:
08C0  07                 sizek (7)
08C1  04                 const type 4
08C2  03                 string size (3)
08C3  5F5400             "_T\0"
                         const [0]: "_T"
08C6  04                 const type 4
08C7  14                 string size (20)
08C8  5175657565645472+  "QueuedTr"
08D0  616E736D69737369+  "ansmissi"
08D8  6F6E7300           "ons\0"
                         const [1]: "QueuedTransmissions"
08DC  01                 const type 3
08DD  65770E40           const [2]: (1074689893)
08E1  03                 const type 3
08E2  0000803F           const [3]: (0)
08E6  01                 const type 3
08E7  3C2E251B           const [4]: (455421500)
08EB  04                 const type 4
08EC  06                 string size (6)
08ED  7461626C6500       "table\0"
                         const [5]: "table"
08F3  01                 const type 3
08F4  9D0C45E6           const [6]: (-431682403)
                         * functions:
08F8  00                 sizep (0)
                         * lines:
08F9  1D                 sizelineinfo (29)
                         [pc] (line)
08FA  91                 [01] (-111)
08FB  00                 [02] (-111)
08FC  00                 [03] (-111)
08FD  00                 [04] (-111)
08FE  91                 [05] (-111)
08FF  00                 [06] (-111)
0900  00                 [07] (-111)
0901  00                 [08] (-111)
0902  91                 [09] (-111)
0903  00                 [10] (-111)
0904  00                 [11] (-111)
0905  00                 [12] (-111)
0906  91                 [13] (-111)
0907  00                 [14] (-111)
0908  00                 [15] (-111)
0909  00                 [16] (-111)
090A  91                 [17] (-111)
090B  00                 [18] (-111)
090C  00                 [19] (-111)
090D  00                 [20] (-111)
090E  91                 [21] (-110)
090F  00                 [22] (-108)
0910  00                 [23] (-108)
0911  00                 [24] (-108)
0912  91                 [25] (-108)
0913  00                 [26] (-108)
0914  00                 [27] (-108)
0915  00                 [28] (-108)
0916  91                 [29] (-107)
                         * locals:
096E  00                 sizelocvars (0)
                         * upvalues:
096F  00                 sizeupvalues (0)
                         ** end of function **

                         
0970                     ** function [1] definition (level 2)
                         ** start of function **
0970  00                 string size (0)
                         source name: (none)
0972  01                 line defined (151)
0973  A5                 last line defined (165)
0974  01                 nups (1)
0975  01                 numparams (1)
0976  01                 is_vararg (0)
0977  00                 maxstacksize (8)
                         * code:
0979  40                 sizecode (64)
097A  53000000           [01] getupval   1   0      
097E  4E00C000           [02] gettable   1   1   256  ; -2065906648
0982  62808000           [03] call       1   1   2  
0986  93000000           [04] getupval   2   0      
098A  8E404001           [05] gettable   2   2   257  ; "UI_MODE_IN_SPACE_SHIP"
fail op	35
098E  63808000           [06] close      1  
0992  1AC00280           [07] jmp        12           ; to [20]
0996  64804000           [08] self       1   0   258  ; 160353921
099A  62800001           [09] call       1   2   2  
099E  9DC00000           [10] getglobal  2   3        ; eudicoSender
fail op	35
09A2  23808000           [11] close      0  
09A6  1A800180           [12] jmp        7            ; to [20]
09AA  64004100           [13] self       1   0   260  ; -830264577
09AE  62800001           [14] call       1   2   2  
09B2  9D400100           [15] getglobal  2   5        ; -332969190
09B6  D9800100           [16] loadk      3   6        ; "HeistIntroCamera_Eudico"
09BA  A2800001           [17] call       2   2   2  
fail op	35
09BE  23808000           [18] close      0  
09C2  1A400080           [19] jmp        2            ; to [22]
09C6  57000000           [20] loadbool   1   0   0    ; false
09CA  5E000001           [21] return     1   2      
09CE  46008000           [22] loadnil    1   1      
09D2  9DC00100           [23] getglobal  2   7        ; 1074689893
09D6  DD000200           [24] getglobal  3   8        ; gGameData
09DA  A2800001           [25] call       2   2   2  
09DE  98400000           [26] test       2       1    ; to [28] if false
09E2  1A000680           [27] jmp        25           ; to [53]
09E6  9D400200           [28] getglobal  2   9        ; gPlayerProfileMgr
09EA  A4804201           [29] self       2   2   266  ; 569342746
09EE  19C10200           [30] loadk      4   11       ; 0
09F2  A2808001           [31] call       2   3   2  
09F6  DDC00100           [32] getglobal  3   7        ; 1074689893
09FA  12010001           [33] move       4   2      
09FE  E2800001           [34] call       3   2   2  
0A02  D8400000           [35] test       3       1    ; to [37] if false
0A06  1A000180           [36] jmp        5            ; to [42]
0A0A  E4004301           [37] self       3   2   268  ; 1055613230
0A0E  E2800001           [38] call       3   2   2  
0A12  E440C301           [39] self       3   3   269  ; -729699239
0A16  E2800001           [40] call       3   2   2  
0A1A  1A400080           [41] jmp        2            ; to [44]
0A1E  D7400000           [42] loadbool   3   0   1    ; false, to [44]
0A22  D7008000           [43] loadbool   3   1   0    ; true
0A26  D8400000           [44] test       3       1    ; to [46] if false
0A2A  1A800180           [45] jmp        7            ; to [53]
0A2E  1D010200           [46] getglobal  4   8        ; gGameData
0A32  24814302           [47] self       4   4   270  ; -618313505
0A36  9D410100           [48] getglobal  6   5        ; -332969190
0A3A  D9C10300           [49] loadk      7   15       ; "SolarisSyndicate"
0A3E  A2010001           [50] call       6   2   0  
0A42  22810000           [51] call       4   0   2  
0A46  52000002           [52] move       1   4      
0A4A  1DC10100           [53] getglobal  4   7        ; 1074689893
0A4E  52018000           [54] move       5   1      
0A52  22810001           [55] call       4   2   2  
0A56  18410000           [56] test       4       1    ; to [58] if false
0A5A  1A800080           [57] jmp        3            ; to [61]
0A5E  0E01C400           [58] gettable   4   1   272  ; "mTitle"
fail op	35
0A62  63404402           [59] close      1  
0A66  1A000080           [60] jmp        1            ; to [62]
0A6A  17410000           [61] loadbool   4   0   1    ; false, to [63]
0A6E  17018000           [62] loadbool   4   1   0    ; true
0A72  1E010001           [63] return     4   2      
0A76  1E008000           [64] return     0   1      
                         * constants:
0A7A  12                 sizek (18)
0A7B  01                 const type 3
0A7C  28C4DC84           const [0]: (-2065906648)
0A80  04                 const type 4
0A81  16                 string size (22)
0A82  55495F4D4F44455F+  "UI_MODE_"
0A8A  494E5F5350414345+  "IN_SPACE"
0A92  5F5348495000       "_SHIP\0"
                         const [1]: "UI_MODE_IN_SPACE_SHIP"
0A98  01                 const type 3
0A99  81CE8E09           const [2]: (160353921)
0A9D  04                 const type 4
0A9E  0D                 string size (13)
0A9F  65756469636F5365+  "eudicoSe"
0AA7  6E64657200         "nder\0"
                         const [3]: "eudicoSender"
0AAC  01                 const type 3
0AAD  FF2A83CE           const [4]: (-830264577)
0AB1  01                 const type 3
0AB2  1A4B27EC           const [5]: (-332969190)
0AB6  04                 const type 4
0AB7  18                 string size (24)
0AB8  4865697374496E74+  "HeistInt"
0AC0  726F43616D657261+  "roCamera"
0AC8  5F45756469636F00   "_Eudico\0"
                         const [6]: "HeistIntroCamera_Eudico"
0AD0  01                 const type 3
0AD1  65770E40           const [7]: (1074689893)
0AD5  04                 const type 4
0AD6  0A                 string size (10)
0AD7  6747616D65446174+  "gGameDat"
0ADF  6100               "a\0"
                         const [8]: "gGameData"
0AE1  04                 const type 4
0AE2  12                 string size (18)
0AE3  67506C6179657250+  "gPlayerP"
0AEB  726F66696C654D67+  "rofileMg"
0AF3  7200               "r\0"
                         const [9]: "gPlayerProfileMgr"
0AF5  01                 const type 3
0AF6  1A7BEF21           const [10]: (569342746)
0AFA  03                 const type 3
0AFB  00000000           const [11]: (0)
0AFF  01                 const type 3
0B00  2E61EB3E           const [12]: (1055613230)
0B04  01                 const type 3
0B05  59AC81D4           const [13]: (-729699239)
0B09  01                 const type 3
0B0A  DF4825DB           const [14]: (-618313505)
0B0E  04                 const type 4
0B0F  11                 string size (17)
0B10  536F6C6172697353+  "SolarisS"
0B18  796E646963617465+  "yndicate"
0B20  00                 "\0"
                         const [15]: "SolarisSyndicate"
0B21  04                 const type 4
0B22  07                 string size (7)
0B23  6D5469746C6500     "mTitle\0"
                         const [16]: "mTitle"
0B2A  03                 const type 3
0B2B  0000A040           const [17]: (0)
                         * functions:
0B2F  00                 sizep (0)
                         * lines:
0B30  40                 sizelineinfo (64)
                         [pc] (line)
0B31  98                 [01] (-104)
0B32  00                 [02] (-104)
0B33  00                 [03] (-104)
0B34  00                 [04] (-104)
0B35  98                 [05] (-104)
0B36  00                 [06] (-104)
0B37  00                 [07] (-104)
0B38  00                 [08] (-104)
0B39  98                 [09] (-104)
0B3A  00                 [10] (-104)
0B3B  00                 [11] (-104)
0B3C  00                 [12] (-104)
0B3D  98                 [13] (-104)
0B3E  00                 [14] (-104)
0B3F  00                 [15] (-104)
0B40  00                 [16] (-104)
0B41  98                 [17] (-104)
0B42  00                 [18] (-104)
0B43  00                 [19] (-104)
0B44  00                 [20] (-103)
0B45  98                 [21] (-103)
0B46  00                 [22] (-100)
0B47  00                 [23] (-99)
0B48  00                 [24] (-99)
0B49  98                 [25] (-99)
0B4A  00                 [26] (-99)
0B4B  00                 [27] (-99)
0B4C  00                 [28] (-98)
0B4D  98                 [29] (-98)
0B4E  00                 [30] (-98)
0B4F  00                 [31] (-98)
0B50  00                 [32] (-97)
0B51  98                 [33] (-97)
0B52  00                 [34] (-97)
0B53  00                 [35] (-97)
0B54  00                 [36] (-97)
0B55  98                 [37] (-97)
0B56  00                 [38] (-97)
0B57  00                 [39] (-97)
0B58  00                 [40] (-97)
0B59  98                 [41] (-97)
0B5A  00                 [42] (-97)
0B5B  00                 [43] (-97)
0B5C  00                 [44] (-96)
0B5D  98                 [45] (-96)
0B5E  00                 [46] (-95)
0B5F  00                 [47] (-95)
0B60  00                 [48] (-95)
0B61  98                 [49] (-95)
0B62  00                 [50] (-95)
0B63  00                 [51] (-95)
0B64  00                 [52] (-95)
0B65  98                 [53] (-92)
0B66  00                 [54] (-92)
0B67  00                 [55] (-92)
0B68  00                 [56] (-92)
0B69  98                 [57] (-92)
0B6A  00                 [58] (-92)
0B6B  00                 [59] (-92)
0B6C  00                 [60] (-92)
0B6D  98                 [61] (-92)
0B6E  00                 [62] (-92)
0B6F  00                 [63] (-92)
0B70  00                 [64] (-91)
                         * locals:
0C31  00                 sizelocvars (0)
                         * upvalues:
0C32  00                 sizeupvalues (0)
                         ** end of function **

                         
0C33                     ** function [2] definition (level 2)
                         ** start of function **
0C33  00                 string size (0)
                         source name: (none)
0C35  01                 line defined (167)
0C36  D1                 last line defined (209)
0C37  01                 nups (3)
0C38  03                 numparams (1)
0C39  01                 is_vararg (0)
0C3A  00                 maxstacksize (10)
                         * code:
0C3C  76                 sizecode (118)
0C3D  57000000           [001] loadbool   1   0   0    ; false
fail op	8
0C41  48000000           [002] setupval   1   0      
0C45  53008000           [003] getupval   1   1      
0C49  58000000           [004] test       1       0    ; to [6] if true
0C4D  1A400080           [005] jmp        2            ; to [8]
0C51  46008000           [006] loadnil    1   1      
0C55  5E000001           [007] return     1   2      
0C59  64004000           [008] self       1   0   256  ; -924922524
0C5D  62800001           [009] call       1   2   2  
0C61  9D400000           [010] getglobal  2   1        ; 1074689893
0C65  D2008000           [011] move       3   1      
0C69  A2800001           [012] call       2   2   2  
0C6D  98400000           [013] test       2       1    ; to [15] if false
0C71  1A401980           [014] jmp        102          ; to [117]
0C75  9D800000           [015] getglobal  2   2        ; lotusDefaultLevel
fail op	35
0C79  23808000           [016] close      0  
0C7D  1A400880           [017] jmp        34           ; to [52]
0C81  A4C04000           [018] self       2   0   259  ; -1957065004
0C85  1D010100           [019] getglobal  4   4        ; lotusTransmission
0C89  A2808001           [020] call       2   3   2  
0C8D  98000000           [021] test       2       0    ; to [23] if true
0C91  1A401780           [022] jmp        94           ; to [117]
0C95  93000001           [023] getupval   2   2      
0C99  8E404101           [024] gettable   2   2   261  ; -1798896548
0C9D  A2808000           [025] call       2   1   2  
0CA1  98000000           [026] test       2       0    ; to [28] if true
0CA5  1A001680           [027] jmp        89           ; to [117]
0CA9  9D800100           [028] getglobal  2   6        ; gPlayerProfileMgr
0CAD  A4C04101           [029] self       2   2   263  ; 569342746
0CB1  19010200           [030] loadk      4   8        ; 0
0CB5  A2808001           [031] call       2   3   2  
0CB9  DD400000           [032] getglobal  3   1        ; 1074689893
0CBD  12010001           [033] move       4   2      
0CC1  E2800001           [034] call       3   2   2  
0CC5  D8400000           [035] test       3       1    ; to [37] if false
0CC9  1A000180           [036] jmp        5            ; to [42]
0CCD  E4404201           [037] self       3   2   265  ; 1055613230
0CD1  E2800001           [038] call       3   2   2  
0CD5  E480C201           [039] self       3   3   266  ; -729699239
0CD9  E2800001           [040] call       3   2   2  
0CDD  1A400080           [041] jmp        2            ; to [44]
0CE1  D7400000           [042] loadbool   3   0   1    ; false, to [44]
0CE5  D7008000           [043] loadbool   3   1   0    ; true
0CE9  D8400000           [044] test       3       1    ; to [46] if false
0CED  1A801180           [045] jmp        71           ; to [117]
0CF1  17018000           [046] loadbool   4   1   0    ; true
fail op	8
0CF5  08010000           [047] setupval   4   0      
0CF9  24C14200           [048] self       4   0   267  ; -1461777281
0CFD  22810001           [049] call       4   2   2  
0D01  52000002           [050] move       1   4      
0D05  1A001080           [051] jmp        65           ; to [117]
0D09  1D010300           [052] getglobal  4   12       ; eudicoDefaultLevel
fail op	35
0D0D  23008100           [053] close      0  
0D11  1A400780           [054] jmp        30           ; to [85]
0D15  1D410300           [055] getglobal  4   13       ; -1817107093
0D19  59810300           [056] loadk      5   14       ; "Eudico Default Level"
0D1D  22410001           [057] call       4   2   1  
0D21  24C14300           [058] self       4   0   271  ; 160353921
0D25  22810001           [059] call       4   2   2  
0D29  5D010400           [060] getglobal  5   16       ; eudicoSender
fail op	35
0D2D  23400102           [061] close      0  
0D31  1A400D80           [062] jmp        54           ; to [117]
0D35  1D810100           [063] getglobal  4   6        ; gPlayerProfileMgr
0D39  24C14102           [064] self       4   4   263  ; 569342746
0D3D  99010200           [065] loadk      6   8        ; 0
0D41  22818001           [066] call       4   3   2  
0D45  5D410000           [067] getglobal  5   1        ; 1074689893
0D49  92010002           [068] move       6   4      
0D4D  62810001           [069] call       5   2   2  
0D51  58410000           [070] test       5       1    ; to [72] if false
0D55  1A000180           [071] jmp        5            ; to [77]
0D59  64414202           [072] self       5   4   265  ; 1055613230
0D5D  62810001           [073] call       5   2   2  
0D61  6481C202           [074] self       5   5   266  ; -729699239
0D65  62810001           [075] call       5   2   2  
0D69  1A400080           [076] jmp        2            ; to [79]
0D6D  57410000           [077] loadbool   5   0   1    ; false, to [79]
0D71  57018000           [078] loadbool   5   1   0    ; true
0D75  58010000           [079] test       5       0    ; to [81] if true
0D79  1AC00880           [080] jmp        36           ; to [117]
0D7D  A4C14200           [081] self       6   0   267  ; -1461777281
0D81  A2810001           [082] call       6   2   2  
0D85  52000003           [083] move       1   6      
0D89  1AC00780           [084] jmp        32           ; to [117]
0D8D  9D410400           [085] getglobal  6   17       ; littleDuckDefaultLevel
fail op	35
0D91  23808100           [086] close      0  
0D95  1A000780           [087] jmp        29           ; to [117]
0D99  9D410300           [088] getglobal  6   13       ; -1817107093
0D9D  D9810400           [089] loadk      7   18       ; "Little Duck Default Level"
0DA1  A2410001           [090] call       6   2   1  
0DA5  A4C14300           [091] self       6   0   271  ; 160353921
0DA9  A2810001           [092] call       6   2   2  
0DAD  DDC10400           [093] getglobal  7   19       ; littleDuckSender
fail op	35
0DB1  23C00103           [094] close      0  
0DB5  1A000580           [095] jmp        21           ; to [117]
0DB9  9D810100           [096] getglobal  6   6        ; gPlayerProfileMgr
0DBD  A4C14103           [097] self       6   6   263  ; 569342746
0DC1  19020200           [098] loadk      8   8        ; 0
0DC5  A2818001           [099] call       6   3   2  
0DC9  DD410000           [100] getglobal  7   1        ; 1074689893
0DCD  12020003           [101] move       8   6      
0DD1  E2810001           [102] call       7   2   2  
0DD5  D8410000           [103] test       7       1    ; to [105] if false
0DD9  1A000180           [104] jmp        5            ; to [110]
0DDD  E4414203           [105] self       7   6   265  ; 1055613230
0DE1  E2810001           [106] call       7   2   2  
0DE5  E481C203           [107] self       7   7   266  ; -729699239
0DE9  E2810001           [108] call       7   2   2  
0DED  1A400080           [109] jmp        2            ; to [112]
0DF1  D7410000           [110] loadbool   7   0   1    ; false, to [112]
0DF5  D7018000           [111] loadbool   7   1   0    ; true
0DF9  D8010000           [112] test       7       0    ; to [114] if true
0DFD  1A800080           [113] jmp        3            ; to [117]
0E01  24C24200           [114] self       8   0   267  ; -1461777281
0E05  22820001           [115] call       8   2   2  
0E09  52000004           [116] move       1   8      
0E0D  5E000001           [117] return     1   2      
0E11  1E008000           [118] return     0   1      
                         * constants:
0E15  14                 sizek (20)
0E16  01                 const type 3
0E17  64CDDEC8           const [0]: (-924922524)
0E1B  01                 const type 3
0E1C  65770E40           const [1]: (1074689893)
0E20  04                 const type 4
0E21  12                 string size (18)
0E22  6C6F747573446566+  "lotusDef"
0E2A  61756C744C657665+  "aultLeve"
0E32  6C00               "l\0"
                         const [2]: "lotusDefaultLevel"
0E34  01                 const type 3
0E35  D48E598B           const [3]: (-1957065004)
0E39  04                 const type 4
0E3A  12                 string size (18)
0E3B  6C6F747573547261+  "lotusTra"
0E43  6E736D697373696F+  "nsmissio"
0E4B  6E00               "n\0"
                         const [4]: "lotusTransmission"
0E4D  01                 const type 3
0E4E  5C04C794           const [5]: (-1798896548)
0E52  04                 const type 4
0E53  12                 string size (18)
0E54  67506C6179657250+  "gPlayerP"
0E5C  726F66696C654D67+  "rofileMg"
0E64  7200               "r\0"
                         const [6]: "gPlayerProfileMgr"
0E66  01                 const type 3
0E67  1A7BEF21           const [7]: (569342746)
0E6B  03                 const type 3
0E6C  00000000           const [8]: (0)
0E70  01                 const type 3
0E71  2E61EB3E           const [9]: (1055613230)
0E75  01                 const type 3
0E76  59AC81D4           const [10]: (-729699239)
0E7A  01                 const type 3
0E7B  7F0CDFA8           const [11]: (-1461777281)
0E7F  04                 const type 4
0E80  13                 string size (19)
0E81  65756469636F4465+  "eudicoDe"
0E89  6661756C744C6576+  "faultLev"
0E91  656C00             "el\0"
                         const [12]: "eudicoDefaultLevel"
0E94  01                 const type 3
0E95  6B25B193           const [13]: (-1817107093)
0E99  04                 const type 4
0E9A  15                 string size (21)
0E9B  45756469636F2044+  "Eudico D"
0EA3  656661756C74204C+  "efault L"
0EAB  6576656C00         "evel\0"
                         const [14]: "Eudico Default Level"
0EB0  01                 const type 3
0EB1  81CE8E09           const [15]: (160353921)
0EB5  04                 const type 4
0EB6  0D                 string size (13)
0EB7  65756469636F5365+  "eudicoSe"
0EBF  6E64657200         "nder\0"
                         const [16]: "eudicoSender"
0EC4  04                 const type 4
0EC5  17                 string size (23)
0EC6  6C6974746C654475+  "littleDu"
0ECE  636B44656661756C+  "ckDefaul"
0ED6  744C6576656C00     "tLevel\0"
                         const [17]: "littleDuckDefaultLevel"
0EDD  04                 const type 4
0EDE  1A                 string size (26)
0EDF  4C6974746C652044+  "Little D"
0EE7  75636B2044656661+  "uck Defa"
0EEF  756C74204C657665+  "ult Leve"
0EF7  6C00               "l\0"
                         const [18]: "Little Duck Default Level"
0EF9  04                 const type 4
0EFA  11                 string size (17)
0EFB  6C6974746C654475+  "littleDu"
0F03  636B53656E646572+  "ckSender"
0F0B  00                 "\0"
                         const [19]: "littleDuckSender"
                         * functions:
0F0C  00                 sizep (0)
                         * lines:
0F0D  76                 sizelineinfo (118)
                         [pc] (line)
0F0E  A9                 [001] (-87)
0F0F  00                 [002] (-87)
0F10  00                 [003] (-85)
0F11  00                 [004] (-85)
0F12  A9                 [005] (-85)
0F13  00                 [006] (-84)
0F14  00                 [007] (-84)
0F15  00                 [008] (-81)
0F16  AB                 [009] (-81)
0F17  00                 [010] (-80)
0F18  00                 [011] (-80)
0F19  00                 [012] (-80)
0F1A  AB                 [013] (-80)
0F1B  00                 [014] (-80)
0F1C  00                 [015] (-78)
0F1D  00                 [016] (-78)
0F1E  AB                 [017] (-78)
0F1F  00                 [018] (-77)
0F20  00                 [019] (-77)
0F21  00                 [020] (-77)
0F22  AC                 [021] (-77)
0F23  00                 [022] (-77)
0F24  00                 [023] (-77)
0F25  00                 [024] (-77)
0F26  AC                 [025] (-77)
0F27  00                 [026] (-77)
0F28  00                 [027] (-77)
0F29  00                 [028] (-76)
0F2A  AF                 [029] (-76)
0F2B  00                 [030] (-76)
0F2C  00                 [031] (-76)
0F2D  00                 [032] (-75)
0F2E  AF                 [033] (-75)
0F2F  00                 [034] (-75)
0F30  00                 [035] (-75)
0F31  00                 [036] (-75)
0F32  B0                 [037] (-75)
0F33  00                 [038] (-75)
0F34  00                 [039] (-75)
0F35  00                 [040] (-75)
0F36  B0                 [041] (-75)
0F37  00                 [042] (-75)
0F38  00                 [043] (-75)
0F39  00                 [044] (-74)
0F3A  B0                 [045] (-74)
0F3B  00                 [046] (-73)
0F3C  00                 [047] (-73)
0F3D  00                 [048] (-72)
0F3E  B0                 [049] (-72)
0F3F  00                 [050] (-72)
0F40  00                 [051] (-70)
0F41  00                 [052] (-69)
0F42  B0                 [053] (-69)
0F43  00                 [054] (-69)
0F44  00                 [055] (-68)
0F45  00                 [056] (-68)
0F46  B2                 [057] (-68)
0F47  00                 [058] (-67)
0F48  00                 [059] (-67)
0F49  00                 [060] (-67)
0F4A  B2                 [061] (-67)
0F4B  00                 [062] (-67)
0F4C  00                 [063] (-66)
0F4D  00                 [064] (-66)
0F4E  B2                 [065] (-66)
0F4F  00                 [066] (-66)
0F50  00                 [067] (-65)
0F51  00                 [068] (-65)
0F52  B3                 [069] (-65)
0F53  00                 [070] (-65)
0F54  00                 [071] (-65)
0F55  00                 [072] (-65)
0F56  B3                 [073] (-65)
0F57  00                 [074] (-65)
0F58  00                 [075] (-65)
0F59  00                 [076] (-65)
0F5A  B3                 [077] (-65)
0F5B  00                 [078] (-65)
0F5C  00                 [079] (-64)
0F5D  00                 [080] (-64)
0F5E  B3                 [081] (-63)
0F5F  00                 [082] (-63)
0F60  00                 [083] (-63)
0F61  00                 [084] (-61)
0F62  B3                 [085] (-60)
0F63  00                 [086] (-60)
0F64  00                 [087] (-60)
0F65  00                 [088] (-59)
0F66  B3                 [089] (-59)
0F67  00                 [090] (-59)
0F68  00                 [091] (-58)
0F69  00                 [092] (-58)
0F6A  B3                 [093] (-58)
0F6B  00                 [094] (-58)
0F6C  00                 [095] (-58)
0F6D  00                 [096] (-57)
0F6E  B3                 [097] (-57)
0F6F  00                 [098] (-57)
0F70  00                 [099] (-57)
0F71  00                 [100] (-56)
0F72  B3                 [101] (-56)
0F73  00                 [102] (-56)
0F74  00                 [103] (-56)
0F75  00                 [104] (-56)
0F76  B3                 [105] (-56)
0F77  00                 [106] (-56)
0F78  00                 [107] (-56)
0F79  00                 [108] (-56)
0F7A  B4                 [109] (-56)
0F7B  00                 [110] (-56)
0F7C  00                 [111] (-56)
0F7D  00                 [112] (-55)
0F7E  B4                 [113] (-55)
0F7F  00                 [114] (-54)
0F80  00                 [115] (-54)
0F81  00                 [116] (-54)
0F82  B4                 [117] (-48)
0F83  00                 [118] (-47)
                         * locals:
10E6  00                 sizelocvars (0)
                         * upvalues:
10E7  00                 sizeupvalues (0)
                         ** end of function **

                         
10E8                     ** function [3] definition (level 2)
                         ** start of function **
10E8  00                 string size (0)
                         source name: (none)
10EA  01                 line defined (211)
10EB  E3                 last line defined (227)
10EC  01                 nups (2)
10ED  02                 numparams (1)
10EE  01                 is_vararg (0)
10EF  00                 maxstacksize (5)
                         * code:
10F1  42                 sizecode (66)
10F2  57000000           [01] loadbool   1   0   0    ; false
fail op	8
10F6  48000000           [02] setupval   1   0      
10FA  5D000000           [03] getglobal  1   0        ; 1074689893
10FE  92000000           [04] move       2   0      
1102  62800001           [05] call       1   2   2  
1106  58400000           [06] test       1       1    ; to [8] if false
110A  1A400E80           [07] jmp        58           ; to [66]
110E  53008000           [08] getupval   1   1      
1112  4E40C000           [09] gettable   1   1   257  ; -2065906648
1116  62808000           [10] call       1   1   2  
111A  93008000           [11] getupval   2   1      
111E  8E804001           [12] gettable   2   2   258  ; "UI_MODE_IN_SPACE_SHIP"
fail op	35
1122  23808000           [13] close      0  
1126  1A400680           [14] jmp        26           ; to [41]
112A  64C04000           [15] self       1   0   259  ; -1957065004
112E  DD000100           [16] getglobal  3   4        ; ordisTransmission
1132  62808001           [17] call       1   3   2  
1136  58000000           [18] test       1       0    ; to [20] if true
113A  1A000580           [19] jmp        21           ; to [41]
113E  5D000000           [20] getglobal  1   0        ; 1074689893
1142  9D400100           [21] getglobal  2   5        ; gPlayerProfileMgr
1146  A4804101           [22] self       2   2   262  ; 569342746
114A  19C10100           [23] loadk      4   7        ; 0
114E  A2008001           [24] call       2   3   0  
1152  62800000           [25] call       1   0   2  
1156  58400000           [26] test       1       1    ; to [28] if false
115A  1A000380           [27] jmp        13           ; to [41]
115E  5D400100           [28] getglobal  1   5        ; gPlayerProfileMgr
1162  6480C100           [29] self       1   1   262  ; 569342746
1166  D9C00100           [30] loadk      3   7        ; 0
116A  62808001           [31] call       1   3   2  
116E  6400C200           [32] self       1   1   264  ; 1699680402
1172  62800001           [33] call       1   2   2  
1176  A440C200           [34] self       2   1   265  ; 1287753818
117A  A2800001           [35] call       2   2   2  
117E  98000000           [36] test       2       0    ; to [38] if true
1182  1AC00680           [37] jmp        28           ; to [66]
1186  97008000           [38] loadbool   2   1   0    ; true
fail op	8
118A  88000000           [39] setupval   2   0      
118E  1A000680           [40] jmp        25           ; to [66]
1192  A4C04000           [41] self       2   0   259  ; -1957065004
1196  1D810200           [42] getglobal  4   10       ; operatorTransmission
119A  A2808001           [43] call       2   3   2  
119E  98000000           [44] test       2       0    ; to [46] if true
11A2  1AC00480           [45] jmp        20           ; to [66]
11A6  9D400100           [46] getglobal  2   5        ; gPlayerProfileMgr
11AA  A4804101           [47] self       2   2   262  ; 569342746
11AE  19C10100           [48] loadk      4   7        ; 0
11B2  A2808001           [49] call       2   3   2  
11B6  DD000000           [50] getglobal  3   0        ; 1074689893
11BA  12010001           [51] move       4   2      
11BE  E2800001           [52] call       3   2   2  
11C2  D8400000           [53] test       3       1    ; to [55] if false
11C6  1A000180           [54] jmp        5            ; to [60]
11CA  E4C04201           [55] self       3   2   267  ; 1055613230
11CE  E2800001           [56] call       3   2   2  
11D2  E400C301           [57] self       3   3   268  ; -729699239
11D6  E2800001           [58] call       3   2   2  
11DA  1A400080           [59] jmp        2            ; to [62]
11DE  D7400000           [60] loadbool   3   0   1    ; false, to [62]
11E2  D7008000           [61] loadbool   3   1   0    ; true
11E6  D8000000           [62] test       3       0    ; to [64] if true
11EA  1A400080           [63] jmp        2            ; to [66]
11EE  17018000           [64] loadbool   4   1   0    ; true
fail op	8
11F2  08010000           [65] setupval   4   0      
11F6  1E008000           [66] return     0   1      
                         * constants:
11FA  0D                 sizek (13)
11FB  01                 const type 3
11FC  65770E40           const [0]: (1074689893)
1200  01                 const type 3
1201  28C4DC84           const [1]: (-2065906648)
1205  04                 const type 4
1206  16                 string size (22)
1207  55495F4D4F44455F+  "UI_MODE_"
120F  494E5F5350414345+  "IN_SPACE"
1217  5F5348495000       "_SHIP\0"
                         const [2]: "UI_MODE_IN_SPACE_SHIP"
121D  01                 const type 3
121E  D48E598B           const [3]: (-1957065004)
1222  04                 const type 4
1223  12                 string size (18)
1224  6F72646973547261+  "ordisTra"
122C  6E736D697373696F+  "nsmissio"
1234  6E00               "n\0"
                         const [4]: "ordisTransmission"
1236  04                 const type 4
1237  12                 string size (18)
1238  67506C6179657250+  "gPlayerP"
1240  726F66696C654D67+  "rofileMg"
1248  7200               "r\0"
                         const [5]: "gPlayerProfileMgr"
124A  01                 const type 3
124B  1A7BEF21           const [6]: (569342746)
124F  03                 const type 3
1250  00000000           const [7]: (0)
1254  01                 const type 3
1255  92104F65           const [8]: (1699680402)
1259  01                 const type 3
125A  5A90C14C           const [9]: (1287753818)
125E  04                 const type 4
125F  15                 string size (21)
1260  6F70657261746F72+  "operator"
1268  5472616E736D6973+  "Transmis"
1270  73696F6E00         "sion\0"
                         const [10]: "operatorTransmission"
1275  01                 const type 3
1276  2E61EB3E           const [11]: (1055613230)
127A  01                 const type 3
127B  59AC81D4           const [12]: (-729699239)
                         * functions:
127F  00                 sizep (0)
                         * lines:
1280  42                 sizelineinfo (66)
                         [pc] (line)
1281  D4                 [01] (-44)
1282  00                 [02] (-44)
1283  00                 [03] (-43)
1284  00                 [04] (-43)
1285  D4                 [05] (-43)
1286  00                 [06] (-43)
1287  00                 [07] (-43)
1288  00                 [08] (-42)
1289  D5                 [09] (-42)
128A  00                 [10] (-42)
128B  00                 [11] (-42)
128C  00                 [12] (-42)
128D  D5                 [13] (-42)
128E  00                 [14] (-42)
128F  00                 [15] (-42)
1290  00                 [16] (-42)
1291  D5                 [17] (-42)
1292  00                 [18] (-42)
1293  00                 [19] (-42)
1294  00                 [20] (-42)
1295  D5                 [21] (-42)
1296  00                 [22] (-42)
1297  00                 [23] (-42)
1298  00                 [24] (-42)
1299  D5                 [25] (-42)
129A  00                 [26] (-42)
129B  00                 [27] (-42)
129C  00                 [28] (-41)
129D  D6                 [29] (-41)
129E  00                 [30] (-41)
129F  00                 [31] (-41)
12A0  00                 [32] (-41)
12A1  D6                 [33] (-41)
12A2  00                 [34] (-40)
12A3  00                 [35] (-40)
12A4  00                 [36] (-40)
12A5  D6                 [37] (-40)
12A6  00                 [38] (-39)
12A7  00                 [39] (-39)
12A8  00                 [40] (-38)
12A9  D6                 [41] (-37)
12AA  00                 [42] (-37)
12AB  00                 [43] (-37)
12AC  00                 [44] (-37)
12AD  D6                 [45] (-37)
12AE  00                 [46] (-36)
12AF  00                 [47] (-36)
12B0  00                 [48] (-36)
12B1  D6                 [49] (-36)
12B2  00                 [50] (-35)
12B3  00                 [51] (-35)
12B4  00                 [52] (-35)
12B5  D6                 [53] (-35)
12B6  00                 [54] (-35)
12B7  00                 [55] (-35)
12B8  00                 [56] (-35)
12B9  D6                 [57] (-35)
12BA  00                 [58] (-35)
12BB  00                 [59] (-35)
12BC  00                 [60] (-35)
12BD  D6                 [61] (-35)
12BE  00                 [62] (-34)
12BF  00                 [63] (-34)
12C0  00                 [64] (-33)
12C1  D6                 [65] (-33)
12C2  00                 [66] (-29)
                         * locals:
1389  00                 sizelocvars (0)
                         * upvalues:
138A  00                 sizeupvalues (0)
                         ** end of function **

                         
138B                     ** function [4] definition (level 2)
                         ** start of function **
138B  00                 string size (0)
                         source name: (none)
138D  01                 line defined (229)
138E  F2                 last line defined (242)
138F  01                 nups (2)
1390  02                 numparams (0)
1391  00                 is_vararg (0)
1392  00                 maxstacksize (4)
                         * code:
1394  24                 sizecode (36)
1395  53000000           [01] getupval   1   0      
1399  58000000           [02] test       1       0    ; to [4] if true
139D  1A800780           [03] jmp        31           ; to [35]
13A1  5D000000           [04] getglobal  1   0        ; 1074689893
13A5  9D400000           [05] getglobal  2   1        ; _T
13A9  8E804001           [06] gettable   2   2   258  ; "curTransmission"
13AD  62800001           [07] call       1   2   2  
13B1  58400000           [08] test       1       1    ; to [10] if false
13B5  1A000680           [09] jmp        25           ; to [35]
13B9  53008000           [10] getupval   1   1      
13BD  4EC0C000           [11] gettable   1   1   259  ; -2065906648
13C1  62808000           [12] call       1   1   2  
13C5  93008000           [13] getupval   2   1      
13C9  8E004101           [14] gettable   2   2   260  ; "UI_MODE_IN_SPACE_SHIP"
fail op	35
13CD  23808000           [15] close      0  
13D1  1A400480           [16] jmp        18           ; to [35]
13D5  5D400000           [17] getglobal  1   1        ; _T
13D9  4E80C000           [18] gettable   1   1   258  ; "curTransmission"
13DD  6440C100           [19] self       1   1   261  ; -1957065004
13E1  DD800100           [20] getglobal  3   6        ; ordisTransmission
13E5  62808001           [21] call       1   3   2  
13E9  58000000           [22] test       1       0    ; to [24] if true
13ED  1A800280           [23] jmp        11           ; to [35]
13F1  5DC00100           [24] getglobal  1   7        ; gPlayerProfileMgr
13F5  6400C200           [25] self       1   1   264  ; 569342746
13F9  D9400200           [26] loadk      3   9        ; 0
13FD  62808001           [27] call       1   3   2  
1401  6480C200           [28] self       1   1   266  ; 1699680402
1405  62800001           [29] call       1   2   2  
1409  A4C0C200           [30] self       2   1   267  ; 1287753818
140D  A2800001           [31] call       2   2   2  
1411  98000000           [32] test       2       0    ; to [34] if true
1415  1A000080           [33] jmp        1            ; to [35]
1419  1D000300           [34] getglobal  0   12       ; ordis3DBank
141D  1E000001           [35] return     0   2      
1421  1E008000           [36] return     0   1      
                         * constants:
1425  0D                 sizek (13)
1426  01                 const type 3
1427  65770E40           const [0]: (1074689893)
142B  04                 const type 4
142C  03                 string size (3)
142D  5F5400             "_T\0"
                         const [1]: "_T"
1430  04                 const type 4
1431  10                 string size (16)
1432  6375725472616E73+  "curTrans"
143A  6D697373696F6E00   "mission\0"
                         const [2]: "curTransmission"
1442  01                 const type 3
1443  28C4DC84           const [3]: (-2065906648)
1447  04                 const type 4
1448  16                 string size (22)
1449  55495F4D4F44455F+  "UI_MODE_"
1451  494E5F5350414345+  "IN_SPACE"
1459  5F5348495000       "_SHIP\0"
                         const [4]: "UI_MODE_IN_SPACE_SHIP"
145F  01                 const type 3
1460  D48E598B           const [5]: (-1957065004)
1464  04                 const type 4
1465  12                 string size (18)
1466  6F72646973547261+  "ordisTra"
146E  6E736D697373696F+  "nsmissio"
1476  6E00               "n\0"
                         const [6]: "ordisTransmission"
1478  04                 const type 4
1479  12                 string size (18)
147A  67506C6179657250+  "gPlayerP"
1482  726F66696C654D67+  "rofileMg"
148A  7200               "r\0"
                         const [7]: "gPlayerProfileMgr"
148C  01                 const type 3
148D  1A7BEF21           const [8]: (569342746)
1491  03                 const type 3
1492  00000000           const [9]: (0)
1496  01                 const type 3
1497  92104F65           const [10]: (1699680402)
149B  01                 const type 3
149C  5A90C14C           const [11]: (1287753818)
14A0  04                 const type 4
14A1  0C                 string size (12)
14A2  6F72646973334442+  "ordis3DB"
14AA  616E6B00           "ank\0"
                         const [12]: "ordis3DBank"
                         * functions:
14AE  00                 sizep (0)
                         * lines:
14AF  24                 sizelineinfo (36)
                         [pc] (line)
14B0  E8                 [01] (-24)
14B1  00                 [02] (-24)
14B2  00                 [03] (-24)
14B3  00                 [04] (-23)
14B4  E8                 [05] (-23)
14B5  00                 [06] (-23)
14B6  00                 [07] (-23)
14B7  00                 [08] (-23)
14B8  E8                 [09] (-23)
14B9  00                 [10] (-23)
14BA  00                 [11] (-23)
14BB  00                 [12] (-23)
14BC  E9                 [13] (-23)
14BD  00                 [14] (-23)
14BE  00                 [15] (-23)
14BF  00                 [16] (-23)
14C0  E9                 [17] (-23)
14C1  00                 [18] (-23)
14C2  00                 [19] (-23)
14C3  00                 [20] (-23)
14C4  E9                 [21] (-23)
14C5  00                 [22] (-23)
14C6  00                 [23] (-23)
14C7  00                 [24] (-22)
14C8  E9                 [25] (-22)
14C9  00                 [26] (-22)
14CA  00                 [27] (-22)
14CB  00                 [28] (-22)
14CC  E9                 [29] (-22)
14CD  00                 [30] (-21)
14CE  00                 [31] (-21)
14CF  00                 [32] (-21)
14D0  E9                 [33] (-21)
14D1  00                 [34] (-20)
14D2  00                 [35] (-15)
14D3  00                 [36] (-14)
                         * locals:
1540  00                 sizelocvars (0)
                         * upvalues:
1541  00                 sizeupvalues (0)
                         ** end of function **

                         
1542                     ** function [5] definition (level 2)
                         ** start of function **
1542  00                 string size (0)
                         source name: (none)
1544  01                 line defined (244)
1545  F8                 last line defined (248)
1546  01                 nups (2)
1547  02                 numparams (1)
1548  01                 is_vararg (0)
1549  00                 maxstacksize (7)
                         * code:
154B  16                 sizecode (22)
154C  53000000           [01] getupval   1   0      
1550  6400C000           [02] self       1   1   256  ; -2013161817
1554  D3008000           [03] getupval   3   1      
1558  19410000           [04] loadk      4   1        ; "TextBack"
155C  59810000           [05] loadk      5   2        ; "_visible"
1560  92010000           [06] move       6   0      
1564  62400003           [07] call       1   6   1  
1568  53000000           [08] getupval   1   0      
156C  6400C000           [09] self       1   1   256  ; -2013161817
1570  D3008000           [10] getupval   3   1      
1574  19C10000           [11] loadk      4   3        ; "Name"
1578  59810000           [12] loadk      5   2        ; "_visible"
157C  92010000           [13] move       6   0      
1580  62400003           [14] call       1   6   1  
1584  53000000           [15] getupval   1   0      
1588  6400C000           [16] self       1   1   256  ; -2013161817
158C  D3008000           [17] getupval   3   1      
1590  19010100           [18] loadk      4   4        ; "Text"
1594  59810000           [19] loadk      5   2        ; "_visible"
1598  92010000           [20] move       6   0      
159C  62400003           [21] call       1   6   1  
15A0  1E008000           [22] return     0   1      
                         * constants:
15A4  05                 sizek (5)
15A5  01                 const type 3
15A6  A7960188           const [0]: (-2013161817)
15AA  04                 const type 4
15AB  09                 string size (9)
15AC  546578744261636B+  "TextBack"
15B4  00                 "\0"
                         const [1]: "TextBack"
15B5  04                 const type 4
15B6  09                 string size (9)
15B7  5F76697369626C65+  "_visible"
15BF  00                 "\0"
                         const [2]: "_visible"
15C0  04                 const type 4
15C1  05                 string size (5)
15C2  4E616D6500         "Name\0"
                         const [3]: "Name"
15C7  04                 const type 4
15C8  05                 string size (5)
15C9  5465787400         "Text\0"
                         const [4]: "Text"
                         * functions:
15CE  00                 sizep (0)
                         * lines:
15CF  16                 sizelineinfo (22)
                         [pc] (line)
15D0  F5                 [01] (-11)
15D1  00                 [02] (-11)
15D2  00                 [03] (-11)
15D3  00                 [04] (-11)
15D4  F5                 [05] (-11)
15D5  00                 [06] (-11)
15D6  00                 [07] (-11)
15D7  00                 [08] (-10)
15D8  F5                 [09] (-10)
15D9  00                 [10] (-10)
15DA  00                 [11] (-10)
15DB  00                 [12] (-10)
15DC  F5                 [13] (-10)
15DD  00                 [14] (-10)
15DE  00                 [15] (-9)
15DF  00                 [16] (-9)
15E0  F5                 [17] (-9)
15E1  00                 [18] (-9)
15E2  00                 [19] (-9)
15E3  00                 [20] (-9)
15E4  F5                 [21] (-9)
15E5  00                 [22] (-8)
                         * locals:
1628  00                 sizelocvars (0)
                         * upvalues:
1629  00                 sizeupvalues (0)
                         ** end of function **

                         
162A                     ** function [6] definition (level 2)
                         ** start of function **
162A  00                 string size (0)
                         source name: (none)
162C  01                 line defined (250)
162D  85                 last line defined (261)
162E  02                 nups (4)
162F  04                 numparams (0)
1630  00                 is_vararg (0)
1631  00                 maxstacksize (3)
                         * code:
1633  1B                 sizecode (27)
1634  1D000000           [01] getglobal  0   0        ; 1074689893
1638  5D400000           [02] getglobal  1   1        ; _T
163C  4E80C000           [03] gettable   1   1   258  ; "curTransmission"
1640  22800001           [04] call       0   2   2  
1644  18400000           [05] test       0       1    ; to [7] if false
1648  1AC00280           [06] jmp        12           ; to [19]
164C  1D400000           [07] getglobal  0   1        ; _T
1650  0E804000           [08] gettable   0   0   258  ; "curTransmission"
1654  24C04000           [09] self       0   0   259  ; 1043208183
1658  22800001           [10] call       0   2   2  
165C  5D000000           [11] getglobal  1   0        ; 1074689893
1660  92000000           [12] move       2   0      
1664  62800001           [13] call       1   2   2  
1668  58400000           [14] test       1       1    ; to [16] if false
166C  1A800080           [15] jmp        3            ; to [19]
1670  53000000           [16] getupval   1   0      
1674  92000000           [17] move       2   0      
1678  62400001           [18] call       1   2   1  
167C  53008000           [19] getupval   1   1      
1680  93000001           [20] getupval   2   2      
fail op	35
1684  23808000           [21] close      0  
1688  1AC00080           [22] jmp        4            ; to [27]
168C  5D400000           [23] getglobal  1   1        ; _T
1690  4C004181           [24] settable   1   258 260  ; "curTransmission" nil
1694  46008000           [25] loadnil    1   1      
fail op	8
1698  48008001           [26] setupval   1   3      
169C  1E008000           [27] return     0   1      
                         * constants:
16A0  05                 sizek (5)
16A1  01                 const type 3
16A2  65770E40           const [0]: (1074689893)
16A6  04                 const type 4
16A7  03                 string size (3)
16A8  5F5400             "_T\0"
                         const [1]: "_T"
16AB  04                 const type 4
16AC  10                 string size (16)
16AD  6375725472616E73+  "curTrans"
16B5  6D697373696F6E00   "mission\0"
                         const [2]: "curTransmission"
16BD  01                 const type 3
16BE  F7172E3E           const [3]: (1043208183)
16C2  00                 const type 0
                         const [4]: nil
                         * functions:
16C3  00                 sizep (0)
                         * lines:
16C4  1B                 sizelineinfo (27)
                         [pc] (line)
16C5  FB                 [01] (-5)
16C6  00                 [02] (-5)
16C7  00                 [03] (-5)
16C8  00                 [04] (-5)
16C9  FB                 [05] (-5)
16CA  00                 [06] (-5)
16CB  00                 [07] (-4)
16CC  00                 [08] (-4)
16CD  FB                 [09] (-4)
16CE  00                 [10] (-4)
16CF  00                 [11] (-3)
16D0  00                 [12] (-3)
16D1  FB                 [13] (-3)
16D2  00                 [14] (-3)
16D3  00                 [15] (-3)
16D4  00                 [16] (-2)
16D5  FB                 [17] (-2)
16D6  00                 [18] (-2)
16D7  00                 [19] (1)
16D8  00                 [20] (1)
16D9  FB                 [21] (1)
16DA  00                 [22] (1)
16DB  00                 [23] (2)
16DC  00                 [24] (2)
16DD  FC                 [25] (3)
16DE  00                 [26] (3)
16DF  00                 [27] (5)
                         * locals:
1731  00                 sizelocvars (0)
                         * upvalues:
1732  00                 sizeupvalues (0)
                         ** end of function **

                         
1733                     ** function [7] definition (level 2)
                         ** start of function **
1733  00                 string size (0)
                         source name: (none)
1735  02                 line defined (263)
1736  94                 last line defined (276)
1737  02                 nups (3)
1738  03                 numparams (5)
1739  05                 is_vararg (0)
173A  00                 maxstacksize (11)
                         * code:
173C  2B                 sizecode (43)
173D  5D010000           [01] getglobal  5   0        ; string
1741  4E41C002           [02] gettable   5   5   257  ; -965268854
1745  92018000           [03] move       6   1      
1749  62810001           [04] call       5   2   2  
fail op	21
174D  15400181           [05] concat     0   258 5  
1751  1A400780           [06] jmp        30           ; to [37]
1755  18010000           [07] test       4       0    ; to [9] if true
1759  1A800380           [08] jmp        15           ; to [24]
175D  53010000           [09] getupval   5   0      
1761  4EC1C002           [10] gettable   5   5   259  ; -1393842603
1765  93018000           [11] getupval   6   1      
1769  D2018001           [12] move       7   3      
176D  12020000           [13] move       8   0      
1771  52028000           [14] move       9   1      
1775  86020005           [15] loadnil    10  10     
1779  62410003           [16] call       5   6   1  
177D  53018000           [17] getupval   5   1      
1781  6401C102           [18] self       5   5   260  ; 471456102
1785  D2010000           [19] move       7   0      
1789  19420100           [20] loadk      8   5        ; "_alpha"
178D  53020001           [21] getupval   9   2      
1791  62418002           [22] call       5   5   1  
1795  1A400180           [23] jmp        6            ; to [30]
1799  53018000           [24] getupval   5   1      
179D  6481C102           [25] self       5   5   262  ; -693657623
17A1  D2010000           [26] move       7   0      
17A5  19C20100           [27] loadk      8   7        ; "text"
17A9  52028000           [28] move       9   1      
17AD  62418002           [29] call       5   5   1  
17B1  53018000           [30] getupval   5   1      
17B5  6401C102           [31] self       5   5   260  ; 471456102
17B9  D2010000           [32] move       7   0      
17BD  19020200           [33] loadk      8   8        ; "_visible"
17C1  57028000           [34] loadbool   9   1   0    ; true
17C5  62418002           [35] call       5   5   1  
17C9  1A400180           [36] jmp        6            ; to [43]
17CD  53018000           [37] getupval   5   1      
17D1  6401C102           [38] self       5   5   260  ; 471456102
17D5  D2010000           [39] move       7   0      
17D9  19020200           [40] loadk      8   8        ; "_visible"
17DD  57020000           [41] loadbool   9   0   0    ; false
17E1  62418002           [42] call       5   5   1  
17E5  1E008000           [43] return     0   1      
                         * constants:
17E9  09                 sizek (9)
17EA  04                 const type 4
17EB  07                 string size (7)
17EC  737472696E6700     "string\0"
                         const [0]: "string"
17F3  01                 const type 3
17F4  8A2A77C6           const [1]: (-965268854)
17F8  03                 const type 3
17F9  00000000           const [2]: (0)
17FD  01                 const type 3
17FE  55A6EBAC           const [3]: (-1393842603)
1802  01                 const type 3
1803  66D9191C           const [4]: (471456102)
1807  04                 const type 4
1808  07                 string size (7)
1809  5F616C70686100     "_alpha\0"
                         const [5]: "_alpha"
1810  01                 const type 3
1811  E99FA7D6           const [6]: (-693657623)
1815  04                 const type 4
1816  05                 string size (5)
1817  7465787400         "text\0"
                         const [7]: "text"
181C  04                 const type 4
181D  09                 string size (9)
181E  5F76697369626C65+  "_visible"
1826  00                 "\0"
                         const [8]: "_visible"
                         * functions:
1827  00                 sizep (0)
                         * lines:
1828  2B                 sizelineinfo (43)
                         [pc] (line)
1829  08                 [01] (8)
182A  01                 [02] (8)
182B  00                 [03] (8)
182C  00                 [04] (8)
182D  08                 [05] (8)
182E  01                 [06] (8)
182F  00                 [07] (10)
1830  00                 [08] (10)
1831  08                 [09] (11)
1832  01                 [10] (11)
1833  00                 [11] (11)
1834  00                 [12] (11)
1835  08                 [13] (11)
1836  01                 [14] (11)
1837  00                 [15] (11)
1838  00                 [16] (11)
1839  08                 [17] (12)
183A  01                 [18] (12)
183B  00                 [19] (12)
183C  00                 [20] (12)
183D  08                 [21] (12)
183E  01                 [22] (12)
183F  00                 [23] (12)
1840  00                 [24] (14)
1841  0A                 [25] (14)
1842  01                 [26] (14)
1843  00                 [27] (14)
1844  00                 [28] (14)
1845  0A                 [29] (14)
1846  01                 [30] (16)
1847  00                 [31] (16)
1848  00                 [32] (16)
1849  0B                 [33] (16)
184A  01                 [34] (16)
184B  00                 [35] (16)
184C  00                 [36] (16)
184D  0B                 [37] (18)
184E  01                 [38] (18)
184F  00                 [39] (18)
1850  00                 [40] (18)
1851  0B                 [41] (18)
1852  01                 [42] (18)
1853  00                 [43] (20)
                         * locals:
18D5  00                 sizelocvars (0)
                         * upvalues:
18D6  00                 sizeupvalues (0)
                         ** end of function **

                         
18D7                     ** function [8] definition (level 2)
                         ** start of function **
18D7  00                 string size (0)
                         source name: (none)
18D9  02                 line defined (278)
18DA  9D                 last line defined (285)
18DB  02                 nups (5)
18DC  05                 numparams (1)
18DD  01                 is_vararg (0)
18DE  00                 maxstacksize (7)
                         * code:
18E0  18                 sizecode (24)
18E1  5D000000           [01] getglobal  1   0        ; gRegion
18E5  6440C000           [02] self       1   1   257  ; -1860361155
18E9  D2000000           [03] move       3   0      
18ED  13018000           [04] getupval   4   1      
18F1  62800002           [05] call       1   4   2  
fail op	8
18F5  48000000           [06] setupval   1   0      
18F9  59800000           [07] loadk      1   2        ; 0
fail op	8
18FD  48000001           [08] setupval   1   2      
1901  53008001           [09] getupval   1   3      
1905  99C00000           [10] loadk      2   3        ; ".Message"
1909  42808000           [11] concat     1   1   2  
190D  93000002           [12] getupval   2   4      
1911  A4004101           [13] self       2   2   260  ; 471456102
1915  12018000           [14] move       4   1      
1919  59410100           [15] loadk      5   5        ; "_visible"
191D  97018000           [16] loadbool   6   1   0    ; true
1921  A2408002           [17] call       2   5   1  
1925  93000002           [18] getupval   2   4      
1929  A4004101           [19] self       2   2   260  ; 471456102
192D  12018000           [20] move       4   1      
1931  59810100           [21] loadk      5   6        ; "text"
1935  99C10100           [22] loadk      6   7        ; ""
1939  A2408002           [23] call       2   5   1  
193D  1E008000           [24] return     0   1      
                         * constants:
1941  08                 sizek (8)
1942  04                 const type 4
1943  08                 string size (8)
1944  67526567696F6E00   "gRegion\0"
                         const [0]: "gRegion"
194C  01                 const type 3
194D  3D241D91           const [1]: (-1860361155)
1951  03                 const type 3
1952  00000000           const [2]: (0)
1956  04                 const type 4
1957  09                 string size (9)
1958  2E4D657373616765+  ".Message"
1960  00                 "\0"
                         const [3]: ".Message"
1961  01                 const type 3
1962  66D9191C           const [4]: (471456102)
1966  04                 const type 4
1967  09                 string size (9)
1968  5F76697369626C65+  "_visible"
1970  00                 "\0"
                         const [5]: "_visible"
1971  04                 const type 4
1972  05                 string size (5)
1973  7465787400         "text\0"
                         const [6]: "text"
1978  04                 const type 4
1979  01                 string size (0)
                         const [7]: ""
                         * functions:
197B  00                 sizep (0)
                         * lines:
197C  18                 sizelineinfo (24)
                         [pc] (line)
197D  17                 [01] (23)
197E  01                 [02] (23)
197F  00                 [03] (23)
1980  00                 [04] (23)
1981  17                 [05] (23)
1982  01                 [06] (23)
1983  00                 [07] (24)
1984  00                 [08] (24)
1985  17                 [09] (26)
1986  01                 [10] (26)
1987  00                 [11] (26)
1988  00                 [12] (27)
1989  17                 [13] (27)
198A  01                 [14] (27)
198B  00                 [15] (27)
198C  00                 [16] (27)
198D  17                 [17] (27)
198E  01                 [18] (28)
198F  00                 [19] (28)
1990  00                 [20] (28)
1991  17                 [21] (28)
1992  01                 [22] (28)
1993  00                 [23] (28)
1994  00                 [24] (29)
                         * locals:
19DD  00                 sizelocvars (0)
                         * upvalues:
19DE  00                 sizeupvalues (0)
                         ** end of function **

                         
19DF                     ** function [9] definition (level 2)
                         ** start of function **
19DF  00                 string size (0)
                         source name: (none)
19E1  02                 line defined (287)
19E2  AB                 last line defined (299)
19E3  02                 nups (4)
19E4  04                 numparams (1)
19E5  01                 is_vararg (0)
19E6  00                 maxstacksize (7)
                         * code:
19E8  21                 sizecode (33)
19E9  53000000           [01] getupval   1   0      
fail op	35
19ED  23008000           [02] close      0  
19F1  1A000080           [03] jmp        1            ; to [5]
19F5  1E008000           [04] return     0   1      
fail op	8
19F9  08000000           [05] setupval   0   0      
fail op	35
19FD  23004000           [06] close      0  
1A01  1AC00180           [07] jmp        8            ; to [16]
1A05  53008000           [08] getupval   1   1      
1A09  6440C000           [09] self       1   1   257  ; -2013161817
1A0D  D3000001           [10] getupval   3   2      
1A11  19810000           [11] loadk      4   2        ; "Message"
1A15  59C10000           [12] loadk      5   3        ; "text"
1A19  99010000           [13] loadk      6   0        ; ""
1A1D  62400003           [14] call       1   6   1  
1A21  1E008000           [15] return     0   1      
1A25  53008001           [16] getupval   1   3      
1A29  4E00C100           [17] gettable   1   1   260  ; -1393842603
1A2D  93008000           [18] getupval   2   1      
1A31  C6008001           [19] loadnil    3   3      
1A35  13010001           [20] getupval   4   2      
1A39  59410100           [21] loadk      5   5        ; ".Message"
1A3D  02410102           [22] concat     4   4   5  
1A41  52010000           [23] move       5   0      
1A45  86010003           [24] loadnil    6   6      
1A49  62400003           [25] call       1   6   1  
1A4D  53008000           [26] getupval   1   1      
1A51  6440C000           [27] self       1   1   257  ; -2013161817
1A55  D3000001           [28] getupval   3   2      
1A59  19810000           [29] loadk      4   2        ; "Message"
1A5D  59810100           [30] loadk      5   6        ; "_alpha"
1A61  99C10100           [31] loadk      6   7        ; 0
1A65  62400003           [32] call       1   6   1  
1A69  1E008000           [33] return     0   1      
                         * constants:
1A6D  08                 sizek (8)
1A6E  04                 const type 4
1A6F  01                 string size (0)
                         const [0]: ""
1A71  01                 const type 3
1A72  A7960188           const [1]: (-2013161817)
1A76  04                 const type 4
1A77  08                 string size (8)
1A78  4D65737361676500   "Message\0"
                         const [2]: "Message"
1A80  04                 const type 4
1A81  05                 string size (5)
1A82  7465787400         "text\0"
                         const [3]: "text"
1A87  01                 const type 3
1A88  55A6EBAC           const [4]: (-1393842603)
1A8C  04                 const type 4
1A8D  09                 string size (9)
1A8E  2E4D657373616765+  ".Message"
1A96  00                 "\0"
                         const [5]: ".Message"
1A97  04                 const type 4
1A98  07                 string size (7)
1A99  5F616C70686100     "_alpha\0"
                         const [6]: "_alpha"
1AA0  03                 const type 3
1AA1  00001643           const [7]: (0)
                         * functions:
1AA5  00                 sizep (0)
                         * lines:
1AA6  21                 sizelineinfo (33)
                         [pc] (line)
1AA7  20                 [01] (32)
1AA8  01                 [02] (32)
1AA9  00                 [03] (32)
1AAA  00                 [04] (33)
1AAB  20                 [05] (36)
1AAC  01                 [06] (37)
1AAD  00                 [07] (37)
1AAE  00                 [08] (38)
1AAF  20                 [09] (38)
1AB0  01                 [10] (38)
1AB1  00                 [11] (38)
1AB2  00                 [12] (38)
1AB3  21                 [13] (38)
1AB4  01                 [14] (38)
1AB5  00                 [15] (39)
1AB6  00                 [16] (41)
1AB7  24                 [17] (41)
1AB8  01                 [18] (41)
1AB9  00                 [19] (41)
1ABA  00                 [20] (41)
1ABB  25                 [21] (41)
1ABC  01                 [22] (41)
1ABD  00                 [23] (41)
1ABE  00                 [24] (41)
1ABF  25                 [25] (41)
1AC0  01                 [26] (42)
1AC1  00                 [27] (42)
1AC2  00                 [28] (42)
1AC3  26                 [29] (42)
1AC4  01                 [30] (42)
1AC5  00                 [31] (42)
1AC6  00                 [32] (42)
1AC7  26                 [33] (43)
                         * locals:
1B2B  00                 sizelocvars (0)
                         * upvalues:
1B2C  00                 sizeupvalues (0)
                         ** end of function **

                         
1B2D                     ** function [10] definition (level 2)
                         ** start of function **
1B2D  00                 string size (0)
                         source name: (none)
1B2F  02                 line defined (301)
1B30  C8                 last line defined (328)
1B31  02                 nups (5)
1B32  05                 numparams (0)
1B33  00                 is_vararg (0)
1B34  00                 maxstacksize (15)
                         * code:
1B36  5B                 sizecode (91)
1B37  13000000           [01] getupval   0   0      
1B3B  18000000           [02] test       0       0    ; to [4] if true
1B3F  1A801580           [03] jmp        87           ; to [91]
1B43  13008000           [04] getupval   0   1      
fail op	35
1B47  23004000           [05] close      0  
1B4B  1A400F80           [06] jmp        62           ; to [69]
1B4F  1D400000           [07] getglobal  0   1        ; 1074689893
1B53  53000001           [08] getupval   1   2      
1B57  22800001           [09] call       0   2   2  
1B5B  18000000           [10] test       0       0    ; to [12] if true
1B5F  1A000180           [11] jmp        5            ; to [17]
1B63  1D800000           [12] getglobal  0   2        ; gFlashMgr
1B67  24C04000           [13] self       0   0   259  ; 1634586770
1B6B  9D000100           [14] getglobal  2   4        ; subtitlesMovie
1B6F  22808001           [15] call       0   3   2  
fail op	8
1B73  08000001           [16] setupval   0   2      
1B77  1D400000           [17] getglobal  0   1        ; 1074689893
1B7B  53000001           [18] getupval   1   2      
1B7F  22800001           [19] call       0   2   2  
1B83  18400000           [20] test       0       1    ; to [22] if false
1B87  1A001180           [21] jmp        69           ; to [91]
1B8B  13008001           [22] getupval   0   3      
1B8F  24404100           [23] self       0   0   261  ; 703736394
1B93  22800001           [24] call       0   2   2  
1B97  53000001           [25] getupval   1   2      
1B9B  6480C100           [26] self       1   1   262  ; 1754893949
1B9F  62800001           [27] call       1   2   2  
1BA3  9DC00100           [28] getglobal  2   7        ; -174740002
1BA7  D3000001           [29] getupval   3   2      
1BAB  E400C201           [30] self       3   3   264  ; 1803241227
1BAF  59410200           [31] loadk      5   9        ; "Subtitle"
1BB3  99810200           [32] loadk      6   10       ; "_y"
1BB7  E2000002           [33] call       3   4   0  
1BBB  A2800000           [34] call       2   0   2  
1BBF  4D808000           [35] sub        1   1   2  
1BC3  9DC00100           [36] getglobal  2   7        ; -174740002
1BC7  D3008001           [37] getupval   3   3      
1BCB  E400C201           [38] self       3   3   264  ; 1803241227
1BCF  53018000           [39] getupval   5   1      
1BD3  99810200           [40] loadk      6   10       ; "_y"
1BD7  E2000002           [41] call       3   4   0  
1BDB  A2800000           [42] call       2   0   2  
1BDF  D3000002           [43] getupval   3   4      
1BE3  CEC0C201           [44] gettable   3   3   267  ; -857652474
1BE7  13018001           [45] getupval   4   3      
1BEB  E2C00001           [46] call       3   2   3  
1BEF  1C014302           [47] div        4   4   268  ; 0
1BF3  53018001           [48] getupval   5   3      
1BF7  6481C102           [49] self       5   5   262  ; 1754893949
1BFB  62810001           [50] call       5   2   2  
1BFF  5C018102           [51] div        5   5   4  
1C03  5C018002           [52] div        5   5   0  
1C07  93018001           [53] getupval   6   3      
1C0B  A4814103           [54] self       6   6   262  ; 1754893949
1C0F  A2810001           [55] call       6   2   2  
1C13  8D818102           [56] sub        6   5   6  
1C17  C4414303           [57] mul        7   6   269  ; 0
1C1B  4DC18102           [58] sub        5   5   7  
1C1F  CD418002           [59] sub        7   5   1  
1C23  CD818003           [60] sub        7   7   2  
1C27  13028001           [61] getupval   8   3      
1C2B  24824304           [62] self       8   8   270  ; -2013161817
1C2F  93028000           [63] getupval   10  1      
1C33  D9C20300           [64] loadk      11  15       ; "Name"
1C37  19830200           [65] loadk      12  10       ; "_y"
1C3B  4D03C403           [66] sub        13  7   272  ; 0
1C3F  22420003           [67] call       8   6   1  
1C43  1A400580           [68] jmp        22           ; to [91]
1C47  13028000           [69] getupval   8   1      
fail op	35
1C4B  63404404           [70] close      1  
1C4F  1A800080           [71] jmp        3            ; to [75]
1C53  13028000           [72] getupval   8   1      
fail op	35
1C57  23804404           [73] close      0  
1C5B  1AC00380           [74] jmp        16           ; to [91]
1C5F  1DC20100           [75] getglobal  8   7        ; -174740002
1C63  5DC20400           [76] getglobal  9   19       ; mMovie
1C67  6402C204           [77] self       9   9   264  ; 1803241227
1C6B  D3028000           [78] getupval   11  1      
1C6F  19030500           [79] loadk      12  20       ; ".Name"
1C73  C2028305           [80] concat     11  11  12 
1C77  19430500           [81] loadk      12  21       ; "textHeight"
1C7B  62020002           [82] call       9   4   0  
1C7F  22820000           [83] call       8   0   2  
1C83  5DC20400           [84] getglobal  9   19       ; mMovie
1C87  6482C304           [85] self       9   9   270  ; -2013161817
1C8B  D3028000           [86] getupval   11  1      
1C8F  19C30300           [87] loadk      12  15       ; "Name"
1C93  59830200           [88] loadk      13  10       ; "_y"
1C97  8D03028B           [89] sub        14  278 8    ; 0
1C9B  62420003           [90] call       9   6   1  
1C9F  1E008000           [91] return     0   1      
                         * constants:
1CA3  17                 sizek (23)
1CA4  04                 const type 4
1CA5  0E                 string size (14)
1CA6  436F6D6D4672616D+  "CommFram"
1CAE  6546756C6C00       "eFull\0"
                         const [0]: "CommFrameFull"
1CB4  01                 const type 3
1CB5  65770E40           const [1]: (1074689893)
1CB9  04                 const type 4
1CBA  0A                 string size (10)
1CBB  67466C6173684D67+  "gFlashMg"
1CC3  7200               "r\0"
                         const [2]: "gFlashMgr"
1CC5  01                 const type 3
1CC6  92D06D61           const [3]: (1634586770)
1CCA  04                 const type 4
1CCB  0F                 string size (15)
1CCC  7375627469746C65+  "subtitle"
1CD4  734D6F76696500     "sMovie\0"
                         const [4]: "subtitlesMovie"
1CDB  01                 const type 3
1CDC  4A2AF229           const [5]: (703736394)
1CE0  01                 const type 3
1CE1  7D8E9968           const [6]: (1754893949)
1CE5  01                 const type 3
1CE6  DEAD95F5           const [7]: (-174740002)
1CEA  01                 const type 3
1CEB  0B477B6B           const [8]: (1803241227)
1CEF  04                 const type 4
1CF0  09                 string size (9)
1CF1  5375627469746C65+  "Subtitle"
1CF9  00                 "\0"
                         const [9]: "Subtitle"
1CFA  04                 const type 4
1CFB  03                 string size (3)
1CFC  5F7900             "_y\0"
                         const [10]: "_y"
1CFF  01                 const type 3
1D00  0643E1CC           const [11]: (-857652474)
1D04  03                 const type 3
1D05  0000C842           const [12]: (0)
1D09  03                 const type 3
1D0A  0000003F           const [13]: (0)
1D0E  01                 const type 3
1D0F  A7960188           const [14]: (-2013161817)
1D13  04                 const type 4
1D14  05                 string size (5)
1D15  4E616D6500         "Name\0"
                         const [15]: "Name"
1D1A  03                 const type 3
1D1B  0000F041           const [16]: (0)
1D1F  04                 const type 4
1D20  0A                 string size (10)
1D21  436F6D6D4672616D+  "CommFram"
1D29  6500               "e\0"
                         const [17]: "CommFrame"
1D2B  04                 const type 4
1D2C  0D                 string size (13)
1D2D  436F6D6D4672616D+  "CommFram"
1D35  65416C7400         "eAlt\0"
                         const [18]: "CommFrameAlt"
1D3A  04                 const type 4
1D3B  07                 string size (7)
1D3C  6D4D6F76696500     "mMovie\0"
                         const [19]: "mMovie"
1D43  04                 const type 4
1D44  06                 string size (6)
1D45  2E4E616D6500       ".Name\0"
                         const [20]: ".Name"
1D4B  04                 const type 4
1D4C  0B                 string size (11)
1D4D  7465787448656967+  "textHeig"
1D55  687400             "ht\0"
                         const [21]: "textHeight"
1D58  03                 const type 3
1D59  00002042           const [22]: (0)
                         * functions:
1D5D  00                 sizep (0)
                         * lines:
1D5E  5B                 sizelineinfo (91)
                         [pc] (line)
1D5F  2E                 [01] (46)
1D60  01                 [02] (46)
1D61  00                 [03] (46)
1D62  00                 [04] (47)
1D63  2E                 [05] (47)
1D64  01                 [06] (47)
1D65  00                 [07] (48)
1D66  00                 [08] (48)
1D67  2E                 [09] (48)
1D68  01                 [10] (48)
1D69  00                 [11] (48)
1D6A  00                 [12] (49)
1D6B  2F                 [13] (49)
1D6C  01                 [14] (49)
1D6D  00                 [15] (49)
1D6E  00                 [16] (49)
1D6F  2F                 [17] (52)
1D70  01                 [18] (52)
1D71  00                 [19] (52)
1D72  00                 [20] (52)
1D73  2F                 [21] (52)
1D74  01                 [22] (53)
1D75  00                 [23] (53)
1D76  00                 [24] (53)
1D77  30                 [25] (54)
1D78  01                 [26] (54)
1D79  00                 [27] (54)
1D7A  00                 [28] (54)
1D7B  30                 [29] (54)
1D7C  01                 [30] (54)
1D7D  00                 [31] (54)
1D7E  00                 [32] (54)
1D7F  30                 [33] (54)
1D80  01                 [34] (54)
1D81  00                 [35] (54)
1D82  00                 [36] (55)
1D83  30                 [37] (55)
1D84  01                 [38] (55)
1D85  00                 [39] (55)
1D86  00                 [40] (55)
1D87  30                 [41] (55)
1D88  01                 [42] (55)
1D89  00                 [43] (57)
1D8A  00                 [44] (57)
1D8B  31                 [45] (57)
1D8C  01                 [46] (57)
1D8D  00                 [47] (58)
1D8E  00                 [48] (60)
1D8F  31                 [49] (60)
1D90  01                 [50] (60)
1D91  00                 [51] (60)
1D92  00                 [52] (60)
1D93  31                 [53] (61)
1D94  01                 [54] (61)
1D95  00                 [55] (61)
1D96  00                 [56] (61)
1D97  31                 [57] (62)
1D98  01                 [58] (62)
1D99  00                 [59] (64)
1D9A  00                 [60] (64)
1D9B  31                 [61] (65)
1D9C  01                 [62] (65)
1D9D  00                 [63] (65)
1D9E  00                 [64] (65)
1D9F  34                 [65] (65)
1DA0  01                 [66] (65)
1DA1  00                 [67] (65)
1DA2  00                 [68] (66)
1DA3  34                 [69] (67)
1DA4  01                 [70] (67)
1DA5  00                 [71] (67)
1DA6  00                 [72] (67)
1DA7  34                 [73] (67)
1DA8  01                 [74] (67)
1DA9  00                 [75] (68)
1DAA  00                 [76] (68)
1DAB  34                 [77] (68)
1DAC  01                 [78] (68)
1DAD  00                 [79] (68)
1DAE  00                 [80] (68)
1DAF  34                 [81] (68)
1DB0  01                 [82] (68)
1DB1  00                 [83] (68)
1DB2  00                 [84] (69)
1DB3  35                 [85] (69)
1DB4  01                 [86] (69)
1DB5  00                 [87] (69)
1DB6  00                 [88] (69)
1DB7  35                 [89] (69)
1DB8  01                 [90] (69)
1DB9  00                 [91] (72)
                         * locals:
1ECB  00                 sizelocvars (0)
                         * upvalues:
1ECC  00                 sizeupvalues (0)
                         ** end of function **

                         
1ECD                     ** function [11] definition (level 2)
                         ** start of function **
1ECD  00                 string size (0)
                         source name: (none)
1ECF  02                 line defined (330)
1ED0  E9                 last line defined (361)
1ED1  02                 nups (4)
1ED2  04                 numparams (0)
1ED3  00                 is_vararg (0)
1ED4  00                 maxstacksize (14)
                         * code:
1ED6  42                 sizecode (66)
1ED7  13000000           [01] getupval   0   0      
fail op	35
1EDB  63004000           [02] close      1  
1EDF  1AC00080           [03] jmp        4            ; to [8]
1EE3  13000000           [04] getupval   0   0      
1EE7  0A000000           [05] len        0   0      
fail op	35
1EEB  23404000           [06] close      0  
1EEF  1A000080           [07] jmp        1            ; to [9]
1EF3  1E008000           [08] return     0   1      
1EF7  17000000           [09] loadbool   0   0   0    ; false
1EFB  5D800000           [10] getglobal  1   2        ; gClient
1EFF  64C0C000           [11] self       1   1   259  ; -266941352
1F03  62800001           [12] call       1   2   2  
1F07  9D000100           [13] getglobal  2   4        ; 1074689893
1F0B  D2008000           [14] move       3   1      
1F0F  A2800001           [15] call       2   2   2  
fail op	9
1F13  89000001           [16] settable   2   2   0  
1F17  D9400100           [17] loadk      3   5        ; 0
1F1B  13010000           [18] getupval   4   0      
1F1F  0A010002           [19] len        4   4      
1F23  59410100           [20] loadk      5   5        ; 0
1F27  D0C00680           [21] forprep    3   28       ; to [50]
1F2B  D3010000           [22] getupval   7   0      
1F2F  CE818103           [23] gettable   7   7   6  
1F33  0E82C103           [24] gettable   8   7   262  ; "time"
1F37  4EC2C103           [25] gettable   9   7   263  ; "soundInstance"
1F3B  93028000           [26] getupval   10  1      
fail op	21
1F3F  15000205           [27] concat     0   10  8  
1F43  1AC00380           [28] jmp        16           ; to [45]
1F47  98000000           [29] test       2       0    ; to [31] if true
1F4B  1A000180           [30] jmp        5            ; to [36]
1F4F  9D020100           [31] getglobal  10  4        ; 1074689893
1F53  D2028004           [32] move       11  9      
1F57  A2820001           [33] call       10  2   2  
1F5B  98020000           [34] test       10      0    ; to [36] if true
1F5F  1A400080           [35] jmp        2            ; to [38]
1F63  98400000           [36] test       2       1    ; to [38] if false
1F67  1A800180           [37] jmp        7            ; to [45]
1F6B  93020001           [38] getupval   10  2      
1F6F  D3028001           [39] getupval   11  3      
1F73  E402C205           [40] self       11  11  264  ; 76834772
1F77  4E43C203           [41] gettable   13  7   265  ; "sentence"
1F7B  E2028001           [42] call       11  3   0  
1F7F  A2420000           [43] call       10  0   1  
1F83  1A400180           [44] jmp        6            ; to [51]
1F87  93020000           [45] getupval   10  0      
1F8B  8A020005           [46] len        10  10     
fail op	35
1F8F  23800203           [47] close      0  
1F93  1A000080           [48] jmp        1            ; to [50]
1F97  17008000           [49] loadbool   0   1   0    ; true
1F9B  D480F87F           [50] forloop    3   -29      ; to [22] if loop
1F9F  18000000           [51] test       0       0    ; to [53] if true
1FA3  1AC00180           [52] jmp        8            ; to [61]
1FA7  93020001           [53] getupval   10  2      
1FAB  D9820200           [54] loadk      11  10       ; ""
1FAF  A2420001           [55] call       10  2   1  
1FB3  86020005           [56] loadnil    10  10     
fail op	8
1FB7  88020000           [57] setupval   10  0      
1FBB  99420000           [58] loadk      10  1        ; 0
fail op	8
1FBF  88028000           [59] setupval   10  1      
1FC3  1A000180           [60] jmp        5            ; to [66]
1FC7  93028000           [61] getupval   10  1      
1FCB  DDC20200           [62] getglobal  11  11       ; 1289681407
1FCF  E2828000           [63] call       11  1   2  
1FD3  83C20205           [64] add        10  10  11 
fail op	8
1FD7  88028000           [65] setupval   10  1      
1FDB  1E008000           [66] return     0   1      
                         * constants:
1FDF  0C                 sizek (12)
1FE0  00                 const type 0
                         const [0]: nil
1FE1  03                 const type 3
1FE2  00000000           const [1]: (0)
1FE6  04                 const type 4
1FE7  08                 string size (8)
1FE8  67436C69656E7400   "gClient\0"
                         const [2]: "gClient"
1FF0  01                 const type 3
1FF1  58CC16F0           const [3]: (-266941352)
1FF5  01                 const type 3
1FF6  65770E40           const [4]: (1074689893)
1FFA  03                 const type 3
1FFB  0000803F           const [5]: (0)
1FFF  04                 const type 4
2000  05                 string size (5)
2001  74696D6500         "time\0"
                         const [6]: "time"
2006  04                 const type 4
2007  0E                 string size (14)
2008  736F756E64496E73+  "soundIns"
2010  74616E636500       "tance\0"
                         const [7]: "soundInstance"
2016  01                 const type 3
2017  D4679404           const [8]: (76834772)
201B  04                 const type 4
201C  09                 string size (9)
201D  73656E74656E6365+  "sentence"
2025  00                 "\0"
                         const [9]: "sentence"
2026  04                 const type 4
2027  01                 string size (0)
                         const [10]: ""
2029  01                 const type 3
202A  FFF9DE4C           const [11]: (1289681407)
                         * functions:
202E  00                 sizep (0)
                         * lines:
202F  42                 sizelineinfo (66)
                         [pc] (line)
2030  4B                 [01] (75)
2031  01                 [02] (75)
2032  00                 [03] (75)
2033  00                 [04] (75)
2034  4B                 [05] (75)
2035  01                 [06] (75)
2036  00                 [07] (75)
2037  00                 [08] (76)
2038  4B                 [09] (79)
2039  01                 [10] (81)
203A  00                 [11] (81)
203B  00                 [12] (81)
203C  4B                 [13] (82)
203D  01                 [14] (82)
203E  00                 [15] (82)
203F  00                 [16] (82)
2040  4B                 [17] (84)
2041  01                 [18] (84)
2042  00                 [19] (84)
2043  00                 [20] (84)
2044  4B                 [21] (84)
2045  01                 [22] (85)
2046  00                 [23] (85)
2047  00                 [24] (86)
2048  4B                 [25] (87)
2049  01                 [26] (89)
204A  00                 [27] (89)
204B  00                 [28] (89)
204C  4C                 [29] (89)
204D  01                 [30] (89)
204E  00                 [31] (89)
204F  00                 [32] (89)
2050  4F                 [33] (89)
2051  01                 [34] (89)
2052  00                 [35] (89)
2053  00                 [36] (89)
2054  51                 [37] (89)
2055  01                 [38] (90)
2056  00                 [39] (90)
2057  00                 [40] (90)
2058  51                 [41] (90)
2059  01                 [42] (90)
205A  00                 [43] (90)
205B  00                 [44] (91)
205C  51                 [45] (93)
205D  01                 [46] (93)
205E  00                 [47] (93)
205F  00                 [48] (93)
2060  52                 [49] (94)
2061  01                 [50] (84)
2062  00                 [51] (98)
2063  00                 [52] (98)
2064  52                 [53] (99)
2065  01                 [54] (99)
2066  00                 [55] (99)
2067  00                 [56] (100)
2068  52                 [57] (100)
2069  01                 [58] (101)
206A  00                 [59] (101)
206B  00                 [60] (101)
206C  52                 [61] (103)
206D  01                 [62] (103)
206E  00                 [63] (103)
206F  00                 [64] (103)
2070  54                 [65] (103)
2071  01                 [66] (105)
                         * locals:
2138  00                 sizelocvars (0)
                         * upvalues:
2139  00                 sizeupvalues (0)
                         ** end of function **

                         
213A                     ** function [12] definition (level 2)
                         ** start of function **
213A  00                 string size (0)
                         source name: (none)
213C  02                 line defined (363)
213D  F4                 last line defined (372)
213E  02                 nups (5)
213F  05                 numparams (0)
2140  00                 is_vararg (0)
2141  00                 maxstacksize (8)
                         * code:
2143  31                 sizecode (49)
2144  1D000000           [01] getglobal  0   0        ; 1074689893
2148  5D400000           [02] getglobal  1   1        ; _T
214C  4E80C000           [03] gettable   1   1   258  ; "curTransmission"
2150  22800001           [04] call       0   2   2  
2154  18400000           [05] test       0       1    ; to [7] if false
2158  1A400A80           [06] jmp        42           ; to [49]
215C  1D400000           [07] getglobal  0   1        ; _T
2160  0E804000           [08] gettable   0   0   258  ; "curTransmission"
2164  24C04000           [09] self       0   0   259  ; 177934378
2168  22800001           [10] call       0   2   2  
216C  53000000           [11] getupval   1   0      
2170  6400C100           [12] self       1   1   260  ; 643307062
2174  D3008000           [13] getupval   3   1      
2178  19410100           [14] loadk      4   5        ; ".ImageOuter.Image"
217C  C2008101           [15] concat     3   3   4  
2180  12010000           [16] move       4   0      
2184  62400002           [17] call       1   4   1  
2188  5D800100           [18] getglobal  1   6        ; 1390508688
218C  93000000           [19] getupval   2   0      
2190  D3008000           [20] getupval   3   1      
2194  19410100           [21] loadk      4   5        ; ".ImageOuter.Image"
2198  C2008101           [22] concat     3   3   4  
219C  1DC10100           [23] getglobal  4   7        ; UISys
21A0  0E014202           [24] gettable   4   4   264  ; "FlashInstance_EASE_IN"
21A4  4B018000           [25] newtable   5   1   0    ; array=1, hash=0
21A8  99410200           [26] loadk      6   9        ; "_alpha"
21AC  5B418000           [27] setlist    5   1   1    ; index 1 to 1
21B0  8B018000           [28] newtable   6   1   0    ; array=1, hash=0
21B4  D9810200           [29] loadk      7   10       ; 0
21B8  9B418000           [30] setlist    6   1   1    ; index 1 to 1
21BC  D9C10200           [31] loadk      7   11       ; -51
21C0  62408003           [32] call       1   7   1  
21C4  53000000           [33] getupval   1   0      
21C8  6400C300           [34] self       1   1   268  ; -2013161817
21CC  D3008000           [35] getupval   3   1      
21D0  19410300           [36] loadk      4   13       ; "ImageOuter.Image"
21D4  59810300           [37] loadk      5   14       ; "_width"
21D8  93010001           [38] getupval   6   2      
21DC  62400003           [39] call       1   6   1  
21E0  53000000           [40] getupval   1   0      
21E4  6400C300           [41] self       1   1   268  ; -2013161817
21E8  D3008000           [42] getupval   3   1      
21EC  19410300           [43] loadk      4   13       ; "ImageOuter.Image"
21F0  59C10300           [44] loadk      5   15       ; "_height"
21F4  93018001           [45] getupval   6   3      
21F8  62400003           [46] call       1   6   1  
21FC  59000400           [47] loadk      1   16       ; 0
fail op	8
2200  48000002           [48] setupval   1   4      
2204  1E008000           [49] return     0   1      
                         * constants:
2208  11                 sizek (17)
2209  01                 const type 3
220A  65770E40           const [0]: (1074689893)
220E  04                 const type 4
220F  03                 string size (3)
2210  5F5400             "_T\0"
                         const [1]: "_T"
2213  04                 const type 4
2214  10                 string size (16)
2215  6375725472616E73+  "curTrans"
221D  6D697373696F6E00   "mission\0"
                         const [2]: "curTransmission"
2225  01                 const type 3
2226  2A109B0A           const [3]: (177934378)
222A  01                 const type 3
222B  36165826           const [4]: (643307062)
222F  04                 const type 4
2230  12                 string size (18)
2231  2E496D6167654F75+  ".ImageOu"
2239  7465722E496D6167+  "ter.Imag"
2241  6500               "e\0"
                         const [5]: ".ImageOuter.Image"
2243  01                 const type 3
2244  907AE152           const [6]: (1390508688)
2248  04                 const type 4
2249  06                 string size (6)
224A  554953797300       "UISys\0"
                         const [7]: "UISys"
2250  04                 const type 4
2251  16                 string size (22)
2252  466C617368496E73+  "FlashIns"
225A  74616E63655F4541+  "tance_EA"
2262  53455F494E00       "SE_IN\0"
                         const [8]: "FlashInstance_EASE_IN"
2268  04                 const type 4
2269  07                 string size (7)
226A  5F616C70686100     "_alpha\0"
                         const [9]: "_alpha"
2271  03                 const type 3
2272  0000C842           const [10]: (0)
2276  03                 const type 3
2277  CDCC4C3E           const [11]: (-51)
227B  01                 const type 3
227C  A7960188           const [12]: (-2013161817)
2280  04                 const type 4
2281  11                 string size (17)
2282  496D6167654F7574+  "ImageOut"
228A  65722E496D616765+  "er.Image"
2292  00                 "\0"
                         const [13]: "ImageOuter.Image"
2293  04                 const type 4
2294  07                 string size (7)
2295  5F776964746800     "_width\0"
                         const [14]: "_width"
229C  04                 const type 4
229D  08                 string size (8)
229E  5F68656967687400   "_height\0"
                         const [15]: "_height"
22A6  03                 const type 3
22A7  0000803F           const [16]: (0)
                         * functions:
22AB  00                 sizep (0)
                         * lines:
22AC  31                 sizelineinfo (49)
                         [pc] (line)
22AD  6C                 [01] (108)
22AE  01                 [02] (108)
22AF  00                 [03] (108)
22B0  00                 [04] (108)
22B1  6C                 [05] (108)
22B2  01                 [06] (108)
22B3  00                 [07] (109)
22B4  00                 [08] (109)
22B5  6C                 [09] (109)
22B6  01                 [10] (109)
22B7  00                 [11] (110)
22B8  00                 [12] (110)
22B9  6C                 [13] (110)
22BA  01                 [14] (110)
22BB  00                 [15] (110)
22BC  00                 [16] (110)
22BD  6C                 [17] (110)
22BE  01                 [18] (111)
22BF  00                 [19] (111)
22C0  00                 [20] (111)
22C1  6C                 [21] (111)
22C2  01                 [22] (111)
22C3  00                 [23] (111)
22C4  00                 [24] (111)
22C5  6D                 [25] (111)
22C6  01                 [26] (111)
22C7  00                 [27] (111)
22C8  00                 [28] (111)
22C9  6D                 [29] (111)
22CA  01                 [30] (111)
22CB  00                 [31] (111)
22CC  00                 [32] (111)
22CD  6D                 [33] (112)
22CE  01                 [34] (112)
22CF  00                 [35] (112)
22D0  00                 [36] (112)
22D1  6D                 [37] (112)
22D2  01                 [38] (112)
22D3  00                 [39] (112)
22D4  00                 [40] (113)
22D5  6E                 [41] (113)
22D6  01                 [42] (113)
22D7  00                 [43] (113)
22D8  00                 [44] (113)
22D9  6E                 [45] (113)
22DA  01                 [46] (113)
22DB  00                 [47] (114)
22DC  00                 [48] (114)
22DD  6E                 [49] (116)
                         * locals:
2371  00                 sizelocvars (0)
                         * upvalues:
2372  00                 sizeupvalues (0)
                         ** end of function **

                         
2373                     ** function [13] definition (level 2)
                         ** start of function **
2373  00                 string size (0)
                         source name: (none)
2375  02                 line defined (374)
2376  A7                 last line defined (423)
2377  03                 nups (7)
2378  07                 numparams (0)
2379  00                 is_vararg (0)
237A  00                 maxstacksize (6)
                         * code:
237C  7B                 sizecode (123)
237D  1D000000           [001] getglobal  0   0        ; _T
2381  0E404000           [002] gettable   0   0   257  ; "QueuedTransmissions"
2385  18000000           [003] test       0       0    ; to [5] if true
2389  1A000180           [004] jmp        5            ; to [10]
238D  1D000000           [005] getglobal  0   0        ; _T
2391  0E404000           [006] gettable   0   0   257  ; "QueuedTransmissions"
2395  0A000000           [007] len        0   0      
fail op	35
2399  23804000           [008] close      0  
239D  1A400080           [009] jmp        2            ; to [12]
23A1  17000000           [010] loadbool   0   0   0    ; false
23A5  1E000001           [011] return     0   2      
23A9  1D000000           [012] getglobal  0   0        ; _T
23AD  0E404000           [013] gettable   0   0   257  ; "QueuedTransmissions"
23B1  0EC04000           [014] gettable   0   0   259  ; 0
23B5  5D000100           [015] getglobal  1   4        ; 1074689893
23B9  92000000           [016] move       2   0      
23BD  62800001           [017] call       1   2   2  
23C1  58000000           [018] test       1       0    ; to [20] if true
23C5  1A400080           [019] jmp        2            ; to [22]
23C9  57000000           [020] loadbool   1   0   0    ; false
23CD  5E000001           [021] return     1   2      
23D1  5D000000           [022] getglobal  1   0        ; _T
23D5  4E40C100           [023] gettable   1   1   261  ; "curTransmission"
23D9  6480C100           [024] self       1   1   262  ; 1043208183
23DD  62800001           [025] call       1   2   2  
23E1  9D000100           [026] getglobal  2   4        ; 1074689893
23E5  D2008000           [027] move       3   1      
23E9  A2800001           [028] call       2   2   2  
23ED  98400000           [029] test       2       1    ; to [31] if false
23F1  1A000380           [030] jmp        13           ; to [44]
fail op	35
23F5  63008000           [031] close      1  
23F9  1A800280           [032] jmp        11           ; to [44]
23FD  9DC00100           [033] getglobal  2   7        ; -1817107093
2401  D9000200           [034] loadk      3   8        ; "CheckAdvanceToNext - skipping, "
2405  1D010000           [035] getglobal  4   0        ; _T
2409  0E414102           [036] gettable   4   4   261  ; "curTransmission"
240D  24414202           [037] self       4   4   265  ; 455421500
2411  22810001           [038] call       4   2   2  
2415  59810200           [039] loadk      5   10       ; " has next transmission "
2419  C2408101           [040] concat     3   3   5  
241D  A2400001           [041] call       2   2   1  
2421  97000000           [042] loadbool   2   0   0    ; false
2425  9E000001           [043] return     2   2      
2429  9DC00200           [044] getglobal  2   11       ; -356128968
242D  D2000000           [045] move       3   0      
2431  A2800001           [046] call       2   2   2  
2435  98000000           [047] test       2       0    ; to [49] if true
2439  1A400480           [048] jmp        18           ; to [67]
fail op	8
243D  08000000           [049] setupval   0   0      
2441  9D000300           [050] getglobal  2   12       ; UISys
2445  8E404301           [051] gettable   2   2   269  ; 1151030240
2449  CB000000           [052] newtable   3   0   0    ; array=0, hash=0
244D  24414200           [053] self       4   0   265  ; 455421500
2451  22010001           [054] call       4   2   0  
2455  DB400000           [055] setlist    3   0   1    ; index 1 to top
2459  17018000           [056] loadbool   4   1   0    ; true
245D  A2808001           [057] call       2   3   2  
fail op	8
2461  88008000           [058] setupval   2   1      
2465  9DC00100           [059] getglobal  2   7        ; -1817107093
2469  D9800300           [060] loadk      3   14       ; "CheckAdvanceToNext kicked off resloader: "
246D  24414200           [061] self       4   0   265  ; 455421500
2471  22810001           [062] call       4   2   2  
2475  C2008101           [063] concat     3   3   4  
2479  A2400001           [064] call       2   2   1  
247D  97008000           [065] loadbool   2   1   0    ; true
2481  9E000001           [066] return     2   2      
2485  9DC00300           [067] getglobal  2   15       ; 2083004503
2489  E4404200           [068] self       3   0   265  ; 455421500
248D  E2000001           [069] call       3   2   0  
2491  A2800000           [070] call       2   0   2  
2495  52000001           [071] move       1   2      
2499  A400C400           [072] self       2   1   272  ; 1173883690
249D  A2800001           [073] call       2   2   2  
fail op	21
24A1  15800081           [074] concat     0   258 2  
24A5  1A400080           [075] jmp        2            ; to [78]
24A9  97000000           [076] loadbool   2   0   0    ; false
24AD  9E000001           [077] return     2   2      
24B1  9D000000           [078] getglobal  2   0        ; _T
24B5  8E404101           [079] gettable   2   2   261  ; "curTransmission"
24B9  A4404401           [080] self       2   2   273  ; 160353921
24BD  A2800001           [081] call       2   2   2  
24C1  E440C400           [082] self       3   1   273  ; 160353921
24C5  E2800001           [083] call       3   2   2  
fail op	35
24C9  63C00001           [084] close      1  
24CD  1A400080           [085] jmp        2            ; to [88]
24D1  97000000           [086] loadbool   2   0   0    ; false
24D5  9E000001           [087] return     2   2      
24D9  93000001           [088] getupval   2   2      
24DD  DD000000           [089] getglobal  3   0        ; _T
24E1  CE40C101           [090] gettable   3   3   261  ; "curTransmission"
24E5  A2800001           [091] call       2   2   2  
24E9  D3000001           [092] getupval   3   2      
24ED  12018000           [093] move       4   1      
24F1  E2800001           [094] call       3   2   2  
fail op	35
24F5  63C00001           [095] close      1  
24F9  1A400080           [096] jmp        2            ; to [99]
24FD  97000000           [097] loadbool   2   0   0    ; false
2501  9E000001           [098] return     2   2      
2505  9D000000           [099] getglobal  2   0        ; _T
2509  8C408082           [100] settable   2   261 1    ; "curTransmission"
250D  9DC00100           [101] getglobal  2   7        ; -1817107093
2511  D9800400           [102] loadk      3   18       ; "CheckAdvanceToNext taking"
2515  2441C200           [103] self       4   1   265  ; 455421500
2519  22810001           [104] call       4   2   2  
251D  C2008101           [105] concat     3   3   4  
2521  A2400001           [106] call       2   2   1  
2525  9DC00400           [107] getglobal  2   19       ; -895206725
2529  D2008000           [108] move       3   1      
252D  A2800001           [109] call       2   2   2  
fail op	8
2531  88008001           [110] setupval   2   3      
2535  9D000500           [111] getglobal  2   20       ; table
2539  8E404501           [112] gettable   2   2   277  ; -843973282
253D  DD000000           [113] getglobal  3   0        ; _T
2541  CE40C001           [114] gettable   3   3   257  ; "QueuedTransmissions"
2545  19C10000           [115] loadk      4   3        ; 0
2549  A2408001           [116] call       2   3   1  
254D  93008002           [117] getupval   2   5      
fail op	8
2551  88000002           [118] setupval   2   4      
2555  99800500           [119] loadk      2   22       ; 0
fail op	8
2559  88000003           [120] setupval   2   6      
255D  97008000           [121] loadbool   2   1   0    ; true
2561  9E000001           [122] return     2   2      
2565  1E008000           [123] return     0   1      
                         * constants:
2569  17                 sizek (23)
256A  04                 const type 4
256B  03                 string size (3)
256C  5F5400             "_T\0"
                         const [0]: "_T"
256F  04                 const type 4
2570  14                 string size (20)
2571  5175657565645472+  "QueuedTr"
2579  616E736D69737369+  "ansmissi"
2581  6F6E7300           "ons\0"
                         const [1]: "QueuedTransmissions"
2585  03                 const type 3
2586  00000000           const [2]: (0)
258A  03                 const type 3
258B  0000803F           const [3]: (0)
258F  01                 const type 3
2590  65770E40           const [4]: (1074689893)
2594  04                 const type 4
2595  10                 string size (16)
2596  6375725472616E73+  "curTrans"
259E  6D697373696F6E00   "mission\0"
                         const [5]: "curTransmission"
25A6  01                 const type 3
25A7  F7172E3E           const [6]: (1043208183)
25AB  01                 const type 3
25AC  6B25B193           const [7]: (-1817107093)
25B0  04                 const type 4
25B1  20                 string size (32)
25B2  436865636B416476+  "CheckAdv"
25BA  616E6365546F4E65+  "anceToNe"
25C2  7874202D20736B69+  "xt - ski"
25CA  7070696E672C2000   "pping, \0"
                         const [8]: "CheckAdvanceToNext - skipping, "
25D2  01                 const type 3
25D3  3C2E251B           const [9]: (455421500)
25D7  04                 const type 4
25D8  18                 string size (24)
25D9  20686173206E6578+  " has nex"
25E1  74207472616E736D+  "t transm"
25E9  697373696F6E2000   "ission \0"
                         const [10]: " has next transmission "
25F1  01                 const type 3
25F2  38E7C5EA           const [11]: (-356128968)
25F6  04                 const type 4
25F7  06                 string size (6)
25F8  554953797300       "UISys\0"
                         const [12]: "UISys"
25FE  01                 const type 3
25FF  E0539B44           const [13]: (1151030240)
2603  04                 const type 4
2604  2A                 string size (42)
2605  436865636B416476+  "CheckAdv"
260D  616E6365546F4E65+  "anceToNe"
2615  7874206B69636B65+  "xt kicke"
261D  64206F6666207265+  "d off re"
2625  736C6F616465723A+  "sloader:"
262D  2000               " \0"
                         const [14]: "CheckAdvanceToNext kicked off resloader: "
262F  01                 const type 3
2630  5720287C           const [15]: (2083004503)
2634  01                 const type 3
2635  2A0BF845           const [16]: (1173883690)
2639  01                 const type 3
263A  81CE8E09           const [17]: (160353921)
263E  04                 const type 4
263F  1A                 string size (26)
2640  436865636B416476+  "CheckAdv"
2648  616E6365546F4E65+  "anceToNe"
2650  78742074616B696E+  "xt takin"
2658  6700               "g\0"
                         const [18]: "CheckAdvanceToNext taking"
265A  01                 const type 3
265B  BB3AA4CA           const [19]: (-895206725)
265F  04                 const type 4
2660  06                 string size (6)
2661  7461626C6500       "table\0"
                         const [20]: "table"
2667  01                 const type 3
2668  5EFDB1CD           const [21]: (-843973282)
266C  03                 const type 3
266D  0000003F           const [22]: (0)
                         * functions:
2671  00                 sizep (0)
                         * lines:
2672  7B                 sizelineinfo (123)
                         [pc] (line)
2673  77                 [001] (119)
2674  01                 [002] (119)
2675  00                 [003] (119)
2676  00                 [004] (119)
2677  77                 [005] (119)
2678  01                 [006] (119)
2679  00                 [007] (119)
267A  00                 [008] (119)
267B  77                 [009] (119)
267C  01                 [010] (120)
267D  00                 [011] (120)
267E  00                 [012] (123)
267F  77                 [013] (123)
2680  01                 [014] (123)
2681  00                 [015] (125)
2682  00                 [016] (125)
2683  77                 [017] (125)
2684  01                 [018] (125)
2685  00                 [019] (125)
2686  00                 [020] (126)
2687  77                 [021] (126)
2688  01                 [022] (-127)
2689  00                 [023] (-127)
268A  00                 [024] (-127)
268B  77                 [025] (-127)
268C  01                 [026] (-126)
268D  00                 [027] (-126)
268E  00                 [028] (-126)
268F  77                 [029] (-126)
2690  01                 [030] (-126)
2691  00                 [031] (-126)
2692  00                 [032] (-126)
2693  77                 [033] (-125)
2694  01                 [034] (-125)
2695  00                 [035] (-125)
2696  00                 [036] (-125)
2697  78                 [037] (-125)
2698  01                 [038] (-125)
2699  00                 [039] (-125)
269A  00                 [040] (-125)
269B  78                 [041] (-125)
269C  01                 [042] (-124)
269D  00                 [043] (-124)
269E  00                 [044] (-121)
269F  7B                 [045] (-121)
26A0  01                 [046] (-121)
26A1  00                 [047] (-121)
26A2  00                 [048] (-121)
26A3  7B                 [049] (-120)
26A4  01                 [050] (-119)
26A5  00                 [051] (-119)
26A6  00                 [052] (-119)
26A7  7B                 [053] (-119)
26A8  01                 [054] (-119)
26A9  00                 [055] (-119)
26AA  00                 [056] (-119)
26AB  7D                 [057] (-119)
26AC  01                 [058] (-119)
26AD  00                 [059] (-118)
26AE  00                 [060] (-118)
26AF  7D                 [061] (-118)
26B0  01                 [062] (-118)
26B1  00                 [063] (-118)
26B2  00                 [064] (-118)
26B3  7D                 [065] (-117)
26B4  01                 [066] (-117)
26B5  00                 [067] (-114)
26B6  00                 [068] (-114)
26B7  7D                 [069] (-114)
26B8  01                 [070] (-114)
26B9  00                 [071] (-114)
26BA  00                 [072] (-113)
26BB  7D                 [073] (-113)
26BC  01                 [074] (-113)
26BD  00                 [075] (-113)
26BE  00                 [076] (-111)
26BF  7E                 [077] (-111)
26C0  01                 [078] (-109)
26C1  00                 [079] (-109)
26C2  00                 [080] (-109)
26C3  7E                 [081] (-109)
26C4  01                 [082] (-109)
26C5  00                 [083] (-109)
26C6  00                 [084] (-109)
26C7  81                 [085] (-109)
26C8  01                 [086] (-107)
26C9  00                 [087] (-107)
26CA  00                 [088] (-104)
26CB  81                 [089] (-104)
26CC  01                 [090] (-104)
26CD  00                 [091] (-104)
26CE  00                 [092] (-104)
26CF  81                 [093] (-104)
26D0  01                 [094] (-104)
26D1  00                 [095] (-104)
26D2  00                 [096] (-104)
26D3  81                 [097] (-102)
26D4  01                 [098] (-102)
26D5  00                 [099] (-99)
26D6  00                 [100] (-99)
26D7  82                 [101] (-97)
26D8  01                 [102] (-97)
26D9  00                 [103] (-97)
26DA  00                 [104] (-97)
26DB  82                 [105] (-97)
26DC  01                 [106] (-97)
26DD  00                 [107] (-95)
26DE  00                 [108] (-95)
26DF  82                 [109] (-95)
26E0  01                 [110] (-95)
26E1  00                 [111] (-94)
26E2  00                 [112] (-94)
26E3  82                 [113] (-94)
26E4  01                 [114] (-94)
26E5  00                 [115] (-94)
26E6  00                 [116] (-94)
26E7  82                 [117] (-92)
26E8  01                 [118] (-92)
26E9  00                 [119] (-91)
26EA  00                 [120] (-91)
26EB  82                 [121] (-90)
26EC  01                 [122] (-90)
26ED  00                 [123] (-89)
                         * locals:
285F  00                 sizelocvars (0)
                         * upvalues:
2860  00                 sizeupvalues (0)
                         ** end of function **

                         
2861                     ** function [14] definition (level 2)
                         ** start of function **
2861  00                 string size (0)
                         source name: (none)
2863  03                 line defined (425)
2864  B5                 last line defined (437)
2865  03                 nups (2)
2866  02                 numparams (0)
2867  00                 is_vararg (0)
2868  00                 maxstacksize (3)
                         * code:
286A  25                 sizecode (37)
286B  1D000000           [01] getglobal  0   0        ; 1074689893
286F  53000000           [02] getupval   1   0      
2873  22800001           [03] call       0   2   2  
2877  18400000           [04] test       0       1    ; to [6] if false
287B  1AC00280           [05] jmp        12           ; to [18]
287F  1D000000           [06] getglobal  0   0        ; 1074689893
2883  5D400000           [07] getglobal  1   1        ; _T
2887  4E80C000           [08] gettable   1   1   258  ; "curTransmission"
288B  22800001           [09] call       0   2   2  
288F  18400000           [10] test       0       1    ; to [12] if false
2893  1A400180           [11] jmp        6            ; to [18]
2897  1D400000           [12] getglobal  0   1        ; _T
289B  0E804000           [13] gettable   0   0   258  ; "curTransmission"
289F  24C04000           [14] self       0   0   259  ; 1993896586
28A3  22800001           [15] call       0   2   2  
fail op	33
28A7  21004100           [16] tforloop   0       260  ; to [18] if exit
28AB  1A400080           [17] jmp        2            ; to [20]
28AF  17008000           [18] loadbool   0   1   0    ; true
28B3  1E000001           [19] return     0   2      
28B7  13000000           [20] getupval   0   0      
28BB  24404100           [21] self       0   0   261  ; -1750016582
28BF  22800001           [22] call       0   2   2  
28C3  5D400000           [23] getglobal  1   1        ; _T
28C7  4E80C000           [24] gettable   1   1   258  ; "curTransmission"
28CB  64C0C000           [25] self       1   1   259  ; 1993896586
28CF  62800001           [26] call       1   2   2  
fail op	33
28D3  21400000           [27] tforloop   0       1    ; to [29] if exit
28D7  1A400180           [28] jmp        6            ; to [35]
28DB  06000000           [29] loadnil    0   0      
fail op	8
28DF  08000000           [30] setupval   0   0      
28E3  06000000           [31] loadnil    0   0      
fail op	8
28E7  08008000           [32] setupval   0   1      
28EB  17000000           [33] loadbool   0   0   0    ; false
28EF  1E000001           [34] return     0   2      
28F3  17008000           [35] loadbool   0   1   0    ; true
28F7  1E000001           [36] return     0   2      
28FB  1E008000           [37] return     0   1      
                         * constants:
28FF  06                 sizek (6)
2900  01                 const type 3
2901  65770E40           const [0]: (1074689893)
2905  04                 const type 4
2906  03                 string size (3)
2907  5F5400             "_T\0"
                         const [1]: "_T"
290A  04                 const type 4
290B  10                 string size (16)
290C  6375725472616E73+  "curTrans"
2914  6D697373696F6E00   "mission\0"
                         const [2]: "curTransmission"
291C  01                 const type 3
291D  8A72D876           const [3]: (1993896586)
2921  03                 const type 3
2922  00000000           const [4]: (0)
2926  01                 const type 3
2927  BADDB097           const [5]: (-1750016582)
                         * functions:
292B  00                 sizep (0)
                         * lines:
292C  25                 sizelineinfo (37)
                         [pc] (line)
292D  AA                 [01] (-86)
292E  01                 [02] (-86)
292F  00                 [03] (-86)
2930  00                 [04] (-86)
2931  AA                 [05] (-86)
2932  01                 [06] (-86)
2933  00                 [07] (-86)
2934  00                 [08] (-86)
2935  AA                 [09] (-86)
2936  01                 [10] (-86)
2937  00                 [11] (-86)
2938  00                 [12] (-86)
2939  AA                 [13] (-86)
293A  01                 [14] (-86)
293B  00                 [15] (-86)
293C  00                 [16] (-86)
293D  AA                 [17] (-86)
293E  01                 [18] (-85)
293F  00                 [19] (-85)
2940  00                 [20] (-82)
2941  AA                 [21] (-82)
2942  01                 [22] (-82)
2943  00                 [23] (-82)
2944  00                 [24] (-82)
2945  AA                 [25] (-82)
2946  01                 [26] (-82)
2947  00                 [27] (-82)
2948  00                 [28] (-82)
2949  AA                 [29] (-80)
294A  01                 [30] (-80)
294B  00                 [31] (-79)
294C  00                 [32] (-79)
294D  AA                 [33] (-78)
294E  01                 [34] (-78)
294F  00                 [35] (-76)
2950  00                 [36] (-76)
2951  AA                 [37] (-75)
                         * locals:
29C1  00                 sizelocvars (0)
                         * upvalues:
29C2  00                 sizeupvalues (0)
                         ** end of function **

                         
29C3                     ** function [15] definition (level 2)
                         ** start of function **
29C3  00                 string size (0)
                         source name: (none)
29C5  03                 line defined (439)
29C6  C2                 last line defined (834)
29C7  06                 nups (60)
29C8  3C                 numparams (0)
29C9  00                 is_vararg (0)
29CA  00                 maxstacksize (37)
                         * code:
29CD  09                 sizecode (1262)
29CE  13000000           [0001] getupval   0   0      
29D2  5D000000           [0002] getglobal  1   0        ; 1661359502
29D6  62808000           [0003] call       1   1   2  
29DA  0D400000           [0004] sub        0   0   1  
fail op	8
29DE  08000000           [0005] setupval   0   0      
29E2  13008000           [0006] getupval   0   1      
29E6  53000001           [0007] getupval   1   2      
fail op	35
29EA  23400000           [0008] close      0  
29EE  1A405980           [0009] jmp        358          ; to [368]
29F2  13008001           [0010] getupval   0   3      
29F6  24404000           [0011] self       0   0   257  ; -2013161817
29FA  93000002           [0012] getupval   2   4      
29FE  D9800000           [0013] loadk      3   2        ; "ImageOuter.TextBack"
2A02  19C10000           [0014] loadk      4   3        ; "_height"
2A06  59010100           [0015] loadk      5   4        ; -51
2A0A  22400003           [0016] call       0   6   1  
2A0E  13008001           [0017] getupval   0   3      
2A12  24404000           [0018] self       0   0   257  ; -2013161817
2A16  93000002           [0019] getupval   2   4      
2A1A  D9400100           [0020] loadk      3   5        ; "TextBackOuter.TextBack"
2A1E  19C10000           [0021] loadk      4   3        ; "_height"
2A22  59010100           [0022] loadk      5   4        ; -51
2A26  22400003           [0023] call       0   6   1  
2A2A  13008001           [0024] getupval   0   3      
2A2E  24404000           [0025] self       0   0   257  ; -2013161817
2A32  93000002           [0026] getupval   2   4      
2A36  D9800100           [0027] loadk      3   6        ; "ImageOuter.LineBottom"
2A3A  19C10100           [0028] loadk      4   7        ; "_y"
2A3E  59010200           [0029] loadk      5   8        ; 0
2A42  22400003           [0030] call       0   6   1  
2A46  17000000           [0031] loadbool   0   0   0    ; false
2A4A  53008002           [0032] getupval   1   5      
2A4E  58000000           [0033] test       1       0    ; to [35] if true
2A52  1A800180           [0034] jmp        7            ; to [42]
2A56  53008002           [0035] getupval   1   5      
2A5A  6440C200           [0036] self       1   1   265  ; 739620187
2A5E  62800001           [0037] call       1   2   2  
2A62  58000000           [0038] test       1       0    ; to [40] if true
2A66  1A400080           [0039] jmp        2            ; to [42]
2A6A  17008000           [0040] loadbool   0   1   0    ; true
2A6E  1A000580           [0041] jmp        21           ; to [63]
2A72  5D800200           [0042] getglobal  1   10       ; _T
2A76  4EC0C200           [0043] gettable   1   1   267  ; "curTransmission"
2A7A  6400C300           [0044] self       1   1   268  ; -1957065004
2A7E  DD400300           [0045] getglobal  3   13       ; nemesisTransmissionType
2A82  62808001           [0046] call       1   3   2  
2A86  58000000           [0047] test       1       0    ; to [49] if true
2A8A  1A400380           [0048] jmp        14           ; to [63]
2A8E  5D800300           [0049] getglobal  1   14       ; 1074689893
2A92  9D800200           [0050] getglobal  2   10       ; _T
2A96  8EC04301           [0051] gettable   2   2   271  ; "NemesisResLoader"
2A9A  62800001           [0052] call       1   2   2  
2A9E  58400000           [0053] test       1       1    ; to [55] if false
2AA2  1A400180           [0054] jmp        6            ; to [61]
2AA6  5D800200           [0055] getglobal  1   10       ; _T
2AAA  4EC0C300           [0056] gettable   1   1   271  ; "NemesisResLoader"
2AAE  6400C400           [0057] self       1   1   272  ; -1344420604
2AB2  62800001           [0058] call       1   2   2  
fail op	9
2AB6  09008000           [0059] settable   0   1   0  
2ABA  1A400080           [0060] jmp        2            ; to [63]
2ABE  17400000           [0061] loadbool   0   0   1    ; false, to [63]
2AC2  17008000           [0062] loadbool   0   1   0    ; true
2AC6  18400000           [0063] test       0       1    ; to [65] if false
2ACA  1A004A80           [0064] jmp        297          ; to [362]
2ACE  53000000           [0065] getupval   1   0      
fail op	33
2AD2  2100C200           [0066] tforloop   0       264  ; to [68] if exit
2AD6  1A404980           [0067] jmp        294          ; to [362]
2ADA  5D800200           [0068] getglobal  1   10       ; _T
2ADE  4E40C400           [0069] gettable   1   1   273  ; "HideTransmissionComms"
2AE2  58400000           [0070] test       1       1    ; to [72] if false
2AE6  1A404880           [0071] jmp        290          ; to [362]
2AEA  53000003           [0072] getupval   1   6      
2AEE  58400000           [0073] test       1       1    ; to [75] if false
2AF2  1A800280           [0074] jmp        11           ; to [86]
2AF6  53008003           [0075] getupval   1   7      
2AFA  58000000           [0076] test       1       0    ; to [78] if true
2AFE  1AC00180           [0077] jmp        8            ; to [86]
2B02  53008004           [0078] getupval   1   9      
2B06  4E80C400           [0079] gettable   1   1   274  ; 630793108
2B0A  9D800200           [0080] getglobal  2   10       ; _T
2B0E  8EC04201           [0081] gettable   2   2   267  ; "curTransmission"
2B12  A4C04401           [0082] self       2   2   275  ; -1073782673
2B16  A2000001           [0083] call       2   2   0  
2B1A  62800000           [0084] call       1   0   2  
fail op	8
2B1E  48000004           [0085] setupval   1   8      
2B22  46008000           [0086] loadnil    1   1      
fail op	8
2B26  48000005           [0087] setupval   1   10     
2B2A  53008005           [0088] getupval   1   11     
fail op	8
2B2E  48008000           [0089] setupval   1   1      
2B32  5D800200           [0090] getglobal  1   10       ; _T
2B36  4EC0C200           [0091] gettable   1   1   267  ; "curTransmission"
2B3A  6400C500           [0092] self       1   1   276  ; -1230329337
2B3E  62800001           [0093] call       1   2   2  
2B42  4340C500           [0094] add        1   1   277  ; 0
2B46  93008001           [0095] getupval   2   3      
2B4A  A4404001           [0096] self       2   2   257  ; -2013161817
2B4E  13010002           [0097] getupval   4   4      
2B52  59810500           [0098] loadk      5   22       ; "Name"
2B56  99C10500           [0099] loadk      6   23       ; "_color"
2B5A  D3010006           [0100] getupval   7   12     
2B5E  CE418003           [0101] gettable   7   7   1  
2B62  A2400003           [0102] call       2   6   1  
2B66  93008001           [0103] getupval   2   3      
2B6A  A4404001           [0104] self       2   2   257  ; -2013161817
2B6E  13010002           [0105] getupval   4   4      
2B72  59010600           [0106] loadk      5   24       ; "Waveform"
2B76  99C10500           [0107] loadk      6   23       ; "_color"
2B7A  D3010006           [0108] getupval   7   12     
2B7E  CE418003           [0109] gettable   7   7   1  
2B82  A2400003           [0110] call       2   6   1  
2B86  93000002           [0111] getupval   2   4      
fail op	35
2B8A  23404601           [0112] close      0  
2B8E  1A800380           [0113] jmp        15           ; to [129]
2B92  9D800600           [0114] getglobal  2   26       ; 1390508688
2B96  D3008001           [0115] getupval   3   3      
2B9A  13010002           [0116] getupval   4   4      
2B9E  5DC10600           [0117] getglobal  5   27       ; UISys
2BA2  4E01C702           [0118] gettable   5   5   284  ; "FlashInstance_SMOOTH_STEP"
2BA6  8B018000           [0119] newtable   6   1   0    ; array=1, hash=0
2BAA  D9410700           [0120] loadk      7   29       ; "_alpha"
2BAE  9B418000           [0121] setlist    6   1   1    ; index 1 to 1
2BB2  CB018000           [0122] newtable   7   1   0    ; array=1, hash=0
2BB6  19820700           [0123] loadk      8   30       ; 0
2BBA  DB418000           [0124] setlist    7   1   1    ; index 1 to 1
2BBE  13028006           [0125] getupval   8   13     
2BC2  59020200           [0126] loadk      9   8        ; 0
2BC6  A2400004           [0127] call       2   8   1  
2BCA  1A400480           [0128] jmp        18           ; to [147]
2BCE  9D800600           [0129] getglobal  2   26       ; 1390508688
2BD2  D3008001           [0130] getupval   3   3      
2BD6  13010002           [0131] getupval   4   4      
2BDA  5DC10600           [0132] getglobal  5   27       ; UISys
2BDE  4E01C702           [0133] gettable   5   5   284  ; "FlashInstance_SMOOTH_STEP"
2BE2  8B018001           [0134] newtable   6   3   0    ; array=3, hash=0
2BE6  D9410700           [0135] loadk      7   29       ; "_alpha"
2BEA  19C20700           [0136] loadk      8   31       ; "_x"
2BEE  59C20100           [0137] loadk      9   7        ; "_y"
2BF2  9B418001           [0138] setlist    6   3   1    ; index 1 to 3
2BF6  CB018001           [0139] newtable   7   3   0    ; array=3, hash=0
2BFA  19820700           [0140] loadk      8   30       ; 0
2BFE  53020007           [0141] getupval   9   14     
2C02  93028007           [0142] getupval   10  15     
2C06  DB418001           [0143] setlist    7   3   1    ; index 1 to 3
2C0A  13028006           [0144] getupval   8   13     
2C0E  59020200           [0145] loadk      9   8        ; 0
2C12  A2400004           [0146] call       2   8   1  
2C16  93008001           [0147] getupval   2   3      
2C1A  A4404001           [0148] self       2   2   257  ; -2013161817
2C1E  13010002           [0149] getupval   4   4      
2C22  59010800           [0150] loadk      5   32       ; "ImageOuter.Image"
2C26  99410700           [0151] loadk      6   29       ; "_alpha"
2C2A  D9010200           [0152] loadk      7   8        ; 0
2C2E  A2400003           [0153] call       2   6   1  
2C32  9D800600           [0154] getglobal  2   26       ; 1390508688
2C36  D3008001           [0155] getupval   3   3      
2C3A  13010002           [0156] getupval   4   4      
2C3E  59410800           [0157] loadk      5   33       ; ".ImageOuter.Image"
2C42  02410102           [0158] concat     4   4   5  
2C46  5DC10600           [0159] getglobal  5   27       ; UISys
2C4A  4E81C802           [0160] gettable   5   5   290  ; "FlashInstance_LINEAR"
2C4E  8B018000           [0161] newtable   6   1   0    ; array=1, hash=0
2C52  D9410700           [0162] loadk      7   29       ; "_alpha"
2C56  9B418000           [0163] setlist    6   1   1    ; index 1 to 1
2C5A  CB018000           [0164] newtable   7   1   0    ; array=1, hash=0
2C5E  13020008           [0165] getupval   8   16     
2C62  DB418000           [0166] setlist    7   1   1    ; index 1 to 1
2C66  19420500           [0167] loadk      8   21       ; 0
2C6A  59020200           [0168] loadk      9   8        ; 0
2C6E  A2400004           [0169] call       2   8   1  
2C72  9D800200           [0170] getglobal  2   10       ; _T
2C76  8EC04201           [0171] gettable   2   2   267  ; "curTransmission"
2C7A  A4C04801           [0172] self       2   2   291  ; -1374032612
2C7E  A2800001           [0173] call       2   2   2  
2C82  D3000002           [0174] getupval   3   4      
fail op	35
2C86  6340C601           [0175] close      1  
2C8A  1A400F80           [0176] jmp        62           ; to [239]
2C8E  D3008008           [0177] getupval   3   17     
2C92  D8400000           [0178] test       3       1    ; to [180] if false
2C96  1A800E80           [0179] jmp        59           ; to [239]
2C9A  DD800300           [0180] getglobal  3   14       ; 1074689893
2C9E  12010001           [0181] move       4   2      
2CA2  E2800001           [0182] call       3   2   2  
2CA6  D8000000           [0183] test       3       0    ; to [185] if true
2CAA  1AC00980           [0184] jmp        40           ; to [225]
2CAE  DD800200           [0185] getglobal  3   10       ; _T
2CB2  CEC0C201           [0186] gettable   3   3   267  ; "curTransmission"
2CB6  E400C901           [0187] self       3   3   292  ; 177934378
2CBA  E2800001           [0188] call       3   2   2  
2CBE  92008001           [0189] move       2   3      
2CC2  DD800200           [0190] getglobal  3   10       ; _T
2CC6  CEC0C201           [0191] gettable   3   3   267  ; "curTransmission"
2CCA  E440C901           [0192] self       3   3   293  ; -771557979
2CCE  E2800001           [0193] call       3   2   2  
fail op	8
2CD2  C8000009           [0194] setupval   3   18     
2CD6  D3008001           [0195] getupval   3   3      
2CDA  E440C001           [0196] self       3   3   257  ; -2013161817
2CDE  53010002           [0197] getupval   5   4      
2CE2  99010800           [0198] loadk      6   32       ; "ImageOuter.Image"
2CE6  D9810900           [0199] loadk      7   38       ; "_width"
2CEA  13028009           [0200] getupval   8   19     
2CEE  53020009           [0201] getupval   9   18     
2CF2  04420204           [0202] mul        8   8   9  
2CF6  E2400003           [0203] call       3   6   1  
2CFA  D3008001           [0204] getupval   3   3      
2CFE  E440C001           [0205] self       3   3   257  ; -2013161817
2D02  53010002           [0206] getupval   5   4      
2D06  99010800           [0207] loadk      6   32       ; "ImageOuter.Image"
2D0A  D9C10000           [0208] loadk      7   3        ; "_height"
2D0E  1302000A           [0209] getupval   8   20     
2D12  E2400003           [0210] call       3   6   1  
2D16  D3008001           [0211] getupval   3   3      
2D1A  E440C001           [0212] self       3   3   257  ; -2013161817
2D1E  53010002           [0213] getupval   5   4      
2D22  99010800           [0214] loadk      6   32       ; "ImageOuter.Image"
2D26  D9C10700           [0215] loadk      7   31       ; "_x"
2D2A  1DC20900           [0216] getglobal  8   39       ; math
2D2E  0E024A04           [0217] gettable   8   8   296  ; -1962864584
2D32  59020200           [0218] loadk      9   8        ; 0
2D36  93020009           [0219] getupval   10  18     
2D3A  8D424505           [0220] sub        10  10  277  ; 0
2D3E  22828001           [0221] call       8   3   2  
2D42  04028294           [0222] mul        8   297 8    ; 0
2D46  E2400003           [0223] call       3   6   1  
2D4A  1A400380           [0224] jmp        14           ; to [239]
2D4E  D3008001           [0225] getupval   3   3      
2D52  E440C001           [0226] self       3   3   257  ; -2013161817
2D56  53010002           [0227] getupval   5   4      
2D5A  99010800           [0228] loadk      6   32       ; "ImageOuter.Image"
2D5E  D9810900           [0229] loadk      7   38       ; "_width"
2D62  1302800A           [0230] getupval   8   21     
2D66  E2400003           [0231] call       3   6   1  
2D6A  D3008001           [0232] getupval   3   3      
2D6E  E440C001           [0233] self       3   3   257  ; -2013161817
2D72  53010002           [0234] getupval   5   4      
2D76  99010800           [0235] loadk      6   32       ; "ImageOuter.Image"
2D7A  D9C10000           [0236] loadk      7   3        ; "_height"
2D7E  1302000B           [0237] getupval   8   22     
2D82  E2400003           [0238] call       3   6   1  
2D86  D300800B           [0239] getupval   3   23     
2D8A  1D810200           [0240] getglobal  4   10       ; _T
2D8E  0EC14202           [0241] gettable   4   4   267  ; "curTransmission"
2D92  E2800001           [0242] call       3   2   2  
2D96  1D810300           [0243] getglobal  4   14       ; 1074689893
2D9A  52018001           [0244] move       5   3      
2D9E  22810001           [0245] call       4   2   2  
2DA2  18410000           [0246] test       4       1    ; to [248] if false
2DA6  1A001080           [0247] jmp        65           ; to [313]
2DAA  9D800A00           [0248] getglobal  2   42       ; portait3DTexture
2DAE  19C10A00           [0249] loadk      4   43       ; 0
2DB2  53010002           [0250] getupval   5   4      
fail op	35
2DB6  6340C602           [0251] close      1  
2DBA  1A000680           [0252] jmp        25           ; to [278]
2DBE  53018008           [0253] getupval   5   17     
2DC2  58410000           [0254] test       5       1    ; to [256] if false
2DC6  1A400580           [0255] jmp        22           ; to [278]
2DCA  53018001           [0256] getupval   5   3      
2DCE  6441C002           [0257] self       5   5   257  ; -2013161817
2DD2  D3010002           [0258] getupval   7   4      
2DD6  19020800           [0259] loadk      8   32       ; "ImageOuter.Image"
2DDA  59820900           [0260] loadk      9   38       ; "_width"
2DDE  9302000C           [0261] getupval   10  24     
2DE2  62410003           [0262] call       5   6   1  
2DE6  53018001           [0263] getupval   5   3      
2DEA  6441C002           [0264] self       5   5   257  ; -2013161817
2DEE  D3010002           [0265] getupval   7   4      
2DF2  19020800           [0266] loadk      8   32       ; "ImageOuter.Image"
2DF6  59C20000           [0267] loadk      9   3        ; "_height"
2DFA  9302800C           [0268] getupval   10  25     
2DFE  62410003           [0269] call       5   6   1  
2E02  53018001           [0270] getupval   5   3      
2E06  6441C002           [0271] self       5   5   257  ; -2013161817
2E0A  D3010002           [0272] getupval   7   4      
2E0E  19020B00           [0273] loadk      8   44       ; "ImageOuter"
2E12  59420700           [0274] loadk      9   29       ; "_alpha"
2E16  93020008           [0275] getupval   10  16     
2E1A  62410003           [0276] call       5   6   1  
2E1E  19410B00           [0277] loadk      4   45       ; 31
2E22  53018001           [0278] getupval   5   3      
2E26  6481CB02           [0279] self       5   5   302  ; 808102703
2E2A  D3010002           [0280] getupval   7   4      
2E2E  19420800           [0281] loadk      8   33       ; ".ImageOuter.Image"
2E32  C2018203           [0282] concat     7   7   8  
2E36  19C20B00           [0283] loadk      8   47       ; "PixelateBias"
2E3A  59020200           [0284] loadk      9   8        ; 0
2E3E  99020C00           [0285] loadk      10  48       ; -102
2E42  D9020200           [0286] loadk      11  8        ; 0
2E46  19030200           [0287] loadk      12  8        ; 0
2E4A  62410004           [0288] call       5   8   1  
2E4E  65010000           [0289] closure    5   0      
2E52  13008001           [0290] getupval   0   3      
2E56  13000002           [0291] getupval   0   4      
2E5A  13000008           [0292] getupval   0   16     
2E5E  13008008           [0293] getupval   0   17     
2E62  1300800C           [0294] getupval   0   25     
2E66  1300000D           [0295] getupval   0   26     
2E6A  1300800D           [0296] getupval   0   27     
2E6E  9D810600           [0297] getglobal  6   26       ; 1390508688
2E72  D3018001           [0298] getupval   7   3      
2E76  13020002           [0299] getupval   8   4      
2E7A  59420800           [0300] loadk      9   33       ; ".ImageOuter.Image"
2E7E  02420204           [0301] concat     8   8   9  
2E82  5DC20600           [0302] getglobal  9   27       ; UISys
2E86  4E42CC04           [0303] gettable   9   9   305  ; "FlashInstance_EASE_IN_OUT_BACK"
2E8A  8B028000           [0304] newtable   10  1   0    ; array=1, hash=0
2E8E  D2028002           [0305] move       11  5      
2E92  9B428000           [0306] setlist    10  1   1    ; index 1 to 1
2E96  CB028000           [0307] newtable   11  1   0    ; array=1, hash=0
2E9A  19430500           [0308] loadk      12  21       ; 0
2E9E  DB428000           [0309] setlist    11  1   1    ; index 1 to 1
2EA2  12030002           [0310] move       12  4      
2EA6  A2418003           [0311] call       6   7   1  
2EAA  1A800480           [0312] jmp        19           ; to [332]
2EAE  93010002           [0313] getupval   6   4      
fail op	35
2EB2  23404603           [0314] close      0  
2EB6  1AC00380           [0315] jmp        16           ; to [332]
2EBA  9D810600           [0316] getglobal  6   26       ; 1390508688
2EBE  D3018001           [0317] getupval   7   3      
2EC2  13020002           [0318] getupval   8   4      
2EC6  59420800           [0319] loadk      9   33       ; ".ImageOuter.Image"
2ECA  02420204           [0320] concat     8   8   9  
2ECE  5DC20600           [0321] getglobal  9   27       ; UISys
2ED2  4E82C804           [0322] gettable   9   9   290  ; "FlashInstance_LINEAR"
2ED6  8B028000           [0323] newtable   10  1   0    ; array=1, hash=0
2EDA  D9420700           [0324] loadk      11  29       ; "_alpha"
2EDE  9B428000           [0325] setlist    10  1   1    ; index 1 to 1
2EE2  CB028000           [0326] newtable   11  1   0    ; array=1, hash=0
2EE6  19030200           [0327] loadk      12  8        ; 0
2EEA  DB428000           [0328] setlist    11  1   1    ; index 1 to 1
2EEE  19430500           [0329] loadk      12  21       ; 0
2EF2  59030200           [0330] loadk      13  8        ; 0
2EF6  A2410004           [0331] call       6   8   1  
2EFA  93010002           [0332] getupval   6   4      
fail op	35
2EFE  63404603           [0333] close      1  
2F02  1A400280           [0334] jmp        10           ; to [345]
2F06  93018008           [0335] getupval   6   17     
2F0A  98410000           [0336] test       6       1    ; to [338] if false
2F0E  1A800180           [0337] jmp        7            ; to [345]
2F12  93018001           [0338] getupval   6   3      
2F16  A4414003           [0339] self       6   6   257  ; -2013161817
2F1A  13020002           [0340] getupval   8   4      
2F1E  59020800           [0341] loadk      9   32       ; "ImageOuter.Image"
2F22  99C20100           [0342] loadk      10  7        ; "_y"
2F26  D9020200           [0343] loadk      11  8        ; 0
2F2A  A2410003           [0344] call       6   6   1  
2F2E  93018001           [0345] getupval   6   3      
2F32  A4814C03           [0346] self       6   6   306  ; 643307062
2F36  13020002           [0347] getupval   8   4      
2F3A  59420800           [0348] loadk      9   33       ; ".ImageOuter.Image"
2F3E  02420204           [0349] concat     8   8   9  
2F42  52020001           [0350] move       9   2      
2F46  A2410002           [0351] call       6   4   1  
2F4A  93018001           [0352] getupval   6   3      
2F4E  A4414003           [0353] self       6   6   257  ; -2013161817
2F52  13020002           [0354] getupval   8   4      
2F56  59020600           [0355] loadk      9   24       ; "Waveform"
2F5A  99C20C00           [0356] loadk      10  51       ; "_visible"
2F5E  D7028000           [0357] loadbool   11  1   0    ; true
2F62  A2410003           [0358] call       6   6   1  
2F66  9301000E           [0359] getupval   6   28     
2F6A  8C414D9A           [0360] settable   6   308 309  ; "mSmoothHead" nil
2F6E  1A400180           [0361] jmp        6            ; to [368]
2F72  9D810200           [0362] getglobal  6   10       ; _T
2F76  8E414403           [0363] gettable   6   6   273  ; "HideTransmissionComms"
2F7A  98010000           [0364] test       6       0    ; to [366] if true
2F7E  1A400080           [0365] jmp        2            ; to [368]
2F82  93018005           [0366] getupval   6   11     
fail op	8
2F86  88018000           [0367] setupval   6   1      
2F8A  93018000           [0368] getupval   6   1      
2F8E  D3018005           [0369] getupval   7   11     
fail op	35
2F92  23C00103           [0370] close      0  
2F96  1AC08180           [0371] jmp        520          ; to [892]
2F9A  93010000           [0372] getupval   6   0      
fail op	33
2F9E  21004203           [0373] tforloop   0       264  ; to [375] if exit
2FA2  1A008180           [0374] jmp        517          ; to [892]
2FA6  9D810300           [0375] getglobal  6   14       ; 1074689893
2FAA  D3010004           [0376] getupval   7   8      
2FAE  A2810001           [0377] call       6   2   2  
2FB2  98010000           [0378] test       6       0    ; to [380] if true
2FB6  1AC07F80           [0379] jmp        512          ; to [892]
2FBA  9D810200           [0380] getglobal  6   10       ; _T
2FBE  8EC14203           [0381] gettable   6   6   267  ; "curTransmission"
2FC2  A4814D03           [0382] self       6   6   310  ; -1423526166
2FC6  A2810001           [0383] call       6   2   2  
2FCA  DDC10D00           [0384] getglobal  7   55       ; gRegion
2FCE  E401CE03           [0385] self       7   7   312  ; 65205951
2FD2  E2810001           [0386] call       7   2   2  
2FD6  1D820300           [0387] getglobal  8   14       ; 1074689893
2FDA  52028003           [0388] move       9   7      
2FDE  22820001           [0389] call       8   2   2  
2FE2  18420000           [0390] test       8       1    ; to [392] if false
2FE6  1A400880           [0391] jmp        34           ; to [426]
2FEA  1D820200           [0392] getglobal  8   10       ; _T
2FEE  0EC24204           [0393] gettable   8   8   267  ; "curTransmission"
2FF2  24424E04           [0394] self       8   8   313  ; 504461537
2FF6  22820001           [0395] call       8   2   2  
fail op	8
2FFA  0802800E           [0396] setupval   8   29     
2FFE  1D820300           [0397] getglobal  8   14       ; 1074689893
3002  5302800E           [0398] getupval   9   29     
3006  22820001           [0399] call       8   2   2  
300A  18420000           [0400] test       8       1    ; to [402] if false
300E  1AC00180           [0401] jmp        8            ; to [410]
3012  1DC20D00           [0402] getglobal  8   55       ; gRegion
3016  24824E04           [0403] self       8   8   314  ; -1084394954
301A  9302800E           [0404] getupval   10  29     
301E  E4C2CE03           [0405] self       11  7   315  ; 1839670529
3022  E2020001           [0406] call       11  2   0  
3026  22820000           [0407] call       8   0   2  
fail op	8
302A  0802800E           [0408] setupval   8   29     
302E  1AC00380           [0409] jmp        16           ; to [426]
3032  24024F03           [0410] self       8   6   316  ; 828278287
3036  22820001           [0411] call       8   2   2  
303A  18020000           [0412] test       8       0    ; to [414] if true
303E  1AC00280           [0413] jmp        12           ; to [426]
3042  1DC20D00           [0414] getglobal  8   55       ; gRegion
3046  24424F04           [0415] self       8   8   317  ; -1593214796
304A  92020003           [0416] move       10  6      
304E  E4C2CE03           [0417] self       11  7   315  ; 1839670529
3052  E2020001           [0418] call       11  2   0  
3056  22820000           [0419] call       8   0   2  
305A  5D820300           [0420] getglobal  9   14       ; 1074689893
305E  92020004           [0421] move       10  8      
3062  62820001           [0422] call       9   2   2  
3066  58420000           [0423] test       9       1    ; to [425] if false
306A  1A000080           [0424] jmp        1            ; to [426]
fail op	8
306E  0802800E           [0425] setupval   8   29     
3072  5302000E           [0426] getupval   9   28     
3076  6482CF04           [0427] self       9   9   318  ; 1644771420
307A  DD820200           [0428] getglobal  11  10       ; _T
307E  CEC2C205           [0429] gettable   11  11  267  ; "curTransmission"
3082  62C28001           [0430] call       9   3   3  
3086  DD820200           [0431] getglobal  11  10       ; _T
308A  CEC2C205           [0432] gettable   11  11  267  ; "curTransmission"
308E  E4C2CF05           [0433] self       11  11  319  ; 257777649
3092  52030005           [0434] move       13  10     
3096  E2828001           [0435] call       11  3   2  
309A  17030000           [0436] loadbool   12  0   0    ; false
fail op	8
309E  0803000F           [0437] setupval   12  30     
30A2  1D830300           [0438] getglobal  12  14       ; 1074689893
30A6  5303800E           [0439] getupval   13  29     
30AA  22830001           [0440] call       12  2   2  
30AE  18030000           [0441] test       12      0    ; to [443] if true
30B2  1A800880           [0442] jmp        35           ; to [478]
30B6  1D830200           [0443] getglobal  12  10       ; _T
30BA  0EC34206           [0444] gettable   12  12  267  ; "curTransmission"
30BE  24035006           [0445] self       12  12  320  ; 455421500
30C2  22830001           [0446] call       12  2   2  
30C6  5D830200           [0447] getglobal  13  10       ; _T
30CA  4E43D006           [0448] gettable   13  13  321  ; "TransmissionDspOverrides"
30CE  58030000           [0449] test       13      0    ; to [451] if true
30D2  1A800080           [0450] jmp        3            ; to [454]
30D6  5D830200           [0451] getglobal  13  10       ; _T
30DA  4E43D006           [0452] gettable   13  13  321  ; "TransmissionDspOverrides"
30DE  4E038306           [0453] gettable   13  13  12 
30E2  58030000           [0454] test       13      0    ; to [456] if true
30E6  1A000280           [0455] jmp        9            ; to [465]
30EA  9D830300           [0456] getglobal  14  14       ; 1074689893
30EE  D2038006           [0457] move       15  13     
30F2  A2830001           [0458] call       14  2   2  
30F6  98430000           [0459] test       14      1    ; to [461] if false
30FA  1AC00080           [0460] jmp        4            ; to [465]
30FE  9D830200           [0461] getglobal  14  10       ; _T
3102  8E435007           [0462] gettable   14  14  321  ; "TransmissionDspOverrides"
3106  8C434D06           [0463] settable   14  12  309  ; nil
310A  1A000080           [0464] jmp        1            ; to [466]
310E  46038006           [0465] loadnil    13  13     
3112  9DC30D00           [0466] getglobal  14  55       ; gRegion
3116  A4834407           [0467] self       14  14  274  ; 630793108
311A  12048005           [0468] move       16  11     
311E  5D841000           [0469] getglobal  17  66       ; ZERO_VECTOR
3122  97040000           [0470] loadbool   18  0   0    ; false
3126  DDC41000           [0471] getglobal  19  67       ; Engine
312A  CE04D109           [0472] gettable   19  19  324  ; "SP_HIGH"
312E  0605800A           [0473] loadnil    20  21     
3132  92058006           [0474] move       22  13     
3136  A2838004           [0475] call       14  9   2  
fail op	8
313A  88030004           [0476] setupval   14  8      
313E  1A400A80           [0477] jmp        42           ; to [520]
3142  9303800E           [0478] getupval   14  29     
3146  A4834407           [0479] self       14  14  274  ; 630793108
314A  12048005           [0480] move       16  11     
314E  57040000           [0481] loadbool   17  0   0    ; false
3152  9DC41000           [0482] getglobal  18  67       ; Engine
3156  8E445109           [0483] gettable   18  18  325  ; "SP_VERY_LOW"
315A  D7040000           [0484] loadbool   19  0   0    ; false
315E  1305800F           [0485] getupval   20  31     
3162  22058000           [0486] call       20  1   0  
3166  A2830000           [0487] call       14  0   2  
fail op	8
316A  88030004           [0488] setupval   14  8      
316E  9303800E           [0489] getupval   14  29     
3172  A4835107           [0490] self       14  14  326  ; 2076587185
3176  13040004           [0491] getupval   16  8      
317A  A2438001           [0492] call       14  3   1  
317E  9D830300           [0493] getglobal  14  14       ; 1074689893
3182  DD830200           [0494] getglobal  15  10       ; _T
3186  CEC3D107           [0495] gettable   15  15  327  ; "CurrentConversation"
318A  A2830001           [0496] call       14  2   2  
318E  98430000           [0497] test       14      1    ; to [499] if false
3192  1A000380           [0498] jmp        13           ; to [512]
3196  9D830200           [0499] getglobal  14  10       ; _T
319A  8EC35107           [0500] gettable   14  14  327  ; "CurrentConversation"
319E  8E035207           [0501] gettable   14  14  328  ; "mHubNpc"
31A2  D303800E           [0502] getupval   15  29     
fail op	35
31A6  23C00307           [0503] close      0  
31AA  1A800180           [0504] jmp        7            ; to [512]
31AE  9D830200           [0505] getglobal  14  10       ; _T
31B2  8EC35107           [0506] gettable   14  14  327  ; "CurrentConversation"
31B6  8E435207           [0507] gettable   14  14  329  ; "IsUnmasked"
31BA  98030000           [0508] test       14      0    ; to [510] if true
31BE  1A400080           [0509] jmp        2            ; to [512]
31C2  97038000           [0510] loadbool   14  1   0    ; true
fail op	8
31C6  8803000F           [0511] setupval   14  30     
31CA  9303800E           [0512] getupval   14  29     
31CE  A4034307           [0513] self       14  14  268  ; -1957065004
31D2  1D841200           [0514] getglobal  16  74       ; gAvatarType
31D6  A2838001           [0515] call       14  3   2  
31DA  98030000           [0516] test       14      0    ; to [518] if true
31DE  1A400080           [0517] jmp        2            ; to [520]
31E2  86030007           [0518] loadnil    14  14     
fail op	8
31E6  8803800E           [0519] setupval   14  29     
31EA  93030004           [0520] getupval   14  8      
fail op	8
31EE  88030005           [0521] setupval   14  10     
31F2  9D830200           [0522] getglobal  14  10       ; _T
31F6  8EC34207           [0523] gettable   14  14  267  ; "curTransmission"
31FA  A4C35207           [0524] self       14  14  331  ; -796571677
31FE  A2830001           [0525] call       14  2   2  
3202  98430000           [0526] test       14      1    ; to [528] if false
3206  1A800280           [0527] jmp        11           ; to [539]
320A  9D830200           [0528] getglobal  14  10       ; _T
320E  8EC34207           [0529] gettable   14  14  267  ; "curTransmission"
3212  A4035307           [0530] self       14  14  332  ; -983141836
3216  A2830001           [0531] call       14  2   2  
321A  98430000           [0532] test       14      1    ; to [534] if false
321E  1A000180           [0533] jmp        5            ; to [539]
3222  9D830300           [0534] getglobal  14  14       ; 1074689893
3226  D303800E           [0535] getupval   15  29     
322A  A2830001           [0536] call       14  2   2  
322E  98430000           [0537] test       14      1    ; to [539] if false
3232  1A400180           [0538] jmp        6            ; to [545]
3236  9DC30D00           [0539] getglobal  14  55       ; gRegion
323A  A4435307           [0540] self       14  14  333  ; 211906289
323E  13040005           [0541] getupval   16  10     
3242  52048004           [0542] move       17  9      
3246  97048000           [0543] loadbool   18  1   0    ; true
324A  A2438002           [0544] call       14  5   1  
324E  93030010           [0545] getupval   14  32     
fail op	8
3252  88038000           [0546] setupval   14  1      
3256  99030200           [0547] loadk      14  8        ; 0
fail op	8
325A  88038010           [0548] setupval   14  33     
325E  9D830200           [0549] getglobal  14  10       ; _T
3262  8EC34207           [0550] gettable   14  14  267  ; "curTransmission"
3266  A4835307           [0551] self       14  14  334  ; 1213268450
326A  A2830001           [0552] call       14  2   2  
fail op	8
326E  88030000           [0553] setupval   14  0      
3272  DDC21300           [0554] getglobal  11  79       ; typeSound
3276  9D830300           [0555] getglobal  14  14       ; 1074689893
327A  D3030004           [0556] getupval   15  8      
327E  A2830001           [0557] call       14  2   2  
3282  98430000           [0558] test       14      1    ; to [560] if false
3286  1A400080           [0559] jmp        2            ; to [562]
328A  99030200           [0560] loadk      14  8        ; 0
fail op	8
328E  88030000           [0561] setupval   14  0      
3292  9D830200           [0562] getglobal  14  10       ; _T
3296  D3030004           [0563] getupval   15  8      
329A  8CC303A8           [0564] settable   14  336 15   ; "TransmissionSoundInstance"
329E  9D830200           [0565] getglobal  14  10       ; _T
32A2  8EC34207           [0566] gettable   14  14  267  ; "curTransmission"
32A6  A4435407           [0567] self       14  14  337  ; -1316189862
32AA  A2830001           [0568] call       14  2   2  
32AE  DD830300           [0569] getglobal  15  14       ; 1074689893
32B2  12040007           [0570] move       16  14     
32B6  E2830001           [0571] call       15  2   2  
32BA  D8030000           [0572] test       15      0    ; to [574] if true
32BE  1AC00080           [0573] jmp        4            ; to [578]
32C2  DDC30D00           [0574] getglobal  15  55       ; gRegion
32C6  E403CE07           [0575] self       15  15  312  ; 65205951
32CA  E2830001           [0576] call       15  2   2  
32CE  92038007           [0577] move       14  15     
32D2  DD830200           [0578] getglobal  15  10       ; _T
32D6  CEC3C207           [0579] gettable   15  15  267  ; "curTransmission"
32DA  E483D407           [0580] self       15  15  338  ; -1051655059
32DE  52040007           [0581] move       17  14     
32E2  E2438001           [0582] call       15  3   1  
32E6  DD830300           [0583] getglobal  15  14       ; 1074689893
32EA  13040004           [0584] getupval   16  8      
32EE  E2830001           [0585] call       15  2   2  
32F2  D8430000           [0586] test       15      1    ; to [588] if false
32F6  1A400980           [0587] jmp        38           ; to [626]
32FA  D3030011           [0588] getupval   15  34     
32FE  1D840200           [0589] getglobal  16  10       ; _T
3302  0EC44208           [0590] gettable   16  16  267  ; "curTransmission"
3306  E2830001           [0591] call       15  2   2  
330A  D8030000           [0592] test       15      0    ; to [594] if true
330E  1AC00780           [0593] jmp        32           ; to [626]
3312  D7038000           [0594] loadbool   15  1   0    ; true
fail op	8
3316  C803000F           [0595] setupval   15  30     
331A  D3030004           [0596] getupval   15  8      
331E  E4C3D407           [0597] self       15  15  339  ; 1699015312
3322  59040200           [0598] loadk      17  8        ; 0
3326  99041500           [0599] loadk      18  84       ; 0
332A  E2430002           [0600] call       15  4   1  
332E  D3030004           [0601] getupval   15  8      
3332  E4C3D407           [0602] self       15  15  339  ; 1699015312
3336  59440500           [0603] loadk      17  21       ; 0
333A  99041500           [0604] loadk      18  84       ; 0
333E  E2430002           [0605] call       15  4   1  
3342  D3030004           [0606] getupval   15  8      
3346  E4C3D407           [0607] self       15  15  339  ; 1699015312
334A  59441500           [0608] loadk      17  85       ; 0
334E  99041500           [0609] loadk      18  84       ; 0
3352  E2430002           [0610] call       15  4   1  
3356  D3030004           [0611] getupval   15  8      
335A  E4C3D407           [0612] self       15  15  339  ; 1699015312
335E  59841500           [0613] loadk      17  86       ; 0
3362  99041500           [0614] loadk      18  84       ; 0
3366  E2430002           [0615] call       15  4   1  
336A  D3030004           [0616] getupval   15  8      
336E  E4C3D407           [0617] self       15  15  339  ; 1699015312
3372  59C41500           [0618] loadk      17  87       ; 0
3376  99041500           [0619] loadk      18  84       ; 0
337A  E2430002           [0620] call       15  4   1  
337E  D3030004           [0621] getupval   15  8      
3382  E4C3D407           [0622] self       15  15  339  ; 1699015312
3386  59041600           [0623] loadk      17  88       ; 0
338A  99440500           [0624] loadk      18  21       ; 0
338E  E2430002           [0625] call       15  4   1  
3392  DD830200           [0626] getglobal  15  10       ; _T
3396  CEC3C207           [0627] gettable   15  15  267  ; "curTransmission"
339A  E403C307           [0628] self       15  15  268  ; -1957065004
339E  5D440300           [0629] getglobal  17  13       ; nemesisTransmissionType
33A2  E2838001           [0630] call       15  3   2  
33A6  D8030000           [0631] test       15      0    ; to [633] if true
33AA  1A802280           [0632] jmp        139          ; to [772]
33AE  D7030000           [0633] loadbool   15  0   0    ; false
33B2  1D840200           [0634] getglobal  16  10       ; _T
33B6  0EC44208           [0635] gettable   16  16  267  ; "curTransmission"
33BA  24445608           [0636] self       16  16  345  ; -830264577
33BE  22840001           [0637] call       16  2   2  
33C2  5D841600           [0638] getglobal  17  90       ; -332969190
33C6  99C41600           [0639] loadk      18  91       ; "NemesisAlly"
33CA  62840001           [0640] call       17  2   2  
fail op	35
33CE  63400408           [0641] close      1  
33D2  1A000080           [0642] jmp        1            ; to [644]
33D6  17440000           [0643] loadbool   16  0   1    ; false, to [645]
33DA  17048000           [0644] loadbool   16  1   0    ; true
33DE  46040009           [0645] loadnil    17  18     
33E2  DD840200           [0646] getglobal  19  10       ; _T
33E6  CE04D709           [0647] gettable   19  19  348  ; "LastNemesisHack"
33EA  D8040000           [0648] test       19      0    ; to [650] if true
33EE  1AC00280           [0649] jmp        12           ; to [662]
33F2  DD840300           [0650] getglobal  19  14       ; 1074689893
33F6  1D850200           [0651] getglobal  20  10       ; _T
33FA  0E05570A           [0652] gettable   20  20  348  ; "LastNemesisHack"
33FE  0E45570A           [0653] gettable   20  20  349  ; "avatar"
3402  E2840001           [0654] call       19  2   2  
3406  D8040000           [0655] test       19      0    ; to [657] if true
340A  1A000180           [0656] jmp        5            ; to [662]
340E  DD840200           [0657] getglobal  19  10       ; _T
3412  CE04D709           [0658] gettable   19  19  348  ; "LastNemesisHack"
3416  8E84D709           [0659] gettable   18  19  350  ; "generatedProfile"
341A  D7038000           [0660] loadbool   15  1   0    ; true
341E  1AC01480           [0661] jmp        84           ; to [746]
3422  18440000           [0662] test       16      1    ; to [664] if false
3426  1A800680           [0663] jmp        27           ; to [691]
342A  DD840200           [0664] getglobal  19  10       ; _T
342E  CEC4D709           [0665] gettable   19  19  351  ; "gNemesis"
3432  D8040000           [0666] test       19      0    ; to [668] if true
3436  1A800580           [0667] jmp        23           ; to [691]
343A  DD840200           [0668] getglobal  19  10       ; _T
343E  CEC4D709           [0669] gettable   19  19  351  ; "gNemesis"
3442  CE84D709           [0670] gettable   19  19  350  ; "generatedProfile"
3446  D8440000           [0671] test       19      1    ; to [673] if false
344A  1A000180           [0672] jmp        5            ; to [678]
344E  DD840200           [0673] getglobal  19  10       ; _T
3452  CEC4D709           [0674] gettable   19  19  351  ; "gNemesis"
3456  CE04D809           [0675] gettable   19  19  352  ; "target"
345A  D8040000           [0676] test       19      0    ; to [678] if true
345E  1A000380           [0677] jmp        13           ; to [691]
3462  DD840200           [0678] getglobal  19  10       ; _T
3466  CEC4D709           [0679] gettable   19  19  351  ; "gNemesis"
346A  CE84D709           [0680] gettable   19  19  350  ; "generatedProfile"
346E  D8040000           [0681] test       19      0    ; to [683] if true
3472  1AC00080           [0682] jmp        4            ; to [687]
3476  DD840200           [0683] getglobal  19  10       ; _T
347A  CEC4D709           [0684] gettable   19  19  351  ; "gNemesis"
347E  8E84D709           [0685] gettable   18  19  350  ; "generatedProfile"
3482  1A800E80           [0686] jmp        59           ; to [746]
3486  DD840200           [0687] getglobal  19  10       ; _T
348A  CEC4D709           [0688] gettable   19  19  351  ; "gNemesis"
348E  4E04D809           [0689] gettable   17  19  352  ; "target"
3492  1A800D80           [0690] jmp        55           ; to [746]
3496  DD840200           [0691] getglobal  19  10       ; _T
349A  CE44D809           [0692] gettable   19  19  353  ; "NemesisTransmissionPortraitUseLocal"
349E  D8040000           [0693] test       19      0    ; to [695] if true
34A2  1A800180           [0694] jmp        7            ; to [702]
34A6  DD841800           [0695] getglobal  19  98       ; gGameData
34AA  E4C4D809           [0696] self       19  19  355  ; 389385621
34AE  E2840001           [0697] call       19  2   2  
34B2  52048009           [0698] move       17  19     
34B6  DD840200           [0699] getglobal  19  10       ; _T
34BA  CC44CDB0           [0700] settable   19  353 309  ; "NemesisTransmissionPortraitUseLocal" nil
34BE  1AC00A80           [0701] jmp        44           ; to [746]
34C2  DD840300           [0702] getglobal  19  14       ; 1074689893
34C6  1D051900           [0703] getglobal  20  100      ; gGameRules
34CA  E2840001           [0704] call       19  2   2  
34CE  D8440000           [0705] test       19      1    ; to [707] if false
34D2  1A800980           [0706] jmp        39           ; to [746]
34D6  DD041900           [0707] getglobal  19  100      ; gGameRules
34DA  E404C309           [0708] self       19  19  268  ; -1957065004
34DE  5D451900           [0709] getglobal  21  101      ; gLotusGameRulesType
34E2  E2848001           [0710] call       19  3   2  
34E6  D8040000           [0711] test       19      0    ; to [713] if true
34EA  1A800480           [0712] jmp        19           ; to [732]
34EE  18040000           [0713] test       16      0    ; to [715] if true
34F2  1A000380           [0714] jmp        13           ; to [728]
34F6  DD041900           [0715] getglobal  19  100      ; gGameRules
34FA  E484D909           [0716] self       19  19  358  ; 659469169
34FE  E2840001           [0717] call       19  2   2  
3502  52048009           [0718] move       17  19     
3506  DD840300           [0719] getglobal  19  14       ; 1074689893
350A  12058008           [0720] move       20  17     
350E  E2840001           [0721] call       19  2   2  
3512  D8040000           [0722] test       19      0    ; to [724] if true
3516  1A400080           [0723] jmp        2            ; to [726]
351A  46048008           [0724] loadnil    17  17     
351E  1A400180           [0725] jmp        6            ; to [732]
3522  4EC4D908           [0726] gettable   17  17  359  ; "mTarget"
3526  1AC00080           [0727] jmp        4            ; to [732]
352A  DD041900           [0728] getglobal  19  100      ; gGameRules
352E  E404DA09           [0729] self       19  19  360  ; 1154264260
3532  E2840001           [0730] call       19  2   2  
3536  52048009           [0731] move       17  19     
353A  DD840300           [0732] getglobal  19  14       ; 1074689893
353E  12058008           [0733] move       20  17     
3542  E2840001           [0734] call       19  2   2  
3546  D8040000           [0735] test       19      0    ; to [737] if true
354A  1A000280           [0736] jmp        9            ; to [746]
354E  DD841800           [0737] getglobal  19  98       ; gGameData
3552  E4C4D809           [0738] self       19  19  355  ; 389385621
3556  E2840001           [0739] call       19  2   2  
355A  52048009           [0740] move       17  19     
355E  E444DA08           [0741] self       19  17  361  ; 188678183
3562  E2840001           [0742] call       19  2   2  
3566  D8440000           [0743] test       19      1    ; to [745] if false
356A  1A000080           [0744] jmp        1            ; to [746]
356E  46048008           [0745] loadnil    17  17     
3572  DD840300           [0746] getglobal  19  14       ; 1074689893
3576  12050009           [0747] move       20  18     
357A  E2840001           [0748] call       19  2   2  
357E  D8040000           [0749] test       19      0    ; to [751] if true
3582  1A400280           [0750] jmp        10           ; to [761]
3586  DD840300           [0751] getglobal  19  14       ; 1074689893
358A  12058008           [0752] move       20  17     
358E  E2840001           [0753] call       19  2   2  
3592  D8440000           [0754] test       19      1    ; to [756] if false
3596  1A000180           [0755] jmp        5            ; to [761]
359A  D3048011           [0756] getupval   19  35     
359E  CE84DA09           [0757] gettable   19  19  362  ; -2079289879
35A2  12058008           [0758] move       20  17     
35A6  E2840001           [0759] call       19  2   2  
35AA  92048009           [0760] move       18  19     
35AE  DD840300           [0761] getglobal  19  14       ; 1074689893
35B2  12050009           [0762] move       20  18     
35B6  E2840001           [0763] call       19  2   2  
35BA  D8440000           [0764] test       19      1    ; to [766] if false
35BE  1A400080           [0765] jmp        2            ; to [768]
35C2  CEC45A09           [0766] gettable   19  18  363  ; "mName"
fail op	8
35C6  C8040012           [0767] setupval   19  36     
35CA  D8030000           [0768] test       15      0    ; to [770] if true
35CE  1A400080           [0769] jmp        2            ; to [772]
35D2  DD840200           [0770] getglobal  19  10       ; _T
35D6  CC444DAE           [0771] settable   19  348 309  ; "LastNemesisHack" nil
35DA  DD041B00           [0772] getglobal  19  108      ; string
35DE  CE44DB09           [0773] gettable   19  19  365  ; -965268854
35E2  12058004           [0774] move       20  9      
35E6  E2840001           [0775] call       19  2   2  
fail op	21
35EA  15C00484           [0776] concat     0   264 19 
35EE  1A801480           [0777] jmp        83           ; to [861]
35F2  D3048008           [0778] getupval   19  17     
35F6  D8040000           [0779] test       19      0    ; to [781] if true
35FA  1AC00080           [0780] jmp        4            ; to [785]
35FE  DD840200           [0781] getglobal  19  10       ; _T
3602  CE84DB09           [0782] gettable   19  19  366  ; "TransmissionOverrideSubtitles"
3606  D8040000           [0783] test       19      0    ; to [785] if true
360A  1AC01280           [0784] jmp        76           ; to [861]
360E  D3040003           [0785] getupval   19  6      
3612  D8440000           [0786] test       19      1    ; to [788] if false
3616  1A001280           [0787] jmp        73           ; to [861]
361A  D3048012           [0788] getupval   19  37     
361E  17058000           [0789] loadbool   20  1   0    ; true
3622  E2440001           [0790] call       19  2   1  
3626  D3048004           [0791] getupval   19  9      
362A  CEC4DB09           [0792] gettable   19  19  367  ; -132701534
362E  13050012           [0793] getupval   20  36     
3632  53050012           [0794] getupval   21  36     
3636  93058001           [0795] getupval   22  3      
363A  A4055C0B           [0796] self       22  22  368  ; 98241492
363E  1D461C00           [0797] getglobal  24  113      ; -1615931716
3642  5D860200           [0798] getglobal  25  10       ; _T
3646  4EC6C20C           [0799] gettable   25  25  267  ; "curTransmission"
364A  6486DC0C           [0800] self       25  25  370  ; 160353921
364E  62060001           [0801] call       25  2   0  
3652  22860000           [0802] call       24  0   2  
3656  57060000           [0803] loadbool   25  0   0    ; false
365A  A2050002           [0804] call       22  4   0  
365E  E2840000           [0805] call       19  0   2  
3662  1D051B00           [0806] getglobal  20  108      ; string
3666  0EC55C0A           [0807] gettable   20  20  371  ; 1671193642
366A  52058009           [0808] move       21  19     
366E  22850001           [0809] call       20  2   2  
3672  D204000A           [0810] move       19  20     
3676  13050013           [0811] getupval   20  38     
367A  18450000           [0812] test       20      1    ; to [814] if false
367E  1A000280           [0813] jmp        9            ; to [823]
3682  13058013           [0814] getupval   20  39     
3686  53050002           [0815] getupval   21  4      
368A  99051D00           [0816] loadk      22  116      ; ".Name"
368E  4285850A           [0817] concat     21  21  22 
3692  92058009           [0818] move       22  19     
3696  D7050000           [0819] loadbool   23  0   0    ; false
369A  12068005           [0820] move       24  11     
369E  57060000           [0821] loadbool   25  0   0    ; false
36A2  22450003           [0822] call       20  6   1  
36A6  25450000           [0823] closure    20  1      
36AA  13008001           [0824] getupval   0   3      
36AE  13000002           [0825] getupval   0   4      
36B2  13000014           [0826] getupval   0   40     
36B6  53058001           [0827] getupval   21  3      
36BA  6445C00A           [0828] self       21  21  257  ; -2013161817
36BE  D3050002           [0829] getupval   23  4      
36C2  19860500           [0830] loadk      24  22       ; "Name"
36C6  59460700           [0831] loadk      25  29       ; "_alpha"
36CA  99060200           [0832] loadk      26  8        ; 0
36CE  62450003           [0833] call       21  6   1  
36D2  57058000           [0834] loadbool   21  1   0    ; true
fail op	8
36D6  48050014           [0835] setupval   21  40     
36DA  5D850600           [0836] getglobal  21  26       ; 1390508688
36DE  93058001           [0837] getupval   22  3      
36E2  D3050002           [0838] getupval   23  4      
36E6  19061D00           [0839] loadk      24  116      ; ".Name"
36EA  C205860B           [0840] concat     23  23  24 
36EE  1DC60600           [0841] getglobal  24  27       ; UISys
36F2  0E06470C           [0842] gettable   24  24  284  ; "FlashInstance_SMOOTH_STEP"
36F6  4B068000           [0843] newtable   25  1   0    ; array=1, hash=0
36FA  99460700           [0844] loadk      26  29       ; "_alpha"
36FE  5B468000           [0845] setlist    25  1   1    ; index 1 to 1
3702  8B068000           [0846] newtable   26  1   0    ; array=1, hash=0
3706  D9860700           [0847] loadk      27  30       ; 0
370A  9B468000           [0848] setlist    26  1   1    ; index 1 to 1
370E  D9460500           [0849] loadk      27  21       ; 0
3712  19070200           [0850] loadk      28  8        ; 0
3716  5207000A           [0851] move       29  20     
371A  62458004           [0852] call       21  9   1  
371E  53058014           [0853] getupval   21  41     
3722  92058004           [0854] move       22  9      
3726  62450001           [0855] call       21  2   1  
372A  59451D00           [0856] loadk      21  117      ; -51
fail op	8
372E  48050015           [0857] setupval   21  42     
3732  4605800A           [0858] loadnil    21  21     
fail op	8
3736  48050012           [0859] setupval   21  36     
373A  1A400280           [0860] jmp        10           ; to [871]
373E  5DC50D00           [0861] getglobal  21  55       ; gRegion
3742  6445D30A           [0862] self       21  21  333  ; 211906289
3746  D3050005           [0863] getupval   23  10     
374A  12068004           [0864] move       24  9      
374E  62450002           [0865] call       21  4   1  
3752  53058012           [0866] getupval   21  37     
3756  97050000           [0867] loadbool   22  0   0    ; false
375A  62450001           [0868] call       21  2   1  
375E  59050200           [0869] loadk      21  8        ; 0
fail op	8
3762  48050015           [0870] setupval   21  42     
3766  5DC51000           [0871] getglobal  21  67       ; Engine
376A  4E85DD0A           [0872] gettable   21  21  374  ; 328784635
376E  62858000           [0873] call       21  1   2  
3772  58450000           [0874] test       21      1    ; to [876] if false
3776  1AC00380           [0875] jmp        16           ; to [892]
377A  5D850300           [0876] getglobal  21  14       ; 1074689893
377E  93058015           [0877] getupval   22  43     
3782  62850001           [0878] call       21  2   2  
3786  58450000           [0879] test       21      1    ; to [881] if false
378A  1A800280           [0880] jmp        11           ; to [892]
378E  53058015           [0881] getupval   21  43     
3792  64C5DD0A           [0882] self       21  21  375  ; -342618041
3796  62850001           [0883] call       21  2   2  
379A  58050000           [0884] test       21      0    ; to [886] if true
379E  1A400180           [0885] jmp        6            ; to [892]
37A2  53058015           [0886] getupval   21  43     
37A6  6405DE0A           [0887] self       21  21  376  ; -1864334350
37AA  D7058000           [0888] loadbool   23  1   0    ; true
37AE  1DC61000           [0889] getglobal  24  67       ; Engine
37B2  0E465E0C           [0890] gettable   24  24  377  ; "RZ_HEADSET_DEVICE"
37B6  62450002           [0891] call       21  4   1  
37BA  53058000           [0892] getupval   21  1      
37BE  93050010           [0893] getupval   22  32     
fail op	35
37C2  2380850A           [0894] close      0  
37C6  1A402B80           [0895] jmp        174          ; to [1070]
37CA  5D850300           [0896] getglobal  21  14       ; 1074689893
37CE  93050004           [0897] getupval   22  8      
37D2  62850001           [0898] call       21  2   2  
37D6  58450000           [0899] test       21      1    ; to [901] if false
37DA  1A802080           [0900] jmp        131          ; to [1032]
37DE  53050016           [0901] getupval   21  44     
37E2  62858000           [0902] call       21  1   2  
37E6  58050000           [0903] test       21      0    ; to [905] if true
37EA  1A801F80           [0904] jmp        127          ; to [1032]
37EE  53050004           [0905] getupval   21  8      
37F2  6485DE0A           [0906] self       21  21  378  ; -1279719717
37F6  62850001           [0907] call       21  2   2  
37FA  9DC51E00           [0908] getglobal  22  123      ; 1668611480
37FE  C485C70A           [0909] mul        23  21  286  ; 0
3802  19060200           [0910] loadk      24  8        ; 0
3806  59860700           [0911] loadk      25  30       ; 0
380A  A2850002           [0912] call       22  4   2  
380E  5205000B           [0913] move       21  22     
3812  93058001           [0914] getupval   22  3      
3816  A445400B           [0915] self       22  22  257  ; -2013161817
381A  13060002           [0916] getupval   24  4      
381E  59060600           [0917] loadk      25  24       ; "Waveform"
3822  99460700           [0918] loadk      26  29       ; "_alpha"
3826  D206800A           [0919] move       27  21     
382A  A2450003           [0920] call       22  6   1  
382E  93058001           [0921] getupval   22  3      
3832  A445400B           [0922] self       22  22  257  ; -2013161817
3836  13060002           [0923] getupval   24  4      
383A  59060600           [0924] loadk      25  24       ; "Waveform"
383E  99061F00           [0925] loadk      26  124      ; "_yscale"
3842  C446DF0A           [0926] mul        27  21  381  ; 51
3846  A2450003           [0927] call       22  6   1  
384A  93058010           [0928] getupval   22  33     
384E  D3058016           [0929] getupval   23  45     
fail op	21
3852  15C0050B           [0930] concat     0   22  23 
3856  1A800880           [0931] jmp        35           ; to [967]
385A  93058010           [0932] getupval   22  33     
385E  DD851F00           [0933] getglobal  23  126      ; 1289681407
3862  E2858000           [0934] call       23  1   2  
3866  83C5050B           [0935] add        22  22  23 
fail op	8
386A  88058010           [0936] setupval   22  33     
386E  93058010           [0937] getupval   22  33     
3872  D3058016           [0938] getupval   23  45     
fail op	33
3876  2180850B           [0939] tforloop   0       22   ; to [941] if exit
387A  1A400680           [0940] jmp        26           ; to [967]
387E  9D850200           [0941] getglobal  22  10       ; _T
3882  8EC5420B           [0942] gettable   22  22  267  ; "curTransmission"
3886  A405490B           [0943] self       22  22  292  ; 177934378
388A  A2850001           [0944] call       22  2   2  
388E  DD850300           [0945] getglobal  23  14       ; 1074689893
3892  1206000B           [0946] move       24  22     
3896  E2850001           [0947] call       23  2   2  
389A  D8450000           [0948] test       23      1    ; to [950] if false
389E  1A000480           [0949] jmp        17           ; to [967]
38A2  DD850600           [0950] getglobal  23  26       ; 1390508688
38A6  13068001           [0951] getupval   24  3      
38AA  53060002           [0952] getupval   25  4      
38AE  99C61F00           [0953] loadk      26  127      ; ".Image"
38B2  4286860C           [0954] concat     25  25  26 
38B6  9DC60600           [0955] getglobal  26  27       ; UISys
38BA  8E06600D           [0956] gettable   26  26  384  ; "FlashInstance_EASE_IN"
38BE  CB068000           [0957] newtable   27  1   0    ; array=1, hash=0
38C2  19470700           [0958] loadk      28  29       ; "_alpha"
38C6  DB468000           [0959] setlist    27  1   1    ; index 1 to 1
38CA  0B078000           [0960] newtable   28  1   0    ; array=1, hash=0
38CE  59070200           [0961] loadk      29  8        ; 0
38D2  1B478000           [0962] setlist    28  1   1    ; index 1 to 1
38D6  59471D00           [0963] loadk      29  117      ; -51
38DA  99070200           [0964] loadk      30  8        ; 0
38DE  D3070017           [0965] getupval   31  46     
38E2  E2458004           [0966] call       23  9   1  
38E6  DDC51000           [0967] getglobal  23  67       ; Engine
38EA  CE85DD0B           [0968] gettable   23  23  374  ; 328784635
38EE  E2858000           [0969] call       23  1   2  
38F2  D8450000           [0970] test       23      1    ; to [972] if false
38F6  1A401880           [0971] jmp        98           ; to [1070]
38FA  DD850300           [0972] getglobal  23  14       ; 1074689893
38FE  13068015           [0973] getupval   24  43     
3902  E2850001           [0974] call       23  2   2  
3906  D8450000           [0975] test       23      1    ; to [977] if false
390A  1A001780           [0976] jmp        93           ; to [1070]
390E  D3058015           [0977] getupval   23  43     
3912  E4C5DD0B           [0978] self       23  23  375  ; -342618041
3916  E2850001           [0979] call       23  2   2  
391A  D8050000           [0980] test       23      0    ; to [982] if true
391E  1AC01580           [0981] jmp        88           ; to [1070]
3922  D3058017           [0982] getupval   23  47     
fail op	33
3926  2100C20B           [0983] tforloop   0       264  ; to [985] if exit
392A  1A000A80           [0984] jmp        41           ; to [1026]
392E  D3050018           [0985] getupval   23  48     
3932  1D860200           [0986] getglobal  24  10       ; _T
3936  0EC6420C           [0987] gettable   24  24  267  ; "curTransmission"
393A  2406430C           [0988] self       24  24  268  ; -1957065004
393E  9D462000           [0989] getglobal  26  129      ; lotusTransmission
3942  22868001           [0990] call       24  3   2  
3946  18060000           [0991] test       24      0    ; to [993] if true
394A  1A000080           [0992] jmp        1            ; to [994]
394E  D3058018           [0993] getupval   23  49     
3952  13068004           [0994] getupval   24  9      
3956  0EC65B0C           [0995] gettable   24  24  367  ; -132701534
395A  53060019           [0996] getupval   25  50     
395E  9206800B           [0997] move       26  23     
3962  D3068019           [0998] getupval   27  51     
3966  22860002           [0999] call       24  4   2  
396A  53068015           [1000] getupval   25  43     
396E  6406DE0C           [1001] self       25  25  376  ; -1864334350
3972  D7068000           [1002] loadbool   27  1   0    ; true
3976  1DC71000           [1003] getglobal  28  67       ; Engine
397A  0E475E0E           [1004] gettable   28  28  377  ; "RZ_HEADSET_DEVICE"
397E  62460002           [1005] call       25  4   1  
3982  53068015           [1006] getupval   25  43     
3986  6486E00C           [1007] self       25  25  386  ; 1501811980
398A  D206000C           [1008] move       27  24     
398E  62468001           [1009] call       25  3   1  
3992  53068015           [1010] getupval   25  43     
3996  64C6E00C           [1011] self       25  25  387  ; 276096934
399A  62460001           [1012] call       25  2   1  
399E  5D062100           [1013] getglobal  25  132      ; -1941280958
39A2  99060100           [1014] loadk      26  4        ; -51
39A6  D9462100           [1015] loadk      27  133      ; -102
39AA  62868001           [1016] call       25  3   2  
fail op	8
39AE  48068017           [1017] setupval   25  47     
39B2  53068004           [1018] getupval   25  9      
39B6  4EC6DB0C           [1019] gettable   25  25  367  ; -132701534
39BA  93060019           [1020] getupval   26  50     
39BE  D7060000           [1021] loadbool   27  0   0    ; false
39C2  17078000           [1022] loadbool   28  1   0    ; true
39C6  62860002           [1023] call       25  4   2  
fail op	8
39CA  48060019           [1024] setupval   25  50     
39CE  1AC00A80           [1025] jmp        44           ; to [1070]
39D2  53068017           [1026] getupval   25  47     
39D6  9D861F00           [1027] getglobal  26  126      ; 1289681407
39DA  A2868000           [1028] call       26  1   2  
39DE  4D86860C           [1029] sub        25  25  26 
fail op	8
39E2  48068017           [1030] setupval   25  47     
39E6  1A400980           [1031] jmp        38           ; to [1070]
39EA  53060000           [1032] getupval   25  0      
fail op	33
39EE  2100C20C           [1033] tforloop   0       264  ; to [1035] if exit
39F2  1A800880           [1034] jmp        35           ; to [1070]
39F6  5306001A           [1035] getupval   25  52     
fail op	8
39FA  48068000           [1036] setupval   25  1      
39FE  53060015           [1037] getupval   25  42     
3A02  9D860200           [1038] getglobal  26  10       ; _T
3A06  8EC6420D           [1039] gettable   26  26  267  ; "curTransmission"
3A0A  A486610D           [1040] self       26  26  390  ; -1831200249
3A0E  A2860001           [1041] call       26  2   2  
3A12  4386860C           [1042] add        25  25  26 
fail op	8
3A16  48060000           [1043] setupval   25  0      
3A1A  53068001           [1044] getupval   25  3      
3A1E  6446C00C           [1045] self       25  25  257  ; -2013161817
3A22  D3060002           [1046] getupval   27  4      
3A26  19070600           [1047] loadk      28  24       ; "Waveform"
3A2A  59470700           [1048] loadk      29  29       ; "_alpha"
3A2E  99070200           [1049] loadk      30  8        ; 0
3A32  62460003           [1050] call       25  6   1  
3A36  5DC61000           [1051] getglobal  25  67       ; Engine
3A3A  4E86DD0C           [1052] gettable   25  25  374  ; 328784635
3A3E  62868000           [1053] call       25  1   2  
3A42  58460000           [1054] test       25      1    ; to [1056] if false
3A46  1A400380           [1055] jmp        14           ; to [1070]
3A4A  5D860300           [1056] getglobal  25  14       ; 1074689893
3A4E  93068015           [1057] getupval   26  43     
3A52  62860001           [1058] call       25  2   2  
3A56  58460000           [1059] test       25      1    ; to [1061] if false
3A5A  1A000280           [1060] jmp        9            ; to [1070]
3A5E  53068015           [1061] getupval   25  43     
3A62  64C6DD0C           [1062] self       25  25  375  ; -342618041
3A66  62860001           [1063] call       25  2   2  
3A6A  58060000           [1064] test       25      0    ; to [1066] if true
3A6E  1AC00080           [1065] jmp        4            ; to [1070]
3A72  53068015           [1066] getupval   25  43     
3A76  6406DE0C           [1067] self       25  25  376  ; -1864334350
3A7A  D7060000           [1068] loadbool   27  0   0    ; false
3A7E  62468001           [1069] call       25  3   1  
3A82  53068000           [1070] getupval   25  1      
3A86  9306001A           [1071] getupval   26  52     
fail op	35
3A8A  2380860C           [1072] close      0  
3A8E  1A400D80           [1073] jmp        54           ; to [1128]
3A92  53060000           [1074] getupval   25  0      
fail op	33
3A96  2100C20C           [1075] tforloop   0       264  ; to [1077] if exit
3A9A  1A800C80           [1076] jmp        51           ; to [1128]
3A9E  5D860200           [1077] getglobal  25  10       ; _T
3AA2  4EC6C20C           [1078] gettable   25  25  267  ; "curTransmission"
3AA6  6406C50C           [1079] self       25  25  276  ; -1230329337
3AAA  62860001           [1080] call       25  2   2  
3AAE  9D860200           [1081] getglobal  26  10       ; _T
3AB2  8EC6610D           [1082] gettable   26  26  391  ; "QueuedTransmissions"
3AB6  8A06000D           [1083] len        26  26     
3ABA  DD062200           [1084] getglobal  27  136      ; Lotus_Game
3ABE  CE46E20D           [1085] gettable   27  27  393  ; "Transmission_TS_HELD"
fail op	35
3AC2  23C0860C           [1086] close      0  
3AC6  1A800080           [1087] jmp        3            ; to [1091]
fail op	35
3ACA  2300420D           [1088] close      0  
3ACE  1A000080           [1089] jmp        1            ; to [1091]
3AD2  1A000980           [1090] jmp        37           ; to [1128]
3AD6  D306801A           [1091] getupval   27  53     
3ADA  E2868000           [1092] call       27  1   2  
3ADE  D8060000           [1093] test       27      0    ; to [1095] if true
3AE2  1A000080           [1094] jmp        1            ; to [1096]
3AE6  1E008000           [1095] return     0   1      
3AEA  DD860200           [1096] getglobal  27  10       ; _T
3AEE  CE86E20D           [1097] gettable   27  27  394  ; "BlockTransmissionFadeOut"
3AF2  D8460000           [1098] test       27      1    ; to [1100] if false
3AF6  1A400080           [1099] jmp        2            ; to [1102]
3AFA  D306001B           [1100] getupval   27  54     
fail op	8
3AFE  C8068000           [1101] setupval   27  1      
3B02  D3060003           [1102] getupval   27  6      
3B06  D8460000           [1103] test       27      1    ; to [1105] if false
3B0A  1A800280           [1104] jmp        11           ; to [1116]
3B0E  DD860200           [1105] getglobal  27  10       ; _T
3B12  CE86E20D           [1106] gettable   27  27  394  ; "BlockTransmissionFadeOut"
3B16  D8460000           [1107] test       27      1    ; to [1109] if false
3B1A  1A800180           [1108] jmp        7            ; to [1116]
3B1E  D3068004           [1109] getupval   27  9      
3B22  CE86C40D           [1110] gettable   27  27  274  ; 630793108
3B26  1D870200           [1111] getglobal  28  10       ; _T
3B2A  0EC7420E           [1112] gettable   28  28  267  ; "curTransmission"
3B2E  24C7620E           [1113] self       28  28  395  ; 1290384785
3B32  22070001           [1114] call       28  2   0  
3B36  E2460000           [1115] call       27  0   1  
3B3A  DD860300           [1116] getglobal  27  14       ; 1074689893
3B3E  1D072300           [1117] getglobal  28  140      ; gPortraitRegion
3B42  E2860001           [1118] call       27  2   2  
3B46  D8460000           [1119] test       27      1    ; to [1121] if false
3B4A  1A800180           [1120] jmp        7            ; to [1128]
3B4E  DD860300           [1121] getglobal  27  14       ; 1074689893
3B52  1D072300           [1122] getglobal  28  140      ; gPortraitRegion
3B56  2447630E           [1123] self       28  28  397  ; 2066713391
3B5A  22070001           [1124] call       28  2   0  
3B5E  E2860000           [1125] call       27  0   2  
fail op	9
3B62  C906800D           [1126] settable   27  27  0  
fail op	8
3B66  C806801B           [1127] setupval   27  55     
3B6A  D3068000           [1128] getupval   27  1      
3B6E  1307001B           [1129] getupval   28  54     
fail op	35
3B72  2300870D           [1130] close      0  
3B76  1A402080           [1131] jmp        130          ; to [1262]
3B7A  DD860300           [1132] getglobal  27  14       ; 1074689893
3B7E  13070004           [1133] getupval   28  8      
3B82  E2860001           [1134] call       27  2   2  
3B86  D8060000           [1135] test       27      0    ; to [1137] if true
3B8A  1A001F80           [1136] jmp        125          ; to [1262]
3B8E  DD860300           [1137] getglobal  27  14       ; 1074689893
3B92  1D072300           [1138] getglobal  28  140      ; gPortraitRegion
3B96  E2860001           [1139] call       27  2   2  
3B9A  D8460000           [1140] test       27      1    ; to [1142] if false
3B9E  1A800180           [1141] jmp        7            ; to [1149]
3BA2  DD860300           [1142] getglobal  27  14       ; 1074689893
3BA6  1D072300           [1143] getglobal  28  140      ; gPortraitRegion
3BAA  2447630E           [1144] self       28  28  397  ; 2066713391
3BAE  22070001           [1145] call       28  2   0  
3BB2  E2860000           [1146] call       27  0   2  
3BB6  D8060000           [1147] test       27      0    ; to [1149] if true
3BBA  1A001C80           [1148] jmp        113          ; to [1262]
3BBE  D306001C           [1149] getupval   27  56     
fail op	8
3BC2  C8068000           [1150] setupval   27  1      
3BC6  DD860300           [1151] getglobal  27  14       ; 1074689893
3BCA  13078001           [1152] getupval   28  3      
3BCE  E2860001           [1153] call       27  2   2  
3BD2  D8060000           [1154] test       27      0    ; to [1156] if true
3BD6  1A800080           [1155] jmp        3            ; to [1159]
3BDA  D306801C           [1156] getupval   27  57     
3BDE  E2468000           [1157] call       27  1   1  
3BE2  1E008000           [1158] return     0   1      
3BE6  C606800D           [1159] loadnil    27  27     
fail op	8
3BEA  C806800E           [1160] setupval   27  29     
3BEE  D3068001           [1161] getupval   27  3      
3BF2  E486E30D           [1162] self       27  27  398  ; -448341247
3BF6  E2860001           [1163] call       27  2   2  
fail op	8
3BFA  C806001D           [1164] setupval   27  58     
3BFE  D3068001           [1165] getupval   27  3      
3C02  E446C00D           [1166] self       27  27  257  ; -2013161817
3C06  53070002           [1167] getupval   29  4      
3C0A  99070600           [1168] loadk      30  24       ; "Waveform"
3C0E  D9C70C00           [1169] loadk      31  51       ; "_visible"
3C12  17080000           [1170] loadbool   32  0   0    ; false
3C16  E2460003           [1171] call       27  6   1  
3C1A  D3068001           [1172] getupval   27  3      
3C1E  E446C00D           [1173] self       27  27  257  ; -2013161817
3C22  53070002           [1174] getupval   29  4      
3C26  99C72300           [1175] loadk      30  143      ; "Message"
3C2A  D9C70C00           [1176] loadk      31  51       ; "_visible"
3C2E  17080000           [1177] loadbool   32  0   0    ; false
3C32  E2460003           [1178] call       27  6   1  
3C36  D3068001           [1179] getupval   27  3      
3C3A  E446C00D           [1180] self       27  27  257  ; -2013161817
3C3E  53070002           [1181] getupval   29  4      
3C42  99C72300           [1182] loadk      30  143      ; "Message"
3C46  D9072400           [1183] loadk      31  144      ; "text"
3C4A  19482400           [1184] loadk      32  145      ; ""
3C4E  E2460003           [1185] call       27  6   1  
3C52  D3068001           [1186] getupval   27  3      
3C56  E446C00D           [1187] self       27  27  257  ; -2013161817
3C5A  53070002           [1188] getupval   29  4      
3C5E  99870500           [1189] loadk      30  22       ; "Name"
3C62  D9072400           [1190] loadk      31  144      ; "text"
3C66  19482400           [1191] loadk      32  145      ; ""
3C6A  E2460003           [1192] call       27  6   1  
3C6E  D3068012           [1193] getupval   27  37     
3C72  17070000           [1194] loadbool   28  0   0    ; false
3C76  E2460001           [1195] call       27  2   1  
3C7A  D9862400           [1196] loadk      27  146      ; 0
3C7E  13070002           [1197] getupval   28  4      
fail op	35
3C82  6340460E           [1198] close      1  
3C86  1AC00080           [1199] jmp        4            ; to [1204]
3C8A  13078008           [1200] getupval   28  17     
3C8E  18470000           [1201] test       28      1    ; to [1203] if false
3C92  1A000080           [1202] jmp        1            ; to [1204]
3C96  D9460B00           [1203] loadk      27  45       ; 31
3C9A  13078001           [1204] getupval   28  3      
3C9E  24C7640E           [1205] self       28  28  403  ; 1803241227
3CA2  93070002           [1206] getupval   30  4      
3CA6  D9470800           [1207] loadk      31  33       ; ".ImageOuter.Image"
3CAA  82C7070F           [1208] concat     30  30  31 
3CAE  D9470700           [1209] loadk      31  29       ; "_alpha"
3CB2  22870002           [1210] call       28  4   2  
3CB6  65870000           [1211] closure    29  2      
3CBA  1300801C           [1212] getupval   0   57     
3CBE  13008001           [1213] getupval   0   3      
3CC2  13000002           [1214] getupval   0   4      
3CC6  1200000E           [1215] move       0   28     
3CCA  13000008           [1216] getupval   0   16     
3CCE  13008008           [1217] getupval   0   17     
3CD2  1300800C           [1218] getupval   0   25     
3CD6  1300000D           [1219] getupval   0   26     
3CDA  1300800D           [1220] getupval   0   27     
3CDE  9D870200           [1221] getglobal  30  10       ; _T
3CE2  8E87620F           [1222] gettable   30  30  394  ; "BlockTransmissionFadeOut"
3CE6  98470000           [1223] test       30      1    ; to [1225] if false
3CEA  1AC00380           [1224] jmp        16           ; to [1241]
3CEE  9D870600           [1225] getglobal  30  26       ; 1390508688
3CF2  D3078001           [1226] getupval   31  3      
3CF6  13080002           [1227] getupval   32  4      
3CFA  59480800           [1228] loadk      33  33       ; ".ImageOuter.Image"
3CFE  02480810           [1229] concat     32  32  33 
3D02  5DC80600           [1230] getglobal  33  27       ; UISys
3D06  4E48CC10           [1231] gettable   33  33  305  ; "FlashInstance_EASE_IN_OUT_BACK"
3D0A  8B088000           [1232] newtable   34  1   0    ; array=1, hash=0
3D0E  D208800E           [1233] move       35  29     
3D12  9B488000           [1234] setlist    34  1   1    ; index 1 to 1
3D16  CB088000           [1235] newtable   35  1   0    ; array=1, hash=0
3D1A  19490500           [1236] loadk      36  21       ; 0
3D1E  DB488000           [1237] setlist    35  1   1    ; index 1 to 1
3D22  1209800D           [1238] move       36  27     
3D26  A2478003           [1239] call       30  7   1  
3D2A  1AC00480           [1240] jmp        20           ; to [1261]
3D2E  9D870300           [1241] getglobal  30  14       ; 1074689893
3D32  DD870200           [1242] getglobal  31  10       ; _T
3D36  CEC7C20F           [1243] gettable   31  31  267  ; "curTransmission"
3D3A  A2870001           [1244] call       30  2   2  
3D3E  98470000           [1245] test       30      1    ; to [1247] if false
3D42  1AC00280           [1246] jmp        12           ; to [1259]
3D46  9D870200           [1247] getglobal  30  10       ; _T
3D4A  8EC7420F           [1248] gettable   30  30  267  ; "curTransmission"
3D4E  A407650F           [1249] self       30  30  404  ; 1043208183
3D52  A2870001           [1250] call       30  2   2  
3D56  DD870300           [1251] getglobal  31  14       ; 1074689893
3D5A  1208000F           [1252] move       32  30     
3D5E  E2870001           [1253] call       31  2   2  
3D62  D8470000           [1254] test       31      1    ; to [1256] if false
3D66  1A800080           [1255] jmp        3            ; to [1259]
3D6A  D307801D           [1256] getupval   31  59     
3D6E  1208000F           [1257] move       32  30     
3D72  E2470001           [1258] call       31  2   1  
3D76  D307801A           [1259] getupval   31  53     
3D7A  E2478000           [1260] call       31  1   1  
3D7E  D1060000           [1261] close      27 
3D82  1E008000           [1262] return     0   1      
                         * constants:
3D87  01                 sizek (149)
3D88  01                 const type 3
3D89  8E550663           const [0]: (1661359502)
3D8D  01                 const type 3
3D8E  A7960188           const [1]: (-2013161817)
3D92  04                 const type 4
3D93  14                 string size (20)
3D94  496D6167654F7574+  "ImageOut"
3D9C  65722E5465787442+  "er.TextB"
3DA4  61636B00           "ack\0"
                         const [2]: "ImageOuter.TextBack"
3DA8  04                 const type 4
3DA9  08                 string size (8)
3DAA  5F68656967687400   "_height\0"
                         const [3]: "_height"
3DB2  03                 const type 3
3DB3  CDCCCC3D           const [4]: (-51)
3DB7  04                 const type 4
3DB8  17                 string size (23)
3DB9  546578744261636B+  "TextBack"
3DC1  4F757465722E5465+  "Outer.Te"
3DC9  78744261636B00     "xtBack\0"
                         const [5]: "TextBackOuter.TextBack"
3DD0  04                 const type 4
3DD1  16                 string size (22)
3DD2  496D6167654F7574+  "ImageOut"
3DDA  65722E4C696E6542+  "er.LineB"
3DE2  6F74746F6D00       "ottom\0"
                         const [6]: "ImageOuter.LineBottom"
3DE8  04                 const type 4
3DE9  03                 string size (3)
3DEA  5F7900             "_y\0"
                         const [7]: "_y"
3DED  03                 const type 3
3DEE  00000000           const [8]: (0)
3DF2  01                 const type 3
3DF3  5BB5152C           const [9]: (739620187)
3DF7  04                 const type 4
3DF8  03                 string size (3)
3DF9  5F5400             "_T\0"
                         const [10]: "_T"
3DFC  04                 const type 4
3DFD  10                 string size (16)
3DFE  6375725472616E73+  "curTrans"
3E06  6D697373696F6E00   "mission\0"
                         const [11]: "curTransmission"
3E0E  01                 const type 3
3E0F  D48E598B           const [12]: (-1957065004)
3E13  04                 const type 4
3E14  18                 string size (24)
3E15  6E656D6573697354+  "nemesisT"
3E1D  72616E736D697373+  "ransmiss"
3E25  696F6E5479706500   "ionType\0"
                         const [13]: "nemesisTransmissionType"
3E2D  01                 const type 3
3E2E  65770E40           const [14]: (1074689893)
3E32  04                 const type 4
3E33  11                 string size (17)
3E34  4E656D6573697352+  "NemesisR"
3E3C  65734C6F61646572+  "esLoader"
3E44  00                 "\0"
                         const [15]: "NemesisResLoader"
3E45  01                 const type 3
3E46  04C5DDAF           const [16]: (-1344420604)
3E4A  04                 const type 4
3E4B  16                 string size (22)
3E4C  486964655472616E+  "HideTran"
3E54  736D697373696F6E+  "smission"
3E5C  436F6D6D7300       "Comms\0"
                         const [17]: "HideTransmissionComms"
3E62  01                 const type 3
3E63  94239925           const [18]: (630793108)
3E67  01                 const type 3
3E68  6F60FFBF           const [19]: (-1073782673)
3E6C  01                 const type 3
3E6D  07AAAAB6           const [20]: (-1230329337)
3E71  03                 const type 3
3E72  0000803F           const [21]: (0)
3E76  04                 const type 4
3E77  05                 string size (5)
3E78  4E616D6500         "Name\0"
                         const [22]: "Name"
3E7D  04                 const type 4
3E7E  07                 string size (7)
3E7F  5F636F6C6F7200     "_color\0"
                         const [23]: "_color"
3E86  04                 const type 4
3E87  09                 string size (9)
3E88  57617665666F726D+  "Waveform"
3E90  00                 "\0"
                         const [24]: "Waveform"
3E91  04                 const type 4
3E92  0E                 string size (14)
3E93  436F6D6D4672616D+  "CommFram"
3E9B  6546756C6C00       "eFull\0"
                         const [25]: "CommFrameFull"
3EA1  01                 const type 3
3EA2  907AE152           const [26]: (1390508688)
3EA6  04                 const type 4
3EA7  06                 string size (6)
3EA8  554953797300       "UISys\0"
                         const [27]: "UISys"
3EAE  04                 const type 4
3EAF  1A                 string size (26)
3EB0  466C617368496E73+  "FlashIns"
3EB8  74616E63655F534D+  "tance_SM"
3EC0  4F4F54485F535445+  "OOTH_STE"
3EC8  5000               "P\0"
                         const [28]: "FlashInstance_SMOOTH_STEP"
3ECA  04                 const type 4
3ECB  07                 string size (7)
3ECC  5F616C70686100     "_alpha\0"
                         const [29]: "_alpha"
3ED3  03                 const type 3
3ED4  0000C842           const [30]: (0)
3ED8  04                 const type 4
3ED9  03                 string size (3)
3EDA  5F7800             "_x\0"
                         const [31]: "_x"
3EDD  04                 const type 4
3EDE  11                 string size (17)
3EDF  496D6167654F7574+  "ImageOut"
3EE7  65722E496D616765+  "er.Image"
3EEF  00                 "\0"
                         const [32]: "ImageOuter.Image"
3EF0  04                 const type 4
3EF1  12                 string size (18)
3EF2  2E496D6167654F75+  ".ImageOu"
3EFA  7465722E496D6167+  "ter.Imag"
3F02  6500               "e\0"
                         const [33]: ".ImageOuter.Image"
3F04  04                 const type 4
3F05  15                 string size (21)
3F06  466C617368496E73+  "FlashIns"
3F0E  74616E63655F4C49+  "tance_LI"
3F16  4E45415200         "NEAR\0"
                         const [34]: "FlashInstance_LINEAR"
3F1B  01                 const type 3
3F1C  1CED19AE           const [35]: (-1374032612)
3F20  01                 const type 3
3F21  2A109B0A           const [36]: (177934378)
3F25  01                 const type 3
3F26  A5F502D2           const [37]: (-771557979)
3F2A  04                 const type 4
3F2B  07                 string size (7)
3F2C  5F776964746800     "_width\0"
                         const [38]: "_width"
3F33  04                 const type 4
3F34  05                 string size (5)
3F35  6D61746800         "math\0"
                         const [39]: "math"
3F3A  01                 const type 3
3F3B  3810018B           const [40]: (-1962864584)
3F3F  03                 const type 3
3F40  000070C2           const [41]: (0)
3F44  04                 const type 4
3F45  11                 string size (17)
3F46  706F727461697433+  "portait3"
3F4E  4454657874757265+  "DTexture"
3F56  00                 "\0"
                         const [42]: "portait3DTexture"
3F57  03                 const type 3
3F58  0000C03F           const [43]: (0)
3F5C  04                 const type 4
3F5D  0B                 string size (11)
3F5E  496D6167654F7574+  "ImageOut"
3F66  657200             "er\0"
                         const [44]: "ImageOuter"
3F69  03                 const type 3
3F6A  1F852B3F           const [45]: (31)
3F6E  01                 const type 3
3F6F  2FAB2A30           const [46]: (808102703)
3F73  04                 const type 4
3F74  0D                 string size (13)
3F75  506978656C617465+  "Pixelate"
3F7D  4269617300         "Bias\0"
                         const [47]: "PixelateBias"
3F82  03                 const type 3
3F83  9A99993F           const [48]: (-102)
3F87  04                 const type 4
3F88  1F                 string size (31)
3F89  466C617368496E73+  "FlashIns"
3F91  74616E63655F4541+  "tance_EA"
3F99  53455F494E5F4F55+  "SE_IN_OU"
3FA1  545F4241434B00     "T_BACK\0"
                         const [49]: "FlashInstance_EASE_IN_OUT_BACK"
3FA8  01                 const type 3
3FA9  36165826           const [50]: (643307062)
3FAD  04                 const type 4
3FAE  09                 string size (9)
3FAF  5F76697369626C65+  "_visible"
3FB7  00                 "\0"
                         const [51]: "_visible"
3FB8  04                 const type 4
3FB9  0C                 string size (12)
3FBA  6D536D6F6F746848+  "mSmoothH"
3FC2  65616400           "ead\0"
                         const [52]: "mSmoothHead"
3FC6  00                 const type 0
                         const [53]: nil
3FC7  01                 const type 3
3FC8  EAB626AB           const [54]: (-1423526166)
3FCC  04                 const type 4
3FCD  08                 string size (8)
3FCE  67526567696F6E00   "gRegion\0"
                         const [55]: "gRegion"
3FD6  01                 const type 3
3FD7  BFF6E203           const [56]: (65205951)
3FDB  01                 const type 3
3FDC  E178111E           const [57]: (504461537)
3FE0  01                 const type 3
3FE1  36725DBF           const [58]: (-1084394954)
3FE5  01                 const type 3
3FE6  0125A76D           const [59]: (1839670529)
3FEA  01                 const type 3
3FEB  0F865E31           const [60]: (828278287)
3FEF  01                 const type 3
3FF0  B47809A1           const [61]: (-1593214796)
3FF4  01                 const type 3
3FF5  5C380962           const [62]: (1644771420)
3FF9  01                 const type 3
3FFA  F15F5D0F           const [63]: (257777649)
3FFE  01                 const type 3
3FFF  3C2E251B           const [64]: (455421500)
4003  04                 const type 4
4004  19                 string size (25)
4005  5472616E736D6973+  "Transmis"
400D  73696F6E4473704F+  "sionDspO"
4015  7665727269646573+  "verrides"
401D  00                 "\0"
                         const [65]: "TransmissionDspOverrides"
401E  04                 const type 4
401F  0C                 string size (12)
4020  5A45524F5F564543+  "ZERO_VEC"
4028  544F5200           "TOR\0"
                         const [66]: "ZERO_VECTOR"
402C  04                 const type 4
402D  07                 string size (7)
402E  456E67696E6500     "Engine\0"
                         const [67]: "Engine"
4035  04                 const type 4
4036  08                 string size (8)
4037  53505F4849474800   "SP_HIGH\0"
                         const [68]: "SP_HIGH"
403F  04                 const type 4
4040  0C                 string size (12)
4041  53505F564552595F+  "SP_VERY_"
4049  4C4F5700           "LOW\0"
                         const [69]: "SP_VERY_LOW"
404D  01                 const type 3
404E  B134C67B           const [70]: (2076587185)
4052  04                 const type 4
4053  14                 string size (20)
4054  43757272656E7443+  "CurrentC"
405C  6F6E766572736174+  "onversat"
4064  696F6E00           "ion\0"
                         const [71]: "CurrentConversation"
4068  04                 const type 4
4069  08                 string size (8)
406A  6D4875624E706300   "mHubNpc\0"
                         const [72]: "mHubNpc"
4072  04                 const type 4
4073  0B                 string size (11)
4074  4973556E6D61736B+  "IsUnmask"
407C  656400             "ed\0"
                         const [73]: "IsUnmasked"
407F  04                 const type 4
4080  0C                 string size (12)
4081  6741766174617254+  "gAvatarT"
4089  79706500           "ype\0"
                         const [74]: "gAvatarType"
408D  01                 const type 3
408E  E34785D0           const [75]: (-796571677)
4092  01                 const type 3
4093  347266C5           const [76]: (-983141836)
4097  01                 const type 3
4098  F16EA10C           const [77]: (211906289)
409C  01                 const type 3
409D  E2015148           const [78]: (1213268450)
40A1  04                 const type 4
40A2  0A                 string size (10)
40A3  74797065536F756E+  "typeSoun"
40AB  6400               "d\0"
                         const [79]: "typeSound"
40AD  04                 const type 4
40AE  1A                 string size (26)
40AF  5472616E736D6973+  "Transmis"
40B7  73696F6E536F756E+  "sionSoun"
40BF  64496E7374616E63+  "dInstanc"
40C7  6500               "e\0"
                         const [80]: "TransmissionSoundInstance"
40C9  01                 const type 3
40CA  5A898CB1           const [81]: (-1316189862)
40CE  01                 const type 3
40CF  6D0451C1           const [82]: (-1051655059)
40D3  01                 const type 3
40D4  90EA4465           const [83]: (1699015312)
40D8  03                 const type 3
40D9  000080BF           const [84]: (0)
40DD  03                 const type 3
40DE  00000040           const [85]: (0)
40E2  03                 const type 3
40E3  00004040           const [86]: (0)
40E7  03                 const type 3
40E8  00008040           const [87]: (0)
40EC  03                 const type 3
40ED  0000C040           const [88]: (0)
40F1  01                 const type 3
40F2  FF2A83CE           const [89]: (-830264577)
40F6  01                 const type 3
40F7  1A4B27EC           const [90]: (-332969190)
40FB  04                 const type 4
40FC  0C                 string size (12)
40FD  4E656D6573697341+  "NemesisA"
4105  6C6C7900           "lly\0"
                         const [91]: "NemesisAlly"
4109  04                 const type 4
410A  10                 string size (16)
410B  4C6173744E656D65+  "LastNeme"
4113  7369734861636B00   "sisHack\0"
                         const [92]: "LastNemesisHack"
411B  04                 const type 4
411C  07                 string size (7)
411D  61766174617200     "avatar\0"
                         const [93]: "avatar"
4124  04                 const type 4
4125  11                 string size (17)
4126  67656E6572617465+  "generate"
412E  6450726F66696C65+  "dProfile"
4136  00                 "\0"
                         const [94]: "generatedProfile"
4137  04                 const type 4
4138  09                 string size (9)
4139  674E656D65736973+  "gNemesis"
4141  00                 "\0"
                         const [95]: "gNemesis"
4142  04                 const type 4
4143  07                 string size (7)
4144  74617267657400     "target\0"
                         const [96]: "target"
414B  04                 const type 4
414C  24                 string size (36)
414D  4E656D6573697354+  "NemesisT"
4155  72616E736D697373+  "ransmiss"
415D  696F6E506F727472+  "ionPortr"
4165  6169745573654C6F+  "aitUseLo"
416D  63616C00           "cal\0"
                         const [97]: "NemesisTransmissionPortraitUseLocal"
4171  04                 const type 4
4172  0A                 string size (10)
4173  6747616D65446174+  "gGameDat"
417B  6100               "a\0"
                         const [98]: "gGameData"
417D  01                 const type 3
417E  958D3517           const [99]: (389385621)
4182  04                 const type 4
4183  0B                 string size (11)
4184  6747616D6552756C+  "gGameRul"
418C  657300             "es\0"
                         const [100]: "gGameRules"
418F  04                 const type 4
4190  14                 string size (20)
4191  674C6F7475734761+  "gLotusGa"
4199  6D6552756C657354+  "meRulesT"
41A1  79706500           "ype\0"
                         const [101]: "gLotusGameRulesType"
41A5  01                 const type 3
41A6  71B34E27           const [102]: (659469169)
41AA  04                 const type 4
41AB  08                 string size (8)
41AC  6D54617267657400   "mTarget\0"
                         const [103]: "mTarget"
41B4  01                 const type 3
41B5  C4ACCC44           const [104]: (1154264260)
41B9  01                 const type 3
41BA  27003F0B           const [105]: (188678183)
41BE  01                 const type 3
41BF  E98D1084           const [106]: (-2079289879)
41C3  04                 const type 4
41C4  06                 string size (6)
41C5  6D4E616D6500       "mName\0"
                         const [107]: "mName"
41CB  04                 const type 4
41CC  07                 string size (7)
41CD  737472696E6700     "string\0"
                         const [108]: "string"
41D4  01                 const type 3
41D5  8A2A77C6           const [109]: (-965268854)
41D9  04                 const type 4
41DA  1E                 string size (30)
41DB  5472616E736D6973+  "Transmis"
41E3  73696F6E4F766572+  "sionOver"
41EB  7269646553756274+  "rideSubt"
41F3  69746C657300       "itles\0"
                         const [110]: "TransmissionOverrideSubtitles"
41F9  01                 const type 3
41FA  A22217F8           const [111]: (-132701534)
41FE  01                 const type 3
41FF  D40BDB05           const [112]: (98241492)
4203  01                 const type 3
4204  BCD6AE9F           const [113]: (-1615931716)
4208  01                 const type 3
4209  81CE8E09           const [114]: (160353921)
420D  01                 const type 3
420E  2A649C63           const [115]: (1671193642)
4212  04                 const type 4
4213  06                 string size (6)
4214  2E4E616D6500       ".Name\0"
                         const [116]: ".Name"
421A  03                 const type 3
421B  CDCC4C3E           const [117]: (-51)
421F  01                 const type 3
4220  FBDA9813           const [118]: (328784635)
4224  01                 const type 3
4225  471094EB           const [119]: (-342618041)
4229  01                 const type 3
422A  F283E090           const [120]: (-1864334350)
422E  04                 const type 4
422F  12                 string size (18)
4230  525A5F4845414453+  "RZ_HEADS"
4238  45545F4445564943+  "ET_DEVIC"
4240  4500               "E\0"
                         const [121]: "RZ_HEADSET_DEVICE"
4242  01                 const type 3
4243  DB06B9B3           const [122]: (-1279719717)
4247  01                 const type 3
4248  98FD7463           const [123]: (1668611480)
424C  04                 const type 4
424D  08                 string size (8)
424E  5F797363616C6500   "_yscale\0"
                         const [124]: "_yscale"
4256  03                 const type 3
4257  3333333F           const [125]: (51)
425B  01                 const type 3
425C  FFF9DE4C           const [126]: (1289681407)
4260  04                 const type 4
4261  07                 string size (7)
4262  2E496D61676500     ".Image\0"
                         const [127]: ".Image"
4269  04                 const type 4
426A  16                 string size (22)
426B  466C617368496E73+  "FlashIns"
4273  74616E63655F4541+  "tance_EA"
427B  53455F494E00       "SE_IN\0"
                         const [128]: "FlashInstance_EASE_IN"
4281  04                 const type 4
4282  12                 string size (18)
4283  6C6F747573547261+  "lotusTra"
428B  6E736D697373696F+  "nsmissio"
4293  6E00               "n\0"
                         const [129]: "lotusTransmission"
4295  01                 const type 3
4296  0CD58359           const [130]: (1501811980)
429A  01                 const type 3
429B  A6E77410           const [131]: (276096934)
429F  01                 const type 3
42A0  42674A8C           const [132]: (-1941280958)
42A4  03                 const type 3
42A5  9A99993E           const [133]: (-102)
42A9  01                 const type 3
42AA  071ADA92           const [134]: (-1831200249)
42AE  04                 const type 4
42AF  14                 string size (20)
42B0  5175657565645472+  "QueuedTr"
42B8  616E736D69737369+  "ansmissi"
42C0  6F6E7300           "ons\0"
                         const [135]: "QueuedTransmissions"
42C4  04                 const type 4
42C5  0B                 string size (11)
42C6  4C6F7475735F4761+  "Lotus_Ga"
42CE  6D6500             "me\0"
                         const [136]: "Lotus_Game"
42D1  04                 const type 4
42D2  15                 string size (21)
42D3  5472616E736D6973+  "Transmis"
42DB  73696F6E5F54535F+  "sion_TS_"
42E3  48454C4400         "HELD\0"
                         const [137]: "Transmission_TS_HELD"
42E8  04                 const type 4
42E9  19                 string size (25)
42EA  426C6F636B547261+  "BlockTra"
42F2  6E736D697373696F+  "nsmissio"
42FA  6E466164654F7574+  "nFadeOut"
4302  00                 "\0"
                         const [138]: "BlockTransmissionFadeOut"
4303  01                 const type 3
4304  91B5E94C           const [139]: (1290384785)
4308  04                 const type 4
4309  10                 string size (16)
430A  67506F7274726169+  "gPortrai"
4312  74526567696F6E00   "tRegion\0"
                         const [140]: "gPortraitRegion"
431A  01                 const type 3
431B  2F8B2F7B           const [141]: (2066713391)
431F  01                 const type 3
4320  01DB46E5           const [142]: (-448341247)
4324  04                 const type 4
4325  08                 string size (8)
4326  4D65737361676500   "Message\0"
                         const [143]: "Message"
432E  04                 const type 4
432F  05                 string size (5)
4330  7465787400         "text\0"
                         const [144]: "text"
4335  04                 const type 4
4336  01                 string size (0)
                         const [145]: ""
4338  03                 const type 3
4339  0000A03F           const [146]: (0)
433D  01                 const type 3
433E  0B477B6B           const [147]: (1803241227)
4342  01                 const type 3
4343  F7172E3E           const [148]: (1043208183)
                         * functions:
4347  03                 sizep (3)
                         
4348                     ** function [0] definition (level 3)
                         ** start of function **
4348  00                 string size (0)
                         source name: (none)
434A  03                 line defined (503)
434B  85                 last line defined (517)
434C  04                 nups (7)
434D  07                 numparams (1)
434E  01                 is_vararg (0)
434F  00                 maxstacksize (11)
                         * code:
4351  42                 sizecode (66)
4352  52000000           [01] move       1   0      
4356  93000000           [02] getupval   2   0      
435A  A4004001           [03] self       2   2   256  ; -2013161817
435E  13018000           [04] getupval   4   1      
4362  59410000           [05] loadk      5   1        ; "ImageOuter.Image"
4366  99810000           [06] loadk      6   2        ; "_alpha"
436A  D3010001           [07] getupval   7   2      
436E  C4C18100           [08] mul        7   1   7  
4372  A2400003           [09] call       2   6   1  
4376  93000000           [10] getupval   2   0      
437A  A4004001           [11] self       2   2   256  ; -2013161817
437E  13018000           [12] getupval   4   1      
4382  59C10000           [13] loadk      5   3        ; "ImageOuter.TextBack"
4386  99810000           [14] loadk      6   2        ; "_alpha"
438A  D3010001           [15] getupval   7   2      
438E  C4C18100           [16] mul        7   1   7  
4392  A2400003           [17] call       2   6   1  
4396  93000000           [18] getupval   2   0      
439A  A4004001           [19] self       2   2   256  ; -2013161817
439E  13018000           [20] getupval   4   1      
43A2  59010100           [21] loadk      5   4        ; "TextBackOuter.TextBack"
43A6  99810000           [22] loadk      6   2        ; "_alpha"
43AA  D3010001           [23] getupval   7   2      
43AE  C4C18100           [24] mul        7   1   7  
43B2  A2400003           [25] call       2   6   1  
43B6  93008000           [26] getupval   2   1      
fail op	35
43BA  63404101           [27] close      1  
43BE  1A000980           [28] jmp        37           ; to [66]
43C2  93008001           [29] getupval   2   3      
43C6  98400000           [30] test       2       1    ; to [32] if false
43CA  1A400880           [31] jmp        34           ; to [66]
43CE  93000000           [32] getupval   2   0      
43D2  A4004001           [33] self       2   2   256  ; -2013161817
43D6  13018000           [34] getupval   4   1      
43DA  59410000           [35] loadk      5   1        ; "ImageOuter.Image"
43DE  99810100           [36] loadk      6   6        ; "_height"
43E2  DDC10100           [37] getglobal  7   7        ; -1828500651
43E6  13020002           [38] getupval   8   4      
43EA  59020200           [39] loadk      9   8        ; 0
43EE  8D028084           [40] sub        10  265 0    ; 0
43F2  E2010002           [41] call       7   4   0  
43F6  A2400000           [42] call       2   0   1  
43FA  93000000           [43] getupval   2   0      
43FE  A4004001           [44] self       2   2   256  ; -2013161817
4402  13018000           [45] getupval   4   1      
4406  59410000           [46] loadk      5   1        ; "ImageOuter.Image"
440A  99810200           [47] loadk      6   10       ; "_y"
440E  CD018084           [48] sub        7   265 0    ; 0
4412  C4C1C203           [49] mul        7   7   267  ; 0
4416  C3C10186           [50] add        7   268 7    ; 0
441A  A2400003           [51] call       2   6   1  
441E  93000000           [52] getupval   2   0      
4422  A4004001           [53] self       2   2   256  ; -2013161817
4426  13018000           [54] getupval   4   1      
442A  59410300           [55] loadk      5   13       ; "ImageOuter"
442E  99810300           [56] loadk      6   14       ; "_heading"
4432  DDC10100           [57] getglobal  7   7        ; -1828500651
4436  13028002           [58] getupval   8   5      
443A  04028287           [59] mul        8   271 8    ; 0
443E  53020003           [60] getupval   9   6      
4442  93028002           [61] getupval   10  5      
4446  44828204           [62] mul        9   9   10 
444A  92020000           [63] move       10  0      
444E  E2010002           [64] call       7   4   0  
4452  A2400000           [65] call       2   0   1  
4456  1E008000           [66] return     0   1      
                         * constants:
445A  10                 sizek (16)
445B  01                 const type 3
445C  A7960188           const [0]: (-2013161817)
4460  04                 const type 4
4461  11                 string size (17)
4462  496D6167654F7574+  "ImageOut"
446A  65722E496D616765+  "er.Image"
4472  00                 "\0"
                         const [1]: "ImageOuter.Image"
4473  04                 const type 4
4474  07                 string size (7)
4475  5F616C70686100     "_alpha\0"
                         const [2]: "_alpha"
447C  04                 const type 4
447D  14                 string size (20)
447E  496D6167654F7574+  "ImageOut"
4486  65722E5465787442+  "er.TextB"
448E  61636B00           "ack\0"
                         const [3]: "ImageOuter.TextBack"
4492  04                 const type 4
4493  17                 string size (23)
4494  546578744261636B+  "TextBack"
449C  4F757465722E5465+  "Outer.Te"
44A4  78744261636B00     "xtBack\0"
                         const [4]: "TextBackOuter.TextBack"
44AB  04                 const type 4
44AC  0E                 string size (14)
44AD  436F6D6D4672616D+  "CommFram"
44B5  6546756C6C00       "eFull\0"
                         const [5]: "CommFrameFull"
44BB  04                 const type 4
44BC  08                 string size (8)
44BD  5F68656967687400   "_height\0"
                         const [6]: "_height"
44C5  01                 const type 3
44C6  554B0393           const [7]: (-1828500651)
44CA  03                 const type 3
44CB  00002041           const [8]: (0)
44CF  03                 const type 3
44D0  0000803F           const [9]: (0)
44D4  04                 const type 4
44D5  03                 string size (3)
44D6  5F7900             "_y\0"
                         const [10]: "_y"
44D9  03                 const type 3
44DA  0000A0C2           const [11]: (0)
44DE  03                 const type 3
44DF  00000000           const [12]: (0)
44E3  04                 const type 4
44E4  0B                 string size (11)
44E5  496D6167654F7574+  "ImageOut"
44ED  657200             "er\0"
                         const [13]: "ImageOuter"
44F0  04                 const type 4
44F1  09                 string size (9)
44F2  5F68656164696E67+  "_heading"
44FA  00                 "\0"
                         const [14]: "_heading"
44FB  03                 const type 3
44FC  0000AAC2           const [15]: (0)
                         * functions:
4500  00                 sizep (0)
                         * lines:
4501  42                 sizelineinfo (66)
                         [pc] (line)
4502  F8                 [01] (-8)
4503  01                 [02] (-6)
4504  00                 [03] (-6)
4505  00                 [04] (-6)
4506  FA                 [05] (-6)
4507  01                 [06] (-6)
4508  00                 [07] (-6)
4509  00                 [08] (-6)
450A  FA                 [09] (-6)
450B  01                 [10] (-5)
450C  00                 [11] (-5)
450D  00                 [12] (-5)
450E  FA                 [13] (-5)
450F  01                 [14] (-5)
4510  00                 [15] (-5)
4511  00                 [16] (-5)
4512  FA                 [17] (-5)
4513  01                 [18] (-4)
4514  00                 [19] (-4)
4515  00                 [20] (-4)
4516  FA                 [21] (-4)
4517  01                 [22] (-4)
4518  00                 [23] (-4)
4519  00                 [24] (-4)
451A  FA                 [25] (-4)
451B  01                 [26] (-2)
451C  00                 [27] (-2)
451D  00                 [28] (-2)
451E  FA                 [29] (-2)
451F  01                 [30] (-2)
4520  00                 [31] (-2)
4521  00                 [32] (0)
4522  FA                 [33] (0)
4523  01                 [34] (0)
4524  00                 [35] (0)
4525  00                 [36] (0)
4526  FB                 [37] (0)
4527  01                 [38] (0)
4528  00                 [39] (0)
4529  00                 [40] (0)
452A  FB                 [41] (0)
452B  01                 [42] (0)
452C  00                 [43] (1)
452D  00                 [44] (1)
452E  FB                 [45] (1)
452F  01                 [46] (1)
4530  00                 [47] (1)
4531  00                 [48] (1)
4532  FB                 [49] (1)
4533  01                 [50] (1)
4534  00                 [51] (1)
4535  00                 [52] (3)
4536  FB                 [53] (3)
4537  01                 [54] (3)
4538  00                 [55] (3)
4539  00                 [56] (3)
453A  FB                 [57] (3)
453B  01                 [58] (3)
453C  00                 [59] (3)
453D  00                 [60] (3)
453E  FB                 [61] (3)
453F  01                 [62] (3)
4540  00                 [63] (3)
4541  00                 [64] (3)
4542  FB                 [65] (3)
4543  01                 [66] (5)
                         * locals:
460A  00                 sizelocvars (0)
                         * upvalues:
460B  00                 sizeupvalues (0)
                         ** end of function **

                         
460C                     ** function [1] definition (level 3)
                         ** start of function **
460C  00                 string size (0)
                         source name: (none)
460E  05                 line defined (683)
460F  B0                 last line defined (688)
4610  05                 nups (3)
4611  03                 numparams (0)
4612  00                 is_vararg (0)
4613  00                 maxstacksize (9)
                         * code:
4615  13                 sizecode (19)
4616  1D000000           [01] getglobal  0   0        ; 1390508688
461A  53000000           [02] getupval   1   0      
461E  93008000           [03] getupval   2   1      
4622  D9400000           [04] loadk      3   1        ; ".Name"
4626  82C00001           [05] concat     2   2   3  
462A  DD800000           [06] getglobal  3   2        ; UISys
462E  CEC0C001           [07] gettable   3   3   259  ; "FlashInstance_SMOOTH_STEP"
4632  0B018000           [08] newtable   4   1   0    ; array=1, hash=0
4636  59010100           [09] loadk      5   4        ; "_alpha"
463A  1B418000           [10] setlist    4   1   1    ; index 1 to 1
463E  4B018000           [11] newtable   5   1   0    ; array=1, hash=0
4642  99410100           [12] loadk      6   5        ; 0
4646  5B418000           [13] setlist    5   1   1    ; index 1 to 1
464A  99810100           [14] loadk      6   6        ; 0
464E  D9C10100           [15] loadk      7   7        ; 0
4652  25020000           [16] closure    8   0      
4656  13000001           [17] getupval   0   2      
465A  22408004           [18] call       0   9   1  
465E  1E008000           [19] return     0   1      
                         * constants:
4662  08                 sizek (8)
4663  01                 const type 3
4664  907AE152           const [0]: (1390508688)
4668  04                 const type 4
4669  06                 string size (6)
466A  2E4E616D6500       ".Name\0"
                         const [1]: ".Name"
4670  04                 const type 4
4671  06                 string size (6)
4672  554953797300       "UISys\0"
                         const [2]: "UISys"
4678  04                 const type 4
4679  1A                 string size (26)
467A  466C617368496E73+  "FlashIns"
4682  74616E63655F534D+  "tance_SM"
468A  4F4F54485F535445+  "OOTH_STE"
4692  5000               "P\0"
                         const [3]: "FlashInstance_SMOOTH_STEP"
4694  04                 const type 4
4695  07                 string size (7)
4696  5F616C70686100     "_alpha\0"
                         const [4]: "_alpha"
469D  03                 const type 3
469E  00000000           const [5]: (0)
46A2  03                 const type 3
46A3  00000040           const [6]: (0)
46A7  03                 const type 3
46A8  0000803F           const [7]: (0)
                         * functions:
46AC  01                 sizep (1)
                         
46AD                     ** function [0] definition (level 4)
                         ** start of function **
46AD  00                 string size (0)
                         source name: (none)
46AF  05                 line defined (685)
46B0  AF                 last line defined (687)
46B1  05                 nups (1)
46B2  01                 numparams (0)
46B3  00                 is_vararg (0)
46B4  00                 maxstacksize (2)
                         * code:
46B6  03                 sizecode (3)
46B7  17000000           [1] loadbool   0   0   0    ; false
fail op	8
46BB  08000000           [2] setupval   0   0      
46BF  1E008000           [3] return     0   1      
                         * constants:
46C3  00                 sizek (0)
                         * functions:
46C4  00                 sizep (0)
                         * lines:
46C5  03                 sizelineinfo (3)
                         [pc] (line)
46C6  AE                 [1] (-82)
46C7  02                 [2] (-82)
46C8  00                 [3] (-81)
                         * locals:
46D2  00                 sizelocvars (0)
                         * upvalues:
46D3  00                 sizeupvalues (0)
                         ** end of function **

                         * lines:
46D4  13                 sizelineinfo (19)
                         [pc] (line)
46D5  AC                 [01] (-84)
46D6  02                 [02] (-84)
46D7  00                 [03] (-84)
46D8  00                 [04] (-84)
46D9  AC                 [05] (-84)
46DA  02                 [06] (-84)
46DB  00                 [07] (-84)
46DC  00                 [08] (-84)
46DD  AC                 [09] (-84)
46DE  02                 [10] (-84)
46DF  00                 [11] (-84)
46E0  00                 [12] (-84)
46E1  AC                 [13] (-84)
46E2  02                 [14] (-84)
46E3  00                 [15] (-84)
46E4  00                 [16] (-81)
46E5  AC                 [17] (-81)
46E6  02                 [18] (-84)
46E7  00                 [19] (-80)
                         * locals:
4721  00                 sizelocvars (0)
                         * upvalues:
4722  00                 sizeupvalues (0)
                         ** end of function **

                         
4723                     ** function [2] definition (level 3)
                         ** start of function **
4723  00                 string size (0)
                         source name: (none)
4725  06                 line defined (804)
4726  B4                 last line defined (820)
4727  06                 nups (9)
4728  09                 numparams (1)
4729  01                 is_vararg (0)
472A  00                 maxstacksize (11)
                         * code:
472C  46                 sizecode (70)
fail op	35
472D  23004000           [01] close      0  
4731  1A800080           [02] jmp        3            ; to [6]
4735  53000000           [03] getupval   1   0      
4739  62408000           [04] call       1   1   1  
473D  1E008000           [05] return     0   1      
4741  4D000080           [06] sub        1   256 0    ; 0
4745  93008000           [07] getupval   2   1      
4749  A4404001           [08] self       2   2   257  ; -2013161817
474D  13010001           [09] getupval   4   2      
4751  59810000           [10] loadk      5   2        ; "ImageOuter.Image"
4755  99C10000           [11] loadk      6   3        ; "_alpha"
4759  D3018001           [12] getupval   7   3      
475D  C4C18100           [13] mul        7   1   7  
4761  A2400003           [14] call       2   6   1  
4765  93008000           [15] getupval   2   1      
4769  A4404001           [16] self       2   2   257  ; -2013161817
476D  13010001           [17] getupval   4   2      
4771  59010100           [18] loadk      5   4        ; "ImageOuter.TextBack"
4775  99C10000           [19] loadk      6   3        ; "_alpha"
4779  D3010002           [20] getupval   7   4      
477D  C4C18100           [21] mul        7   1   7  
4781  A2400003           [22] call       2   6   1  
4785  93008000           [23] getupval   2   1      
4789  A4404001           [24] self       2   2   257  ; -2013161817
478D  13010001           [25] getupval   4   2      
4791  59410100           [26] loadk      5   5        ; "TextBackOuter.TextBack"
4795  99C10000           [27] loadk      6   3        ; "_alpha"
4799  D3010002           [28] getupval   7   4      
479D  C4C18100           [29] mul        7   1   7  
47A1  A2400003           [30] call       2   6   1  
47A5  93000001           [31] getupval   2   2      
fail op	35
47A9  63804101           [32] close      1  
47AD  1AC00880           [33] jmp        36           ; to [70]
47B1  93008002           [34] getupval   2   5      
47B5  98400000           [35] test       2       1    ; to [37] if false
47B9  1A000880           [36] jmp        33           ; to [70]
47BD  93008000           [37] getupval   2   1      
47C1  A4404001           [38] self       2   2   257  ; -2013161817
47C5  13010001           [39] getupval   4   2      
47C9  59810000           [40] loadk      5   2        ; "ImageOuter.Image"
47CD  99C10100           [41] loadk      6   7        ; "_height"
47D1  DD010200           [42] getglobal  7   8        ; -1828500651
47D5  13020003           [43] getupval   8   6      
47D9  59420200           [44] loadk      9   9        ; 0
47DD  92020000           [45] move       10  0      
47E1  E2010002           [46] call       7   4   0  
47E5  A2400000           [47] call       2   0   1  
47E9  93008000           [48] getupval   2   1      
47ED  A4404001           [49] self       2   2   257  ; -2013161817
47F1  13010001           [50] getupval   4   2      
47F5  59810000           [51] loadk      5   2        ; "ImageOuter.Image"
47F9  99810200           [52] loadk      6   10       ; "_y"
47FD  C4C14200           [53] mul        7   0   267  ; 0
4801  C3C10186           [54] add        7   268 7    ; 0
4805  A2400003           [55] call       2   6   1  
4809  93008000           [56] getupval   2   1      
480D  A4404001           [57] self       2   2   257  ; -2013161817
4811  13010001           [58] getupval   4   2      
4815  59410300           [59] loadk      5   13       ; "ImageOuter"
4819  99810300           [60] loadk      6   14       ; "_heading"
481D  DD010200           [61] getglobal  7   8        ; -1828500651
4821  13028003           [62] getupval   8   7      
4825  04028287           [63] mul        8   271 8    ; 0
4829  53020004           [64] getupval   9   8      
482D  93028003           [65] getupval   10  7      
4831  44828204           [66] mul        9   9   10 
4835  92028000           [67] move       10  1      
4839  E2010002           [68] call       7   4   0  
483D  A2400000           [69] call       2   0   1  
4841  1E008000           [70] return     0   1      
                         * constants:
4845  10                 sizek (16)
4846  03                 const type 3
4847  0000803F           const [0]: (0)
484B  01                 const type 3
484C  A7960188           const [1]: (-2013161817)
4850  04                 const type 4
4851  11                 string size (17)
4852  496D6167654F7574+  "ImageOut"
485A  65722E496D616765+  "er.Image"
4862  00                 "\0"
                         const [2]: "ImageOuter.Image"
4863  04                 const type 4
4864  07                 string size (7)
4865  5F616C70686100     "_alpha\0"
                         const [3]: "_alpha"
486C  04                 const type 4
486D  14                 string size (20)
486E  496D6167654F7574+  "ImageOut"
4876  65722E5465787442+  "er.TextB"
487E  61636B00           "ack\0"
                         const [4]: "ImageOuter.TextBack"
4882  04                 const type 4
4883  17                 string size (23)
4884  546578744261636B+  "TextBack"
488C  4F757465722E5465+  "Outer.Te"
4894  78744261636B00     "xtBack\0"
                         const [5]: "TextBackOuter.TextBack"
489B  04                 const type 4
489C  0E                 string size (14)
489D  436F6D6D4672616D+  "CommFram"
48A5  6546756C6C00       "eFull\0"
                         const [6]: "CommFrameFull"
48AB  04                 const type 4
48AC  08                 string size (8)
48AD  5F68656967687400   "_height\0"
                         const [7]: "_height"
48B5  01                 const type 3
48B6  554B0393           const [8]: (-1828500651)
48BA  03                 const type 3
48BB  00002041           const [9]: (0)
48BF  04                 const type 4
48C0  03                 string size (3)
48C1  5F7900             "_y\0"
                         const [10]: "_y"
48C4  03                 const type 3
48C5  0000A0C2           const [11]: (0)
48C9  03                 const type 3
48CA  00000000           const [12]: (0)
48CE  04                 const type 4
48CF  0B                 string size (11)
48D0  496D6167654F7574+  "ImageOut"
48D8  657200             "er\0"
                         const [13]: "ImageOuter"
48DB  04                 const type 4
48DC  09                 string size (9)
48DD  5F68656164696E67+  "_heading"
48E5  00                 "\0"
                         const [14]: "_heading"
48E6  03                 const type 3
48E7  0000AAC2           const [15]: (0)
                         * functions:
48EB  00                 sizep (0)
                         * lines:
48EC  46                 sizelineinfo (70)
                         [pc] (line)
48ED  25                 [01] (37)
48EE  03                 [02] (37)
48EF  00                 [03] (38)
48F0  00                 [04] (38)
48F1  25                 [05] (39)
48F2  03                 [06] (41)
48F3  00                 [07] (43)
48F4  00                 [08] (43)
48F5  26                 [09] (43)
48F6  03                 [10] (43)
48F7  00                 [11] (43)
48F8  00                 [12] (43)
48F9  26                 [13] (43)
48FA  03                 [14] (43)
48FB  00                 [15] (44)
48FC  00                 [16] (44)
48FD  27                 [17] (44)
48FE  03                 [18] (44)
48FF  00                 [19] (44)
4900  00                 [20] (44)
4901  29                 [21] (44)
4902  03                 [22] (44)
4903  00                 [23] (45)
4904  00                 [24] (45)
4905  2B                 [25] (45)
4906  03                 [26] (45)
4907  00                 [27] (45)
4908  00                 [28] (45)
4909  2B                 [29] (45)
490A  03                 [30] (45)
490B  00                 [31] (47)
490C  00                 [32] (47)
490D  2B                 [33] (47)
490E  03                 [34] (47)
490F  00                 [35] (47)
4910  00                 [36] (47)
4911  2B                 [37] (48)
4912  03                 [38] (48)
4913  00                 [39] (48)
4914  00                 [40] (48)
4915  2B                 [41] (48)
4916  03                 [42] (48)
4917  00                 [43] (48)
4918  00                 [44] (48)
4919  2B                 [45] (48)
491A  03                 [46] (48)
491B  00                 [47] (48)
491C  00                 [48] (49)
491D  2B                 [49] (49)
491E  03                 [50] (49)
491F  00                 [51] (49)
4920  00                 [52] (49)
4921  2B                 [53] (49)
4922  03                 [54] (49)
4923  00                 [55] (49)
4924  00                 [56] (50)
4925  2C                 [57] (50)
4926  03                 [58] (50)
4927  00                 [59] (50)
4928  00                 [60] (50)
4929  2C                 [61] (50)
492A  03                 [62] (50)
492B  00                 [63] (50)
492C  00                 [64] (50)
492D  2C                 [65] (50)
492E  03                 [66] (50)
492F  00                 [67] (50)
4930  00                 [68] (50)
4931  2C                 [69] (50)
4932  03                 [70] (52)
                         * locals:
4A05  00                 sizelocvars (0)
                         * upvalues:
4A06  00                 sizeupvalues (0)
                         ** end of function **

                         * lines:
4A08  09                 sizelineinfo (1262)
                         [pc] (line)
4A09  B8                 [0001] (-72)
4A0A  01                 [0002] (-72)
4A0B  00                 [0003] (-72)
4A0C  00                 [0004] (-72)
4A0D  B8                 [0005] (-72)
4A0E  01                 [0006] (-71)
4A0F  00                 [0007] (-71)
4A10  00                 [0008] (-71)
4A11  B8                 [0009] (-71)
4A12  01                 [0010] (-69)
4A13  00                 [0011] (-69)
4A14  00                 [0012] (-69)
4A15  B8                 [0013] (-69)
4A16  01                 [0014] (-69)
4A17  00                 [0015] (-69)
4A18  00                 [0016] (-69)
4A19  B8                 [0017] (-68)
4A1A  01                 [0018] (-68)
4A1B  00                 [0019] (-68)
4A1C  00                 [0020] (-68)
4A1D  B9                 [0021] (-68)
4A1E  01                 [0022] (-68)
4A1F  00                 [0023] (-68)
4A20  00                 [0024] (-67)
4A21  B9                 [0025] (-67)
4A22  01                 [0026] (-67)
4A23  00                 [0027] (-67)
4A24  00                 [0028] (-67)
4A25  B9                 [0029] (-67)
4A26  01                 [0030] (-67)
4A27  00                 [0031] (-65)
4A28  00                 [0032] (-64)
4A29  B9                 [0033] (-64)
4A2A  01                 [0034] (-64)
4A2B  00                 [0035] (-64)
4A2C  00                 [0036] (-64)
4A2D  BB                 [0037] (-64)
4A2E  01                 [0038] (-64)
4A2F  00                 [0039] (-64)
4A30  00                 [0040] (-63)
4A31  BB                 [0041] (-63)
4A32  01                 [0042] (-62)
4A33  00                 [0043] (-62)
4A34  00                 [0044] (-62)
4A35  BB                 [0045] (-62)
4A36  01                 [0046] (-62)
4A37  00                 [0047] (-62)
4A38  00                 [0048] (-62)
4A39  BB                 [0049] (-61)
4A3A  01                 [0050] (-61)
4A3B  00                 [0051] (-61)
4A3C  00                 [0052] (-61)
4A3D  BB                 [0053] (-61)
4A3E  01                 [0054] (-61)
4A3F  00                 [0055] (-61)
4A40  00                 [0056] (-61)
4A41  BB                 [0057] (-61)
4A42  01                 [0058] (-61)
4A43  00                 [0059] (-61)
4A44  00                 [0060] (-61)
4A45  BB                 [0061] (-61)
4A46  01                 [0062] (-61)
4A47  00                 [0063] (-58)
4A48  00                 [0064] (-58)
4A49  BC                 [0065] (-58)
4A4A  01                 [0066] (-58)
4A4B  00                 [0067] (-58)
4A4C  00                 [0068] (-58)
4A4D  BC                 [0069] (-58)
4A4E  01                 [0070] (-58)
4A4F  00                 [0071] (-58)
4A50  00                 [0072] (-57)
4A51  BC                 [0073] (-57)
4A52  01                 [0074] (-57)
4A53  00                 [0075] (-57)
4A54  00                 [0076] (-57)
4A55  BC                 [0077] (-57)
4A56  01                 [0078] (-56)
4A57  00                 [0079] (-56)
4A58  00                 [0080] (-56)
4A59  BC                 [0081] (-56)
4A5A  01                 [0082] (-56)
4A5B  00                 [0083] (-56)
4A5C  00                 [0084] (-56)
4A5D  BC                 [0085] (-56)
4A5E  01                 [0086] (-54)
4A5F  00                 [0087] (-54)
4A60  00                 [0088] (-53)
4A61  BC                 [0089] (-53)
4A62  01                 [0090] (-51)
4A63  00                 [0091] (-51)
4A64  00                 [0092] (-51)
4A65  BD                 [0093] (-51)
4A66  01                 [0094] (-51)
4A67  00                 [0095] (-50)
4A68  00                 [0096] (-50)
4A69  BD                 [0097] (-50)
4A6A  01                 [0098] (-50)
4A6B  00                 [0099] (-50)
4A6C  00                 [0100] (-50)
4A6D  BD                 [0101] (-50)
4A6E  01                 [0102] (-50)
4A6F  00                 [0103] (-49)
4A70  00                 [0104] (-49)
4A71  BD                 [0105] (-49)
4A72  01                 [0106] (-49)
4A73  00                 [0107] (-49)
4A74  00                 [0108] (-49)
4A75  BD                 [0109] (-49)
4A76  01                 [0110] (-49)
4A77  00                 [0111] (-47)
4A78  00                 [0112] (-47)
4A79  BD                 [0113] (-47)
4A7A  01                 [0114] (-46)
4A7B  00                 [0115] (-46)
4A7C  00                 [0116] (-46)
4A7D  BD                 [0117] (-46)
4A7E  01                 [0118] (-46)
4A7F  00                 [0119] (-46)
4A80  00                 [0120] (-46)
4A81  BF                 [0121] (-46)
4A82  01                 [0122] (-46)
4A83  00                 [0123] (-46)
4A84  00                 [0124] (-46)
4A85  C0                 [0125] (-46)
4A86  01                 [0126] (-46)
4A87  00                 [0127] (-46)
4A88  00                 [0128] (-46)
4A89  C0                 [0129] (-44)
4A8A  01                 [0130] (-44)
4A8B  00                 [0131] (-44)
4A8C  00                 [0132] (-44)
4A8D  C0                 [0133] (-44)
4A8E  01                 [0134] (-44)
4A8F  00                 [0135] (-44)
4A90  00                 [0136] (-44)
4A91  C0                 [0137] (-44)
4A92  01                 [0138] (-44)
4A93  00                 [0139] (-44)
4A94  00                 [0140] (-44)
4A95  C0                 [0141] (-44)
4A96  01                 [0142] (-44)
4A97  00                 [0143] (-44)
4A98  00                 [0144] (-44)
4A99  C0                 [0145] (-44)
4A9A  01                 [0146] (-44)
4A9B  00                 [0147] (-41)
4A9C  00                 [0148] (-41)
4A9D  C0                 [0149] (-41)
4A9E  01                 [0150] (-41)
4A9F  00                 [0151] (-41)
4AA0  00                 [0152] (-41)
4AA1  C0                 [0153] (-41)
4AA2  01                 [0154] (-40)
4AA3  00                 [0155] (-40)
4AA4  00                 [0156] (-40)
4AA5  C1                 [0157] (-40)
4AA6  01                 [0158] (-40)
4AA7  00                 [0159] (-40)
4AA8  00                 [0160] (-40)
4AA9  C1                 [0161] (-40)
4AAA  01                 [0162] (-40)
4AAB  00                 [0163] (-40)
4AAC  00                 [0164] (-40)
4AAD  C2                 [0165] (-40)
4AAE  01                 [0166] (-40)
4AAF  00                 [0167] (-40)
4AB0  00                 [0168] (-40)
4AB1  C2                 [0169] (-40)
4AB2  01                 [0170] (-38)
4AB3  00                 [0171] (-38)
4AB4  00                 [0172] (-38)
4AB5  C2                 [0173] (-38)
4AB6  01                 [0174] (-36)
4AB7  00                 [0175] (-36)
4AB8  00                 [0176] (-36)
4AB9  C2                 [0177] (-36)
4ABA  01                 [0178] (-36)
4ABB  00                 [0179] (-36)
4ABC  00                 [0180] (-35)
4ABD  C2                 [0181] (-35)
4ABE  01                 [0182] (-35)
4ABF  00                 [0183] (-35)
4AC0  00                 [0184] (-35)
4AC1  C2                 [0185] (-34)
4AC2  01                 [0186] (-34)
4AC3  00                 [0187] (-34)
4AC4  00                 [0188] (-34)
4AC5  C2                 [0189] (-34)
4AC6  01                 [0190] (-33)
4AC7  00                 [0191] (-33)
4AC8  00                 [0192] (-33)
4AC9  C3                 [0193] (-33)
4ACA  01                 [0194] (-33)
4ACB  00                 [0195] (-32)
4ACC  00                 [0196] (-32)
4ACD  C3                 [0197] (-32)
4ACE  01                 [0198] (-32)
4ACF  00                 [0199] (-32)
4AD0  00                 [0200] (-32)
4AD1  C3                 [0201] (-32)
4AD2  01                 [0202] (-32)
4AD3  00                 [0203] (-32)
4AD4  00                 [0204] (-31)
4AD5  C3                 [0205] (-31)
4AD6  01                 [0206] (-31)
4AD7  00                 [0207] (-31)
4AD8  00                 [0208] (-31)
4AD9  C3                 [0209] (-31)
4ADA  01                 [0210] (-31)
4ADB  00                 [0211] (-30)
4ADC  00                 [0212] (-30)
4ADD  C3                 [0213] (-30)
4ADE  01                 [0214] (-30)
4ADF  00                 [0215] (-30)
4AE0  00                 [0216] (-30)
4AE1  C3                 [0217] (-30)
4AE2  01                 [0218] (-30)
4AE3  00                 [0219] (-30)
4AE4  00                 [0220] (-30)
4AE5  C3                 [0221] (-30)
4AE6  01                 [0222] (-30)
4AE7  00                 [0223] (-30)
4AE8  00                 [0224] (-30)
4AE9  C3                 [0225] (-28)
4AEA  01                 [0226] (-28)
4AEB  00                 [0227] (-28)
4AEC  00                 [0228] (-28)
4AED  C3                 [0229] (-28)
4AEE  01                 [0230] (-28)
4AEF  00                 [0231] (-28)
4AF0  00                 [0232] (-27)
4AF1  C3                 [0233] (-27)
4AF2  01                 [0234] (-27)
4AF3  00                 [0235] (-27)
4AF4  00                 [0236] (-27)
4AF5  C3                 [0237] (-27)
4AF6  01                 [0238] (-27)
4AF7  00                 [0239] (-23)
4AF8  00                 [0240] (-23)
4AF9  C3                 [0241] (-23)
4AFA  01                 [0242] (-23)
4AFB  00                 [0243] (-22)
4AFC  00                 [0244] (-22)
4AFD  C3                 [0245] (-22)
4AFE  01                 [0246] (-22)
4AFF  00                 [0247] (-22)
4B00  00                 [0248] (-21)
4B01  C6                 [0249] (-19)
4B02  01                 [0250] (-18)
4B03  00                 [0251] (-18)
4B04  00                 [0252] (-18)
4B05  C6                 [0253] (-18)
4B06  01                 [0254] (-18)
4B07  00                 [0255] (-18)
4B08  00                 [0256] (-17)
4B09  C6                 [0257] (-17)
4B0A  01                 [0258] (-17)
4B0B  00                 [0259] (-17)
4B0C  00                 [0260] (-17)
4B0D  C6                 [0261] (-17)
4B0E  01                 [0262] (-17)
4B0F  00                 [0263] (-16)
4B10  00                 [0264] (-16)
4B11  C6                 [0265] (-16)
4B12  01                 [0266] (-16)
4B13  00                 [0267] (-16)
4B14  00                 [0268] (-16)
4B15  C6                 [0269] (-16)
4B16  01                 [0270] (-15)
4B17  00                 [0271] (-15)
4B18  00                 [0272] (-15)
4B19  C6                 [0273] (-15)
4B1A  01                 [0274] (-15)
4B1B  00                 [0275] (-15)
4B1C  00                 [0276] (-15)
4B1D  C6                 [0277] (-14)
4B1E  01                 [0278] (-11)
4B1F  00                 [0279] (-11)
4B20  00                 [0280] (-11)
4B21  C6                 [0281] (-11)
4B22  01                 [0282] (-11)
4B23  00                 [0283] (-11)
4B24  00                 [0284] (-11)
4B25  C7                 [0285] (-11)
4B26  01                 [0286] (-11)
4B27  00                 [0287] (-11)
4B28  00                 [0288] (-11)
4B29  C7                 [0289] (5)
4B2A  01                 [0290] (5)
4B2B  00                 [0291] (5)
4B2C  00                 [0292] (5)
4B2D  C7                 [0293] (5)
4B2E  01                 [0294] (5)
4B2F  00                 [0295] (5)
4B30  00                 [0296] (5)
4B31  C7                 [0297] (6)
4B32  01                 [0298] (6)
4B33  00                 [0299] (6)
4B34  00                 [0300] (6)
4B35  C7                 [0301] (6)
4B36  01                 [0302] (6)
4B37  00                 [0303] (6)
4B38  00                 [0304] (6)
4B39  C7                 [0305] (6)
4B3A  01                 [0306] (6)
4B3B  00                 [0307] (6)
4B3C  00                 [0308] (6)
4B3D  C8                 [0309] (6)
4B3E  01                 [0310] (6)
4B3F  00                 [0311] (6)
4B40  00                 [0312] (6)
4B41  C8                 [0313] (8)
4B42  01                 [0314] (8)
4B43  00                 [0315] (8)
4B44  00                 [0316] (10)
4B45  C8                 [0317] (10)
4B46  01                 [0318] (10)
4B47  00                 [0319] (10)
4B48  00                 [0320] (10)
4B49  C8                 [0321] (10)
4B4A  01                 [0322] (10)
4B4B  00                 [0323] (10)
4B4C  00                 [0324] (10)
4B4D  C8                 [0325] (10)
4B4E  01                 [0326] (10)
4B4F  00                 [0327] (10)
4B50  00                 [0328] (10)
4B51  C8                 [0329] (10)
4B52  01                 [0330] (10)
4B53  00                 [0331] (10)
4B54  00                 [0332] (14)
4B55  C8                 [0333] (14)
4B56  01                 [0334] (14)
4B57  00                 [0335] (14)
4B58  00                 [0336] (14)
4B59  C8                 [0337] (14)
4B5A  01                 [0338] (15)
4B5B  00                 [0339] (15)
4B5C  00                 [0340] (15)
4B5D  CA                 [0341] (15)
4B5E  01                 [0342] (15)
4B5F  00                 [0343] (15)
4B60  00                 [0344] (15)
4B61  CA                 [0345] (18)
4B62  01                 [0346] (18)
4B63  00                 [0347] (18)
4B64  00                 [0348] (18)
4B65  CB                 [0349] (18)
4B66  01                 [0350] (18)
4B67  00                 [0351] (18)
4B68  00                 [0352] (19)
4B69  CB                 [0353] (19)
4B6A  01                 [0354] (19)
4B6B  00                 [0355] (19)
4B6C  00                 [0356] (19)
4B6D  CD                 [0357] (19)
4B6E  01                 [0358] (19)
4B6F  00                 [0359] (20)
4B70  00                 [0360] (20)
4B71  CD                 [0361] (20)
4B72  01                 [0362] (23)
4B73  00                 [0363] (23)
4B74  00                 [0364] (23)
4B75  CD                 [0365] (23)
4B76  01                 [0366] (24)
4B77  00                 [0367] (24)
4B78  00                 [0368] (28)
4B79  CD                 [0369] (28)
4B7A  01                 [0370] (28)
4B7B  00                 [0371] (28)
4B7C  00                 [0372] (28)
4B7D  CD                 [0373] (28)
4B7E  01                 [0374] (28)
4B7F  00                 [0375] (28)
4B80  00                 [0376] (28)
4B81  CE                 [0377] (28)
4B82  01                 [0378] (28)
4B83  00                 [0379] (28)
4B84  00                 [0380] (29)
4B85  CE                 [0381] (29)
4B86  01                 [0382] (29)
4B87  00                 [0383] (29)
4B88  00                 [0384] (30)
4B89  CE                 [0385] (30)
4B8A  01                 [0386] (30)
4B8B  00                 [0387] (31)
4B8C  00                 [0388] (31)
4B8D  CE                 [0389] (31)
4B8E  01                 [0390] (31)
4B8F  00                 [0391] (31)
4B90  00                 [0392] (32)
4B91  CE                 [0393] (32)
4B92  01                 [0394] (32)
4B93  00                 [0395] (32)
4B94  00                 [0396] (32)
4B95  CE                 [0397] (33)
4B96  01                 [0398] (33)
4B97  00                 [0399] (33)
4B98  00                 [0400] (33)
4B99  CE                 [0401] (33)
4B9A  01                 [0402] (34)
4B9B  00                 [0403] (34)
4B9C  00                 [0404] (34)
4B9D  CE                 [0405] (34)
4B9E  01                 [0406] (34)
4B9F  00                 [0407] (34)
4BA0  00                 [0408] (34)
4BA1  CF                 [0409] (34)
4BA2  01                 [0410] (35)
4BA3  00                 [0411] (35)
4BA4  00                 [0412] (35)
4BA5  CF                 [0413] (35)
4BA6  01                 [0414] (36)
4BA7  00                 [0415] (36)
4BA8  00                 [0416] (36)
4BA9  CF                 [0417] (36)
4BAA  01                 [0418] (36)
4BAB  00                 [0419] (36)
4BAC  00                 [0420] (37)
4BAD  CF                 [0421] (37)
4BAE  01                 [0422] (37)
4BAF  00                 [0423] (37)
4BB0  00                 [0424] (37)
4BB1  CF                 [0425] (38)
4BB2  01                 [0426] (43)
4BB3  00                 [0427] (43)
4BB4  00                 [0428] (43)
4BB5  CF                 [0429] (43)
4BB6  01                 [0430] (43)
4BB7  00                 [0431] (44)
4BB8  00                 [0432] (44)
4BB9  CF                 [0433] (44)
4BBA  01                 [0434] (44)
4BBB  00                 [0435] (44)
4BBC  00                 [0436] (45)
4BBD  CF                 [0437] (45)
4BBE  01                 [0438] (46)
4BBF  00                 [0439] (46)
4BC0  00                 [0440] (46)
4BC1  D1                 [0441] (46)
4BC2  01                 [0442] (46)
4BC3  00                 [0443] (47)
4BC4  00                 [0444] (47)
4BC5  D1                 [0445] (47)
4BC6  01                 [0446] (47)
4BC7  00                 [0447] (48)
4BC8  00                 [0448] (48)
4BC9  D1                 [0449] (48)
4BCA  01                 [0450] (48)
4BCB  00                 [0451] (48)
4BCC  00                 [0452] (48)
4BCD  D2                 [0453] (48)
4BCE  01                 [0454] (49)
4BCF  00                 [0455] (49)
4BD0  00                 [0456] (49)
4BD1  D2                 [0457] (49)
4BD2  01                 [0458] (49)
4BD3  00                 [0459] (49)
4BD4  00                 [0460] (49)
4BD5  D2                 [0461] (50)
4BD6  01                 [0462] (50)
4BD7  00                 [0463] (50)
4BD8  00                 [0464] (50)
4BD9  D2                 [0465] (52)
4BDA  01                 [0466] (55)
4BDB  00                 [0467] (55)
4BDC  00                 [0468] (55)
4BDD  D2                 [0469] (55)
4BDE  01                 [0470] (55)
4BDF  00                 [0471] (55)
4BE0  00                 [0472] (55)
4BE1  D2                 [0473] (55)
4BE2  01                 [0474] (55)
4BE3  00                 [0475] (55)
4BE4  00                 [0476] (55)
4BE5  D2                 [0477] (55)
4BE6  01                 [0478] (57)
4BE7  00                 [0479] (57)
4BE8  00                 [0480] (57)
4BE9  D2                 [0481] (57)
4BEA  01                 [0482] (57)
4BEB  00                 [0483] (57)
4BEC  00                 [0484] (57)
4BED  D2                 [0485] (57)
4BEE  01                 [0486] (57)
4BEF  00                 [0487] (57)
4BF0  00                 [0488] (57)
4BF1  D2                 [0489] (58)
4BF2  01                 [0490] (58)
4BF3  00                 [0491] (58)
4BF4  00                 [0492] (58)
4BF5  D2                 [0493] (60)
4BF6  01                 [0494] (60)
4BF7  00                 [0495] (60)
4BF8  00                 [0496] (60)
4BF9  D2                 [0497] (60)
4BFA  01                 [0498] (60)
4BFB  00                 [0499] (60)
4BFC  00                 [0500] (60)
4BFD  D2                 [0501] (60)
4BFE  01                 [0502] (60)
4BFF  00                 [0503] (60)
4C00  00                 [0504] (60)
4C01  D2                 [0505] (60)
4C02  01                 [0506] (60)
4C03  00                 [0507] (60)
4C04  00                 [0508] (60)
4C05  D2                 [0509] (60)
4C06  01                 [0510] (62)
4C07  00                 [0511] (62)
4C08  00                 [0512] (65)
4C09  D4                 [0513] (65)
4C0A  01                 [0514] (65)
4C0B  00                 [0515] (65)
4C0C  00                 [0516] (65)
4C0D  D4                 [0517] (65)
4C0E  01                 [0518] (67)
4C0F  00                 [0519] (67)
4C10  00                 [0520] (71)
4C11  D4                 [0521] (71)
4C12  01                 [0522] (73)
4C13  00                 [0523] (73)
4C14  00                 [0524] (73)
4C15  D4                 [0525] (73)
4C16  01                 [0526] (73)
4C17  00                 [0527] (73)
4C18  00                 [0528] (73)
4C19  D4                 [0529] (73)
4C1A  01                 [0530] (73)
4C1B  00                 [0531] (73)
4C1C  00                 [0532] (73)
4C1D  D4                 [0533] (73)
4C1E  01                 [0534] (73)
4C1F  00                 [0535] (73)
4C20  00                 [0536] (73)
4C21  D4                 [0537] (73)
4C22  01                 [0538] (73)
4C23  00                 [0539] (74)
4C24  00                 [0540] (74)
4C25  D4                 [0541] (74)
4C26  01                 [0542] (74)
4C27  00                 [0543] (74)
4C28  00                 [0544] (74)
4C29  D4                 [0545] (81)
4C2A  01                 [0546] (81)
4C2B  00                 [0547] (82)
4C2C  00                 [0548] (82)
4C2D  D4                 [0549] (83)
4C2E  01                 [0550] (83)
4C2F  00                 [0551] (83)
4C30  00                 [0552] (83)
4C31  D4                 [0553] (83)
4C32  01                 [0554] (84)
4C33  00                 [0555] (85)
4C34  00                 [0556] (85)
4C35  D4                 [0557] (85)
4C36  01                 [0558] (85)
4C37  00                 [0559] (85)
4C38  00                 [0560] (86)
4C39  D4                 [0561] (86)
4C3A  01                 [0562] (90)
4C3B  00                 [0563] (90)
4C3C  00                 [0564] (90)
4C3D  D4                 [0565] (92)
4C3E  01                 [0566] (92)
4C3F  00                 [0567] (92)
4C40  00                 [0568] (92)
4C41  D4                 [0569] (93)
4C42  01                 [0570] (93)
4C43  00                 [0571] (93)
4C44  00                 [0572] (93)
4C45  D4                 [0573] (93)
4C46  01                 [0574] (94)
4C47  00                 [0575] (94)
4C48  00                 [0576] (94)
4C49  D4                 [0577] (94)
4C4A  01                 [0578] (96)
4C4B  00                 [0579] (96)
4C4C  00                 [0580] (96)
4C4D  D4                 [0581] (96)
4C4E  01                 [0582] (96)
4C4F  00                 [0583] (98)
4C50  00                 [0584] (98)
4C51  D7                 [0585] (98)
4C52  01                 [0586] (98)
4C53  00                 [0587] (98)
4C54  00                 [0588] (98)
4C55  D7                 [0589] (98)
4C56  01                 [0590] (98)
4C57  00                 [0591] (98)
4C58  00                 [0592] (98)
4C59  D7                 [0593] (98)
4C5A  01                 [0594] (99)
4C5B  00                 [0595] (99)
4C5C  00                 [0596] (100)
4C5D  D7                 [0597] (100)
4C5E  01                 [0598] (100)
4C5F  00                 [0599] (100)
4C60  00                 [0600] (100)
4C61  D7                 [0601] (101)
4C62  01                 [0602] (101)
4C63  00                 [0603] (101)
4C64  00                 [0604] (101)
4C65  D7                 [0605] (101)
4C66  01                 [0606] (102)
4C67  00                 [0607] (102)
4C68  00                 [0608] (102)
4C69  D7                 [0609] (102)
4C6A  01                 [0610] (102)
4C6B  00                 [0611] (103)
4C6C  00                 [0612] (103)
4C6D  D8                 [0613] (103)
4C6E  01                 [0614] (103)
4C6F  00                 [0615] (103)
4C70  00                 [0616] (104)
4C71  D8                 [0617] (104)
4C72  01                 [0618] (104)
4C73  00                 [0619] (104)
4C74  00                 [0620] (104)
4C75  D8                 [0621] (105)
4C76  01                 [0622] (105)
4C77  00                 [0623] (105)
4C78  00                 [0624] (105)
4C79  D8                 [0625] (105)
4C7A  01                 [0626] (110)
4C7B  00                 [0627] (110)
4C7C  00                 [0628] (110)
4C7D  D8                 [0629] (110)
4C7E  01                 [0630] (110)
4C7F  00                 [0631] (110)
4C80  00                 [0632] (110)
4C81  D8                 [0633] (111)
4C82  01                 [0634] (112)
4C83  00                 [0635] (112)
4C84  00                 [0636] (112)
4C85  D8                 [0637] (112)
4C86  01                 [0638] (112)
4C87  00                 [0639] (112)
4C88  00                 [0640] (112)
4C89  D8                 [0641] (112)
4C8A  01                 [0642] (112)
4C8B  00                 [0643] (112)
4C8C  00                 [0644] (112)
4C8D  D8                 [0645] (113)
4C8E  01                 [0646] (116)
4C8F  00                 [0647] (116)
4C90  00                 [0648] (116)
4C91  D8                 [0649] (116)
4C92  01                 [0650] (116)
4C93  00                 [0651] (116)
4C94  00                 [0652] (116)
4C95  D8                 [0653] (116)
4C96  01                 [0654] (116)
4C97  00                 [0655] (116)
4C98  00                 [0656] (116)
4C99  D8                 [0657] (117)
4C9A  01                 [0658] (117)
4C9B  00                 [0659] (117)
4C9C  00                 [0660] (118)
4C9D  D8                 [0661] (118)
4C9E  01                 [0662] (119)
4C9F  00                 [0663] (119)
4CA0  00                 [0664] (119)
4CA1  D8                 [0665] (119)
4CA2  01                 [0666] (119)
4CA3  00                 [0667] (119)
4CA4  00                 [0668] (119)
4CA5  D8                 [0669] (119)
4CA6  01                 [0670] (119)
4CA7  00                 [0671] (119)
4CA8  00                 [0672] (119)
4CA9  D8                 [0673] (119)
4CAA  01                 [0674] (119)
4CAB  00                 [0675] (119)
4CAC  00                 [0676] (119)
4CAD  DA                 [0677] (119)
4CAE  01                 [0678] (120)
4CAF  00                 [0679] (120)
4CB0  00                 [0680] (120)
4CB1  DA                 [0681] (120)
4CB2  01                 [0682] (120)
4CB3  00                 [0683] (121)
4CB4  00                 [0684] (121)
4CB5  DA                 [0685] (121)
4CB6  01                 [0686] (121)
4CB7  00                 [0687] (123)
4CB8  00                 [0688] (123)
4CB9  DA                 [0689] (123)
4CBA  01                 [0690] (124)
4CBB  00                 [0691] (125)
4CBC  00                 [0692] (125)
4CBD  DC                 [0693] (125)
4CBE  01                 [0694] (125)
4CBF  00                 [0695] (126)
4CC0  00                 [0696] (126)
4CC1  DC                 [0697] (126)
4CC2  01                 [0698] (126)
4CC3  00                 [0699] (127)
4CC4  00                 [0700] (127)
4CC5  DC                 [0701] (127)
4CC6  01                 [0702] (-128)
4CC7  00                 [0703] (-128)
4CC8  00                 [0704] (-128)
4CC9  DC                 [0705] (-128)
4CCA  01                 [0706] (-128)
4CCB  00                 [0707] (-127)
4CCC  00                 [0708] (-127)
4CCD  DC                 [0709] (-127)
4CCE  01                 [0710] (-127)
4CCF  00                 [0711] (-127)
4CD0  00                 [0712] (-127)
4CD1  DC                 [0713] (-126)
4CD2  01                 [0714] (-126)
4CD3  00                 [0715] (-125)
4CD4  00                 [0716] (-125)
4CD5  DD                 [0717] (-125)
4CD6  01                 [0718] (-125)
4CD7  00                 [0719] (-124)
4CD8  00                 [0720] (-124)
4CD9  DD                 [0721] (-124)
4CDA  01                 [0722] (-124)
4CDB  00                 [0723] (-124)
4CDC  00                 [0724] (-123)
4CDD  DD                 [0725] (-123)
4CDE  01                 [0726] (-121)
4CDF  00                 [0727] (-120)
4CE0  00                 [0728] (-118)
4CE1  DD                 [0729] (-118)
4CE2  01                 [0730] (-118)
4CE3  00                 [0731] (-118)
4CE4  00                 [0732] (-114)
4CE5  DD                 [0733] (-114)
4CE6  01                 [0734] (-114)
4CE7  00                 [0735] (-114)
4CE8  00                 [0736] (-114)
4CE9  DE                 [0737] (-113)
4CEA  01                 [0738] (-113)
4CEB  00                 [0739] (-113)
4CEC  00                 [0740] (-113)
4CED  DE                 [0741] (-112)
4CEE  01                 [0742] (-112)
4CEF  00                 [0743] (-112)
4CF0  00                 [0744] (-112)
4CF1  DE                 [0745] (-111)
4CF2  01                 [0746] (-106)
4CF3  00                 [0747] (-106)
4CF4  00                 [0748] (-106)
4CF5  DE                 [0749] (-106)
4CF6  01                 [0750] (-106)
4CF7  00                 [0751] (-106)
4CF8  00                 [0752] (-106)
4CF9  DE                 [0753] (-106)
4CFA  01                 [0754] (-106)
4CFB  00                 [0755] (-106)
4CFC  00                 [0756] (-105)
4CFD  DF                 [0757] (-105)
4CFE  01                 [0758] (-105)
4CFF  00                 [0759] (-105)
4D00  00                 [0760] (-105)
4D01  DF                 [0761] (-102)
4D02  01                 [0762] (-102)
4D03  00                 [0763] (-102)
4D04  00                 [0764] (-102)
4D05  DF                 [0765] (-102)
4D06  01                 [0766] (-101)
4D07  00                 [0767] (-101)
4D08  00                 [0768] (-98)
4D09  DF                 [0769] (-98)
4D0A  01                 [0770] (-97)
4D0B  00                 [0771] (-97)
4D0C  00                 [0772] (-93)
4D0D  DF                 [0773] (-93)
4D0E  01                 [0774] (-93)
4D0F  00                 [0775] (-93)
4D10  00                 [0776] (-93)
4D11  E0                 [0777] (-93)
4D12  01                 [0778] (-93)
4D13  00                 [0779] (-93)
4D14  00                 [0780] (-93)
4D15  E0                 [0781] (-93)
4D16  01                 [0782] (-93)
4D17  00                 [0783] (-93)
4D18  00                 [0784] (-93)
4D19  E0                 [0785] (-93)
4D1A  01                 [0786] (-93)
4D1B  00                 [0787] (-93)
4D1C  00                 [0788] (-92)
4D1D  E0                 [0789] (-92)
4D1E  01                 [0790] (-92)
4D1F  00                 [0791] (-91)
4D20  00                 [0792] (-91)
4D21  E0                 [0793] (-91)
4D22  01                 [0794] (-91)
4D23  00                 [0795] (-91)
4D24  00                 [0796] (-91)
4D25  E0                 [0797] (-91)
4D26  01                 [0798] (-91)
4D27  00                 [0799] (-91)
4D28  00                 [0800] (-91)
4D29  E0                 [0801] (-91)
4D2A  01                 [0802] (-91)
4D2B  00                 [0803] (-91)
4D2C  00                 [0804] (-91)
4D2D  E0                 [0805] (-91)
4D2E  01                 [0806] (-90)
4D2F  00                 [0807] (-90)
4D30  00                 [0808] (-90)
4D31  E0                 [0809] (-90)
4D32  01                 [0810] (-90)
4D33  00                 [0811] (-89)
4D34  00                 [0812] (-89)
4D35  E1                 [0813] (-89)
4D36  01                 [0814] (-88)
4D37  00                 [0815] (-88)
4D38  00                 [0816] (-88)
4D39  E1                 [0817] (-88)
4D3A  01                 [0818] (-88)
4D3B  00                 [0819] (-88)
4D3C  00                 [0820] (-88)
4D3D  E1                 [0821] (-88)
4D3E  01                 [0822] (-88)
4D3F  00                 [0823] (-80)
4D40  00                 [0824] (-80)
4D41  E1                 [0825] (-80)
4D42  01                 [0826] (-80)
4D43  00                 [0827] (-79)
4D44  00                 [0828] (-79)
4D45  E1                 [0829] (-79)
4D46  01                 [0830] (-79)
4D47  00                 [0831] (-79)
4D48  00                 [0832] (-79)
4D49  E1                 [0833] (-79)
4D4A  01                 [0834] (-78)
4D4B  00                 [0835] (-78)
4D4C  00                 [0836] (-77)
4D4D  E1                 [0837] (-77)
4D4E  01                 [0838] (-77)
4D4F  00                 [0839] (-77)
4D50  00                 [0840] (-77)
4D51  E2                 [0841] (-77)
4D52  01                 [0842] (-77)
4D53  00                 [0843] (-77)
4D54  00                 [0844] (-77)
4D55  E2                 [0845] (-77)
4D56  01                 [0846] (-77)
4D57  00                 [0847] (-77)
4D58  00                 [0848] (-77)
4D59  E2                 [0849] (-77)
4D5A  01                 [0850] (-77)
4D5B  00                 [0851] (-77)
4D5C  00                 [0852] (-77)
4D5D  E2                 [0853] (-74)
4D5E  01                 [0854] (-74)
4D5F  00                 [0855] (-74)
4D60  00                 [0856] (-73)
4D61  E2                 [0857] (-73)
4D62  01                 [0858] (-71)
4D63  00                 [0859] (-71)
4D64  00                 [0860] (-71)
4D65  E2                 [0861] (-69)
4D66  01                 [0862] (-69)
4D67  00                 [0863] (-69)
4D68  00                 [0864] (-69)
4D69  E2                 [0865] (-69)
4D6A  01                 [0866] (-68)
4D6B  00                 [0867] (-68)
4D6C  00                 [0868] (-68)
4D6D  E2                 [0869] (-67)
4D6E  01                 [0870] (-67)
4D6F  00                 [0871] (-63)
4D70  00                 [0872] (-63)
4D71  E2                 [0873] (-63)
4D72  01                 [0874] (-63)
4D73  00                 [0875] (-63)
4D74  00                 [0876] (-63)
4D75  E2                 [0877] (-63)
4D76  01                 [0878] (-63)
4D77  00                 [0879] (-63)
4D78  00                 [0880] (-63)
4D79  E2                 [0881] (-63)
4D7A  01                 [0882] (-63)
4D7B  00                 [0883] (-63)
4D7C  00                 [0884] (-63)
4D7D  E2                 [0885] (-63)
4D7E  01                 [0886] (-62)
4D7F  00                 [0887] (-62)
4D80  00                 [0888] (-62)
4D81  E2                 [0889] (-62)
4D82  01                 [0890] (-62)
4D83  00                 [0891] (-62)
4D84  00                 [0892] (-58)
4D85  E2                 [0893] (-58)
4D86  01                 [0894] (-58)
4D87  00                 [0895] (-58)
4D88  00                 [0896] (-57)
4D89  E4                 [0897] (-57)
4D8A  01                 [0898] (-57)
4D8B  00                 [0899] (-57)
4D8C  00                 [0900] (-57)
4D8D  E4                 [0901] (-57)
4D8E  01                 [0902] (-57)
4D8F  00                 [0903] (-57)
4D90  00                 [0904] (-57)
4D91  E4                 [0905] (-56)
4D92  01                 [0906] (-56)
4D93  00                 [0907] (-56)
4D94  00                 [0908] (-55)
4D95  E4                 [0909] (-55)
4D96  01                 [0910] (-55)
4D97  00                 [0911] (-55)
4D98  00                 [0912] (-55)
4D99  E4                 [0913] (-55)
4D9A  01                 [0914] (-54)
4D9B  00                 [0915] (-54)
4D9C  00                 [0916] (-54)
4D9D  E4                 [0917] (-54)
4D9E  01                 [0918] (-54)
4D9F  00                 [0919] (-54)
4DA0  00                 [0920] (-54)
4DA1  E4                 [0921] (-53)
4DA2  01                 [0922] (-53)
4DA3  00                 [0923] (-53)
4DA4  00                 [0924] (-53)
4DA5  E5                 [0925] (-53)
4DA6  01                 [0926] (-53)
4DA7  00                 [0927] (-53)
4DA8  00                 [0928] (-51)
4DA9  E5                 [0929] (-51)
4DAA  01                 [0930] (-51)
4DAB  00                 [0931] (-51)
4DAC  00                 [0932] (-50)
4DAD  E5                 [0933] (-50)
4DAE  01                 [0934] (-50)
4DAF  00                 [0935] (-50)
4DB0  00                 [0936] (-50)
4DB1  E5                 [0937] (-49)
4DB2  01                 [0938] (-49)
4DB3  00                 [0939] (-49)
4DB4  00                 [0940] (-49)
4DB5  E5                 [0941] (-48)
4DB6  01                 [0942] (-48)
4DB7  00                 [0943] (-48)
4DB8  00                 [0944] (-48)
4DB9  E5                 [0945] (-47)
4DBA  01                 [0946] (-47)
4DBB  00                 [0947] (-47)
4DBC  00                 [0948] (-47)
4DBD  E5                 [0949] (-47)
4DBE  01                 [0950] (-46)
4DBF  00                 [0951] (-46)
4DC0  00                 [0952] (-46)
4DC1  E9                 [0953] (-46)
4DC2  01                 [0954] (-46)
4DC3  00                 [0955] (-46)
4DC4  00                 [0956] (-46)
4DC5  E9                 [0957] (-46)
4DC6  01                 [0958] (-46)
4DC7  00                 [0959] (-46)
4DC8  00                 [0960] (-46)
4DC9  E9                 [0961] (-46)
4DCA  01                 [0962] (-46)
4DCB  00                 [0963] (-46)
4DCC  00                 [0964] (-46)
4DCD  E9                 [0965] (-46)
4DCE  01                 [0966] (-46)
4DCF  00                 [0967] (-40)
4DD0  00                 [0968] (-40)
4DD1  EA                 [0969] (-40)
4DD2  01                 [0970] (-40)
4DD3  00                 [0971] (-40)
4DD4  00                 [0972] (-40)
4DD5  EA                 [0973] (-40)
4DD6  01                 [0974] (-40)
4DD7  00                 [0975] (-40)
4DD8  00                 [0976] (-40)
4DD9  EA                 [0977] (-40)
4DDA  01                 [0978] (-40)
4DDB  00                 [0979] (-40)
4DDC  00                 [0980] (-40)
4DDD  EA                 [0981] (-40)
4DDE  01                 [0982] (-39)
4DDF  00                 [0983] (-39)
4DE0  00                 [0984] (-39)
4DE1  EA                 [0985] (-37)
4DE2  01                 [0986] (-36)
4DE3  00                 [0987] (-36)
4DE4  00                 [0988] (-36)
4DE5  EB                 [0989] (-36)
4DE6  01                 [0990] (-36)
4DE7  00                 [0991] (-36)
4DE8  00                 [0992] (-36)
4DE9  ED                 [0993] (-35)
4DEA  01                 [0994] (-32)
4DEB  00                 [0995] (-32)
4DEC  00                 [0996] (-32)
4DED  EE                 [0997] (-32)
4DEE  01                 [0998] (-32)
4DEF  00                 [0999] (-32)
4DF0  00                 [1000] (-31)
4DF1  EE                 [1001] (-31)
4DF2  01                 [1002] (-31)
4DF3  00                 [1003] (-31)
4DF4  00                 [1004] (-31)
4DF5  EE                 [1005] (-31)
4DF6  01                 [1006] (-30)
4DF7  00                 [1007] (-30)
4DF8  00                 [1008] (-30)
4DF9  EE                 [1009] (-30)
4DFA  01                 [1010] (-29)
4DFB  00                 [1011] (-29)
4DFC  00                 [1012] (-29)
4DFD  EE                 [1013] (-27)
4DFE  01                 [1014] (-27)
4DFF  00                 [1015] (-27)
4E00  00                 [1016] (-27)
4E01  EE                 [1017] (-27)
4E02  01                 [1018] (-26)
4E03  00                 [1019] (-26)
4E04  00                 [1020] (-26)
4E05  EF                 [1021] (-26)
4E06  01                 [1022] (-26)
4E07  00                 [1023] (-26)
4E08  00                 [1024] (-26)
4E09  EF                 [1025] (-26)
4E0A  01                 [1026] (-24)
4E0B  00                 [1027] (-24)
4E0C  00                 [1028] (-24)
4E0D  EF                 [1029] (-24)
4E0E  01                 [1030] (-24)
4E0F  00                 [1031] (-22)
4E10  00                 [1032] (-21)
4E11  EF                 [1033] (-21)
4E12  01                 [1034] (-21)
4E13  00                 [1035] (-20)
4E14  00                 [1036] (-20)
4E15  EF                 [1037] (-19)
4E16  01                 [1038] (-19)
4E17  00                 [1039] (-19)
4E18  00                 [1040] (-19)
4E19  EF                 [1041] (-19)
4E1A  01                 [1042] (-19)
4E1B  00                 [1043] (-19)
4E1C  00                 [1044] (-18)
4E1D  EF                 [1045] (-18)
4E1E  01                 [1046] (-18)
4E1F  00                 [1047] (-18)
4E20  00                 [1048] (-18)
4E21  F0                 [1049] (-18)
4E22  01                 [1050] (-18)
4E23  00                 [1051] (-16)
4E24  00                 [1052] (-16)
4E25  F0                 [1053] (-16)
4E26  01                 [1054] (-16)
4E27  00                 [1055] (-16)
4E28  00                 [1056] (-16)
4E29  F0                 [1057] (-16)
4E2A  01                 [1058] (-16)
4E2B  00                 [1059] (-16)
4E2C  00                 [1060] (-16)
4E2D  F0                 [1061] (-16)
4E2E  01                 [1062] (-16)
4E2F  00                 [1063] (-16)
4E30  00                 [1064] (-16)
4E31  F0                 [1065] (-16)
4E32  01                 [1066] (-15)
4E33  00                 [1067] (-15)
4E34  00                 [1068] (-15)
4E35  F0                 [1069] (-15)
4E36  01                 [1070] (-10)
4E37  00                 [1071] (-10)
4E38  00                 [1072] (-10)
4E39  F0                 [1073] (-10)
4E3A  01                 [1074] (-10)
4E3B  00                 [1075] (-10)
4E3C  00                 [1076] (-10)
4E3D  F1                 [1077] (-9)
4E3E  01                 [1078] (-9)
4E3F  00                 [1079] (-9)
4E40  00                 [1080] (-9)
4E41  F1                 [1081] (-8)
4E42  01                 [1082] (-8)
4E43  00                 [1083] (-8)
4E44  00                 [1084] (-7)
4E45  F1                 [1085] (-7)
4E46  01                 [1086] (-7)
4E47  00                 [1087] (-7)
4E48  00                 [1088] (-7)
4E49  F1                 [1089] (-7)
4E4A  01                 [1090] (-7)
4E4B  00                 [1091] (-4)
4E4C  00                 [1092] (-4)
4E4D  F1                 [1093] (-4)
4E4E  01                 [1094] (-4)
4E4F  00                 [1095] (-3)
4E50  00                 [1096] (-1)
4E51  F1                 [1097] (-1)
4E52  01                 [1098] (-1)
4E53  00                 [1099] (-1)
4E54  00                 [1100] (0)
4E55  F1                 [1101] (0)
4E56  01                 [1102] (2)
4E57  00                 [1103] (2)
4E58  00                 [1104] (2)
4E59  F2                 [1105] (2)
4E5A  01                 [1106] (2)
4E5B  00                 [1107] (2)
4E5C  00                 [1108] (2)
4E5D  F5                 [1109] (3)
4E5E  01                 [1110] (3)
4E5F  00                 [1111] (3)
4E60  00                 [1112] (3)
4E61  F5                 [1113] (3)
4E62  01                 [1114] (3)
4E63  00                 [1115] (3)
4E64  00                 [1116] (5)
4E65  F5                 [1117] (5)
4E66  01                 [1118] (5)
4E67  00                 [1119] (5)
4E68  00                 [1120] (5)
4E69  F5                 [1121] (6)
4E6A  01                 [1122] (6)
4E6B  00                 [1123] (6)
4E6C  00                 [1124] (6)
4E6D  F5                 [1125] (6)
4E6E  01                 [1126] (6)
4E6F  00                 [1127] (6)
4E70  00                 [1128] (11)
4E71  F5                 [1129] (11)
4E72  01                 [1130] (11)
4E73  00                 [1131] (11)
4E74  00                 [1132] (11)
4E75  F5                 [1133] (11)
4E76  01                 [1134] (11)
4E77  00                 [1135] (11)
4E78  00                 [1136] (11)
4E79  F5                 [1137] (11)
4E7A  01                 [1138] (11)
4E7B  00                 [1139] (11)
4E7C  00                 [1140] (11)
4E7D  F5                 [1141] (11)
4E7E  01                 [1142] (11)
4E7F  00                 [1143] (11)
4E80  00                 [1144] (11)
4E81  F5                 [1145] (11)
4E82  01                 [1146] (11)
4E83  00                 [1147] (11)
4E84  00                 [1148] (11)
4E85  F5                 [1149] (12)
4E86  01                 [1150] (12)
4E87  00                 [1151] (14)
4E88  00                 [1152] (14)
4E89  05                 [1153] (14)
4E8A  02                 [1154] (14)
4E8B  00                 [1155] (14)
4E8C  00                 [1156] (15)
4E8D  05                 [1157] (15)
4E8E  02                 [1158] (16)
4E8F  00                 [1159] (19)
4E90  00                 [1160] (19)
4E91  05                 [1161] (21)
4E92  02                 [1162] (21)
4E93  00                 [1163] (21)
4E94  00                 [1164] (21)
4E95  05                 [1165] (22)
4E96  02                 [1166] (22)
4E97  00                 [1167] (22)
4E98  00                 [1168] (22)
4E99  05                 [1169] (22)
4E9A  02                 [1170] (22)
4E9B  00                 [1171] (22)
4E9C  00                 [1172] (23)
4E9D  05                 [1173] (23)
4E9E  02                 [1174] (23)
4E9F  00                 [1175] (23)
4EA0  00                 [1176] (23)
4EA1  05                 [1177] (23)
4EA2  02                 [1178] (23)
4EA3  00                 [1179] (24)
4EA4  00                 [1180] (24)
4EA5  05                 [1181] (24)
4EA6  02                 [1182] (24)
4EA7  00                 [1183] (24)
4EA8  00                 [1184] (24)
4EA9  06                 [1185] (24)
4EAA  02                 [1186] (25)
4EAB  00                 [1187] (25)
4EAC  00                 [1188] (25)
4EAD  06                 [1189] (25)
4EAE  02                 [1190] (25)
4EAF  00                 [1191] (25)
4EB0  00                 [1192] (25)
4EB1  06                 [1193] (26)
4EB2  02                 [1194] (26)
4EB3  00                 [1195] (26)
4EB4  00                 [1196] (28)
4EB5  06                 [1197] (29)
4EB6  02                 [1198] (29)
4EB7  00                 [1199] (29)
4EB8  00                 [1200] (29)
4EB9  06                 [1201] (29)
4EBA  02                 [1202] (29)
4EBB  00                 [1203] (30)
4EBC  00                 [1204] (33)
4EBD  06                 [1205] (33)
4EBE  02                 [1206] (33)
4EBF  00                 [1207] (33)
4EC0  00                 [1208] (33)
4EC1  06                 [1209] (33)
4EC2  02                 [1210] (33)
4EC3  00                 [1211] (52)
4EC4  00                 [1212] (52)
4EC5  06                 [1213] (52)
4EC6  02                 [1214] (52)
4EC7  00                 [1215] (52)
4EC8  00                 [1216] (52)
4EC9  06                 [1217] (52)
4ECA  02                 [1218] (52)
4ECB  00                 [1219] (52)
4ECC  00                 [1220] (52)
4ECD  06                 [1221] (53)
4ECE  02                 [1222] (53)
4ECF  00                 [1223] (53)
4ED0  00                 [1224] (53)
4ED1  06                 [1225] (54)
4ED2  02                 [1226] (54)
4ED3  00                 [1227] (54)
4ED4  00                 [1228] (54)
4ED5  06                 [1229] (54)
4ED6  02                 [1230] (54)
4ED7  00                 [1231] (54)
4ED8  00                 [1232] (54)
4ED9  06                 [1233] (54)
4EDA  02                 [1234] (54)
4EDB  00                 [1235] (54)
4EDC  00                 [1236] (54)
4EDD  06                 [1237] (54)
4EDE  02                 [1238] (54)
4EDF  00                 [1239] (54)
4EE0  00                 [1240] (54)
4EE1  06                 [1241] (56)
4EE2  02                 [1242] (56)
4EE3  00                 [1243] (56)
4EE4  00                 [1244] (56)
4EE5  06                 [1245] (56)
4EE6  02                 [1246] (56)
4EE7  00                 [1247] (57)
4EE8  00                 [1248] (57)
4EE9  08                 [1249] (57)
4EEA  02                 [1250] (57)
4EEB  00                 [1251] (58)
4EEC  00                 [1252] (58)
4EED  08                 [1253] (58)
4EEE  02                 [1254] (58)
4EEF  00                 [1255] (58)
4EF0  00                 [1256] (59)
4EF1  08                 [1257] (59)
4EF2  02                 [1258] (59)
4EF3  00                 [1259] (62)
4EF4  00                 [1260] (62)
4EF5  0A                 [1261] (63)
4EF6  02                 [1262] (66)
                         * locals:
5DC1  00                 sizelocvars (0)
                         * upvalues:
5DC2  00                 sizeupvalues (0)
                         ** end of function **

                         
5DC3                     ** function [16] definition (level 2)
                         ** start of function **
5DC3  00                 string size (0)
                         source name: (none)
5DC5  06                 line defined (836)
5DC6  D0                 last line defined (976)
5DC7  07                 nups (23)
5DC8  17                 numparams (0)
5DC9  00                 is_vararg (0)
5DCA  00                 maxstacksize (19)
                         * code:
5DCD  03                 sizecode (405)
5DCE  13000000           [001] getupval   0   0      
5DD2  18400000           [002] test       0       1    ; to [4] if false
5DD6  1A400080           [003] jmp        2            ; to [6]
5DDA  19000000           [004] loadk      0   0        ; "CommFrame"
fail op	8
5DDE  08008000           [005] setupval   0   1      
5DE2  19400000           [006] loadk      0   1        ; 0
fail op	8
5DE6  08000001           [007] setupval   0   2      
5DEA  13000002           [008] getupval   0   4      
fail op	8
5DEE  08008001           [009] setupval   0   3      
5DF2  13000003           [010] getupval   0   6      
fail op	8
5DF6  08008002           [011] setupval   0   5      
5DFA  17000000           [012] loadbool   0   0   0    ; false
5DFE  46008000           [013] loadnil    1   1      
5E02  93008003           [014] getupval   2   7      
5E06  C6008001           [015] loadnil    3   3      
fail op	8
5E0A  C8000004           [016] setupval   3   8      
5E0E  D3008004           [017] getupval   3   9      
5E12  CCC04081           [018] settable   3   258 259  ; "mAnimateMouth" 1
5E16  DD000100           [019] getglobal  3   4        ; 1074689893
5E1A  1D410100           [020] getglobal  4   5        ; _T
5E1E  0E814102           [021] gettable   4   4   262  ; "curTransmission"
5E22  E2800001           [022] call       3   2   2  
5E26  D8400000           [023] test       3       1    ; to [25] if false
5E2A  1A000980           [024] jmp        37           ; to [62]
5E2E  D3000000           [025] getupval   3   0      
5E32  D8400000           [026] test       3       1    ; to [28] if false
5E36  1A400880           [027] jmp        34           ; to [62]
5E3A  DD400100           [028] getglobal  3   5        ; _T
5E3E  CE80C101           [029] gettable   3   3   262  ; "curTransmission"
5E42  E4C0C101           [030] self       3   3   263  ; -234354649
5E46  E2800001           [031] call       3   2   2  
5E4A  52008001           [032] move       1   3      
5E4E  DD400100           [033] getglobal  3   5        ; _T
5E52  CE80C101           [034] gettable   3   3   262  ; "curTransmission"
5E56  E400C201           [035] self       3   3   264  ; -771557979
5E5A  E2800001           [036] call       3   2   2  
5E5E  92008001           [037] move       2   3      
5E62  DD400100           [038] getglobal  3   5        ; _T
5E66  CE80C101           [039] gettable   3   3   262  ; "curTransmission"
5E6A  E440C201           [040] self       3   3   265  ; -94625312
5E6E  E2800001           [041] call       3   2   2  
fail op	8
5E72  C8000004           [042] setupval   3   8      
5E76  D3000004           [043] getupval   3   8      
5E7A  E480C201           [044] self       3   3   266  ; 828278287
5E7E  E2800001           [045] call       3   2   2  
5E82  D8400000           [046] test       3       1    ; to [48] if false
5E86  1A800080           [047] jmp        3            ; to [51]
5E8A  C6008001           [048] loadnil    3   3      
fail op	8
5E8E  C8000004           [049] setupval   3   8      
5E92  1A400180           [050] jmp        6            ; to [57]
5E96  D3000004           [051] getupval   3   8      
5E9A  13010005           [052] getupval   4   10     
fail op	35
5E9E  23008101           [053] close      0  
5EA2  1A400080           [054] jmp        2            ; to [57]
5EA6  D3008004           [055] getupval   3   9      
5EAA  CCC04281           [056] settable   3   258 267  ; "mAnimateMouth" 0
5EAE  DD400100           [057] getglobal  3   5        ; _T
5EB2  CE80C101           [058] gettable   3   3   262  ; "curTransmission"
5EB6  E400C301           [059] self       3   3   268  ; -485204251
5EBA  E2800001           [060] call       3   2   2  
5EBE  12008001           [061] move       0   3      
5EC2  DD400100           [062] getglobal  3   5        ; _T
5EC6  CE80C101           [063] gettable   3   3   262  ; "curTransmission"
5ECA  E440C301           [064] self       3   3   269  ; -983141836
5ECE  E2800001           [065] call       3   2   2  
5ED2  D8000000           [066] test       3       0    ; to [68] if true
5ED6  1A800780           [067] jmp        31           ; to [99]
5EDA  D3000006           [068] getupval   3   12     
5EDE  C480C301           [069] mul        3   3   270  ; 0
fail op	8
5EE2  C8008005           [070] setupval   3   11     
5EE6  DD400100           [071] getglobal  3   5        ; _T
5EEA  CE80C101           [072] gettable   3   3   262  ; "curTransmission"
5EEE  E4C0C301           [073] self       3   3   271  ; -924922524
5EF2  E2800001           [074] call       3   2   2  
5EF6  1D010100           [075] getglobal  4   4        ; 1074689893
5EFA  52018001           [076] move       5   3      
5EFE  22810001           [077] call       4   2   2  
5F02  18410000           [078] test       4       1    ; to [80] if false
5F06  1A400380           [079] jmp        14           ; to [94]
5F0A  1D010400           [080] getglobal  4   16       ; string
5F0E  0E414402           [081] gettable   4   4   273  ; -565905820
5F12  6481C401           [082] self       5   3   274  ; 455421500
5F16  62810001           [083] call       5   2   2  
5F1A  99C10400           [084] loadk      6   19       ; "Natah"
5F1E  22818001           [085] call       4   3   2  
5F22  18010000           [086] test       4       0    ; to [88] if true
5F26  1A400180           [087] jmp        6            ; to [94]
5F2A  13018006           [088] getupval   4   13     
5F2E  24014502           [089] self       4   4   276  ; 2115970775
5F32  99410500           [090] loadk      6   21       ; "CommFrameFull.ImageOuter.Image"
5F36  DD810500           [091] getglobal  7   22       ; portraitOverlayMaterialAlt
5F3A  22410002           [092] call       4   4   1  
5F3E  1A000180           [093] jmp        5            ; to [99]
5F42  13018006           [094] getupval   4   13     
5F46  24014502           [095] self       4   4   276  ; 2115970775
5F4A  99410500           [096] loadk      6   21       ; "CommFrameFull.ImageOuter.Image"
5F4E  DDC10500           [097] getglobal  7   23       ; portraitOverlayMaterial
5F52  22410002           [098] call       4   4   1  
5F56  19010600           [099] loadk      4   24       ; 0
5F5A  53018006           [100] getupval   5   13     
5F5E  6441C602           [101] self       5   5   281  ; 1717230847
5F62  62810001           [102] call       5   2   2  
5F66  9D810600           [103] getglobal  6   26       ; UISys
5F6A  8EC14603           [104] gettable   6   6   283  ; "VB_ProportionalScale"
fail op	35
5F6E  23808102           [105] close      0  
5F72  1A000980           [106] jmp        37           ; to [144]
5F76  4B010001           [107] newtable   5   2   0    ; array=2, hash=0
5F7A  93018006           [108] getupval   6   13     
5F7E  A4014703           [109] self       6   6   284  ; -203345184
5F82  A2810001           [110] call       6   2   2  
5F86  D9010600           [111] loadk      7   24       ; 0
5F8A  5B410001           [112] setlist    5   2   1    ; index 1 to 2
5F8E  93018006           [113] getupval   6   13     
5F92  A4414703           [114] self       6   6   285  ; -1827005291
5F96  12028002           [115] move       8   5      
5F9A  A2818001           [116] call       6   3   2  
5F9E  52010003           [117] move       5   6      
5FA2  8B010001           [118] newtable   6   2   0    ; array=2, hash=0
5FA6  D3018006           [119] getupval   7   13     
5FAA  E481C703           [120] self       7   7   286  ; -174729759
5FAE  E2810001           [121] call       7   2   2  
5FB2  0E42C002           [122] gettable   8   5   257  ; 0
5FB6  CD018203           [123] sub        7   7   8  
5FBA  DCC1C703           [124] div        7   7   287  ; 0
5FBE  19020600           [125] loadk      8   24       ; 0
5FC2  9B410001           [126] setlist    6   2   1    ; index 1 to 2
5FC6  52010003           [127] move       5   6      
5FCA  93018006           [128] getupval   6   13     
5FCE  A4014803           [129] self       6   6   288  ; 294769138
5FD2  12028002           [130] move       8   5      
5FD6  A2818001           [131] call       6   3   2  
5FDA  52010003           [132] move       5   6      
5FDE  18000000           [133] test       0       0    ; to [135] if true
5FE2  1A800080           [134] jmp        3            ; to [138]
5FE6  8E41C002           [135] gettable   6   5   257  ; 0
fail op	0
5FEA  00010003           [136] move       4   6      
5FEE  1A000080           [137] jmp        1            ; to [139]
5FF2  0E41C002           [138] gettable   4   5   257  ; 0
5FF6  9D410800           [139] getglobal  6   33       ; mMovie
5FFA  A4814803           [140] self       6   6   290  ; 703736394
5FFE  A2810001           [141] call       6   2   2  
6002  9C818180           [142] div        6   257 6    ; 0
6006  04810102           [143] mul        4   4   6  
600A  18400000           [144] test       0       1    ; to [146] if false
600E  1A000280           [145] jmp        9            ; to [155]
6012  9D410100           [146] getglobal  6   5        ; _T
6016  8EC14803           [147] gettable   6   6   291  ; "transmissionOverrides"
601A  98010000           [148] test       6       0    ; to [150] if true
601E  1A000D80           [149] jmp        53           ; to [203]
6022  9D410100           [150] getglobal  6   5        ; _T
6026  8EC14803           [151] gettable   6   6   291  ; "transmissionOverrides"
602A  8E014903           [152] gettable   6   6   292  ; "useAlt"
602E  98010000           [153] test       6       0    ; to [155] if true
6032  1AC00B80           [154] jmp        48           ; to [203]
6036  99410900           [155] loadk      6   37       ; "CommFrameAlt"
fail op	8
603A  88018000           [156] setupval   6   1      
603E  99810900           [157] loadk      6   38       ; 0
fail op	8
6042  88010001           [158] setupval   6   2      
6046  93010007           [159] getupval   6   14     
604A  D3018007           [160] getupval   7   15     
604E  83C10103           [161] add        6   6   7  
6052  83010103           [162] add        6   6   4  
6056  D3018006           [163] getupval   7   13     
605A  E4C1C903           [164] self       7   7   295  ; -1988775872
605E  E2810001           [165] call       7   2   2  
6062  D8010000           [166] test       7       0    ; to [168] if true
6066  1AC00080           [167] jmp        4            ; to [172]
606A  DD410800           [168] getglobal  7   33       ; mMovie
606E  E481C803           [169] self       7   7   290  ; 703736394
6072  E2810001           [170] call       7   2   2  
6076  84C10103           [171] mul        6   6   7  
607A  D3018006           [172] getupval   7   13     
607E  E401C703           [173] self       7   7   284  ; -203345184
6082  E2810001           [174] call       7   2   2  
6086  CD818103           [175] sub        7   7   6  
fail op	8
608A  C8018001           [176] setupval   7   3      
608E  D3018006           [177] getupval   7   13     
6092  E4C1C903           [178] self       7   7   295  ; -1988775872
6096  E2810001           [179] call       7   2   2  
609A  D8010000           [180] test       7       0    ; to [182] if true
609E  1A000380           [181] jmp        13           ; to [195]
60A2  D3018006           [182] getupval   7   13     
60A6  E401C703           [183] self       7   7   284  ; -203345184
60AA  E2810001           [184] call       7   2   2  
60AE  C401CA03           [185] mul        7   7   296  ; 0
60B2  1D420800           [186] getglobal  8   33       ; mMovie
60B6  24824804           [187] self       8   8   290  ; 703736394
60BA  22820001           [188] call       8   2   2  
60BE  1C028280           [189] div        8   257 8    ; 0
60C2  53028001           [190] getupval   9   3      
60C6  4DC28104           [191] sub        9   9   7  
60CA  44028204           [192] mul        9   9   8  
60CE  43428203           [193] add        9   7   9  
fail op	8
60D2  48028001           [194] setupval   9   3      
60D6  53020008           [195] getupval   9   16     
fail op	8
60DA  48028002           [196] setupval   9   5      
60DE  5D420800           [197] getglobal  9   33       ; mMovie
60E2  6442CA04           [198] self       9   9   297  ; 471456102
60E6  D3028000           [199] getupval   11  1      
60EA  19830A00           [200] loadk      12  42       ; "_x"
60EE  53038001           [201] getupval   13  3      
60F2  62428002           [202] call       9   5   1  
60F6  53020000           [203] getupval   9   0      
60FA  58420000           [204] test       9       1    ; to [206] if false
60FE  1A401780           [205] jmp        94           ; to [300]
6102  5D020100           [206] getglobal  9   4        ; 1074689893
6106  9D420100           [207] getglobal  10  5        ; _T
610A  8E824105           [208] gettable   10  10  262  ; "curTransmission"
610E  62820001           [209] call       9   2   2  
6112  58420000           [210] test       9       1    ; to [212] if false
6116  1AC01580           [211] jmp        88           ; to [300]
611A  5D420100           [212] getglobal  9   5        ; _T
611E  4E82C104           [213] gettable   9   9   262  ; "curTransmission"
6122  64C2CA04           [214] self       9   9   299  ; -796571677
6126  62820001           [215] call       9   2   2  
612A  58420000           [216] test       9       1    ; to [218] if false
612E  1AC00280           [217] jmp        12           ; to [230]
6132  5D420100           [218] getglobal  9   5        ; _T
6136  4E82C104           [219] gettable   9   9   262  ; "curTransmission"
613A  6442C304           [220] self       9   9   269  ; -983141836
613E  62820001           [221] call       9   2   2  
6142  58420000           [222] test       9       1    ; to [224] if false
6146  1A400180           [223] jmp        6            ; to [230]
614A  53028008           [224] getupval   9   17     
614E  58420000           [225] test       9       1    ; to [227] if false
6152  1A800080           [226] jmp        3            ; to [230]
6156  53020009           [227] getupval   9   18     
615A  58020000           [228] test       9       0    ; to [230] if true
615E  1A401180           [229] jmp        70           ; to [300]
6162  59020B00           [230] loadk      9   44       ; "CommFrameFull"
fail op	8
6166  48028000           [231] setupval   9   1      
616A  5D420100           [232] getglobal  9   5        ; _T
616E  4E82C104           [233] gettable   9   9   262  ; "curTransmission"
6172  6442C304           [234] self       9   9   269  ; -983141836
6176  62820001           [235] call       9   2   2  
617A  58420000           [236] test       9       1    ; to [238] if false
617E  1A000080           [237] jmp        1            ; to [239]
6182  53020009           [238] getupval   9   18     
6186  93028006           [239] getupval   10  13     
618A  A4424B05           [240] self       10  10  301  ; -2013161817
618E  13038000           [241] getupval   12  1      
6192  59830B00           [242] loadk      13  46       ; "ImageOuter"
6196  99C30B00           [243] loadk      14  47       ; "_visible"
619A  D2038004           [244] move       15  9      
619E  A2420003           [245] call       10  6   1  
61A2  58020000           [246] test       9       0    ; to [248] if true
61A6  1A800880           [247] jmp        35           ; to [283]
61AA  9D420100           [248] getglobal  10  5        ; _T
61AE  8E824105           [249] gettable   10  10  262  ; "curTransmission"
61B2  A4024305           [250] self       10  10  268  ; -485204251
61B6  A2820001           [251] call       10  2   2  
61BA  98020000           [252] test       10      0    ; to [254] if true
61BE  1A000780           [253] jmp        29           ; to [283]
61C2  9D420800           [254] getglobal  10  33       ; mMovie
61C6  A4424A05           [255] self       10  10  297  ; 471456102
61CA  13038000           [256] getupval   12  1      
61CE  59830A00           [257] loadk      13  42       ; "_x"
61D2  93038001           [258] getupval   14  3      
61D6  A2428002           [259] call       10  5   1  
61DA  9D020C00           [260] getglobal  10  48       ; -174740002
61DE  DD420800           [261] getglobal  11  33       ; mMovie
61E2  E442CC05           [262] self       11  11  305  ; 1803241227
61E6  53038000           [263] getupval   13  1      
61EA  99830C00           [264] loadk      14  50       ; ".Name"
61EE  42838306           [265] concat     13  13  14 
61F2  99C30C00           [266] loadk      14  51       ; "_width"
61F6  E2020002           [267] call       11  4   0  
61FA  A2820000           [268] call       10  0   2  
61FE  DD420800           [269] getglobal  11  33       ; mMovie
6202  E402C705           [270] self       11  11  284  ; -203345184
6206  E2820001           [271] call       11  2   2  
620A  C402CA05           [272] mul        11  11  296  ; 0
620E  04034A05           [273] mul        12  10  296  ; 0
6212  0D038305           [274] sub        12  11  12 
6216  5D430800           [275] getglobal  13  33       ; mMovie
621A  6443CB06           [276] self       13  13  301  ; -2013161817
621E  D3038000           [277] getupval   15  1      
6222  19040D00           [278] loadk      16  52       ; "Name"
6226  59840A00           [279] loadk      17  42       ; "_x"
622A  93048001           [280] getupval   18  3      
622E  8D840406           [281] sub        18  12  18 
6232  62430003           [282] call       13  6   1  
6236  5D430100           [283] getglobal  13  5        ; _T
623A  4E83C106           [284] gettable   13  13  262  ; "curTransmission"
623E  6443CD06           [285] self       13  13  309  ; 860593736
6242  62830001           [286] call       13  2   2  
fail op	35
6246  6300C606           [287] close      1  
624A  1A800280           [288] jmp        11           ; to [300]
624E  9D430800           [289] getglobal  14  33       ; mMovie
6252  A4434A07           [290] self       14  14  297  ; 471456102
6256  13048000           [291] getupval   16  1      
625A  59840A00           [292] loadk      17  42       ; "_x"
625E  92048006           [293] move       18  13     
6262  A2438002           [294] call       14  5   1  
6266  97038000           [295] loadbool   14  1   0    ; true
fail op	8
626A  88038009           [296] setupval   14  19     
626E  9303000A           [297] getupval   14  20     
6272  D7030000           [298] loadbool   15  0   0    ; false
6276  A2430001           [299] call       14  2   1  
627A  93038000           [300] getupval   14  1      
fail op	35
627E  23004007           [301] close      0  
6282  1A800080           [302] jmp        3            ; to [306]
6286  93038001           [303] getupval   14  3      
628A  8D030107           [304] sub        14  14  4  
fail op	8
628E  88038001           [305] setupval   14  3      
6292  99830D00           [306] loadk      14  54       ; 0
fail op	8
6296  8803800A           [307] setupval   14  21     
629A  99C30D00           [308] loadk      14  55       ; -102
fail op	8
629E  8803000B           [309] setupval   14  22     
62A2  9D430100           [310] getglobal  14  5        ; _T
62A6  8EC34807           [311] gettable   14  14  291  ; "transmissionOverrides"
62AA  98030000           [312] test       14      0    ; to [314] if true
62AE  1A000980           [313] jmp        37           ; to [351]
62B2  9D430100           [314] getglobal  14  5        ; _T
62B6  8EC34807           [315] gettable   14  14  291  ; "transmissionOverrides"
62BA  8E034E07           [316] gettable   14  14  312  ; "interpTime"
62BE  98030000           [317] test       14      0    ; to [319] if true
62C2  1AC00080           [318] jmp        4            ; to [323]
62C6  9D430100           [319] getglobal  14  5        ; _T
62CA  8EC34807           [320] gettable   14  14  291  ; "transmissionOverrides"
62CE  8E034E07           [321] gettable   14  14  312  ; "interpTime"
fail op	8
62D2  8803000B           [322] setupval   14  22     
62D6  9D430100           [323] getglobal  14  5        ; _T
62DA  8EC34807           [324] gettable   14  14  291  ; "transmissionOverrides"
62DE  8E434E07           [325] gettable   14  14  313  ; "scale"
62E2  98030000           [326] test       14      0    ; to [328] if true
62E6  1AC00080           [327] jmp        4            ; to [332]
62EA  9D430100           [328] getglobal  14  5        ; _T
62EE  8EC34807           [329] gettable   14  14  291  ; "transmissionOverrides"
62F2  8E434E07           [330] gettable   14  14  313  ; "scale"
fail op	8
62F6  8803800A           [331] setupval   14  21     
62FA  9D030100           [332] getglobal  14  4        ; 1074689893
62FE  DD430100           [333] getglobal  15  5        ; _T
6302  CEC3C807           [334] gettable   15  15  291  ; "transmissionOverrides"
6306  CE83CE07           [335] gettable   15  15  314  ; "Image"
630A  A2830001           [336] call       14  2   2  
630E  98430000           [337] test       14      1    ; to [339] if false
6312  1A800080           [338] jmp        3            ; to [342]
6316  9D430100           [339] getglobal  14  5        ; _T
631A  8EC34807           [340] gettable   14  14  291  ; "transmissionOverrides"
631E  4E804E07           [341] gettable   1   14  314  ; "Image"
6322  9D430100           [342] getglobal  14  5        ; _T
6326  8EC34807           [343] gettable   14  14  291  ; "transmissionOverrides"
632A  8EC34E07           [344] gettable   14  14  315  ; "ImageAspect"
632E  98030000           [345] test       14      0    ; to [347] if true
6332  1AC00080           [346] jmp        4            ; to [351]
6336  9D430100           [347] getglobal  14  5        ; _T
633A  8EC34807           [348] gettable   14  14  291  ; "transmissionOverrides"
633E  8EC34E07           [349] gettable   14  14  315  ; "ImageAspect"
fail op	8
6342  88038003           [350] setupval   14  7      
6346  9D030100           [351] getglobal  14  4        ; 1074689893
634A  D2038000           [352] move       15  1      
634E  A2830001           [353] call       14  2   2  
6352  98430000           [354] test       14      1    ; to [356] if false
6356  1AC00480           [355] jmp        20           ; to [376]
635A  93038006           [356] getupval   14  13     
635E  A4434A07           [357] self       14  14  297  ; 471456102
6362  19040F00           [358] loadk      16  60       ; "ImageFrame"
6366  59C40B00           [359] loadk      17  47       ; "_visible"
636A  97048000           [360] loadbool   18  1   0    ; true
636E  A2438002           [361] call       14  5   1  
6372  93038006           [362] getupval   14  13     
6376  A4434F07           [363] self       14  14  317  ; 643307062
637A  19840F00           [364] loadk      16  62       ; "ImageFrame.Image"
637E  52048000           [365] move       17  1      
6382  A2430002           [366] call       14  4   1  
fail op	8
6386  88008003           [367] setupval   2   7      
638A  93038006           [368] getupval   14  13     
638E  A4434A07           [369] self       14  14  297  ; 471456102
6392  19040F00           [370] loadk      16  60       ; "ImageFrame"
6396  59C40F00           [371] loadk      17  63       ; "_xscale"
639A  93048003           [372] getupval   18  7      
639E  84844D09           [373] mul        18  18  310  ; 0
63A2  A2438002           [374] call       14  5   1  
63A6  1A400180           [375] jmp        6            ; to [382]
63AA  93038006           [376] getupval   14  13     
63AE  A4434A07           [377] self       14  14  297  ; 471456102
63B2  19040F00           [378] loadk      16  60       ; "ImageFrame"
63B6  59C40B00           [379] loadk      17  47       ; "_visible"
63BA  97040000           [380] loadbool   18  0   0    ; false
63BE  A2438002           [381] call       14  5   1  
63C2  93038000           [382] getupval   14  1      
fail op	35
63C6  63004B07           [383] close      1  
63CA  1A800380           [384] jmp        15           ; to [400]
63CE  93030000           [385] getupval   14  0      
63D2  98430000           [386] test       14      1    ; to [388] if false
63D6  1AC00280           [387] jmp        12           ; to [400]
63DA  93038006           [388] getupval   14  13     
63DE  A4434A07           [389] self       14  14  297  ; 471456102
63E2  13048000           [390] getupval   16  1      
63E6  59C40F00           [391] loadk      17  63       ; "_xscale"
63EA  9304800A           [392] getupval   18  21     
63EE  A2438002           [393] call       14  5   1  
63F2  93038006           [394] getupval   14  13     
63F6  A4434A07           [395] self       14  14  297  ; 471456102
63FA  13048000           [396] getupval   16  1      
63FE  59041000           [397] loadk      17  64       ; "_yscale"
6402  9304800A           [398] getupval   18  21     
6406  A2438002           [399] call       14  5   1  
640A  9303000A           [400] getupval   14  20     
640E  D7030000           [401] loadbool   15  0   0    ; false
6412  A2430001           [402] call       14  2   1  
6416  9D430100           [403] getglobal  14  5        ; _T
641A  8C43D091           [404] settable   14  291 321  ; "transmissionOverrides" nil
641E  1E008000           [405] return     0   1      
                         * constants:
6422  42                 sizek (66)
6423  04                 const type 4
6424  0A                 string size (10)
6425  436F6D6D4672616D+  "CommFram"
642D  6500               "e\0"
                         const [0]: "CommFrame"
642F  03                 const type 3
6430  0000803F           const [1]: (0)
6434  04                 const type 4
6435  0E                 string size (14)
6436  6D416E696D617465+  "mAnimate"
643E  4D6F75746800       "Mouth\0"
                         const [2]: "mAnimateMouth"
6444  01                 const type 3
6445  01000000           const [3]: (1)
6449  01                 const type 3
644A  65770E40           const [4]: (1074689893)
644E  04                 const type 4
644F  03                 string size (3)
6450  5F5400             "_T\0"
                         const [5]: "_T"
6453  04                 const type 4
6454  10                 string size (16)
6455  6375725472616E73+  "curTrans"
645D  6D697373696F6E00   "mission\0"
                         const [6]: "curTransmission"
6465  01                 const type 3
6466  270808F2           const [7]: (-234354649)
646A  01                 const type 3
646B  A5F502D2           const [8]: (-771557979)
646F  01                 const type 3
6470  E0215CFA           const [9]: (-94625312)
6474  01                 const type 3
6475  0F865E31           const [10]: (828278287)
6479  01                 const type 3
647A  00000000           const [11]: (0)
647E  01                 const type 3
647F  E55E14E3           const [12]: (-485204251)
6483  01                 const type 3
6484  347266C5           const [13]: (-983141836)
6488  03                 const type 3
6489  0000403F           const [14]: (0)
648D  01                 const type 3
648E  64CDDEC8           const [15]: (-924922524)
6492  04                 const type 4
6493  07                 string size (7)
6494  737472696E6700     "string\0"
                         const [16]: "string"
649B  01                 const type 3
649C  64F644DE           const [17]: (-565905820)
64A0  01                 const type 3
64A1  3C2E251B           const [18]: (455421500)
64A5  04                 const type 4
64A6  06                 string size (6)
64A7  4E6174616800       "Natah\0"
                         const [19]: "Natah"
64AD  01                 const type 3
64AE  D7261F7E           const [20]: (2115970775)
64B2  04                 const type 4
64B3  1F                 string size (31)
64B4  436F6D6D4672616D+  "CommFram"
64BC  6546756C6C2E496D+  "eFull.Im"
64C4  6167654F75746572+  "ageOuter"
64CC  2E496D61676500     ".Image\0"
                         const [21]: "CommFrameFull.ImageOuter.Image"
64D3  04                 const type 4
64D4  1B                 string size (27)
64D5  706F727472616974+  "portrait"
64DD  4F7665726C61794D+  "OverlayM"
64E5  6174657269616C41+  "aterialA"
64ED  6C7400             "lt\0"
                         const [22]: "portraitOverlayMaterialAlt"
64F0  04                 const type 4
64F1  18                 string size (24)
64F2  706F727472616974+  "portrait"
64FA  4F7665726C61794D+  "OverlayM"
6502  6174657269616C00   "aterial\0"
                         const [23]: "portraitOverlayMaterial"
650A  03                 const type 3
650B  00000000           const [24]: (0)
650F  01                 const type 3
6510  FFDC5A66           const [25]: (1717230847)
6514  04                 const type 4
6515  06                 string size (6)
6516  554953797300       "UISys\0"
                         const [26]: "UISys"
651C  04                 const type 4
651D  15                 string size (21)
651E  56425F50726F706F+  "VB_Propo"
6526  7274696F6E616C53+  "rtionalS"
652E  63616C6500         "cale\0"
                         const [27]: "VB_ProportionalScale"
6533  01                 const type 3
6534  E032E1F3           const [28]: (-203345184)
6538  01                 const type 3
6539  951C1A93           const [29]: (-1827005291)
653D  01                 const type 3
653E  E1D595F5           const [30]: (-174729759)
6542  03                 const type 3
6543  00000040           const [31]: (0)
6547  01                 const type 3
6548  F2D19111           const [32]: (294769138)
654C  04                 const type 4
654D  07                 string size (7)
654E  6D4D6F76696500     "mMovie\0"
                         const [33]: "mMovie"
6555  01                 const type 3
6556  4A2AF229           const [34]: (703736394)
655A  04                 const type 4
655B  16                 string size (22)
655C  7472616E736D6973+  "transmis"
6564  73696F6E4F766572+  "sionOver"
656C  726964657300       "rides\0"
                         const [35]: "transmissionOverrides"
6572  04                 const type 4
6573  07                 string size (7)
6574  757365416C7400     "useAlt\0"
                         const [36]: "useAlt"
657B  04                 const type 4
657C  0D                 string size (13)
657D  436F6D6D4672616D+  "CommFram"
6585  65416C7400         "eAlt\0"
                         const [37]: "CommFrameAlt"
658A  03                 const type 3
658B  000080BF           const [38]: (0)
658F  01                 const type 3
6590  40B07589           const [39]: (-1988775872)
6594  03                 const type 3
6595  0000003F           const [40]: (0)
6599  01                 const type 3
659A  66D9191C           const [41]: (471456102)
659E  04                 const type 4
659F  03                 string size (3)
65A0  5F7800             "_x\0"
                         const [42]: "_x"
65A3  01                 const type 3
65A4  E34785D0           const [43]: (-796571677)
65A8  04                 const type 4
65A9  0E                 string size (14)
65AA  436F6D6D4672616D+  "CommFram"
65B2  6546756C6C00       "eFull\0"
                         const [44]: "CommFrameFull"
65B8  01                 const type 3
65B9  A7960188           const [45]: (-2013161817)
65BD  04                 const type 4
65BE  0B                 string size (11)
65BF  496D6167654F7574+  "ImageOut"
65C7  657200             "er\0"
                         const [46]: "ImageOuter"
65CA  04                 const type 4
65CB  09                 string size (9)
65CC  5F76697369626C65+  "_visible"
65D4  00                 "\0"
                         const [47]: "_visible"
65D5  01                 const type 3
65D6  DEAD95F5           const [48]: (-174740002)
65DA  01                 const type 3
65DB  0B477B6B           const [49]: (1803241227)
65DF  04                 const type 4
65E0  06                 string size (6)
65E1  2E4E616D6500       ".Name\0"
                         const [50]: ".Name"
65E7  04                 const type 4
65E8  07                 string size (7)
65E9  5F776964746800     "_width\0"
                         const [51]: "_width"
65F0  04                 const type 4
65F1  05                 string size (5)
65F2  4E616D6500         "Name\0"
                         const [52]: "Name"
65F7  01                 const type 3
65F8  489E4B33           const [53]: (860593736)
65FC  03                 const type 3
65FD  0000C842           const [54]: (0)
6601  03                 const type 3
6602  9A99993E           const [55]: (-102)
6606  04                 const type 4
6607  0B                 string size (11)
6608  696E746572705469+  "interpTi"
6610  6D6500             "me\0"
                         const [56]: "interpTime"
6613  04                 const type 4
6614  06                 string size (6)
6615  7363616C6500       "scale\0"
                         const [57]: "scale"
661B  04                 const type 4
661C  06                 string size (6)
661D  496D61676500       "Image\0"
                         const [58]: "Image"
6623  04                 const type 4
6624  0C                 string size (12)
6625  496D616765417370+  "ImageAsp"
662D  65637400           "ect\0"
                         const [59]: "ImageAspect"
6631  04                 const type 4
6632  0B                 string size (11)
6633  496D616765467261+  "ImageFra"
663B  6D6500             "me\0"
                         const [60]: "ImageFrame"
663E  01                 const type 3
663F  36165826           const [61]: (643307062)
6643  04                 const type 4
6644  11                 string size (17)
6645  496D616765467261+  "ImageFra"
664D  6D652E496D616765+  "me.Image"
6655  00                 "\0"
                         const [62]: "ImageFrame.Image"
6656  04                 const type 4
6657  08                 string size (8)
6658  5F787363616C6500   "_xscale\0"
                         const [63]: "_xscale"
6660  04                 const type 4
6661  08                 string size (8)
6662  5F797363616C6500   "_yscale\0"
                         const [64]: "_yscale"
666A  00                 const type 0
                         const [65]: nil
                         * functions:
666B  00                 sizep (0)
                         * lines:
666D  03                 sizelineinfo (405)
                         [pc] (line)
666E  46                 [001] (70)
666F  03                 [002] (70)
6670  00                 [003] (70)
6671  00                 [004] (71)
6672  46                 [005] (71)
6673  03                 [006] (74)
6674  00                 [007] (74)
6675  00                 [008] (75)
6676  46                 [009] (75)
6677  03                 [010] (76)
6678  00                 [011] (76)
6679  00                 [012] (78)
667A  47                 [013] (79)
667B  03                 [014] (80)
667C  00                 [015] (81)
667D  00                 [016] (81)
667E  47                 [017] (82)
667F  03                 [018] (82)
6680  00                 [019] (83)
6681  00                 [020] (83)
6682  4A                 [021] (83)
6683  03                 [022] (83)
6684  00                 [023] (83)
6685  00                 [024] (83)
6686  4A                 [025] (83)
6687  03                 [026] (83)
6688  00                 [027] (83)
6689  00                 [028] (84)
668A  4B                 [029] (84)
668B  03                 [030] (84)
668C  00                 [031] (84)
668D  00                 [032] (84)
668E  4B                 [033] (85)
668F  03                 [034] (85)
6690  00                 [035] (85)
6691  00                 [036] (85)
6692  4C                 [037] (85)
6693  03                 [038] (86)
6694  00                 [039] (86)
6695  00                 [040] (86)
6696  4C                 [041] (86)
6697  03                 [042] (86)
6698  00                 [043] (87)
6699  00                 [044] (87)
669A  4E                 [045] (87)
669B  03                 [046] (87)
669C  00                 [047] (87)
669D  00                 [048] (88)
669E  4F                 [049] (88)
669F  03                 [050] (88)
66A0  00                 [051] (89)
66A1  00                 [052] (89)
66A2  50                 [053] (89)
66A3  03                 [054] (89)
66A4  00                 [055] (90)
66A5  00                 [056] (90)
66A6  51                 [057] (92)
66A7  03                 [058] (92)
66A8  00                 [059] (92)
66A9  00                 [060] (92)
66AA  51                 [061] (92)
66AB  03                 [062] (96)
66AC  00                 [063] (96)
66AD  00                 [064] (96)
66AE  52                 [065] (96)
66AF  03                 [066] (96)
66B0  00                 [067] (96)
66B1  00                 [068] (97)
66B2  52                 [069] (97)
66B3  03                 [070] (97)
66B4  00                 [071] (99)
66B5  00                 [072] (99)
66B6  53                 [073] (99)
66B7  03                 [074] (99)
66B8  00                 [075] (100)
66B9  00                 [076] (100)
66BA  53                 [077] (100)
66BB  03                 [078] (100)
66BC  00                 [079] (100)
66BD  00                 [080] (100)
66BE  53                 [081] (100)
66BF  03                 [082] (100)
66C0  00                 [083] (100)
66C1  00                 [084] (100)
66C2  53                 [085] (100)
66C3  03                 [086] (100)
66C4  00                 [087] (100)
66C5  00                 [088] (101)
66C6  53                 [089] (101)
66C7  03                 [090] (101)
66C8  00                 [091] (101)
66C9  00                 [092] (101)
66CA  53                 [093] (101)
66CB  03                 [094] (103)
66CC  00                 [095] (103)
66CD  00                 [096] (103)
66CE  53                 [097] (103)
66CF  03                 [098] (103)
66D0  00                 [099] (107)
66D1  00                 [100] (108)
66D2  53                 [101] (108)
66D3  03                 [102] (108)
66D4  00                 [103] (108)
66D5  00                 [104] (108)
66D6  53                 [105] (108)
66D7  03                 [106] (108)
66D8  00                 [107] (110)
66D9  00                 [108] (110)
66DA  54                 [109] (110)
66DB  03                 [110] (110)
66DC  00                 [111] (110)
66DD  00                 [112] (110)
66DE  54                 [113] (112)
66DF  03                 [114] (112)
66E0  00                 [115] (112)
66E1  00                 [116] (112)
66E2  54                 [117] (112)
66E3  03                 [118] (114)
66E4  00                 [119] (114)
66E5  00                 [120] (114)
66E6  54                 [121] (114)
66E7  03                 [122] (114)
66E8  00                 [123] (114)
66E9  00                 [124] (114)
66EA  54                 [125] (114)
66EB  03                 [126] (114)
66EC  00                 [127] (114)
66ED  00                 [128] (116)
66EE  55                 [129] (116)
66EF  03                 [130] (116)
66F0  00                 [131] (116)
66F1  00                 [132] (116)
66F2  55                 [133] (117)
66F3  03                 [134] (117)
66F4  00                 [135] (118)
66F5  00                 [136] (118)
66F6  55                 [137] (118)
66F7  03                 [138] (120)
66F8  00                 [139] (123)
66F9  00                 [140] (123)
66FA  55                 [141] (123)
66FB  03                 [142] (123)
66FC  00                 [143] (123)
66FD  00                 [144] (126)
66FE  55                 [145] (126)
66FF  03                 [146] (126)
6700  00                 [147] (126)
6701  00                 [148] (126)
6702  56                 [149] (126)
6703  03                 [150] (126)
6704  00                 [151] (126)
6705  00                 [152] (126)
6706  56                 [153] (126)
6707  03                 [154] (126)
6708  00                 [155] (127)
6709  00                 [156] (127)
670A  56                 [157] (-128)
670B  03                 [158] (-128)
670C  00                 [159] (-127)
670D  00                 [160] (-127)
670E  56                 [161] (-127)
670F  03                 [162] (-127)
6710  00                 [163] (-126)
6711  00                 [164] (-126)
6712  56                 [165] (-126)
6713  03                 [166] (-126)
6714  00                 [167] (-126)
6715  00                 [168] (-125)
6716  57                 [169] (-125)
6717  03                 [170] (-125)
6718  00                 [171] (-125)
6719  00                 [172] (-123)
671A  57                 [173] (-123)
671B  03                 [174] (-123)
671C  00                 [175] (-123)
671D  00                 [176] (-123)
671E  57                 [177] (-122)
671F  03                 [178] (-122)
6720  00                 [179] (-122)
6721  00                 [180] (-122)
6722  57                 [181] (-122)
6723  03                 [182] (-121)
6724  00                 [183] (-121)
6725  00                 [184] (-121)
6726  57                 [185] (-121)
6727  03                 [186] (-119)
6728  00                 [187] (-119)
6729  00                 [188] (-119)
672A  58                 [189] (-119)
672B  03                 [190] (-118)
672C  00                 [191] (-118)
672D  00                 [192] (-118)
672E  58                 [193] (-118)
672F  03                 [194] (-118)
6730  00                 [195] (-115)
6731  00                 [196] (-115)
6732  58                 [197] (-114)
6733  03                 [198] (-114)
6734  00                 [199] (-114)
6735  00                 [200] (-114)
6736  59                 [201] (-114)
6737  03                 [202] (-114)
6738  00                 [203] (-111)
6739  00                 [204] (-111)
673A  59                 [205] (-111)
673B  03                 [206] (-111)
673C  00                 [207] (-111)
673D  00                 [208] (-111)
673E  59                 [209] (-111)
673F  03                 [210] (-111)
6740  00                 [211] (-111)
6741  00                 [212] (-111)
6742  59                 [213] (-111)
6743  03                 [214] (-111)
6744  00                 [215] (-111)
6745  00                 [216] (-111)
6746  5A                 [217] (-111)
6747  03                 [218] (-111)
6748  00                 [219] (-111)
6749  00                 [220] (-111)
674A  5A                 [221] (-111)
674B  03                 [222] (-111)
674C  00                 [223] (-111)
674D  00                 [224] (-111)
674E  5C                 [225] (-111)
674F  03                 [226] (-111)
6750  00                 [227] (-111)
6751  00                 [228] (-111)
6752  5C                 [229] (-111)
6753  03                 [230] (-110)
6754  00                 [231] (-110)
6755  00                 [232] (-109)
6756  5C                 [233] (-109)
6757  03                 [234] (-109)
6758  00                 [235] (-109)
6759  00                 [236] (-109)
675A  5C                 [237] (-109)
675B  03                 [238] (-109)
675C  00                 [239] (-108)
675D  00                 [240] (-108)
675E  5C                 [241] (-108)
675F  03                 [242] (-108)
6760  00                 [243] (-108)
6761  00                 [244] (-108)
6762  60                 [245] (-108)
6763  03                 [246] (-107)
6764  00                 [247] (-107)
6765  00                 [248] (-107)
6766  60                 [249] (-107)
6767  03                 [250] (-107)
6768  00                 [251] (-107)
6769  00                 [252] (-107)
676A  60                 [253] (-107)
676B  03                 [254] (-105)
676C  00                 [255] (-105)
676D  00                 [256] (-105)
676E  60                 [257] (-105)
676F  03                 [258] (-105)
6770  00                 [259] (-105)
6771  00                 [260] (-103)
6772  60                 [261] (-103)
6773  03                 [262] (-103)
6774  00                 [263] (-103)
6775  00                 [264] (-103)
6776  60                 [265] (-103)
6777  03                 [266] (-103)
6778  00                 [267] (-103)
6779  00                 [268] (-103)
677A  61                 [269] (-102)
677B  03                 [270] (-102)
677C  00                 [271] (-102)
677D  00                 [272] (-102)
677E  61                 [273] (-101)
677F  03                 [274] (-101)
6780  00                 [275] (-100)
6781  00                 [276] (-100)
6782  61                 [277] (-100)
6783  03                 [278] (-100)
6784  00                 [279] (-100)
6785  00                 [280] (-100)
6786  63                 [281] (-100)
6787  03                 [282] (-100)
6788  00                 [283] (-97)
6789  00                 [284] (-97)
678A  63                 [285] (-97)
678B  03                 [286] (-97)
678C  00                 [287] (-96)
678D  00                 [288] (-96)
678E  63                 [289] (-94)
678F  03                 [290] (-94)
6790  00                 [291] (-94)
6791  00                 [292] (-94)
6792  63                 [293] (-94)
6793  03                 [294] (-94)
6794  00                 [295] (-93)
6795  00                 [296] (-93)
6796  64                 [297] (-92)
6797  03                 [298] (-92)
6798  00                 [299] (-92)
6799  00                 [300] (-88)
679A  64                 [301] (-88)
679B  03                 [302] (-88)
679C  00                 [303] (-87)
679D  00                 [304] (-87)
679E  64                 [305] (-87)
679F  03                 [306] (-84)
67A0  00                 [307] (-84)
67A1  00                 [308] (-83)
67A2  64                 [309] (-83)
67A3  03                 [310] (-81)
67A4  00                 [311] (-81)
67A5  00                 [312] (-81)
67A6  64                 [313] (-81)
67A7  03                 [314] (-80)
67A8  00                 [315] (-80)
67A9  00                 [316] (-80)
67AA  64                 [317] (-80)
67AB  03                 [318] (-80)
67AC  00                 [319] (-79)
67AD  00                 [320] (-79)
67AE  64                 [321] (-79)
67AF  03                 [322] (-79)
67B0  00                 [323] (-77)
67B1  00                 [324] (-77)
67B2  64                 [325] (-77)
67B3  03                 [326] (-77)
67B4  00                 [327] (-77)
67B5  00                 [328] (-76)
67B6  64                 [329] (-76)
67B7  03                 [330] (-76)
67B8  00                 [331] (-76)
67B9  00                 [332] (-73)
67BA  64                 [333] (-73)
67BB  03                 [334] (-73)
67BC  00                 [335] (-73)
67BD  00                 [336] (-73)
67BE  64                 [337] (-73)
67BF  03                 [338] (-73)
67C0  00                 [339] (-72)
67C1  00                 [340] (-72)
67C2  64                 [341] (-72)
67C3  03                 [342] (-70)
67C4  00                 [343] (-70)
67C5  00                 [344] (-70)
67C6  64                 [345] (-70)
67C7  03                 [346] (-70)
67C8  00                 [347] (-69)
67C9  00                 [348] (-69)
67CA  65                 [349] (-69)
67CB  03                 [350] (-69)
67CC  00                 [351] (-65)
67CD  00                 [352] (-65)
67CE  65                 [353] (-65)
67CF  03                 [354] (-65)
67D0  00                 [355] (-65)
67D1  00                 [356] (-64)
67D2  65                 [357] (-64)
67D3  03                 [358] (-64)
67D4  00                 [359] (-64)
67D5  00                 [360] (-64)
67D6  65                 [361] (-64)
67D7  03                 [362] (-63)
67D8  00                 [363] (-63)
67D9  00                 [364] (-63)
67DA  65                 [365] (-63)
67DB  03                 [366] (-63)
67DC  00                 [367] (-62)
67DD  00                 [368] (-61)
67DE  65                 [369] (-61)
67DF  03                 [370] (-61)
67E0  00                 [371] (-61)
67E1  00                 [372] (-61)
67E2  67                 [373] (-61)
67E3  03                 [374] (-61)
67E4  00                 [375] (-61)
67E5  00                 [376] (-59)
67E6  67                 [377] (-59)
67E7  03                 [378] (-59)
67E8  00                 [379] (-59)
67E9  00                 [380] (-59)
67EA  67                 [381] (-59)
67EB  03                 [382] (-56)
67EC  00                 [383] (-56)
67ED  00                 [384] (-56)
67EE  67                 [385] (-56)
67EF  03                 [386] (-56)
67F0  00                 [387] (-56)
67F1  00                 [388] (-55)
67F2  67                 [389] (-55)
67F3  03                 [390] (-55)
67F4  00                 [391] (-55)
67F5  00                 [392] (-55)
67F6  6B                 [393] (-55)
67F7  03                 [394] (-54)
67F8  00                 [395] (-54)
67F9  00                 [396] (-54)
67FA  6C                 [397] (-54)
67FB  03                 [398] (-54)
67FC  00                 [399] (-54)
67FD  00                 [400] (-51)
67FE  6C                 [401] (-51)
67FF  03                 [402] (-51)
6800  00                 [403] (-49)
6801  00                 [404] (-49)
6802  6C                 [405] (-48)
                         * locals:
6CC2  00                 sizelocvars (0)
                         * upvalues:
6CC3  00                 sizeupvalues (0)
                         ** end of function **

                         
6CC4                     ** function [17] definition (level 2)
                         ** start of function **
6CC4  00                 string size (0)
                         source name: (none)
6CC6  07                 line defined (978)
6CC7  AF                 last line defined (1071)
6CC8  08                 nups (17)
6CC9  11                 numparams (0)
6CCA  00                 is_vararg (0)
6CCB  00                 maxstacksize (15)
                         * code:
6CCE  02                 sizecode (330)
6CCF  1D000000           [001] getglobal  0   0        ; 1074689893
6CD3  5D400000           [002] getglobal  1   1        ; _T
6CD7  4E80C000           [003] gettable   1   1   258  ; "TransmissionOverrideMovie"
6CDB  22800001           [004] call       0   2   2  
6CDF  18400000           [005] test       0       1    ; to [7] if false
6CE3  1AC00A80           [006] jmp        44           ; to [51]
6CE7  17008000           [007] loadbool   0   1   0    ; true
fail op	8
6CEB  08000000           [008] setupval   0   0      
6CEF  1D400000           [009] getglobal  0   1        ; _T
6CF3  0E804000           [010] gettable   0   0   258  ; "TransmissionOverrideMovie"
fail op	8
6CF7  08008000           [011] setupval   0   1      
6CFB  1D400000           [012] getglobal  0   1        ; _T
6CFF  0EC04000           [013] gettable   0   0   259  ; "TransmissionOverrideMainClipName"
fail op	8
6D03  08000001           [014] setupval   0   2      
6D07  1D400000           [015] getglobal  0   1        ; _T
6D0B  0E004100           [016] gettable   0   0   260  ; "TransmissionOverrideSoftMask"
fail op	8
6D0F  08008001           [017] setupval   0   3      
6D13  1D400000           [018] getglobal  0   1        ; _T
6D17  0E404100           [019] gettable   0   0   261  ; "TransmissionOverrideX"
fail op	8
6D1B  08000002           [020] setupval   0   4      
6D1F  1D400000           [021] getglobal  0   1        ; _T
6D23  0E804100           [022] gettable   0   0   262  ; "TransmissionOverrideY"
fail op	8
6D27  08008002           [023] setupval   0   5      
6D2B  13008000           [024] getupval   0   1      
6D2F  24C04100           [025] self       0   0   263  ; -2013161817
6D33  93000001           [026] getupval   2   2      
6D37  D9000200           [027] loadk      3   8        ; "ImageOuter.Image"
6D3B  19410200           [028] loadk      4   9        ; "_width"
6D3F  53010002           [029] getupval   5   4      
6D43  22400003           [030] call       0   6   1  
6D47  13008000           [031] getupval   0   1      
6D4B  24C04100           [032] self       0   0   263  ; -2013161817
6D4F  93000001           [033] getupval   2   2      
6D53  D9000200           [034] loadk      3   8        ; "ImageOuter.Image"
6D57  19810200           [035] loadk      4   10       ; "_height"
6D5B  53018002           [036] getupval   5   5      
6D5F  22400003           [037] call       0   6   1  
6D63  1DC00200           [038] getglobal  0   11       ; mMovie
6D67  24004300           [039] self       0   0   268  ; 471456102
6D6B  99400300           [040] loadk      2   13       ; "_root"
6D6F  D9800300           [041] loadk      3   14       ; "_alpha"
6D73  19C10300           [042] loadk      4   15       ; 0
6D77  22408002           [043] call       0   5   1  
6D7B  19000400           [044] loadk      0   16       ; 0
fail op	8
6D7F  08000003           [045] setupval   0   6      
6D83  1D400000           [046] getglobal  0   1        ; _T
6D87  0C404481           [047] settable   0   258 273  ; "TransmissionOverrideMovie" nil
6D8B  1D400000           [048] getglobal  0   1        ; _T
6D8F  0C404482           [049] settable   0   260 273  ; "TransmissionOverrideSoftMask" nil
6D93  1AC00080           [050] jmp        4            ; to [55]
6D97  13008003           [051] getupval   0   7      
fail op	8
6D9B  08000003           [052] setupval   0   6      
6D9F  1DC00200           [053] getglobal  0   11       ; mMovie
fail op	8
6DA3  08008000           [054] setupval   0   1      
6DA7  1D800400           [055] getglobal  0   18       ; 849075268
6DAB  59C00400           [056] loadk      1   19       ; "Lotus.Interface.Libs.DioramaLoader"
6DAF  22800001           [057] call       0   2   2  
6DB3  4E004500           [058] gettable   1   0   276  ; -1069406678
6DB7  93008000           [059] getupval   2   1      
6DBB  62800001           [060] call       1   2   2  
fail op	8
6DBF  48000004           [061] setupval   1   8      
6DC3  53000004           [062] getupval   1   8      
6DC7  4C80C58A           [063] settable   1   277 278  ; "mSyncAvatars" 0
6DCB  53000004           [064] getupval   1   8      
6DCF  4C00C68B           [065] settable   1   279 280  ; "mPortrait" 1
6DD3  53008004           [066] getupval   1   9      
6DD7  97000000           [067] loadbool   2   0   0    ; false
6DDB  62400001           [068] call       1   2   1  
6DDF  53008000           [069] getupval   1   1      
6DE3  6440C600           [070] self       1   1   281  ; -266877948
6DE7  D9C00300           [071] loadk      3   15       ; 0
6DEB  62408001           [072] call       1   3   1  
6DEF  53000000           [073] getupval   1   0      
6DF3  58000000           [074] test       1       0    ; to [76] if true
6DF7  1A000480           [075] jmp        17           ; to [93]
6DFB  5D800600           [076] getglobal  1   26       ; -174740002
6DFF  93008000           [077] getupval   2   1      
6E03  A4C04601           [078] self       2   2   283  ; 1803241227
6E07  13010001           [079] getupval   4   2      
6E0B  59010700           [080] loadk      5   28       ; "_x"
6E0F  A2000002           [081] call       2   4   0  
6E13  62800000           [082] call       1   0   2  
fail op	8
6E17  48000005           [083] setupval   1   10     
6E1B  5D800600           [084] getglobal  1   26       ; -174740002
6E1F  93008000           [085] getupval   2   1      
6E23  A4C04601           [086] self       2   2   283  ; 1803241227
6E27  13010001           [087] getupval   4   2      
6E2B  59410700           [088] loadk      5   29       ; "_y"
6E2F  A2000002           [089] call       2   4   0  
6E33  62800000           [090] call       1   0   2  
fail op	8
6E37  48008005           [091] setupval   1   11     
6E3B  1A400980           [092] jmp        38           ; to [131]
6E3F  5D800600           [093] getglobal  1   26       ; -174740002
6E43  93008000           [094] getupval   2   1      
6E47  A4C04601           [095] self       2   2   283  ; 1803241227
6E4B  19810700           [096] loadk      4   30       ; "CommFrame"
6E4F  59010700           [097] loadk      5   28       ; "_x"
6E53  A2000002           [098] call       2   4   0  
6E57  62800000           [099] call       1   0   2  
fail op	8
6E5B  48000005           [100] setupval   1   10     
6E5F  5D800600           [101] getglobal  1   26       ; -174740002
6E63  93008000           [102] getupval   2   1      
6E67  A4C04601           [103] self       2   2   283  ; 1803241227
6E6B  19810700           [104] loadk      4   30       ; "CommFrame"
6E6F  59410700           [105] loadk      5   29       ; "_y"
6E73  A2000002           [106] call       2   4   0  
6E77  62800000           [107] call       1   0   2  
6E7B  43C0C700           [108] add        1   1   287  ; 0
fail op	8
6E7F  48008005           [109] setupval   1   11     
6E83  5D800600           [110] getglobal  1   26       ; -174740002
6E87  93008000           [111] getupval   2   1      
6E8B  A4C04601           [112] self       2   2   283  ; 1803241227
6E8F  19010800           [113] loadk      4   32       ; "CommFrameAlt"
6E93  59410700           [114] loadk      5   29       ; "_y"
6E97  A2000002           [115] call       2   4   0  
6E9B  62800000           [116] call       1   0   2  
6E9F  43C0C700           [117] add        1   1   287  ; 0
fail op	8
6EA3  48000006           [118] setupval   1   12     
6EA7  5D400800           [119] getglobal  1   33       ; Engine
6EAB  4E80C800           [120] gettable   1   1   290  ; 328784635
6EAF  62808000           [121] call       1   1   2  
6EB3  58000000           [122] test       1       0    ; to [124] if true
6EB7  1A800180           [123] jmp        7            ; to [131]
6EBB  53008000           [124] getupval   1   1      
6EBF  64C0C800           [125] self       1   1   291  ; -203345184
6EC3  62800001           [126] call       1   2   2  
6EC7  93000005           [127] getupval   2   10     
6ECB  C400C900           [128] mul        3   1   292  ; -51
6ECF  83C00001           [129] add        2   2   3  
fail op	8
6ED3  88000005           [130] setupval   2   10     
6ED7  93008000           [131] getupval   2   1      
6EDB  DDC00200           [132] getglobal  3   11       ; mMovie
fail op	35
6EDF  23C00001           [133] close      0  
6EE3  1A400480           [134] jmp        18           ; to [153]
6EE7  93008000           [135] getupval   2   1      
6EEB  A4404901           [136] self       2   2   293  ; -1988775872
6EEF  A2800001           [137] call       2   2   2  
6EF3  98000000           [138] test       2       0    ; to [140] if true
6EF7  1A000380           [139] jmp        13           ; to [153]
6EFB  93008000           [140] getupval   2   1      
6EFF  A4C04801           [141] self       2   2   291  ; -203345184
6F03  A2800001           [142] call       2   2   2  
6F07  84804901           [143] mul        2   2   294  ; 0
6F0B  DDC00200           [144] getglobal  3   11       ; mMovie
6F0F  E4C0C901           [145] self       3   3   295  ; 703736394
6F13  E2800001           [146] call       3   2   2  
6F17  DCC00094           [147] div        3   296 3    ; 0
6F1B  13010005           [148] getupval   4   10     
6F1F  0D810002           [149] sub        4   4   2  
6F23  04C10002           [150] mul        4   4   3  
6F27  03010101           [151] add        4   2   4  
fail op	8
6F2B  08010005           [152] setupval   4   10     
6F2F  0B010000           [153] newtable   4   0   0    ; array=0, hash=0
6F33  53010000           [154] getupval   5   0      
6F37  58010000           [155] test       5       0    ; to [157] if true
6F3B  1A000180           [156] jmp        5            ; to [162]
6F3F  4B018000           [157] newtable   5   1   0    ; array=1, hash=0
6F43  93010001           [158] getupval   6   2      
6F47  5B418000           [159] setlist    5   1   1    ; index 1 to 1
6F4B  12018002           [160] move       4   5      
6F4F  1A400180           [161] jmp        6            ; to [168]
6F53  4B018001           [162] newtable   5   3   0    ; array=3, hash=0
6F57  99810700           [163] loadk      6   30       ; "CommFrame"
6F5B  D9010800           [164] loadk      7   32       ; "CommFrameAlt"
6F5F  19420A00           [165] loadk      8   41       ; "CommFrameFull"
6F63  5B418001           [166] setlist    5   3   1    ; index 1 to 3
6F67  12018002           [167] move       4   5      
6F6B  59010A00           [168] loadk      5   40       ; 0
6F6F  8A010002           [169] len        6   4      
6F73  D9010A00           [170] loadk      7   40       ; 0
6F77  50811480           [171] forprep    5   83       ; to [255]
6F7B  4E020202           [172] gettable   9   4   8  
fail op	8
6F7F  48020001           [173] setupval   9   2      
6F83  53028000           [174] getupval   9   1      
6F87  6402C304           [175] self       9   9   268  ; 471456102
6F8B  D3020001           [176] getupval   11  2      
6F8F  19830300           [177] loadk      12  14       ; "_alpha"
6F93  59C30300           [178] loadk      13  15       ; 0
6F97  62428002           [179] call       9   5   1  
6F9B  53028000           [180] getupval   9   1      
6F9F  64C2C104           [181] self       9   9   263  ; -2013161817
6FA3  D3020001           [182] getupval   11  2      
6FA7  19830A00           [183] loadk      12  42       ; "Message"
6FAB  59C30A00           [184] loadk      13  43       ; "_visible"
6FAF  97030000           [185] loadbool   14  0   0    ; false
6FB3  62420003           [186] call       9   6   1  
6FB7  53028000           [187] getupval   9   1      
6FBB  64C2C104           [188] self       9   9   263  ; -2013161817
6FBF  D3020001           [189] getupval   11  2      
6FC3  19030B00           [190] loadk      12  44       ; "Waveform"
6FC7  59C30A00           [191] loadk      13  43       ; "_visible"
6FCB  97030000           [192] loadbool   14  0   0    ; false
6FCF  62420003           [193] call       9   6   1  
6FD3  53028000           [194] getupval   9   1      
6FD7  64C2C104           [195] self       9   9   263  ; -2013161817
6FDB  D3020001           [196] getupval   11  2      
6FDF  19830A00           [197] loadk      12  42       ; "Message"
6FE3  59430B00           [198] loadk      13  45       ; "text"
6FE7  99830B00           [199] loadk      14  46       ; ""
6FEB  62420003           [200] call       9   6   1  
6FEF  53028000           [201] getupval   9   1      
6FF3  64C2C104           [202] self       9   9   263  ; -2013161817
6FF7  D3020001           [203] getupval   11  2      
6FFB  19C30B00           [204] loadk      12  47       ; "Name"
6FFF  59430B00           [205] loadk      13  45       ; "text"
7003  99830B00           [206] loadk      14  46       ; ""
7007  62420003           [207] call       9   6   1  
700B  53020000           [208] getupval   9   0      
700F  58020000           [209] test       9       0    ; to [211] if true
7013  1AC00380           [210] jmp        16           ; to [227]
7017  5D420000           [211] getglobal  9   1        ; _T
701B  4EC2C004           [212] gettable   9   9   259  ; "TransmissionOverrideMainClipName"
fail op	35
701F  6300CC04           [213] close      1  
7023  1AC00280           [214] jmp        12           ; to [227]
7027  5D420000           [215] getglobal  9   1        ; _T
702B  4E42CC04           [216] gettable   9   9   305  ; "TransmissionMaskedMaterial"
702F  58420000           [217] test       9       1    ; to [219] if false
7033  1AC00180           [218] jmp        8            ; to [227]
7037  53028000           [219] getupval   9   1      
703B  6482CC04           [220] self       9   9   306  ; 2115970775
703F  D3020001           [221] getupval   11  2      
7043  19C30C00           [222] loadk      12  51       ; ".ImageOuter.Image"
7047  C2028305           [223] concat     11  11  12 
704B  1D030D00           [224] getglobal  12  52       ; portraitMaterial
704F  62420002           [225] call       9   4   1  
7053  1A400480           [226] jmp        18           ; to [245]
7057  53028001           [227] getupval   9   3      
705B  58020000           [228] test       9       0    ; to [230] if true
705F  1AC00180           [229] jmp        8            ; to [238]
7063  53028000           [230] getupval   9   1      
7067  6482CC04           [231] self       9   9   306  ; 2115970775
706B  D3020001           [232] getupval   11  2      
706F  19C30C00           [233] loadk      12  51       ; ".ImageOuter.Image"
7073  C2028305           [234] concat     11  11  12 
7077  1D430D00           [235] getglobal  12  53       ; portraitSoftMaskedMaterial
707B  62420002           [236] call       9   4   1  
707F  1A800180           [237] jmp        7            ; to [245]
7083  53028000           [238] getupval   9   1      
7087  6482CC04           [239] self       9   9   306  ; 2115970775
708B  D3020001           [240] getupval   11  2      
708F  19C30C00           [241] loadk      12  51       ; ".ImageOuter.Image"
7093  C2028305           [242] concat     11  11  12 
7097  1D830D00           [243] getglobal  12  54       ; portraitMaskedMaterial
709B  62420002           [244] call       9   4   1  
709F  5D820600           [245] getglobal  9   26       ; -174740002
70A3  93028000           [246] getupval   10  1      
70A7  A4C24605           [247] self       10  10  283  ; 1803241227
70AB  13030001           [248] getupval   12  2      
70AF  59C30D00           [249] loadk      13  55       ; ".Name"
70B3  02430306           [250] concat     12  12  13 
70B7  59430700           [251] loadk      13  29       ; "_y"
70BB  A2020002           [252] call       10  4   0  
70BF  62820000           [253] call       9   0   2  
fail op	8
70C3  48028006           [254] setupval   9   13     
70C7  54C1EA7F           [255] forloop    5   -84      ; to [172] if loop
70CB  53028000           [256] getupval   9   1      
70CF  6482CC04           [257] self       9   9   306  ; 2115970775
70D3  D9020E00           [258] loadk      11  56       ; "CommFrameFull.ImageOuter.Image"
70D7  1D430E00           [259] getglobal  12  57       ; portraitOverlayMaterial
70DB  62420002           [260] call       9   4   1  
70DF  53028000           [261] getupval   9   1      
70E3  6402C304           [262] self       9   9   268  ; 471456102
70E7  D9820E00           [263] loadk      11  58       ; "CommFrameFull.ImageOuter"
70EB  19030700           [264] loadk      12  28       ; "_x"
70EF  59C30300           [265] loadk      13  15       ; 0
70F3  62428002           [266] call       9   5   1  
70F7  53028000           [267] getupval   9   1      
70FB  6402C304           [268] self       9   9   268  ; 471456102
70FF  D9C20E00           [269] loadk      11  59       ; "ImageFrame"
7103  19830300           [270] loadk      12  14       ; "_alpha"
7107  59C30300           [271] loadk      13  15       ; 0
710B  62428002           [272] call       9   5   1  
710F  53028000           [273] getupval   9   1      
7113  6482CC04           [274] self       9   9   306  ; 2115970775
7117  D9020F00           [275] loadk      11  60       ; "ImageFrame.Image"
711B  1D430F00           [276] getglobal  12  61       ; imageMaterial
711F  62420002           [277] call       9   4   1  
7123  53020000           [278] getupval   9   0      
7127  58020000           [279] test       9       0    ; to [281] if true
712B  1AC00280           [280] jmp        12           ; to [293]
712F  5D820600           [281] getglobal  9   26       ; -174740002
7133  93028000           [282] getupval   10  1      
7137  A4C24605           [283] self       10  10  283  ; 1803241227
713B  13030001           [284] getupval   12  2      
713F  59030700           [285] loadk      13  28       ; "_x"
7143  A2020002           [286] call       10  4   0  
7147  62820000           [287] call       9   0   2  
714B  93028007           [288] getupval   10  15     
714F  84820288           [289] mul        10  272 10   ; 0
7153  43828204           [290] add        9   9   10 
fail op	8
7157  48020007           [291] setupval   9   14     
715B  1A800280           [292] jmp        11           ; to [304]
715F  5D820600           [293] getglobal  9   26       ; -174740002
7163  93028000           [294] getupval   10  1      
7167  A4C24605           [295] self       10  10  283  ; 1803241227
716B  19C30E00           [296] loadk      12  59       ; "ImageFrame"
716F  59030700           [297] loadk      13  28       ; "_x"
7173  A2020002           [298] call       10  4   0  
7177  62820000           [299] call       9   0   2  
717B  93028007           [300] getupval   10  15     
717F  84820288           [301] mul        10  272 10   ; 0
7183  43828204           [302] add        9   9   10 
fail op	8
7187  48020007           [303] setupval   9   14     
718B  53028000           [304] getupval   9   1      
718F  6402C304           [305] self       9   9   268  ; 471456102
7193  D9820F00           [306] loadk      11  62       ; "CommFrameAlt.Name"
7197  19C30F00           [307] loadk      12  63       ; "textAlign"
719B  59031000           [308] loadk      13  64       ; "right"
719F  62428002           [309] call       9   5   1  
71A3  5D420800           [310] getglobal  9   33       ; Engine
71A7  4E82C804           [311] gettable   9   9   290  ; 328784635
71AB  62828000           [312] call       9   1   2  
71AF  58420000           [313] test       9       1    ; to [315] if false
71B3  1A800380           [314] jmp        15           ; to [330]
71B7  5D020000           [315] getglobal  9   0        ; 1074689893
71BB  9D421000           [316] getglobal  10  65       ; gChallengeMgr
71BF  62820001           [317] call       9   2   2  
71C3  58420000           [318] test       9       1    ; to [320] if false
71C7  1A400280           [319] jmp        10           ; to [330]
71CB  5D421000           [320] getglobal  9   65       ; gChallengeMgr
71CF  6482D004           [321] self       9   9   322  ; -1957065004
71D3  DDC21000           [322] getglobal  11  67       ; gLotusChallengeMgrType
71D7  62828001           [323] call       9   3   2  
71DB  58020000           [324] test       9       0    ; to [326] if true
71DF  1AC00080           [325] jmp        4            ; to [330]
71E3  5D421000           [326] getglobal  9   65       ; gChallengeMgr
71E7  6402D104           [327] self       9   9   324  ; -287164558
71EB  62820001           [328] call       9   2   2  
fail op	8
71EF  48020008           [329] setupval   9   16     
71F3  1E008000           [330] return     0   1      
                         * constants:
71F7  45                 sizek (69)
71F8  01                 const type 3
71F9  65770E40           const [0]: (1074689893)
71FD  04                 const type 4
71FE  03                 string size (3)
71FF  5F5400             "_T\0"
                         const [1]: "_T"
7202  04                 const type 4
7203  1A                 string size (26)
7204  5472616E736D6973+  "Transmis"
720C  73696F6E4F766572+  "sionOver"
7214  726964654D6F7669+  "rideMovi"
721C  6500               "e\0"
                         const [2]: "TransmissionOverrideMovie"
721E  04                 const type 4
721F  21                 string size (33)
7220  5472616E736D6973+  "Transmis"
7228  73696F6E4F766572+  "sionOver"
7230  726964654D61696E+  "rideMain"
7238  436C69704E616D65+  "ClipName"
7240  00                 "\0"
                         const [3]: "TransmissionOverrideMainClipName"
7241  04                 const type 4
7242  1D                 string size (29)
7243  5472616E736D6973+  "Transmis"
724B  73696F6E4F766572+  "sionOver"
7253  72696465536F6674+  "rideSoft"
725B  4D61736B00         "Mask\0"
                         const [4]: "TransmissionOverrideSoftMask"
7260  04                 const type 4
7261  16                 string size (22)
7262  5472616E736D6973+  "Transmis"
726A  73696F6E4F766572+  "sionOver"
7272  726964655800       "rideX\0"
                         const [5]: "TransmissionOverrideX"
7278  04                 const type 4
7279  16                 string size (22)
727A  5472616E736D6973+  "Transmis"
7282  73696F6E4F766572+  "sionOver"
728A  726964655900       "rideY\0"
                         const [6]: "TransmissionOverrideY"
7290  01                 const type 3
7291  A7960188           const [7]: (-2013161817)
7295  04                 const type 4
7296  11                 string size (17)
7297  496D6167654F7574+  "ImageOut"
729F  65722E496D616765+  "er.Image"
72A7  00                 "\0"
                         const [8]: "ImageOuter.Image"
72A8  04                 const type 4
72A9  07                 string size (7)
72AA  5F776964746800     "_width\0"
                         const [9]: "_width"
72B1  04                 const type 4
72B2  08                 string size (8)
72B3  5F68656967687400   "_height\0"
                         const [10]: "_height"
72BB  04                 const type 4
72BC  07                 string size (7)
72BD  6D4D6F76696500     "mMovie\0"
                         const [11]: "mMovie"
72C4  01                 const type 3
72C5  66D9191C           const [12]: (471456102)
72C9  04                 const type 4
72CA  06                 string size (6)
72CB  5F726F6F7400       "_root\0"
                         const [13]: "_root"
72D1  04                 const type 4
72D2  07                 string size (7)
72D3  5F616C70686100     "_alpha\0"
                         const [14]: "_alpha"
72DA  03                 const type 3
72DB  00000000           const [15]: (0)
72DF  03                 const type 3
72E0  0000C842           const [16]: (0)
72E4  00                 const type 0
                         const [17]: nil
72E5  01                 const type 3
72E6  44DC9B32           const [18]: (849075268)
72EA  04                 const type 4
72EB  23                 string size (35)
72EC  4C6F7475732E496E+  "Lotus.In"
72F4  746572666163652E+  "terface."
72FC  4C6962732E44696F+  "Libs.Dio"
7304  72616D614C6F6164+  "ramaLoad"
730C  657200             "er\0"
                         const [19]: "Lotus.Interface.Libs.DioramaLoader"
730F  01                 const type 3
7310  2A2642C0           const [20]: (-1069406678)
7314  04                 const type 4
7315  0D                 string size (13)
7316  6D53796E63417661+  "mSyncAva"
731E  7461727300         "tars\0"
                         const [21]: "mSyncAvatars"
7323  01                 const type 3
7324  00000000           const [22]: (0)
7328  04                 const type 4
7329  0A                 string size (10)
732A  6D506F7274726169+  "mPortrai"
7332  7400               "t\0"
                         const [23]: "mPortrait"
7334  01                 const type 3
7335  01000000           const [24]: (1)
7339  01                 const type 3
733A  04C417F0           const [25]: (-266877948)
733E  01                 const type 3
733F  DEAD95F5           const [26]: (-174740002)
7343  01                 const type 3
7344  0B477B6B           const [27]: (1803241227)
7348  04                 const type 4
7349  03                 string size (3)
734A  5F7800             "_x\0"
                         const [28]: "_x"
734D  04                 const type 4
734E  03                 string size (3)
734F  5F7900             "_y\0"
                         const [29]: "_y"
7352  04                 const type 4
7353  0A                 string size (10)
7354  436F6D6D4672616D+  "CommFram"
735C  6500               "e\0"
                         const [30]: "CommFrame"
735E  03                 const type 3
735F  00002042           const [31]: (0)
7363  04                 const type 4
7364  0D                 string size (13)
7365  436F6D6D4672616D+  "CommFram"
736D  65416C7400         "eAlt\0"
                         const [32]: "CommFrameAlt"
7372  04                 const type 4
7373  07                 string size (7)
7374  456E67696E6500     "Engine\0"
                         const [33]: "Engine"
737B  01                 const type 3
737C  FBDA9813           const [34]: (328784635)
7380  01                 const type 3
7381  E032E1F3           const [35]: (-203345184)
7385  03                 const type 3
7386  CDCC4C3D           const [36]: (-51)
738A  01                 const type 3
738B  40B07589           const [37]: (-1988775872)
738F  03                 const type 3
7390  0000003F           const [38]: (0)
7394  01                 const type 3
7395  4A2AF229           const [39]: (703736394)
7399  03                 const type 3
739A  0000803F           const [40]: (0)
739E  04                 const type 4
739F  0E                 string size (14)
73A0  436F6D6D4672616D+  "CommFram"
73A8  6546756C6C00       "eFull\0"
                         const [41]: "CommFrameFull"
73AE  04                 const type 4
73AF  08                 string size (8)
73B0  4D65737361676500   "Message\0"
                         const [42]: "Message"
73B8  04                 const type 4
73B9  09                 string size (9)
73BA  5F76697369626C65+  "_visible"
73C2  00                 "\0"
                         const [43]: "_visible"
73C3  04                 const type 4
73C4  09                 string size (9)
73C5  57617665666F726D+  "Waveform"
73CD  00                 "\0"
                         const [44]: "Waveform"
73CE  04                 const type 4
73CF  05                 string size (5)
73D0  7465787400         "text\0"
                         const [45]: "text"
73D5  04                 const type 4
73D6  01                 string size (0)
                         const [46]: ""
73D8  04                 const type 4
73D9  05                 string size (5)
73DA  4E616D6500         "Name\0"
                         const [47]: "Name"
73DF  04                 const type 4
73E0  12                 string size (18)
73E1  5472616E736D6973+  "Transmis"
73E9  73696F6E4672616D+  "sionFram"
73F1  6500               "e\0"
                         const [48]: "TransmissionFrame"
73F3  04                 const type 4
73F4  1B                 string size (27)
73F5  5472616E736D6973+  "Transmis"
73FD  73696F6E4D61736B+  "sionMask"
7405  65644D6174657269+  "edMateri"
740D  616C00             "al\0"
                         const [49]: "TransmissionMaskedMaterial"
7410  01                 const type 3
7411  D7261F7E           const [50]: (2115970775)
7415  04                 const type 4
7416  12                 string size (18)
7417  2E496D6167654F75+  ".ImageOu"
741F  7465722E496D6167+  "ter.Imag"
7427  6500               "e\0"
                         const [51]: ".ImageOuter.Image"
7429  04                 const type 4
742A  11                 string size (17)
742B  706F727472616974+  "portrait"
7433  4D6174657269616C+  "Material"
743B  00                 "\0"
                         const [52]: "portraitMaterial"
743C  04                 const type 4
743D  1B                 string size (27)
743E  706F727472616974+  "portrait"
7446  536F66744D61736B+  "SoftMask"
744E  65644D6174657269+  "edMateri"
7456  616C00             "al\0"
                         const [53]: "portraitSoftMaskedMaterial"
7459  04                 const type 4
745A  17                 string size (23)
745B  706F727472616974+  "portrait"
7463  4D61736B65644D61+  "MaskedMa"
746B  74657269616C00     "terial\0"
                         const [54]: "portraitMaskedMaterial"
7472  04                 const type 4
7473  06                 string size (6)
7474  2E4E616D6500       ".Name\0"
                         const [55]: ".Name"
747A  04                 const type 4
747B  1F                 string size (31)
747C  436F6D6D4672616D+  "CommFram"
7484  6546756C6C2E496D+  "eFull.Im"
748C  6167654F75746572+  "ageOuter"
7494  2E496D61676500     ".Image\0"
                         const [56]: "CommFrameFull.ImageOuter.Image"
749B  04                 const type 4
749C  18                 string size (24)
749D  706F727472616974+  "portrait"
74A5  4F7665726C61794D+  "OverlayM"
74AD  6174657269616C00   "aterial\0"
                         const [57]: "portraitOverlayMaterial"
74B5  04                 const type 4
74B6  19                 string size (25)
74B7  436F6D6D4672616D+  "CommFram"
74BF  6546756C6C2E496D+  "eFull.Im"
74C7  6167654F75746572+  "ageOuter"
74CF  00                 "\0"
                         const [58]: "CommFrameFull.ImageOuter"
74D0  04                 const type 4
74D1  0B                 string size (11)
74D2  496D616765467261+  "ImageFra"
74DA  6D6500             "me\0"
                         const [59]: "ImageFrame"
74DD  04                 const type 4
74DE  11                 string size (17)
74DF  496D616765467261+  "ImageFra"
74E7  6D652E496D616765+  "me.Image"
74EF  00                 "\0"
                         const [60]: "ImageFrame.Image"
74F0  04                 const type 4
74F1  0E                 string size (14)
74F2  696D6167654D6174+  "imageMat"
74FA  657269616C00       "erial\0"
                         const [61]: "imageMaterial"
7500  04                 const type 4
7501  12                 string size (18)
7502  436F6D6D4672616D+  "CommFram"
750A  65416C742E4E616D+  "eAlt.Nam"
7512  6500               "e\0"
                         const [62]: "CommFrameAlt.Name"
7514  04                 const type 4
7515  0A                 string size (10)
7516  74657874416C6967+  "textAlig"
751E  6E00               "n\0"
                         const [63]: "textAlign"
7520  04                 const type 4
7521  06                 string size (6)
7522  726967687400       "right\0"
                         const [64]: "right"
7528  04                 const type 4
7529  0E                 string size (14)
752A  674368616C6C656E+  "gChallen"
7532  67654D677200       "geMgr\0"
                         const [65]: "gChallengeMgr"
7538  01                 const type 3
7539  D48E598B           const [66]: (-1957065004)
753D  04                 const type 4
753E  17                 string size (23)
753F  674C6F7475734368+  "gLotusCh"
7547  616C6C656E67654D+  "allengeM"
754F  67725479706500     "grType\0"
                         const [67]: "gLotusChallengeMgrType"
7556  01                 const type 3
7557  7237E2EE           const [68]: (-287164558)
                         * functions:
755B  00                 sizep (0)
                         * lines:
755D  02                 sizelineinfo (330)
                         [pc] (line)
755E  D3                 [001] (-45)
755F  03                 [002] (-45)
7560  00                 [003] (-45)
7561  00                 [004] (-45)
7562  D3                 [005] (-45)
7563  03                 [006] (-45)
7564  00                 [007] (-44)
7565  00                 [008] (-44)
7566  D3                 [009] (-43)
7567  03                 [010] (-43)
7568  00                 [011] (-43)
7569  00                 [012] (-42)
756A  D3                 [013] (-42)
756B  03                 [014] (-42)
756C  00                 [015] (-41)
756D  00                 [016] (-41)
756E  D3                 [017] (-41)
756F  03                 [018] (-39)
7570  00                 [019] (-39)
7571  00                 [020] (-39)
7572  D3                 [021] (-38)
7573  03                 [022] (-38)
7574  00                 [023] (-38)
7575  00                 [024] (-36)
7576  D4                 [025] (-36)
7577  03                 [026] (-36)
7578  00                 [027] (-36)
7579  00                 [028] (-36)
757A  D4                 [029] (-36)
757B  03                 [030] (-36)
757C  00                 [031] (-35)
757D  00                 [032] (-35)
757E  D5                 [033] (-35)
757F  03                 [034] (-35)
7580  00                 [035] (-35)
7581  00                 [036] (-35)
7582  D5                 [037] (-35)
7583  03                 [038] (-33)
7584  00                 [039] (-33)
7585  00                 [040] (-33)
7586  D5                 [041] (-33)
7587  03                 [042] (-33)
7588  00                 [043] (-33)
7589  00                 [044] (-32)
758A  D6                 [045] (-32)
758B  03                 [046] (-31)
758C  00                 [047] (-31)
758D  00                 [048] (-30)
758E  D6                 [049] (-30)
758F  03                 [050] (-30)
7590  00                 [051] (-28)
7591  00                 [052] (-28)
7592  D6                 [053] (-27)
7593  03                 [054] (-27)
7594  00                 [055] (-25)
7595  00                 [056] (-25)
7596  D7                 [057] (-25)
7597  03                 [058] (-24)
7598  00                 [059] (-24)
7599  00                 [060] (-24)
759A  D7                 [061] (-24)
759B  03                 [062] (-23)
759C  00                 [063] (-23)
759D  00                 [064] (-22)
759E  D7                 [065] (-22)
759F  03                 [066] (-20)
75A0  00                 [067] (-20)
75A1  00                 [068] (-20)
75A2  D9                 [069] (-19)
75A3  03                 [070] (-19)
75A4  00                 [071] (-19)
75A5  00                 [072] (-19)
75A6  D9                 [073] (-17)
75A7  03                 [074] (-17)
75A8  00                 [075] (-17)
75A9  00                 [076] (-16)
75AA  D9                 [077] (-16)
75AB  03                 [078] (-16)
75AC  00                 [079] (-16)
75AD  00                 [080] (-16)
75AE  DA                 [081] (-16)
75AF  03                 [082] (-16)
75B0  00                 [083] (-16)
75B1  00                 [084] (-15)
75B2  DA                 [085] (-15)
75B3  03                 [086] (-15)
75B4  00                 [087] (-15)
75B5  00                 [088] (-15)
75B6  DA                 [089] (-15)
75B7  03                 [090] (-15)
75B8  00                 [091] (-15)
75B9  00                 [092] (-15)
75BA  DC                 [093] (-13)
75BB  03                 [094] (-13)
75BC  00                 [095] (-13)
75BD  00                 [096] (-13)
75BE  DC                 [097] (-13)
75BF  03                 [098] (-13)
75C0  00                 [099] (-13)
75C1  00                 [100] (-13)
75C2  DC                 [101] (-12)
75C3  03                 [102] (-12)
75C4  00                 [103] (-12)
75C5  00                 [104] (-12)
75C6  DC                 [105] (-12)
75C7  03                 [106] (-12)
75C8  00                 [107] (-12)
75C9  00                 [108] (-12)
75CA  DC                 [109] (-12)
75CB  03                 [110] (-10)
75CC  00                 [111] (-10)
75CD  00                 [112] (-10)
75CE  DC                 [113] (-10)
75CF  03                 [114] (-10)
75D0  00                 [115] (-10)
75D1  00                 [116] (-10)
75D2  DC                 [117] (-10)
75D3  03                 [118] (-10)
75D4  00                 [119] (-8)
75D5  00                 [120] (-8)
75D6  DD                 [121] (-8)
75D7  03                 [122] (-8)
75D8  00                 [123] (-8)
75D9  00                 [124] (-7)
75DA  DD                 [125] (-7)
75DB  03                 [126] (-7)
75DC  00                 [127] (-6)
75DD  00                 [128] (-6)
75DE  DD                 [129] (-6)
75DF  03                 [130] (-6)
75E0  00                 [131] (-2)
75E1  00                 [132] (-2)
75E2  DD                 [133] (-2)
75E3  03                 [134] (-2)
75E4  00                 [135] (-2)
75E5  00                 [136] (-2)
75E6  DD                 [137] (-2)
75E7  03                 [138] (-2)
75E8  00                 [139] (-2)
75E9  00                 [140] (-1)
75EA  DD                 [141] (-1)
75EB  03                 [142] (-1)
75EC  00                 [143] (-1)
75ED  00                 [144] (1)
75EE  DD                 [145] (1)
75EF  03                 [146] (1)
75F0  00                 [147] (1)
75F1  00                 [148] (2)
75F2  DF                 [149] (2)
75F3  03                 [150] (2)
75F4  00                 [151] (2)
75F5  00                 [152] (2)
75F6  DF                 [153] (5)
75F7  03                 [154] (6)
75F8  00                 [155] (6)
75F9  00                 [156] (6)
75FA  DF                 [157] (7)
75FB  03                 [158] (7)
75FC  00                 [159] (7)
75FD  00                 [160] (7)
75FE  DF                 [161] (7)
75FF  03                 [162] (9)
7600  00                 [163] (9)
7601  00                 [164] (9)
7602  DF                 [165] (9)
7603  03                 [166] (9)
7604  00                 [167] (9)
7605  00                 [168] (12)
7606  DF                 [169] (12)
7607  03                 [170] (12)
7608  00                 [171] (12)
7609  00                 [172] (13)
760A  E0                 [173] (13)
760B  03                 [174] (15)
760C  00                 [175] (15)
760D  00                 [176] (15)
760E  E0                 [177] (15)
760F  03                 [178] (15)
7610  00                 [179] (15)
7611  00                 [180] (16)
7612  E1                 [181] (16)
7613  03                 [182] (16)
7614  00                 [183] (16)
7615  00                 [184] (16)
7616  E1                 [185] (16)
7617  03                 [186] (16)
7618  00                 [187] (17)
7619  00                 [188] (17)
761A  E2                 [189] (17)
761B  03                 [190] (17)
761C  00                 [191] (17)
761D  00                 [192] (17)
761E  E2                 [193] (17)
761F  03                 [194] (18)
7620  00                 [195] (18)
7621  00                 [196] (18)
7622  E2                 [197] (18)
7623  03                 [198] (18)
7624  00                 [199] (18)
7625  00                 [200] (18)
7626  E4                 [201] (19)
7627  03                 [202] (19)
7628  00                 [203] (19)
7629  00                 [204] (19)
762A  E4                 [205] (19)
762B  03                 [206] (19)
762C  00                 [207] (19)
762D  00                 [208] (20)
762E  E5                 [209] (20)
762F  03                 [210] (20)
7630  00                 [211] (20)
7631  00                 [212] (20)
7632  E5                 [213] (20)
7633  03                 [214] (20)
7634  00                 [215] (20)
7635  00                 [216] (20)
7636  E7                 [217] (20)
7637  03                 [218] (20)
7638  00                 [219] (21)
7639  00                 [220] (21)
763A  E7                 [221] (21)
763B  03                 [222] (21)
763C  00                 [223] (21)
763D  00                 [224] (21)
763E  E7                 [225] (21)
763F  03                 [226] (21)
7640  00                 [227] (22)
7641  00                 [228] (22)
7642  E8                 [229] (22)
7643  03                 [230] (23)
7644  00                 [231] (23)
7645  00                 [232] (23)
7646  E8                 [233] (23)
7647  03                 [234] (23)
7648  00                 [235] (23)
7649  00                 [236] (23)
764A  E8                 [237] (23)
764B  03                 [238] (25)
764C  00                 [239] (25)
764D  00                 [240] (25)
764E  E8                 [241] (25)
764F  03                 [242] (25)
7650  00                 [243] (25)
7651  00                 [244] (25)
7652  E9                 [245] (27)
7653  03                 [246] (27)
7654  00                 [247] (27)
7655  00                 [248] (27)
7656  E9                 [249] (27)
7657  03                 [250] (27)
7658  00                 [251] (27)
7659  00                 [252] (27)
765A  EA                 [253] (27)
765B  03                 [254] (27)
765C  00                 [255] (12)
765D  00                 [256] (30)
765E  EA                 [257] (30)
765F  03                 [258] (30)
7660  00                 [259] (30)
7661  00                 [260] (30)
7662  EC                 [261] (31)
7663  03                 [262] (31)
7664  00                 [263] (31)
7665  00                 [264] (31)
7666  EC                 [265] (31)
7667  03                 [266] (31)
7668  00                 [267] (33)
7669  00                 [268] (33)
766A  EC                 [269] (33)
766B  03                 [270] (33)
766C  00                 [271] (33)
766D  00                 [272] (33)
766E  ED                 [273] (34)
766F  03                 [274] (34)
7670  00                 [275] (34)
7671  00                 [276] (34)
7672  ED                 [277] (34)
7673  03                 [278] (36)
7674  00                 [279] (36)
7675  00                 [280] (36)
7676  ED                 [281] (37)
7677  03                 [282] (37)
7678  00                 [283] (37)
7679  00                 [284] (37)
767A  ED                 [285] (37)
767B  03                 [286] (37)
767C  00                 [287] (37)
767D  00                 [288] (37)
767E  EF                 [289] (37)
767F  03                 [290] (37)
7680  00                 [291] (37)
7681  00                 [292] (37)
7682  EF                 [293] (39)
7683  03                 [294] (39)
7684  00                 [295] (39)
7685  00                 [296] (39)
7686  EF                 [297] (39)
7687  03                 [298] (39)
7688  00                 [299] (39)
7689  00                 [300] (39)
768A  F0                 [301] (39)
768B  03                 [302] (39)
768C  00                 [303] (39)
768D  00                 [304] (42)
768E  F0                 [305] (42)
768F  03                 [306] (42)
7690  00                 [307] (42)
7691  00                 [308] (42)
7692  F0                 [309] (42)
7693  03                 [310] (44)
7694  00                 [311] (44)
7695  00                 [312] (44)
7696  F0                 [313] (44)
7697  03                 [314] (44)
7698  00                 [315] (44)
7699  00                 [316] (44)
769A  F0                 [317] (44)
769B  03                 [318] (44)
769C  00                 [319] (44)
769D  00                 [320] (44)
769E  F0                 [321] (44)
769F  03                 [322] (44)
76A0  00                 [323] (44)
76A1  00                 [324] (44)
76A2  F0                 [325] (44)
76A3  03                 [326] (45)
76A4  00                 [327] (45)
76A5  00                 [328] (45)
76A6  F0                 [329] (45)
76A7  03                 [330] (47)
                         * locals:
7A86  00                 sizelocvars (0)
                         * upvalues:
7A87  00                 sizeupvalues (0)
                         ** end of function **

                         
7A88                     ** function [18] definition (level 2)
                         ** start of function **
7A88  00                 string size (0)
                         source name: (none)
7A8A  08                 line defined (1073)
7A8B  C9                 last line defined (1225)
7A8C  09                 nups (9)
7A8D  09                 numparams (0)
7A8E  00                 is_vararg (0)
7A8F  00                 maxstacksize (34)
                         * code:
7A92  03                 sizecode (412)
7A93  1D000000           [001] getglobal  0   0        ; 1074689893
7A97  5D400000           [002] getglobal  1   1        ; gPortraitRegion
7A9B  22800001           [003] call       0   2   2  
7A9F  18400000           [004] test       0       1    ; to [6] if false
7AA3  1A406580           [005] jmp        406          ; to [412]
7AA7  1D800000           [006] getglobal  0   2        ; gGameRules
fail op	8
7AAB  08000000           [007] setupval   0   0      
7AAF  1D000000           [008] getglobal  0   0        ; 1074689893
7AB3  5DC00000           [009] getglobal  1   3        ; _T
7AB7  4E00C100           [010] gettable   1   1   260  ; "curTransmission"
7ABB  22800001           [011] call       0   2   2  
7ABF  18000000           [012] test       0       0    ; to [14] if true
7AC3  1A000080           [013] jmp        1            ; to [15]
7AC7  1E008000           [014] return     0   1      
7ACB  13008000           [015] getupval   0   1      
7ACF  18000000           [016] test       0       0    ; to [18] if true
7AD3  1A800780           [017] jmp        31           ; to [49]
7AD7  1DC00000           [018] getglobal  0   3        ; _T
7ADB  0E404100           [019] gettable   0   0   261  ; "TransmissionOverrideAspect"
7ADF  18000000           [020] test       0       0    ; to [22] if true
7AE3  1A800680           [021] jmp        27           ; to [49]
7AE7  1D800100           [022] getglobal  0   6        ; -174740002
7AEB  53000001           [023] getupval   1   2      
7AEF  64C0C100           [024] self       1   1   263  ; 1803241227
7AF3  D3008001           [025] getupval   3   3      
7AF7  19010200           [026] loadk      4   8        ; ".ImageOuter"
7AFB  C2008101           [027] concat     3   3   4  
7AFF  19410200           [028] loadk      4   9        ; "_width"
7B03  62000002           [029] call       1   4   0  
7B07  22800000           [030] call       0   0   2  
7B0B  5D800100           [031] getglobal  1   6        ; -174740002
7B0F  93000001           [032] getupval   2   2      
7B13  A4C04101           [033] self       2   2   263  ; 1803241227
7B17  13018001           [034] getupval   4   3      
7B1B  59010200           [035] loadk      5   8        ; ".ImageOuter"
7B1F  02410102           [036] concat     4   4   5  
7B23  59810200           [037] loadk      5   10       ; "_height"
7B27  A2000002           [038] call       2   4   0  
7B2B  62800000           [039] call       1   0   2  
7B2F  1C400000           [040] div        0   0   1  
7B33  5D400000           [041] getglobal  1   1        ; gPortraitRegion
7B37  64C0C200           [042] self       1   1   267  ; -138297819
7B3B  62800001           [043] call       1   2   2  
7B3F  A400C300           [044] self       2   1   268  ; 740365070
7B43  12010000           [045] move       4   0      
7B47  A2408001           [046] call       2   3   1  
7B4B  9DC00000           [047] getglobal  2   3        ; _T
7B4F  8C40C382           [048] settable   2   261 269  ; "TransmissionOverrideAspect" nil
7B53  9DC00000           [049] getglobal  2   3        ; _T
7B57  8E004101           [050] gettable   2   2   260  ; "curTransmission"
7B5B  A4804301           [051] self       2   2   270  ; -1957065004
7B5F  1DC10300           [052] getglobal  4   15       ; operatorTransmission
7B63  A2808001           [053] call       2   3   2  
7B67  98000000           [054] test       2       0    ; to [56] if true
7B6B  1A802180           [055] jmp        135          ; to [191]
7B6F  9D000400           [056] getglobal  2   16       ; gRegion
7B73  A4404401           [057] self       2   2   273  ; 925677844
7B77  A2800001           [058] call       2   2   2  
7B7B  DD000000           [059] getglobal  3   0        ; 1074689893
7B7F  12010001           [060] move       4   2      
7B83  E2800001           [061] call       3   2   2  
7B87  D8400000           [062] test       3       1    ; to [64] if false
7B8B  1AC05680           [063] jmp        348          ; to [412]
7B8F  DD800400           [064] getglobal  3   18       ; gPlayerProfileMgr
7B93  E4C0C401           [065] self       3   3   275  ; 569342746
7B97  59010500           [066] loadk      5   20       ; 0
7B9B  E2808001           [067] call       3   3   2  
7B9F  E440C501           [068] self       3   3   277  ; 1699680402
7BA3  E2800001           [069] call       3   2   2  
7BA7  2481C501           [070] self       4   3   278  ; 51109503
7BAB  22810001           [071] call       4   2   2  
7BAF  4EC14502           [072] gettable   5   4   279  ; "mOperatorCustomization"
7BB3  A401C602           [073] self       6   5   280  ; -1010188709
7BB7  A2810001           [074] call       6   2   2  
7BBB  DD010000           [075] getglobal  7   0        ; 1074689893
7BBF  12020003           [076] move       8   6      
7BC3  E2810001           [077] call       7   2   2  
7BC7  D8410000           [078] test       7       1    ; to [80] if false
7BCB  1AC05280           [079] jmp        332          ; to [412]
7BCF  DD410000           [080] getglobal  7   1        ; gPortraitRegion
7BD3  E441C603           [081] self       7   7   281  ; -1485896174
7BD7  5D820600           [082] getglobal  9   26       ; -332969190
7BDB  99C20600           [083] loadk      10  27       ; "OPERATOR"
7BDF  62020001           [084] call       9   2   0  
7BE3  E2810000           [085] call       7   0   2  
7BE7  D8010000           [086] test       7       0    ; to [88] if true
7BEB  1AC05080           [087] jmp        324          ; to [412]
7BEF  0A028003           [088] len        8   7      
fail op	21
7BF3  1500028A           [089] concat     0   276 8  
7BF7  1A005080           [090] jmp        321          ; to [412]
7BFB  0E02C703           [091] gettable   8   7   284  ; 0
7BFF  24424704           [092] self       8   8   285  ; 1839670529
7C03  22820001           [093] call       8   2   2  
7C07  4E02C703           [094] gettable   9   7   284  ; 0
7C0B  6482C704           [095] self       9   9   286  ; -231049143
7C0F  62820001           [096] call       9   2   2  
7C13  9D420000           [097] getglobal  10  1        ; gPortraitRegion
7C17  A4C24705           [098] self       10  10  287  ; 152279552
7C1B  1D030800           [099] getglobal  12  32       ; operatorType
7C1F  A2828001           [100] call       10  3   2  
7C23  C6028005           [101] loadnil    11  11     
fail op	35
7C27  63404305           [102] close      1  
7C2B  1A000280           [103] jmp        9            ; to [113]
7C2F  0A030005           [104] len        12  10     
fail op	21
7C33  1500038A           [105] concat     0   276 12 
7C37  1A400180           [106] jmp        6            ; to [113]
7C3B  CE024705           [107] gettable   11  10  284  ; 0
7C3F  2443C805           [108] self       12  11  289  ; 970454089
7C43  92030004           [109] move       14  8      
7C47  D2038004           [110] move       15  9      
7C4B  22430002           [111] call       12  4   1  
7C4F  1AC00280           [112] jmp        12           ; to [125]
7C53  1D830800           [113] getglobal  12  34       ; -895206725
7C57  5D030800           [114] getglobal  13  32       ; operatorType
7C5B  22830001           [115] call       12  2   2  
7C5F  5D430000           [116] getglobal  13  1        ; gPortraitRegion
7C63  64C3C806           [117] self       13  13  291  ; -1110225722
7C67  D2030006           [118] move       15  12     
7C6B  12040004           [119] move       16  8      
7C6F  52048004           [120] move       17  9      
7C73  86040009           [121] loadnil    18  18     
7C77  CE04C703           [122] gettable   19  7   284  ; 0
7C7B  62838003           [123] call       13  7   2  
7C7F  D2028006           [124] move       11  13     
7C83  5DC30000           [125] getglobal  13  3        ; _T
7C87  4CC30292           [126] settable   13  292 11   ; "PortraitOperatorAvatar"
7C8B  5D430900           [127] getglobal  13  37       ; 2083004503
7C8F  92030003           [128] move       14  6      
7C93  62830001           [129] call       13  2   2  
7C97  9D030000           [130] getglobal  14  0        ; 1074689893
7C9B  D2038005           [131] move       15  11     
7C9F  A2830001           [132] call       14  2   2  
7CA3  98430000           [133] test       14      1    ; to [135] if false
7CA7  1A000C80           [134] jmp        49           ; to [184]
7CAB  9D430000           [135] getglobal  14  1        ; gPortraitRegion
7CAF  A4834907           [136] self       14  14  294  ; -1151016513
7CB3  12048006           [137] move       16  13     
7CB7  52048005           [138] move       17  11     
7CBB  A2830002           [139] call       14  4   2  
7CBF  CEC3C902           [140] gettable   15  5   295  ; "mCustomization"
7CC3  E403CA07           [141] self       15  15  296  ; 67885531
7CC7  46048008           [142] loadnil    17  17     
7CCB  9D440A00           [143] getglobal  18  41       ; Lotus_Game
7CCF  8E844A09           [144] gettable   18  18  298  ; "Face"
7CD3  E2430002           [145] call       15  4   1  
7CD7  E4C34A07           [146] self       15  14  299  ; -1038992139
7CDB  4EC4C902           [147] gettable   17  5   295  ; "mCustomization"
7CDF  E2438001           [148] call       15  3   1  
7CE3  E403CB05           [149] self       15  11  300  ; -1917464545
7CE7  E2830001           [150] call       15  2   2  
7CEB  E443CB07           [151] self       15  15  301  ; 1479835399
7CEF  52040007           [152] move       17  14     
7CF3  97048000           [153] loadbool   18  1   0    ; true
7CF7  E2430002           [154] call       15  4   1  
7CFB  E483CB05           [155] self       15  11  302  ; 2056776437
7CFF  5DC40B00           [156] getglobal  17  47       ; operatorAnim
7D03  97040000           [157] loadbool   18  0   0    ; false
7D07  DD040C00           [158] getglobal  19  48       ; Engine
7D0B  CE44CC09           [159] gettable   19  19  305  ; "ATMM_ANIMATION_DRIVEN"
7D0F  1D050C00           [160] getglobal  20  48       ; Engine
7D13  0E854C0A           [161] gettable   20  20  306  ; "PRT_LOOP"
7D17  57050000           [162] loadbool   21  0   0    ; false
7D1B  E2438003           [163] call       15  7   1  
7D1F  DD030400           [164] getglobal  15  16       ; gRegion
7D23  E4C3CC07           [165] self       15  15  307  ; -1520831144
7D27  E2830001           [166] call       15  2   2  
7D2B  D8430000           [167] test       15      1    ; to [169] if false
7D2F  1A000280           [168] jmp        9            ; to [178]
7D33  DD030000           [169] getglobal  15  0        ; 1074689893
7D37  12040007           [170] move       16  14     
7D3B  E2830001           [171] call       15  2   2  
7D3F  D8430000           [172] test       15      1    ; to [174] if false
7D43  1AC00080           [173] jmp        4            ; to [178]
7D47  E4034D07           [174] self       15  14  308  ; -1147712497
7D4B  52048005           [175] move       17  11     
7D4F  8E04C703           [176] gettable   18  7   284  ; 0
7D53  E2430002           [177] call       15  4   1  
7D57  CE03C703           [178] gettable   15  7   284  ; 0
7D5B  E443CD07           [179] self       15  15  309  ; 2109594123
7D5F  57040000           [180] loadbool   17  0   0    ; false
7D63  97048000           [181] loadbool   18  1   0    ; true
7D67  E2430002           [182] call       15  4   1  
7D6B  1A800080           [183] jmp        3            ; to [187]
7D6F  E483CD06           [184] self       15  13  310  ; -1915136200
7D73  4E04C703           [185] gettable   17  7   284  ; 0
7D77  E2438001           [186] call       15  3   1  
7D7B  E4C34D01           [187] self       15  2   311  ; 340404473
7D7F  E2830001           [188] call       15  2   2  
fail op	8
7D83  C8030002           [189] setupval   15  4      
7D87  1A003780           [190] jmp        221          ; to [412]
7D8B  DD030000           [191] getglobal  15  0        ; 1074689893
7D8F  13040000           [192] getupval   16  0      
7D93  E2830001           [193] call       15  2   2  
7D97  D8430000           [194] test       15      1    ; to [196] if false
7D9B  1AC03580           [195] jmp        216          ; to [412]
7D9F  C6038009           [196] loadnil    15  19     
7DA3  1D850000           [197] getglobal  20  2        ; gGameRules
7DA7  24054E0A           [198] self       20  20  312  ; -283297448
7DAB  22850001           [199] call       20  2   2  
7DAF  18450000           [200] test       20      1    ; to [202] if false
7DB3  1A000280           [201] jmp        9            ; to [211]
7DB7  13050000           [202] getupval   20  0      
7DBB  24454E0A           [203] self       20  20  313  ; -1201441975
7DBF  22850001           [204] call       20  2   2  
7DC3  D203000A           [205] move       15  20     
7DC7  13058002           [206] getupval   20  5      
7DCB  24854E0A           [207] self       20  20  314  ; 555592594
7DCF  8EC5CE07           [208] gettable   22  15  315  ; "location"
7DD3  22858001           [209] call       20  3   2  
7DD7  1204000A           [210] move       16  20     
7DDB  1D050000           [211] getglobal  20  0        ; 1074689893
7DDF  52050008           [212] move       21  16     
7DE3  22850001           [213] call       20  2   2  
7DE7  18450000           [214] test       20      1    ; to [216] if false
7DEB  1AC00680           [215] jmp        28           ; to [244]
7DEF  4E04CF07           [216] gettable   17  15  316  ; "badlandWarlordSuit"
7DF3  8E44CF07           [217] gettable   18  15  317  ; "badlandWarlordName"
7DF7  1DC50000           [218] getglobal  20  3        ; _T
7DFB  0E05410A           [219] gettable   20  20  260  ; "curTransmission"
7DFF  24854F0A           [220] self       20  20  318  ; -830264577
7E03  22850001           [221] call       20  2   2  
7E07  53050003           [222] getupval   21  6      
fail op	35
7E0B  2340050A           [223] close      0  
7E0F  1AC01280           [224] jmp        76           ; to [301]
7E13  0EC5CF07           [225] gettable   20  15  319  ; "badlandSupport"
7E17  5D450A00           [226] getglobal  21  41       ; Lotus_Game
7E1B  4E05D00A           [227] gettable   21  21  320  ; "LotusMissionInfo_BS_DEFENDER"
fail op	35
7E1F  2340050A           [228] close      0  
7E23  1A800180           [229] jmp        7            ; to [237]
7E27  0E455008           [230] gettable   20  16  321  ; "mDefenderInfo"
7E2B  0E85500A           [231] gettable   20  20  322  ; "mMissionInfo"
7E2F  4E044F0A           [232] gettable   17  20  316  ; "badlandWarlordSuit"
7E33  0E455008           [233] gettable   20  16  321  ; "mDefenderInfo"
7E37  0E85500A           [234] gettable   20  20  322  ; "mMissionInfo"
7E3B  8E444F0A           [235] gettable   18  20  317  ; "badlandWarlordName"
7E3F  1AC00F80           [236] jmp        64           ; to [301]
7E43  0EC55008           [237] gettable   20  16  323  ; "mAttackerInfo"
7E47  0E85500A           [238] gettable   20  20  322  ; "mMissionInfo"
7E4B  4E044F0A           [239] gettable   17  20  316  ; "badlandWarlordSuit"
7E4F  0EC55008           [240] gettable   20  16  323  ; "mAttackerInfo"
7E53  0E85500A           [241] gettable   20  20  322  ; "mMissionInfo"
7E57  8E444F0A           [242] gettable   18  20  317  ; "badlandWarlordName"
7E5B  1A000E80           [243] jmp        57           ; to [301]
7E5F  1DC50000           [244] getglobal  20  3        ; _T
7E63  0E05410A           [245] gettable   20  20  260  ; "curTransmission"
7E67  24854F0A           [246] self       20  20  318  ; -830264577
7E6B  22850001           [247] call       20  2   2  
7E6F  53058003           [248] getupval   21  7      
fail op	35
7E73  2340050A           [249] close      0  
7E77  1A400C80           [250] jmp        50           ; to [301]
7E7B  1D050400           [251] getglobal  20  16       ; gRegion
7E7F  2405510A           [252] self       20  20  324  ; 65205951
7E83  22850001           [253] call       20  2   2  
7E87  5D050000           [254] getglobal  21  0        ; 1074689893
7E8B  9205000A           [255] move       22  20     
7E8F  62850001           [256] call       21  2   2  
7E93  58450000           [257] test       21      1    ; to [259] if false
7E97  1A400A80           [258] jmp        42           ; to [301]
7E9B  64054B0A           [259] self       21  20  300  ; -1917464545
7E9F  62850001           [260] call       21  2   2  
7EA3  9D050000           [261] getglobal  22  0        ; 1074689893
7EA7  D205800A           [262] move       23  21     
7EAB  A2850001           [263] call       22  2   2  
7EAF  98450000           [264] test       22      1    ; to [266] if false
7EB3  1A800880           [265] jmp        35           ; to [301]
7EB7  9DC50000           [266] getglobal  22  3        ; _T
7EBB  8E45510B           [267] gettable   22  22  325  ; "ScenarioBeaconInviteInfo"
7EBF  98050000           [268] test       22      0    ; to [270] if true
7EC3  1AC00580           [269] jmp        24           ; to [294]
7EC7  9DC50000           [270] getglobal  22  3        ; _T
7ECB  8E45510B           [271] gettable   22  22  325  ; "ScenarioBeaconInviteInfo"
7ECF  8E84510B           [272] gettable   18  22  326  ; "playerName"
7ED3  9DC50000           [273] getglobal  22  3        ; _T
7ED7  8E45510B           [274] gettable   22  22  325  ; "ScenarioBeaconInviteInfo"
7EDB  8EC5510B           [275] gettable   22  22  327  ; "inviteLoadOutInfo"
fail op	35
7EDF  6340430B           [276] close      1  
7EE3  1A800580           [277] jmp        23           ; to [301]
7EE7  9DC50000           [278] getglobal  22  3        ; _T
7EEB  8E45510B           [279] gettable   22  22  325  ; "ScenarioBeaconInviteInfo"
7EEF  8EC5510B           [280] gettable   22  22  327  ; "inviteLoadOutInfo"
7EF3  CE04520B           [281] gettable   19  22  328  ; "loadOut"
7EF7  9D451200           [282] getglobal  22  73       ; 738251817
7EFB  E485D209           [283] self       23  19  330  ; 114450322
7EFF  5D460A00           [284] getglobal  25  41       ; Lotus_Game
7F03  4EC6D20C           [285] gettable   25  25  331  ; "LOT_NORMAL"
7F07  9D460A00           [286] getglobal  26  41       ; Lotus_Game
7F0B  8E06530D           [287] gettable   26  26  332  ; "SUIT_SLOT"
7F0F  E2850002           [288] call       23  4   2  
7F13  CE45D30B           [289] gettable   23  23  333  ; "mItem"
7F17  CE85D30B           [290] gettable   23  23  334  ; "mItemType"
7F1B  A2850001           [291] call       22  2   2  
7F1F  5204000B           [292] move       17  22     
7F23  1A800180           [293] jmp        7            ; to [301]
7F27  9D850400           [294] getglobal  22  18       ; gPlayerProfileMgr
7F2B  A4C5440B           [295] self       22  22  275  ; 569342746
7F2F  19060500           [296] loadk      24  20       ; 0
7F33  A2858001           [297] call       22  3   2  
7F37  A4C54D0B           [298] self       22  22  311  ; 340404473
7F3B  A2850001           [299] call       22  2   2  
7F3F  9204000B           [300] move       18  22     
7F43  9D050000           [301] getglobal  22  0        ; 1074689893
7F47  D2058008           [302] move       23  17     
7F4B  A2850001           [303] call       22  2   2  
7F4F  98450000           [304] test       22      1    ; to [306] if false
7F53  1A801980           [305] jmp        103          ; to [409]
7F57  9D450000           [306] getglobal  22  1        ; gPortraitRegion
7F5B  A445460B           [307] self       22  22  281  ; -1485896174
7F5F  1D860600           [308] getglobal  24  26       ; -332969190
7F63  59C61300           [309] loadk      25  79       ; "Warlord"
7F67  22060001           [310] call       24  2   0  
7F6B  A2850000           [311] call       22  0   2  
7F6F  98050000           [312] test       22      0    ; to [314] if true
7F73  1A801780           [313] jmp        95           ; to [409]
7F77  CA05000B           [314] len        23  22     
fail op	21
7F7B  15C0058A           [315] concat     0   276 23 
7F7F  1AC01680           [316] jmp        92           ; to [409]
7F83  CE05470B           [317] gettable   23  22  284  ; 0
7F87  E445C70B           [318] self       23  23  285  ; 1839670529
7F8B  E2850001           [319] call       23  2   2  
7F8F  0E06470B           [320] gettable   24  22  284  ; 0
7F93  2486470C           [321] self       24  24  286  ; -231049143
7F97  22860001           [322] call       24  2   2  
7F9B  5D460900           [323] getglobal  25  37       ; 2083004503
7F9F  99061400           [324] loadk      26  80       ; "/Lotus/Types/Player/TennoMainMenuAvatar"
7FA3  62860001           [325] call       25  2   2  
7FA7  9D060000           [326] getglobal  26  0        ; 1074689893
7FAB  D3060004           [327] getupval   27  8      
7FAF  A2860001           [328] call       26  2   2  
7FB3  98460000           [329] test       26      1    ; to [331] if false
7FB7  1AC00080           [330] jmp        4            ; to [335]
7FBB  9D460000           [331] getglobal  26  1        ; gPortraitRegion
7FBF  A446540D           [332] self       26  26  337  ; -1693828985
7FC3  13070004           [333] getupval   28  8      
7FC7  A2468001           [334] call       26  3   1  
7FCB  9D460000           [335] getglobal  26  1        ; gPortraitRegion
7FCF  A4C6480D           [336] self       26  26  291  ; -1110225722
7FD3  1207800C           [337] move       28  25     
7FD7  5207800B           [338] move       29  23     
7FDB  9207000C           [339] move       30  24     
7FDF  A2868002           [340] call       26  5   2  
fail op	8
7FE3  88060004           [341] setupval   26  8      
7FE7  9D460900           [342] getglobal  26  37       ; 2083004503
7FEB  D2068008           [343] move       27  17     
7FEF  A2860001           [344] call       26  2   2  
7FF3  DD060000           [345] getglobal  27  0        ; 1074689893
7FF7  13070004           [346] getupval   28  8      
7FFB  E2860001           [347] call       27  2   2  
7FFF  D8460000           [348] test       27      1    ; to [350] if false
8003  1AC00D80           [349] jmp        56           ; to [406]
8007  D3060004           [350] getupval   27  8      
800B  E486D40D           [351] self       27  27  338  ; 677420169
800F  5D870600           [352] getglobal  29  26       ; -332969190
8013  99C71400           [353] loadk      30  83       ; "InstantKneel"
8017  62070001           [354] call       29  2   0  
801B  E2460000           [355] call       27  0   1  
801F  D3060004           [356] getupval   27  8      
8023  E446CB0D           [357] self       27  27  301  ; 1479835399
8027  5207000D           [358] move       29  26     
802B  97078000           [359] loadbool   30  1   0    ; true
802F  E2860002           [360] call       27  4   2  
fail op	35
8033  2340C309           [361] close      0  
8037  1A000180           [362] jmp        5            ; to [368]
803B  24C7CA0D           [363] self       28  27  299  ; -1038992139
803F  A407D508           [364] self       30  17  340  ; -1348043987
8043  A2070001           [365] call       30  2   0  
8047  22470000           [366] call       28  0   1  
804B  1AC00280           [367] jmp        12           ; to [380]
804F  2487D209           [368] self       28  19  330  ; 114450322
8053  9D470A00           [369] getglobal  30  41       ; Lotus_Game
8057  8EC7520F           [370] gettable   30  30  331  ; "LOT_NORMAL"
805B  DD470A00           [371] getglobal  31  41       ; Lotus_Game
805F  CE07D30F           [372] gettable   31  31  332  ; "SUIT_SLOT"
8063  22870002           [373] call       28  4   2  
8067  64C7CA0D           [374] self       29  27  299  ; -1038992139
806B  CE47530E           [375] gettable   31  28  333  ; "mItem"
806F  E407D50F           [376] self       31  31  340  ; -1348043987
8073  4E48550E           [377] gettable   33  28  341  ; "mCustSlot"
8077  E2078001           [378] call       31  3   0  
807B  62470000           [379] call       29  0   1  
807F  53070004           [380] getupval   29  8      
8083  6407CB0E           [381] self       29  29  300  ; -1917464545
8087  62870001           [382] call       29  2   2  
808B  6487D50E           [383] self       29  29  342  ; 1674984496
808F  DD070C00           [384] getglobal  31  48       ; Engine
8093  CEC7D50F           [385] gettable   31  31  343  ; "SLOT_4"
8097  62878001           [386] call       29  3   2  
809B  9D070400           [387] getglobal  30  16       ; gRegion
809F  A4C74C0F           [388] self       30  30  307  ; -1520831144
80A3  A2870001           [389] call       30  2   2  
80A7  98470000           [390] test       30      1    ; to [392] if false
80AB  1A000280           [391] jmp        9            ; to [401]
80AF  9D070000           [392] getglobal  30  0        ; 1074689893
80B3  D207800E           [393] move       31  29     
80B7  A2870001           [394] call       30  2   2  
80BB  98470000           [395] test       30      1    ; to [397] if false
80BF  1AC00080           [396] jmp        4            ; to [401]
80C3  A407CD0E           [397] self       30  29  308  ; -1147712497
80C7  13080004           [398] getupval   32  8      
80CB  4E08470B           [399] gettable   33  22  284  ; 0
80CF  A2470002           [400] call       30  4   1  
80D3  8E07470B           [401] gettable   30  22  284  ; 0
80D7  A407560F           [402] self       30  30  344  ; -703571861
80DB  19080700           [403] loadk      32  28       ; 0
80DF  A2478001           [404] call       30  3   1  
80E3  1A800080           [405] jmp        3            ; to [409]
80E7  A4874D0D           [406] self       30  26  310  ; -1915136200
80EB  0E08470B           [407] gettable   32  22  284  ; 0
80EF  A2478001           [408] call       30  3   1  
fail op	35
80F3  63405609           [409] close      1  
80F7  1A000080           [410] jmp        1            ; to [412]
fail op	8
80FB  88040002           [411] setupval   18  4      
80FF  1E008000           [412] return     0   1      
                         * constants:
8103  5A                 sizek (90)
8104  01                 const type 3
8105  65770E40           const [0]: (1074689893)
8109  04                 const type 4
810A  10                 string size (16)
810B  67506F7274726169+  "gPortrai"
8113  74526567696F6E00   "tRegion\0"
                         const [1]: "gPortraitRegion"
811B  04                 const type 4
811C  0B                 string size (11)
811D  6747616D6552756C+  "gGameRul"
8125  657300             "es\0"
                         const [2]: "gGameRules"
8128  04                 const type 4
8129  03                 string size (3)
812A  5F5400             "_T\0"
                         const [3]: "_T"
812D  04                 const type 4
812E  10                 string size (16)
812F  6375725472616E73+  "curTrans"
8137  6D697373696F6E00   "mission\0"
                         const [4]: "curTransmission"
813F  04                 const type 4
8140  1B                 string size (27)
8141  5472616E736D6973+  "Transmis"
8149  73696F6E4F766572+  "sionOver"
8151  7269646541737065+  "rideAspe"
8159  637400             "ct\0"
                         const [5]: "TransmissionOverrideAspect"
815C  01                 const type 3
815D  DEAD95F5           const [6]: (-174740002)
8161  01                 const type 3
8162  0B477B6B           const [7]: (1803241227)
8166  04                 const type 4
8167  0C                 string size (12)
8168  2E496D6167654F75+  ".ImageOu"
8170  74657200           "ter\0"
                         const [8]: ".ImageOuter"
8174  04                 const type 4
8175  07                 string size (7)
8176  5F776964746800     "_width\0"
                         const [9]: "_width"
817D  04                 const type 4
817E  08                 string size (8)
817F  5F68656967687400   "_height\0"
                         const [10]: "_height"
8187  01                 const type 3
8188  25BEC1F7           const [11]: (-138297819)
818C  01                 const type 3
818D  0E13212C           const [12]: (740365070)
8191  00                 const type 0
                         const [13]: nil
8192  01                 const type 3
8193  D48E598B           const [14]: (-1957065004)
8197  04                 const type 4
8198  15                 string size (21)
8199  6F70657261746F72+  "operator"
81A1  5472616E736D6973+  "Transmis"
81A9  73696F6E00         "sion\0"
                         const [15]: "operatorTransmission"
81AE  04                 const type 4
81AF  08                 string size (8)
81B0  67526567696F6E00   "gRegion\0"
                         const [16]: "gRegion"
81B8  01                 const type 3
81B9  14B92C37           const [17]: (925677844)
81BD  04                 const type 4
81BE  12                 string size (18)
81BF  67506C6179657250+  "gPlayerP"
81C7  726F66696C654D67+  "rofileMg"
81CF  7200               "r\0"
                         const [18]: "gPlayerProfileMgr"
81D1  01                 const type 3
81D2  1A7BEF21           const [19]: (569342746)
81D6  03                 const type 3
81D7  00000000           const [20]: (0)
81DB  01                 const type 3
81DC  92104F65           const [21]: (1699680402)
81E0  01                 const type 3
81E1  7FDE0B03           const [22]: (51109503)
81E5  04                 const type 4
81E6  17                 string size (23)
81E7  6D4F70657261746F+  "mOperato"
81EF  72437573746F6D69+  "rCustomi"
81F7  7A6174696F6E00     "zation\0"
                         const [23]: "mOperatorCustomization"
81FE  01                 const type 3
81FF  5BBEC9C3           const [24]: (-1010188709)
8203  01                 const type 3
8204  12066FA7           const [25]: (-1485896174)
8208  01                 const type 3
8209  1A4B27EC           const [26]: (-332969190)
820D  04                 const type 4
820E  09                 string size (9)
820F  4F50455241544F52+  "OPERATOR"
8217  00                 "\0"
                         const [27]: "OPERATOR"
8218  03                 const type 3
8219  0000803F           const [28]: (0)
821D  01                 const type 3
821E  0125A76D           const [29]: (1839670529)
8222  01                 const type 3
8223  49783AF2           const [30]: (-231049143)
8227  01                 const type 3
8228  009A1309           const [31]: (152279552)
822C  04                 const type 4
822D  0D                 string size (13)
822E  6F70657261746F72+  "operator"
8236  5479706500         "Type\0"
                         const [32]: "operatorType"
823B  01                 const type 3
823C  49F4D739           const [33]: (970454089)
8240  01                 const type 3
8241  BB3AA4CA           const [34]: (-895206725)
8245  01                 const type 3
8246  C64CD3BD           const [35]: (-1110225722)
824A  04                 const type 4
824B  17                 string size (23)
824C  506F727472616974+  "Portrait"
8254  4F70657261746F72+  "Operator"
825C  41766174617200     "Avatar\0"
                         const [36]: "PortraitOperatorAvatar"
8263  01                 const type 3
8264  5720287C           const [37]: (2083004503)
8268  01                 const type 3
8269  BFE164BB           const [38]: (-1151016513)
826D  04                 const type 4
826E  0F                 string size (15)
826F  6D437573746F6D69+  "mCustomi"
8277  7A6174696F6E00     "zation\0"
                         const [39]: "mCustomization"
827E  01                 const type 3
827F  DBD90B04           const [40]: (67885531)
8283  04                 const type 4
8284  0B                 string size (11)
8285  4C6F7475735F4761+  "Lotus_Ga"
828D  6D6500             "me\0"
                         const [41]: "Lotus_Game"
8290  04                 const type 4
8291  05                 string size (5)
8292  4661636500         "Face\0"
                         const [42]: "Face"
8297  01                 const type 3
8298  F53C12C2           const [43]: (-1038992139)
829C  01                 const type 3
829D  1FD0B58D           const [44]: (-1917464545)
82A1  01                 const type 3
82A2  077F3458           const [45]: (1479835399)
82A6  01                 const type 3
82A7  F5EA977A           const [46]: (2056776437)
82AB  04                 const type 4
82AC  0D                 string size (13)
82AD  6F70657261746F72+  "operator"
82B5  416E696D00         "Anim\0"
                         const [47]: "operatorAnim"
82BA  04                 const type 4
82BB  07                 string size (7)
82BC  456E67696E6500     "Engine\0"
                         const [48]: "Engine"
82C3  04                 const type 4
82C4  16                 string size (22)
82C5  41544D4D5F414E49+  "ATMM_ANI"
82CD  4D4154494F4E5F44+  "MATION_D"
82D5  524956454E00       "RIVEN\0"
                         const [49]: "ATMM_ANIMATION_DRIVEN"
82DB  04                 const type 4
82DC  09                 string size (9)
82DD  5052545F4C4F4F50+  "PRT_LOOP"
82E5  00                 "\0"
                         const [50]: "PRT_LOOP"
82E6  01                 const type 3
82E7  58F559A5           const [51]: (-1520831144)
82EB  01                 const type 3
82EC  0F4C97BB           const [52]: (-1147712497)
82F0  01                 const type 3
82F1  0BDABD7D           const [53]: (2109594123)
82F5  01                 const type 3
82F6  3857D98D           const [54]: (-1915136200)
82FA  01                 const type 3
82FB  F9284A14           const [55]: (340404473)
82FF  01                 const type 3
8300  58391DEF           const [56]: (-283297448)
8304  01                 const type 3
8305  497363B8           const [57]: (-1201441975)
8309  01                 const type 3
830A  92AB1D21           const [58]: (555592594)
830E  04                 const type 4
830F  09                 string size (9)
8310  6C6F636174696F6E+  "location"
8318  00                 "\0"
                         const [59]: "location"
8319  04                 const type 4
831A  13                 string size (19)
831B  6261646C616E6457+  "badlandW"
8323  61726C6F72645375+  "arlordSu"
832B  697400             "it\0"
                         const [60]: "badlandWarlordSuit"
832E  04                 const type 4
832F  13                 string size (19)
8330  6261646C616E6457+  "badlandW"
8338  61726C6F72644E61+  "arlordNa"
8340  6D6500             "me\0"
                         const [61]: "badlandWarlordName"
8343  01                 const type 3
8344  FF2A83CE           const [62]: (-830264577)
8348  04                 const type 4
8349  0F                 string size (15)
834A  6261646C616E6453+  "badlandS"
8352  7570706F727400     "upport\0"
                         const [63]: "badlandSupport"
8359  04                 const type 4
835A  1D                 string size (29)
835B  4C6F7475734D6973+  "LotusMis"
8363  73696F6E496E666F+  "sionInfo"
836B  5F42535F44454645+  "_BS_DEFE"
8373  4E44455200         "NDER\0"
                         const [64]: "LotusMissionInfo_BS_DEFENDER"
8378  04                 const type 4
8379  0E                 string size (14)
837A  6D446566656E6465+  "mDefende"
8382  72496E666F00       "rInfo\0"
                         const [65]: "mDefenderInfo"
8388  04                 const type 4
8389  0D                 string size (13)
838A  6D4D697373696F6E+  "mMission"
8392  496E666F00         "Info\0"
                         const [66]: "mMissionInfo"
8397  04                 const type 4
8398  0E                 string size (14)
8399  6D41747461636B65+  "mAttacke"
83A1  72496E666F00       "rInfo\0"
                         const [67]: "mAttackerInfo"
83A7  01                 const type 3
83A8  BFF6E203           const [68]: (65205951)
83AC  04                 const type 4
83AD  19                 string size (25)
83AE  5363656E6172696F+  "Scenario"
83B6  426561636F6E496E+  "BeaconIn"
83BE  76697465496E666F+  "viteInfo"
83C6  00                 "\0"
                         const [69]: "ScenarioBeaconInviteInfo"
83C7  04                 const type 4
83C8  0B                 string size (11)
83C9  706C617965724E61+  "playerNa"
83D1  6D6500             "me\0"
                         const [70]: "playerName"
83D4  04                 const type 4
83D5  12                 string size (18)
83D6  696E766974654C6F+  "inviteLo"
83DE  61644F7574496E66+  "adOutInf"
83E6  6F00               "o\0"
                         const [71]: "inviteLoadOutInfo"
83E8  04                 const type 4
83E9  08                 string size (8)
83EA  6C6F61644F757400   "loadOut\0"
                         const [72]: "loadOut"
83F2  01                 const type 3
83F3  29D4002C           const [73]: (738251817)
83F7  01                 const type 3
83F8  925FD206           const [74]: (114450322)
83FC  04                 const type 4
83FD  0B                 string size (11)
83FE  4C4F545F4E4F524D+  "LOT_NORM"
8406  414C00             "AL\0"
                         const [75]: "LOT_NORMAL"
8409  04                 const type 4
840A  0A                 string size (10)
840B  535549545F534C4F+  "SUIT_SLO"
8413  5400               "T\0"
                         const [76]: "SUIT_SLOT"
8415  04                 const type 4
8416  06                 string size (6)
8417  6D4974656D00       "mItem\0"
                         const [77]: "mItem"
841D  04                 const type 4
841E  0A                 string size (10)
841F  6D4974656D547970+  "mItemTyp"
8427  6500               "e\0"
                         const [78]: "mItemType"
8429  04                 const type 4
842A  08                 string size (8)
842B  5761726C6F726400   "Warlord\0"
                         const [79]: "Warlord"
8433  04                 const type 4
8434  28                 string size (40)
8435  2F4C6F7475732F54+  "/Lotus/T"
843D  797065732F506C61+  "ypes/Pla"
8445  7965722F54656E6E+  "yer/Tenn"
844D  6F4D61696E4D656E+  "oMainMen"
8455  7541766174617200   "uAvatar\0"
                         const [80]: "/Lotus/Types/Player/TennoMainMenuAvatar"
845D  01                 const type 3
845E  87380A9B           const [81]: (-1693828985)
8462  01                 const type 3
8463  899C6028           const [82]: (677420169)
8467  04                 const type 4
8468  0D                 string size (13)
8469  496E7374616E744B+  "InstantK"
8471  6E65656C00         "neel\0"
                         const [83]: "InstantKneel"
8476  01                 const type 3
8477  2D7BA6AF           const [84]: (-1348043987)
847B  04                 const type 4
847C  0A                 string size (10)
847D  6D43757374536C6F+  "mCustSlo"
8485  7400               "t\0"
                         const [85]: "mCustSlot"
8487  01                 const type 3
8488  303CD663           const [86]: (1674984496)
848C  04                 const type 4
848D  07                 string size (7)
848E  534C4F545F3400     "SLOT_4\0"
                         const [87]: "SLOT_4"
8495  01                 const type 3
8496  6B5810D6           const [88]: (-703571861)
849A  04                 const type 4
849B  01                 string size (0)
                         const [89]: ""
                         * functions:
849D  00                 sizep (0)
                         * lines:
849F  03                 sizelineinfo (412)
                         [pc] (line)
84A0  32                 [001] (50)
84A1  04                 [002] (50)
84A2  00                 [003] (50)
84A3  00                 [004] (50)
84A4  32                 [005] (50)
84A5  04                 [006] (51)
84A6  00                 [007] (51)
84A7  00                 [008] (53)
84A8  32                 [009] (53)
84A9  04                 [010] (53)
84AA  00                 [011] (53)
84AB  00                 [012] (53)
84AC  32                 [013] (53)
84AD  04                 [014] (54)
84AE  00                 [015] (57)
84AF  00                 [016] (57)
84B0  32                 [017] (57)
84B1  04                 [018] (57)
84B2  00                 [019] (57)
84B3  00                 [020] (57)
84B4  33                 [021] (57)
84B5  04                 [022] (58)
84B6  00                 [023] (58)
84B7  00                 [024] (58)
84B8  33                 [025] (58)
84B9  04                 [026] (58)
84BA  00                 [027] (58)
84BB  00                 [028] (58)
84BC  35                 [029] (58)
84BD  04                 [030] (58)
84BE  00                 [031] (58)
84BF  00                 [032] (58)
84C0  35                 [033] (58)
84C1  04                 [034] (58)
84C2  00                 [035] (58)
84C3  00                 [036] (58)
84C4  35                 [037] (58)
84C5  04                 [038] (58)
84C6  00                 [039] (58)
84C7  00                 [040] (58)
84C8  35                 [041] (59)
84C9  04                 [042] (59)
84CA  00                 [043] (59)
84CB  00                 [044] (60)
84CC  35                 [045] (60)
84CD  04                 [046] (60)
84CE  00                 [047] (61)
84CF  00                 [048] (61)
84D0  35                 [049] (64)
84D1  04                 [050] (64)
84D2  00                 [051] (64)
84D3  00                 [052] (64)
84D4  36                 [053] (64)
84D5  04                 [054] (64)
84D6  00                 [055] (64)
84D7  00                 [056] (65)
84D8  39                 [057] (65)
84D9  04                 [058] (65)
84DA  00                 [059] (66)
84DB  00                 [060] (66)
84DC  39                 [061] (66)
84DD  04                 [062] (66)
84DE  00                 [063] (66)
84DF  00                 [064] (67)
84E0  39                 [065] (67)
84E1  04                 [066] (67)
84E2  00                 [067] (67)
84E3  00                 [068] (67)
84E4  39                 [069] (67)
84E5  04                 [070] (68)
84E6  00                 [071] (68)
84E7  00                 [072] (69)
84E8  39                 [073] (71)
84E9  04                 [074] (71)
84EA  00                 [075] (73)
84EB  00                 [076] (73)
84EC  39                 [077] (73)
84ED  04                 [078] (73)
84EE  00                 [079] (73)
84EF  00                 [080] (74)
84F0  39                 [081] (74)
84F1  04                 [082] (74)
84F2  00                 [083] (74)
84F3  00                 [084] (74)
84F4  3A                 [085] (74)
84F5  04                 [086] (75)
84F6  00                 [087] (75)
84F7  00                 [088] (75)
84F8  3A                 [089] (75)
84F9  04                 [090] (75)
84FA  00                 [091] (76)
84FB  00                 [092] (76)
84FC  3A                 [093] (76)
84FD  04                 [094] (77)
84FE  00                 [095] (77)
84FF  00                 [096] (77)
8500  3A                 [097] (79)
8501  04                 [098] (79)
8502  00                 [099] (79)
8503  00                 [100] (79)
8504  3A                 [101] (80)
8505  04                 [102] (81)
8506  00                 [103] (81)
8507  00                 [104] (81)
8508  3A                 [105] (81)
8509  04                 [106] (81)
850A  00                 [107] (82)
850B  00                 [108] (83)
850C  3A                 [109] (83)
850D  04                 [110] (83)
850E  00                 [111] (83)
850F  00                 [112] (83)
8510  3A                 [113] (85)
8511  04                 [114] (85)
8512  00                 [115] (85)
8513  00                 [116] (86)
8514  3A                 [117] (86)
8515  04                 [118] (86)
8516  00                 [119] (86)
8517  00                 [120] (86)
8518  3A                 [121] (86)
8519  04                 [122] (86)
851A  00                 [123] (86)
851B  00                 [124] (86)
851C  3A                 [125] (88)
851D  04                 [126] (88)
851E  00                 [127] (89)
851F  00                 [128] (89)
8520  3A                 [129] (89)
8521  04                 [130] (91)
8522  00                 [131] (91)
8523  00                 [132] (91)
8524  3A                 [133] (91)
8525  04                 [134] (91)
8526  00                 [135] (94)
8527  00                 [136] (94)
8528  3A                 [137] (94)
8529  04                 [138] (94)
852A  00                 [139] (94)
852B  00                 [140] (95)
852C  3A                 [141] (95)
852D  04                 [142] (95)
852E  00                 [143] (95)
852F  00                 [144] (95)
8530  3A                 [145] (95)
8531  04                 [146] (96)
8532  00                 [147] (96)
8533  00                 [148] (96)
8534  3A                 [149] (97)
8535  04                 [150] (97)
8536  00                 [151] (97)
8537  00                 [152] (97)
8538  3A                 [153] (97)
8539  04                 [154] (97)
853A  00                 [155] (98)
853B  00                 [156] (98)
853C  3A                 [157] (98)
853D  04                 [158] (98)
853E  00                 [159] (98)
853F  00                 [160] (98)
8540  3B                 [161] (98)
8541  04                 [162] (98)
8542  00                 [163] (98)
8543  00                 [164] (100)
8544  3B                 [165] (100)
8545  04                 [166] (100)
8546  00                 [167] (100)
8547  00                 [168] (100)
8548  3B                 [169] (100)
8549  04                 [170] (100)
854A  00                 [171] (100)
854B  00                 [172] (100)
854C  3C                 [173] (100)
854D  04                 [174] (101)
854E  00                 [175] (101)
854F  00                 [176] (101)
8550  3C                 [177] (101)
8551  04                 [178] (103)
8552  00                 [179] (103)
8553  00                 [180] (103)
8554  3C                 [181] (103)
8555  04                 [182] (103)
8556  00                 [183] (103)
8557  00                 [184] (105)
8558  3D                 [185] (105)
8559  04                 [186] (105)
855A  00                 [187] (108)
855B  00                 [188] (108)
855C  3D                 [189] (108)
855D  04                 [190] (111)
855E  00                 [191] (112)
855F  00                 [192] (112)
8560  40                 [193] (112)
8561  04                 [194] (112)
8562  00                 [195] (112)
8563  00                 [196] (113)
8564  40                 [197] (118)
8565  04                 [198] (118)
8566  00                 [199] (118)
8567  00                 [200] (118)
8568  40                 [201] (118)
8569  04                 [202] (119)
856A  00                 [203] (119)
856B  00                 [204] (119)
856C  40                 [205] (119)
856D  04                 [206] (120)
856E  00                 [207] (120)
856F  00                 [208] (120)
8570  40                 [209] (120)
8571  04                 [210] (120)
8572  00                 [211] (123)
8573  00                 [212] (123)
8574  40                 [213] (123)
8575  04                 [214] (123)
8576  00                 [215] (123)
8577  00                 [216] (125)
8578  40                 [217] (126)
8579  04                 [218] (-128)
857A  00                 [219] (-128)
857B  00                 [220] (-128)
857C  41                 [221] (-128)
857D  04                 [222] (-128)
857E  00                 [223] (-128)
857F  00                 [224] (-128)
8580  41                 [225] (-126)
8581  04                 [226] (-126)
8582  00                 [227] (-126)
8583  00                 [228] (-126)
8584  41                 [229] (-126)
8585  04                 [230] (-125)
8586  00                 [231] (-125)
8587  00                 [232] (-125)
8588  42                 [233] (-124)
8589  04                 [234] (-124)
858A  00                 [235] (-124)
858B  00                 [236] (-124)
858C  42                 [237] (-122)
858D  04                 [238] (-122)
858E  00                 [239] (-122)
858F  00                 [240] (-121)
8590  42                 [241] (-121)
8591  04                 [242] (-121)
8592  00                 [243] (-119)
8593  00                 [244] (-118)
8594  42                 [245] (-118)
8595  04                 [246] (-118)
8596  00                 [247] (-118)
8597  00                 [248] (-118)
8598  42                 [249] (-118)
8599  04                 [250] (-118)
859A  00                 [251] (-115)
859B  00                 [252] (-115)
859C  43                 [253] (-115)
859D  04                 [254] (-114)
859E  00                 [255] (-114)
859F  00                 [256] (-114)
85A0  43                 [257] (-114)
85A1  04                 [258] (-114)
85A2  00                 [259] (-113)
85A3  00                 [260] (-113)
85A4  43                 [261] (-112)
85A5  04                 [262] (-112)
85A6  00                 [263] (-112)
85A7  00                 [264] (-112)
85A8  43                 [265] (-112)
85A9  04                 [266] (-111)
85AA  00                 [267] (-111)
85AB  00                 [268] (-111)
85AC  43                 [269] (-111)
85AD  04                 [270] (-110)
85AE  00                 [271] (-110)
85AF  00                 [272] (-110)
85B0  43                 [273] (-108)
85B1  04                 [274] (-108)
85B2  00                 [275] (-108)
85B3  00                 [276] (-108)
85B4  44                 [277] (-108)
85B5  04                 [278] (-107)
85B6  00                 [279] (-107)
85B7  00                 [280] (-107)
85B8  44                 [281] (-107)
85B9  04                 [282] (-106)
85BA  00                 [283] (-106)
85BB  00                 [284] (-106)
85BC  45                 [285] (-106)
85BD  04                 [286] (-106)
85BE  00                 [287] (-106)
85BF  00                 [288] (-106)
85C0  47                 [289] (-106)
85C1  04                 [290] (-106)
85C2  00                 [291] (-106)
85C3  00                 [292] (-106)
85C4  47                 [293] (-105)
85C5  04                 [294] (-103)
85C6  00                 [295] (-103)
85C7  00                 [296] (-103)
85C8  49                 [297] (-103)
85C9  04                 [298] (-103)
85CA  00                 [299] (-103)
85CB  00                 [300] (-103)
85CC  49                 [301] (-97)
85CD  04                 [302] (-97)
85CE  00                 [303] (-97)
85CF  00                 [304] (-97)
85D0  49                 [305] (-97)
85D1  04                 [306] (-96)
85D2  00                 [307] (-96)
85D3  00                 [308] (-96)
85D4  49                 [309] (-96)
85D5  04                 [310] (-96)
85D6  00                 [311] (-96)
85D7  00                 [312] (-95)
85D8  49                 [313] (-95)
85D9  04                 [314] (-95)
85DA  00                 [315] (-95)
85DB  00                 [316] (-95)
85DC  4A                 [317] (-94)
85DD  04                 [318] (-94)
85DE  00                 [319] (-94)
85DF  00                 [320] (-93)
85E0  4A                 [321] (-93)
85E1  04                 [322] (-93)
85E2  00                 [323] (-92)
85E3  00                 [324] (-92)
85E4  4A                 [325] (-92)
85E5  04                 [326] (-91)
85E6  00                 [327] (-91)
85E7  00                 [328] (-91)
85E8  4A                 [329] (-91)
85E9  04                 [330] (-91)
85EA  00                 [331] (-90)
85EB  00                 [332] (-90)
85EC  4A                 [333] (-90)
85ED  04                 [334] (-90)
85EE  00                 [335] (-88)
85EF  00                 [336] (-88)
85F0  4A                 [337] (-88)
85F1  04                 [338] (-88)
85F2  00                 [339] (-88)
85F3  00                 [340] (-88)
85F4  4B                 [341] (-88)
85F5  04                 [342] (-86)
85F6  00                 [343] (-86)
85F7  00                 [344] (-86)
85F8  4B                 [345] (-85)
85F9  04                 [346] (-85)
85FA  00                 [347] (-85)
85FB  00                 [348] (-85)
85FC  4B                 [349] (-85)
85FD  04                 [350] (-84)
85FE  00                 [351] (-84)
85FF  00                 [352] (-84)
8600  4B                 [353] (-84)
8601  04                 [354] (-84)
8602  00                 [355] (-84)
8603  00                 [356] (-83)
8604  4B                 [357] (-83)
8605  04                 [358] (-83)
8606  00                 [359] (-83)
8607  00                 [360] (-83)
8608  4C                 [361] (-81)
8609  04                 [362] (-81)
860A  00                 [363] (-80)
860B  00                 [364] (-80)
860C  4C                 [365] (-80)
860D  04                 [366] (-80)
860E  00                 [367] (-80)
860F  00                 [368] (-78)
8610  4C                 [369] (-78)
8611  04                 [370] (-78)
8612  00                 [371] (-78)
8613  00                 [372] (-78)
8614  4D                 [373] (-78)
8615  04                 [374] (-77)
8616  00                 [375] (-77)
8617  00                 [376] (-77)
8618  4D                 [377] (-77)
8619  04                 [378] (-77)
861A  00                 [379] (-77)
861B  00                 [380] (-74)
861C  4D                 [381] (-74)
861D  04                 [382] (-74)
861E  00                 [383] (-74)
861F  00                 [384] (-74)
8620  4F                 [385] (-74)
8621  04                 [386] (-74)
8622  00                 [387] (-73)
8623  00                 [388] (-73)
8624  4F                 [389] (-73)
8625  04                 [390] (-73)
8626  00                 [391] (-73)
8627  00                 [392] (-73)
8628  4F                 [393] (-73)
8629  04                 [394] (-73)
862A  00                 [395] (-73)
862B  00                 [396] (-73)
862C  4F                 [397] (-72)
862D  04                 [398] (-72)
862E  00                 [399] (-72)
862F  00                 [400] (-72)
8630  50                 [401] (-70)
8631  04                 [402] (-70)
8632  00                 [403] (-70)
8633  00                 [404] (-70)
8634  51                 [405] (-70)
8635  04                 [406] (-68)
8636  00                 [407] (-68)
8637  00                 [408] (-68)
8638  51                 [409] (-62)
8639  04                 [410] (-62)
863A  00                 [411] (-61)
863B  00                 [412] (-55)
                         * locals:
8B10  00                 sizelocvars (0)
                         * upvalues:
8B11  00                 sizeupvalues (0)
                         ** end of function **

                         
8B12                     ** function [19] definition (level 2)
                         ** start of function **
8B12  00                 string size (0)
                         source name: (none)
8B14  09                 line defined (1227)
8B15  EA                 last line defined (1258)
8B16  09                 nups (6)
8B17  06                 numparams (0)
8B18  00                 is_vararg (0)
8B19  00                 maxstacksize (5)
                         * code:
8B1B  4C                 sizecode (76)
8B1C  13000000           [01] getupval   0   0      
8B20  24004000           [02] self       0   0   256  ; 739620187
8B24  22800001           [03] call       0   2   2  
8B28  18400000           [04] test       0       1    ; to [6] if false
8B2C  1A000080           [05] jmp        1            ; to [7]
8B30  1E008000           [06] return     0   1      
8B34  1D400000           [07] getglobal  0   1        ; _T
8B38  0E804000           [08] gettable   0   0   258  ; "ScenarioBeaconInviteInfo"
fail op	35
8B3C  63C04000           [09] close      1  
8B40  1A000380           [10] jmp        13           ; to [24]
8B44  1D400000           [11] getglobal  0   1        ; _T
8B48  0E804000           [12] gettable   0   0   258  ; "ScenarioBeaconInviteInfo"
8B4C  0E004100           [13] gettable   0   0   260  ; "inviteLoadOutInfo"
fail op	35
8B50  63C04000           [14] close      1  
8B54  1AC00180           [15] jmp        8            ; to [24]
8B58  1D400000           [16] getglobal  0   1        ; _T
8B5C  0E804000           [17] gettable   0   0   258  ; "ScenarioBeaconInviteInfo"
8B60  0E004100           [18] gettable   0   0   260  ; "inviteLoadOutInfo"
8B64  24404100           [19] self       0   0   261  ; -1128233136
8B68  22800001           [20] call       0   2   2  
8B6C  18400000           [21] test       0       1    ; to [23] if false
8B70  1A000080           [22] jmp        1            ; to [24]
8B74  1E008000           [23] return     0   1      
8B78  13000000           [24] getupval   0   0      
8B7C  24804100           [25] self       0   0   262  ; 729320363
8B80  22800001           [26] call       0   2   2  
8B84  18000000           [27] test       0       0    ; to [29] if true
8B88  1A800B80           [28] jmp        47           ; to [76]
8B8C  13008000           [29] getupval   0   1      
8B90  18000000           [30] test       0       0    ; to [32] if true
8B94  1A400280           [31] jmp        10           ; to [42]
8B98  1DC00100           [32] getglobal  0   7        ; 1074689893
8B9C  53000001           [33] getupval   1   2      
8BA0  22800001           [34] call       0   2   2  
8BA4  18400000           [35] test       0       1    ; to [37] if false
8BA8  1A000180           [36] jmp        5            ; to [42]
8BAC  13000001           [37] getupval   0   2      
8BB0  24004200           [38] self       0   0   264  ; 1167009705
8BB4  99400200           [39] loadk      2   9        ; "OnPortraitLoaded"
8BB8  D9800200           [40] loadk      3   10       ; ""
8BBC  22400002           [41] call       0   4   1  
8BC0  17008000           [42] loadbool   0   1   0    ; true
fail op	8
8BC4  08008001           [43] setupval   0   3      
8BC8  17008000           [44] loadbool   0   1   0    ; true
8BCC  57008000           [45] loadbool   1   1   0    ; true
fail op	8
8BD0  48000002           [46] setupval   1   4      
8BD4  5D400000           [47] getglobal  1   1        ; _T
8BD8  4EC0C200           [48] gettable   1   1   267  ; "KeepTransmissionBgRegion"
8BDC  58000000           [49] test       1       0    ; to [51] if true
8BE0  1A800480           [50] jmp        19           ; to [70]
8BE4  5DC00100           [51] getglobal  1   7        ; 1074689893
8BE8  9D000300           [52] getglobal  2   12       ; gBackgroundRegion
8BEC  62800001           [53] call       1   2   2  
8BF0  58400000           [54] test       1       1    ; to [56] if false
8BF4  1A400380           [55] jmp        14           ; to [70]
8BF8  5D000300           [56] getglobal  1   12       ; gBackgroundRegion
8BFC  6440C300           [57] self       1   1   269  ; 1250786858
8C00  62800001           [58] call       1   2   2  
8C04  93000000           [59] getupval   2   0      
8C08  8E804301           [60] gettable   2   2   270  ; "mLevel"
fail op	35
8C0C  23808000           [61] close      0  
8C10  1AC00080           [62] jmp        4            ; to [67]
8C14  17000000           [63] loadbool   0   0   0    ; false
8C18  97000000           [64] loadbool   2   0   0    ; false
fail op	8
8C1C  88000002           [65] setupval   2   4      
8C20  1A800080           [66] jmp        3            ; to [70]
8C24  9DC00300           [67] getglobal  2   15       ; gFlashMgr
8C28  A4004401           [68] self       2   2   272  ; -991492797
8C2C  A2400001           [69] call       2   2   1  
8C30  93000000           [70] getupval   2   0      
8C34  A4404401           [71] self       2   2   273  ; 48435800
fail op	9
8C38  09010000           [72] settable   4   0   0  
8C3C  A2408001           [73] call       2   3   1  
8C40  93008002           [74] getupval   2   5      
8C44  A2408000           [75] call       2   1   1  
8C48  1E008000           [76] return     0   1      
                         * constants:
8C4C  12                 sizek (18)
8C4D  01                 const type 3
8C4E  5BB5152C           const [0]: (739620187)
8C52  04                 const type 4
8C53  03                 string size (3)
8C54  5F5400             "_T\0"
                         const [1]: "_T"
8C57  04                 const type 4
8C58  19                 string size (25)
8C59  5363656E6172696F+  "Scenario"
8C61  426561636F6E496E+  "BeaconIn"
8C69  76697465496E666F+  "viteInfo"
8C71  00                 "\0"
                         const [2]: "ScenarioBeaconInviteInfo"
8C72  00                 const type 0
                         const [3]: nil
8C73  04                 const type 4
8C74  12                 string size (18)
8C75  696E766974654C6F+  "inviteLo"
8C7D  61644F7574496E66+  "adOutInf"
8C85  6F00               "o\0"
                         const [4]: "inviteLoadOutInfo"
8C87  01                 const type 3
8C88  5087C0BC           const [5]: (-1128233136)
8C8C  01                 const type 3
8C8D  AB8B782B           const [6]: (729320363)
8C91  01                 const type 3
8C92  65770E40           const [7]: (1074689893)
8C96  01                 const type 3
8C97  A9278F45           const [8]: (1167009705)
8C9B  04                 const type 4
8C9C  11                 string size (17)
8C9D  4F6E506F72747261+  "OnPortra"
8CA5  69744C6F61646564+  "itLoaded"
8CAD  00                 "\0"
                         const [9]: "OnPortraitLoaded"
8CAE  04                 const type 4
8CAF  01                 string size (0)
                         const [10]: ""
8CB1  04                 const type 4
8CB2  19                 string size (25)
8CB3  4B6565705472616E+  "KeepTran"
8CBB  736D697373696F6E+  "smission"
8CC3  4267526567696F6E+  "BgRegion"
8CCB  00                 "\0"
                         const [11]: "KeepTransmissionBgRegion"
8CCC  04                 const type 4
8CCD  12                 string size (18)
8CCE  674261636B67726F+  "gBackgro"
8CD6  756E64526567696F+  "undRegio"
8CDE  6E00               "n\0"
                         const [12]: "gBackgroundRegion"
8CE0  01                 const type 3
8CE1  2A7E8D4A           const [13]: (1250786858)
8CE5  04                 const type 4
8CE6  07                 string size (7)
8CE7  6D4C6576656C00     "mLevel\0"
                         const [14]: "mLevel"
8CEE  04                 const type 4
8CEF  0A                 string size (10)
8CF0  67466C6173684D67+  "gFlashMg"
8CF8  7200               "r\0"
                         const [15]: "gFlashMgr"
8CFA  01                 const type 3
8CFB  4305E7C4           const [16]: (-991492797)
8CFF  01                 const type 3
8D00  5812E302           const [17]: (48435800)
                         * functions:
8D04  00                 sizep (0)
                         * lines:
8D05  4C                 sizelineinfo (76)
                         [pc] (line)
8D06  CC                 [01] (-52)
8D07  04                 [02] (-52)
8D08  00                 [03] (-52)
8D09  00                 [04] (-52)
8D0A  CC                 [05] (-52)
8D0B  04                 [06] (-51)
8D0C  00                 [07] (-48)
8D0D  00                 [08] (-48)
8D0E  CC                 [09] (-48)
8D0F  04                 [10] (-48)
8D10  00                 [11] (-48)
8D11  00                 [12] (-48)
8D12  CC                 [13] (-48)
8D13  04                 [14] (-48)
8D14  00                 [15] (-48)
8D15  00                 [16] (-48)
8D16  CC                 [17] (-48)
8D17  04                 [18] (-48)
8D18  00                 [19] (-48)
8D19  00                 [20] (-48)
8D1A  CD                 [21] (-48)
8D1B  04                 [22] (-48)
8D1C  00                 [23] (-47)
8D1D  00                 [24] (-44)
8D1E  D0                 [25] (-44)
8D1F  04                 [26] (-44)
8D20  00                 [27] (-44)
8D21  00                 [28] (-44)
8D22  D0                 [29] (-43)
8D23  04                 [30] (-43)
8D24  00                 [31] (-43)
8D25  00                 [32] (-43)
8D26  D0                 [33] (-43)
8D27  04                 [34] (-43)
8D28  00                 [35] (-43)
8D29  00                 [36] (-43)
8D2A  D0                 [37] (-42)
8D2B  04                 [38] (-42)
8D2C  00                 [39] (-42)
8D2D  00                 [40] (-42)
8D2E  D0                 [41] (-42)
8D2F  04                 [42] (-39)
8D30  00                 [43] (-39)
8D31  00                 [44] (-38)
8D32  D0                 [45] (-37)
8D33  04                 [46] (-37)
8D34  00                 [47] (-36)
8D35  00                 [48] (-36)
8D36  D0                 [49] (-36)
8D37  04                 [50] (-36)
8D38  00                 [51] (-35)
8D39  00                 [52] (-35)
8D3A  D0                 [53] (-35)
8D3B  04                 [54] (-35)
8D3C  00                 [55] (-35)
8D3D  00                 [56] (-34)
8D3E  D0                 [57] (-34)
8D3F  04                 [58] (-34)
8D40  00                 [59] (-33)
8D41  00                 [60] (-33)
8D42  D0                 [61] (-33)
8D43  04                 [62] (-33)
8D44  00                 [63] (-32)
8D45  00                 [64] (-31)
8D46  D0                 [65] (-31)
8D47  04                 [66] (-31)
8D48  00                 [67] (-29)
8D49  00                 [68] (-29)
8D4A  D0                 [69] (-29)
8D4B  04                 [70] (-25)
8D4C  00                 [71] (-25)
8D4D  00                 [72] (-25)
8D4E  D0                 [73] (-25)
8D4F  04                 [74] (-24)
8D50  00                 [75] (-24)
8D51  00                 [76] (-22)
                         * locals:
8E36  00                 sizelocvars (0)
                         * upvalues:
8E37  00                 sizeupvalues (0)
                         ** end of function **

                         
8E38                     ** function [20] definition (level 2)
                         ** start of function **
8E38  00                 string size (0)
                         source name: (none)
8E3A  09                 line defined (1260)
8E3B  FE                 last line defined (1278)
8E3C  09                 nups (6)
8E3D  06                 numparams (0)
8E3E  00                 is_vararg (0)
8E3F  00                 maxstacksize (6)
                         * code:
8E41  34                 sizecode (52)
8E42  1D000000           [01] getglobal  0   0        ; _T
8E46  0C80C080           [02] settable   0   257 258  ; "OrdisSpeaking" nil
8E4A  13000000           [03] getupval   0   0      
8E4E  18000000           [04] test       0       0    ; to [6] if true
8E52  1A400B80           [05] jmp        46           ; to [52]
8E56  17000000           [06] loadbool   0   0   0    ; false
fail op	8
8E5A  08000000           [07] setupval   0   0      
8E5E  13008000           [08] getupval   0   1      
8E62  18000000           [09] test       0       0    ; to [11] if true
8E66  1A400880           [10] jmp        34           ; to [45]
8E6A  1DC00000           [11] getglobal  0   3        ; 1074689893
8E6E  53000001           [12] getupval   1   2      
8E72  22800001           [13] call       0   2   2  
8E76  18400000           [14] test       0       1    ; to [16] if false
8E7A  1AC00080           [15] jmp        4            ; to [20]
8E7E  1D000100           [16] getglobal  0   4        ; gPortraitRegion
8E82  24404100           [17] self       0   0   261  ; -1693828985
8E86  93000001           [18] getupval   2   2      
8E8A  22408001           [19] call       0   3   1  
8E8E  1D800100           [20] getglobal  0   6        ; gFlashMgr
8E92  24C04100           [21] self       0   0   263  ; -1784585167
8E96  93008001           [22] getupval   2   3      
8E9A  98400000           [23] test       2       1    ; to [25] if false
8E9E  1AC00380           [24] jmp        16           ; to [41]
8EA2  93000002           [25] getupval   2   4      
8EA6  8E004201           [26] gettable   2   2   264  ; -132701534
8EAA  D3008002           [27] getupval   3   5      
8EAE  1D010000           [28] getglobal  4   0        ; _T
8EB2  0E414202           [29] gettable   4   4   265  ; "TransmissionOverrideMainClipName"
fail op	35
8EB6  23008101           [30] close      0  
8EBA  1AC00080           [31] jmp        4            ; to [36]
8EBE  DD000000           [32] getglobal  3   0        ; _T
8EC2  CE80C201           [33] gettable   3   3   266  ; "TransmissionOverrideRecycle"
fail op	9
8EC6  C9008001           [34] settable   3   3   0  
8ECA  1A400080           [35] jmp        2            ; to [38]
8ECE  D7400000           [36] loadbool   3   0   1    ; false, to [38]
8ED2  D7008000           [37] loadbool   3   1   0    ; true
8ED6  17018000           [38] loadbool   4   1   0    ; true
8EDA  57010000           [39] loadbool   5   0   0    ; false
8EDE  A2800002           [40] call       2   4   2  
8EE2  22408001           [41] call       0   3   1  
8EE6  1D000000           [42] getglobal  0   0        ; _T
8EEA  0C804085           [43] settable   0   266 258  ; "TransmissionOverrideRecycle" nil
8EEE  1A800180           [44] jmp        7            ; to [52]
8EF2  1D000000           [45] getglobal  0   0        ; _T
8EF6  0EC04200           [46] gettable   0   0   267  ; "KeepTransmissionBgRegion"
8EFA  18400000           [47] test       0       1    ; to [49] if false
8EFE  1A800080           [48] jmp        3            ; to [52]
8F02  1D800100           [49] getglobal  0   6        ; gFlashMgr
8F06  24004300           [50] self       0   0   268  ; -991492797
8F0A  22400001           [51] call       0   2   1  
8F0E  1E008000           [52] return     0   1      
                         * constants:
8F12  0D                 sizek (13)
8F13  04                 const type 4
8F14  03                 string size (3)
8F15  5F5400             "_T\0"
                         const [0]: "_T"
8F18  04                 const type 4
8F19  0E                 string size (14)
8F1A  4F72646973537065+  "OrdisSpe"
8F22  616B696E6700       "aking\0"
                         const [1]: "OrdisSpeaking"
8F28  00                 const type 0
                         const [2]: nil
8F29  01                 const type 3
8F2A  65770E40           const [3]: (1074689893)
8F2E  04                 const type 4
8F2F  10                 string size (16)
8F30  67506F7274726169+  "gPortrai"
8F38  74526567696F6E00   "tRegion\0"
                         const [4]: "gPortraitRegion"
8F40  01                 const type 3
8F41  87380A9B           const [5]: (-1693828985)
8F45  04                 const type 4
8F46  0A                 string size (10)
8F47  67466C6173684D67+  "gFlashMg"
8F4F  7200               "r\0"
                         const [6]: "gFlashMgr"
8F51  01                 const type 3
8F52  3164A195           const [7]: (-1784585167)
8F56  01                 const type 3
8F57  A22217F8           const [8]: (-132701534)
8F5B  04                 const type 4
8F5C  21                 string size (33)
8F5D  5472616E736D6973+  "Transmis"
8F65  73696F6E4F766572+  "sionOver"
8F6D  726964654D61696E+  "rideMain"
8F75  436C69704E616D65+  "ClipName"
8F7D  00                 "\0"
                         const [9]: "TransmissionOverrideMainClipName"
8F7E  04                 const type 4
8F7F  1C                 string size (28)
8F80  5472616E736D6973+  "Transmis"
8F88  73696F6E4F766572+  "sionOver"
8F90  7269646552656379+  "rideRecy"
8F98  636C6500           "cle\0"
                         const [10]: "TransmissionOverrideRecycle"
8F9C  04                 const type 4
8F9D  19                 string size (25)
8F9E  4B6565705472616E+  "KeepTran"
8FA6  736D697373696F6E+  "smission"
8FAE  4267526567696F6E+  "BgRegion"
8FB6  00                 "\0"
                         const [11]: "KeepTransmissionBgRegion"
8FB7  01                 const type 3
8FB8  4305E7C4           const [12]: (-991492797)
                         * functions:
8FBC  00                 sizep (0)
                         * lines:
8FBD  34                 sizelineinfo (52)
                         [pc] (line)
8FBE  ED                 [01] (-19)
8FBF  04                 [02] (-19)
8FC0  00                 [03] (-14)
8FC1  00                 [04] (-14)
8FC2  ED                 [05] (-14)
8FC3  04                 [06] (-13)
8FC4  00                 [07] (-13)
8FC5  00                 [08] (-12)
8FC6  F2                 [09] (-12)
8FC7  04                 [10] (-12)
8FC8  00                 [11] (-11)
8FC9  00                 [12] (-11)
8FCA  F2                 [13] (-11)
8FCB  04                 [14] (-11)
8FCC  00                 [15] (-11)
8FCD  00                 [16] (-10)
8FCE  F2                 [17] (-10)
8FCF  04                 [18] (-10)
8FD0  00                 [19] (-10)
8FD1  00                 [20] (-8)
8FD2  F3                 [21] (-8)
8FD3  04                 [22] (-8)
8FD4  00                 [23] (-8)
8FD5  00                 [24] (-8)
8FD6  F3                 [25] (-8)
8FD7  04                 [26] (-8)
8FD8  00                 [27] (-8)
8FD9  00                 [28] (-8)
8FDA  F4                 [29] (-8)
8FDB  04                 [30] (-8)
8FDC  00                 [31] (-8)
8FDD  00                 [32] (-8)
8FDE  F4                 [33] (-8)
8FDF  04                 [34] (-8)
8FE0  00                 [35] (-8)
8FE1  00                 [36] (-8)
8FE2  F4                 [37] (-8)
8FE3  04                 [38] (-8)
8FE4  00                 [39] (-8)
8FE5  00                 [40] (-8)
8FE6  F5                 [41] (-8)
8FE7  04                 [42] (-7)
8FE8  00                 [43] (-7)
8FE9  00                 [44] (-7)
8FEA  F5                 [45] (-6)
8FEB  04                 [46] (-6)
8FEC  00                 [47] (-6)
8FED  00                 [48] (-6)
8FEE  F5                 [49] (-5)
8FEF  04                 [50] (-5)
8FF0  00                 [51] (-5)
8FF1  00                 [52] (-2)
                         * locals:
908E  00                 sizelocvars (0)
                         * upvalues:
908F  00                 sizeupvalues (0)
                         ** end of function **

                         
9090                     ** function [21] definition (level 2)
                         ** start of function **
9090  00                 string size (0)
                         source name: (none)
9092  0A                 line defined (1280)
9093  8B                 last line defined (1291)
9094  0A                 nups (2)
9095  02                 numparams (1)
9096  01                 is_vararg (0)
9097  00                 maxstacksize (4)
                         * code:
9099  1E                 sizecode (30)
fail op	35
909A  63004000           [01] close      1  
909E  1A400080           [02] jmp        2            ; to [5]
90A2  18400000           [03] test       0       1    ; to [5] if false
90A6  1AC00180           [04] jmp        8            ; to [13]
90AA  5D400000           [05] getglobal  1   1        ; _T
90AE  4E80C000           [06] gettable   1   1   258  ; "curTransmission"
fail op	35
90B2  2300C000           [07] close      0  
90B6  1AC00080           [08] jmp        4            ; to [13]
90BA  53000000           [09] getupval   1   0      
fail op	35
90BE  2300C000           [10] close      0  
90C2  1A000080           [11] jmp        1            ; to [13]
90C6  1E008000           [12] return     0   1      
90CA  5DC00000           [13] getglobal  1   3        ; 1074689893
90CE  93008000           [14] getupval   2   1      
90D2  62800001           [15] call       1   2   2  
90D6  58400000           [16] test       1       1    ; to [18] if false
90DA  1AC00080           [17] jmp        4            ; to [22]
90DE  53008000           [18] getupval   1   1      
90E2  6400C100           [19] self       1   1   260  ; 675444810
90E6  D7008000           [20] loadbool   3   1   0    ; true
90EA  62408001           [21] call       1   3   1  
90EE  5DC00000           [22] getglobal  1   3        ; 1074689893
90F2  9D400100           [23] getglobal  2   5        ; mMovie
90F6  62800001           [24] call       1   2   2  
90FA  58400000           [25] test       1       1    ; to [27] if false
90FE  1A800080           [26] jmp        3            ; to [30]
9102  5D400100           [27] getglobal  1   5        ; mMovie
9106  6480C100           [28] self       1   1   262  ; -1517569684
910A  62400001           [29] call       1   2   1  
910E  1E008000           [30] return     0   1      
                         * constants:
9112  07                 sizek (7)
9113  00                 const type 0
                         const [0]: nil
9114  04                 const type 4
9115  03                 string size (3)
9116  5F5400             "_T\0"
                         const [1]: "_T"
9119  04                 const type 4
911A  10                 string size (16)
911B  6375725472616E73+  "curTrans"
9123  6D697373696F6E00   "mission\0"
                         const [2]: "curTransmission"
912B  01                 const type 3
912C  65770E40           const [3]: (1074689893)
9130  01                 const type 3
9131  4A784228           const [4]: (675444810)
9135  04                 const type 4
9136  07                 string size (7)
9137  6D4D6F76696500     "mMovie\0"
                         const [5]: "mMovie"
913E  01                 const type 3
913F  6CB98BA5           const [6]: (-1517569684)
                         * functions:
9143  00                 sizep (0)
                         * lines:
9144  1E                 sizelineinfo (30)
                         [pc] (line)
9145  01                 [01] (1)
9146  05                 [02] (1)
9147  00                 [03] (1)
9148  00                 [04] (1)
9149  01                 [05] (1)
914A  05                 [06] (1)
914B  00                 [07] (1)
914C  00                 [08] (1)
914D  01                 [09] (1)
914E  05                 [10] (1)
914F  00                 [11] (1)
9150  00                 [12] (2)
9151  01                 [13] (5)
9152  05                 [14] (5)
9153  00                 [15] (5)
9154  00                 [16] (5)
9155  01                 [17] (5)
9156  05                 [18] (6)
9157  00                 [19] (6)
9158  00                 [20] (6)
9159  01                 [21] (6)
915A  05                 [22] (8)
915B  00                 [23] (8)
915C  00                 [24] (8)
915D  01                 [25] (8)
915E  05                 [26] (8)
915F  00                 [27] (9)
9160  00                 [28] (9)
9161  01                 [29] (9)
9162  05                 [30] (11)
                         * locals:
91BD  00                 sizelocvars (0)
                         * upvalues:
91BE  00                 sizeupvalues (0)
                         ** end of function **

                         
91BF                     ** function [22] definition (level 2)
                         ** start of function **
91BF  00                 string size (0)
                         source name: (none)
91C1  0A                 line defined (1293)
91C2  9E                 last line defined (1310)
91C3  0A                 nups (8)
91C4  08                 numparams (0)
91C5  00                 is_vararg (0)
91C6  00                 maxstacksize (6)
                         * code:
91C8  37                 sizecode (55)
91C9  1D000000           [01] getglobal  0   0        ; _T
91CD  0C80C080           [02] settable   0   257 258  ; "curTransmission" nil
91D1  1DC00000           [03] getglobal  0   3        ; 1074689893
91D5  53000000           [04] getupval   1   0      
91D9  22800001           [05] call       0   2   2  
91DD  18400000           [06] test       0       1    ; to [8] if false
91E1  1A400180           [07] jmp        6            ; to [14]
91E5  13000000           [08] getupval   0   0      
91E9  24004100           [09] self       0   0   260  ; 675444810
91ED  97008000           [10] loadbool   2   1   0    ; true
91F1  22408001           [11] call       0   3   1  
91F5  06000000           [12] loadnil    0   0      
fail op	8
91F9  08000000           [13] setupval   0   0      
91FD  1DC00000           [14] getglobal  0   3        ; 1074689893
9201  53008000           [15] getupval   1   1      
9205  22800001           [16] call       0   2   2  
9209  18400000           [17] test       0       1    ; to [19] if false
920D  1A400180           [18] jmp        6            ; to [25]
9211  13008000           [19] getupval   0   1      
9215  24004100           [20] self       0   0   260  ; 675444810
9219  97008000           [21] loadbool   2   1   0    ; true
921D  22408001           [22] call       0   3   1  
9221  06000000           [23] loadnil    0   0      
fail op	8
9225  08008000           [24] setupval   0   1      
9229  13008001           [25] getupval   0   3      
fail op	8
922D  08000001           [26] setupval   0   2      
9231  19400100           [27] loadk      0   5        ; 0
fail op	8
9235  08000002           [28] setupval   0   4      
9239  13008002           [29] getupval   0   5      
923D  24804100           [30] self       0   0   262  ; -2013161817
9241  93000003           [31] getupval   2   6      
9245  D9C00100           [32] loadk      3   7        ; "Waveform"
9249  19010200           [33] loadk      4   8        ; "_alpha"
924D  59410100           [34] loadk      5   5        ; 0
9251  22400003           [35] call       0   6   1  
9255  1D400200           [36] getglobal  0   9        ; Engine
9259  0E804200           [37] gettable   0   0   266  ; 328784635
925D  22808000           [38] call       0   1   2  
9261  18400000           [39] test       0       1    ; to [41] if false
9265  1A400380           [40] jmp        14           ; to [55]
9269  1DC00000           [41] getglobal  0   3        ; 1074689893
926D  53008003           [42] getupval   1   7      
9271  22800001           [43] call       0   2   2  
9275  18400000           [44] test       0       1    ; to [46] if false
9279  1A000280           [45] jmp        9            ; to [55]
927D  13008003           [46] getupval   0   7      
9281  24C04200           [47] self       0   0   267  ; -342618041
9285  22800001           [48] call       0   2   2  
9289  18000000           [49] test       0       0    ; to [51] if true
928D  1AC00080           [50] jmp        4            ; to [55]
9291  13008003           [51] getupval   0   7      
9295  24004300           [52] self       0   0   268  ; -1864334350
9299  97000000           [53] loadbool   2   0   0    ; false
929D  22408001           [54] call       0   3   1  
92A1  1E008000           [55] return     0   1      
                         * constants:
92A5  0D                 sizek (13)
92A6  04                 const type 4
92A7  03                 string size (3)
92A8  5F5400             "_T\0"
                         const [0]: "_T"
92AB  04                 const type 4
92AC  10                 string size (16)
92AD  6375725472616E73+  "curTrans"
92B5  6D697373696F6E00   "mission\0"
                         const [1]: "curTransmission"
92BD  00                 const type 0
                         const [2]: nil
92BE  01                 const type 3
92BF  65770E40           const [3]: (1074689893)
92C3  01                 const type 3
92C4  4A784228           const [4]: (675444810)
92C8  03                 const type 3
92C9  00000000           const [5]: (0)
92CD  01                 const type 3
92CE  A7960188           const [6]: (-2013161817)
92D2  04                 const type 4
92D3  09                 string size (9)
92D4  57617665666F726D+  "Waveform"
92DC  00                 "\0"
                         const [7]: "Waveform"
92DD  04                 const type 4
92DE  07                 string size (7)
92DF  5F616C70686100     "_alpha\0"
                         const [8]: "_alpha"
92E6  04                 const type 4
92E7  07                 string size (7)
92E8  456E67696E6500     "Engine\0"
                         const [9]: "Engine"
92EF  01                 const type 3
92F0  FBDA9813           const [10]: (328784635)
92F4  01                 const type 3
92F5  471094EB           const [11]: (-342618041)
92F9  01                 const type 3
92FA  F283E090           const [12]: (-1864334350)
                         * functions:
92FE  00                 sizep (0)
                         * lines:
92FF  37                 sizelineinfo (55)
                         [pc] (line)
9300  0E                 [01] (14)
9301  05                 [02] (14)
9302  00                 [03] (15)
9303  00                 [04] (15)
9304  0E                 [05] (15)
9305  05                 [06] (15)
9306  00                 [07] (15)
9307  00                 [08] (16)
9308  0F                 [09] (16)
9309  05                 [10] (16)
930A  00                 [11] (16)
930B  00                 [12] (17)
930C  0F                 [13] (17)
930D  05                 [14] (19)
930E  00                 [15] (19)
930F  00                 [16] (19)
9310  0F                 [17] (19)
9311  05                 [18] (19)
9312  00                 [19] (20)
9313  00                 [20] (20)
9314  0F                 [21] (20)
9315  05                 [22] (20)
9316  00                 [23] (21)
9317  00                 [24] (21)
9318  0F                 [25] (23)
9319  05                 [26] (23)
931A  00                 [27] (24)
931B  00                 [28] (24)
931C  10                 [29] (25)
931D  05                 [30] (25)
931E  00                 [31] (25)
931F  00                 [32] (25)
9320  10                 [33] (25)
9321  05                 [34] (25)
9322  00                 [35] (25)
9323  00                 [36] (27)
9324  10                 [37] (27)
9325  05                 [38] (27)
9326  00                 [39] (27)
9327  00                 [40] (27)
9328  10                 [41] (27)
9329  05                 [42] (27)
932A  00                 [43] (27)
932B  00                 [44] (27)
932C  11                 [45] (27)
932D  05                 [46] (27)
932E  00                 [47] (27)
932F  00                 [48] (27)
9330  11                 [49] (27)
9331  05                 [50] (27)
9332  00                 [51] (28)
9333  00                 [52] (28)
9334  13                 [53] (28)
9335  05                 [54] (28)
9336  00                 [55] (30)
                         * locals:
93DC  00                 sizelocvars (0)
                         * upvalues:
93DD  00                 sizeupvalues (0)
                         ** end of function **

                         
93DE                     ** function [23] definition (level 2)
                         ** start of function **
93DE  00                 string size (0)
                         source name: (none)
93E0  0A                 line defined (1312)
93E1  C1                 last line defined (1601)
93E2  0C                 nups (43)
93E3  2B                 numparams (0)
93E4  00                 is_vararg (0)
93E5  00                 maxstacksize (39)
                         * code:
93E8  07                 sizecode (985)
93E9  1D000000           [001] getglobal  0   0        ; 1074689893
93ED  5D400000           [002] getglobal  1   1        ; mMovie
93F1  22800001           [003] call       0   2   2  
93F5  18400000           [004] test       0       1    ; to [6] if false
93F9  1A000180           [005] jmp        5            ; to [11]
93FD  1D000000           [006] getglobal  0   0        ; 1074689893
9401  53000000           [007] getupval   1   0      
9405  22800001           [008] call       0   2   2  
9409  18000000           [009] test       0       0    ; to [11] if true
940D  1A000080           [010] jmp        1            ; to [12]
9411  1E008000           [011] return     0   1      
9415  13008000           [012] getupval   0   1      
9419  18000000           [013] test       0       0    ; to [15] if true
941D  1AC00080           [014] jmp        4            ; to [19]
9421  13000001           [015] getupval   0   2      
9425  22408000           [016] call       0   1   1  
9429  17000000           [017] loadbool   0   0   0    ; false
fail op	8
942D  08008000           [018] setupval   0   1      
9431  1D400000           [019] getglobal  0   1        ; mMovie
9435  24804000           [020] self       0   0   258  ; -695022981
9439  9DC00000           [021] getglobal  2   3        ; _T
943D  8E004101           [022] gettable   2   2   260  ; "RadialSolarMapOpen"
fail op	35
9441  63404101           [023] close      1  
9445  1A000080           [024] jmp        1            ; to [26]
9449  97400000           [025] loadbool   2   0   1    ; false, to [27]
944D  97008000           [026] loadbool   2   1   0    ; true
9451  22408001           [027] call       0   3   1  
9455  13008001           [028] getupval   0   3      
9459  22408000           [029] call       0   1   1  
945D  13000002           [030] getupval   0   4      
9461  22408000           [031] call       0   1   1  
9465  1D000000           [032] getglobal  0   0        ; 1074689893
9469  5DC00000           [033] getglobal  1   3        ; _T
946D  4E80C100           [034] gettable   1   1   262  ; "curTransmission"
9471  22800001           [035] call       0   2   2  
9475  18000000           [036] test       0       0    ; to [38] if true
9479  1A000280           [037] jmp        9            ; to [47]
947D  1DC00000           [038] getglobal  0   3        ; _T
9481  0EC04100           [039] gettable   0   0   263  ; "QueuedTransmissions"
fail op	35
9485  63004200           [040] close      1  
9489  1AC00580           [041] jmp        24           ; to [66]
948D  1DC00000           [042] getglobal  0   3        ; _T
9491  0EC04100           [043] gettable   0   0   263  ; "QueuedTransmissions"
9495  0A000000           [044] len        0   0      
fail op	35
9499  63404200           [045] close      1  
949D  1A800480           [046] jmp        19           ; to [66]
94A1  1D800200           [047] getglobal  0   10       ; _G
94A5  0EC04200           [048] gettable   0   0   267  ; "StalkerMode"
94A9  18000000           [049] test       0       0    ; to [51] if true
94AD  1A000580           [050] jmp        21           ; to [72]
94B1  1D000000           [051] getglobal  0   0        ; 1074689893
94B5  5DC00000           [052] getglobal  1   3        ; _T
94B9  4E80C100           [053] gettable   1   1   262  ; "curTransmission"
94BD  22800001           [054] call       0   2   2  
94C1  18400000           [055] test       0       1    ; to [57] if false
94C5  1A800380           [056] jmp        15           ; to [72]
94C9  1DC00000           [057] getglobal  0   3        ; _T
94CD  0E804100           [058] gettable   0   0   262  ; "curTransmission"
94D1  24004300           [059] self       0   0   268  ; -1957065004
94D5  9D400300           [060] getglobal  2   13       ; 738251817
94D9  D9800300           [061] loadk      3   14       ; "/Lotus/Types/Game/Transmissions/StalkerTransmission"
94DD  A2000001           [062] call       2   2   0  
94E1  22800000           [063] call       0   0   2  
94E5  18400000           [064] test       0       1    ; to [66] if false
94E9  1A400180           [065] jmp        6            ; to [72]
94ED  1D400000           [066] getglobal  0   1        ; mMovie
94F1  24C04300           [067] self       0   0   271  ; -1517569684
94F5  22400001           [068] call       0   2   1  
94F9  13008002           [069] getupval   0   5      
94FD  22408000           [070] call       0   1   1  
9501  1E008000           [071] return     0   1      
9505  13000003           [072] getupval   0   6      
9509  22408000           [073] call       0   1   1  
950D  13008003           [074] getupval   0   7      
fail op	35
9511  63004200           [075] close      1  
9515  1A400580           [076] jmp        22           ; to [99]
9519  1D000000           [077] getglobal  0   0        ; 1074689893
951D  53000004           [078] getupval   1   8      
9521  22800001           [079] call       0   2   2  
9525  18400000           [080] test       0       1    ; to [82] if false
9529  1AC00380           [081] jmp        16           ; to [98]
952D  13000004           [082] getupval   0   8      
9531  24004400           [083] self       0   0   272  ; -1344420604
9535  22800001           [084] call       0   2   2  
9539  18000000           [085] test       0       0    ; to [87] if true
953D  1A800280           [086] jmp        11           ; to [98]
9541  1DC00000           [087] getglobal  0   3        ; _T
9545  0EC04100           [088] gettable   0   0   263  ; "QueuedTransmissions"
9549  5D800400           [089] getglobal  1   18       ; 2083004503
954D  9DC00000           [090] getglobal  2   3        ; _T
9551  8EC04101           [091] gettable   2   2   263  ; "QueuedTransmissions"
9555  8E404401           [092] gettable   2   2   273  ; 0
9559  62800001           [093] call       1   2   2  
955D  0C408088           [094] settable   0   273 1    ; 0
9561  06000000           [095] loadnil    0   0      
fail op	8
9565  08008003           [096] setupval   0   7      
9569  1A000080           [097] jmp        1            ; to [99]
956D  1E008000           [098] return     0   1      
9571  1DC00000           [099] getglobal  0   3        ; _T
9575  0EC04400           [100] gettable   0   0   275  ; "velocityCoords"
9579  18000000           [101] test       0       0    ; to [103] if true
957D  1A000680           [102] jmp        25           ; to [128]
9581  13008004           [103] getupval   0   9      
9585  18400000           [104] test       0       1    ; to [106] if false
9589  1A400580           [105] jmp        22           ; to [128]
958D  13000000           [106] getupval   0   0      
9591  24004500           [107] self       0   0   276  ; 471456102
9595  99400500           [108] loadk      2   21       ; "_root"
9599  D9800500           [109] loadk      3   22       ; "_x"
959D  13010005           [110] getupval   4   10     
95A1  0EC14502           [111] gettable   4   4   279  ; -1250011425
95A5  5DC10000           [112] getglobal  5   3        ; _T
95A9  4EC1C402           [113] gettable   5   5   275  ; "velocityCoords"
95AD  4E01C602           [114] gettable   5   5   280  ; "x"
95B1  22010001           [115] call       4   2   0  
95B5  22400000           [116] call       0   0   1  
95B9  13000000           [117] getupval   0   0      
95BD  24004500           [118] self       0   0   276  ; 471456102
95C1  99400500           [119] loadk      2   21       ; "_root"
95C5  D9400600           [120] loadk      3   25       ; "_y"
95C9  13010005           [121] getupval   4   10     
95CD  0EC14502           [122] gettable   4   4   279  ; -1250011425
95D1  5DC10000           [123] getglobal  5   3        ; _T
95D5  4EC1C402           [124] gettable   5   5   275  ; "velocityCoords"
95D9  4E81C602           [125] gettable   5   5   282  ; "y"
95DD  22010001           [126] call       4   2   0  
95E1  22400000           [127] call       0   0   1  
95E5  17000000           [128] loadbool   0   0   0    ; false
95E9  18000000           [129] test       0       0    ; to [131] if true
95ED  1AC00980           [130] jmp        40           ; to [171]
95F1  1D000000           [131] getglobal  0   0        ; 1074689893
95F5  53008005           [132] getupval   1   11     
95F9  22800001           [133] call       0   2   2  
95FD  18400000           [134] test       0       1    ; to [136] if false
9601  1A800480           [135] jmp        19           ; to [155]
9605  13008005           [136] getupval   0   11     
9609  24C04600           [137] self       0   0   283  ; 675444810
960D  97008000           [138] loadbool   2   1   0    ; true
9611  22408001           [139] call       0   3   1  
9615  06000000           [140] loadnil    0   0      
fail op	8
9619  08008005           [141] setupval   0   11     
961D  1DC00000           [142] getglobal  0   3        ; _T
9621  0C00428E           [143] settable   0   284 264  ; "TransmissionSoundInstance" nil
9625  1D000000           [144] getglobal  0   0        ; 1074689893
9629  53000006           [145] getupval   1   12     
962D  22800001           [146] call       0   2   2  
9631  18400000           [147] test       0       1    ; to [149] if false
9635  1A400180           [148] jmp        6            ; to [155]
9639  13000006           [149] getupval   0   12     
963D  24C04600           [150] self       0   0   283  ; 675444810
9641  97008000           [151] loadbool   2   1   0    ; true
9645  22408001           [152] call       0   3   1  
9649  06000000           [153] loadnil    0   0      
fail op	8
964D  08000006           [154] setupval   0   12     
9651  1D000000           [155] getglobal  0   0        ; 1074689893
9655  5DC00000           [156] getglobal  1   3        ; _T
9659  4E80C100           [157] gettable   1   1   262  ; "curTransmission"
965D  22800001           [158] call       0   2   2  
9661  18400000           [159] test       0       1    ; to [161] if false
9665  1AC00080           [160] jmp        4            ; to [165]
9669  1DC00000           [161] getglobal  0   3        ; _T
966D  0C004283           [162] settable   0   262 264  ; "curTransmission" nil
9671  06000000           [163] loadnil    0   0      
fail op	8
9675  08008006           [164] setupval   0   13     
9679  1D400000           [165] getglobal  0   1        ; mMovie
967D  24C04300           [166] self       0   0   271  ; -1517569684
9681  22400001           [167] call       0   2   1  
9685  13008002           [168] getupval   0   5      
9689  22408000           [169] call       0   1   1  
968D  1E008000           [170] return     0   1      
9691  13008004           [171] getupval   0   9      
9695  18400000           [172] test       0       1    ; to [174] if false
9699  1A000180           [173] jmp        5            ; to [179]
969D  13000000           [174] getupval   0   0      
96A1  24404700           [175] self       0   0   285  ; 135097114
96A5  9D800700           [176] getglobal  2   30       ; 1289681407
96A9  A2008000           [177] call       2   1   0  
96AD  22400000           [178] call       0   0   1  
96B1  1D000000           [179] getglobal  0   0        ; 1074689893
96B5  5DC00000           [180] getglobal  1   3        ; _T
96B9  4E80C100           [181] gettable   1   1   262  ; "curTransmission"
96BD  22800001           [182] call       0   2   2  
96C1  18000000           [183] test       0       0    ; to [185] if true
96C5  1AC05380           [184] jmp        336          ; to [521]
96C9  1DC00000           [185] getglobal  0   3        ; _T
96CD  0EC04700           [186] gettable   0   0   287  ; "pauseTransmissions"
96D1  18400000           [187] test       0       1    ; to [189] if false
96D5  1AC05280           [188] jmp        332          ; to [521]
96D9  1D000800           [189] getglobal  0   32       ; gClient
96DD  24404800           [190] self       0   0   289  ; 681706190
96E1  22800001           [191] call       0   2   2  
96E5  18400000           [192] test       0       1    ; to [194] if false
96E9  1A805180           [193] jmp        327          ; to [521]
96ED  1DC00000           [194] getglobal  0   3        ; _T
96F1  0EC04100           [195] gettable   0   0   263  ; "QueuedTransmissions"
96F5  0E404400           [196] gettable   0   0   273  ; 0
96F9  5D800800           [197] getglobal  1   34       ; -356128968
96FD  92000000           [198] move       2   0      
9701  62800001           [199] call       1   2   2  
9705  58000000           [200] test       1       0    ; to [202] if true
9709  1A400780           [201] jmp        30           ; to [232]
fail op	8
970D  08008003           [202] setupval   0   7      
9711  4B000000           [203] newtable   1   0   0    ; array=0, hash=0
9715  A4C04800           [204] self       2   0   291  ; 455421500
9719  A2000001           [205] call       2   2   0  
971D  5B400000           [206] setlist    1   0   1    ; index 1 to top
9721  9DC00000           [207] getglobal  2   3        ; _T
9725  8E004901           [208] gettable   2   2   292  ; "BlockTransmissionFadeOut"
9729  98000000           [209] test       2       0    ; to [211] if true
972D  1A400380           [210] jmp        14           ; to [225]
9731  9D000000           [211] getglobal  2   0        ; 1074689893
9735  DDC00000           [212] getglobal  3   3        ; _T
9739  CE40C901           [213] gettable   3   3   293  ; "TransmissionOverrideFallback"
973D  A2800001           [214] call       2   2   2  
9741  98400000           [215] test       2       1    ; to [217] if false
9745  1AC00180           [216] jmp        8            ; to [225]
9749  9D800900           [217] getglobal  2   38       ; table
974D  8EC04901           [218] gettable   2   2   295  ; -431682403
9751  D2008000           [219] move       3   1      
9755  1DC10000           [220] getglobal  4   3        ; _T
9759  0E414902           [221] gettable   4   4   293  ; "TransmissionOverrideFallback"
975D  24C14802           [222] self       4   4   291  ; 455421500
9761  22010001           [223] call       4   2   0  
9765  A2400000           [224] call       2   0   1  
9769  9D000A00           [225] getglobal  2   40       ; UISys
976D  8E404A01           [226] gettable   2   2   297  ; 1151030240
9771  D2008000           [227] move       3   1      
9775  17018000           [228] loadbool   4   1   0    ; true
9779  A2808001           [229] call       2   3   2  
fail op	8
977D  88000004           [230] setupval   2   8      
9781  1E008000           [231] return     0   1      
9785  9D800900           [232] getglobal  2   38       ; table
9789  8E804A01           [233] gettable   2   2   298  ; -843973282
978D  DDC00000           [234] getglobal  3   3        ; _T
9791  CEC0C101           [235] gettable   3   3   263  ; "QueuedTransmissions"
9795  19410400           [236] loadk      4   17       ; 0
9799  A2408001           [237] call       2   3   1  
979D  9D000000           [238] getglobal  2   0        ; 1074689893
97A1  D2000000           [239] move       3   0      
97A5  A2800001           [240] call       2   2   2  
97A9  98000000           [241] test       2       0    ; to [243] if true
97AD  1A000080           [242] jmp        1            ; to [244]
97B1  1E008000           [243] return     0   1      
97B5  A4C04800           [244] self       2   0   291  ; 455421500
97B9  A2800001           [245] call       2   2   2  
97BD  DD800400           [246] getglobal  3   18       ; 2083004503
97C1  12010001           [247] move       4   2      
97C5  E2800001           [248] call       3   2   2  
97C9  24C1CA01           [249] self       4   3   299  ; 1329467728
97CD  22810001           [250] call       4   2   2  
97D1  18010000           [251] test       4       0    ; to [253] if true
97D5  1AC00480           [252] jmp        20           ; to [273]
97D9  5D010B00           [253] getglobal  5   44       ; gPlayerProfileMgr
97DD  6441CB02           [254] self       5   5   301  ; 569342746
97E1  D9410200           [255] loadk      7   9        ; 0
97E5  62818001           [256] call       5   3   2  
97E9  9D010000           [257] getglobal  6   0        ; 1074689893
97ED  D2018002           [258] move       7   5      
97F1  A2810001           [259] call       6   2   2  
97F5  98410000           [260] test       6       1    ; to [262] if false
97F9  1A800280           [261] jmp        11           ; to [273]
97FD  A481CB02           [262] self       6   5   302  ; 1055613230
9801  A2810001           [263] call       6   2   2  
9805  A4C14B03           [264] self       6   6   303  ; -946481619
9809  A2810001           [265] call       6   2   2  
980D  98410000           [266] test       6       1    ; to [268] if false
9811  1A000180           [267] jmp        5            ; to [273]
9815  9DC10000           [268] getglobal  6   3        ; _T
9819  8E014903           [269] gettable   6   6   292  ; "BlockTransmissionFadeOut"
981D  98410000           [270] test       6       1    ; to [272] if false
9821  1A000080           [271] jmp        1            ; to [273]
9825  1E008000           [272] return     0   1      
9829  9D010000           [273] getglobal  6   0        ; 1074689893
982D  DDC10000           [274] getglobal  7   3        ; _T
9831  CE01CC03           [275] gettable   7   7   304  ; "BlockTransmissionsFromSender"
9835  A2810001           [276] call       6   2   2  
9839  98410000           [277] test       6       1    ; to [279] if false
983D  1A800180           [278] jmp        7            ; to [286]
9841  A441CC01           [279] self       6   3   305  ; 160353921
9845  A2810001           [280] call       6   2   2  
9849  DDC10000           [281] getglobal  7   3        ; _T
984D  CE01CC03           [282] gettable   7   7   304  ; "BlockTransmissionsFromSender"
fail op	35
9851  23C00103           [283] close      0  
9855  1A000080           [284] jmp        1            ; to [286]
9859  1E008000           [285] return     0   1      
985D  9DC10000           [286] getglobal  6   3        ; _T
9861  8E814C03           [287] gettable   6   6   306  ; "TransmissionHistory"
fail op	35
9865  23004203           [288] close      0  
9869  1A800080           [289] jmp        3            ; to [293]
986D  9DC10000           [290] getglobal  6   3        ; _T
9871  CB010000           [291] newtable   7   0   0    ; array=0, hash=0
9875  8CC10199           [292] settable   6   306 7    ; "TransmissionHistory"
9879  A4C1CC01           [293] self       6   3   307  ; 1810732420
987D  A2810001           [294] call       6   2   2  
9881  E401CD01           [295] self       7   3   308  ; 212122502
9885  E2810001           [296] call       7   2   2  
fail op	33
9889  61808184           [297] tforloop   1       6    ; to [299] if exit
988D  1A400080           [298] jmp        2            ; to [301]
fail op	21
9891  15C08184           [299] concat     0   265 7  
9895  1A001580           [300] jmp        85           ; to [386]
9899  1D420D00           [301] getglobal  8   53       ; 1491452635
989D  22828000           [302] call       8   1   2  
98A1  5DC20000           [303] getglobal  9   3        ; _T
98A5  4E82CC04           [304] gettable   9   9   306  ; "TransmissionHistory"
98A9  4E828004           [305] gettable   9   9   2  
fail op	35
98AD  2300C204           [306] close      0  
98B1  1AC00280           [307] jmp        12           ; to [320]
98B5  5DC20000           [308] getglobal  9   3        ; _T
98B9  4E82CC04           [309] gettable   9   9   306  ; "TransmissionHistory"
98BD  8B420000           [310] newtable   10  0   1    ; array=0, hash=1
98C1  8C02029B           [311] settable   10  310 8    ; "nextTime"
98C5  4C820201           [312] settable   9   2   10 
fail op	33
98C9  21808184           [313] tforloop   0       6    ; to [315] if exit
98CD  1AC00980           [314] jmp        40           ; to [355]
98D1  5DC20000           [315] getglobal  9   3        ; _T
98D5  4E82CC04           [316] gettable   9   9   306  ; "TransmissionHistory"
98D9  4E828004           [317] gettable   9   9   2  
98DD  4C82819B           [318] settable   9   311 6    ; "repeatsRemaining"
98E1  1A800880           [319] jmp        35           ; to [355]
fail op	33
98E5  21808184           [320] tforloop   0       6    ; to [322] if exit
98E9  1A000880           [321] jmp        33           ; to [355]
98ED  5DC20000           [322] getglobal  9   3        ; _T
98F1  4E82CC04           [323] gettable   9   9   306  ; "TransmissionHistory"
98F5  4E828004           [324] gettable   9   9   2  
98F9  4EC2CD04           [325] gettable   9   9   311  ; "repeatsRemaining"
fail op	35
98FD  2340C204           [326] close      0  
9901  1A400480           [327] jmp        18           ; to [346]
9905  5DC20000           [328] getglobal  9   3        ; _T
9909  4E02C904           [329] gettable   9   9   292  ; "BlockTransmissionFadeOut"
990D  58020000           [330] test       9       0    ; to [332] if true
9911  1AC00280           [331] jmp        12           ; to [344]
9915  5D020000           [332] getglobal  9   0        ; 1074689893
9919  9DC20000           [333] getglobal  10  3        ; _T
991D  8E424905           [334] gettable   10  10  293  ; "TransmissionOverrideFallback"
9921  62820001           [335] call       9   2   2  
9925  58420000           [336] test       9       1    ; to [338] if false
9929  1A400180           [337] jmp        6            ; to [344]
992D  5D820400           [338] getglobal  9   18       ; 2083004503
9931  9DC20000           [339] getglobal  10  3        ; _T
9935  8E424905           [340] gettable   10  10  293  ; "TransmissionOverrideFallback"
9939  62820001           [341] call       9   2   2  
993D  D2008004           [342] move       3   9      
9941  1A800280           [343] jmp        11           ; to [355]
9945  1E008000           [344] return     0   1      
9949  1A000280           [345] jmp        9            ; to [355]
994D  5DC20000           [346] getglobal  9   3        ; _T
9951  4E82CC04           [347] gettable   9   9   306  ; "TransmissionHistory"
9955  4E828004           [348] gettable   9   9   2  
9959  9DC20000           [349] getglobal  10  3        ; _T
995D  8E824C05           [350] gettable   10  10  306  ; "TransmissionHistory"
9961  8E820005           [351] gettable   10  10  2  
9965  8EC24D05           [352] gettable   10  10  311  ; "repeatsRemaining"
9969  8D424405           [353] sub        10  10  273  ; 0
996D  4C82829B           [354] settable   9   311 10   ; "repeatsRemaining"
fail op	21
9971  15C08184           [355] concat     0   265 7  
9975  1A000780           [356] jmp        29           ; to [386]
9979  5DC20000           [357] getglobal  9   3        ; _T
997D  4E82CC04           [358] gettable   9   9   306  ; "TransmissionHistory"
9981  4E828004           [359] gettable   9   9   2  
9985  4E82CD04           [360] gettable   9   9   310  ; "nextTime"
fail op	21
9989  15400204           [361] concat     0   8   9  
998D  1A400480           [362] jmp        18           ; to [381]
9991  5DC20000           [363] getglobal  9   3        ; _T
9995  4E02C904           [364] gettable   9   9   292  ; "BlockTransmissionFadeOut"
9999  58020000           [365] test       9       0    ; to [367] if true
999D  1AC00280           [366] jmp        12           ; to [379]
99A1  5D020000           [367] getglobal  9   0        ; 1074689893
99A5  9DC20000           [368] getglobal  10  3        ; _T
99A9  8E424905           [369] gettable   10  10  293  ; "TransmissionOverrideFallback"
99AD  62820001           [370] call       9   2   2  
99B1  58420000           [371] test       9       1    ; to [373] if false
99B5  1A400180           [372] jmp        6            ; to [379]
99B9  5D820400           [373] getglobal  9   18       ; 2083004503
99BD  9DC20000           [374] getglobal  10  3        ; _T
99C1  8E424905           [375] gettable   10  10  293  ; "TransmissionOverrideFallback"
99C5  62820001           [376] call       9   2   2  
99C9  D2008004           [377] move       3   9      
99CD  1A800180           [378] jmp        7            ; to [386]
99D1  1E008000           [379] return     0   1      
99D5  1A000180           [380] jmp        5            ; to [386]
99D9  5DC20000           [381] getglobal  9   3        ; _T
99DD  4E82CC04           [382] gettable   9   9   306  ; "TransmissionHistory"
99E1  4E828004           [383] gettable   9   9   2  
99E5  83C20104           [384] add        10  8   7  
99E9  4C82029B           [385] settable   9   310 10   ; "nextTime"
99ED  5DC20000           [386] getglobal  9   3        ; _T
99F1  4C02C292           [387] settable   9   293 264  ; "TransmissionOverrideFallback" nil
99F5  5D020E00           [388] getglobal  9   56       ; -1817107093
99F9  99420E00           [389] loadk      10  57       ; "Updated pulled nextQueued: "
99FD  E4C24800           [390] self       11  0   291  ; 455421500
9A01  E2820001           [391] call       11  2   2  
9A05  82C20205           [392] concat     10  10  11 
9A09  62420001           [393] call       9   2   1  
9A0D  5D820E00           [394] getglobal  9   58       ; -895206725
9A11  92028001           [395] move       10  3      
9A15  62820001           [396] call       9   2   2  
fail op	8
9A19  48028006           [397] setupval   9   13     
9A1D  5DC20000           [398] getglobal  9   3        ; _T
9A21  4CC20083           [399] settable   9   262 3    ; "curTransmission"
9A25  5DC20000           [400] getglobal  9   3        ; _T
9A29  4E82C104           [401] gettable   9   9   262  ; "curTransmission"
9A2D  64C2CE04           [402] self       9   9   315  ; 1043208183
9A31  62820001           [403] call       9   2   2  
9A35  9D020000           [404] getglobal  10  0        ; 1074689893
9A39  D2028004           [405] move       11  9      
9A3D  A2820001           [406] call       10  2   2  
9A41  98420000           [407] test       10      1    ; to [409] if false
9A45  1AC00380           [408] jmp        16           ; to [425]
9A49  A442CC04           [409] self       10  9   305  ; 160353921
9A4D  A2820001           [410] call       10  2   2  
9A51  DDC20000           [411] getglobal  11  3        ; _T
9A55  CE82C105           [412] gettable   11  11  262  ; "curTransmission"
9A59  E442CC05           [413] self       11  11  305  ; 160353921
9A5D  E2820001           [414] call       11  2   2  
fail op	35
9A61  23C00205           [415] close      0  
9A65  1AC00180           [416] jmp        8            ; to [425]
9A69  A402CF04           [417] self       10  9   316  ; 1173883690
9A6D  A2820001           [418] call       10  2   2  
fail op	33
9A71  21404205           [419] tforloop   0       265  ; to [421] if exit
9A75  1AC00080           [420] jmp        4            ; to [425]
9A79  93020007           [421] getupval   10  14     
9A7D  D2028004           [422] move       11  9      
9A81  A2420001           [423] call       10  2   1  
9A85  1A800880           [424] jmp        35           ; to [460]
9A89  9D020000           [425] getglobal  10  0        ; 1074689893
9A8D  D2028004           [426] move       11  9      
9A91  A2820001           [427] call       10  2   2  
9A95  98020000           [428] test       10      0    ; to [430] if true
9A99  1A400780           [429] jmp        30           ; to [460]
9A9D  9D020000           [430] getglobal  10  0        ; 1074689893
9AA1  DD420F00           [431] getglobal  11  61       ; gRegion
9AA5  A2820001           [432] call       10  2   2  
9AA9  98420000           [433] test       10      1    ; to [435] if false
9AAD  1A000680           [434] jmp        25           ; to [460]
9AB1  9D420F00           [435] getglobal  10  61       ; gRegion
9AB5  A4824F05           [436] self       10  10  318  ; 65205951
9AB9  A2820001           [437] call       10  2   2  
9ABD  DD020000           [438] getglobal  11  0        ; 1074689893
9AC1  12030005           [439] move       12  10     
9AC5  E2820001           [440] call       11  2   2  
9AC9  D8420000           [441] test       11      1    ; to [443] if false
9ACD  1A000480           [442] jmp        17           ; to [460]
9AD1  D3028007           [443] getupval   11  15     
9AD5  E4C2CF05           [444] self       11  11  319  ; 795876651
9AD9  5DC30000           [445] getglobal  13  3        ; _T
9ADD  4E83C106           [446] gettable   13  13  262  ; "curTransmission"
9AE1  6403D006           [447] self       13  13  320  ; -830264577
9AE5  62830001           [448] call       13  2   2  
9AE9  9D431000           [449] getglobal  14  65       ; gGameData
9AED  D2030005           [450] move       15  10     
9AF1  E2828002           [451] call       11  5   2  
9AF5  1D030000           [452] getglobal  12  0        ; 1074689893
9AF9  52038005           [453] move       13  11     
9AFD  22830001           [454] call       12  2   2  
9B01  18430000           [455] test       12      1    ; to [457] if false
9B05  1A800080           [456] jmp        3            ; to [460]
9B09  24835005           [457] self       12  10  322  ; 145557915
9B0D  92038005           [458] move       14  11     
9B11  22438001           [459] call       12  3   1  
9B15  13030008           [460] getupval   12  16     
9B19  52038001           [461] move       13  3      
9B1D  22430001           [462] call       12  2   1  
9B21  13038008           [463] getupval   12  17     
9B25  22438000           [464] call       12  1   1  
9B29  13038009           [465] getupval   12  19     
fail op	8
9B2D  08030009           [466] setupval   12  18     
9B31  1DC30000           [467] getglobal  12  3        ; _T
9B35  0E834106           [468] gettable   12  12  262  ; "curTransmission"
9B39  24034F06           [469] self       12  12  316  ; 1173883690
9B3D  22830001           [470] call       12  2   2  
fail op	8
9B41  0803000A           [471] setupval   12  20     
9B45  1303800A           [472] getupval   12  21     
9B49  5DC30000           [473] getglobal  13  3        ; _T
9B4D  4E83C106           [474] gettable   13  13  262  ; "curTransmission"
9B51  22830001           [475] call       12  2   2  
9B55  5DC30000           [476] getglobal  13  3        ; _T
9B59  4E83C106           [477] gettable   13  13  262  ; "curTransmission"
9B5D  64C3D006           [478] self       13  13  323  ; -796571677
9B61  62830001           [479] call       13  2   2  
9B65  58430000           [480] test       13      1    ; to [482] if false
9B69  1A800080           [481] jmp        3            ; to [485]
9B6D  5303800B           [482] getupval   13  23     
fail op	9
9B71  49038006           [483] settable   13  13  0  
9B75  1A400080           [484] jmp        2            ; to [487]
9B79  57430000           [485] loadbool   13  0   1    ; false, to [487]
9B7D  57038000           [486] loadbool   13  1   0    ; true
fail op	8
9B81  4803000B           [487] setupval   13  22     
9B85  57030000           [488] loadbool   13  0   0    ; false
fail op	8
9B89  4803000C           [489] setupval   13  24     
9B8D  5D030000           [490] getglobal  13  0        ; 1074689893
9B91  92030006           [491] move       14  12     
9B95  62830001           [492] call       13  2   2  
9B99  58430000           [493] test       13      1    ; to [495] if false
9B9D  1AC00180           [494] jmp        8            ; to [503]
9BA1  5303800C           [495] getupval   13  25     
9BA5  9303000B           [496] getupval   14  22     
9BA9  4C8303A2           [497] settable   13  324 14   ; "mPortrait"
9BAD  5303800C           [498] getupval   13  25     
9BB1  6443D106           [499] self       13  13  325  ; 252425949
9BB5  D2030006           [500] move       15  12     
9BB9  62438001           [501] call       13  3   1  
9BBD  1A000280           [502] jmp        9            ; to [512]
9BC1  5303000B           [503] getupval   13  22     
9BC5  58430000           [504] test       13      1    ; to [506] if false
9BC9  1A400180           [505] jmp        6            ; to [512]
9BCD  5DC30000           [506] getglobal  13  3        ; _T
9BD1  4E83D106           [507] gettable   13  13  326  ; "KeepTransmissionBgRegion"
9BD5  58030000           [508] test       13      0    ; to [510] if true
9BD9  1A400080           [509] jmp        2            ; to [512]
9BDD  57038000           [510] loadbool   13  1   0    ; true
fail op	8
9BE1  4803000C           [511] setupval   13  24     
9BE5  5DC30000           [512] getglobal  13  3        ; _T
9BE9  4E83D106           [513] gettable   13  13  326  ; "KeepTransmissionBgRegion"
9BED  58430000           [514] test       13      1    ; to [516] if false
9BF1  1A000180           [515] jmp        5            ; to [521]
9BF5  53038007           [516] getupval   13  15     
9BF9  9D031200           [517] getglobal  14  72       ; math
9BFD  8E435207           [518] gettable   14  14  329  ; -2040962569
9C01  A2838000           [519] call       14  1   2  
9C05  4C8383A3           [520] settable   13  327 14   ; "mZoomer"
9C09  5D030000           [521] getglobal  13  0        ; 1074689893
9C0D  9DC30000           [522] getglobal  14  3        ; _T
9C11  8E834107           [523] gettable   14  14  262  ; "curTransmission"
9C15  62830001           [524] call       13  2   2  
9C19  58030000           [525] test       13      0    ; to [527] if true
9C1D  1A000080           [526] jmp        1            ; to [528]
9C21  1E008000           [527] return     0   1      
9C25  5303000D           [528] getupval   13  26     
9C29  62438000           [529] call       13  1   1  
9C2D  53030000           [530] getupval   13  0      
9C31  6483D206           [531] self       13  13  330  ; 1803241227
9C35  D303800D           [532] getupval   15  27     
9C39  19C41200           [533] loadk      16  75       ; "_alpha"
9C3D  62830002           [534] call       13  4   2  
9C41  93030000           [535] getupval   14  0      
9C45  A4034507           [536] self       14  14  276  ; 471456102
9C49  19041300           [537] loadk      16  76       ; "ImageFrame"
9C4D  59C41200           [538] loadk      17  75       ; "_alpha"
9C51  92048006           [539] move       18  13     
9C55  A2438002           [540] call       14  5   1  
9C59  93030000           [541] getupval   14  0      
9C5D  A4034507           [542] self       14  14  276  ; 471456102
9C61  19041300           [543] loadk      16  76       ; "ImageFrame"
9C65  59840500           [544] loadk      17  22       ; "_x"
9C69  9304000E           [545] getupval   18  28     
9C6D  8D440309           [546] sub        18  18  13 
9C71  A2438002           [547] call       14  5   1  
9C75  99431300           [548] loadk      14  77       ; -51
9C79  DD430D00           [549] getglobal  15  53       ; 1491452635
9C7D  E2838000           [550] call       15  1   2  
9C81  1D841300           [551] getglobal  16  78       ; -1642362560
9C85  5DC41300           [552] getglobal  17  79       ; -1045091108
9C89  84848307           [553] mul        18  15  14 
9C8D  62040001           [554] call       17  2   0  
9C91  22840000           [555] call       16  0   2  
9C95  04045408           [556] mul        16  16  336  ; 0
9C99  5D041200           [557] getglobal  17  72       ; math
9C9D  4E44D408           [558] gettable   17  17  337  ; -688728047
9CA1  9D841400           [559] getglobal  18  82       ; 1238561778
9CA5  C3C483A9           [560] add        19  339 15   ; 0
9CA9  C4848309           [561] mul        19  19  14 
9CAD  A2840001           [562] call       18  2   2  
9CB1  D9041500           [563] loadk      19  84       ; 0
9CB5  62848001           [564] call       17  3   2  
9CB9  4444D508           [565] mul        17  17  341  ; 0
9CBD  9304800E           [566] getupval   18  29     
fail op	35
9CC1  23404409           [567] close      0  
9CC5  1A800380           [568] jmp        15           ; to [584]
9CC9  93048004           [569] getupval   18  9      
9CCD  98440000           [570] test       18      1    ; to [572] if false
9CD1  1AC00280           [571] jmp        12           ; to [584]
9CD5  93040000           [572] getupval   18  0      
9CD9  A4044509           [573] self       18  18  276  ; 471456102
9CDD  19051300           [574] loadk      20  76       ; "ImageFrame"
9CE1  59851500           [575] loadk      21  86       ; "_pitch"
9CE5  92058008           [576] move       22  17     
9CE9  A2448002           [577] call       18  5   1  
9CED  93040000           [578] getupval   18  0      
9CF1  A4044509           [579] self       18  18  276  ; 471456102
9CF5  19051300           [580] loadk      20  76       ; "ImageFrame"
9CF9  59C51500           [581] loadk      21  87       ; "_heading"
9CFD  8D455508           [582] sub        22  16  341  ; 0
9D01  A2448002           [583] call       18  5   1  
9D05  9D041200           [584] getglobal  18  72       ; math
9D09  8E045609           [585] gettable   18  18  344  ; -113279800
9D0D  DD441600           [586] getglobal  19  89       ; -1430027948
9D11  19851600           [587] loadk      20  90       ; 0
9D15  59C51600           [588] loadk      21  91       ; 0
9D19  9D450D00           [589] getglobal  22  53       ; 1491452635
9D1D  A2858000           [590] call       22  1   2  
9D21  84C5560B           [591] mul        22  22  347  ; 0
9D25  D9450200           [592] loadk      23  9        ; 0
9D29  E2048002           [593] call       19  5   0  
9D2D  A2840000           [594] call       18  0   2  
9D31  DD041200           [595] getglobal  19  72       ; math
9D35  CE04D709           [596] gettable   19  19  348  ; 1710846250
9D39  19450400           [597] loadk      20  17       ; 0
9D3D  52050009           [598] move       21  18     
9D41  E2848001           [599] call       19  3   2  
9D45  92048009           [600] move       18  19     
9D49  DD441700           [601] getglobal  19  93       ; -174740002
9D4D  13050000           [602] getupval   20  0      
9D51  2485520A           [603] self       20  20  330  ; 1803241227
9D55  9305800D           [604] getupval   22  27     
9D59  D9850500           [605] loadk      23  22       ; "_x"
9D5D  22050002           [606] call       20  4   0  
9D61  E2840000           [607] call       19  0   2  
9D65  1D451700           [608] getglobal  20  93       ; -174740002
9D69  53050000           [609] getupval   21  0      
9D6D  6485D20A           [610] self       21  21  330  ; 1803241227
9D71  D305800D           [611] getupval   23  27     
9D75  19460600           [612] loadk      24  25       ; "_y"
9D79  62050002           [613] call       21  4   0  
9D7D  22850000           [614] call       20  0   2  
9D81  5D051200           [615] getglobal  21  72       ; math
9D85  4E05D60A           [616] gettable   21  21  344  ; -113279800
9D89  9305000F           [617] getupval   22  30     
9D8D  8DC5040B           [618] sub        22  22  19 
9D91  62850001           [619] call       21  2   2  
9D95  5C85D70A           [620] div        21  21  350  ; 0
9D99  9D051200           [621] getglobal  22  72       ; math
9D9D  8EC5570B           [622] gettable   22  22  351  ; -1962864584
9DA1  D205800A           [623] move       23  21     
9DA5  1D061200           [624] getglobal  24  72       ; math
9DA9  0E06560C           [625] gettable   24  24  344  ; -113279800
9DAD  5306800F           [626] getupval   25  31     
9DB1  4D06850C           [627] sub        25  25  20 
9DB5  22860001           [628] call       24  2   2  
9DB9  1C86570C           [629] div        24  24  350  ; 0
9DBD  A2858001           [630] call       22  3   2  
9DC1  5205000B           [631] move       21  22     
9DC5  9D051200           [632] getglobal  22  72       ; math
9DC9  8E45540B           [633] gettable   22  22  337  ; -688728047
9DCD  D205800A           [634] move       23  21     
9DD1  19C61600           [635] loadk      24  91       ; 0
9DD5  A2858001           [636] call       22  3   2  
9DD9  5205000B           [637] move       21  22     
9DDD  9D051800           [638] getglobal  22  96       ; -1828500651
9DE1  D9450200           [639] loadk      23  9        ; 0
9DE5  19461800           [640] loadk      24  97       ; -51
9DE9  44860409           [641] mul        25  18  18 
9DED  A2850002           [642] call       22  4   2  
9DF1  D3050000           [643] getupval   23  0      
9DF5  E485D80B           [644] self       23  23  354  ; 808102703
9DF9  59C61800           [645] loadk      25  99       ; "ImageFrame.Image"
9DFD  99061900           [646] loadk      26  100      ; "PlasmaStrength"
9E01  D206000B           [647] move       27  22     
9E05  19470200           [648] loadk      28  9        ; 0
9E09  59470200           [649] loadk      29  9        ; 0
9E0D  99470200           [650] loadk      30  9        ; 0
9E11  E2450004           [651] call       23  8   1  
9E15  D3050010           [652] getupval   23  32     
9E19  13068010           [653] getupval   24  33     
fail op	35
9E1D  6300860B           [654] close      1  
9E21  1AC00080           [655] jmp        4            ; to [660]
9E25  D3050010           [656] getupval   23  32     
9E29  13060011           [657] getupval   24  34     
fail op	35
9E2D  2300860B           [658] close      0  
9E31  1A400A80           [659] jmp        42           ; to [702]
9E35  DD451900           [660] getglobal  23  101      ; 1668611480
9E39  1D061200           [661] getglobal  24  72       ; math
9E3D  0E06560C           [662] gettable   24  24  344  ; -113279800
9E41  5D461600           [663] getglobal  25  89       ; -1430027948
9E45  99061500           [664] loadk      26  84       ; 0
9E49  D9C61600           [665] loadk      27  91       ; 0
9E4D  1D470D00           [666] getglobal  28  53       ; 1491452635
9E51  22878000           [667] call       28  1   2  
9E55  04C7560E           [668] mul        28  28  347  ; 0
9E59  59470200           [669] loadk      29  9        ; 0
9E5D  62068002           [670] call       25  5   0  
9E61  22860000           [671] call       24  0   2  
9E65  0486590C           [672] mul        24  24  358  ; 0
9E69  59460200           [673] loadk      25  9        ; 0
9E6D  99460400           [674] loadk      26  17       ; 0
9E71  E2850002           [675] call       23  4   2  
9E75  9204800B           [676] move       18  23     
9E79  DD050000           [677] getglobal  23  0        ; 1074689893
9E7D  13068005           [678] getupval   24  11     
9E81  E2850001           [679] call       23  2   2  
9E85  D8450000           [680] test       23      1    ; to [682] if false
9E89  1AC00480           [681] jmp        20           ; to [702]
9E8D  D3058005           [682] getupval   23  11     
9E91  E4C5D90B           [683] self       23  23  359  ; 1699015312
9E95  59460400           [684] loadk      25  17       ; 0
9E99  9D461900           [685] getglobal  26  101      ; 1668611480
9E9D  C4860409           [686] mul        27  18  18 
9EA1  C406D50D           [687] mul        27  27  340  ; 0
9EA5  19470200           [688] loadk      28  9        ; 0
9EA9  59470400           [689] loadk      29  17       ; 0
9EAD  A2060002           [690] call       26  4   0  
9EB1  E2450000           [691] call       23  0   1  
9EB5  D3058005           [692] getupval   23  11     
9EB9  E4C5D90B           [693] self       23  23  359  ; 1699015312
9EBD  59861600           [694] loadk      25  90       ; 0
9EC1  9D461900           [695] getglobal  26  101      ; 1668611480
9EC5  C4860409           [696] mul        27  18  18 
9EC9  C406D50D           [697] mul        27  27  340  ; 0
9ECD  19470200           [698] loadk      28  9        ; 0
9ED1  59470400           [699] loadk      29  17       ; 0
9ED5  A2060002           [700] call       26  4   0  
9ED9  E2450000           [701] call       23  0   1  
9EDD  DDC50000           [702] getglobal  23  3        ; _T
9EE1  CE05DA0B           [703] gettable   23  23  360  ; "LotusGlitching"
9EE5  D8050000           [704] test       23      0    ; to [706] if true
9EE9  1A000080           [705] jmp        1            ; to [707]
9EED  D3058011           [706] getupval   23  35     
9EF1  13060010           [707] getupval   24  32     
9EF5  53060012           [708] getupval   25  36     
fail op	35
9EF9  2340060C           [709] close      0  
9EFD  1A800F80           [710] jmp        63           ; to [774]
9F01  1DC60000           [711] getglobal  24  3        ; _T
9F05  0E465A0C           [712] gettable   24  24  361  ; "Scramble_Strong"
9F09  18460000           [713] test       24      1    ; to [715] if false
9F0D  1A000080           [714] jmp        1            ; to [716]
9F11  19460400           [715] loadk      24  17       ; 0
9F15  59861A00           [716] loadk      25  106      ; 51
9F19  99C61A00           [717] loadk      26  107      ; -51
9F1D  D3060000           [718] getupval   27  0      
9F21  E486D80D           [719] self       27  27  354  ; 808102703
9F25  5307800D           [720] getupval   29  27     
9F29  99071B00           [721] loadk      30  108      ; ".ImageOuter.Image"
9F2D  4287870E           [722] concat     29  29  30 
9F31  99471B00           [723] loadk      30  109      ; "PixelateBias"
9F35  D9470200           [724] loadk      31  9        ; 0
9F39  1D481900           [725] getglobal  32  101      ; 1668611480
9F3D  4D888488           [726] sub        33  273 18   ; 0
9F41  99480200           [727] loadk      34  9        ; 0
9F45  D9881B00           [728] loadk      35  110      ; -51
9F49  22880002           [729] call       32  4   2  
9F4D  0408880C           [730] mul        32  25  32 
9F51  0308080D           [731] add        32  26  32 
9F55  59480200           [732] loadk      33  9        ; 0
9F59  99480200           [733] loadk      34  9        ; 0
9F5D  E2460004           [734] call       27  8   1  
9F61  D3060000           [735] getupval   27  0      
9F65  E486D80D           [736] self       27  27  354  ; 808102703
9F69  5307800D           [737] getupval   29  27     
9F6D  99071B00           [738] loadk      30  108      ; ".ImageOuter.Image"
9F71  4287870E           [739] concat     29  29  30 
9F75  99071900           [740] loadk      30  100      ; "PlasmaStrength"
9F79  C40786AD           [741] mul        31  347 24   ; 0
9F7D  19480200           [742] loadk      32  9        ; 0
9F81  59480200           [743] loadk      33  9        ; 0
9F85  99480200           [744] loadk      34  9        ; 0
9F89  E2460004           [745] call       27  8   1  
9F8D  D8450000           [746] test       23      1    ; to [748] if false
9F91  1AC00F80           [747] jmp        64           ; to [812]
9F95  DD060000           [748] getglobal  27  0        ; 1074689893
9F99  13078005           [749] getupval   28  11     
9F9D  E2860001           [750] call       27  2   2  
9FA1  D8460000           [751] test       27      1    ; to [753] if false
9FA5  1A800E80           [752] jmp        59           ; to [812]
9FA9  D3068005           [753] getupval   27  11     
9FAD  E4C6DB0D           [754] self       27  27  367  ; -688523144
9FB1  E2860001           [755] call       27  2   2  
9FB5  13070000           [756] getupval   28  0      
9FB9  2487580E           [757] self       28  28  354  ; 808102703
9FBD  9307800D           [758] getupval   30  27     
9FC1  D9071B00           [759] loadk      31  108      ; ".ImageOuter.Image"
9FC5  82C7070F           [760] concat     30  30  31 
9FC9  D9071C00           [761] loadk      31  112      ; "Atten"
9FCD  19480400           [762] loadk      32  17       ; 0
9FD1  59480400           [763] loadk      33  17       ; 0
9FD5  99480400           [764] loadk      34  17       ; 0
9FD9  DD481900           [765] getglobal  35  101      ; 1668611480
9FDD  1209800D           [766] move       36  27     
9FE1  59490200           [767] loadk      37  9        ; 0
9FE5  99490400           [768] loadk      38  17       ; 0
9FE9  E2880002           [769] call       35  4   2  
9FED  C488DA11           [770] mul        35  35  362  ; 51
9FF1  C3C888B8           [771] add        35  369 35   ; -102
9FF5  22470004           [772] call       28  8   1  
9FF9  1A400980           [773] jmp        38           ; to [812]
9FFD  13070000           [774] getupval   28  0      
A001  2487580E           [775] self       28  28  354  ; 808102703
A005  9307800D           [776] getupval   30  27     
A009  D9071B00           [777] loadk      31  108      ; ".ImageOuter.Image"
A00D  82C7070F           [778] concat     30  30  31 
A011  D9471B00           [779] loadk      31  109      ; "PixelateBias"
A015  19480200           [780] loadk      32  9        ; 0
A019  5D081800           [781] getglobal  33  96       ; -1828500651
A01D  99881C00           [782] loadk      34  114      ; 0
A021  D9480200           [783] loadk      35  9        ; 0
A025  04890409           [784] mul        36  18  18 
A029  62880002           [785] call       33  4   2  
A02D  434888AD           [786] add        33  347 33   ; 0
A031  99480200           [787] loadk      34  9        ; 0
A035  D9480200           [788] loadk      35  9        ; 0
A039  22470004           [789] call       28  8   1  
A03D  13070000           [790] getupval   28  0      
A041  2487580E           [791] self       28  28  354  ; 808102703
A045  9307800D           [792] getupval   30  27     
A049  D9071B00           [793] loadk      31  108      ; ".ImageOuter.Image"
A04D  82C7070F           [794] concat     30  30  31 
A051  D9071900           [795] loadk      31  100      ; "PlasmaStrength"
A055  19480200           [796] loadk      32  9        ; 0
A059  59480200           [797] loadk      33  9        ; 0
A05D  99480200           [798] loadk      34  9        ; 0
A061  D9480200           [799] loadk      35  9        ; 0
A065  22470004           [800] call       28  8   1  
A069  13070000           [801] getupval   28  0      
A06D  2487580E           [802] self       28  28  354  ; 808102703
A071  9307800D           [803] getupval   30  27     
A075  D9071B00           [804] loadk      31  108      ; ".ImageOuter.Image"
A079  82C7070F           [805] concat     30  30  31 
A07D  D9071C00           [806] loadk      31  112      ; "Atten"
A081  19480400           [807] loadk      32  17       ; 0
A085  59480400           [808] loadk      33  17       ; 0
A089  99480400           [809] loadk      34  17       ; 0
A08D  D9480400           [810] loadk      35  17       ; 0
A091  22470004           [811] call       28  8   1  
A095  1D070000           [812] getglobal  28  0        ; 1074689893
A099  53078005           [813] getupval   29  11     
A09D  22870001           [814] call       28  2   2  
A0A1  18470000           [815] test       28      1    ; to [817] if false
A0A5  1A800580           [816] jmp        23           ; to [840]
A0A9  13078012           [817] getupval   28  37     
A0AD  18470000           [818] test       28      1    ; to [820] if false
A0B1  1AC00480           [819] jmp        20           ; to [840]
A0B5  13078005           [820] getupval   28  11     
A0B9  24C7590E           [821] self       28  28  359  ; 1699015312
A0BD  99470200           [822] loadk      30  9        ; 0
A0C1  DD471900           [823] getglobal  31  101      ; 1668611480
A0C5  04880409           [824] mul        32  18  18 
A0C9  04085510           [825] mul        32  32  340  ; 0
A0CD  59480200           [826] loadk      33  9        ; 0
A0D1  99480400           [827] loadk      34  17       ; 0
A0D5  E2070002           [828] call       31  4   0  
A0D9  22470000           [829] call       28  0   1  
A0DD  13078005           [830] getupval   28  11     
A0E1  24C7590E           [831] self       28  28  359  ; 1699015312
A0E5  99C71C00           [832] loadk      30  115      ; 0
A0E9  DD471900           [833] getglobal  31  101      ; 1668611480
A0ED  04880409           [834] mul        32  18  18 
A0F1  04885610           [835] mul        32  32  346  ; 0
A0F5  59480200           [836] loadk      33  9        ; 0
A0F9  99480400           [837] loadk      34  17       ; 0
A0FD  E2070002           [838] call       31  4   0  
A101  22470000           [839] call       28  0   1  
A105  D8050000           [840] test       23      0    ; to [842] if true
A109  1A000980           [841] jmp        37           ; to [879]
A10D  1D070000           [842] getglobal  28  0        ; 1074689893
A111  53078005           [843] getupval   29  11     
A115  22870001           [844] call       28  2   2  
A119  18470000           [845] test       28      1    ; to [847] if false
A11D  1AC00780           [846] jmp        32           ; to [879]
A121  1DC70000           [847] getglobal  28  3        ; _T
A125  0E075D0E           [848] gettable   28  28  372  ; "LotusVoxelAmt"
A129  04475D0E           [849] mul        28  28  373  ; 0
A12D  53078005           [850] getupval   29  11     
A131  64C7D90E           [851] self       29  29  359  ; 1699015312
A135  D9470200           [852] loadk      31  9        ; 0
A139  19480400           [853] loadk      32  17       ; 0
A13D  62470002           [854] call       29  4   1  
A141  53078005           [855] getupval   29  11     
A145  64C7D90E           [856] self       29  29  359  ; 1699015312
A149  D9071500           [857] loadk      31  84       ; 0
A14D  1D481900           [858] getglobal  32  101      ; 1668611480
A151  5208000E           [859] move       33  28     
A155  99480200           [860] loadk      34  9        ; 0
A159  D9480400           [861] loadk      35  17       ; 0
A15D  22080002           [862] call       32  4   0  
A161  62470000           [863] call       29  0   1  
A165  53078005           [864] getupval   29  11     
A169  64C7D90E           [865] self       29  29  359  ; 1699015312
A16D  D9871600           [866] loadk      31  90       ; 0
A171  1D481900           [867] getglobal  32  101      ; 1668611480
A175  5208000E           [868] move       33  28     
A179  99480200           [869] loadk      34  9        ; 0
A17D  D9480400           [870] loadk      35  17       ; 0
A181  22080002           [871] call       32  4   0  
A185  62470000           [872] call       29  0   1  
A189  53078005           [873] getupval   29  11     
A18D  64C7D90E           [874] self       29  29  359  ; 1699015312
A191  D9C71400           [875] loadk      31  83       ; 0
A195  19C81600           [876] loadk      32  91       ; 0
A199  62470002           [877] call       29  4   1  
A19D  1AC00680           [878] jmp        28           ; to [907]
A1A1  5D070000           [879] getglobal  29  0        ; 1074689893
A1A5  93078005           [880] getupval   30  11     
A1A9  62870001           [881] call       29  2   2  
A1AD  58470000           [882] test       29      1    ; to [884] if false
A1B1  1A800580           [883] jmp        23           ; to [907]
A1B5  53078011           [884] getupval   29  35     
A1B9  58070000           [885] test       29      0    ; to [887] if true
A1BD  1AC00480           [886] jmp        20           ; to [907]
A1C1  53078005           [887] getupval   29  11     
A1C5  64C7D90E           [888] self       29  29  359  ; 1699015312
A1C9  D9470200           [889] loadk      31  9        ; 0
A1CD  19480200           [890] loadk      32  9        ; 0
A1D1  62470002           [891] call       29  4   1  
A1D5  53078005           [892] getupval   29  11     
A1D9  64C7D90E           [893] self       29  29  359  ; 1699015312
A1DD  D9071500           [894] loadk      31  84       ; 0
A1E1  19480200           [895] loadk      32  9        ; 0
A1E5  62470002           [896] call       29  4   1  
A1E9  53078005           [897] getupval   29  11     
A1ED  64C7D90E           [898] self       29  29  359  ; 1699015312
A1F1  D9871600           [899] loadk      31  90       ; 0
A1F5  19480200           [900] loadk      32  9        ; 0
A1F9  62470002           [901] call       29  4   1  
A1FD  53078005           [902] getupval   29  11     
A201  64C7D90E           [903] self       29  29  359  ; 1699015312
A205  D9C71400           [904] loadk      31  83       ; 0
A209  19480200           [905] loadk      32  9        ; 0
A20D  62470002           [906] call       29  4   1  
A211  53078007           [907] getupval   29  15     
A215  93070013           [908] getupval   30  38     
A219  4C8707BB           [909] settable   29  374 30   ; "mScale"
A21D  5DC71D00           [910] getglobal  29  119      ; gBackgroundRegion
A221  9307000B           [911] getupval   30  22     
A225  98070000           [912] test       30      0    ; to [914] if true
A229  1A000080           [913] jmp        1            ; to [915]
A22D  5D071E00           [914] getglobal  29  120      ; gPortraitRegion
A231  9D070000           [915] getglobal  30  0        ; 1074689893
A235  D3078013           [916] getupval   31  39     
A239  A2870001           [917] call       30  2   2  
A23D  98470000           [918] test       30      1    ; to [920] if false
A241  1A000080           [919] jmp        1            ; to [921]
A245  5D470F00           [920] getglobal  29  61       ; gRegion
A249  93078007           [921] getupval   30  15     
A24D  A4475E0F           [922] self       30  30  377  ; 1168170683
A251  13080006           [923] getupval   32  12     
A255  5208800E           [924] move       33  29     
A259  9D080000           [925] getglobal  34  0        ; 1074689893
A25D  D3088013           [926] getupval   35  39     
A261  A2880001           [927] call       34  2   2  
fail op	9
A265  89080011           [928] settable   34  34  0  
A269  D3088013           [929] getupval   35  39     
A26D  A2470003           [930] call       30  6   1  
A271  99470200           [931] loadk      30  9        ; 0
A275  D3070010           [932] getupval   31  32     
fail op	35
A279  6300C20F           [933] close      1  
A27D  1AC00480           [934] jmp        20           ; to [955]
A281  DDC70000           [935] getglobal  31  3        ; _T
A285  1D881E00           [936] getglobal  32  122      ; -1615931716
A289  53080010           [937] getupval   33  32     
A28D  22880001           [938] call       32  2   2  
A291  CE07880F           [939] gettable   31  31  32 
fail op	35
A295  6300C20F           [940] close      1  
A299  1A000380           [941] jmp        13           ; to [955]
A29D  DD471900           [942] getglobal  31  101      ; 1668611480
A2A1  1D481700           [943] getglobal  32  93       ; -174740002
A2A5  5DC80000           [944] getglobal  33  3        ; _T
A2A9  9D881E00           [945] getglobal  34  122      ; -1615931716
A2AD  D3080010           [946] getupval   35  32     
A2B1  A2880001           [947] call       34  2   2  
A2B5  4E888810           [948] gettable   33  33  34 
A2B9  22880001           [949] call       32  2   2  
A2BD  59480200           [950] loadk      33  9        ; 0
A2C1  99480400           [951] loadk      34  17       ; 0
A2C5  E2870002           [952] call       31  4   2  
A2C9  9207800F           [953] move       30  31     
A2CD  8487070F           [954] mul        30  30  30 
A2D1  D3070000           [955] getupval   31  0      
A2D5  E487D80F           [956] self       31  31  354  ; 808102703
A2D9  59C81800           [957] loadk      33  99       ; "ImageFrame.Image"
A2DD  99C81E00           [958] loadk      34  123      ; "Scramble"
A2E1  D208000F           [959] move       35  30     
A2E5  19490200           [960] loadk      36  9        ; 0
A2E9  59490200           [961] loadk      37  9        ; 0
A2ED  99490200           [962] loadk      38  9        ; 0
A2F1  E2470004           [963] call       31  8   1  
A2F5  DD071200           [964] getglobal  31  72       ; math
A2F9  CEC7D70F           [965] gettable   31  31  351  ; -1962864584
A2FD  19480200           [966] loadk      32  9        ; 0
A301  53080014           [967] getupval   33  40     
A305  9D880700           [968] getglobal  34  30       ; 1289681407
A309  A2888000           [969] call       34  1   2  
A30D  84085511           [970] mul        34  34  340  ; 0
A311  4D888810           [971] sub        33  33  34 
A315  E2878001           [972] call       31  3   2  
fail op	8
A319  C8070014           [973] setupval   31  40     
A31D  D3070009           [974] getupval   31  18     
A321  13088014           [975] getupval   32  41     
fail op	35
A325  2300880F           [976] close      0  
A329  1A800180           [977] jmp        7            ; to [985]
A32D  C407DF06           [978] mul        31  13  380  ; 10
A331  13080015           [979] getupval   32  42     
A335  C407880F           [980] mul        31  31  32 
A339  13080000           [981] getupval   32  0      
A33D  24485F10           [982] self       32  32  381  ; -403402525
A341  9208800F           [983] move       34  31     
A345  22488001           [984] call       32  3   1  
A349  1E008000           [985] return     0   1      
                         * constants:
A34D  7E                 sizek (126)
A34E  01                 const type 3
A34F  65770E40           const [0]: (1074689893)
A353  04                 const type 4
A354  07                 string size (7)
A355  6D4D6F76696500     "mMovie\0"
                         const [1]: "mMovie"
A35C  01                 const type 3
A35D  7BCA92D6           const [2]: (-695022981)
A361  04                 const type 4
A362  03                 string size (3)
A363  5F5400             "_T\0"
                         const [3]: "_T"
A366  04                 const type 4
A367  13                 string size (19)
A368  52616469616C536F+  "RadialSo"
A370  6C61724D61704F70+  "larMapOp"
A378  656E00             "en\0"
                         const [4]: "RadialSolarMapOpen"
A37B  01                 const type 3
A37C  01000000           const [5]: (1)
A380  04                 const type 4
A381  10                 string size (16)
A382  6375725472616E73+  "curTrans"
A38A  6D697373696F6E00   "mission\0"
                         const [6]: "curTransmission"
A392  04                 const type 4
A393  14                 string size (20)
A394  5175657565645472+  "QueuedTr"
A39C  616E736D69737369+  "ansmissi"
A3A4  6F6E7300           "ons\0"
                         const [7]: "QueuedTransmissions"
A3A8  00                 const type 0
                         const [8]: nil
A3A9  03                 const type 3
A3AA  00000000           const [9]: (0)
A3AE  04                 const type 4
A3AF  03                 string size (3)
A3B0  5F4700             "_G\0"
                         const [10]: "_G"
A3B3  04                 const type 4
A3B4  0C                 string size (12)
A3B5  5374616C6B65724D+  "StalkerM"
A3BD  6F646500           "ode\0"
                         const [11]: "StalkerMode"
A3C1  01                 const type 3
A3C2  D48E598B           const [12]: (-1957065004)
A3C6  01                 const type 3
A3C7  29D4002C           const [13]: (738251817)
A3CB  04                 const type 4
A3CC  34                 string size (52)
A3CD  2F4C6F7475732F54+  "/Lotus/T"
A3D5  797065732F47616D+  "ypes/Gam"
A3DD  652F5472616E736D+  "e/Transm"
A3E5  697373696F6E732F+  "issions/"
A3ED  5374616C6B657254+  "StalkerT"
A3F5  72616E736D697373+  "ransmiss"
A3FD  696F6E00           "ion\0"
                         const [14]: "/Lotus/Types/Game/Transmissions/StalkerTransmission"
A401  01                 const type 3
A402  6CB98BA5           const [15]: (-1517569684)
A406  01                 const type 3
A407  04C5DDAF           const [16]: (-1344420604)
A40B  03                 const type 3
A40C  0000803F           const [17]: (0)
A410  01                 const type 3
A411  5720287C           const [18]: (2083004503)
A415  04                 const type 4
A416  0F                 string size (15)
A417  76656C6F63697479+  "velocity"
A41F  436F6F72647300     "Coords\0"
                         const [19]: "velocityCoords"
A426  01                 const type 3
A427  66D9191C           const [20]: (471456102)
A42B  04                 const type 4
A42C  06                 string size (6)
A42D  5F726F6F7400       "_root\0"
                         const [21]: "_root"
A433  04                 const type 4
A434  03                 string size (3)
A435  5F7800             "_x\0"
                         const [22]: "_x"
A438  01                 const type 3
A439  DF567EB5           const [23]: (-1250011425)
A43D  04                 const type 4
A43E  02                 string size (2)
A43F  7800               "x\0"
                         const [24]: "x"
A441  04                 const type 4
A442  03                 string size (3)
A443  5F7900             "_y\0"
                         const [25]: "_y"
A446  04                 const type 4
A447  02                 string size (2)
A448  7900               "y\0"
                         const [26]: "y"
A44A  01                 const type 3
A44B  4A784228           const [27]: (675444810)
A44F  04                 const type 4
A450  1A                 string size (26)
A451  5472616E736D6973+  "Transmis"
A459  73696F6E536F756E+  "sionSoun"
A461  64496E7374616E63+  "dInstanc"
A469  6500               "e\0"
                         const [28]: "TransmissionSoundInstance"
A46B  01                 const type 3
A46C  1A6B0D08           const [29]: (135097114)
A470  01                 const type 3
A471  FFF9DE4C           const [30]: (1289681407)
A475  04                 const type 4
A476  13                 string size (19)
A477  7061757365547261+  "pauseTra"
A47F  6E736D697373696F+  "nsmissio"
A487  6E7300             "ns\0"
                         const [31]: "pauseTransmissions"
A48A  04                 const type 4
A48B  08                 string size (8)
A48C  67436C69656E7400   "gClient\0"
                         const [32]: "gClient"
A494  01                 const type 3
A495  CE02A228           const [33]: (681706190)
A499  01                 const type 3
A49A  38E7C5EA           const [34]: (-356128968)
A49E  01                 const type 3
A49F  3C2E251B           const [35]: (455421500)
A4A3  04                 const type 4
A4A4  19                 string size (25)
A4A5  426C6F636B547261+  "BlockTra"
A4AD  6E736D697373696F+  "nsmissio"
A4B5  6E466164654F7574+  "nFadeOut"
A4BD  00                 "\0"
                         const [36]: "BlockTransmissionFadeOut"
A4BE  04                 const type 4
A4BF  1D                 string size (29)
A4C0  5472616E736D6973+  "Transmis"
A4C8  73696F6E4F766572+  "sionOver"
A4D0  7269646546616C6C+  "rideFall"
A4D8  6261636B00         "back\0"
                         const [37]: "TransmissionOverrideFallback"
A4DD  04                 const type 4
A4DE  06                 string size (6)
A4DF  7461626C6500       "table\0"
                         const [38]: "table"
A4E5  01                 const type 3
A4E6  9D0C45E6           const [39]: (-431682403)
A4EA  04                 const type 4
A4EB  06                 string size (6)
A4EC  554953797300       "UISys\0"
                         const [40]: "UISys"
A4F2  01                 const type 3
A4F3  E0539B44           const [41]: (1151030240)
A4F7  01                 const type 3
A4F8  5EFDB1CD           const [42]: (-843973282)
A4FC  01                 const type 3
A4FD  50113E4F           const [43]: (1329467728)
A501  04                 const type 4
A502  12                 string size (18)
A503  67506C6179657250+  "gPlayerP"
A50B  726F66696C654D67+  "rofileMg"
A513  7200               "r\0"
                         const [44]: "gPlayerProfileMgr"
A515  01                 const type 3
A516  1A7BEF21           const [45]: (569342746)
A51A  01                 const type 3
A51B  2E61EB3E           const [46]: (1055613230)
A51F  01                 const type 3
A520  2DD695C7           const [47]: (-946481619)
A524  04                 const type 4
A525  1D                 string size (29)
A526  426C6F636B547261+  "BlockTra"
A52E  6E736D697373696F+  "nsmissio"
A536  6E7346726F6D5365+  "nsFromSe"
A53E  6E64657200         "nder\0"
                         const [48]: "BlockTransmissionsFromSender"
A543  01                 const type 3
A544  81CE8E09           const [49]: (160353921)
A548  04                 const type 4
A549  14                 string size (20)
A54A  5472616E736D6973+  "Transmis"
A552  73696F6E48697374+  "sionHist"
A55A  6F727900           "ory\0"
                         const [50]: "TransmissionHistory"
A55E  01                 const type 3
A55F  8495ED6B           const [51]: (1810732420)
A563  01                 const type 3
A564  86BBA40C           const [52]: (212122502)
A568  01                 const type 3
A569  DBC2E558           const [53]: (1491452635)
A56D  04                 const type 4
A56E  09                 string size (9)
A56F  6E65787454696D65+  "nextTime"
A577  00                 "\0"
                         const [54]: "nextTime"
A578  04                 const type 4
A579  11                 string size (17)
A57A  7265706561747352+  "repeatsR"
A582  656D61696E696E67+  "emaining"
A58A  00                 "\0"
                         const [55]: "repeatsRemaining"
A58B  01                 const type 3
A58C  6B25B193           const [56]: (-1817107093)
A590  04                 const type 4
A591  1C                 string size (28)
A592  5570646174656420+  "Updated "
A59A  70756C6C6564206E+  "pulled n"
A5A2  6578745175657565+  "extQueue"
A5AA  643A2000           "d: \0"
                         const [57]: "Updated pulled nextQueued: "
A5AE  01                 const type 3
A5AF  BB3AA4CA           const [58]: (-895206725)
A5B3  01                 const type 3
A5B4  F7172E3E           const [59]: (1043208183)
A5B8  01                 const type 3
A5B9  2A0BF845           const [60]: (1173883690)
A5BD  04                 const type 4
A5BE  08                 string size (8)
A5BF  67526567696F6E00   "gRegion\0"
                         const [61]: "gRegion"
A5C7  01                 const type 3
A5C8  BFF6E203           const [62]: (65205951)
A5CC  01                 const type 3
A5CD  2B1D702F           const [63]: (795876651)
A5D1  01                 const type 3
A5D2  FF2A83CE           const [64]: (-830264577)
A5D6  04                 const type 4
A5D7  0A                 string size (10)
A5D8  6747616D65446174+  "gGameDat"
A5E0  6100               "a\0"
                         const [65]: "gGameData"
A5E2  01                 const type 3
A5E3  9B09AD08           const [66]: (145557915)
A5E7  01                 const type 3
A5E8  E34785D0           const [67]: (-796571677)
A5EC  04                 const type 4
A5ED  0A                 string size (10)
A5EE  6D506F7274726169+  "mPortrai"
A5F6  7400               "t\0"
                         const [68]: "mPortrait"
A5F8  01                 const type 3
A5F9  DDB60B0F           const [69]: (252425949)
A5FD  04                 const type 4
A5FE  19                 string size (25)
A5FF  4B6565705472616E+  "KeepTran"
A607  736D697373696F6E+  "smission"
A60F  4267526567696F6E+  "BgRegion"
A617  00                 "\0"
                         const [70]: "KeepTransmissionBgRegion"
A618  04                 const type 4
A619  08                 string size (8)
A61A  6D5A6F6F6D657200   "mZoomer\0"
                         const [71]: "mZoomer"
A622  04                 const type 4
A623  05                 string size (5)
A624  6D61746800         "math\0"
                         const [72]: "math"
A629  01                 const type 3
A62A  F7615986           const [73]: (-2040962569)
A62E  01                 const type 3
A62F  0B477B6B           const [74]: (1803241227)
A633  04                 const type 4
A634  07                 string size (7)
A635  5F616C70686100     "_alpha\0"
                         const [75]: "_alpha"
A63C  04                 const type 4
A63D  0B                 string size (11)
A63E  496D616765467261+  "ImageFra"
A646  6D6500             "me\0"
                         const [76]: "ImageFrame"
A649  03                 const type 3
A64A  CDCCCC3C           const [77]: (-51)
A64E  01                 const type 3
A64F  40891B9E           const [78]: (-1642362560)
A653  01                 const type 3
A654  DC2CB5C1           const [79]: (-1045091108)
A658  03                 const type 3
A659  0000F041           const [80]: (0)
A65D  01                 const type 3
A65E  11D8F2D6           const [81]: (-688728047)
A662  01                 const type 3
A663  F2F3D249           const [82]: (1238561778)
A667  03                 const type 3
A668  0000E040           const [83]: (0)
A66C  03                 const type 3
A66D  00000040           const [84]: (0)
A671  03                 const type 3
A672  00007041           const [85]: (0)
A676  04                 const type 4
A677  07                 string size (7)
A678  5F706974636800     "_pitch\0"
                         const [86]: "_pitch"
A67F  04                 const type 4
A680  09                 string size (9)
A681  5F68656164696E67+  "_heading"
A689  00                 "\0"
                         const [87]: "_heading"
A68A  01                 const type 3
A68B  C87C3FF9           const [88]: (-113279800)
A68F  01                 const type 3
A690  5481C3AA           const [89]: (-1430027948)
A694  03                 const type 3
A695  00004040           const [90]: (0)
A699  03                 const type 3
A69A  0000003F           const [91]: (0)
A69E  01                 const type 3
A69F  2A71F965           const [92]: (1710846250)
A6A3  01                 const type 3
A6A4  DEAD95F5           const [93]: (-174740002)
A6A8  03                 const type 3
A6A9  00004843           const [94]: (0)
A6AD  01                 const type 3
A6AE  3810018B           const [95]: (-1962864584)
A6B2  01                 const type 3
A6B3  554B0393           const [96]: (-1828500651)
A6B7  03                 const type 3
A6B8  CDCC4C3D           const [97]: (-51)
A6BC  01                 const type 3
A6BD  2FAB2A30           const [98]: (808102703)
A6C1  04                 const type 4
A6C2  11                 string size (17)
A6C3  496D616765467261+  "ImageFra"
A6CB  6D652E496D616765+  "me.Image"
A6D3  00                 "\0"
                         const [99]: "ImageFrame.Image"
A6D4  04                 const type 4
A6D5  0F                 string size (15)
A6D6  506C61736D615374+  "PlasmaSt"
A6DE  72656E67746800     "rength\0"
                         const [100]: "PlasmaStrength"
A6E5  01                 const type 3
A6E6  98FD7463           const [101]: (1668611480)
A6EA  03                 const type 3
A6EB  0000A03F           const [102]: (0)
A6EF  01                 const type 3
A6F0  90EA4465           const [103]: (1699015312)
A6F4  04                 const type 4
A6F5  0F                 string size (15)
A6F6  4C6F747573476C69+  "LotusGli"
A6FE  746368696E6700     "tching\0"
                         const [104]: "LotusGlitching"
A705  04                 const type 4
A706  10                 string size (16)
A707  536372616D626C65+  "Scramble"
A70F  5F5374726F6E6700   "_Strong\0"
                         const [105]: "Scramble_Strong"
A717  03                 const type 3
A718  3333333F           const [106]: (51)
A71C  03                 const type 3
A71D  CDCC4C3E           const [107]: (-51)
A721  04                 const type 4
A722  12                 string size (18)
A723  2E496D6167654F75+  ".ImageOu"
A72B  7465722E496D6167+  "ter.Imag"
A733  6500               "e\0"
                         const [108]: ".ImageOuter.Image"
A735  04                 const type 4
A736  0D                 string size (13)
A737  506978656C617465+  "Pixelate"
A73F  4269617300         "Bias\0"
                         const [109]: "PixelateBias"
A744  03                 const type 3
A745  CDCC4C3F           const [110]: (-51)
A749  01                 const type 3
A74A  78F8F5D6           const [111]: (-688523144)
A74E  04                 const type 4
A74F  06                 string size (6)
A750  417474656E00       "Atten\0"
                         const [112]: "Atten"
A756  03                 const type 3
A757  9A99993E           const [113]: (-102)
A75B  03                 const type 3
A75C  0000C03F           const [114]: (0)
A760  03                 const type 3
A761  0000A040           const [115]: (0)
A765  04                 const type 4
A766  0E                 string size (14)
A767  4C6F747573566F78+  "LotusVox"
A76F  656C416D7400       "elAmt\0"
                         const [116]: "LotusVoxelAmt"
A775  03                 const type 3
A776  0000403F           const [117]: (0)
A77A  04                 const type 4
A77B  07                 string size (7)
A77C  6D5363616C6500     "mScale\0"
                         const [118]: "mScale"
A783  04                 const type 4
A784  12                 string size (18)
A785  674261636B67726F+  "gBackgro"
A78D  756E64526567696F+  "undRegio"
A795  6E00               "n\0"
                         const [119]: "gBackgroundRegion"
A797  04                 const type 4
A798  10                 string size (16)
A799  67506F7274726169+  "gPortrai"
A7A1  74526567696F6E00   "tRegion\0"
                         const [120]: "gPortraitRegion"
A7A9  01                 const type 3
A7AA  BBDEA045           const [121]: (1168170683)
A7AE  01                 const type 3
A7AF  BCD6AE9F           const [122]: (-1615931716)
A7B3  04                 const type 4
A7B4  09                 string size (9)
A7B5  536372616D626C65+  "Scramble"
A7BD  00                 "\0"
                         const [123]: "Scramble"
A7BE  03                 const type 3
A7BF  0AD7233C           const [124]: (10)
A7C3  01                 const type 3
A7C4  E390F4E7           const [125]: (-403402525)
                         * functions:
A7C8  00                 sizep (0)
                         * lines:
A7CA  07                 sizelineinfo (985)
                         [pc] (line)
A7CB  21                 [001] (33)
A7CC  05                 [002] (33)
A7CD  00                 [003] (33)
A7CE  00                 [004] (33)
A7CF  21                 [005] (33)
A7D0  05                 [006] (33)
A7D1  00                 [007] (33)
A7D2  00                 [008] (33)
A7D3  21                 [009] (33)
A7D4  05                 [010] (33)
A7D5  00                 [011] (34)
A7D6  00                 [012] (37)
A7D7  21                 [013] (37)
A7D8  05                 [014] (37)
A7D9  00                 [015] (38)
A7DA  00                 [016] (38)
A7DB  21                 [017] (39)
A7DC  05                 [018] (39)
A7DD  00                 [019] (42)
A7DE  00                 [020] (42)
A7DF  21                 [021] (42)
A7E0  05                 [022] (42)
A7E1  00                 [023] (42)
A7E2  00                 [024] (42)
A7E3  21                 [025] (42)
A7E4  05                 [026] (42)
A7E5  00                 [027] (42)
A7E6  00                 [028] (44)
A7E7  21                 [029] (44)
A7E8  05                 [030] (45)
A7E9  00                 [031] (45)
A7EA  00                 [032] (47)
A7EB  21                 [033] (47)
A7EC  05                 [034] (47)
A7ED  00                 [035] (47)
A7EE  00                 [036] (47)
A7EF  21                 [037] (47)
A7F0  05                 [038] (47)
A7F1  00                 [039] (47)
A7F2  00                 [040] (47)
A7F3  22                 [041] (47)
A7F4  05                 [042] (47)
A7F5  00                 [043] (47)
A7F6  00                 [044] (47)
A7F7  25                 [045] (47)
A7F8  05                 [046] (47)
A7F9  00                 [047] (48)
A7FA  00                 [048] (48)
A7FB  25                 [049] (48)
A7FC  05                 [050] (48)
A7FD  00                 [051] (48)
A7FE  00                 [052] (48)
A7FF  25                 [053] (48)
A800  05                 [054] (48)
A801  00                 [055] (48)
A802  00                 [056] (48)
A803  26                 [057] (48)
A804  05                 [058] (48)
A805  00                 [059] (48)
A806  00                 [060] (48)
A807  26                 [061] (48)
A808  05                 [062] (48)
A809  00                 [063] (48)
A80A  00                 [064] (48)
A80B  27                 [065] (48)
A80C  05                 [066] (50)
A80D  00                 [067] (50)
A80E  00                 [068] (50)
A80F  27                 [069] (51)
A810  05                 [070] (51)
A811  00                 [071] (52)
A812  00                 [072] (55)
A813  2A                 [073] (55)
A814  05                 [074] (57)
A815  00                 [075] (57)
A816  00                 [076] (57)
A817  2A                 [077] (58)
A818  05                 [078] (58)
A819  00                 [079] (58)
A81A  00                 [080] (58)
A81B  2A                 [081] (58)
A81C  05                 [082] (58)
A81D  00                 [083] (58)
A81E  00                 [084] (58)
A81F  2A                 [085] (58)
A820  05                 [086] (58)
A821  00                 [087] (59)
A822  00                 [088] (59)
A823  2A                 [089] (59)
A824  05                 [090] (59)
A825  00                 [091] (59)
A826  00                 [092] (59)
A827  2A                 [093] (59)
A828  05                 [094] (59)
A829  00                 [095] (60)
A82A  00                 [096] (60)
A82B  2A                 [097] (60)
A82C  05                 [098] (62)
A82D  00                 [099] (66)
A82E  00                 [100] (66)
A82F  2A                 [101] (66)
A830  05                 [102] (66)
A831  00                 [103] (66)
A832  00                 [104] (66)
A833  2A                 [105] (66)
A834  05                 [106] (67)
A835  00                 [107] (67)
A836  00                 [108] (67)
A837  2C                 [109] (67)
A838  05                 [110] (67)
A839  00                 [111] (67)
A83A  00                 [112] (67)
A83B  2C                 [113] (67)
A83C  05                 [114] (67)
A83D  00                 [115] (67)
A83E  00                 [116] (67)
A83F  2D                 [117] (68)
A840  05                 [118] (68)
A841  00                 [119] (68)
A842  00                 [120] (68)
A843  2D                 [121] (68)
A844  05                 [122] (68)
A845  00                 [123] (68)
A846  00                 [124] (68)
A847  2F                 [125] (68)
A848  05                 [126] (68)
A849  00                 [127] (68)
A84A  00                 [128] (71)
A84B  2F                 [129] (71)
A84C  05                 [130] (71)
A84D  00                 [131] (72)
A84E  00                 [132] (72)
A84F  2F                 [133] (72)
A850  05                 [134] (72)
A851  00                 [135] (72)
A852  00                 [136] (73)
A853  2F                 [137] (73)
A854  05                 [138] (73)
A855  00                 [139] (73)
A856  00                 [140] (74)
A857  2F                 [141] (74)
A858  05                 [142] (75)
A859  00                 [143] (75)
A85A  00                 [144] (76)
A85B  2F                 [145] (76)
A85C  05                 [146] (76)
A85D  00                 [147] (76)
A85E  00                 [148] (76)
A85F  2F                 [149] (77)
A860  05                 [150] (77)
A861  00                 [151] (77)
A862  00                 [152] (77)
A863  2F                 [153] (78)
A864  05                 [154] (78)
A865  00                 [155] (81)
A866  00                 [156] (81)
A867  2F                 [157] (81)
A868  05                 [158] (81)
A869  00                 [159] (81)
A86A  00                 [160] (81)
A86B  2F                 [161] (82)
A86C  05                 [162] (82)
A86D  00                 [163] (83)
A86E  00                 [164] (83)
A86F  2F                 [165] (85)
A870  05                 [166] (85)
A871  00                 [167] (85)
A872  00                 [168] (86)
A873  2F                 [169] (86)
A874  05                 [170] (87)
A875  00                 [171] (90)
A876  00                 [172] (90)
A877  2F                 [173] (90)
A878  05                 [174] (91)
A879  00                 [175] (91)
A87A  00                 [176] (91)
A87B  2F                 [177] (91)
A87C  05                 [178] (91)
A87D  00                 [179] (95)
A87E  00                 [180] (95)
A87F  2F                 [181] (95)
A880  05                 [182] (95)
A881  00                 [183] (95)
A882  00                 [184] (95)
A883  30                 [185] (96)
A884  05                 [186] (96)
A885  00                 [187] (96)
A886  00                 [188] (96)
A887  30                 [189] (97)
A888  05                 [190] (97)
A889  00                 [191] (97)
A88A  00                 [192] (97)
A88B  30                 [193] (97)
A88C  05                 [194] (99)
A88D  00                 [195] (99)
A88E  00                 [196] (99)
A88F  30                 [197] (101)
A890  05                 [198] (101)
A891  00                 [199] (101)
A892  00                 [200] (101)
A893  30                 [201] (101)
A894  05                 [202] (102)
A895  00                 [203] (103)
A896  00                 [204] (103)
A897  30                 [205] (103)
A898  05                 [206] (103)
A899  00                 [207] (104)
A89A  00                 [208] (104)
A89B  30                 [209] (104)
A89C  05                 [210] (104)
A89D  00                 [211] (104)
A89E  00                 [212] (104)
A89F  30                 [213] (104)
A8A0  05                 [214] (104)
A8A1  00                 [215] (104)
A8A2  00                 [216] (104)
A8A3  30                 [217] (105)
A8A4  05                 [218] (105)
A8A5  00                 [219] (105)
A8A6  00                 [220] (105)
A8A7  30                 [221] (105)
A8A8  05                 [222] (105)
A8A9  00                 [223] (105)
A8AA  00                 [224] (105)
A8AB  30                 [225] (107)
A8AC  05                 [226] (107)
A8AD  00                 [227] (107)
A8AE  00                 [228] (107)
A8AF  30                 [229] (107)
A8B0  05                 [230] (107)
A8B1  00                 [231] (108)
A8B2  00                 [232] (111)
A8B3  30                 [233] (111)
A8B4  05                 [234] (111)
A8B5  00                 [235] (111)
A8B6  00                 [236] (111)
A8B7  30                 [237] (111)
A8B8  05                 [238] (112)
A8B9  00                 [239] (112)
A8BA  00                 [240] (112)
A8BB  30                 [241] (112)
A8BC  05                 [242] (112)
A8BD  00                 [243] (113)
A8BE  00                 [244] (116)
A8BF  30                 [245] (116)
A8C0  05                 [246] (117)
A8C1  00                 [247] (117)
A8C2  00                 [248] (117)
A8C3  30                 [249] (119)
A8C4  05                 [250] (119)
A8C5  00                 [251] (121)
A8C6  00                 [252] (121)
A8C7  30                 [253] (122)
A8C8  05                 [254] (122)
A8C9  00                 [255] (122)
A8CA  00                 [256] (122)
A8CB  30                 [257] (123)
A8CC  05                 [258] (123)
A8CD  00                 [259] (123)
A8CE  00                 [260] (123)
A8CF  32                 [261] (123)
A8D0  05                 [262] (124)
A8D1  00                 [263] (124)
A8D2  00                 [264] (124)
A8D3  32                 [265] (124)
A8D4  05                 [266] (124)
A8D5  00                 [267] (124)
A8D6  00                 [268] (124)
A8D7  32                 [269] (124)
A8D8  05                 [270] (124)
A8D9  00                 [271] (124)
A8DA  00                 [272] (125)
A8DB  33                 [273] (-126)
A8DC  05                 [274] (-126)
A8DD  00                 [275] (-126)
A8DE  00                 [276] (-126)
A8DF  33                 [277] (-126)
A8E0  05                 [278] (-126)
A8E1  00                 [279] (-126)
A8E2  00                 [280] (-126)
A8E3  34                 [281] (-126)
A8E4  05                 [282] (-126)
A8E5  00                 [283] (-126)
A8E6  00                 [284] (-126)
A8E7  37                 [285] (-125)
A8E8  05                 [286] (-122)
A8E9  00                 [287] (-122)
A8EA  00                 [288] (-122)
A8EB  37                 [289] (-122)
A8EC  05                 [290] (-121)
A8ED  00                 [291] (-121)
A8EE  00                 [292] (-121)
A8EF  39                 [293] (-118)
A8F0  05                 [294] (-118)
A8F1  00                 [295] (-117)
A8F2  00                 [296] (-117)
A8F3  39                 [297] (-115)
A8F4  05                 [298] (-115)
A8F5  00                 [299] (-115)
A8F6  00                 [300] (-115)
A8F7  39                 [301] (-113)
A8F8  05                 [302] (-113)
A8F9  00                 [303] (-112)
A8FA  00                 [304] (-112)
A8FB  3A                 [305] (-112)
A8FC  05                 [306] (-112)
A8FD  00                 [307] (-112)
A8FE  00                 [308] (-111)
A8FF  3A                 [309] (-111)
A900  05                 [310] (-111)
A901  00                 [311] (-111)
A902  00                 [312] (-111)
A903  3A                 [313] (-110)
A904  05                 [314] (-110)
A905  00                 [315] (-109)
A906  00                 [316] (-109)
A907  3A                 [317] (-109)
A908  05                 [318] (-109)
A909  00                 [319] (-108)
A90A  00                 [320] (-107)
A90B  3A                 [321] (-107)
A90C  05                 [322] (-106)
A90D  00                 [323] (-106)
A90E  00                 [324] (-106)
A90F  3A                 [325] (-106)
A910  05                 [326] (-106)
A911  00                 [327] (-106)
A912  00                 [328] (-105)
A913  3A                 [329] (-105)
A914  05                 [330] (-105)
A915  00                 [331] (-105)
A916  00                 [332] (-105)
A917  3A                 [333] (-105)
A918  05                 [334] (-105)
A919  00                 [335] (-105)
A91A  00                 [336] (-105)
A91B  3A                 [337] (-105)
A91C  05                 [338] (-104)
A91D  00                 [339] (-104)
A91E  00                 [340] (-104)
A91F  3A                 [341] (-104)
A920  05                 [342] (-104)
A921  00                 [343] (-104)
A922  00                 [344] (-102)
A923  3B                 [345] (-101)
A924  05                 [346] (-99)
A925  00                 [347] (-99)
A926  00                 [348] (-99)
A927  3B                 [349] (-99)
A928  05                 [350] (-99)
A929  00                 [351] (-99)
A92A  00                 [352] (-99)
A92B  3B                 [353] (-99)
A92C  05                 [354] (-99)
A92D  00                 [355] (-95)
A92E  00                 [356] (-95)
A92F  3B                 [357] (-94)
A930  05                 [358] (-94)
A931  00                 [359] (-94)
A932  00                 [360] (-94)
A933  3B                 [361] (-94)
A934  05                 [362] (-94)
A935  00                 [363] (-93)
A936  00                 [364] (-93)
A937  3B                 [365] (-93)
A938  05                 [366] (-93)
A939  00                 [367] (-93)
A93A  00                 [368] (-93)
A93B  3B                 [369] (-93)
A93C  05                 [370] (-93)
A93D  00                 [371] (-93)
A93E  00                 [372] (-93)
A93F  3B                 [373] (-92)
A940  05                 [374] (-92)
A941  00                 [375] (-92)
A942  00                 [376] (-92)
A943  3C                 [377] (-92)
A944  05                 [378] (-92)
A945  00                 [379] (-90)
A946  00                 [380] (-89)
A947  3C                 [381] (-87)
A948  05                 [382] (-87)
A949  00                 [383] (-87)
A94A  00                 [384] (-87)
A94B  3C                 [385] (-87)
A94C  05                 [386] (-82)
A94D  00                 [387] (-82)
A94E  00                 [388] (-80)
A94F  3E                 [389] (-80)
A950  05                 [390] (-80)
A951  00                 [391] (-80)
A952  00                 [392] (-80)
A953  42                 [393] (-80)
A954  05                 [394] (-78)
A955  00                 [395] (-78)
A956  00                 [396] (-78)
A957  42                 [397] (-78)
A958  05                 [398] (-77)
A959  00                 [399] (-77)
A95A  00                 [400] (-75)
A95B  42                 [401] (-75)
A95C  05                 [402] (-75)
A95D  00                 [403] (-75)
A95E  00                 [404] (-74)
A95F  42                 [405] (-74)
A960  05                 [406] (-74)
A961  00                 [407] (-74)
A962  00                 [408] (-74)
A963  42                 [409] (-74)
A964  05                 [410] (-74)
A965  00                 [411] (-74)
A966  00                 [412] (-74)
A967  42                 [413] (-74)
A968  05                 [414] (-74)
A969  00                 [415] (-74)
A96A  00                 [416] (-74)
A96B  42                 [417] (-74)
A96C  05                 [418] (-74)
A96D  00                 [419] (-74)
A96E  00                 [420] (-74)
A96F  43                 [421] (-73)
A970  05                 [422] (-73)
A971  00                 [423] (-73)
A972  00                 [424] (-73)
A973  43                 [425] (-72)
A974  05                 [426] (-72)
A975  00                 [427] (-72)
A976  00                 [428] (-72)
A977  43                 [429] (-72)
A978  05                 [430] (-72)
A979  00                 [431] (-72)
A97A  00                 [432] (-72)
A97B  43                 [433] (-72)
A97C  05                 [434] (-72)
A97D  00                 [435] (-71)
A97E  00                 [436] (-71)
A97F  43                 [437] (-71)
A980  05                 [438] (-70)
A981  00                 [439] (-70)
A982  00                 [440] (-70)
A983  43                 [441] (-70)
A984  05                 [442] (-70)
A985  00                 [443] (-69)
A986  00                 [444] (-69)
A987  43                 [445] (-69)
A988  05                 [446] (-69)
A989  00                 [447] (-69)
A98A  00                 [448] (-69)
A98B  43                 [449] (-69)
A98C  05                 [450] (-69)
A98D  00                 [451] (-69)
A98E  00                 [452] (-68)
A98F  43                 [453] (-68)
A990  05                 [454] (-68)
A991  00                 [455] (-68)
A992  00                 [456] (-68)
A993  43                 [457] (-67)
A994  05                 [458] (-67)
A995  00                 [459] (-67)
A996  00                 [460] (-62)
A997  43                 [461] (-62)
A998  05                 [462] (-62)
A999  00                 [463] (-60)
A99A  00                 [464] (-60)
A99B  44                 [465] (-57)
A99C  05                 [466] (-57)
A99D  00                 [467] (-56)
A99E  00                 [468] (-56)
A99F  44                 [469] (-56)
A9A0  05                 [470] (-56)
A9A1  00                 [471] (-56)
A9A2  00                 [472] (-54)
A9A3  44                 [473] (-54)
A9A4  05                 [474] (-54)
A9A5  00                 [475] (-54)
A9A6  00                 [476] (-53)
A9A7  44                 [477] (-53)
A9A8  05                 [478] (-53)
A9A9  00                 [479] (-53)
A9AA  00                 [480] (-53)
A9AB  44                 [481] (-53)
A9AC  05                 [482] (-53)
A9AD  00                 [483] (-53)
A9AE  00                 [484] (-53)
A9AF  44                 [485] (-53)
A9B0  05                 [486] (-53)
A9B1  00                 [487] (-53)
A9B2  00                 [488] (-51)
A9B3  44                 [489] (-51)
A9B4  05                 [490] (-50)
A9B5  00                 [491] (-50)
A9B6  00                 [492] (-50)
A9B7  44                 [493] (-50)
A9B8  05                 [494] (-50)
A9B9  00                 [495] (-49)
A9BA  00                 [496] (-49)
A9BB  44                 [497] (-49)
A9BC  05                 [498] (-48)
A9BD  00                 [499] (-48)
A9BE  00                 [500] (-48)
A9BF  44                 [501] (-48)
A9C0  05                 [502] (-48)
A9C1  00                 [503] (-47)
A9C2  00                 [504] (-47)
A9C3  44                 [505] (-47)
A9C4  05                 [506] (-47)
A9C5  00                 [507] (-47)
A9C6  00                 [508] (-47)
A9C7  47                 [509] (-47)
A9C8  05                 [510] (-46)
A9C9  00                 [511] (-46)
A9CA  00                 [512] (-43)
A9CB  47                 [513] (-43)
A9CC  05                 [514] (-43)
A9CD  00                 [515] (-43)
A9CE  00                 [516] (-42)
A9CF  47                 [517] (-42)
A9D0  05                 [518] (-42)
A9D1  00                 [519] (-42)
A9D2  00                 [520] (-42)
A9D3  48                 [521] (-38)
A9D4  05                 [522] (-38)
A9D5  00                 [523] (-38)
A9D6  00                 [524] (-38)
A9D7  48                 [525] (-38)
A9D8  05                 [526] (-38)
A9D9  00                 [527] (-37)
A9DA  00                 [528] (-33)
A9DB  48                 [529] (-33)
A9DC  05                 [530] (-32)
A9DD  00                 [531] (-32)
A9DE  00                 [532] (-32)
A9DF  48                 [533] (-32)
A9E0  05                 [534] (-32)
A9E1  00                 [535] (-31)
A9E2  00                 [536] (-31)
A9E3  48                 [537] (-31)
A9E4  05                 [538] (-31)
A9E5  00                 [539] (-31)
A9E6  00                 [540] (-31)
A9E7  49                 [541] (-30)
A9E8  05                 [542] (-30)
A9E9  00                 [543] (-30)
A9EA  00                 [544] (-30)
A9EB  49                 [545] (-30)
A9EC  05                 [546] (-30)
A9ED  00                 [547] (-30)
A9EE  00                 [548] (-28)
A9EF  49                 [549] (-27)
A9F0  05                 [550] (-27)
A9F1  00                 [551] (-26)
A9F2  00                 [552] (-26)
A9F3  49                 [553] (-26)
A9F4  05                 [554] (-26)
A9F5  00                 [555] (-26)
A9F6  00                 [556] (-26)
A9F7  4A                 [557] (-25)
A9F8  05                 [558] (-25)
A9F9  00                 [559] (-25)
A9FA  00                 [560] (-25)
A9FB  4A                 [561] (-25)
A9FC  05                 [562] (-25)
A9FD  00                 [563] (-25)
A9FE  00                 [564] (-25)
A9FF  4B                 [565] (-25)
AA00  05                 [566] (-23)
AA01  00                 [567] (-23)
AA02  00                 [568] (-23)
AA03  4B                 [569] (-23)
AA04  05                 [570] (-23)
AA05  00                 [571] (-23)
AA06  00                 [572] (-22)
AA07  4C                 [573] (-22)
AA08  05                 [574] (-22)
AA09  00                 [575] (-22)
AA0A  00                 [576] (-22)
AA0B  4C                 [577] (-22)
AA0C  05                 [578] (-21)
AA0D  00                 [579] (-21)
AA0E  00                 [580] (-21)
AA0F  4C                 [581] (-21)
AA10  05                 [582] (-21)
AA11  00                 [583] (-21)
AA12  00                 [584] (-16)
AA13  4C                 [585] (-16)
AA14  05                 [586] (-16)
AA15  00                 [587] (-16)
AA16  00                 [588] (-16)
AA17  4C                 [589] (-16)
AA18  05                 [590] (-16)
AA19  00                 [591] (-16)
AA1A  00                 [592] (-16)
AA1B  4D                 [593] (-16)
AA1C  05                 [594] (-16)
AA1D  00                 [595] (-15)
AA1E  00                 [596] (-15)
AA1F  4D                 [597] (-15)
AA20  05                 [598] (-15)
AA21  00                 [599] (-15)
AA22  00                 [600] (-15)
AA23  4D                 [601] (-14)
AA24  05                 [602] (-14)
AA25  00                 [603] (-14)
AA26  00                 [604] (-14)
AA27  4D                 [605] (-14)
AA28  05                 [606] (-14)
AA29  00                 [607] (-14)
AA2A  00                 [608] (-13)
AA2B  4E                 [609] (-13)
AA2C  05                 [610] (-13)
AA2D  00                 [611] (-13)
AA2E  00                 [612] (-13)
AA2F  4E                 [613] (-13)
AA30  05                 [614] (-13)
AA31  00                 [615] (-11)
AA32  00                 [616] (-11)
AA33  51                 [617] (-11)
AA34  05                 [618] (-11)
AA35  00                 [619] (-11)
AA36  00                 [620] (-11)
AA37  51                 [621] (-10)
AA38  05                 [622] (-10)
AA39  00                 [623] (-10)
AA3A  00                 [624] (-10)
AA3B  51                 [625] (-10)
AA3C  05                 [626] (-10)
AA3D  00                 [627] (-10)
AA3E  00                 [628] (-10)
AA3F  51                 [629] (-10)
AA40  05                 [630] (-10)
AA41  00                 [631] (-10)
AA42  00                 [632] (-8)
AA43  51                 [633] (-8)
AA44  05                 [634] (-8)
AA45  00                 [635] (-8)
AA46  00                 [636] (-8)
AA47  51                 [637] (-8)
AA48  05                 [638] (-7)
AA49  00                 [639] (-7)
AA4A  00                 [640] (-7)
AA4B  52                 [641] (-7)
AA4C  05                 [642] (-7)
AA4D  00                 [643] (-6)
AA4E  00                 [644] (-6)
AA4F  52                 [645] (-6)
AA50  05                 [646] (-6)
AA51  00                 [647] (-6)
AA52  00                 [648] (-6)
AA53  53                 [649] (-6)
AA54  05                 [650] (-6)
AA55  00                 [651] (-6)
AA56  00                 [652] (-4)
AA57  53                 [653] (-4)
AA58  05                 [654] (-4)
AA59  00                 [655] (-4)
AA5A  00                 [656] (-4)
AA5B  55                 [657] (-4)
AA5C  05                 [658] (-4)
AA5D  00                 [659] (-4)
AA5E  00                 [660] (-3)
AA5F  55                 [661] (-3)
AA60  05                 [662] (-3)
AA61  00                 [663] (-3)
AA62  00                 [664] (-3)
AA63  55                 [665] (-3)
AA64  05                 [666] (-3)
AA65  00                 [667] (-3)
AA66  00                 [668] (-3)
AA67  56                 [669] (-3)
AA68  05                 [670] (-3)
AA69  00                 [671] (-3)
AA6A  00                 [672] (-3)
AA6B  56                 [673] (-3)
AA6C  05                 [674] (-3)
AA6D  00                 [675] (-3)
AA6E  00                 [676] (-3)
AA6F  57                 [677] (-2)
AA70  05                 [678] (-2)
AA71  00                 [679] (-2)
AA72  00                 [680] (-2)
AA73  5A                 [681] (-2)
AA74  05                 [682] (-1)
AA75  00                 [683] (-1)
AA76  00                 [684] (-1)
AA77  5A                 [685] (-1)
AA78  05                 [686] (-1)
AA79  00                 [687] (-1)
AA7A  00                 [688] (-1)
AA7B  5A                 [689] (-1)
AA7C  05                 [690] (-1)
AA7D  00                 [691] (-1)
AA7E  00                 [692] (0)
AA7F  5B                 [693] (0)
AA80  05                 [694] (0)
AA81  00                 [695] (0)
AA82  00                 [696] (0)
AA83  5B                 [697] (0)
AA84  05                 [698] (0)
AA85  00                 [699] (0)
AA86  00                 [700] (0)
AA87  5B                 [701] (0)
AA88  05                 [702] (4)
AA89  00                 [703] (4)
AA8A  00                 [704] (4)
AA8B  5B                 [705] (4)
AA8C  05                 [706] (4)
AA8D  00                 [707] (5)
AA8E  00                 [708] (5)
AA8F  5B                 [709] (5)
AA90  05                 [710] (5)
AA91  00                 [711] (6)
AA92  00                 [712] (6)
AA93  5F                 [713] (6)
AA94  05                 [714] (6)
AA95  00                 [715] (6)
AA96  00                 [716] (7)
AA97  5F                 [717] (8)
AA98  05                 [718] (9)
AA99  00                 [719] (9)
AA9A  00                 [720] (9)
AA9B  5F                 [721] (9)
AA9C  05                 [722] (9)
AA9D  00                 [723] (9)
AA9E  00                 [724] (9)
AA9F  5F                 [725] (9)
AAA0  05                 [726] (9)
AAA1  00                 [727] (9)
AAA2  00                 [728] (9)
AAA3  5F                 [729] (9)
AAA4  05                 [730] (9)
AAA5  00                 [731] (9)
AAA6  00                 [732] (9)
AAA7  5F                 [733] (9)
AAA8  05                 [734] (9)
AAA9  00                 [735] (10)
AAAA  00                 [736] (10)
AAAB  60                 [737] (10)
AAAC  05                 [738] (10)
AAAD  00                 [739] (10)
AAAE  00                 [740] (10)
AAAF  60                 [741] (10)
AAB0  05                 [742] (10)
AAB1  00                 [743] (10)
AAB2  00                 [744] (10)
AAB3  60                 [745] (10)
AAB4  05                 [746] (11)
AAB5  00                 [747] (11)
AAB6  00                 [748] (11)
AAB7  60                 [749] (11)
AAB8  05                 [750] (11)
AAB9  00                 [751] (11)
AABA  00                 [752] (11)
AABB  61                 [753] (12)
AABC  05                 [754] (12)
AABD  00                 [755] (12)
AABE  00                 [756] (13)
AABF  61                 [757] (13)
AAC0  05                 [758] (13)
AAC1  00                 [759] (13)
AAC2  00                 [760] (13)
AAC3  61                 [761] (13)
AAC4  05                 [762] (13)
AAC5  00                 [763] (13)
AAC6  00                 [764] (13)
AAC7  61                 [765] (13)
AAC8  05                 [766] (13)
AAC9  00                 [767] (13)
AACA  00                 [768] (13)
AACB  61                 [769] (13)
AACC  05                 [770] (13)
AACD  00                 [771] (13)
AACE  00                 [772] (13)
AACF  63                 [773] (14)
AAD0  05                 [774] (16)
AAD1  00                 [775] (16)
AAD2  00                 [776] (16)
AAD3  63                 [777] (16)
AAD4  05                 [778] (16)
AAD5  00                 [779] (16)
AAD6  00                 [780] (16)
AAD7  63                 [781] (16)
AAD8  05                 [782] (16)
AAD9  00                 [783] (16)
AADA  00                 [784] (16)
AADB  65                 [785] (16)
AADC  05                 [786] (16)
AADD  00                 [787] (16)
AADE  00                 [788] (16)
AADF  65                 [789] (16)
AAE0  05                 [790] (17)
AAE1  00                 [791] (17)
AAE2  00                 [792] (17)
AAE3  65                 [793] (17)
AAE4  05                 [794] (17)
AAE5  00                 [795] (17)
AAE6  00                 [796] (17)
AAE7  65                 [797] (17)
AAE8  05                 [798] (17)
AAE9  00                 [799] (17)
AAEA  00                 [800] (17)
AAEB  65                 [801] (18)
AAEC  05                 [802] (18)
AAED  00                 [803] (18)
AAEE  00                 [804] (18)
AAEF  66                 [805] (18)
AAF0  05                 [806] (18)
AAF1  00                 [807] (18)
AAF2  00                 [808] (18)
AAF3  67                 [809] (18)
AAF4  05                 [810] (18)
AAF5  00                 [811] (18)
AAF6  00                 [812] (21)
AAF7  67                 [813] (21)
AAF8  05                 [814] (21)
AAF9  00                 [815] (21)
AAFA  00                 [816] (21)
AAFB  67                 [817] (21)
AAFC  05                 [818] (21)
AAFD  00                 [819] (21)
AAFE  00                 [820] (22)
AAFF  67                 [821] (22)
AB00  05                 [822] (22)
AB01  00                 [823] (22)
AB02  00                 [824] (22)
AB03  68                 [825] (22)
AB04  05                 [826] (22)
AB05  00                 [827] (22)
AB06  00                 [828] (22)
AB07  68                 [829] (22)
AB08  05                 [830] (23)
AB09  00                 [831] (23)
AB0A  00                 [832] (23)
AB0B  68                 [833] (23)
AB0C  05                 [834] (23)
AB0D  00                 [835] (23)
AB0E  00                 [836] (23)
AB0F  68                 [837] (23)
AB10  05                 [838] (23)
AB11  00                 [839] (23)
AB12  00                 [840] (26)
AB13  68                 [841] (26)
AB14  05                 [842] (26)
AB15  00                 [843] (26)
AB16  00                 [844] (26)
AB17  68                 [845] (26)
AB18  05                 [846] (26)
AB19  00                 [847] (27)
AB1A  00                 [848] (27)
AB1B  68                 [849] (27)
AB1C  05                 [850] (28)
AB1D  00                 [851] (28)
AB1E  00                 [852] (28)
AB1F  68                 [853] (28)
AB20  05                 [854] (28)
AB21  00                 [855] (29)
AB22  00                 [856] (29)
AB23  68                 [857] (29)
AB24  05                 [858] (29)
AB25  00                 [859] (29)
AB26  00                 [860] (29)
AB27  68                 [861] (29)
AB28  05                 [862] (29)
AB29  00                 [863] (29)
AB2A  00                 [864] (30)
AB2B  69                 [865] (30)
AB2C  05                 [866] (30)
AB2D  00                 [867] (30)
AB2E  00                 [868] (30)
AB2F  69                 [869] (30)
AB30  05                 [870] (30)
AB31  00                 [871] (30)
AB32  00                 [872] (30)
AB33  69                 [873] (31)
AB34  05                 [874] (31)
AB35  00                 [875] (31)
AB36  00                 [876] (31)
AB37  69                 [877] (31)
AB38  05                 [878] (31)
AB39  00                 [879] (32)
AB3A  00                 [880] (32)
AB3B  69                 [881] (32)
AB3C  05                 [882] (32)
AB3D  00                 [883] (32)
AB3E  00                 [884] (32)
AB3F  69                 [885] (32)
AB40  05                 [886] (32)
AB41  00                 [887] (33)
AB42  00                 [888] (33)
AB43  69                 [889] (33)
AB44  05                 [890] (33)
AB45  00                 [891] (33)
AB46  00                 [892] (34)
AB47  69                 [893] (34)
AB48  05                 [894] (34)
AB49  00                 [895] (34)
AB4A  00                 [896] (34)
AB4B  6B                 [897] (35)
AB4C  05                 [898] (35)
AB4D  00                 [899] (35)
AB4E  00                 [900] (35)
AB4F  6B                 [901] (35)
AB50  05                 [902] (36)
AB51  00                 [903] (36)
AB52  00                 [904] (36)
AB53  6B                 [905] (36)
AB54  05                 [906] (36)
AB55  00                 [907] (39)
AB56  00                 [908] (39)
AB57  6B                 [909] (39)
AB58  05                 [910] (41)
AB59  00                 [911] (42)
AB5A  00                 [912] (42)
AB5B  6B                 [913] (42)
AB5C  05                 [914] (43)
AB5D  00                 [915] (46)
AB5E  00                 [916] (46)
AB5F  6B                 [917] (46)
AB60  05                 [918] (46)
AB61  00                 [919] (46)
AB62  00                 [920] (47)
AB63  6C                 [921] (50)
AB64  05                 [922] (50)
AB65  00                 [923] (50)
AB66  00                 [924] (50)
AB67  6F                 [925] (50)
AB68  05                 [926] (50)
AB69  00                 [927] (50)
AB6A  00                 [928] (50)
AB6B  6F                 [929] (50)
AB6C  05                 [930] (50)
AB6D  00                 [931] (52)
AB6E  00                 [932] (53)
AB6F  6F                 [933] (53)
AB70  05                 [934] (53)
AB71  00                 [935] (53)
AB72  00                 [936] (53)
AB73  6F                 [937] (53)
AB74  05                 [938] (53)
AB75  00                 [939] (53)
AB76  00                 [940] (53)
AB77  6F                 [941] (53)
AB78  05                 [942] (54)
AB79  00                 [943] (54)
AB7A  00                 [944] (54)
AB7B  6F                 [945] (54)
AB7C  05                 [946] (54)
AB7D  00                 [947] (54)
AB7E  00                 [948] (54)
AB7F  70                 [949] (54)
AB80  05                 [950] (54)
AB81  00                 [951] (54)
AB82  00                 [952] (54)
AB83  70                 [953] (54)
AB84  05                 [954] (55)
AB85  00                 [955] (57)
AB86  00                 [956] (57)
AB87  70                 [957] (57)
AB88  05                 [958] (57)
AB89  00                 [959] (57)
AB8A  00                 [960] (57)
AB8B  70                 [961] (57)
AB8C  05                 [962] (57)
AB8D  00                 [963] (57)
AB8E  00                 [964] (59)
AB8F  70                 [965] (59)
AB90  05                 [966] (59)
AB91  00                 [967] (59)
AB92  00                 [968] (59)
AB93  71                 [969] (59)
AB94  05                 [970] (59)
AB95  00                 [971] (59)
AB96  00                 [972] (59)
AB97  74                 [973] (59)
AB98  05                 [974] (61)
AB99  00                 [975] (61)
AB9A  00                 [976] (61)
AB9B  74                 [977] (61)
AB9C  05                 [978] (62)
AB9D  00                 [979] (62)
AB9E  00                 [980] (62)
AB9F  75                 [981] (63)
ABA0  05                 [982] (63)
ABA1  00                 [983] (63)
ABA2  00                 [984] (63)
ABA3  75                 [985] (65)
                         * locals:
B72F  00                 sizelocvars (0)
                         * upvalues:
B730  00                 sizeupvalues (0)
                         ** end of function **

                         
B731                     ** function [24] definition (level 2)
                         ** start of function **
B731  00                 string size (0)
                         source name: (none)
B733  0C                 line defined (1603)
B734  C5                 last line defined (1605)
B735  0C                 nups (1)
B736  01                 numparams (1)
B737  01                 is_vararg (0)
B738  00                 maxstacksize (3)
                         * code:
B73A  04                 sizecode (4)
B73B  53000000           [1] getupval   1   0      
B73F  92000000           [2] move       2   0      
B743  62400001           [3] call       1   2   1  
B747  1E008000           [4] return     0   1      
                         * constants:
B74B  00                 sizek (0)
                         * functions:
B74C  00                 sizep (0)
                         * lines:
B74D  04                 sizelineinfo (4)
                         [pc] (line)
B74E  44                 [1] (68)
B74F  06                 [2] (68)
B750  00                 [3] (68)
B751  00                 [4] (69)
                         * locals:
B75E  00                 sizelocvars (0)
                         * upvalues:
B75F  00                 sizeupvalues (0)
                         ** end of function **

                         
B760                     ** function [25] definition (level 2)
                         ** start of function **
B760  00                 string size (0)
                         source name: (none)
B762  0C                 line defined (1607)
B763  C9                 last line defined (1609)
B764  0C                 nups (1)
B765  01                 numparams (0)
B766  00                 is_vararg (0)
B767  00                 maxstacksize (2)
                         * code:
B769  03                 sizecode (3)
B76A  17008000           [1] loadbool   0   1   0    ; true
fail op	8
B76E  08000000           [2] setupval   0   0      
B772  1E008000           [3] return     0   1      
                         * constants:
B776  00                 sizek (0)
                         * functions:
B777  00                 sizep (0)
                         * lines:
B778  03                 sizelineinfo (3)
                         [pc] (line)
B779  48                 [1] (72)
B77A  06                 [2] (72)
B77B  00                 [3] (73)
                         * locals:
B785  00                 sizelocvars (0)
                         * upvalues:
B786  00                 sizeupvalues (0)
                         ** end of function **

                         
B787                     ** function [26] definition (level 2)
                         ** start of function **
B787  00                 string size (0)
                         source name: (none)
B789  0C                 line defined (1611)
B78A  D3                 last line defined (1619)
B78B  0C                 nups (4)
B78C  04                 numparams (0)
B78D  00                 is_vararg (0)
B78E  00                 maxstacksize (4)
                         * code:
B790  14                 sizecode (20)
B791  1D000000           [01] getglobal  0   0        ; _T
B795  0C80C080           [02] settable   0   257 258  ; "curTransmission" nil
B799  06000000           [03] loadnil    0   0      
fail op	8
B79D  08000000           [04] setupval   0   0      
B7A1  13008000           [05] getupval   0   1      
B7A5  22408000           [06] call       0   1   1  
B7A9  13000001           [07] getupval   0   2      
B7AD  18000000           [08] test       0       0    ; to [10] if true
B7B1  1A400280           [09] jmp        10           ; to [20]
B7B5  1DC00000           [10] getglobal  0   3        ; 1074689893
B7B9  53008001           [11] getupval   1   3      
B7BD  22800001           [12] call       0   2   2  
B7C1  18400000           [13] test       0       1    ; to [15] if false
B7C5  1A000180           [14] jmp        5            ; to [20]
B7C9  13008001           [15] getupval   0   3      
B7CD  24004100           [16] self       0   0   260  ; 1167009705
B7D1  99400100           [17] loadk      2   5        ; "OnTransmissionDone"
B7D5  D9800100           [18] loadk      3   6        ; ""
B7D9  22400002           [19] call       0   4   1  
B7DD  1E008000           [20] return     0   1      
                         * constants:
B7E1  07                 sizek (7)
B7E2  04                 const type 4
B7E3  03                 string size (3)
B7E4  5F5400             "_T\0"
                         const [0]: "_T"
B7E7  04                 const type 4
B7E8  10                 string size (16)
B7E9  6375725472616E73+  "curTrans"
B7F1  6D697373696F6E00   "mission\0"
                         const [1]: "curTransmission"
B7F9  00                 const type 0
                         const [2]: nil
B7FA  01                 const type 3
B7FB  65770E40           const [3]: (1074689893)
B7FF  01                 const type 3
B800  A9278F45           const [4]: (1167009705)
B804  04                 const type 4
B805  13                 string size (19)
B806  4F6E5472616E736D+  "OnTransm"
B80E  697373696F6E446F+  "issionDo"
B816  6E6500             "ne\0"
                         const [5]: "OnTransmissionDone"
B819  04                 const type 4
B81A  01                 string size (0)
                         const [6]: ""
                         * functions:
B81C  00                 sizep (0)
                         * lines:
B81D  14                 sizelineinfo (20)
                         [pc] (line)
B81E  4C                 [01] (76)
B81F  06                 [02] (76)
B820  00                 [03] (77)
B821  00                 [04] (77)
B822  4C                 [05] (78)
B823  06                 [06] (78)
B824  00                 [07] (80)
B825  00                 [08] (80)
B826  4D                 [09] (80)
B827  06                 [10] (80)
B828  00                 [11] (80)
B829  00                 [12] (80)
B82A  4D                 [13] (80)
B82B  06                 [14] (80)
B82C  00                 [15] (81)
B82D  00                 [16] (81)
B82E  4E                 [17] (81)
B82F  06                 [18] (81)
B830  00                 [19] (81)
B831  00                 [20] (83)
                         * locals:
B86E  00                 sizelocvars (0)
                         * upvalues:
B86F  00                 sizeupvalues (0)
                         ** end of function **

                         
B870                     ** function [27] definition (level 2)
                         ** start of function **
B870  00                 string size (0)
                         source name: (none)
B872  0C                 line defined (1622)
B873  D9                 last line defined (1625)
B874  0C                 nups (1)
B875  01                 numparams (1)
B876  01                 is_vararg (0)
B877  00                 maxstacksize (5)
                         * code:
B879  08                 sizecode (8)
B87A  5D000000           [1] getglobal  1   0        ; table
B87E  4E40C000           [2] gettable   1   1   257  ; -431682403
B882  93000000           [3] getupval   2   0      
B886  DD800000           [4] getglobal  3   2        ; -895206725
B88A  12010000           [5] move       4   0      
B88E  E2000001           [6] call       3   2   0  
B892  62400000           [7] call       1   0   1  
B896  1E008000           [8] return     0   1      
                         * constants:
B89A  03                 sizek (3)
B89B  04                 const type 4
B89C  06                 string size (6)
B89D  7461626C6500       "table\0"
                         const [0]: "table"
B8A3  01                 const type 3
B8A4  9D0C45E6           const [1]: (-431682403)
B8A8  01                 const type 3
B8A9  BB3AA4CA           const [2]: (-895206725)
                         * functions:
B8AD  00                 sizep (0)
                         * lines:
B8AE  08                 sizelineinfo (8)
                         [pc] (line)
B8AF  58                 [1] (88)
B8B0  06                 [2] (88)
B8B1  00                 [3] (88)
B8B2  00                 [4] (88)
B8B3  58                 [5] (88)
B8B4  06                 [6] (88)
B8B5  00                 [7] (88)
B8B6  00                 [8] (89)
                         * locals:
B8CF  00                 sizelocvars (0)
                         * upvalues:
B8D0  00                 sizeupvalues (0)
                         ** end of function **

                         * lines:
B8D2  03                 sizelineinfo (391)
                         [pc] (line)
B8D3  18                 [001] (24)
B8D4  00                 [002] (25)
B8D5  00                 [003] (26)
B8D6  00                 [004] (27)
B8D7  19                 [005] (28)
B8D8  00                 [006] (29)
B8D9  00                 [007] (30)
B8DA  00                 [008] (32)
B8DB  1A                 [009] (32)
B8DC  00                 [010] (32)
B8DD  00                 [011] (32)
B8DE  00                 [012] (32)
B8DF  1B                 [013] (32)
B8E0  00                 [014] (32)
B8E1  00                 [015] (32)
B8E2  00                 [016] (32)
B8E3  1C                 [017] (33)
B8E4  00                 [018] (35)
B8E5  00                 [019] (36)
B8E6  00                 [020] (37)
B8E7  1D                 [021] (41)
B8E8  00                 [022] (42)
B8E9  00                 [023] (43)
B8EA  00                 [024] (44)
B8EB  1E                 [025] (46)
B8EC  00                 [026] (47)
B8ED  00                 [027] (48)
B8EE  00                 [028] (49)
B8EF  20                 [029] (50)
B8F0  00                 [030] (52)
B8F1  00                 [031] (53)
B8F2  00                 [032] (54)
B8F3  20                 [033] (56)
B8F4  00                 [034] (56)
B8F5  00                 [035] (56)
B8F6  00                 [036] (57)
B8F7  20                 [037] (57)
B8F8  00                 [038] (57)
B8F9  00                 [039] (59)
B8FA  00                 [040] (59)
B8FB  20                 [041] (59)
B8FC  00                 [042] (60)
B8FD  00                 [043] (60)
B8FE  00                 [044] (60)
B8FF  20                 [045] (61)
B900  00                 [046] (61)
B901  00                 [047] (61)
B902  00                 [048] (63)
B903  20                 [049] (64)
B904  00                 [050] (65)
B905  00                 [051] (66)
B906  00                 [052] (67)
B907  20                 [053] (68)
B908  00                 [054] (70)
B909  00                 [055] (73)
B90A  00                 [056] (74)
B90B  20                 [057] (76)
B90C  00                 [058] (78)
B90D  00                 [059] (78)
B90E  00                 [060] (78)
B90F  20                 [061] (79)
B910  00                 [062] (79)
B911  00                 [063] (79)
B912  00                 [064] (80)
B913  21                 [065] (80)
B914  00                 [066] (80)
B915  00                 [067] (81)
B916  00                 [068] (81)
B917  23                 [069] (81)
B918  00                 [070] (82)
B919  00                 [071] (82)
B91A  00                 [072] (82)
B91B  24                 [073] (83)
B91C  00                 [074] (84)
B91D  00                 [075] (85)
B91E  00                 [076] (87)
B91F  25                 [077] (88)
B920  00                 [078] (89)
B921  00                 [079] (91)
B922  00                 [080] (92)
B923  29                 [081] (94)
B924  00                 [082] (97)
B925  00                 [083] (98)
B926  00                 [084] (100)
B927  2A                 [085] (104)
B928  00                 [086] (106)
B929  00                 [087] (107)
B92A  00                 [088] (108)
B92B  2B                 [089] (110)
B92C  00                 [090] (111)
B92D  00                 [091] (112)
B92E  00                 [092] (113)
B92F  2C                 [093] (115)
B930  00                 [094] (117)
B931  00                 [095] (118)
B932  00                 [096] (118)
B933  2E                 [097] (118)
B934  00                 [098] (118)
B935  00                 [099] (118)
B936  00                 [100] (118)
B937  2F                 [101] (119)
B938  00                 [102] (119)
B939  00                 [103] (119)
B93A  00                 [104] (119)
B93B  30                 [105] (119)
B93C  00                 [106] (119)
B93D  00                 [107] (120)
B93E  00                 [108] (120)
B93F  31                 [109] (120)
B940  00                 [110] (120)
B941  00                 [111] (120)
B942  00                 [112] (121)
B943  32                 [113] (122)
B944  00                 [114] (124)
B945  00                 [115] (125)
B946  00                 [116] (127)
B947  34                 [117] (-128)
B948  00                 [118] (-127)
B949  00                 [119] (-126)
B94A  00                 [120] (-107)
B94B  35                 [121] (-91)
B94C  00                 [122] (-91)
B94D  00                 [123] (-47)
B94E  00                 [124] (-47)
B94F  36                 [125] (-47)
B950  00                 [126] (-47)
B951  00                 [127] (-29)
B952  00                 [128] (-29)
B953  38                 [129] (-29)
B954  00                 [130] (-14)
B955  00                 [131] (-14)
B956  00                 [132] (-14)
B957  38                 [133] (-8)
B958  00                 [134] (-8)
B959  00                 [135] (-8)
B95A  00                 [136] (5)
B95B  38                 [137] (5)
B95C  00                 [138] (5)
B95D  00                 [139] (5)
B95E  00                 [140] (5)
B95F  39                 [141] (20)
B960  00                 [142] (20)
B961  00                 [143] (20)
B962  00                 [144] (20)
B963  39                 [145] (29)
B964  00                 [146] (29)
B965  00                 [147] (29)
B966  00                 [148] (29)
B967  39                 [149] (29)
B968  00                 [150] (29)
B969  00                 [151] (43)
B96A  00                 [152] (43)
B96B  3B                 [153] (43)
B96C  00                 [154] (43)
B96D  00                 [155] (43)
B96E  00                 [156] (72)
B96F  3B                 [157] (72)
B970  00                 [158] (72)
B971  00                 [159] (72)
B972  00                 [160] (72)
B973  3B                 [161] (72)
B974  00                 [162] (105)
B975  00                 [163] (105)
B976  00                 [164] (105)
B977  3C                 [165] (105)
B978  00                 [166] (105)
B979  00                 [167] (116)
B97A  00                 [168] (116)
B97B  3C                 [169] (116)
B97C  00                 [170] (116)
B97D  00                 [171] (116)
B97E  00                 [172] (116)
B97F  3C                 [173] (-89)
B980  00                 [174] (-89)
B981  00                 [175] (-89)
B982  00                 [176] (-89)
B983  3D                 [177] (-89)
B984  00                 [178] (-89)
B985  00                 [179] (-89)
B986  00                 [180] (-89)
B987  3D                 [181] (-75)
B988  00                 [182] (-75)
B989  00                 [183] (-75)
B98A  00                 [184] (66)
B98B  3D                 [185] (66)
B98C  00                 [186] (66)
B98D  00                 [187] (66)
B98E  00                 [188] (66)
B98F  3F                 [189] (66)
B990  00                 [190] (66)
B991  00                 [191] (66)
B992  00                 [192] (66)
B993  40                 [193] (66)
B994  00                 [194] (66)
B995  00                 [195] (66)
B996  00                 [196] (66)
B997  41                 [197] (66)
B998  00                 [198] (66)
B999  00                 [199] (66)
B99A  00                 [200] (66)
B99B  42                 [201] (66)
B99C  00                 [202] (66)
B99D  00                 [203] (66)
B99E  00                 [204] (66)
B99F  43                 [205] (66)
B9A0  00                 [206] (66)
B9A1  00                 [207] (66)
B9A2  00                 [208] (66)
B9A3  44                 [209] (66)
B9A4  00                 [210] (66)
B9A5  00                 [211] (66)
B9A6  00                 [212] (66)
B9A7  46                 [213] (66)
B9A8  00                 [214] (66)
B9A9  00                 [215] (66)
B9AA  00                 [216] (66)
B9AB  49                 [217] (66)
B9AC  00                 [218] (66)
B9AD  00                 [219] (66)
B9AE  00                 [220] (66)
B9AF  4A                 [221] (66)
B9B0  00                 [222] (66)
B9B1  00                 [223] (66)
B9B2  00                 [224] (66)
B9B3  4C                 [225] (66)
B9B4  00                 [226] (66)
B9B5  00                 [227] (66)
B9B6  00                 [228] (66)
B9B7  4E                 [229] (66)
B9B8  00                 [230] (66)
B9B9  00                 [231] (66)
B9BA  00                 [232] (66)
B9BB  4E                 [233] (66)
B9BC  00                 [234] (66)
B9BD  00                 [235] (66)
B9BE  00                 [236] (66)
B9BF  4E                 [237] (66)
B9C0  00                 [238] (66)
B9C1  00                 [239] (66)
B9C2  00                 [240] (66)
B9C3  4F                 [241] (66)
B9C4  00                 [242] (66)
B9C5  00                 [243] (66)
B9C6  00                 [244] (66)
B9C7  4F                 [245] (-48)
B9C8  00                 [246] (-48)
B9C9  00                 [247] (-48)
B9CA  00                 [248] (-48)
B9CB  4F                 [249] (-48)
B9CC  00                 [250] (-48)
B9CD  00                 [251] (-48)
B9CE  00                 [252] (-48)
B9CF  50                 [253] (-48)
B9D0  00                 [254] (-48)
B9D1  00                 [255] (-48)
B9D2  00                 [256] (-48)
B9D3  50                 [257] (-48)
B9D4  00                 [258] (-48)
B9D5  00                 [259] (-48)
B9D6  00                 [260] (-48)
B9D7  50                 [261] (-48)
B9D8  00                 [262] (-48)
B9D9  00                 [263] (-48)
B9DA  00                 [264] (-48)
B9DB  51                 [265] (-48)
B9DC  00                 [266] (-48)
B9DD  00                 [267] (-48)
B9DE  00                 [268] (-48)
B9DF  51                 [269] (47)
B9E0  00                 [270] (47)
B9E1  00                 [271] (47)
B9E2  00                 [272] (47)
B9E3  51                 [273] (47)
B9E4  00                 [274] (47)
B9E5  00                 [275] (47)
B9E6  00                 [276] (47)
B9E7  52                 [277] (47)
B9E8  00                 [278] (47)
B9E9  00                 [279] (47)
B9EA  00                 [280] (47)
B9EB  52                 [281] (47)
B9EC  00                 [282] (47)
B9ED  00                 [283] (47)
B9EE  00                 [284] (47)
B9EF  52                 [285] (47)
B9F0  00                 [286] (47)
B9F1  00                 [287] (47)
B9F2  00                 [288] (-46)
B9F3  53                 [289] (-55)
B9F4  00                 [290] (-55)
B9F5  00                 [291] (-55)
B9F6  00                 [292] (-55)
B9F7  54                 [293] (-55)
B9F8  00                 [294] (-55)
B9F9  00                 [295] (-55)
B9FA  00                 [296] (-55)
B9FB  55                 [297] (-55)
B9FC  00                 [298] (-55)
B9FD  00                 [299] (-22)
B9FE  00                 [300] (-22)
B9FF  57                 [301] (-22)
BA00  00                 [302] (-22)
BA01  00                 [303] (-22)
BA02  00                 [304] (-22)
BA03  58                 [305] (-22)
BA04  00                 [306] (-2)
BA05  00                 [307] (-2)
BA06  00                 [308] (-2)
BA07  59                 [309] (-2)
BA08  00                 [310] (-2)
BA09  00                 [311] (-2)
BA0A  00                 [312] (-2)
BA0B  5B                 [313] (11)
BA0C  00                 [314] (11)
BA0D  00                 [315] (11)
BA0E  00                 [316] (30)
BA0F  5C                 [317] (30)
BA10  00                 [318] (30)
BA11  00                 [319] (30)
BA12  00                 [320] (30)
BA13  5E                 [321] (30)
BA14  00                 [322] (30)
BA15  00                 [323] (30)
BA16  00                 [324] (30)
BA17  61                 [325] (65)
BA18  00                 [326] (65)
BA19  00                 [327] (65)
BA1A  00                 [328] (65)
BA1B  62                 [329] (65)
BA1C  00                 [330] (65)
BA1D  00                 [331] (65)
BA1E  00                 [332] (65)
BA1F  64                 [333] (65)
BA20  00                 [334] (65)
BA21  00                 [335] (65)
BA22  00                 [336] (65)
BA23  68                 [337] (65)
BA24  00                 [338] (65)
BA25  00                 [339] (65)
BA26  00                 [340] (65)
BA27  6A                 [341] (65)
BA28  00                 [342] (65)
BA29  00                 [343] (65)
BA2A  00                 [344] (65)
BA2B  6B                 [345] (65)
BA2C  00                 [346] (65)
BA2D  00                 [347] (65)
BA2E  00                 [348] (65)
BA2F  6C                 [349] (65)
BA30  00                 [350] (65)
BA31  00                 [351] (65)
BA32  00                 [352] (65)
BA33  6E                 [353] (65)
BA34  00                 [354] (65)
BA35  00                 [355] (65)
BA36  00                 [356] (65)
BA37  6F                 [357] (65)
BA38  00                 [358] (65)
BA39  00                 [359] (65)
BA3A  00                 [360] (65)
BA3B  70                 [361] (65)
BA3C  00                 [362] (65)
BA3D  00                 [363] (65)
BA3E  00                 [364] (65)
BA3F  71                 [365] (65)
BA40  00                 [366] (65)
BA41  00                 [367] (65)
BA42  00                 [368] (65)
BA43  73                 [369] (65)
BA44  00                 [370] (32)
BA45  00                 [371] (69)
BA46  00                 [372] (69)
BA47  75                 [373] (69)
BA48  00                 [374] (67)
BA49  00                 [375] (73)
BA4A  00                 [376] (73)
BA4B  76                 [377] (73)
BA4C  00                 [378] (71)
BA4D  00                 [379] (83)
BA4E  00                 [380] (83)
BA4F  76                 [381] (83)
BA50  00                 [382] (83)
BA51  00                 [383] (83)
BA52  00                 [384] (83)
BA53  76                 [385] (75)
BA54  00                 [386] (85)
BA55  00                 [387] (89)
BA56  00                 [388] (89)
BA57  76                 [389] (89)
BA58  00                 [390] (86)
BA59  00                 [391] (89)
                         * locals:
BEEF  00                 sizelocvars (0)
                         * upvalues:
BEF0  00                 sizeupvalues (0)
                         ** end of function **

BEF1                     ** end of chunk **
