1	C:\wlua_dump\path\Lotus\InterfaceVignetteConsole.lua
Pos   Hex Data           Description or Code
------------------------------------------------------------------------
0000                     ** source chunk: C:\wlua_dump\path\Lotus\InterfaceVignetteConsole.lua
                         ** global header start **
0000  7F                 header signature: ""
0001  00                 version (major:minor hex digits)
0002  00                 format (0=official)
0003  00                 endianness (1=little endian)
0004  00                 size of int (bytes)
0005  00                 size of size_t (bytes)
0006  02                 size of Instruction (bytes)
0007  40                 size of number (bytes)
0008  E4                 integral (1=integral)
4228
                         * number type: single
                         * x86 standard (32-bit, little endian, doubles)
                         ** global header end **
EE.Interface.Utilities
Lotus.Interface.UIUtilities
Loader
IsLoading
Vignette
CurrTank
CurrFish
CurrStoreItems
Fishes
Wallpaper
IsLoader
ResetWallpaper
ResetVignette
ResetFish
/Lotus/Types/Game/ActionFigureDioramas/OceanADiorama
/Lotus/Types/Game/ActionFigureDiorama
/Lotus/Types/Game/QuartersWallTattoo
WallpaperPreview
PermTankPreview
SIDE
MAIN
IsInputBlocked
SetTrigger
Close
OnShipVignetteSet
UpdateButtons
Initialize
Shutdown
OnVignetteStreamed
OnVignetteRemoved
Update
onViewportSizeChanged
onKeyDown_MENU_CLICK
onKeyUp_MENU_CLICK
onKeyUp_MENU_SELECT
onKeyDown_MENU_MOUSE_Z
HideScreenForPlatPurchase
Fishes

table
StoreItem
Count
Fishes
Vignette
mVignette
Wallpaper
mWallpaper

table
_T
ShipDecosInVignette
OnShipVignetteSet
mMovie
Close
DisableUIInput
_G
UISound_Close
/Lotus/Language/Menu/ShipQuartersVignetteSetFailed
Wallpaper
mWallpaper
ResetWallpaper
table
Vignette
mVignette
ResetVignette
Fishes
ResetFish

fishInfoManifest
Loader
UISys
IsLoading
string
RemovedDecos
_T
BackgroundMovie
RefreshShipDecos
table

mState
State
CUSTOMIZATION
/Lotus/Language/Menu/Exit
/Lotus/Language/Menu/Global_Back
Label
CallBack
CallOut
MENU_CANCEL
_T
mMovie
mMovie
Close

table
StoreItem
IsNone
mItemType
mItemCount
fishInfoManifest
Owned
ShowCount
Count
CustomizationList
mSelectedElement
Vignette
MAIN
Fishes

fishInfoManifest
table
Loader
UISys
IsLoading
ItemSelectionData
TempSelection
CustomizationList
mSelectedElement
ItemSelectionData
CurrSelection
TempSelection
CustomizationList
mSelectedElement
Wallpaper
Loader
UISys
IsLoading
ItemSelectionData
TempSelection
CustomizationList
mSelectedElement
ItemSelectionData
CurrSelection
TempSelection
CurrTank
FishPaths
CurrTank
gRegion
CurrTank
SIDE
gRegion
CurrTank
SIDE
Vignette
CurrTank
Type
CustomizationList
IsFishElement
CameraTag
IsTankToggle
Enabled
CustomizationList

gFishItemType
StoreItem
Count
table
fishInfoManifest
Fishes
Lotus_Game
SpearFishingFishInfo_SP_WEIGHT
FishItem_FPC_HIGH
mMovie
/Lotus/Language/PersonalQuarters/SelectFishTitle
NUM
/Lotus/Language/PersonalQuarters/RemoveFish
/Lotus/Language/PersonalQuarters/
AddFishErrorNoSpace
RemoveFishErrorNoFish
_G
UIMovie_ItemBrowsingMovie
SetVariableSelection
SetTitle
_T
FishSelected
SetCallBack
GetFish
SetElementsFunction
ValidateFish
SetValidationFunction
_T
FishSelected
GetFish
ValidateFish
CurrFish
CurrStoreItems
StoreItem
fishInfoManifest
table
Loader
UISys
IsLoading
Fishes

StoreItem
Lotus_Game
SpearFishingFishInfo_SP_WEIGHT
FishItem_FPC_HIGH
mMovie
/Lotus/Language/PersonalQuarters/FishTankLargeWarning
NUM
CustomizationList
Vignette
Type
ITEM_SELECTION
TopTitle
/Lotus/Language/PersonalQuarters/WallpaperTitle
NameTag
Tag
WALLPAPER
CameraTag
ItemSelectionData
/Lotus/Language/PersonalQuarters/WallpaperSelectionTitle
GetItemsFunction
OnItemSelectedFunction
OnSelectionDoneFunction
Columns
VerticalFill
VerticalFillRatio
HasBottomLine
/Lotus/Language/PersonalQuarters/VignetteTitle
VIGNETTE
/Lotus/Language/PersonalQuarters/VignetteSelectionTitle
Label
/Lotus/Language/PersonalQuarters/FishTankSide
SIDE
/Lotus/Language/PersonalQuarters/FishTankVignette
MAIN
CurrTank
TOGGLE
/Lotus/Language/PersonalQuarters/FishTag
/Lotus/Language/PersonalQuarters/FishTankTag
IsFishElement
IsTankToggle
ToggleIndex
Values
CallBack
BUTTON
/Lotus/Language/PersonalQuarters/AddFish
Enabled
/Lotus/Language/PersonalQuarters/RemoveFish
table
CurrSelection
TempSelection
Wallpaper
gRegion
mMovie
Hint
_visible
mState
State
CUSTOMIZATION
textHeight
Bg
_height
Blurer
mMovie
Settings
_y
mState
State
CUSTOMIZATION
CustomizationList
ItemSelectionGrid
mRows
mRowSeparation
CurrSelectionData
VerticalFill
x
y
Bg
_width
Blurer
Hint
Lotus.Interface.Components.CustomizationList
mMovie
Settings
StateChangedCallBack
CustomizationList
_Settings_OnFocused
OnFocused
ItemSelectionGrid
mMovie
Bg
_visible
mState
State
CUSTOMIZATION
CameraTag
mMovie
Hint
_width
Lotus.Interface.Components.TipGenerator
_RefreshTip
RefreshTip
/Lotus/Language/PersonalQuarters/FishSelectionHint
COMMON
/Lotus/Language/PersonalQuarters/DecoRemoveHint
/Lotus/Language/PersonalQuarters/FishTankCapacityHint
/Lotus/Language/PersonalQuarters/FishTankLargeCapacityHint
UNCOMMON
/Lotus/Language/PersonalQuarters/FishNoTankHint
_G
UISound_Open
mMovie
_T
EnableUIInput
gPlayerProfileMgr
gGameRules
Lotus.Interface.Libs.TimerMgr
Bg
bgMaterial
Blurer
_color
UIColor_Black
_alpha
_y
Settings
Vignette
mVignette
Wallpaper
mWallpaper
mVignetteFish
table
Fishes

EE.Interface.AnchorMgr
Spinner
ANCHOR_V_CENTRE
ANCHOR_H_CENTRE
ANCHOR_V_TOP
ANCHOR_H_LEFT
Hint
Lotus.Interface.Components.ThemedSpinner
gGameRules

fishInfoManifest
ResetFish
Vignette
MAIN
Fishes

fishInfoManifest
mMovie
Lotus_Game
SpearFishingFishInfo_SP_WEIGHT
FishItem_FPC_HIGH
CurrTank
SIDE
Fishes

table
Path
Index
fishInfoManifest
GAME_C1_FISH
gRegion
mMovie
mMovie
mVignette
_T
QuartersVignette
RemovingOld
mMovie
IsLoading
Loader
Vignette
CurrFish
CurrStoreItems
Fishes
Wallpaper
ResetWallpaper
mWallpaper
ResetVignette
mVignette
ResetFish
mMovie
ItemSelectionGrid
true
mMovie
_root
UISys
FlashInstance_LINEAR
_alpha
FlashInstance_EASE_OUT
                         
0001                     ** function [0] definition (level 1)
                         ** start of function **
0001  00                 string size (0)
                         source name: (none)
0002  00                 line defined (0)
0003  00                 last line defined (0)
0004  00                 nups (0)
0005  00                 numparams (0)
0006  02                 is_vararg (2)
0007  40                 maxstacksize (64)
                         * code:
0009  02                 sizecode (356)
000A  1D000000           [001] getglobal  0   0        ; 849075268
000E  59400000           [002] loadk      1   1        ; "EE.Interface.Utilities"
0012  22800001           [003] call       0   2   2  
0016  5D000000           [004] getglobal  1   0        ; 849075268
001A  99800000           [005] loadk      2   2        ; "Lotus.Interface.UIUtilities"
001E  62800001           [006] call       1   2   2  
0022  86000003           [007] loadnil    2   6      
0026  D7010000           [008] loadbool   7   0   0    ; false
002A  06020005           [009] loadnil    8   10     
002E  D7020000           [010] loadbool   11  0   0    ; false
0032  0BC30000           [011] newtable   12  0   3    ; array=0, hash=3
0036  0C03C181           [012] settable   12  259 260  ; "Loader" nil
003A  0C83C182           [013] settable   12  261 262  ; "IsLoading" 0
003E  0C03C183           [014] settable   12  263 260  ; "Vignette" nil
0042  4B830100           [015] newtable   13  0   6    ; array=0, hash=6
0046  4C03C181           [016] settable   13  259 260  ; "Loader" nil
004A  4C83C182           [017] settable   13  261 262  ; "IsLoading" 0
004E  4C434284           [018] settable   13  264 265  ; "CurrTank" 0
0052  8B030000           [019] newtable   14  0   0    ; array=0, hash=0
0056  4C830385           [020] settable   13  266 14   ; "CurrFish"
005A  8B030000           [021] newtable   14  0   0    ; array=0, hash=0
005E  4C838385           [022] settable   13  267 14   ; "CurrStoreItems"
0062  8B030000           [023] newtable   14  0   0    ; array=0, hash=0
0066  4C830386           [024] settable   13  268 14   ; "Fishes"
006A  8BC30000           [025] newtable   14  0   3    ; array=0, hash=3
006E  8C03C181           [026] settable   14  259 260  ; "Loader" nil
0072  8C83C182           [027] settable   14  261 262  ; "IsLoading" 0
0076  8C03C186           [028] settable   14  269 260  ; "Wallpaper" nil
007A  CB430100           [029] newtable   15  0   5    ; array=0, hash=5
007E  CC03C181           [030] settable   15  259 260  ; "Loader" nil
0082  CC834187           [031] settable   15  270 262  ; "IsLoader" 0
0086  CC83C187           [032] settable   15  271 262  ; "ResetWallpaper" 0
008A  CC834188           [033] settable   15  272 262  ; "ResetVignette" 0
008E  CC83C188           [034] settable   15  273 262  ; "ResetFish" 0
0092  0B040000           [035] newtable   16  0   0    ; array=0, hash=0
0096  46048008           [036] loadnil    17  17     
009A  99440200           [037] loadk      18  9        ; 0
009E  C604800A           [038] loadnil    19  21     
00A2  99450200           [039] loadk      22  9        ; 0
00A6  D9850400           [040] loadk      23  18       ; 0
00AA  1DC60400           [041] getglobal  24  19       ; 738251817
00AE  59060500           [042] loadk      25  20       ; "/Lotus/Types/Game/ActionFigureDioramas/OceanADiorama"
00B2  22860001           [043] call       24  2   2  
00B6  5DC60400           [044] getglobal  25  19       ; 738251817
00BA  99460500           [045] loadk      26  21       ; "/Lotus/Types/Game/ActionFigureDiorama"
00BE  62860001           [046] call       25  2   2  
00C2  9DC60400           [047] getglobal  26  19       ; 738251817
00C6  D9860500           [048] loadk      27  22       ; "/Lotus/Types/Game/QuartersWallTattoo"
00CA  A2860001           [049] call       26  2   2  
00CE  DDC60500           [050] getglobal  27  23       ; -332969190
00D2  19070600           [051] loadk      28  24       ; "WallpaperPreview"
00D6  E2860001           [052] call       27  2   2  
00DA  1DC70500           [053] getglobal  28  23       ; -332969190
00DE  59470600           [054] loadk      29  25       ; "PermTankPreview"
00E2  22870001           [055] call       28  2   2  
00E6  4B870000           [056] newtable   29  0   2    ; array=0, hash=2
00EA  4C47428D           [057] settable   29  282 265  ; "SIDE" 0
00EE  4C07C78D           [058] settable   29  283 284  ; "MAIN" 0
00F2  99470700           [059] loadk      30  29       ; 0
00F6  D9870700           [060] loadk      31  30       ; 0
00FA  06080013           [061] loadnil    32  38     
00FE  E5090000           [062] closure    39  0      
0102  12008003           [063] move       0   7      
0106  E0C90700           [064] setglobal  39  31       ; IsInputBlocked
010A  E0090800           [065] setglobal  39  32       ; 1877468992
010E  E5490000           [066] closure    39  1      
0112  12008004           [067] move       0   9      
0116  12008012           [068] move       0   37     
011A  12008009           [069] move       0   19     
011E  E0490800           [070] setglobal  39  33       ; SetTrigger
0122  E0890800           [071] setglobal  39  34       ; 1066756660
0126  E5890000           [072] closure    39  2      
012A  1200000F           [073] move       0   30     
012E  1200800F           [074] move       0   31     
0132  12000008           [075] move       0   16     
0136  12008006           [076] move       0   13     
013A  25CA0000           [077] closure    40  3      
013E  12000001           [078] move       0   2      
0142  12008003           [079] move       0   7      
0146  12000002           [080] move       0   4      
014A  1200000F           [081] move       0   30     
014E  1200800F           [082] move       0   31     
0152  12000008           [083] move       0   16     
0156  12008006           [084] move       0   13     
015A  12000006           [085] move       0   12     
015E  12000003           [086] move       0   6      
0162  12000007           [087] move       0   14     
0166  12008004           [088] move       0   9      
016A  12008009           [089] move       0   19     
016E  12000012           [090] move       0   36     
0172  12000000           [091] move       0   0      
0176  650A0100           [092] closure    41  4      
017A  12000014           [093] move       0   40     
017E  60CA0800           [094] setglobal  41  35       ; Close
0182  600A0900           [095] setglobal  41  36       ; -1517569684
0186  654A0100           [096] closure    41  5      
018A  12000000           [097] move       0   0      
018E  12000007           [098] move       0   14     
0192  12000003           [099] move       0   6      
0196  12008007           [100] move       0   15     
019A  12000006           [101] move       0   12     
019E  1200000F           [102] move       0   30     
01A2  1200800F           [103] move       0   31     
01A6  12000008           [104] move       0   16     
01AA  12008006           [105] move       0   13     
01AE  12008000           [106] move       0   1      
01B2  12008008           [107] move       0   17     
01B6  12008005           [108] move       0   11     
01BA  12000014           [109] move       0   40     
01BE  604A0900           [110] setglobal  41  37       ; OnShipVignetteSet
01C2  608A0900           [111] setglobal  41  38       ; 1306561869
01C6  658A0100           [112] closure    41  6      
01CA  12000001           [113] move       0   2      
01CE  A5CA0100           [114] closure    42  7      
01D2  12008014           [115] move       0   41     
01D6  A0CA0900           [116] setglobal  42  39       ; UpdateButtons
01DA  A00A0A00           [117] setglobal  42  40       ; -1183566688
01DE  A50A0200           [118] closure    42  8      
01E2  12008002           [119] move       0   5      
01E6  12000005           [120] move       0   10     
01EA  12008000           [121] move       0   1      
01EE  E54A0200           [122] closure    43  9      
01F2  12000015           [123] move       0   42     
01F6  1200800C           [124] move       0   25     
01FA  258B0200           [125] closure    44  10     
01FE  12000015           [126] move       0   42     
0202  1200000D           [127] move       0   26     
0206  65CB0200           [128] closure    45  11     
020A  12000001           [129] move       0   2      
020E  12000006           [130] move       0   12     
0212  1200000C           [131] move       0   24     
0216  1200000F           [132] move       0   30     
021A  1200800E           [133] move       0   29     
021E  12008006           [134] move       0   13     
0222  12008000           [135] move       0   1      
0226  12008003           [136] move       0   7      
022A  12008008           [137] move       0   17     
022E  12008010           [138] move       0   33     
0232  A50B0300           [139] closure    46  12     
0236  12000001           [140] move       0   2      
023A  12008016           [141] move       0   45     
023E  12000010           [142] move       0   32     
0242  E54B0300           [143] closure    47  13     
0246  12008000           [144] move       0   1      
024A  12008005           [145] move       0   11     
024E  12008003           [146] move       0   7      
0252  12008008           [147] move       0   17     
0256  258C0300           [148] closure    48  14     
025A  12000001           [149] move       0   2      
025E  12000007           [150] move       0   14     
0262  12008003           [151] move       0   7      
0266  12008008           [152] move       0   17     
026A  12008017           [153] move       0   47     
026E  65CC0300           [154] closure    49  15     
0272  12000001           [155] move       0   2      
0276  12000018           [156] move       0   48     
027A  A50C0400           [157] closure    50  16     
027E  1200000F           [158] move       0   30     
0282  12008006           [159] move       0   13     
0286  E54C0400           [160] closure    51  17     
028A  12000000           [161] move       0   0      
028E  12008006           [162] move       0   13     
0292  258D0400           [163] closure    52  18     
0296  12000000           [164] move       0   0      
029A  12008006           [165] move       0   13     
029E  1200800E           [166] move       0   29     
02A2  1200000E           [167] move       0   28     
02A6  65C90400           [168] closure    37  19     
02AA  12008009           [169] move       0   19     
02AE  12008004           [170] move       0   9      
02B2  12000012           [171] move       0   36     
02B6  650D0500           [172] closure    53  20     
02BA  12008006           [173] move       0   13     
02BE  1200800E           [174] move       0   29     
02C2  12000006           [175] move       0   12     
02C6  1200000C           [176] move       0   24     
02CA  A54D0500           [177] closure    54  21     
02CE  12008006           [178] move       0   13     
02D2  1200801A           [179] move       0   53     
02D6  1200001A           [180] move       0   52     
02DA  12000001           [181] move       0   2      
02DE  12008012           [182] move       0   37     
02E2  12000013           [183] move       0   38     
02E6  E58D0500           [184] closure    55  22     
02EA  12000015           [185] move       0   42     
02EE  12008013           [186] move       0   39     
02F2  12008000           [187] move       0   1      
02F6  1200000F           [188] move       0   30     
02FA  12000019           [189] move       0   50     
02FE  12008006           [190] move       0   13     
0302  12000000           [191] move       0   0      
0306  12000004           [192] move       0   8      
030A  12008003           [193] move       0   7      
030E  12008008           [194] move       0   17     
0312  12000011           [195] move       0   34     
0316  25CE0500           [196] closure    56  23     
031A  1200801B           [197] move       0   55     
031E  650E0600           [198] closure    57  24     
0322  1200801B           [199] move       0   55     
0326  25480600           [200] closure    32  25     
032A  12000001           [201] move       0   2      
032E  12000006           [202] move       0   12     
0332  1200800D           [203] move       0   27     
0336  12000016           [204] move       0   44     
033A  12000018           [205] move       0   48     
033E  12008018           [206] move       0   49     
0342  12008015           [207] move       0   43     
0346  12008016           [208] move       0   45     
034A  12000017           [209] move       0   46     
034E  1200800E           [210] move       0   29     
0352  1200000C           [211] move       0   24     
0356  12008006           [212] move       0   13     
035A  1200001A           [213] move       0   52     
035E  1200801A           [214] move       0   53     
0362  1200001B           [215] move       0   54     
0366  1200001C           [216] move       0   56     
036A  1200801C           [217] move       0   57     
036E  12000007           [218] move       0   14     
0372  12000005           [219] move       0   10     
0376  25890600           [220] closure    36  26     
037A  12008009           [221] move       0   19     
037E  A5CE0600           [222] closure    58  27     
0382  12000001           [223] move       0   2      
0386  1200000B           [224] move       0   22     
038A  12000000           [225] move       0   0      
038E  A5090700           [226] closure    38  28     
0392  1200800B           [227] move       0   23     
0396  12000001           [228] move       0   2      
039A  1200000B           [229] move       0   22     
039E  12000000           [230] move       0   0      
03A2  1200001D           [231] move       0   58     
03A6  E54E0700           [232] closure    59  29     
03AA  12000001           [233] move       0   2      
03AE  12000013           [234] move       0   38     
03B2  12008014           [235] move       0   41     
03B6  12008012           [236] move       0   37     
03BA  258F0700           [237] closure    60  30     
03BE  1200000A           [238] move       0   20     
03C2  1200001D           [239] move       0   58     
03C6  1200800A           [240] move       0   21     
03CA  65CF0700           [241] closure    61  31     
03CE  12000000           [242] move       0   0      
03D2  12000002           [243] move       0   4      
03D6  1200800A           [244] move       0   21     
03DA  1200800B           [245] move       0   23     
03DE  1200001E           [246] move       0   60     
03E2  12008002           [247] move       0   5      
03E6  12000003           [248] move       0   6      
03EA  12000006           [249] move       0   12     
03EE  12000007           [250] move       0   14     
03F2  12000005           [251] move       0   10     
03F6  1200000F           [252] move       0   30     
03FA  1200800F           [253] move       0   31     
03FE  12008006           [254] move       0   13     
0402  12000008           [255] move       0   16     
0406  12008001           [256] move       0   3      
040A  12008008           [257] move       0   17     
040E  1200801D           [258] move       0   59     
0412  12000010           [259] move       0   32     
0416  604F0A00           [260] setglobal  61  41       ; Initialize
041A  608F0A00           [261] setglobal  61  42       ; 1650753590
041E  650F0800           [262] closure    61  32     
0422  12000004           [263] move       0   8      
0426  60CF0A00           [264] setglobal  61  43       ; Shutdown
042A  600F0B00           [265] setglobal  61  44       ; 1012367267
042E  654F0800           [266] closure    61  33     
0432  1200800F           [267] move       0   31     
0436  1200000F           [268] move       0   30     
043A  12000008           [269] move       0   16     
043E  12008000           [270] move       0   1      
0442  12000011           [271] move       0   34     
0446  A58F0800           [272] closure    62  34     
044A  12000009           [273] move       0   18     
044E  12008008           [274] move       0   17     
0452  12008005           [275] move       0   11     
0456  12008007           [276] move       0   15     
045A  1200801E           [277] move       0   61     
045E  12000006           [278] move       0   12     
0462  1200000C           [279] move       0   24     
0466  1200000F           [280] move       0   30     
046A  1200800E           [281] move       0   29     
046E  12008006           [282] move       0   13     
0472  12008000           [283] move       0   1      
0476  12000011           [284] move       0   34     
047A  12000014           [285] move       0   40     
047E  12000000           [286] move       0   0      
0482  12008003           [287] move       0   7      
0486  E5CF0800           [288] closure    63  35     
048A  1200001F           [289] move       0   62     
048E  E04F0B00           [290] setglobal  63  45       ; OnVignetteStreamed
0492  E08F0B00           [291] setglobal  63  46       ; -104629775
0496  E50F0900           [292] closure    63  36     
049A  1200001F           [293] move       0   62     
049E  E0CF0B00           [294] setglobal  63  47       ; OnVignetteRemoved
04A2  E00F0C00           [295] setglobal  63  48       ; 449093678
04A6  E5480900           [296] closure    35  37     
04AA  12008019           [297] move       0   51     
04AE  A5880900           [298] closure    34  38     
04B2  12008019           [299] move       0   51     
04B6  12008006           [300] move       0   13     
04BA  1200800E           [301] move       0   29     
04BE  1200000F           [302] move       0   30     
04C2  12000019           [303] move       0   50     
04C6  12008000           [304] move       0   1      
04CA  12000011           [305] move       0   34     
04CE  12008011           [306] move       0   35     
04D2  65C80900           [307] closure    33  39     
04D6  12008000           [308] move       0   1      
04DA  12000003           [309] move       0   6      
04DE  12000009           [310] move       0   18     
04E2  12000000           [311] move       0   0      
04E6  E50F0A00           [312] closure    63  40     
04EA  12008008           [313] move       0   17     
04EE  12000001           [314] move       0   2      
04F2  1200800A           [315] move       0   21     
04F6  12000006           [316] move       0   12     
04FA  12008010           [317] move       0   33     
04FE  12008006           [318] move       0   13     
0502  12008003           [319] move       0   7      
0506  12000011           [320] move       0   34     
050A  12000007           [321] move       0   14     
050E  12008017           [322] move       0   47     
0512  12008007           [323] move       0   15     
0516  12000003           [324] move       0   6      
051A  1200801E           [325] move       0   61     
051E  12000014           [326] move       0   40     
0522  E04F0C00           [327] setglobal  63  49       ; Update
0526  E08F0C00           [328] setglobal  63  50       ; -1938777623
052A  E54F0A00           [329] closure    63  41     
052E  12008001           [330] move       0   3      
0532  12000001           [331] move       0   2      
0536  12000013           [332] move       0   38     
053A  E0CF0C00           [333] setglobal  63  51       ; onViewportSizeChanged
053E  E00F0D00           [334] setglobal  63  52       ; 982516775
0542  E58F0A00           [335] closure    63  42     
0546  12000001           [336] move       0   2      
054A  E04F0D00           [337] setglobal  63  53       ; onKeyDown_MENU_CLICK
054E  E08F0D00           [338] setglobal  63  54       ; -469094454
0552  E5CF0A00           [339] closure    63  43     
0556  12000001           [340] move       0   2      
055A  E0CF0D00           [341] setglobal  63  55       ; onKeyUp_MENU_CLICK
055E  E00F0E00           [342] setglobal  63  56       ; 914083198
0562  E50F0B00           [343] closure    63  44     
0566  12008003           [344] move       0   7      
056A  12000001           [345] move       0   2      
056E  E04F0E00           [346] setglobal  63  57       ; onKeyUp_MENU_SELECT
0572  E08F0E00           [347] setglobal  63  58       ; 1215563932
0576  E54F0B00           [348] closure    63  45     
057A  12008003           [349] move       0   7      
057E  12000001           [350] move       0   2      
0582  E0CF0E00           [351] setglobal  63  59       ; onKeyDown_MENU_MOUSE_Z
0586  E00F0F00           [352] setglobal  63  60       ; 1458230185
058A  E58F0B00           [353] closure    63  46     
058E  E04F0F00           [354] setglobal  63  61       ; HideScreenForPlatPurchase
0592  E08F0F00           [355] setglobal  63  62       ; 1245620893
0596  1E008000           [356] return     0   1      
                         * constants:
059A  3F                 sizek (63)
059B  01                 const type 3
059C  44DC9B32           const [0]: (849075268)
05A0  04                 const type 4
05A1  17                 string size (23)
05A2  45452E496E746572+  "EE.Inter"
05AA  666163652E557469+  "face.Uti"
05B2  6C697469657300     "lities\0"
                         const [1]: "EE.Interface.Utilities"
05B9  04                 const type 4
05BA  1C                 string size (28)
05BB  4C6F7475732E496E+  "Lotus.In"
05C3  746572666163652E+  "terface."
05CB  55495574696C6974+  "UIUtilit"
05D3  69657300           "ies\0"
                         const [2]: "Lotus.Interface.UIUtilities"
05D7  04                 const type 4
05D8  07                 string size (7)
05D9  4C6F6164657200     "Loader\0"
                         const [3]: "Loader"
05E0  00                 const type 0
                         const [4]: nil
05E1  04                 const type 4
05E2  0A                 string size (10)
05E3  49734C6F6164696E+  "IsLoadin"
05EB  6700               "g\0"
                         const [5]: "IsLoading"
05ED  01                 const type 3
05EE  00000000           const [6]: (0)
05F2  04                 const type 4
05F3  09                 string size (9)
05F4  5669676E65747465+  "Vignette"
05FC  00                 "\0"
                         const [7]: "Vignette"
05FD  04                 const type 4
05FE  09                 string size (9)
05FF  4375727254616E6B+  "CurrTank"
0607  00                 "\0"
                         const [8]: "CurrTank"
0608  03                 const type 3
0609  00000000           const [9]: (0)
060D  04                 const type 4
060E  09                 string size (9)
060F  4375727246697368+  "CurrFish"
0617  00                 "\0"
                         const [10]: "CurrFish"
0618  04                 const type 4
0619  0F                 string size (15)
061A  4375727253746F72+  "CurrStor"
0622  654974656D7300     "eItems\0"
                         const [11]: "CurrStoreItems"
0629  04                 const type 4
062A  07                 string size (7)
062B  46697368657300     "Fishes\0"
                         const [12]: "Fishes"
0632  04                 const type 4
0633  0A                 string size (10)
0634  57616C6C70617065+  "Wallpape"
063C  7200               "r\0"
                         const [13]: "Wallpaper"
063E  04                 const type 4
063F  09                 string size (9)
0640  49734C6F61646572+  "IsLoader"
0648  00                 "\0"
                         const [14]: "IsLoader"
0649  04                 const type 4
064A  0F                 string size (15)
064B  526573657457616C+  "ResetWal"
0653  6C706170657200     "lpaper\0"
                         const [15]: "ResetWallpaper"
065A  04                 const type 4
065B  0E                 string size (14)
065C  5265736574566967+  "ResetVig"
0664  6E6574746500       "nette\0"
                         const [16]: "ResetVignette"
066A  04                 const type 4
066B  0A                 string size (10)
066C  5265736574466973+  "ResetFis"
0674  6800               "h\0"
                         const [17]: "ResetFish"
0676  03                 const type 3
0677  0000A0C0           const [18]: (0)
067B  01                 const type 3
067C  29D4002C           const [19]: (738251817)
0680  04                 const type 4
0681  35                 string size (53)
0682  2F4C6F7475732F54+  "/Lotus/T"
068A  797065732F47616D+  "ypes/Gam"
0692  652F416374696F6E+  "e/Action"
069A  4669677572654469+  "FigureDi"
06A2  6F72616D61732F4F+  "oramas/O"
06AA  6365616E4144696F+  "ceanADio"
06B2  72616D6100         "rama\0"
                         const [20]: "/Lotus/Types/Game/ActionFigureDioramas/OceanADiorama"
06B7  04                 const type 4
06B8  26                 string size (38)
06B9  2F4C6F7475732F54+  "/Lotus/T"
06C1  797065732F47616D+  "ypes/Gam"
06C9  652F416374696F6E+  "e/Action"
06D1  4669677572654469+  "FigureDi"
06D9  6F72616D6100       "orama\0"
                         const [21]: "/Lotus/Types/Game/ActionFigureDiorama"
06DF  04                 const type 4
06E0  25                 string size (37)
06E1  2F4C6F7475732F54+  "/Lotus/T"
06E9  797065732F47616D+  "ypes/Gam"
06F1  652F517561727465+  "e/Quarte"
06F9  727357616C6C5461+  "rsWallTa"
0701  74746F6F00         "ttoo\0"
                         const [22]: "/Lotus/Types/Game/QuartersWallTattoo"
0706  01                 const type 3
0707  1A4B27EC           const [23]: (-332969190)
070B  04                 const type 4
070C  11                 string size (17)
070D  57616C6C70617065+  "Wallpape"
0715  7250726576696577+  "rPreview"
071D  00                 "\0"
                         const [24]: "WallpaperPreview"
071E  04                 const type 4
071F  10                 string size (16)
0720  5065726D54616E6B+  "PermTank"
0728  5072657669657700   "Preview\0"
                         const [25]: "PermTankPreview"
0730  04                 const type 4
0731  05                 string size (5)
0732  5349444500         "SIDE\0"
                         const [26]: "SIDE"
0737  04                 const type 4
0738  05                 string size (5)
0739  4D41494E00         "MAIN\0"
                         const [27]: "MAIN"
073E  03                 const type 3
073F  0000803F           const [28]: (0)
0743  03                 const type 3
0744  00002041           const [29]: (0)
0748  03                 const type 3
0749  00000040           const [30]: (0)
074D  04                 const type 4
074E  0F                 string size (15)
074F  4973496E70757442+  "IsInputB"
0757  6C6F636B656400     "locked\0"
                         const [31]: "IsInputBlocked"
075E  01                 const type 3
075F  40E7E76F           const [32]: (1877468992)
0763  04                 const type 4
0764  0B                 string size (11)
0765  5365745472696767+  "SetTrigg"
076D  657200             "er\0"
                         const [33]: "SetTrigger"
0770  01                 const type 3
0771  346A953F           const [34]: (1066756660)
0775  04                 const type 4
0776  06                 string size (6)
0777  436C6F736500       "Close\0"
                         const [35]: "Close"
077D  01                 const type 3
077E  6CB98BA5           const [36]: (-1517569684)
0782  04                 const type 4
0783  12                 string size (18)
0784  4F6E536869705669+  "OnShipVi"
078C  676E657474655365+  "gnetteSe"
0794  7400               "t\0"
                         const [37]: "OnShipVignetteSet"
0796  01                 const type 3
0797  4D8DE04D           const [38]: (1306561869)
079B  04                 const type 4
079C  0E                 string size (14)
079D  5570646174654275+  "UpdateBu"
07A5  74746F6E7300       "ttons\0"
                         const [39]: "UpdateButtons"
07AB  01                 const type 3
07AC  A03474B9           const [40]: (-1183566688)
07B0  04                 const type 4
07B1  0B                 string size (11)
07B2  496E697469616C69+  "Initiali"
07BA  7A6500             "ze\0"
                         const [41]: "Initialize"
07BD  01                 const type 3
07BE  36806462           const [42]: (1650753590)
07C2  04                 const type 4
07C3  09                 string size (9)
07C4  53687574646F776E+  "Shutdown"
07CC  00                 "\0"
                         const [43]: "Shutdown"
07CD  01                 const type 3
07CE  A37F573C           const [44]: (1012367267)
07D2  04                 const type 4
07D3  13                 string size (19)
07D4  4F6E5669676E6574+  "OnVignet"
07DC  746553747265616D+  "teStream"
07E4  656400             "ed\0"
                         const [45]: "OnVignetteStreamed"
07E7  01                 const type 3
07E8  F179C3F9           const [46]: (-104629775)
07EC  04                 const type 4
07ED  12                 string size (18)
07EE  4F6E5669676E6574+  "OnVignet"
07F6  746552656D6F7665+  "teRemove"
07FE  6400               "d\0"
                         const [47]: "OnVignetteRemoved"
0800  01                 const type 3
0801  2EA0C41A           const [48]: (449093678)
0805  04                 const type 4
0806  07                 string size (7)
0807  55706461746500     "Update\0"
                         const [49]: "Update"
080E  01                 const type 3
080F  E999708C           const [50]: (-1938777623)
0813  04                 const type 4
0814  16                 string size (22)
0815  6F6E56696577706F+  "onViewpo"
081D  727453697A654368+  "rtSizeCh"
0825  616E67656400       "anged\0"
                         const [51]: "onViewportSizeChanged"
082B  01                 const type 3
082C  2704903A           const [52]: (982516775)
0830  04                 const type 4
0831  15                 string size (21)
0832  6F6E4B6579446F77+  "onKeyDow"
083A  6E5F4D454E555F43+  "n_MENU_C"
0842  4C49434B00         "LICK\0"
                         const [53]: "onKeyDown_MENU_CLICK"
0847  01                 const type 3
0848  CA2F0AE4           const [54]: (-469094454)
084C  04                 const type 4
084D  13                 string size (19)
084E  6F6E4B657955705F+  "onKeyUp_"
0856  4D454E555F434C49+  "MENU_CLI"
085E  434B00             "CK\0"
                         const [55]: "onKeyUp_MENU_CLICK"
0861  01                 const type 3
0862  7ECD7B36           const [56]: (914083198)
0866  04                 const type 4
0867  14                 string size (20)
0868  6F6E4B657955705F+  "onKeyUp_"
0870  4D454E555F53454C+  "MENU_SEL"
0878  45435400           "ECT\0"
                         const [57]: "onKeyUp_MENU_SELECT"
087C  01                 const type 3
087D  9C087448           const [58]: (1215563932)
0881  04                 const type 4
0882  17                 string size (23)
0883  6F6E4B6579446F77+  "onKeyDow"
088B  6E5F4D454E555F4D+  "n_MENU_M"
0893  4F5553455F5A00     "OUSE_Z\0"
                         const [59]: "onKeyDown_MENU_MOUSE_Z"
089A  01                 const type 3
089B  A9D3EA56           const [60]: (1458230185)
089F  04                 const type 4
08A0  1A                 string size (26)
08A1  4869646553637265+  "HideScre"
08A9  656E466F72506C61+  "enForPla"
08B1  7450757263686173+  "tPurchas"
08B9  6500               "e\0"
                         const [61]: "HideScreenForPlatPurchase"
08BB  01                 const type 3
08BC  9DAA3E4A           const [62]: (1245620893)
                         * functions:
08C0  2F                 sizep (47)
                         
08C1                     ** function [0] definition (level 2)
                         ** start of function **
08C1  00                 string size (0)
                         source name: (none)
08C2  32                 line defined (50)
08C3  34                 last line defined (52)
08C4  01                 nups (1)
08C5  00                 numparams (0)
08C6  00                 is_vararg (0)
08C7  02                 maxstacksize (2)
                         * code:
08C8  03                 sizecode (3)
08C9  13000000           [1] getupval   0   0      
08CD  1E000001           [2] return     0   2      
08D1  1E008000           [3] return     0   1      
                         * constants:
08D5  00                 sizek (0)
                         * functions:
08D6  00                 sizep (0)
                         * lines:
08D7  03                 sizelineinfo (3)
                         [pc] (line)
08D8  33                 [1] (51)
08D9  00                 [2] (51)
08DA  00                 [3] (52)
                         * locals:
08E4  00                 sizelocvars (0)
                         * upvalues:
08E5  00                 sizeupvalues (0)
                         ** end of function **

                         
08E6                     ** function [1] definition (level 2)
                         ** start of function **
08E6  00                 string size (0)
                         source name: (none)
08E7  36                 line defined (54)
08E8  3A                 last line defined (58)
08E9  03                 nups (3)
08EA  01                 numparams (1)
08EB  00                 is_vararg (0)
08EC  04                 maxstacksize (4)
                         * code:
08ED  06                 sizecode (6)
fail op	8
08EE  08000000           [1] setupval   0   0      
08F2  53008000           [2] getupval   1   1      
08F6  93000001           [3] getupval   2   2      
08FA  D7008000           [4] loadbool   3   1   0    ; true
08FE  62408001           [5] call       1   3   1  
0902  1E008000           [6] return     0   1      
                         * constants:
0906  00                 sizek (0)
                         * functions:
0907  00                 sizep (0)
                         * lines:
0908  06                 sizelineinfo (6)
                         [pc] (line)
0909  37                 [1] (55)
090A  00                 [2] (57)
090B  00                 [3] (57)
090C  00                 [4] (57)
090D  39                 [5] (57)
090E  00                 [6] (58)
                         * locals:
0921  00                 sizelocvars (0)
                         * upvalues:
0922  00                 sizeupvalues (0)
                         ** end of function **

                         
0923                     ** function [2] definition (level 2)
                         ** start of function **
0923  00                 string size (0)
                         source name: (none)
0924  3C                 line defined (60)
0925  61                 last line defined (97)
0926  04                 nups (4)
0927  00                 numparams (0)
0928  00                 is_vararg (0)
0929  14                 maxstacksize (20)
                         * code:
092A  4F                 sizecode (79)
092B  0B000000           [01] newtable   0   0   0    ; array=0, hash=0
092F  53000000           [02] getupval   1   0      
0933  93008000           [03] getupval   2   1      
0937  44808000           [04] mul        1   1   2  
093B  99000000           [05] loadk      2   0        ; 0
093F  D2008000           [06] move       3   1      
0943  19010000           [07] loadk      4   0        ; 0
0947  90C01080           [08] forprep    2   68       ; to [77]
094B  93010001           [09] getupval   6   2      
094F  8E410103           [10] gettable   6   6   5  
0953  D3018001           [11] getupval   7   3      
0957  CE41C003           [12] gettable   7   7   257  ; "Fishes"
095B  CE418103           [13] gettable   7   7   5  
fail op	35
095F  63C00103           [14] close      1  
0963  1A000F80           [15] jmp        61           ; to [77]
0967  8B010000           [16] newtable   6   0   0    ; array=0, hash=0
096B  D3018001           [17] getupval   7   3      
096F  CE41C003           [18] gettable   7   7   257  ; "Fishes"
0973  CE418103           [19] gettable   7   7   5  
fail op	35
0977  6380C003           [20] close      1  
097B  1A400280           [21] jmp        10           ; to [32]
097F  DDC10000           [22] getglobal  7   3        ; table
0983  CE01C103           [23] gettable   7   7   260  ; -431682403
0987  12020003           [24] move       8   6      
098B  4B820000           [25] newtable   9   0   2    ; array=0, hash=2
098F  93028001           [26] getupval   10  3      
0993  8E424005           [27] gettable   10  10  257  ; "Fishes"
0997  8E420105           [28] gettable   10  10  5  
099B  4C828282           [29] settable   9   261 10   ; "StoreItem"
099F  4CC24183           [30] settable   9   262 263  ; "Count" 0
09A3  E2418001           [31] call       7   3   1  
09A7  D3010001           [32] getupval   7   2      
09AB  CE418103           [33] gettable   7   7   5  
fail op	35
09AF  6380C003           [34] close      1  
09B3  1A000280           [35] jmp        9            ; to [45]
09B7  DDC10000           [36] getglobal  7   3        ; table
09BB  CE01C103           [37] gettable   7   7   260  ; -431682403
09BF  12020003           [38] move       8   6      
09C3  4B820000           [39] newtable   9   0   2    ; array=0, hash=2
09C7  93020001           [40] getupval   10  2      
09CB  8E420105           [41] gettable   10  10  5  
09CF  4C828282           [42] settable   9   261 10   ; "StoreItem"
09D3  4C024083           [43] settable   9   262 256  ; "Count" 0
09D7  E2418001           [44] call       7   3   1  
09DB  D9010000           [45] loadk      7   0        ; 0
09DF  0A020003           [46] len        8   6      
09E3  59020000           [47] loadk      9   0        ; 0
09E7  D0810680           [48] forprep    7   27       ; to [76]
09EB  CE820203           [49] gettable   11  6   10 
09EF  17030000           [50] loadbool   12  0   0    ; false
09F3  59030000           [51] loadk      13  0        ; 0
09F7  8A030000           [52] len        14  0      
09FB  D9030000           [53] loadk      15  0        ; 0
09FF  50030380           [54] forprep    13  13       ; to [68]
0A03  4E040400           [55] gettable   17  0   16 
0A07  4E44C108           [56] gettable   17  17  261  ; "StoreItem"
0A0B  8E44C105           [57] gettable   18  11  261  ; "StoreItem"
fail op	35
0A0F  23808408           [58] close      0  
0A13  1AC00180           [59] jmp        8            ; to [68]
0A17  4E040400           [60] gettable   17  0   16 
0A1B  8E040400           [61] gettable   18  0   16 
0A1F  8E844109           [62] gettable   18  18  262  ; "Count"
0A23  CE84C105           [63] gettable   19  11  262  ; "Count"
0A27  83C40409           [64] add        18  18  19 
0A2B  4C840483           [65] settable   17  262 18   ; "Count"
0A2F  17038000           [66] loadbool   12  1   0    ; true
0A33  1A000080           [67] jmp        1            ; to [69]
0A37  5443FC7F           [68] forloop    13  -14      ; to [55] if loop
0A3B  18430000           [69] test       12      1    ; to [71] if false
0A3F  1A000180           [70] jmp        5            ; to [76]
0A43  5DC40000           [71] getglobal  17  3        ; table
0A47  4E04C108           [72] gettable   17  17  260  ; -431682403
0A4B  92040000           [73] move       18  0      
0A4F  D2048005           [74] move       19  11     
0A53  62448001           [75] call       17  3   1  
0A57  D4C1F87F           [76] forloop    7   -28      ; to [49] if loop
0A5B  9480EE7F           [77] forloop    2   -69      ; to [9] if loop
0A5F  1E000001           [78] return     0   2      
0A63  1E008000           [79] return     0   1      
                         * constants:
0A67  08                 sizek (8)
0A68  03                 const type 3
0A69  0000803F           const [0]: (0)
0A6D  04                 const type 4
0A6E  07                 string size (7)
0A6F  46697368657300     "Fishes\0"
                         const [1]: "Fishes"
0A76  04                 const type 4
0A77  01                 string size (0)
                         const [2]: ""
0A79  04                 const type 4
0A7A  06                 string size (6)
0A7B  7461626C6500       "table\0"
                         const [3]: "table"
0A81  01                 const type 3
0A82  9D0C45E6           const [4]: (-431682403)
0A86  04                 const type 4
0A87  0A                 string size (10)
0A88  53746F7265497465+  "StoreIte"
0A90  6D00               "m\0"
                         const [5]: "StoreItem"
0A92  04                 const type 4
0A93  06                 string size (6)
0A94  436F756E7400       "Count\0"
                         const [6]: "Count"
0A9A  03                 const type 3
0A9B  000080BF           const [7]: (0)
                         * functions:
0A9F  00                 sizep (0)
                         * lines:
0AA0  4F                 sizelineinfo (79)
                         [pc] (line)
0AA1  3E                 [01] (62)
0AA2  00                 [02] (64)
0AA3  00                 [03] (64)
0AA4  00                 [04] (64)
0AA5  40                 [05] (65)
0AA6  00                 [06] (65)
0AA7  00                 [07] (65)
0AA8  00                 [08] (65)
0AA9  40                 [09] (66)
0AAA  00                 [10] (66)
0AAB  00                 [11] (66)
0AAC  00                 [12] (66)
0AAD  40                 [13] (66)
0AAE  00                 [14] (66)
0AAF  00                 [15] (66)
0AB0  00                 [16] (67)
0AB1  41                 [17] (69)
0AB2  00                 [18] (69)
0AB3  00                 [19] (69)
0AB4  00                 [20] (69)
0AB5  41                 [21] (69)
0AB6  00                 [22] (70)
0AB7  00                 [23] (70)
0AB8  00                 [24] (70)
0AB9  41                 [25] (70)
0ABA  00                 [26] (70)
0ABB  00                 [27] (70)
0ABC  00                 [28] (70)
0ABD  41                 [29] (70)
0ABE  00                 [30] (70)
0ABF  00                 [31] (70)
0AC0  00                 [32] (73)
0AC1  42                 [33] (73)
0AC2  00                 [34] (73)
0AC3  00                 [35] (73)
0AC4  00                 [36] (74)
0AC5  42                 [37] (74)
0AC6  00                 [38] (74)
0AC7  00                 [39] (74)
0AC8  00                 [40] (74)
0AC9  42                 [41] (74)
0ACA  00                 [42] (74)
0ACB  00                 [43] (74)
0ACC  00                 [44] (74)
0ACD  42                 [45] (77)
0ACE  00                 [46] (77)
0ACF  00                 [47] (77)
0AD0  00                 [48] (77)
0AD1  42                 [49] (78)
0AD2  00                 [50] (79)
0AD3  00                 [51] (80)
0AD4  00                 [52] (80)
0AD5  42                 [53] (80)
0AD6  00                 [54] (80)
0AD7  00                 [55] (81)
0AD8  00                 [56] (81)
0AD9  42                 [57] (81)
0ADA  00                 [58] (81)
0ADB  00                 [59] (81)
0ADC  00                 [60] (82)
0ADD  43                 [61] (82)
0ADE  00                 [62] (82)
0ADF  00                 [63] (82)
0AE0  00                 [64] (82)
0AE1  45                 [65] (82)
0AE2  00                 [66] (84)
0AE3  00                 [67] (85)
0AE4  00                 [68] (80)
0AE5  45                 [69] (89)
0AE6  00                 [70] (89)
0AE7  00                 [71] (90)
0AE8  00                 [72] (90)
0AE9  45                 [73] (90)
0AEA  00                 [74] (90)
0AEB  00                 [75] (90)
0AEC  00                 [76] (77)
0AED  45                 [77] (65)
0AEE  00                 [78] (96)
0AEF  00                 [79] (97)
                         * locals:
0BDD  00                 sizelocvars (0)
                         * upvalues:
0BDE  00                 sizeupvalues (0)
                         ** end of function **

                         
0BDF                     ** function [3] definition (level 2)
                         ** start of function **
0BDF  00                 string size (0)
                         source name: (none)
0BE0  63                 line defined (99)
0BE1  AE                 last line defined (174)
0BE2  01                 nups (14)
0BE3  0E                 numparams (1)
0BE4  01                 is_vararg (0)
0BE5  00                 maxstacksize (31)
                         * code:
0BE8  01                 sizecode (170)
0BE9  5D000000           [001] getglobal  1   0        ; 1074689893
0BED  93000000           [002] getupval   2   0      
0BF1  62800001           [003] call       1   2   2  
0BF5  58400000           [004] test       1       1    ; to [6] if false
0BF9  1A400180           [005] jmp        6            ; to [12]
0BFD  53000000           [006] getupval   1   0      
0C01  6440C000           [007] self       1   1   257  ; 1763607064
0C05  62800001           [008] call       1   2   2  
0C09  58000000           [009] test       1       0    ; to [11] if true
0C0D  1A000080           [010] jmp        1            ; to [12]
0C11  1E008000           [011] return     0   1      
0C15  57008000           [012] loadbool   1   1   0    ; true
fail op	8
0C19  48008000           [013] setupval   1   1      
0C1D  18400000           [014] test       0       1    ; to [16] if false
0C21  1A001C80           [015] jmp        113          ; to [129]
0C25  5D000000           [016] getglobal  1   0        ; 1074689893
0C29  93000001           [017] getupval   2   2      
0C2D  62800001           [018] call       1   2   2  
0C31  58400000           [019] test       1       1    ; to [21] if false
0C35  1AC01A80           [020] jmp        108          ; to [129]
0C39  57000000           [021] loadbool   1   0   0    ; false
0C3D  93008001           [022] getupval   2   3      
0C41  D3000002           [023] getupval   3   4      
0C45  84C00001           [024] mul        2   2   3  
0C49  D9800000           [025] loadk      3   2        ; 0
0C4D  12010001           [026] move       4   2      
0C51  59810000           [027] loadk      5   2        ; 0
0C55  D0000280           [028] forprep    3   9        ; to [38]
0C59  D3018002           [029] getupval   7   5      
0C5D  CE818103           [030] gettable   7   7   6  
0C61  13020003           [031] getupval   8   6      
0C65  0EC24004           [032] gettable   8   8   259  ; "Fishes"
0C69  0E820104           [033] gettable   8   8   6  
fail op	35
0C6D  63008203           [034] close      1  
0C71  1A400080           [035] jmp        2            ; to [38]
0C75  57008000           [036] loadbool   1   1   0    ; true
0C79  1A000080           [037] jmp        1            ; to [39]
0C7D  D440FD7F           [038] forloop    3   -10      ; to [29] if loop
0C81  58400000           [039] test       1       1    ; to [41] if false
0C85  1AC00280           [040] jmp        12           ; to [53]
0C89  D3018003           [041] getupval   7   7      
0C8D  CE01C103           [042] gettable   7   7   260  ; "Vignette"
0C91  13020004           [043] getupval   8   8      
0C95  0E424104           [044] gettable   8   8   261  ; "mVignette"
fail op	35
0C99  23008203           [045] close      0  
0C9D  1A400180           [046] jmp        6            ; to [53]
0CA1  D3018004           [047] getupval   7   9      
0CA5  CE81C103           [048] gettable   7   7   262  ; "Wallpaper"
0CA9  13020004           [049] getupval   8   8      
0CAD  0EC24104           [050] gettable   8   8   263  ; "mWallpaper"
fail op	35
0CB1  63008203           [051] close      1  
0CB5  1AC01280           [052] jmp        76           ; to [129]
0CB9  CB010000           [053] newtable   7   0   0    ; array=0, hash=0
0CBD  58000000           [054] test       1       0    ; to [56] if true
0CC1  1AC00580           [055] jmp        24           ; to [80]
0CC5  19820000           [056] loadk      8   2        ; 0
0CC9  52020001           [057] move       9   2      
0CCD  99820000           [058] loadk      10  2        ; 0
0CD1  10820480           [059] forprep    8   19       ; to [79]
0CD5  19030200           [060] loadk      12  8        ; ""
0CD9  53030003           [061] getupval   13  6      
0CDD  4EC3C006           [062] gettable   13  13  259  ; "Fishes"
0CE1  4EC38206           [063] gettable   13  13  11 
fail op	35
0CE5  6300C206           [064] close      1  
0CE9  1AC00180           [065] jmp        8            ; to [74]
0CED  53030003           [066] getupval   13  6      
0CF1  4EC3C006           [067] gettable   13  13  259  ; "Fishes"
0CF5  4EC38206           [068] gettable   13  13  11 
0CF9  6443C206           [069] self       13  13  265  ; 813153904
0CFD  62830001           [070] call       13  2   2  
0D01  6483C206           [071] self       13  13  266  ; 455421500
0D05  62830001           [072] call       13  2   2  
0D09  12038006           [073] move       12  13     
0D0D  5DC30200           [074] getglobal  13  11       ; table
0D11  4E03C306           [075] gettable   13  13  268  ; -431682403
0D15  92038003           [076] move       14  7      
0D19  D2030006           [077] move       15  12     
0D1D  62438001           [078] call       13  3   1  
0D21  14C2FA7F           [079] forloop    8   -20      ; to [60] if loop
0D25  4B030000           [080] newtable   13  0   0    ; array=0, hash=0
0D29  93038003           [081] getupval   14  7      
0D2D  8E034107           [082] gettable   14  14  260  ; "Vignette"
0D31  D3030004           [083] getupval   15  8      
0D35  CE43C107           [084] gettable   15  15  261  ; "mVignette"
fail op	35
0D39  63C00307           [085] close      1  
0D3D  1A800780           [086] jmp        31           ; to [118]
0D41  9D430300           [087] getglobal  14  13       ; _T
0D45  8E834307           [088] gettable   14  14  270  ; "ShipDecosInVignette"
fail op	35
0D49  63C04307           [089] close      1  
0D4D  1A800680           [090] jmp        27           ; to [118]
0D51  9D030400           [091] getglobal  14  16       ; 248503575
0D55  DD430300           [092] getglobal  15  13       ; _T
0D59  CE83C307           [093] gettable   15  15  270  ; "ShipDecosInVignette"
0D5D  A2030101           [094] call       14  2   4  
0D61  1AC00480           [095] jmp        20           ; to [116]
fail op	35
0D65  6300C208           [096] close      1  
0D69  1A400480           [097] jmp        18           ; to [116]
0D6D  D7040000           [098] loadbool   19  0   0    ; false
0D71  19850000           [099] loadk      20  2        ; 0
0D75  4A058006           [100] len        21  13     
0D79  99850000           [101] loadk      22  2        ; 0
0D7D  10050180           [102] forprep    20  5        ; to [108]
0D81  0EC68506           [103] gettable   24  13  23 
fail op	35
0D85  2340040C           [104] close      0  
0D89  1A400080           [105] jmp        2            ; to [108]
0D8D  D7048000           [106] loadbool   19  1   0    ; true
0D91  1A000080           [107] jmp        1            ; to [109]
0D95  1445FE7F           [108] forloop    20  -6       ; to [103] if loop
0D99  D8440000           [109] test       19      1    ; to [111] if false
0D9D  1A000180           [110] jmp        5            ; to [116]
0DA1  1DC60200           [111] getglobal  24  11       ; table
0DA5  0E06430C           [112] gettable   24  24  268  ; -431682403
0DA9  52068006           [113] move       25  13     
0DAD  92068008           [114] move       26  17     
0DB1  22468001           [115] call       24  3   1  
0DB5  96830000           [116] tforloop   14      2    ; to [118] if exit
0DB9  1A40FA7F           [117] jmp        -22          ; to [96]
0DBD  13060001           [118] getupval   24  2      
0DC1  2446440C           [119] self       24  24  273  ; -795709649
0DC5  93068004           [120] getupval   26  9      
0DC9  8E86410D           [121] gettable   26  26  262  ; "Wallpaper"
0DCD  D3068003           [122] getupval   27  7      
0DD1  CE06C10D           [123] gettable   27  27  260  ; "Vignette"
0DD5  12078003           [124] move       28  7      
0DD9  52078006           [125] move       29  13     
0DDD  99870400           [126] loadk      30  18       ; "OnShipVignetteSet"
0DE1  22468003           [127] call       24  7   1  
0DE5  1E008000           [128] return     0   1      
0DE9  1D460300           [129] getglobal  24  13       ; _T
0DED  0EC6440C           [130] gettable   24  24  275  ; -270549122
0DF1  5D060500           [131] getglobal  25  20       ; mMovie
0DF5  8606000D           [132] loadnil    26  26     
0DF9  22468001           [133] call       24  3   1  
0DFD  1D060000           [134] getglobal  24  0        ; 1074689893
0E01  53060005           [135] getupval   25  10     
0E05  22860001           [136] call       24  2   2  
0E09  18460000           [137] test       24      1    ; to [139] if false
0E0D  1A400380           [138] jmp        14           ; to [153]
0E11  1D060000           [139] getglobal  24  0        ; 1074689893
0E15  53068005           [140] getupval   25  11     
0E19  22860001           [141] call       24  2   2  
0E1D  18460000           [142] test       24      1    ; to [144] if false
0E21  1A000180           [143] jmp        5            ; to [149]
0E25  13060006           [144] getupval   24  12     
0E29  53060005           [145] getupval   25  10     
0E2D  6446C50C           [146] self       25  25  277  ; -735717699
0E31  62060001           [147] call       25  2   0  
0E35  22460000           [148] call       24  0   1  
0E39  13060005           [149] getupval   24  10     
0E3D  2486450C           [150] self       24  24  278  ; -1923578185
0E41  99C60500           [151] loadk      26  23       ; "Close"
0E45  22468001           [152] call       24  3   1  
0E49  1D060000           [153] getglobal  24  0        ; 1074689893
0E4D  5D460300           [154] getglobal  25  13       ; _T
0E51  4E06C60C           [155] gettable   25  25  280  ; "DisableUIInput"
0E55  22860001           [156] call       24  2   2  
0E59  18460000           [157] test       24      1    ; to [159] if false
0E5D  1A800080           [158] jmp        3            ; to [162]
0E61  1D460300           [159] getglobal  24  13       ; _T
0E65  0E46460C           [160] gettable   24  24  281  ; 1170981787
0E69  22468000           [161] call       24  1   1  
0E6D  13068006           [162] getupval   24  13     
0E71  0E86460C           [163] gettable   24  24  282  ; 630793108
0E75  5DC60600           [164] getglobal  25  27       ; _G
0E79  4E06C70C           [165] gettable   25  25  284  ; "UISound_Close"
0E7D  22460001           [166] call       24  2   1  
0E81  1D060500           [167] getglobal  24  20       ; mMovie
0E85  2446470C           [168] self       24  24  285  ; -1517569684
0E89  22460001           [169] call       24  2   1  
0E8D  1E008000           [170] return     0   1      
                         * constants:
0E91  1E                 sizek (30)
0E92  01                 const type 3
0E93  65770E40           const [0]: (1074689893)
0E97  01                 const type 3
0E98  18821E69           const [1]: (1763607064)
0E9C  03                 const type 3
0E9D  0000803F           const [2]: (0)
0EA1  04                 const type 4
0EA2  07                 string size (7)
0EA3  46697368657300     "Fishes\0"
                         const [3]: "Fishes"
0EAA  04                 const type 4
0EAB  09                 string size (9)
0EAC  5669676E65747465+  "Vignette"
0EB4  00                 "\0"
                         const [4]: "Vignette"
0EB5  04                 const type 4
0EB6  0A                 string size (10)
0EB7  6D5669676E657474+  "mVignett"
0EBF  6500               "e\0"
                         const [5]: "mVignette"
0EC1  04                 const type 4
0EC2  0A                 string size (10)
0EC3  57616C6C70617065+  "Wallpape"
0ECB  7200               "r\0"
                         const [6]: "Wallpaper"
0ECD  04                 const type 4
0ECE  0B                 string size (11)
0ECF  6D57616C6C706170+  "mWallpap"
0ED7  657200             "er\0"
                         const [7]: "mWallpaper"
0EDA  04                 const type 4
0EDB  01                 string size (0)
                         const [8]: ""
0EDD  01                 const type 3
0EDE  70BE7730           const [9]: (813153904)
0EE2  01                 const type 3
0EE3  3C2E251B           const [10]: (455421500)
0EE7  04                 const type 4
0EE8  06                 string size (6)
0EE9  7461626C6500       "table\0"
                         const [11]: "table"
0EEF  01                 const type 3
0EF0  9D0C45E6           const [12]: (-431682403)
0EF4  04                 const type 4
0EF5  03                 string size (3)
0EF6  5F5400             "_T\0"
                         const [13]: "_T"
0EF9  04                 const type 4
0EFA  14                 string size (20)
0EFB  536869704465636F+  "ShipDeco"
0F03  73496E5669676E65+  "sInVigne"
0F0B  74746500           "tte\0"
                         const [14]: "ShipDecosInVignette"
0F0F  00                 const type 0
                         const [15]: nil
0F10  01                 const type 3
0F11  17DDCF0E           const [16]: (248503575)
0F15  01                 const type 3
0F16  2F6F92D0           const [17]: (-795709649)
0F1A  04                 const type 4
0F1B  12                 string size (18)
0F1C  4F6E536869705669+  "OnShipVi"
0F24  676E657474655365+  "gnetteSe"
0F2C  7400               "t\0"
                         const [18]: "OnShipVignetteSet"
0F2E  01                 const type 3
0F2F  7EBFDFEF           const [19]: (-270549122)
0F33  04                 const type 4
0F34  07                 string size (7)
0F35  6D4D6F76696500     "mMovie\0"
                         const [20]: "mMovie"
0F3C  01                 const type 3
0F3D  BDD625D4           const [21]: (-735717699)
0F41  01                 const type 3
0F42  B786588D           const [22]: (-1923578185)
0F46  04                 const type 4
0F47  06                 string size (6)
0F48  436C6F736500       "Close\0"
                         const [23]: "Close"
0F4E  04                 const type 4
0F4F  0F                 string size (15)
0F50  44697361626C6555+  "DisableU"
0F58  49496E70757400     "IInput\0"
                         const [24]: "DisableUIInput"
0F5F  01                 const type 3
0F60  9BC3CB45           const [25]: (1170981787)
0F64  01                 const type 3
0F65  94239925           const [26]: (630793108)
0F69  04                 const type 4
0F6A  03                 string size (3)
0F6B  5F4700             "_G\0"
                         const [27]: "_G"
0F6E  04                 const type 4
0F6F  0E                 string size (14)
0F70  5549536F756E645F+  "UISound_"
0F78  436C6F736500       "Close\0"
                         const [28]: "UISound_Close"
0F7E  01                 const type 3
0F7F  6CB98BA5           const [29]: (-1517569684)
                         * functions:
0F83  00                 sizep (0)
                         * lines:
0F85  01                 sizelineinfo (170)
                         [pc] (line)
0F86  64                 [001] (100)
0F87  00                 [002] (100)
0F88  00                 [003] (100)
0F89  00                 [004] (100)
0F8A  64                 [005] (100)
0F8B  00                 [006] (100)
0F8C  00                 [007] (100)
0F8D  00                 [008] (100)
0F8E  64                 [009] (100)
0F8F  00                 [010] (100)
0F90  00                 [011] (101)
0F91  00                 [012] (104)
0F92  64                 [013] (104)
0F93  00                 [014] (106)
0F94  00                 [015] (106)
0F95  00                 [016] (106)
0F96  64                 [017] (106)
0F97  00                 [018] (106)
0F98  00                 [019] (106)
0F99  00                 [020] (106)
0F9A  64                 [021] (107)
0F9B  00                 [022] (108)
0F9C  00                 [023] (108)
0F9D  00                 [024] (108)
0F9E  64                 [025] (109)
0F9F  00                 [026] (109)
0FA0  00                 [027] (109)
0FA1  00                 [028] (109)
0FA2  64                 [029] (110)
0FA3  00                 [030] (110)
0FA4  00                 [031] (110)
0FA5  00                 [032] (110)
0FA6  64                 [033] (110)
0FA7  00                 [034] (110)
0FA8  00                 [035] (110)
0FA9  00                 [036] (111)
0FAA  64                 [037] (113)
0FAB  00                 [038] (109)
0FAC  00                 [039] (117)
0FAD  00                 [040] (117)
0FAE  65                 [041] (117)
0FAF  00                 [042] (117)
0FB0  00                 [043] (117)
0FB1  00                 [044] (117)
0FB2  68                 [045] (117)
0FB3  00                 [046] (117)
0FB4  00                 [047] (117)
0FB5  00                 [048] (117)
0FB6  68                 [049] (117)
0FB7  00                 [050] (117)
0FB8  00                 [051] (117)
0FB9  00                 [052] (117)
0FBA  6A                 [053] (118)
0FBB  00                 [054] (120)
0FBC  00                 [055] (120)
0FBD  00                 [056] (121)
0FBE  6A                 [057] (121)
0FBF  00                 [058] (121)
0FC0  00                 [059] (121)
0FC1  00                 [060] (122)
0FC2  6A                 [061] (123)
0FC3  00                 [062] (123)
0FC4  00                 [063] (123)
0FC5  00                 [064] (123)
0FC6  6A                 [065] (123)
0FC7  00                 [066] (124)
0FC8  00                 [067] (124)
0FC9  00                 [068] (124)
0FCA  6A                 [069] (124)
0FCB  00                 [070] (124)
0FCC  00                 [071] (124)
0FCD  00                 [072] (124)
0FCE  6A                 [073] (124)
0FCF  00                 [074] (127)
0FD0  00                 [075] (127)
0FD1  00                 [076] (127)
0FD2  6A                 [077] (127)
0FD3  00                 [078] (127)
0FD4  00                 [079] (121)
0FD5  00                 [080] (-125)
0FD6  6B                 [081] (-124)
0FD7  00                 [082] (-124)
0FD8  00                 [083] (-124)
0FD9  00                 [084] (-124)
0FDA  6C                 [085] (-124)
0FDB  00                 [086] (-124)
0FDC  00                 [087] (-123)
0FDD  00                 [088] (-123)
0FDE  6C                 [089] (-123)
0FDF  00                 [090] (-123)
0FE0  00                 [091] (-122)
0FE1  00                 [092] (-122)
0FE2  6C                 [093] (-122)
0FE3  00                 [094] (-122)
0FE4  00                 [095] (-122)
0FE5  00                 [096] (-121)
0FE6  6D                 [097] (-121)
0FE7  00                 [098] (-120)
0FE8  00                 [099] (-119)
0FE9  00                 [100] (-119)
0FEA  6D                 [101] (-119)
0FEB  00                 [102] (-119)
0FEC  00                 [103] (-118)
0FED  00                 [104] (-118)
0FEE  6D                 [105] (-118)
0FEF  00                 [106] (-117)
0FF0  00                 [107] (-116)
0FF1  00                 [108] (-119)
0FF2  6D                 [109] (-112)
0FF3  00                 [110] (-112)
0FF4  00                 [111] (-111)
0FF5  00                 [112] (-111)
0FF6  6E                 [113] (-111)
0FF7  00                 [114] (-111)
0FF8  00                 [115] (-111)
0FF9  00                 [116] (-122)
0FFA  6E                 [117] (-109)
0FFB  00                 [118] (-104)
0FFC  00                 [119] (-104)
0FFD  00                 [120] (-104)
0FFE  6E                 [121] (-104)
0FFF  00                 [122] (-104)
1000  00                 [123] (-104)
1001  00                 [124] (-104)
1002  6E                 [125] (-104)
1003  00                 [126] (-104)
1004  00                 [127] (-104)
1005  00                 [128] (-102)
1006  6E                 [129] (-98)
1007  00                 [130] (-98)
1008  00                 [131] (-98)
1009  00                 [132] (-98)
100A  6E                 [133] (-98)
100B  00                 [134] (-96)
100C  00                 [135] (-96)
100D  00                 [136] (-96)
100E  6E                 [137] (-96)
100F  00                 [138] (-96)
1010  00                 [139] (-95)
1011  00                 [140] (-95)
1012  6F                 [141] (-95)
1013  00                 [142] (-95)
1014  00                 [143] (-95)
1015  00                 [144] (-94)
1016  71                 [145] (-94)
1017  00                 [146] (-94)
1018  00                 [147] (-94)
1019  00                 [148] (-94)
101A  6D                 [149] (-92)
101B  00                 [150] (-92)
101C  00                 [151] (-92)
101D  00                 [152] (-92)
101E  75                 [153] (-89)
101F  00                 [154] (-89)
1020  00                 [155] (-89)
1021  00                 [156] (-89)
1022  75                 [157] (-89)
1023  00                 [158] (-89)
1024  00                 [159] (-88)
1025  00                 [160] (-88)
1026  75                 [161] (-88)
1027  00                 [162] (-85)
1028  00                 [163] (-85)
1029  00                 [164] (-85)
102A  75                 [165] (-85)
102B  00                 [166] (-85)
102C  00                 [167] (-83)
102D  00                 [168] (-83)
102E  75                 [169] (-83)
102F  00                 [170] (-82)
                         * locals:
122E  00                 sizelocvars (0)
                         * upvalues:
122F  00                 sizeupvalues (0)
                         ** end of function **

                         
1230                     ** function [4] definition (level 2)
                         ** start of function **
1230  00                 string size (0)
                         source name: (none)
1232  01                 line defined (176)
1233  B2                 last line defined (178)
1234  01                 nups (1)
1235  01                 numparams (0)
1236  00                 is_vararg (0)
1237  00                 maxstacksize (2)
                         * code:
1239  03                 sizecode (3)
123A  13000000           [1] getupval   0   0      
123E  22408000           [2] call       0   1   1  
1242  1E008000           [3] return     0   1      
                         * constants:
1246  00                 sizek (0)
                         * functions:
1247  00                 sizep (0)
                         * lines:
1248  03                 sizelineinfo (3)
                         [pc] (line)
1249  B1                 [1] (-79)
124A  00                 [2] (-79)
124B  00                 [3] (-78)
                         * locals:
1255  00                 sizelocvars (0)
                         * upvalues:
1256  00                 sizeupvalues (0)
                         ** end of function **

                         
1257                     ** function [5] definition (level 2)
                         ** start of function **
1257  00                 string size (0)
                         source name: (none)
1259  01                 line defined (180)
125A  ED                 last line defined (237)
125B  01                 nups (13)
125C  0D                 numparams (2)
125D  02                 is_vararg (0)
125E  00                 maxstacksize (19)
                         * code:
1261  01                 sizecode (146)
1262  18400000           [001] test       0       1    ; to [3] if false
1266  1A801D80           [002] jmp        119          ; to [122]
126A  93000000           [003] getupval   2   0      
126E  8E004001           [004] gettable   2   2   256  ; 955055712
1272  D9400000           [005] loadk      3   1        ; "/Lotus/Language/Menu/ShipQuartersVignetteSetFailed"
1276  A2400001           [006] call       2   2   1  
127A  8B000000           [007] newtable   2   0   0    ; array=0, hash=0
127E  D3008000           [008] getupval   3   1      
1282  CE80C001           [009] gettable   3   3   258  ; "Wallpaper"
1286  13010001           [010] getupval   4   2      
128A  0EC14002           [011] gettable   4   4   259  ; "mWallpaper"
fail op	35
128E  63008101           [012] close      1  
1292  1A400480           [013] jmp        18           ; to [32]
1296  D3008001           [014] getupval   3   3      
129A  CC404182           [015] settable   3   260 261  ; "ResetWallpaper" 1
129E  DD800100           [016] getglobal  3   6        ; 1074689893
12A2  13010001           [017] getupval   4   2      
12A6  0EC14002           [018] gettable   4   4   259  ; "mWallpaper"
12AA  E2800001           [019] call       3   2   2  
12AE  D8400000           [020] test       3       1    ; to [22] if false
12B2  1A400280           [021] jmp        10           ; to [32]
12B6  DDC00100           [022] getglobal  3   7        ; table
12BA  CE00C201           [023] gettable   3   3   264  ; -431682403
12BE  12010001           [024] move       4   2      
12C2  5D410200           [025] getglobal  5   9        ; 2083004503
12C6  93010001           [026] getupval   6   2      
12CA  8EC14003           [027] gettable   6   6   259  ; "mWallpaper"
12CE  62810001           [028] call       5   2   2  
12D2  6481C202           [029] self       5   5   266  ; 1788830577
12D6  62010001           [030] call       5   2   0  
12DA  E2400000           [031] call       3   0   1  
12DE  D3000002           [032] getupval   3   4      
12E2  CEC0C201           [033] gettable   3   3   267  ; "Vignette"
12E6  13010001           [034] getupval   4   2      
12EA  0E014302           [035] gettable   4   4   268  ; "mVignette"
fail op	35
12EE  63008101           [036] close      1  
12F2  1AC00380           [037] jmp        16           ; to [54]
12F6  D3008001           [038] getupval   3   3      
12FA  CC40C186           [039] settable   3   269 261  ; "ResetVignette" 1
12FE  DD800100           [040] getglobal  3   6        ; 1074689893
1302  13010001           [041] getupval   4   2      
1306  0E014302           [042] gettable   4   4   268  ; "mVignette"
130A  E2800001           [043] call       3   2   2  
130E  D8400000           [044] test       3       1    ; to [46] if false
1312  1AC00180           [045] jmp        8            ; to [54]
1316  DDC00100           [046] getglobal  3   7        ; table
131A  CE00C201           [047] gettable   3   3   264  ; -431682403
131E  12010001           [048] move       4   2      
1322  53010001           [049] getupval   5   2      
1326  4E01C302           [050] gettable   5   5   268  ; "mVignette"
132A  6481C302           [051] self       5   5   270  ; 455421500
132E  62010001           [052] call       5   2   0  
1332  E2400000           [053] call       3   0   1  
1336  D7000000           [054] loadbool   3   0   0    ; false
133A  13018002           [055] getupval   4   5      
133E  53010003           [056] getupval   5   6      
1342  04410102           [057] mul        4   4   5  
1346  59C10300           [058] loadk      5   15       ; 0
134A  92010002           [059] move       6   4      
134E  D9C10300           [060] loadk      7   15       ; 0
1352  50010280           [061] forprep    5   9        ; to [71]
1356  53028003           [062] getupval   9   7      
135A  4E028204           [063] gettable   9   9   8  
135E  93020004           [064] getupval   10  8      
1362  8E024405           [065] gettable   10  10  272  ; "Fishes"
1366  8E020205           [066] gettable   10  10  8  
fail op	35
136A  63808204           [067] close      1  
136E  1A400080           [068] jmp        2            ; to [71]
1372  D7008000           [069] loadbool   3   1   0    ; true
1376  1A000080           [070] jmp        1            ; to [72]
137A  5441FD7F           [071] forloop    5   -10      ; to [62] if loop
137E  53028001           [072] getupval   9   3      
1382  4CC28088           [073] settable   9   273 3    ; "ResetFish"
1386  D8000000           [074] test       3       0    ; to [76] if true
138A  1A800680           [075] jmp        27           ; to [103]
138E  59C20300           [076] loadk      9   15       ; 0
1392  93028003           [077] getupval   10  7      
1396  8A020005           [078] len        10  10     
139A  D9C20300           [079] loadk      11  15       ; 0
139E  50020580           [080] forprep    9   21       ; to [102]
13A2  53038003           [081] getupval   13  7      
13A6  4E038306           [082] gettable   13  13  12 
fail op	35
13AA  6380C406           [083] close      1  
13AE  1A000480           [084] jmp        17           ; to [102]
13B2  53038004           [085] getupval   13  9      
13B6  4EC3C406           [086] gettable   13  13  275  ; 715365706
13BA  93038003           [087] getupval   14  7      
13BE  8E030307           [088] gettable   14  14  12 
13C2  DD030500           [089] getglobal  15  20       ; fishInfoManifest
13C6  62838001           [090] call       13  3   2  
13CA  9D830100           [091] getglobal  14  6        ; 1074689893
13CE  D2038006           [092] move       15  13     
13D2  A2830001           [093] call       14  2   2  
13D6  98430000           [094] test       14      1    ; to [96] if false
13DA  1A400180           [095] jmp        6            ; to [102]
13DE  9DC30100           [096] getglobal  14  7        ; table
13E2  8E034207           [097] gettable   14  14  264  ; -431682403
13E6  D2030001           [098] move       15  2      
13EA  2484C306           [099] self       16  13  270  ; 455421500
13EE  22040001           [100] call       16  2   0  
13F2  A2430000           [101] call       14  0   1  
13F6  5442FA7F           [102] forloop    9   -22      ; to [81] if loop
13FA  8A030001           [103] len        14  2      
fail op	21
13FE  1580838A           [104] concat     0   277 14 
1402  1A000980           [105] jmp        37           ; to [143]
1406  93038001           [106] getupval   14  3      
140A  DDC30500           [107] getglobal  15  23       ; UISys
140E  CE03C607           [108] gettable   15  15  280  ; 1151030240
1412  12040001           [109] move       16  2      
1416  E2830001           [110] call       15  2   2  
141A  8CC3038B           [111] settable   14  278 15   ; "Loader"
141E  93038001           [112] getupval   14  3      
1422  8C43C18C           [113] settable   14  281 261  ; "IsLoading" 1
1426  93030005           [114] getupval   14  10     
142A  A4834607           [115] self       14  14  282  ; -492641364
142E  17048000           [116] loadbool   16  1   0    ; true
1432  A2438001           [117] call       14  3   1  
1436  97038000           [118] loadbool   14  1   0    ; true
fail op	8
143A  88038005           [119] setupval   14  11     
143E  1E008000           [120] return     0   1      
1442  1A000580           [121] jmp        21           ; to [143]
1446  9DC30600           [122] getglobal  14  27       ; string
144A  8E034707           [123] gettable   14  14  284  ; -565905820
144E  D2038000           [124] move       15  1      
1452  19440700           [125] loadk      16  29       ; "RemovedDecos"
1456  A2838001           [126] call       14  3   2  
fail op	35
145A  63804707           [127] close      1  
145E  1A400380           [128] jmp        14           ; to [143]
1462  9D830100           [129] getglobal  14  6        ; 1074689893
1466  DDC30700           [130] getglobal  15  31       ; _T
146A  CE03C807           [131] gettable   15  15  288  ; "BackgroundMovie"
146E  A2830001           [132] call       14  2   2  
1472  98430000           [133] test       14      1    ; to [135] if false
1476  1AC00180           [134] jmp        8            ; to [143]
147A  9DC30700           [135] getglobal  14  31       ; _T
147E  8E034807           [136] gettable   14  14  288  ; "BackgroundMovie"
1482  A4434807           [137] self       14  14  289  ; -1177982048
1486  19840800           [138] loadk      16  34       ; "RefreshShipDecos"
148A  4B048000           [139] newtable   17  1   0    ; array=1, hash=0
148E  92048000           [140] move       18  1      
1492  5B448000           [141] setlist    17  1   1    ; index 1 to 1
1496  A2430002           [142] call       14  4   1  
149A  93030006           [143] getupval   14  12     
149E  D7038000           [144] loadbool   15  1   0    ; true
14A2  A2430001           [145] call       14  2   1  
14A6  1E008000           [146] return     0   1      
                         * constants:
14AA  23                 sizek (35)
14AB  01                 const type 3
14AC  60FEEC38           const [0]: (955055712)
14B0  04                 const type 4
14B1  33                 string size (51)
14B2  2F4C6F7475732F4C+  "/Lotus/L"
14BA  616E67756167652F+  "anguage/"
14C2  4D656E752F536869+  "Menu/Shi"
14CA  7051756172746572+  "pQuarter"
14D2  735669676E657474+  "sVignett"
14DA  655365744661696C+  "eSetFail"
14E2  656400             "ed\0"
                         const [1]: "/Lotus/Language/Menu/ShipQuartersVignetteSetFailed"
14E5  04                 const type 4
14E6  0A                 string size (10)
14E7  57616C6C70617065+  "Wallpape"
14EF  7200               "r\0"
                         const [2]: "Wallpaper"
14F1  04                 const type 4
14F2  0B                 string size (11)
14F3  6D57616C6C706170+  "mWallpap"
14FB  657200             "er\0"
                         const [3]: "mWallpaper"
14FE  04                 const type 4
14FF  0F                 string size (15)
1500  526573657457616C+  "ResetWal"
1508  6C706170657200     "lpaper\0"
                         const [4]: "ResetWallpaper"
150F  01                 const type 3
1510  01000000           const [5]: (1)
1514  01                 const type 3
1515  65770E40           const [6]: (1074689893)
1519  04                 const type 4
151A  06                 string size (6)
151B  7461626C6500       "table\0"
                         const [7]: "table"
1521  01                 const type 3
1522  9D0C45E6           const [8]: (-431682403)
1526  01                 const type 3
1527  5720287C           const [9]: (2083004503)
152B  01                 const type 3
152C  71639F6A           const [10]: (1788830577)
1530  04                 const type 4
1531  09                 string size (9)
1532  5669676E65747465+  "Vignette"
153A  00                 "\0"
                         const [11]: "Vignette"
153B  04                 const type 4
153C  0A                 string size (10)
153D  6D5669676E657474+  "mVignett"
1545  6500               "e\0"
                         const [12]: "mVignette"
1547  04                 const type 4
1548  0E                 string size (14)
1549  5265736574566967+  "ResetVig"
1551  6E6574746500       "nette\0"
                         const [13]: "ResetVignette"
1557  01                 const type 3
1558  3C2E251B           const [14]: (455421500)
155C  03                 const type 3
155D  0000803F           const [15]: (0)
1561  04                 const type 4
1562  07                 string size (7)
1563  46697368657300     "Fishes\0"
                         const [16]: "Fishes"
156A  04                 const type 4
156B  0A                 string size (10)
156C  5265736574466973+  "ResetFis"
1574  6800               "h\0"
                         const [17]: "ResetFish"
1576  04                 const type 4
1577  01                 string size (0)
                         const [18]: ""
1579  01                 const type 3
157A  4A9DA32A           const [19]: (715365706)
157E  04                 const type 4
157F  11                 string size (17)
1580  66697368496E666F+  "fishInfo"
1588  4D616E6966657374+  "Manifest"
1590  00                 "\0"
                         const [20]: "fishInfoManifest"
1591  03                 const type 3
1592  00000000           const [21]: (0)
1596  04                 const type 4
1597  07                 string size (7)
1598  4C6F6164657200     "Loader\0"
                         const [22]: "Loader"
159F  04                 const type 4
15A0  06                 string size (6)
15A1  554953797300       "UISys\0"
                         const [23]: "UISys"
15A7  01                 const type 3
15A8  E0539B44           const [24]: (1151030240)
15AC  04                 const type 4
15AD  0A                 string size (10)
15AE  49734C6F6164696E+  "IsLoadin"
15B6  6700               "g\0"
                         const [25]: "IsLoading"
15B8  01                 const type 3
15B9  ACE3A2E2           const [26]: (-492641364)
15BD  04                 const type 4
15BE  07                 string size (7)
15BF  737472696E6700     "string\0"
                         const [27]: "string"
15C6  01                 const type 3
15C7  64F644DE           const [28]: (-565905820)
15CB  04                 const type 4
15CC  0D                 string size (13)
15CD  52656D6F76656444+  "RemovedD"
15D5  65636F7300         "ecos\0"
                         const [29]: "RemovedDecos"
15DA  00                 const type 0
                         const [30]: nil
15DB  04                 const type 4
15DC  03                 string size (3)
15DD  5F5400             "_T\0"
                         const [31]: "_T"
15E0  04                 const type 4
15E1  10                 string size (16)
15E2  4261636B67726F75+  "Backgrou"
15EA  6E644D6F76696500   "ndMovie\0"
                         const [32]: "BackgroundMovie"
15F2  01                 const type 3
15F3  A06BC9B9           const [33]: (-1177982048)
15F7  04                 const type 4
15F8  11                 string size (17)
15F9  5265667265736853+  "RefreshS"
1601  6869704465636F73+  "hipDecos"
1609  00                 "\0"
                         const [34]: "RefreshShipDecos"
                         * functions:
160A  00                 sizep (0)
                         * lines:
160C  01                 sizelineinfo (146)
                         [pc] (line)
160D  B5                 [001] (-75)
160E  00                 [002] (-75)
160F  00                 [003] (-74)
1610  00                 [004] (-74)
1611  B5                 [005] (-74)
1612  00                 [006] (-74)
1613  00                 [007] (-71)
1614  00                 [008] (-70)
1615  B6                 [009] (-70)
1616  00                 [010] (-70)
1617  00                 [011] (-70)
1618  00                 [012] (-70)
1619  B6                 [013] (-70)
161A  00                 [014] (-69)
161B  00                 [015] (-69)
161C  00                 [016] (-68)
161D  B6                 [017] (-68)
161E  00                 [018] (-68)
161F  00                 [019] (-68)
1620  00                 [020] (-68)
1621  B6                 [021] (-68)
1622  00                 [022] (-67)
1623  00                 [023] (-67)
1624  00                 [024] (-67)
1625  B9                 [025] (-67)
1626  00                 [026] (-67)
1627  00                 [027] (-67)
1628  00                 [028] (-67)
1629  BA                 [029] (-67)
162A  00                 [030] (-67)
162B  00                 [031] (-67)
162C  00                 [032] (-63)
162D  BA                 [033] (-63)
162E  00                 [034] (-63)
162F  00                 [035] (-63)
1630  00                 [036] (-63)
1631  BA                 [037] (-63)
1632  00                 [038] (-62)
1633  00                 [039] (-62)
1634  00                 [040] (-61)
1635  BA                 [041] (-61)
1636  00                 [042] (-61)
1637  00                 [043] (-61)
1638  00                 [044] (-61)
1639  BA                 [045] (-61)
163A  00                 [046] (-60)
163B  00                 [047] (-60)
163C  00                 [048] (-60)
163D  BA                 [049] (-60)
163E  00                 [050] (-60)
163F  00                 [051] (-60)
1640  00                 [052] (-60)
1641  BB                 [053] (-60)
1642  00                 [054] (-56)
1643  00                 [055] (-55)
1644  00                 [056] (-55)
1645  BB                 [057] (-55)
1646  00                 [058] (-54)
1647  00                 [059] (-54)
1648  00                 [060] (-54)
1649  BC                 [061] (-54)
164A  00                 [062] (-53)
164B  00                 [063] (-53)
164C  00                 [064] (-53)
164D  BC                 [065] (-53)
164E  00                 [066] (-53)
164F  00                 [067] (-53)
1650  00                 [068] (-53)
1651  BC                 [069] (-52)
1652  00                 [070] (-50)
1653  00                 [071] (-54)
1654  00                 [072] (-46)
1655  BC                 [073] (-46)
1656  00                 [074] (-45)
1657  00                 [075] (-45)
1658  00                 [076] (-44)
1659  BC                 [077] (-44)
165A  00                 [078] (-44)
165B  00                 [079] (-44)
165C  00                 [080] (-44)
165D  BC                 [081] (-43)
165E  00                 [082] (-43)
165F  00                 [083] (-43)
1660  00                 [084] (-43)
1661  BD                 [085] (-42)
1662  00                 [086] (-42)
1663  00                 [087] (-42)
1664  00                 [088] (-42)
1665  BD                 [089] (-42)
1666  00                 [090] (-42)
1667  00                 [091] (-41)
1668  00                 [092] (-41)
1669  BD                 [093] (-41)
166A  00                 [094] (-41)
166B  00                 [095] (-41)
166C  00                 [096] (-40)
166D  BD                 [097] (-40)
166E  00                 [098] (-40)
166F  00                 [099] (-40)
1670  00                 [100] (-40)
1671  BD                 [101] (-40)
1672  00                 [102] (-44)
1673  00                 [103] (-34)
1674  00                 [104] (-34)
1675  BD                 [105] (-34)
1676  00                 [106] (-33)
1677  00                 [107] (-33)
1678  00                 [108] (-33)
1679  BD                 [109] (-33)
167A  00                 [110] (-33)
167B  00                 [111] (-33)
167C  00                 [112] (-32)
167D  BD                 [113] (-32)
167E  00                 [114] (-31)
167F  00                 [115] (-31)
1680  00                 [116] (-31)
1681  BD                 [117] (-31)
1682  00                 [118] (-30)
1683  00                 [119] (-30)
1684  00                 [120] (-28)
1685  BD                 [121] (-27)
1686  00                 [122] (-25)
1687  00                 [123] (-25)
1688  00                 [124] (-25)
1689  C1                 [125] (-25)
168A  00                 [126] (-25)
168B  00                 [127] (-25)
168C  00                 [128] (-25)
168D  C1                 [129] (-25)
168E  00                 [130] (-25)
168F  00                 [131] (-25)
1690  00                 [132] (-25)
1691  C1                 [133] (-25)
1692  00                 [134] (-25)
1693  00                 [135] (-24)
1694  00                 [136] (-24)
1695  C1                 [137] (-24)
1696  00                 [138] (-24)
1697  00                 [139] (-24)
1698  00                 [140] (-24)
1699  C1                 [141] (-24)
169A  00                 [142] (-24)
169B  00                 [143] (-20)
169C  00                 [144] (-20)
169D  C1                 [145] (-20)
169E  00                 [146] (-19)
                         * locals:
1855  00                 sizelocvars (0)
                         * upvalues:
1856  00                 sizeupvalues (0)
                         ** end of function **

                         
1857                     ** function [6] definition (level 2)
                         ** start of function **
1857  00                 string size (0)
                         source name: (none)
1859  01                 line defined (239)
185A  82                 last line defined (258)
185B  02                 nups (1)
185C  01                 numparams (0)
185D  00                 is_vararg (0)
185E  00                 maxstacksize (13)
                         * code:
1860  31                 sizecode (49)
1861  0B000000           [01] newtable   0   0   0    ; array=0, hash=0
1865  5D000000           [02] getglobal  1   0        ; 1074689893
1869  93000000           [03] getupval   2   0      
186D  62800001           [04] call       1   2   2  
1871  58400000           [05] test       1       1    ; to [7] if false
1875  1A400380           [06] jmp        14           ; to [21]
1879  53000000           [07] getupval   1   0      
187D  6440C000           [08] self       1   1   257  ; -1183566688
1881  62800001           [09] call       1   2   2  
1885  9D800000           [10] getglobal  2   2        ; 248503575
1889  D2008000           [11] move       3   1      
188D  A2000101           [12] call       2   2   4  
1891  1A000180           [13] jmp        5            ; to [19]
1895  DDC10000           [14] getglobal  7   3        ; table
1899  CE01C103           [15] gettable   7   7   260  ; -431682403
189D  12020000           [16] move       8   0      
18A1  52020003           [17] move       9   6      
18A5  E2418001           [18] call       7   3   1  
18A9  96800000           [19] tforloop   2       2    ; to [21] if exit
18AD  1A00FE7F           [20] jmp        -7           ; to [14]
18B1  D9410100           [21] loadk      7   5        ; ""
18B5  13020000           [22] getupval   8   0      
18B9  0E824104           [23] gettable   8   8   262  ; "mState"
18BD  53020000           [24] getupval   9   0      
18C1  4EC2C104           [25] gettable   9   9   263  ; "State"
18C5  4E02C204           [26] gettable   9   9   264  ; "CUSTOMIZATION"
fail op	35
18C9  23400204           [27] close      0  
18CD  1A400080           [28] jmp        2            ; to [31]
18D1  D9410200           [29] loadk      7   9        ; "/Lotus/Language/Menu/Exit"
18D5  1A000080           [30] jmp        1            ; to [32]
18D9  D9810200           [31] loadk      7   10       ; "/Lotus/Language/Menu/Global_Back"
18DD  1DC20000           [32] getglobal  8   3        ; table
18E1  0E024104           [33] gettable   8   8   260  ; -431682403
18E5  52020000           [34] move       9   0      
18E9  8BC20000           [35] newtable   10  0   3    ; array=0, hash=3
18ED  8CC28185           [36] settable   10  267 7    ; "Label"
18F1  E5020000           [37] closure    11  0      
18F5  8CC20286           [38] settable   10  268 11   ; "CallBack"
18F9  8C82C386           [39] settable   10  269 270  ; "CallOut" "MENU_CANCEL"
18FD  22428001           [40] call       8   3   1  
1901  1DC20300           [41] getglobal  8   15       ; _T
1905  0E024404           [42] gettable   8   8   272  ; -270549122
1909  5D420400           [43] getglobal  9   17       ; mMovie
190D  92020000           [44] move       10  0      
1911  DD820400           [45] getglobal  11  18       ; 1802065273
1915  19C30400           [46] loadk      12  19       ; 0
1919  E2020001           [47] call       11  2   0  
191D  22420000           [48] call       8   0   1  
1921  1E008000           [49] return     0   1      
                         * constants:
1925  14                 sizek (20)
1926  01                 const type 3
1927  65770E40           const [0]: (1074689893)
192B  01                 const type 3
192C  A03474B9           const [1]: (-1183566688)
1930  01                 const type 3
1931  17DDCF0E           const [2]: (248503575)
1935  04                 const type 4
1936  06                 string size (6)
1937  7461626C6500       "table\0"
                         const [3]: "table"
193D  01                 const type 3
193E  9D0C45E6           const [4]: (-431682403)
1942  04                 const type 4
1943  01                 string size (0)
                         const [5]: ""
1945  04                 const type 4
1946  07                 string size (7)
1947  6D537461746500     "mState\0"
                         const [6]: "mState"
194E  04                 const type 4
194F  06                 string size (6)
1950  537461746500       "State\0"
                         const [7]: "State"
1956  04                 const type 4
1957  0E                 string size (14)
1958  435553544F4D495A+  "CUSTOMIZ"
1960  4154494F4E00       "ATION\0"
                         const [8]: "CUSTOMIZATION"
1966  04                 const type 4
1967  1A                 string size (26)
1968  2F4C6F7475732F4C+  "/Lotus/L"
1970  616E67756167652F+  "anguage/"
1978  4D656E752F457869+  "Menu/Exi"
1980  7400               "t\0"
                         const [9]: "/Lotus/Language/Menu/Exit"
1982  04                 const type 4
1983  21                 string size (33)
1984  2F4C6F7475732F4C+  "/Lotus/L"
198C  616E67756167652F+  "anguage/"
1994  4D656E752F476C6F+  "Menu/Glo"
199C  62616C5F4261636B+  "bal_Back"
19A4  00                 "\0"
                         const [10]: "/Lotus/Language/Menu/Global_Back"
19A5  04                 const type 4
19A6  06                 string size (6)
19A7  4C6162656C00       "Label\0"
                         const [11]: "Label"
19AD  04                 const type 4
19AE  09                 string size (9)
19AF  43616C6C4261636B+  "CallBack"
19B7  00                 "\0"
                         const [12]: "CallBack"
19B8  04                 const type 4
19B9  08                 string size (8)
19BA  43616C6C4F757400   "CallOut\0"
                         const [13]: "CallOut"
19C2  04                 const type 4
19C3  0C                 string size (12)
19C4  4D454E555F43414E+  "MENU_CAN"
19CC  43454C00           "CEL\0"
                         const [14]: "MENU_CANCEL"
19D0  04                 const type 4
19D1  03                 string size (3)
19D2  5F5400             "_T\0"
                         const [15]: "_T"
19D5  01                 const type 3
19D6  7EBFDFEF           const [16]: (-270549122)
19DA  04                 const type 4
19DB  07                 string size (7)
19DC  6D4D6F76696500     "mMovie\0"
                         const [17]: "mMovie"
19E3  01                 const type 3
19E4  7955696B           const [18]: (1802065273)
19E8  03                 const type 3
19E9  0000803F           const [19]: (0)
                         * functions:
19ED  01                 sizep (1)
                         
19EE                     ** function [0] definition (level 3)
                         ** start of function **
19EE  00                 string size (0)
                         source name: (none)
19F0  02                 line defined (256)
19F1  80                 last line defined (256)
19F2  02                 nups (0)
19F3  00                 numparams (0)
19F4  00                 is_vararg (0)
19F5  00                 maxstacksize (4)
                         * code:
19F7  06                 sizecode (6)
19F8  1D000000           [1] getglobal  0   0        ; mMovie
19FC  24404000           [2] self       0   0   257  ; 1167009705
1A00  99800000           [3] loadk      2   2        ; "Close"
1A04  D9C00000           [4] loadk      3   3        ; ""
1A08  22400002           [5] call       0   4   1  
1A0C  1E008000           [6] return     0   1      
                         * constants:
1A10  04                 sizek (4)
1A11  04                 const type 4
1A12  07                 string size (7)
1A13  6D4D6F76696500     "mMovie\0"
                         const [0]: "mMovie"
1A1A  01                 const type 3
1A1B  A9278F45           const [1]: (1167009705)
1A1F  04                 const type 4
1A20  06                 string size (6)
1A21  436C6F736500       "Close\0"
                         const [2]: "Close"
1A27  04                 const type 4
1A28  01                 string size (0)
                         const [3]: ""
                         * functions:
1A2A  00                 sizep (0)
                         * lines:
1A2B  06                 sizelineinfo (6)
                         [pc] (line)
1A2C  00                 [1] (0)
1A2D  01                 [2] (0)
1A2E  00                 [3] (0)
1A2F  00                 [4] (0)
1A30  00                 [5] (0)
1A31  01                 [6] (0)
                         * locals:
1A44  00                 sizelocvars (0)
                         * upvalues:
1A45  00                 sizeupvalues (0)
                         ** end of function **

                         * lines:
1A46  31                 sizelineinfo (49)
                         [pc] (line)
1A47  F0                 [01] (-16)
1A48  00                 [02] (-14)
1A49  00                 [03] (-14)
1A4A  00                 [04] (-14)
1A4B  F2                 [05] (-14)
1A4C  00                 [06] (-14)
1A4D  00                 [07] (-13)
1A4E  00                 [08] (-13)
1A4F  F2                 [09] (-13)
1A50  00                 [10] (-12)
1A51  00                 [11] (-12)
1A52  00                 [12] (-12)
1A53  F2                 [13] (-12)
1A54  00                 [14] (-11)
1A55  00                 [15] (-11)
1A56  00                 [16] (-11)
1A57  F2                 [17] (-11)
1A58  00                 [18] (-11)
1A59  00                 [19] (-12)
1A5A  00                 [20] (-11)
1A5B  F2                 [21] (-7)
1A5C  00                 [22] (-6)
1A5D  00                 [23] (-6)
1A5E  00                 [24] (-6)
1A5F  F3                 [25] (-6)
1A60  00                 [26] (-6)
1A61  00                 [27] (-6)
1A62  00                 [28] (-6)
1A63  F3                 [29] (-5)
1A64  00                 [30] (-5)
1A65  00                 [31] (-3)
1A66  00                 [32] (0)
1A67  F3                 [33] (0)
1A68  00                 [34] (0)
1A69  00                 [35] (0)
1A6A  00                 [36] (0)
1A6B  F4                 [37] (0)
1A6C  00                 [38] (0)
1A6D  00                 [39] (0)
1A6E  00                 [40] (0)
1A6F  F4                 [41] (1)
1A70  00                 [42] (1)
1A71  00                 [43] (1)
1A72  00                 [44] (1)
1A73  F4                 [45] (1)
1A74  00                 [46] (1)
1A75  00                 [47] (1)
1A76  00                 [48] (1)
1A77  F4                 [49] (2)
                         * locals:
1B0B  00                 sizelocvars (0)
                         * upvalues:
1B0C  00                 sizeupvalues (0)
                         ** end of function **

                         
1B0D                     ** function [7] definition (level 2)
                         ** start of function **
1B0D  00                 string size (0)
                         source name: (none)
1B0F  02                 line defined (260)
1B10  86                 last line defined (262)
1B11  02                 nups (1)
1B12  01                 numparams (0)
1B13  00                 is_vararg (0)
1B14  00                 maxstacksize (2)
                         * code:
1B16  03                 sizecode (3)
1B17  13000000           [1] getupval   0   0      
1B1B  22408000           [2] call       0   1   1  
1B1F  1E008000           [3] return     0   1      
                         * constants:
1B23  00                 sizek (0)
                         * functions:
1B24  00                 sizep (0)
                         * lines:
1B25  03                 sizelineinfo (3)
                         [pc] (line)
1B26  05                 [1] (5)
1B27  01                 [2] (5)
1B28  00                 [3] (6)
                         * locals:
1B32  00                 sizelocvars (0)
                         * upvalues:
1B33  00                 sizeupvalues (0)
                         ** end of function **

                         
1B34                     ** function [8] definition (level 2)
                         ** start of function **
1B34  00                 string size (0)
                         source name: (none)
1B36  02                 line defined (264)
1B37  B9                 last line defined (313)
1B38  02                 nups (3)
1B39  03                 numparams (4)
1B3A  04                 is_vararg (0)
1B3B  00                 maxstacksize (26)
                         * code:
1B3D  65                 sizecode (101)
1B3E  0B010000           [001] newtable   4   0   0    ; array=0, hash=0
1B42  58000000           [002] test       1       0    ; to [4] if true
1B46  1A800180           [003] jmp        7            ; to [11]
1B4A  5D010000           [004] getglobal  5   0        ; table
1B4E  4E41C002           [005] gettable   5   5   257  ; -431682403
1B52  92010002           [006] move       6   4      
1B56  CB810000           [007] newtable   7   0   2    ; array=0, hash=2
1B5A  CCC14081           [008] settable   7   258 259  ; "StoreItem" nil
1B5E  CC414182           [009] settable   7   260 261  ; "IsNone" 1
1B62  62418001           [010] call       5   3   1  
1B66  5D810100           [011] getglobal  5   6        ; 1074689893
1B6A  93010000           [012] getupval   6   0      
1B6E  62810001           [013] call       5   2   2  
1B72  58410000           [014] test       5       1    ; to [16] if false
1B76  1AC01480           [015] jmp        84           ; to [100]
1B7A  5D810100           [016] getglobal  5   6        ; 1074689893
1B7E  93018000           [017] getupval   6   1      
1B82  62810001           [018] call       5   2   2  
1B86  58410000           [019] test       5       1    ; to [21] if false
1B8A  1A801380           [020] jmp        79           ; to [100]
1B8E  53018000           [021] getupval   5   1      
1B92  64C1C102           [022] self       5   5   263  ; -1232355716
1B96  D2010000           [023] move       7   0      
1B9A  62818001           [024] call       5   3   2  
1B9E  86010003           [025] loadnil    6   6      
1BA2  98400000           [026] test       2       1    ; to [28] if false
1BA6  1A000180           [027] jmp        5            ; to [33]
1BAA  D3010000           [028] getupval   7   0      
1BAE  E401C203           [029] self       7   7   264  ; 1335955611
1BB2  E2810001           [030] call       7   2   2  
1BB6  92018003           [031] move       6   7      
1BBA  1AC00080           [032] jmp        4            ; to [37]
1BBE  D3010000           [033] getupval   7   0      
1BC2  E441C203           [034] self       7   7   265  ; 858389503
1BC6  E2810001           [035] call       7   2   2  
1BCA  92018003           [036] move       6   7      
1BCE  DD810200           [037] getglobal  7   10       ; 248503575
1BD2  12028002           [038] move       8   5      
1BD6  E2010101           [039] call       7   2   4  
1BDA  1A000E80           [040] jmp        57           ; to [98]
1BDE  06030006           [041] loadnil    12  12     
1BE2  64C3C205           [042] self       13  11  267  ; -1897280249
1BE6  62830001           [043] call       13  2   2  
1BEA  58430000           [044] test       13      1    ; to [46] if false
1BEE  1A400580           [045] jmp        22           ; to [68]
1BF2  A403C305           [046] self       14  11  268  ; 813153904
1BF6  A2830001           [047] call       14  2   2  
1BFA  DD830200           [048] getglobal  15  10       ; 248503575
1BFE  12040003           [049] move       16  6      
1C02  E2030101           [050] call       15  2   4  
1C06  1A400380           [051] jmp        14           ; to [66]
1C0A  0E45C309           [052] gettable   20  19  269  ; "mItemType"
fail op	35
1C0E  2380030A           [053] close      0  
1C12  1A800280           [054] jmp        11           ; to [66]
1C16  1D850100           [055] getglobal  20  6        ; 1074689893
1C1A  4E85C309           [056] gettable   21  19  270  ; "mItemCount"
1C1E  22850001           [057] call       20  2   2  
1C22  18450000           [058] test       20      1    ; to [60] if false
1C26  1A800080           [059] jmp        3            ; to [63]
1C2A  0E85C309           [060] gettable   20  19  270  ; "mItemCount"
fail op	21
1C2E  15008587           [061] concat     0   271 20 
1C32  1A800080           [062] jmp        3            ; to [66]
1C36  57038000           [063] loadbool   13  1   0    ; true
1C3A  0E83C309           [064] gettable   12  19  270  ; "mItemCount"
1C3E  1A400080           [065] jmp        2            ; to [68]
1C42  D6830000           [066] tforloop   15      2    ; to [68] if exit
1C46  1AC0FB7F           [067] jmp        -16          ; to [52]
1C4A  2405C405           [068] self       20  11  272  ; 2102883565
1C4E  22850001           [069] call       20  2   2  
1C52  18450000           [070] test       20      1    ; to [72] if false
1C56  1A000080           [071] jmp        1            ; to [73]
1C5A  12058006           [072] move       20  13     
1C5E  98000000           [073] test       2       0    ; to [75] if true
1C62  1A800280           [074] jmp        11           ; to [86]
1C66  53050001           [075] getupval   21  2      
1C6A  4E45C40A           [076] gettable   21  21  273  ; 715365706
1C6E  92058005           [077] move       22  11     
1C72  DD850400           [078] getglobal  23  18       ; fishInfoManifest
1C76  62858001           [079] call       21  3   2  
1C7A  9D850100           [080] getglobal  22  6        ; 1074689893
1C7E  D205800A           [081] move       23  21     
1C82  A2850001           [082] call       22  2   2  
1C86  98050000           [083] test       22      0    ; to [85] if true
1C8A  1A000080           [084] jmp        1            ; to [86]
1C8E  17050000           [085] loadbool   20  0   0    ; false
1C92  18050000           [086] test       20      0    ; to [88] if true
1C96  1A400280           [087] jmp        10           ; to [98]
1C9A  8B050100           [088] newtable   22  0   4    ; array=0, hash=4
1C9E  8CC50281           [089] settable   22  258 11   ; "StoreItem"
1CA2  8C458389           [090] settable   22  275 13   ; "Owned"
1CA6  8CC5008A           [091] settable   22  276 3    ; "ShowCount"
1CAA  8C05838A           [092] settable   22  277 12   ; "Count"
1CAE  DD050000           [093] getglobal  23  0        ; table
1CB2  CE45C00B           [094] gettable   23  23  257  ; -431682403
1CB6  12060002           [095] move       24  4      
1CBA  5206000B           [096] move       25  22     
1CBE  E2458001           [097] call       23  3   1  
1CC2  D6810000           [098] tforloop   7       2    ; to [100] if exit
1CC6  1A00F17F           [099] jmp        -59          ; to [41]
1CCA  1E010001           [100] return     4   2      
1CCE  1E008000           [101] return     0   1      
                         * constants:
1CD2  16                 sizek (22)
1CD3  04                 const type 4
1CD4  06                 string size (6)
1CD5  7461626C6500       "table\0"
                         const [0]: "table"
1CDB  01                 const type 3
1CDC  9D0C45E6           const [1]: (-431682403)
1CE0  04                 const type 4
1CE1  0A                 string size (10)
1CE2  53746F7265497465+  "StoreIte"
1CEA  6D00               "m\0"
                         const [2]: "StoreItem"
1CEC  00                 const type 0
                         const [3]: nil
1CED  04                 const type 4
1CEE  07                 string size (7)
1CEF  49734E6F6E6500     "IsNone\0"
                         const [4]: "IsNone"
1CF6  01                 const type 3
1CF7  01000000           const [5]: (1)
1CFB  01                 const type 3
1CFC  65770E40           const [6]: (1074689893)
1D00  01                 const type 3
1D01  7CBE8BB6           const [7]: (-1232355716)
1D05  01                 const type 3
1D06  9B10A14F           const [8]: (1335955611)
1D0A  01                 const type 3
1D0B  FFFB2933           const [9]: (858389503)
1D0F  01                 const type 3
1D10  17DDCF0E           const [10]: (248503575)
1D14  01                 const type 3
1D15  07CDE98E           const [11]: (-1897280249)
1D19  01                 const type 3
1D1A  70BE7730           const [12]: (813153904)
1D1E  04                 const type 4
1D1F  0A                 string size (10)
1D20  6D4974656D547970+  "mItemTyp"
1D28  6500               "e\0"
                         const [13]: "mItemType"
1D2A  04                 const type 4
1D2B  0B                 string size (11)
1D2C  6D4974656D436F75+  "mItemCou"
1D34  6E7400             "nt\0"
                         const [14]: "mItemCount"
1D37  03                 const type 3
1D38  00000000           const [15]: (0)
1D3C  01                 const type 3
1D3D  ED74577D           const [16]: (2102883565)
1D41  01                 const type 3
1D42  4A9DA32A           const [17]: (715365706)
1D46  04                 const type 4
1D47  11                 string size (17)
1D48  66697368496E666F+  "fishInfo"
1D50  4D616E6966657374+  "Manifest"
1D58  00                 "\0"
                         const [18]: "fishInfoManifest"
1D59  04                 const type 4
1D5A  06                 string size (6)
1D5B  4F776E656400       "Owned\0"
                         const [19]: "Owned"
1D61  04                 const type 4
1D62  0A                 string size (10)
1D63  53686F77436F756E+  "ShowCoun"
1D6B  7400               "t\0"
                         const [20]: "ShowCount"
1D6D  04                 const type 4
1D6E  06                 string size (6)
1D6F  436F756E7400       "Count\0"
                         const [21]: "Count"
                         * functions:
1D75  00                 sizep (0)
                         * lines:
1D76  65                 sizelineinfo (101)
                         [pc] (line)
1D77  09                 [001] (9)
1D78  01                 [002] (11)
1D79  00                 [003] (11)
1D7A  00                 [004] (12)
1D7B  0B                 [005] (12)
1D7C  01                 [006] (12)
1D7D  00                 [007] (12)
1D7E  00                 [008] (12)
1D7F  0B                 [009] (12)
1D80  01                 [010] (12)
1D81  00                 [011] (15)
1D82  00                 [012] (15)
1D83  0C                 [013] (15)
1D84  01                 [014] (15)
1D85  00                 [015] (15)
1D86  00                 [016] (15)
1D87  0C                 [017] (15)
1D88  01                 [018] (15)
1D89  00                 [019] (15)
1D8A  00                 [020] (15)
1D8B  0C                 [021] (16)
1D8C  01                 [022] (16)
1D8D  00                 [023] (16)
1D8E  00                 [024] (16)
1D8F  0C                 [025] (17)
1D90  01                 [026] (18)
1D91  00                 [027] (18)
1D92  00                 [028] (19)
1D93  0C                 [029] (19)
1D94  01                 [030] (19)
1D95  00                 [031] (19)
1D96  00                 [032] (19)
1D97  0C                 [033] (21)
1D98  01                 [034] (21)
1D99  00                 [035] (21)
1D9A  00                 [036] (21)
1D9B  0C                 [037] (24)
1D9C  01                 [038] (24)
1D9D  00                 [039] (24)
1D9E  00                 [040] (24)
1D9F  0F                 [041] (25)
1DA0  01                 [042] (26)
1DA1  00                 [043] (26)
1DA2  00                 [044] (27)
1DA3  0F                 [045] (27)
1DA4  01                 [046] (28)
1DA5  00                 [047] (28)
1DA6  00                 [048] (29)
1DA7  0F                 [049] (29)
1DA8  01                 [050] (29)
1DA9  00                 [051] (29)
1DAA  00                 [052] (30)
1DAB  0F                 [053] (30)
1DAC  01                 [054] (30)
1DAD  00                 [055] (30)
1DAE  00                 [056] (30)
1DAF  0F                 [057] (30)
1DB0  01                 [058] (30)
1DB1  00                 [059] (30)
1DB2  00                 [060] (30)
1DB3  0F                 [061] (30)
1DB4  01                 [062] (30)
1DB5  00                 [063] (31)
1DB6  00                 [064] (32)
1DB7  0F                 [065] (34)
1DB8  01                 [066] (29)
1DB9  00                 [067] (35)
1DBA  00                 [068] (39)
1DBB  0F                 [069] (39)
1DBC  01                 [070] (39)
1DBD  00                 [071] (39)
1DBE  00                 [072] (39)
1DBF  0F                 [073] (41)
1DC0  01                 [074] (41)
1DC1  00                 [075] (42)
1DC2  00                 [076] (42)
1DC3  0F                 [077] (42)
1DC4  01                 [078] (42)
1DC5  00                 [079] (42)
1DC6  00                 [080] (43)
1DC7  10                 [081] (43)
1DC8  01                 [082] (43)
1DC9  00                 [083] (43)
1DCA  00                 [084] (43)
1DCB  10                 [085] (45)
1DCC  01                 [086] (49)
1DCD  00                 [087] (49)
1DCE  00                 [088] (50)
1DCF  10                 [089] (50)
1DD0  01                 [090] (50)
1DD1  00                 [091] (50)
1DD2  00                 [092] (50)
1DD3  10                 [093] (51)
1DD4  01                 [094] (51)
1DD5  00                 [095] (51)
1DD6  00                 [096] (51)
1DD7  11                 [097] (51)
1DD8  01                 [098] (24)
1DD9  00                 [099] (52)
1DDA  00                 [100] (56)
1DDB  12                 [101] (57)
                         * locals:
1F0B  00                 sizelocvars (0)
                         * upvalues:
1F0C  00                 sizeupvalues (0)
                         ** end of function **

                         
1F0D                     ** function [9] definition (level 2)
                         ** start of function **
1F0D  00                 string size (0)
                         source name: (none)
1F0F  02                 line defined (315)
1F10  BD                 last line defined (317)
1F11  02                 nups (2)
1F12  02                 numparams (0)
1F13  00                 is_vararg (0)
1F14  00                 maxstacksize (4)
                         * code:
1F16  07                 sizecode (7)
1F17  13000000           [1] getupval   0   0      
1F1B  53008000           [2] getupval   1   1      
1F1F  97008000           [3] loadbool   2   1   0    ; true
1F23  D7000000           [4] loadbool   3   0   0    ; false
1F27  07000002           [5] tailcall   0   4   0  
1F2B  1E000000           [6] return     0   0      
1F2F  1E008000           [7] return     0   1      
                         * constants:
1F33  00                 sizek (0)
                         * functions:
1F34  00                 sizep (0)
                         * lines:
1F35  07                 sizelineinfo (7)
                         [pc] (line)
1F36  3C                 [1] (60)
1F37  01                 [2] (60)
1F38  00                 [3] (60)
1F39  00                 [4] (60)
1F3A  3C                 [5] (60)
1F3B  01                 [6] (60)
1F3C  00                 [7] (61)
                         * locals:
1F52  00                 sizelocvars (0)
                         * upvalues:
1F53  00                 sizeupvalues (0)
                         ** end of function **

                         
1F54                     ** function [10] definition (level 2)
                         ** start of function **
1F54  00                 string size (0)
                         source name: (none)
1F56  02                 line defined (319)
1F57  C1                 last line defined (321)
1F58  02                 nups (2)
1F59  02                 numparams (0)
1F5A  00                 is_vararg (0)
1F5B  00                 maxstacksize (4)
                         * code:
1F5D  07                 sizecode (7)
1F5E  13000000           [1] getupval   0   0      
1F62  53008000           [2] getupval   1   1      
1F66  97008000           [3] loadbool   2   1   0    ; true
1F6A  D7000000           [4] loadbool   3   0   0    ; false
1F6E  07000002           [5] tailcall   0   4   0  
1F72  1E000000           [6] return     0   0      
1F76  1E008000           [7] return     0   1      
                         * constants:
1F7A  00                 sizek (0)
                         * functions:
1F7B  00                 sizep (0)
                         * lines:
1F7C  07                 sizelineinfo (7)
                         [pc] (line)
1F7D  40                 [1] (64)
1F7E  01                 [2] (64)
1F7F  00                 [3] (64)
1F80  00                 [4] (64)
1F81  40                 [5] (64)
1F82  01                 [6] (64)
1F83  00                 [7] (65)
                         * locals:
1F99  00                 sizelocvars (0)
                         * upvalues:
1F9A  00                 sizeupvalues (0)
                         ** end of function **

                         
1F9B                     ** function [11] definition (level 2)
                         ** start of function **
1F9B  00                 string size (0)
                         source name: (none)
1F9D  02                 line defined (323)
1F9E  EA                 last line defined (362)
1F9F  02                 nups (10)
1FA0  0A                 numparams (1)
1FA1  01                 is_vararg (0)
1FA2  00                 maxstacksize (14)
                         * code:
1FA4  7D                 sizecode (125)
1FA5  53000000           [001] getupval   1   0      
1FA9  4E00C000           [002] gettable   1   1   256  ; "CustomizationList"
1FAD  4E40C000           [003] gettable   1   1   257  ; "mSelectedElement"
1FB1  9D800000           [004] getglobal  2   2        ; 1074689893
1FB5  D2008000           [005] move       3   1      
1FB9  A2800001           [006] call       2   2   2  
1FBD  98400000           [007] test       2       1    ; to [9] if false
1FC1  1AC01C80           [008] jmp        116          ; to [125]
1FC5  9D800000           [009] getglobal  2   2        ; 1074689893
1FC9  D2000000           [010] move       3   0      
1FCD  A2800001           [011] call       2   2   2  
1FD1  98000000           [012] test       2       0    ; to [14] if true
1FD5  1A400180           [013] jmp        6            ; to [20]
1FD9  9D800000           [014] getglobal  2   2        ; 1074689893
1FDD  D3008000           [015] getupval   3   1      
1FE1  CEC0C001           [016] gettable   3   3   259  ; "Vignette"
1FE5  A2800001           [017] call       2   2   2  
1FE9  98000000           [018] test       2       0    ; to [20] if true
1FED  1AC00680           [019] jmp        28           ; to [48]
1FF1  9D800000           [020] getglobal  2   2        ; 1074689893
1FF5  D2000000           [021] move       3   0      
1FF9  A2800001           [022] call       2   2   2  
1FFD  98400000           [023] test       2       1    ; to [25] if false
2001  1A400180           [024] jmp        6            ; to [31]
2005  9D800000           [025] getglobal  2   2        ; 1074689893
2009  D3008000           [026] getupval   3   1      
200D  CEC0C001           [027] gettable   3   3   259  ; "Vignette"
2011  A2800001           [028] call       2   2   2  
2015  98400000           [029] test       2       1    ; to [31] if false
2019  1A000480           [030] jmp        17           ; to [48]
201D  9D800000           [031] getglobal  2   2        ; 1074689893
2021  D2000000           [032] move       3   0      
2025  A2800001           [033] call       2   2   2  
2029  98400000           [034] test       2       1    ; to [36] if false
202D  1A801580           [035] jmp        87           ; to [123]
2031  9D800000           [036] getglobal  2   2        ; 1074689893
2035  D3008000           [037] getupval   3   1      
2039  CEC0C001           [038] gettable   3   3   259  ; "Vignette"
203D  A2800001           [039] call       2   2   2  
2041  98400000           [040] test       2       1    ; to [42] if false
2045  1A001480           [041] jmp        81           ; to [123]
2049  A4004100           [042] self       2   0   260  ; 813153904
204D  A2800001           [043] call       2   2   2  
2051  D3008000           [044] getupval   3   1      
2055  CEC0C001           [045] gettable   3   3   259  ; "Vignette"
fail op	35
2059  63C00001           [046] close      1  
205D  1A801280           [047] jmp        75           ; to [123]
2061  9D800000           [048] getglobal  2   2        ; 1074689893
2065  D2000000           [049] move       3   0      
2069  A2800001           [050] call       2   2   2  
206D  98400000           [051] test       2       1    ; to [53] if false
2071  1A800D80           [052] jmp        55           ; to [108]
2075  8B000000           [053] newtable   2   0   0    ; array=0, hash=0
2079  E4004100           [054] self       3   0   260  ; 813153904
207D  E2800001           [055] call       3   2   2  
2081  E440C101           [056] self       3   3   261  ; 455421500
2085  E2000001           [057] call       3   2   0  
2089  9B400000           [058] setlist    2   0   1    ; index 1 to top
208D  E4004100           [059] self       3   0   260  ; 813153904
2091  E2800001           [060] call       3   2   2  
2095  13010001           [061] getupval   4   2      
fail op	35
2099  23008101           [062] close      0  
209D  1A800780           [063] jmp        31           ; to [95]
20A1  D9800100           [064] loadk      3   6        ; 0
20A5  13018001           [065] getupval   4   3      
20A9  59810100           [066] loadk      5   6        ; 0
20AD  D0400680           [067] forprep    3   26       ; to [94]
20B1  D3018001           [068] getupval   7   3      
20B5  13020002           [069] getupval   8   4      
20B9  0EC24104           [070] gettable   8   8   263  ; "MAIN"
20BD  C4018203           [071] mul        7   7   8  
20C1  C3C10103           [072] add        7   6   7  
20C5  13028002           [073] getupval   8   5      
20C9  0E024204           [074] gettable   8   8   264  ; "Fishes"
20CD  0EC20104           [075] gettable   8   8   7  
fail op	35
20D1  63404204           [076] close      1  
20D5  1AC00380           [077] jmp        16           ; to [94]
20D9  53020003           [078] getupval   9   6      
20DD  4E82C204           [079] gettable   9   9   266  ; 715365706
20E1  92020004           [080] move       10  8      
20E5  DDC20200           [081] getglobal  11  11       ; fishInfoManifest
20E9  62828001           [082] call       9   3   2  
20ED  9D820000           [083] getglobal  10  2        ; 1074689893
20F1  D2028004           [084] move       11  9      
20F5  A2820001           [085] call       10  2   2  
20F9  98420000           [086] test       10      1    ; to [88] if false
20FD  1A400180           [087] jmp        6            ; to [94]
2101  9D020300           [088] getglobal  10  12       ; table
2105  8E424305           [089] gettable   10  10  269  ; -431682403
2109  D2020001           [090] move       11  2      
210D  2443C104           [091] self       12  9   261  ; 455421500
2111  22030001           [092] call       12  2   0  
2115  A2420000           [093] call       10  0   1  
2119  D400F97F           [094] forloop    3   -27      ; to [68] if loop
211D  93028000           [095] getupval   10  1      
2121  DDC20300           [096] getglobal  11  15       ; UISys
2125  CE02C405           [097] gettable   11  11  272  ; 1151030240
2129  12030001           [098] move       12  2      
212D  E2820001           [099] call       11  2   2  
2131  8CC20287           [100] settable   10  270 11   ; "Loader"
2135  93028000           [101] getupval   10  1      
2139  8C82C488           [102] settable   10  273 274  ; "IsLoading" 1
213D  93028000           [103] getupval   10  1      
2141  E4024100           [104] self       11  0   260  ; 813153904
2145  E2820001           [105] call       11  2   2  
2149  8CC28281           [106] settable   10  259 11   ; "Vignette"
214D  1A400080           [107] jmp        2            ; to [110]
2151  93028000           [108] getupval   10  1      
2155  8CC2C481           [109] settable   10  259 275  ; "Vignette" nil
2159  97028000           [110] loadbool   10  1   0    ; true
fail op	8
215D  88028003           [111] setupval   10  7      
2161  93020004           [112] getupval   10  8      
2165  A4024505           [113] self       10  10  276  ; -492641364
2169  17038000           [114] loadbool   12  1   0    ; true
216D  A2428001           [115] call       10  3   1  
2171  9D820000           [116] getglobal  10  2        ; 1074689893
2175  D2020000           [117] move       11  0      
2179  A2820001           [118] call       10  2   2  
217D  98020000           [119] test       10      0    ; to [121] if true
2181  1A400080           [120] jmp        2            ; to [123]
2185  93028004           [121] getupval   10  9      
2189  A2428000           [122] call       10  1   1  
218D  8E42C500           [123] gettable   10  1   277  ; "ItemSelectionData"
2191  8C02008B           [124] settable   10  278 0    ; "TempSelection"
2195  1E008000           [125] return     0   1      
                         * constants:
2199  17                 sizek (23)
219A  04                 const type 4
219B  12                 string size (18)
219C  437573746F6D697A+  "Customiz"
21A4  6174696F6E4C6973+  "ationLis"
21AC  7400               "t\0"
                         const [0]: "CustomizationList"
21AE  04                 const type 4
21AF  11                 string size (17)
21B0  6D53656C65637465+  "mSelecte"
21B8  64456C656D656E74+  "dElement"
21C0  00                 "\0"
                         const [1]: "mSelectedElement"
21C1  01                 const type 3
21C2  65770E40           const [2]: (1074689893)
21C6  04                 const type 4
21C7  09                 string size (9)
21C8  5669676E65747465+  "Vignette"
21D0  00                 "\0"
                         const [3]: "Vignette"
21D1  01                 const type 3
21D2  70BE7730           const [4]: (813153904)
21D6  01                 const type 3
21D7  3C2E251B           const [5]: (455421500)
21DB  03                 const type 3
21DC  0000803F           const [6]: (0)
21E0  04                 const type 4
21E1  05                 string size (5)
21E2  4D41494E00         "MAIN\0"
                         const [7]: "MAIN"
21E7  04                 const type 4
21E8  07                 string size (7)
21E9  46697368657300     "Fishes\0"
                         const [8]: "Fishes"
21F0  04                 const type 4
21F1  01                 string size (0)
                         const [9]: ""
21F3  01                 const type 3
21F4  4A9DA32A           const [10]: (715365706)
21F8  04                 const type 4
21F9  11                 string size (17)
21FA  66697368496E666F+  "fishInfo"
2202  4D616E6966657374+  "Manifest"
220A  00                 "\0"
                         const [11]: "fishInfoManifest"
220B  04                 const type 4
220C  06                 string size (6)
220D  7461626C6500       "table\0"
                         const [12]: "table"
2213  01                 const type 3
2214  9D0C45E6           const [13]: (-431682403)
2218  04                 const type 4
2219  07                 string size (7)
221A  4C6F6164657200     "Loader\0"
                         const [14]: "Loader"
2221  04                 const type 4
2222  06                 string size (6)
2223  554953797300       "UISys\0"
                         const [15]: "UISys"
2229  01                 const type 3
222A  E0539B44           const [16]: (1151030240)
222E  04                 const type 4
222F  0A                 string size (10)
2230  49734C6F6164696E+  "IsLoadin"
2238  6700               "g\0"
                         const [17]: "IsLoading"
223A  01                 const type 3
223B  01000000           const [18]: (1)
223F  00                 const type 0
                         const [19]: nil
2240  01                 const type 3
2241  ACE3A2E2           const [20]: (-492641364)
2245  04                 const type 4
2246  12                 string size (18)
2247  4974656D53656C65+  "ItemSele"
224F  6374696F6E446174+  "ctionDat"
2257  6100               "a\0"
                         const [21]: "ItemSelectionData"
2259  04                 const type 4
225A  0E                 string size (14)
225B  54656D7053656C65+  "TempSele"
2263  6374696F6E00       "ction\0"
                         const [22]: "TempSelection"
                         * functions:
2269  00                 sizep (0)
                         * lines:
226A  7D                 sizelineinfo (125)
                         [pc] (line)
226B  44                 [001] (68)
226C  01                 [002] (68)
226D  00                 [003] (68)
226E  00                 [004] (69)
226F  44                 [005] (69)
2270  01                 [006] (69)
2271  00                 [007] (69)
2272  00                 [008] (69)
2273  44                 [009] (70)
2274  01                 [010] (70)
2275  00                 [011] (70)
2276  00                 [012] (70)
2277  45                 [013] (70)
2278  01                 [014] (70)
2279  00                 [015] (70)
227A  00                 [016] (70)
227B  45                 [017] (70)
227C  01                 [018] (70)
227D  00                 [019] (70)
227E  00                 [020] (71)
227F  45                 [021] (71)
2280  01                 [022] (71)
2281  00                 [023] (71)
2282  00                 [024] (71)
2283  45                 [025] (71)
2284  01                 [026] (71)
2285  00                 [027] (71)
2286  00                 [028] (71)
2287  45                 [029] (71)
2288  01                 [030] (71)
2289  00                 [031] (72)
228A  00                 [032] (72)
228B  46                 [033] (72)
228C  01                 [034] (72)
228D  00                 [035] (72)
228E  00                 [036] (72)
228F  46                 [037] (72)
2290  01                 [038] (72)
2291  00                 [039] (72)
2292  00                 [040] (72)
2293  46                 [041] (72)
2294  01                 [042] (72)
2295  00                 [043] (72)
2296  00                 [044] (72)
2297  46                 [045] (72)
2298  01                 [046] (72)
2299  00                 [047] (72)
229A  00                 [048] (73)
229B  46                 [049] (73)
229C  01                 [050] (73)
229D  00                 [051] (73)
229E  00                 [052] (73)
229F  46                 [053] (74)
22A0  01                 [054] (74)
22A1  00                 [055] (74)
22A2  00                 [056] (74)
22A3  46                 [057] (74)
22A4  01                 [058] (74)
22A5  00                 [059] (76)
22A6  00                 [060] (76)
22A7  46                 [061] (76)
22A8  01                 [062] (76)
22A9  00                 [063] (76)
22AA  00                 [064] (77)
22AB  46                 [065] (77)
22AC  01                 [066] (77)
22AD  00                 [067] (77)
22AE  00                 [068] (78)
22AF  46                 [069] (78)
22B0  01                 [070] (78)
22B1  00                 [071] (78)
22B2  00                 [072] (78)
22B3  46                 [073] (79)
22B4  01                 [074] (79)
22B5  00                 [075] (79)
22B6  00                 [076] (80)
22B7  47                 [077] (80)
22B8  01                 [078] (81)
22B9  00                 [079] (81)
22BA  00                 [080] (81)
22BB  47                 [081] (81)
22BC  01                 [082] (81)
22BD  00                 [083] (82)
22BE  00                 [084] (82)
22BF  47                 [085] (82)
22C0  01                 [086] (82)
22C1  00                 [087] (82)
22C2  00                 [088] (83)
22C3  47                 [089] (83)
22C4  01                 [090] (83)
22C5  00                 [091] (83)
22C6  00                 [092] (83)
22C7  47                 [093] (83)
22C8  01                 [094] (77)
22C9  00                 [095] (89)
22CA  00                 [096] (89)
22CB  47                 [097] (89)
22CC  01                 [098] (89)
22CD  00                 [099] (89)
22CE  00                 [100] (89)
22CF  47                 [101] (90)
22D0  01                 [102] (90)
22D1  00                 [103] (91)
22D2  00                 [104] (91)
22D3  47                 [105] (91)
22D4  01                 [106] (91)
22D5  00                 [107] (91)
22D6  00                 [108] (93)
22D7  47                 [109] (93)
22D8  01                 [110] (96)
22D9  00                 [111] (96)
22DA  00                 [112] (97)
22DB  47                 [113] (97)
22DC  01                 [114] (97)
22DD  00                 [115] (97)
22DE  00                 [116] (99)
22DF  47                 [117] (99)
22E0  01                 [118] (99)
22E1  00                 [119] (99)
22E2  00                 [120] (99)
22E3  48                 [121] (100)
22E4  01                 [122] (100)
22E5  00                 [123] (104)
22E6  00                 [124] (104)
22E7  48                 [125] (106)
                         * locals:
245F  00                 sizelocvars (0)
                         * upvalues:
2460  00                 sizeupvalues (0)
                         ** end of function **

                         
2461                     ** function [12] definition (level 2)
                         ** start of function **
2461  00                 string size (0)
                         source name: (none)
2463  02                 line defined (364)
2464  F8                 last line defined (376)
2465  02                 nups (3)
2466  03                 numparams (1)
2467  01                 is_vararg (0)
2468  00                 maxstacksize (4)
                         * code:
246A  18                 sizecode (24)
246B  53000000           [01] getupval   1   0      
246F  4E00C000           [02] gettable   1   1   256  ; "CustomizationList"
2473  4E40C000           [03] gettable   1   1   257  ; "mSelectedElement"
2477  9D800000           [04] getglobal  2   2        ; 1074689893
247B  D2008000           [05] move       3   1      
247F  A2800001           [06] call       2   2   2  
2483  98400000           [07] test       2       1    ; to [9] if false
2487  1A800380           [08] jmp        15           ; to [24]
248B  18000000           [09] test       0       0    ; to [11] if true
248F  1A800180           [10] jmp        7            ; to [18]
2493  93008000           [11] getupval   2   1      
2497  CEC0C000           [12] gettable   3   1   259  ; "ItemSelectionData"
249B  CE00C101           [13] gettable   3   3   260  ; "CurrSelection"
249F  A2400001           [14] call       2   2   1  
24A3  8EC0C000           [15] gettable   2   1   259  ; "ItemSelectionData"
24A7  8C80C182           [16] settable   2   261 262  ; "TempSelection" nil
24AB  1A400180           [17] jmp        6            ; to [24]
24AF  8EC0C000           [18] gettable   2   1   259  ; "ItemSelectionData"
24B3  CEC0C000           [19] gettable   3   1   259  ; "ItemSelectionData"
24B7  CE40C101           [20] gettable   3   3   261  ; "TempSelection"
24BB  8CC00082           [21] settable   2   260 3    ; "CurrSelection"
24BF  93000001           [22] getupval   2   2      
24C3  A2408000           [23] call       2   1   1  
24C7  1E008000           [24] return     0   1      
                         * constants:
24CB  07                 sizek (7)
24CC  04                 const type 4
24CD  12                 string size (18)
24CE  437573746F6D697A+  "Customiz"
24D6  6174696F6E4C6973+  "ationLis"
24DE  7400               "t\0"
                         const [0]: "CustomizationList"
24E0  04                 const type 4
24E1  11                 string size (17)
24E2  6D53656C65637465+  "mSelecte"
24EA  64456C656D656E74+  "dElement"
24F2  00                 "\0"
                         const [1]: "mSelectedElement"
24F3  01                 const type 3
24F4  65770E40           const [2]: (1074689893)
24F8  04                 const type 4
24F9  12                 string size (18)
24FA  4974656D53656C65+  "ItemSele"
2502  6374696F6E446174+  "ctionDat"
250A  6100               "a\0"
                         const [3]: "ItemSelectionData"
250C  04                 const type 4
250D  0E                 string size (14)
250E  4375727253656C65+  "CurrSele"
2516  6374696F6E00       "ction\0"
                         const [4]: "CurrSelection"
251C  04                 const type 4
251D  0E                 string size (14)
251E  54656D7053656C65+  "TempSele"
2526  6374696F6E00       "ction\0"
                         const [5]: "TempSelection"
252C  00                 const type 0
                         const [6]: nil
                         * functions:
252D  00                 sizep (0)
                         * lines:
252E  18                 sizelineinfo (24)
                         [pc] (line)
252F  6D                 [01] (109)
2530  01                 [02] (109)
2531  00                 [03] (109)
2532  00                 [04] (110)
2533  6D                 [05] (110)
2534  01                 [06] (110)
2535  00                 [07] (110)
2536  00                 [08] (110)
2537  6D                 [09] (111)
2538  01                 [10] (111)
2539  00                 [11] (112)
253A  00                 [12] (112)
253B  6E                 [13] (112)
253C  01                 [14] (112)
253D  00                 [15] (113)
253E  00                 [16] (113)
253F  6E                 [17] (113)
2540  01                 [18] (115)
2541  00                 [19] (115)
2542  00                 [20] (115)
2543  6E                 [21] (115)
2544  01                 [22] (117)
2545  00                 [23] (117)
2546  00                 [24] (120)
                         * locals:
258F  00                 sizelocvars (0)
                         * upvalues:
2590  00                 sizeupvalues (0)
                         ** end of function **

                         
2591                     ** function [13] definition (level 2)
                         ** start of function **
2591  00                 string size (0)
                         source name: (none)
2593  02                 line defined (378)
2594  85                 last line defined (389)
2595  03                 nups (4)
2596  04                 numparams (1)
2597  01                 is_vararg (0)
2598  00                 maxstacksize (5)
                         * code:
259A  18                 sizecode (24)
259B  9D000000           [01] getglobal  2   0        ; 1074689893
259F  D2000000           [02] move       3   0      
25A3  A2800001           [03] call       2   2   2  
25A7  98400000           [04] test       2       1    ; to [6] if false
25AB  1A000180           [05] jmp        5            ; to [11]
25AF  9D400000           [06] getglobal  2   1        ; 2083004503
25B3  E4804000           [07] self       3   0   258  ; 1788830577
25B7  E2000001           [08] call       3   2   0  
25BB  A2800000           [09] call       2   0   2  
25BF  52000001           [10] move       1   2      
25C3  93000000           [11] getupval   2   0      
25C7  8EC04001           [12] gettable   2   2   259  ; -1198551350
25CB  D2008000           [13] move       3   1      
25CF  A2400001           [14] call       2   2   1  
25D3  93008000           [15] getupval   2   1      
25D7  98400000           [16] test       2       1    ; to [18] if false
25DB  1A400180           [17] jmp        6            ; to [24]
25DF  97000000           [18] loadbool   2   0   0    ; false
fail op	8
25E3  88000001           [19] setupval   2   2      
25E7  93008001           [20] getupval   2   3      
25EB  A4004101           [21] self       2   2   260  ; -492641364
25EF  17010000           [22] loadbool   4   0   0    ; false
25F3  A2408001           [23] call       2   3   1  
25F7  1E008000           [24] return     0   1      
                         * constants:
25FB  05                 sizek (5)
25FC  01                 const type 3
25FD  65770E40           const [0]: (1074689893)
2601  01                 const type 3
2602  5720287C           const [1]: (2083004503)
2606  01                 const type 3
2607  71639F6A           const [2]: (1788830577)
260B  01                 const type 3
260C  CA8E8FB8           const [3]: (-1198551350)
2610  01                 const type 3
2611  ACE3A2E2           const [4]: (-492641364)
                         * functions:
2615  00                 sizep (0)
                         * lines:
2616  18                 sizelineinfo (24)
                         [pc] (line)
2617  7C                 [01] (124)
2618  01                 [02] (124)
2619  00                 [03] (124)
261A  00                 [04] (124)
261B  7C                 [05] (124)
261C  01                 [06] (125)
261D  00                 [07] (125)
261E  00                 [08] (125)
261F  7C                 [09] (125)
2620  01                 [10] (125)
2621  00                 [11] (127)
2622  00                 [12] (127)
2623  7C                 [13] (127)
2624  01                 [14] (127)
2625  00                 [15] (-127)
2626  00                 [16] (-127)
2627  7C                 [17] (-127)
2628  01                 [18] (-126)
2629  00                 [19] (-126)
262A  00                 [20] (-125)
262B  7D                 [21] (-125)
262C  01                 [22] (-125)
262D  00                 [23] (-125)
262E  00                 [24] (-123)
                         * locals:
2677  00                 sizelocvars (0)
                         * upvalues:
2678  00                 sizeupvalues (0)
                         ** end of function **

                         
2679                     ** function [14] definition (level 2)
                         ** start of function **
2679  00                 string size (0)
                         source name: (none)
267B  03                 line defined (391)
267C  A3                 last line defined (419)
267D  03                 nups (5)
267E  05                 numparams (1)
267F  01                 is_vararg (0)
2680  00                 maxstacksize (6)
                         * code:
2682  5D                 sizecode (93)
2683  53000000           [01] getupval   1   0      
2687  4E00C000           [02] gettable   1   1   256  ; "CustomizationList"
268B  4E40C000           [03] gettable   1   1   257  ; "mSelectedElement"
268F  9D800000           [04] getglobal  2   2        ; 1074689893
2693  D2008000           [05] move       3   1      
2697  A2800001           [06] call       2   2   2  
269B  98400000           [07] test       2       1    ; to [9] if false
269F  1AC01480           [08] jmp        84           ; to [93]
26A3  9D800000           [09] getglobal  2   2        ; 1074689893
26A7  D2000000           [10] move       3   0      
26AB  A2800001           [11] call       2   2   2  
26AF  98000000           [12] test       2       0    ; to [14] if true
26B3  1A400180           [13] jmp        6            ; to [20]
26B7  9D800000           [14] getglobal  2   2        ; 1074689893
26BB  D3008000           [15] getupval   3   1      
26BF  CEC0C001           [16] gettable   3   3   259  ; "Wallpaper"
26C3  A2800001           [17] call       2   2   2  
26C7  98000000           [18] test       2       0    ; to [20] if true
26CB  1AC00680           [19] jmp        28           ; to [48]
26CF  9D800000           [20] getglobal  2   2        ; 1074689893
26D3  D2000000           [21] move       3   0      
26D7  A2800001           [22] call       2   2   2  
26DB  98400000           [23] test       2       1    ; to [25] if false
26DF  1A400180           [24] jmp        6            ; to [31]
26E3  9D800000           [25] getglobal  2   2        ; 1074689893
26E7  D3008000           [26] getupval   3   1      
26EB  CEC0C001           [27] gettable   3   3   259  ; "Wallpaper"
26EF  A2800001           [28] call       2   2   2  
26F3  98400000           [29] test       2       1    ; to [31] if false
26F7  1A000480           [30] jmp        17           ; to [48]
26FB  9D800000           [31] getglobal  2   2        ; 1074689893
26FF  D2000000           [32] move       3   0      
2703  A2800001           [33] call       2   2   2  
2707  98400000           [34] test       2       1    ; to [36] if false
270B  1A800D80           [35] jmp        55           ; to [91]
270F  9D800000           [36] getglobal  2   2        ; 1074689893
2713  D3008000           [37] getupval   3   1      
2717  CEC0C001           [38] gettable   3   3   259  ; "Wallpaper"
271B  A2800001           [39] call       2   2   2  
271F  98400000           [40] test       2       1    ; to [42] if false
2723  1A000C80           [41] jmp        49           ; to [91]
2727  A4004100           [42] self       2   0   260  ; 813153904
272B  A2800001           [43] call       2   2   2  
272F  D3008000           [44] getupval   3   1      
2733  CEC0C001           [45] gettable   3   3   259  ; "Wallpaper"
fail op	35
2737  63C00001           [46] close      1  
273B  1A800A80           [47] jmp        43           ; to [91]
273F  9D800000           [48] getglobal  2   2        ; 1074689893
2743  D2000000           [49] move       3   0      
2747  A2800001           [50] call       2   2   2  
274B  98400000           [51] test       2       1    ; to [53] if false
274F  1A800580           [52] jmp        23           ; to [76]
2753  8B000000           [53] newtable   2   0   0    ; array=0, hash=0
2757  DD400100           [54] getglobal  3   5        ; 2083004503
275B  24014100           [55] self       4   0   260  ; 813153904
275F  22010001           [56] call       4   2   0  
2763  E2800000           [57] call       3   0   2  
2767  E480C101           [58] self       3   3   262  ; 1788830577
276B  E2800001           [59] call       3   2   2  
276F  E4C0C101           [60] self       3   3   263  ; 455421500
2773  E2000001           [61] call       3   2   0  
2777  9B400000           [62] setlist    2   0   1    ; index 1 to top
277B  D3008000           [63] getupval   3   1      
277F  1D410200           [64] getglobal  4   9        ; UISys
2783  0E814202           [65] gettable   4   4   266  ; 1151030240
2787  52010001           [66] move       5   2      
278B  22810001           [67] call       4   2   2  
278F  CC000184           [68] settable   3   264 4    ; "Loader"
2793  D3008000           [69] getupval   3   1      
2797  CC00C385           [70] settable   3   267 268  ; "IsLoading" 1
279B  D3008000           [71] getupval   3   1      
279F  24014100           [72] self       4   0   260  ; 813153904
27A3  22810001           [73] call       4   2   2  
27A7  CC008181           [74] settable   3   259 4    ; "Wallpaper"
27AB  1A400080           [75] jmp        2            ; to [78]
27AF  D3008000           [76] getupval   3   1      
27B3  CC40C381           [77] settable   3   259 269  ; "Wallpaper" nil
27B7  D7008000           [78] loadbool   3   1   0    ; true
fail op	8
27BB  C8000001           [79] setupval   3   2      
27BF  D3008001           [80] getupval   3   3      
27C3  E480C301           [81] self       3   3   270  ; -492641364
27C7  57018000           [82] loadbool   5   1   0    ; true
27CB  E2408001           [83] call       3   3   1  
27CF  DD800000           [84] getglobal  3   2        ; 1074689893
27D3  12010000           [85] move       4   0      
27D7  E2800001           [86] call       3   2   2  
27DB  D8000000           [87] test       3       0    ; to [89] if true
27DF  1A400080           [88] jmp        2            ; to [91]
27E3  D3000002           [89] getupval   3   4      
27E7  E2408000           [90] call       3   1   1  
27EB  CEC0C300           [91] gettable   3   1   271  ; "ItemSelectionData"
27EF  CC000088           [92] settable   3   272 0    ; "TempSelection"
27F3  1E008000           [93] return     0   1      
                         * constants:
27F7  11                 sizek (17)
27F8  04                 const type 4
27F9  12                 string size (18)
27FA  437573746F6D697A+  "Customiz"
2802  6174696F6E4C6973+  "ationLis"
280A  7400               "t\0"
                         const [0]: "CustomizationList"
280C  04                 const type 4
280D  11                 string size (17)
280E  6D53656C65637465+  "mSelecte"
2816  64456C656D656E74+  "dElement"
281E  00                 "\0"
                         const [1]: "mSelectedElement"
281F  01                 const type 3
2820  65770E40           const [2]: (1074689893)
2824  04                 const type 4
2825  0A                 string size (10)
2826  57616C6C70617065+  "Wallpape"
282E  7200               "r\0"
                         const [3]: "Wallpaper"
2830  01                 const type 3
2831  70BE7730           const [4]: (813153904)
2835  01                 const type 3
2836  5720287C           const [5]: (2083004503)
283A  01                 const type 3
283B  71639F6A           const [6]: (1788830577)
283F  01                 const type 3
2840  3C2E251B           const [7]: (455421500)
2844  04                 const type 4
2845  07                 string size (7)
2846  4C6F6164657200     "Loader\0"
                         const [8]: "Loader"
284D  04                 const type 4
284E  06                 string size (6)
284F  554953797300       "UISys\0"
                         const [9]: "UISys"
2855  01                 const type 3
2856  E0539B44           const [10]: (1151030240)
285A  04                 const type 4
285B  0A                 string size (10)
285C  49734C6F6164696E+  "IsLoadin"
2864  6700               "g\0"
                         const [11]: "IsLoading"
2866  01                 const type 3
2867  01000000           const [12]: (1)
286B  00                 const type 0
                         const [13]: nil
286C  01                 const type 3
286D  ACE3A2E2           const [14]: (-492641364)
2871  04                 const type 4
2872  12                 string size (18)
2873  4974656D53656C65+  "ItemSele"
287B  6374696F6E446174+  "ctionDat"
2883  6100               "a\0"
                         const [15]: "ItemSelectionData"
2885  04                 const type 4
2886  0E                 string size (14)
2887  54656D7053656C65+  "TempSele"
288F  6374696F6E00       "ction\0"
                         const [16]: "TempSelection"
                         * functions:
2895  00                 sizep (0)
                         * lines:
2896  5D                 sizelineinfo (93)
                         [pc] (line)
2897  88                 [01] (-120)
2898  01                 [02] (-120)
2899  00                 [03] (-120)
289A  00                 [04] (-119)
289B  88                 [05] (-119)
289C  01                 [06] (-119)
289D  00                 [07] (-119)
289E  00                 [08] (-119)
289F  88                 [09] (-118)
28A0  01                 [10] (-118)
28A1  00                 [11] (-118)
28A2  00                 [12] (-118)
28A3  89                 [13] (-118)
28A4  01                 [14] (-118)
28A5  00                 [15] (-118)
28A6  00                 [16] (-118)
28A7  89                 [17] (-118)
28A8  01                 [18] (-118)
28A9  00                 [19] (-118)
28AA  00                 [20] (-117)
28AB  89                 [21] (-117)
28AC  01                 [22] (-117)
28AD  00                 [23] (-117)
28AE  00                 [24] (-117)
28AF  89                 [25] (-117)
28B0  01                 [26] (-117)
28B1  00                 [27] (-117)
28B2  00                 [28] (-117)
28B3  89                 [29] (-117)
28B4  01                 [30] (-117)
28B5  00                 [31] (-116)
28B6  00                 [32] (-116)
28B7  8A                 [33] (-116)
28B8  01                 [34] (-116)
28B9  00                 [35] (-116)
28BA  00                 [36] (-116)
28BB  8A                 [37] (-116)
28BC  01                 [38] (-116)
28BD  00                 [39] (-116)
28BE  00                 [40] (-116)
28BF  8A                 [41] (-116)
28C0  01                 [42] (-116)
28C1  00                 [43] (-116)
28C2  00                 [44] (-116)
28C3  8A                 [45] (-116)
28C4  01                 [46] (-116)
28C5  00                 [47] (-116)
28C6  00                 [48] (-115)
28C7  8A                 [49] (-115)
28C8  01                 [50] (-115)
28C9  00                 [51] (-115)
28CA  00                 [52] (-115)
28CB  8A                 [53] (-112)
28CC  01                 [54] (-112)
28CD  00                 [55] (-112)
28CE  00                 [56] (-112)
28CF  8A                 [57] (-112)
28D0  01                 [58] (-112)
28D1  00                 [59] (-112)
28D2  00                 [60] (-112)
28D3  8A                 [61] (-112)
28D4  01                 [62] (-112)
28D5  00                 [63] (-110)
28D6  00                 [64] (-110)
28D7  8A                 [65] (-110)
28D8  01                 [66] (-110)
28D9  00                 [67] (-110)
28DA  00                 [68] (-110)
28DB  8A                 [69] (-109)
28DC  01                 [70] (-109)
28DD  00                 [71] (-108)
28DE  00                 [72] (-108)
28DF  8A                 [73] (-108)
28E0  01                 [74] (-108)
28E1  00                 [75] (-108)
28E2  00                 [76] (-106)
28E3  8B                 [77] (-106)
28E4  01                 [78] (-103)
28E5  00                 [79] (-103)
28E6  00                 [80] (-102)
28E7  8B                 [81] (-102)
28E8  01                 [82] (-102)
28E9  00                 [83] (-102)
28EA  00                 [84] (-100)
28EB  8B                 [85] (-100)
28EC  01                 [86] (-100)
28ED  00                 [87] (-100)
28EE  00                 [88] (-100)
28EF  8B                 [89] (-99)
28F0  01                 [90] (-99)
28F1  00                 [91] (-95)
28F2  00                 [92] (-95)
28F3  8B                 [93] (-93)
                         * locals:
2A0B  00                 sizelocvars (0)
                         * upvalues:
2A0C  00                 sizeupvalues (0)
                         ** end of function **

                         
2A0D                     ** function [15] definition (level 2)
                         ** start of function **
2A0D  00                 string size (0)
                         source name: (none)
2A0F  03                 line defined (421)
2A10  B1                 last line defined (433)
2A11  03                 nups (2)
2A12  02                 numparams (1)
2A13  01                 is_vararg (0)
2A14  00                 maxstacksize (4)
                         * code:
2A16  1B                 sizecode (27)
2A17  53000000           [01] getupval   1   0      
2A1B  4E00C000           [02] gettable   1   1   256  ; "CustomizationList"
2A1F  4E40C000           [03] gettable   1   1   257  ; "mSelectedElement"
2A23  9D800000           [04] getglobal  2   2        ; 1074689893
2A27  D2008000           [05] move       3   1      
2A2B  A2800001           [06] call       2   2   2  
2A2F  98400000           [07] test       2       1    ; to [9] if false
2A33  1A400480           [08] jmp        18           ; to [27]
2A37  18000000           [09] test       0       0    ; to [11] if true
2A3B  1A800180           [10] jmp        7            ; to [18]
2A3F  93008000           [11] getupval   2   1      
2A43  CEC0C000           [12] gettable   3   1   259  ; "ItemSelectionData"
2A47  CE00C101           [13] gettable   3   3   260  ; "CurrSelection"
2A4B  A2400001           [14] call       2   2   1  
2A4F  8EC0C000           [15] gettable   2   1   259  ; "ItemSelectionData"
2A53  8C80C182           [16] settable   2   261 262  ; "TempSelection" nil
2A57  1A000280           [17] jmp        9            ; to [27]
2A5B  8EC0C000           [18] gettable   2   1   259  ; "ItemSelectionData"
2A5F  CEC0C000           [19] gettable   3   1   259  ; "ItemSelectionData"
2A63  CE40C101           [20] gettable   3   3   261  ; "TempSelection"
2A67  8CC00082           [21] settable   2   260 3    ; "CurrSelection"
2A6B  93000000           [22] getupval   2   0      
2A6F  8E004001           [23] gettable   2   2   256  ; "CustomizationList"
2A73  8EC04101           [24] gettable   2   2   263  ; -1552746934
2A77  D2008000           [25] move       3   1      
2A7B  A2400001           [26] call       2   2   1  
2A7F  1E008000           [27] return     0   1      
                         * constants:
2A83  08                 sizek (8)
2A84  04                 const type 4
2A85  12                 string size (18)
2A86  437573746F6D697A+  "Customiz"
2A8E  6174696F6E4C6973+  "ationLis"
2A96  7400               "t\0"
                         const [0]: "CustomizationList"
2A98  04                 const type 4
2A99  11                 string size (17)
2A9A  6D53656C65637465+  "mSelecte"
2AA2  64456C656D656E74+  "dElement"
2AAA  00                 "\0"
                         const [1]: "mSelectedElement"
2AAB  01                 const type 3
2AAC  65770E40           const [2]: (1074689893)
2AB0  04                 const type 4
2AB1  12                 string size (18)
2AB2  4974656D53656C65+  "ItemSele"
2ABA  6374696F6E446174+  "ctionDat"
2AC2  6100               "a\0"
                         const [3]: "ItemSelectionData"
2AC4  04                 const type 4
2AC5  0E                 string size (14)
2AC6  4375727253656C65+  "CurrSele"
2ACE  6374696F6E00       "ction\0"
                         const [4]: "CurrSelection"
2AD4  04                 const type 4
2AD5  0E                 string size (14)
2AD6  54656D7053656C65+  "TempSele"
2ADE  6374696F6E00       "ction\0"
                         const [5]: "TempSelection"
2AE4  00                 const type 0
                         const [6]: nil
2AE5  01                 const type 3
2AE6  4AF672A3           const [7]: (-1552746934)
                         * functions:
2AEA  00                 sizep (0)
                         * lines:
2AEB  1B                 sizelineinfo (27)
                         [pc] (line)
2AEC  A6                 [01] (-90)
2AED  01                 [02] (-90)
2AEE  00                 [03] (-90)
2AEF  00                 [04] (-89)
2AF0  A6                 [05] (-89)
2AF1  01                 [06] (-89)
2AF2  00                 [07] (-89)
2AF3  00                 [08] (-89)
2AF4  A6                 [09] (-88)
2AF5  01                 [10] (-88)
2AF6  00                 [11] (-87)
2AF7  00                 [12] (-87)
2AF8  A7                 [13] (-87)
2AF9  01                 [14] (-87)
2AFA  00                 [15] (-86)
2AFB  00                 [16] (-86)
2AFC  A7                 [17] (-86)
2AFD  01                 [18] (-84)
2AFE  00                 [19] (-84)
2AFF  00                 [20] (-84)
2B00  A7                 [21] (-84)
2B01  01                 [22] (-82)
2B02  00                 [23] (-82)
2B03  00                 [24] (-82)
2B04  A7                 [25] (-82)
2B05  01                 [26] (-82)
2B06  00                 [27] (-79)
                         * locals:
2B58  00                 sizelocvars (0)
                         * upvalues:
2B59  00                 sizeupvalues (0)
                         ** end of function **

                         
2B5A                     ** function [16] definition (level 2)
                         ** start of function **
2B5A  00                 string size (0)
                         source name: (none)
2B5C  03                 line defined (435)
2B5D  B5                 last line defined (437)
2B5E  03                 nups (2)
2B5F  02                 numparams (1)
2B60  01                 is_vararg (0)
2B61  00                 maxstacksize (3)
                         * code:
2B63  07                 sizecode (7)
2B64  53000000           [1] getupval   1   0      
2B68  93008000           [2] getupval   2   1      
2B6C  8E004001           [3] gettable   2   2   256  ; "CurrTank"
2B70  44808000           [4] mul        1   1   2  
2B74  43400000           [5] add        1   0   1  
2B78  5E000001           [6] return     1   2      
2B7C  1E008000           [7] return     0   1      
                         * constants:
2B80  01                 sizek (1)
2B81  04                 const type 4
2B82  09                 string size (9)
2B83  4375727254616E6B+  "CurrTank"
2B8B  00                 "\0"
                         const [0]: "CurrTank"
                         * functions:
2B8C  00                 sizep (0)
                         * lines:
2B8D  07                 sizelineinfo (7)
                         [pc] (line)
2B8E  B4                 [1] (-76)
2B8F  01                 [2] (-76)
2B90  00                 [3] (-76)
2B91  00                 [4] (-76)
2B92  B4                 [5] (-76)
2B93  01                 [6] (-76)
2B94  00                 [7] (-75)
                         * locals:
2BAA  00                 sizelocvars (0)
                         * upvalues:
2BAB  00                 sizeupvalues (0)
                         ** end of function **

                         
2BAC                     ** function [17] definition (level 2)
                         ** start of function **
2BAC  00                 string size (0)
                         source name: (none)
2BAE  03                 line defined (439)
2BAF  BC                 last line defined (444)
2BB0  03                 nups (2)
2BB1  02                 numparams (1)
2BB2  01                 is_vararg (0)
2BB3  00                 maxstacksize (8)
                         * code:
2BB5  16                 sizecode (22)
2BB6  5D000000           [01] getglobal  1   0        ; -332969190
2BBA  99400000           [02] loadk      2   1        ; "FishPaths"
2BBE  DD800000           [03] getglobal  3   2        ; -1615931716
2BC2  13010000           [04] getupval   4   0      
2BC6  0EC14002           [05] gettable   4   4   259  ; -132701534
fail op	35
2BCA  63004100           [06] close      1  
2BCE  1A000080           [07] jmp        1            ; to [9]
2BD2  57410000           [08] loadbool   5   0   1    ; false, to [10]
2BD6  57018000           [09] loadbool   5   1   0    ; true
2BDA  93018000           [10] getupval   6   1      
2BDE  8E414103           [11] gettable   6   6   261  ; "CurrTank"
2BE2  D2010000           [12] move       7   0      
2BE6  22010002           [13] call       4   4   0  
2BEA  E2800000           [14] call       3   0   2  
2BEE  82C00001           [15] concat     2   2   3  
2BF2  62800001           [16] call       1   2   2  
2BF6  9D800100           [17] getglobal  2   6        ; gRegion
2BFA  A4C04101           [18] self       2   2   263  ; -1875307917
2BFE  12018000           [19] move       4   1      
2C02  A2808001           [20] call       2   3   2  
2C06  9E000001           [21] return     2   2      
2C0A  1E008000           [22] return     0   1      
                         * constants:
2C0E  08                 sizek (8)
2C0F  01                 const type 3
2C10  1A4B27EC           const [0]: (-332969190)
2C14  04                 const type 4
2C15  0A                 string size (10)
2C16  4669736850617468+  "FishPath"
2C1E  7300               "s\0"
                         const [1]: "FishPaths"
2C20  01                 const type 3
2C21  BCD6AE9F           const [2]: (-1615931716)
2C25  01                 const type 3
2C26  A22217F8           const [3]: (-132701534)
2C2A  00                 const type 0
                         const [4]: nil
2C2B  04                 const type 4
2C2C  09                 string size (9)
2C2D  4375727254616E6B+  "CurrTank"
2C35  00                 "\0"
                         const [5]: "CurrTank"
2C36  04                 const type 4
2C37  08                 string size (8)
2C38  67526567696F6E00   "gRegion\0"
                         const [6]: "gRegion"
2C40  01                 const type 3
2C41  73123990           const [7]: (-1875307917)
                         * functions:
2C45  00                 sizep (0)
                         * lines:
2C46  16                 sizelineinfo (22)
                         [pc] (line)
2C47  B8                 [01] (-72)
2C48  01                 [02] (-72)
2C49  00                 [03] (-72)
2C4A  00                 [04] (-72)
2C4B  B8                 [05] (-72)
2C4C  01                 [06] (-72)
2C4D  00                 [07] (-72)
2C4E  00                 [08] (-72)
2C4F  B8                 [09] (-72)
2C50  01                 [10] (-72)
2C51  00                 [11] (-72)
2C52  00                 [12] (-72)
2C53  B8                 [13] (-72)
2C54  01                 [14] (-72)
2C55  00                 [15] (-72)
2C56  00                 [16] (-72)
2C57  B8                 [17] (-71)
2C58  01                 [18] (-71)
2C59  00                 [19] (-71)
2C5A  00                 [20] (-71)
2C5B  B8                 [21] (-69)
2C5C  01                 [22] (-68)
                         * locals:
2C9F  00                 sizelocvars (0)
                         * upvalues:
2CA0  00                 sizeupvalues (0)
                         ** end of function **

                         
2CA1                     ** function [18] definition (level 2)
                         ** start of function **
2CA1  00                 string size (0)
                         source name: (none)
2CA3  03                 line defined (446)
2CA4  C0                 last line defined (448)
2CA5  03                 nups (4)
2CA6  04                 numparams (0)
2CA7  00                 is_vararg (0)
2CA8  00                 maxstacksize (4)
                         * code:
2CAA  0F                 sizecode (15)
2CAB  13000000           [01] getupval   0   0      
2CAF  0E004000           [02] gettable   0   0   256  ; -132701534
2CB3  53008000           [03] getupval   1   1      
2CB7  4E40C000           [04] gettable   1   1   257  ; "CurrTank"
2CBB  93000001           [05] getupval   2   2      
2CBF  8E804001           [06] gettable   2   2   258  ; "SIDE"
fail op	35
2CC3  63808000           [07] close      1  
2CC7  1A000080           [08] jmp        1            ; to [10]
2CCB  57400000           [09] loadbool   1   0   1    ; false, to [11]
2CCF  57008000           [10] loadbool   1   1   0    ; true
2CD3  93008001           [11] getupval   2   3      
2CD7  C6008001           [12] loadnil    3   3      
2CDB  07000002           [13] tailcall   0   4   0  
2CDF  1E000000           [14] return     0   0      
2CE3  1E008000           [15] return     0   1      
                         * constants:
2CE7  03                 sizek (3)
2CE8  01                 const type 3
2CE9  A22217F8           const [0]: (-132701534)
2CED  04                 const type 4
2CEE  09                 string size (9)
2CEF  4375727254616E6B+  "CurrTank"
2CF7  00                 "\0"
                         const [1]: "CurrTank"
2CF8  04                 const type 4
2CF9  05                 string size (5)
2CFA  5349444500         "SIDE\0"
                         const [2]: "SIDE"
                         * functions:
2CFF  00                 sizep (0)
                         * lines:
2D00  0F                 sizelineinfo (15)
                         [pc] (line)
2D01  BF                 [01] (-65)
2D02  01                 [02] (-65)
2D03  00                 [03] (-65)
2D04  00                 [04] (-65)
2D05  BF                 [05] (-65)
2D06  01                 [06] (-65)
2D07  00                 [07] (-65)
2D08  00                 [08] (-65)
2D09  BF                 [09] (-65)
2D0A  01                 [10] (-65)
2D0B  00                 [11] (-65)
2D0C  00                 [12] (-65)
2D0D  BF                 [13] (-65)
2D0E  01                 [14] (-65)
2D0F  00                 [15] (-64)
                         * locals:
2D3D  00                 sizelocvars (0)
                         * upvalues:
2D3E  00                 sizeupvalues (0)
                         ** end of function **

                         
2D3F                     ** function [19] definition (level 2)
                         ** start of function **
2D3F  00                 string size (0)
                         source name: (none)
2D41  03                 line defined (450)
2D42  D1                 last line defined (465)
2D43  03                 nups (3)
2D44  03                 numparams (2)
2D45  02                 is_vararg (0)
2D46  00                 maxstacksize (6)
                         * code:
2D48  1D                 sizecode (29)
2D49  93000000           [01] getupval   2   0      
fail op	35
2D4D  23800000           [02] close      0  
2D51  1A800080           [03] jmp        3            ; to [7]
2D55  58400000           [04] test       1       1    ; to [6] if false
2D59  1A000080           [05] jmp        1            ; to [7]
2D5D  1E008000           [06] return     0   1      
fail op	8
2D61  08000000           [07] setupval   0   0      
2D65  9D000000           [08] getglobal  2   0        ; 1074689893
2D69  D3008000           [09] getupval   3   1      
2D6D  A2800001           [10] call       2   2   2  
2D71  98400000           [11] test       2       1    ; to [13] if false
2D75  1AC00380           [12] jmp        16           ; to [29]
2D79  93008000           [13] getupval   2   1      
2D7D  A4404001           [14] self       2   2   257  ; -735717699
2D81  A2800001           [15] call       2   2   2  
2D85  DD000000           [16] getglobal  3   0        ; 1074689893
2D89  13010000           [17] getupval   4   0      
2D8D  E2800001           [18] call       3   2   2  
2D91  D8400000           [19] test       3       1    ; to [21] if false
2D95  1A000180           [20] jmp        5            ; to [26]
2D99  DD800000           [21] getglobal  3   2        ; gRegion
2D9D  E4C0C001           [22] self       3   3   259  ; -1875307917
2DA1  53010000           [23] getupval   5   0      
2DA5  E2808001           [24] call       3   3   2  
2DA9  92008001           [25] move       2   3      
2DAD  D3000001           [26] getupval   3   2      
2DB1  12010001           [27] move       4   2      
2DB5  E2400001           [28] call       3   2   1  
2DB9  1E008000           [29] return     0   1      
                         * constants:
2DBD  04                 sizek (4)
2DBE  01                 const type 3
2DBF  65770E40           const [0]: (1074689893)
2DC3  01                 const type 3
2DC4  BDD625D4           const [1]: (-735717699)
2DC8  04                 const type 4
2DC9  08                 string size (8)
2DCA  67526567696F6E00   "gRegion\0"
                         const [2]: "gRegion"
2DD2  01                 const type 3
2DD3  73123990           const [3]: (-1875307917)
                         * functions:
2DD7  00                 sizep (0)
                         * lines:
2DD8  1D                 sizelineinfo (29)
                         [pc] (line)
2DD9  C3                 [01] (-61)
2DDA  01                 [02] (-61)
2DDB  00                 [03] (-61)
2DDC  00                 [04] (-61)
2DDD  C3                 [05] (-61)
2DDE  01                 [06] (-60)
2DDF  00                 [07] (-57)
2DE0  00                 [08] (-55)
2DE1  C3                 [09] (-55)
2DE2  01                 [10] (-55)
2DE3  00                 [11] (-55)
2DE4  00                 [12] (-55)
2DE5  C3                 [13] (-54)
2DE6  01                 [14] (-54)
2DE7  00                 [15] (-54)
2DE8  00                 [16] (-53)
2DE9  C3                 [17] (-53)
2DEA  01                 [18] (-53)
2DEB  00                 [19] (-53)
2DEC  00                 [20] (-53)
2DED  C4                 [21] (-52)
2DEE  01                 [22] (-52)
2DEF  00                 [23] (-52)
2DF0  00                 [24] (-52)
2DF1  C7                 [25] (-52)
2DF2  01                 [26] (-49)
2DF3  00                 [27] (-49)
2DF4  00                 [28] (-49)
2DF5  C9                 [29] (-47)
                         * locals:
2E4D  00                 sizelocvars (0)
                         * upvalues:
2E4E  00                 sizeupvalues (0)
                         ** end of function **

                         
2E4F                     ** function [20] definition (level 2)
                         ** start of function **
2E4F  00                 string size (0)
                         source name: (none)
2E51  03                 line defined (467)
2E52  D5                 last line defined (469)
2E53  03                 nups (4)
2E54  04                 numparams (0)
2E55  00                 is_vararg (0)
2E56  00                 maxstacksize (2)
                         * code:
2E58  0F                 sizecode (15)
2E59  13000000           [01] getupval   0   0      
2E5D  0E004000           [02] gettable   0   0   256  ; "CurrTank"
2E61  53008000           [03] getupval   1   1      
2E65  4E40C000           [04] gettable   1   1   257  ; "SIDE"
fail op	35
2E69  63400000           [05] close      1  
2E6D  1A400180           [06] jmp        6            ; to [13]
2E71  13000001           [07] getupval   0   2      
2E75  0E804000           [08] gettable   0   0   258  ; "Vignette"
2E79  53008001           [09] getupval   1   3      
fail op	35
2E7D  63400000           [10] close      1  
2E81  1A000080           [11] jmp        1            ; to [13]
2E85  17400000           [12] loadbool   0   0   1    ; false, to [14]
2E89  17008000           [13] loadbool   0   1   0    ; true
2E8D  1E000001           [14] return     0   2      
2E91  1E008000           [15] return     0   1      
                         * constants:
2E95  03                 sizek (3)
2E96  04                 const type 4
2E97  09                 string size (9)
2E98  4375727254616E6B+  "CurrTank"
2EA0  00                 "\0"
                         const [0]: "CurrTank"
2EA1  04                 const type 4
2EA2  05                 string size (5)
2EA3  5349444500         "SIDE\0"
                         const [1]: "SIDE"
2EA8  04                 const type 4
2EA9  09                 string size (9)
2EAA  5669676E65747465+  "Vignette"
2EB2  00                 "\0"
                         const [2]: "Vignette"
                         * functions:
2EB3  00                 sizep (0)
                         * lines:
2EB4  0F                 sizelineinfo (15)
                         [pc] (line)
2EB5  D4                 [01] (-44)
2EB6  01                 [02] (-44)
2EB7  00                 [03] (-44)
2EB8  00                 [04] (-44)
2EB9  D4                 [05] (-44)
2EBA  01                 [06] (-44)
2EBB  00                 [07] (-44)
2EBC  00                 [08] (-44)
2EBD  D4                 [09] (-44)
2EBE  01                 [10] (-44)
2EBF  00                 [11] (-44)
2EC0  00                 [12] (-44)
2EC1  D4                 [13] (-44)
2EC2  01                 [14] (-44)
2EC3  00                 [15] (-43)
                         * locals:
2EF1  00                 sizelocvars (0)
                         * upvalues:
2EF2  00                 sizeupvalues (0)
                         ** end of function **

                         
2EF3                     ** function [21] definition (level 2)
                         ** start of function **
2EF3  00                 string size (0)
                         source name: (none)
2EF5  03                 line defined (471)
2EF6  EE                 last line defined (494)
2EF7  03                 nups (6)
2EF8  06                 numparams (1)
2EF9  01                 is_vararg (0)
2EFA  00                 maxstacksize (6)
                         * code:
2EFC  15                 sizecode (21)
2EFD  53000000           [01] getupval   1   0      
2F01  8E404000           [02] gettable   2   0   257  ; "Type"
2F05  4C800080           [03] settable   1   256 2    ; "CurrTank"
2F09  53008000           [04] getupval   1   1      
2F0D  62808000           [05] call       1   1   2  
2F11  93000001           [06] getupval   2   2      
2F15  A2808000           [07] call       2   1   2  
2F19  D3008001           [08] getupval   3   3      
2F1D  CE80C001           [09] gettable   3   3   258  ; "CustomizationList"
2F21  E4C0C001           [10] self       3   3   259  ; -1658822453
2F25  65010000           [11] closure    5   0      
2F29  12000001           [12] move       0   2      
2F2D  12008000           [13] move       0   1      
2F31  13008001           [14] getupval   0   3      
2F35  E2408001           [15] call       3   3   1  
2F39  D3000002           [16] getupval   3   4      
2F3D  12010001           [17] move       4   2      
2F41  E2400001           [18] call       3   2   1  
2F45  D3008002           [19] getupval   3   5      
2F49  E2408000           [20] call       3   1   1  
2F4D  1E008000           [21] return     0   1      
                         * constants:
2F51  04                 sizek (4)
2F52  04                 const type 4
2F53  09                 string size (9)
2F54  4375727254616E6B+  "CurrTank"
2F5C  00                 "\0"
                         const [0]: "CurrTank"
2F5D  04                 const type 4
2F5E  05                 string size (5)
2F5F  5479706500         "Type\0"
                         const [1]: "Type"
2F64  04                 const type 4
2F65  12                 string size (18)
2F66  437573746F6D697A+  "Customiz"
2F6E  6174696F6E4C6973+  "ationLis"
2F76  7400               "t\0"
                         const [2]: "CustomizationList"
2F78  01                 const type 3
2F79  CB60209D           const [3]: (-1658822453)
                         * functions:
2F7D  01                 sizep (1)
                         
2F7E                     ** function [0] definition (level 3)
                         ** start of function **
2F7E  00                 string size (0)
                         source name: (none)
2F80  03                 line defined (478)
2F81  E8                 last line defined (488)
2F82  03                 nups (3)
2F83  03                 numparams (1)
2F84  01                 is_vararg (0)
2F85  00                 maxstacksize (3)
                         * code:
2F87  10                 sizecode (16)
2F88  4E004000           [01] gettable   1   0   256  ; "IsFishElement"
2F8C  58000000           [02] test       1       0    ; to [4] if true
2F90  1AC00280           [03] jmp        12           ; to [16]
2F94  53000000           [04] getupval   1   0      
2F98  0C408080           [05] settable   0   257 1    ; "CameraTag"
2F9C  4E804000           [06] gettable   1   0   258  ; "IsTankToggle"
2FA0  58400000           [07] test       1       1    ; to [9] if false
2FA4  1A800180           [08] jmp        7            ; to [16]
2FA8  53008000           [09] getupval   1   1      
2FAC  0C408081           [10] settable   0   259 1    ; "Enabled"
2FB0  53000001           [11] getupval   1   2      
2FB4  4E00C100           [12] gettable   1   1   260  ; "CustomizationList"
2FB8  4E40C100           [13] gettable   1   1   261  ; -1552746934
2FBC  92000000           [14] move       2   0      
2FC0  62400001           [15] call       1   2   1  
2FC4  1E008000           [16] return     0   1      
                         * constants:
2FC8  06                 sizek (6)
2FC9  04                 const type 4
2FCA  0E                 string size (14)
2FCB  497346697368456C+  "IsFishEl"
2FD3  656D656E7400       "ement\0"
                         const [0]: "IsFishElement"
2FD9  04                 const type 4
2FDA  0A                 string size (10)
2FDB  43616D6572615461+  "CameraTa"
2FE3  6700               "g\0"
                         const [1]: "CameraTag"
2FE5  04                 const type 4
2FE6  0D                 string size (13)
2FE7  497354616E6B546F+  "IsTankTo"
2FEF  67676C6500         "ggle\0"
                         const [2]: "IsTankToggle"
2FF4  04                 const type 4
2FF5  08                 string size (8)
2FF6  456E61626C656400   "Enabled\0"
                         const [3]: "Enabled"
2FFE  04                 const type 4
2FFF  12                 string size (18)
3000  437573746F6D697A+  "Customiz"
3008  6174696F6E4C6973+  "ationLis"
3010  7400               "t\0"
                         const [4]: "CustomizationList"
3012  01                 const type 3
3013  4AF672A3           const [5]: (-1552746934)
                         * functions:
3017  00                 sizep (0)
                         * lines:
3018  10                 sizelineinfo (16)
                         [pc] (line)
3019  DF                 [01] (-33)
301A  01                 [02] (-33)
301B  00                 [03] (-33)
301C  00                 [04] (-32)
301D  DF                 [05] (-32)
301E  01                 [06] (-30)
301F  00                 [07] (-30)
3020  00                 [08] (-30)
3021  DF                 [09] (-29)
3022  01                 [10] (-29)
3023  00                 [11] (-27)
3024  00                 [12] (-27)
3025  E0                 [13] (-27)
3026  01                 [14] (-27)
3027  00                 [15] (-27)
3028  00                 [16] (-24)
                         * locals:
3059  00                 sizelocvars (0)
                         * upvalues:
305A  00                 sizeupvalues (0)
                         ** end of function **

                         * lines:
305B  15                 sizelineinfo (21)
                         [pc] (line)
305C  D8                 [01] (-40)
305D  01                 [02] (-40)
305E  00                 [03] (-40)
305F  00                 [04] (-37)
3060  D8                 [05] (-37)
3061  01                 [06] (-36)
3062  00                 [07] (-36)
3063  00                 [08] (-35)
3064  D8                 [09] (-35)
3065  01                 [10] (-35)
3066  00                 [11] (-24)
3067  00                 [12] (-24)
3068  DB                 [13] (-24)
3069  01                 [14] (-24)
306A  00                 [15] (-35)
306B  00                 [16] (-21)
306C  DB                 [17] (-21)
306D  01                 [18] (-21)
306E  00                 [19] (-19)
306F  00                 [20] (-19)
3070  DC                 [21] (-18)
                         * locals:
30B0  00                 sizelocvars (0)
                         * upvalues:
30B1  00                 sizeupvalues (0)
                         ** end of function **

                         
30B2                     ** function [22] definition (level 2)
                         ** start of function **
30B2  00                 string size (0)
                         source name: (none)
30B4  03                 line defined (496)
30B5  F9                 last line defined (633)
30B6  04                 nups (11)
30B7  0B                 numparams (1)
30B8  01                 is_vararg (0)
30B9  00                 maxstacksize (33)
                         * code:
30BC  01                 sizecode (216)
30BD  4B000000           [001] newtable   1   0   0    ; array=0, hash=0
30C1  99000000           [002] loadk      2   0        ; 0
30C5  D9000000           [003] loadk      3   0        ; 0
30C9  19410000           [004] loadk      4   1        ; 0
30CD  59810000           [005] loadk      5   2        ; ""
30D1  18000000           [006] test       0       0    ; to [8] if true
30D5  1A401B80           [007] jmp        110          ; to [118]
30D9  93010000           [008] getupval   6   0      
30DD  DDC10000           [009] getglobal  7   3        ; gFishItemType
30E1  17020000           [010] loadbool   8   0   0    ; false
30E5  57028000           [011] loadbool   9   1   0    ; true
30E9  97028000           [012] loadbool   10  1   0    ; true
30ED  A2818002           [013] call       6   5   2  
30F1  52000003           [014] move       1   6      
30F5  93018000           [015] getupval   6   1      
30F9  A2818000           [016] call       6   1   2  
30FD  D9010100           [017] loadk      7   4        ; 0
3101  0A020003           [018] len        8   6      
3105  59020100           [019] loadk      9   4        ; 0
3109  D0010D80           [020] forprep    7   53       ; to [74]
310D  CE820203           [021] gettable   11  6   10 
3111  17030000           [022] loadbool   12  0   0    ; false
3115  59030100           [023] loadk      13  4        ; 0
3119  8A038000           [024] len        14  1      
311D  D9030100           [025] loadk      15  4        ; 0
3121  50430580           [026] forprep    13  22       ; to [49]
3125  4E048400           [027] gettable   17  1   16 
3129  4E44C108           [028] gettable   17  17  261  ; "StoreItem"
312D  8E44C105           [029] gettable   18  11  261  ; "StoreItem"
fail op	35
3131  23808408           [030] close      0  
3135  1A000480           [031] jmp        17           ; to [49]
3139  4E048400           [032] gettable   17  1   16 
313D  8E048400           [033] gettable   18  1   16 
3141  8E844109           [034] gettable   18  18  262  ; "Count"
3145  CE84C105           [035] gettable   19  11  262  ; "Count"
3149  83C40409           [036] add        18  18  19 
314D  4C840483           [037] settable   17  262 18   ; "Count"
3151  4E048400           [038] gettable   17  1   16 
3155  4E84C108           [039] gettable   17  17  262  ; "Count"
fail op	33
3159  2100C008           [040] tforloop   0       256  ; to [42] if exit
315D  1A000180           [041] jmp        5            ; to [47]
3161  5DC40100           [042] getglobal  17  7        ; table
3165  4E04C208           [043] gettable   17  17  264  ; -843973282
3169  92048000           [044] move       18  1      
316D  D2040008           [045] move       19  16     
3171  62448001           [046] call       17  3   1  
3175  17038000           [047] loadbool   12  1   0    ; true
3179  1A000080           [048] jmp        1            ; to [50]
317D  5403FA7F           [049] forloop    13  -23      ; to [27] if loop
3181  53040001           [050] getupval   17  2      
3185  4E44C208           [051] gettable   17  17  265  ; 715365706
3189  8E44C105           [052] gettable   18  11  261  ; "StoreItem"
318D  DD840200           [053] getglobal  19  10       ; fishInfoManifest
3191  62848001           [054] call       17  3   2  
3195  9DC40200           [055] getglobal  18  11       ; 1074689893
3199  D2048008           [056] move       19  17     
319D  A2840001           [057] call       18  2   2  
31A1  98440000           [058] test       18      1    ; to [60] if false
31A5  1A400380           [059] jmp        14           ; to [74]
31A9  18430000           [060] test       12      1    ; to [62] if false
31AD  1AC00280           [061] jmp        12           ; to [74]
31B1  8E84C105           [062] gettable   18  11  262  ; "Count"
fail op	21
31B5  15800480           [063] concat     0   256 18 
31B9  1A000280           [064] jmp        9            ; to [74]
31BD  9DC40100           [065] getglobal  18  7        ; table
31C1  8E044309           [066] gettable   18  18  268  ; -431682403
31C5  D2048000           [067] move       19  1      
31C9  0B850000           [068] newtable   20  0   2    ; array=0, hash=2
31CD  4E45C105           [069] gettable   21  11  261  ; "StoreItem"
31D1  0C458582           [070] settable   20  261 21   ; "StoreItem"
31D5  4E85C105           [071] gettable   21  11  262  ; "Count"
31D9  0C450583           [072] settable   20  262 21   ; "Count"
31DD  A2448001           [073] call       18  3   1  
31E1  D441F27F           [074] forloop    7   -54      ; to [21] if loop
31E5  99040100           [075] loadk      18  4        ; 0
31E9  D3048001           [076] getupval   19  3      
31ED  19050100           [077] loadk      20  4        ; 0
31F1  90040780           [078] forprep    18  29       ; to [108]
31F5  93050002           [079] getupval   22  4      
31F9  D205800A           [080] move       23  21     
31FD  A2850001           [081] call       22  2   2  
3201  D3058002           [082] getupval   23  5      
3205  CE45C30B           [083] gettable   23  23  269  ; "Fishes"
3209  CE85850B           [084] gettable   23  23  22 
fail op	35
320D  2380C00B           [085] close      0  
3211  1A400080           [086] jmp        2            ; to [89]
3215  83004101           [087] add        2   2   260  ; 0
3219  1A800480           [088] jmp        19           ; to [108]
321D  D3058002           [089] getupval   23  5      
3221  CE45C30B           [090] gettable   23  23  269  ; "Fishes"
3225  CE85850B           [091] gettable   23  23  22 
3229  E485C30B           [092] self       23  23  270  ; 1643286702
322D  E2850001           [093] call       23  2   2  
3231  1DC60300           [094] getglobal  24  15       ; Lotus_Game
3235  0E06440C           [095] gettable   24  24  272  ; "SpearFishingFishInfo_SP_WEIGHT"
fail op	35
3239  2300860B           [096] close      0  
323D  1A400280           [097] jmp        10           ; to [108]
3241  D3058002           [098] getupval   23  5      
3245  CE45C30B           [099] gettable   23  23  269  ; "Fishes"
3249  CE85850B           [100] gettable   23  23  22 
324D  E445C40B           [101] self       23  23  273  ; 1608801400
3251  E2850001           [102] call       23  2   2  
3255  1DC60300           [103] getglobal  24  15       ; Lotus_Game
3259  0E86440C           [104] gettable   24  24  274  ; "FishItem_FPC_HIGH"
fail op	35
325D  2300860B           [105] close      0  
3261  1A000080           [106] jmp        1            ; to [108]
3265  C300C101           [107] add        3   3   260  ; 0
3269  9444F87F           [108] forloop    18  -30      ; to [79] if loop
326D  DDC50400           [109] getglobal  23  19       ; mMovie
3271  E405C50B           [110] self       23  23  276  ; 98241492
3275  59460500           [111] loadk      25  21       ; "/Lotus/Language/PersonalQuarters/SelectFishTitle"
3279  97060000           [112] loadbool   26  0   0    ; false
327D  CB460000           [113] newtable   27  0   1    ; array=0, hash=1
3281  CC86008B           [114] settable   27  278 2    ; "NUM"
3285  E2858002           [115] call       23  5   2  
3289  5201800B           [116] move       5   23     
328D  1A400780           [117] jmp        30           ; to [148]
3291  D9050100           [118] loadk      23  4        ; 0
3295  13068001           [119] getupval   24  3      
3299  59060100           [120] loadk      25  4        ; 0
329D  D0450480           [121] forprep    23  18       ; to [140]
32A1  D3060002           [122] getupval   27  4      
32A5  1207000D           [123] move       28  26     
32A9  E2860001           [124] call       27  2   2  
32AD  13078002           [125] getupval   28  5      
32B1  0E47430E           [126] gettable   28  28  269  ; "Fishes"
32B5  0EC7060E           [127] gettable   28  28  27 
fail op	35
32B9  6380400E           [128] close      1  
32BD  1A400280           [129] jmp        10           ; to [140]
32C1  1DC70100           [130] getglobal  28  7        ; table
32C5  0E07430E           [131] gettable   28  28  268  ; -431682403
32C9  52078000           [132] move       29  1      
32CD  8B870000           [133] newtable   30  0   2    ; array=0, hash=2
32D1  D3078002           [134] getupval   31  5      
32D5  CE47C30F           [135] gettable   31  31  269  ; "Fishes"
32D9  CEC7860F           [136] gettable   31  31  27 
32DD  8CC78782           [137] settable   30  261 31   ; "StoreItem"
32E1  8C074183           [138] settable   30  262 260  ; "Count" 0
32E5  22478001           [139] call       28  3   1  
32E9  D405FB7F           [140] forloop    23  -19      ; to [122] if loop
32ED  8A008000           [141] len        2   1      
32F1  1DC70400           [142] getglobal  28  19       ; mMovie
32F5  2407450E           [143] self       28  28  276  ; 98241492
32F9  99C70500           [144] loadk      30  23       ; "/Lotus/Language/PersonalQuarters/RemoveFish"
32FD  D7070000           [145] loadbool   31  0   0    ; false
3301  22870002           [146] call       28  4   2  
3305  5201000E           [147] move       5   28     
fail op	35
3309  23004001           [148] close      0  
330D  1A000380           [149] jmp        13           ; to [163]
3311  19070600           [150] loadk      28  24       ; "/Lotus/Language/PersonalQuarters/"
3315  53070003           [151] getupval   29  6      
3319  4E47C60E           [152] gettable   29  29  281  ; -132701534
331D  92070000           [153] move       30  0      
3321  D9870600           [154] loadk      31  26       ; "AddFishErrorNoSpace"
3325  19C80600           [155] loadk      32  27       ; "RemoveFishErrorNoFish"
3329  62870002           [156] call       29  4   2  
332D  0247070E           [157] concat     28  28  29 
3331  53070003           [158] getupval   29  6      
3335  4E07C70E           [159] gettable   29  29  284  ; 185724978
3339  9207000E           [160] move       30  28     
333D  62470001           [161] call       29  2   1  
3341  1E008000           [162] return     0   1      
3345  5DC70400           [163] getglobal  29  19       ; mMovie
3349  6447C70E           [164] self       29  29  285  ; 1609725115
334D  DD870700           [165] getglobal  31  30       ; _G
3351  CEC7C70F           [166] gettable   31  31  287  ; "UIMovie_ItemBrowsingMovie"
3355  62878001           [167] call       29  3   2  
fail op	8
3359  48078003           [168] setupval   29  7      
335D  53078003           [169] getupval   29  7      
3361  6407C80E           [170] self       29  29  288  ; 1167009705
3365  D9470800           [171] loadk      31  33       ; "SetVariableSelection"
3369  12080001           [172] move       32  2      
336D  62470002           [173] call       29  4   1  
3371  53078003           [174] getupval   29  7      
3375  6407C80E           [175] self       29  29  288  ; 1167009705
3379  D9870800           [176] loadk      31  34       ; "SetTitle"
337D  12088002           [177] move       32  5      
3381  62470002           [178] call       29  4   1  
3385  5DC70800           [179] getglobal  29  35       ; _T
3389  A5070000           [180] closure    30  0      
338D  12000000           [181] move       0   0      
3391  13008002           [182] getupval   0   5      
3395  13000001           [183] getupval   0   2      
3399  13000004           [184] getupval   0   8      
339D  13008004           [185] getupval   0   9      
33A1  13008001           [186] getupval   0   3      
33A5  13000002           [187] getupval   0   4      
33A9  13000005           [188] getupval   0   10     
33AD  4C870792           [189] settable   29  292 30   ; "FishSelected"
33B1  53078003           [190] getupval   29  7      
33B5  6407C80E           [191] self       29  29  288  ; 1167009705
33B9  D9470900           [192] loadk      31  37       ; "SetCallBack"
33BD  19080900           [193] loadk      32  36       ; "FishSelected"
33C1  62470002           [194] call       29  4   1  
33C5  5DC70800           [195] getglobal  29  35       ; _T
33C9  A5470000           [196] closure    30  1      
33CD  12008000           [197] move       0   1      
33D1  4C870793           [198] settable   29  294 30   ; "GetFish"
33D5  53078003           [199] getupval   29  7      
33D9  6407C80E           [200] self       29  29  288  ; 1167009705
33DD  D9C70900           [201] loadk      31  39       ; "SetElementsFunction"
33E1  19880900           [202] loadk      32  38       ; "GetFish"
33E5  62470002           [203] call       29  4   1  
33E9  5DC70800           [204] getglobal  29  35       ; _T
33ED  A5870000           [205] closure    30  2      
33F1  12000000           [206] move       0   0      
33F5  12008001           [207] move       0   3      
33F9  12000002           [208] move       0   4      
33FD  13000003           [209] getupval   0   6      
3401  4C870794           [210] settable   29  296 30   ; "ValidateFish"
3405  53078003           [211] getupval   29  7      
3409  6407C80E           [212] self       29  29  288  ; 1167009705
340D  D9470A00           [213] loadk      31  41       ; "SetValidationFunction"
3411  19080A00           [214] loadk      32  40       ; "ValidateFish"
3415  62470002           [215] call       29  4   1  
3419  1E008000           [216] return     0   1      
                         * constants:
341D  2A                 sizek (42)
341E  03                 const type 3
341F  00000000           const [0]: (0)
3423  03                 const type 3
3424  00000040           const [1]: (0)
3428  04                 const type 4
3429  01                 string size (0)
                         const [2]: ""
342B  04                 const type 4
342C  0E                 string size (14)
342D  6746697368497465+  "gFishIte"
3435  6D5479706500       "mType\0"
                         const [3]: "gFishItemType"
343B  03                 const type 3
343C  0000803F           const [4]: (0)
3440  04                 const type 4
3441  0A                 string size (10)
3442  53746F7265497465+  "StoreIte"
344A  6D00               "m\0"
                         const [5]: "StoreItem"
344C  04                 const type 4
344D  06                 string size (6)
344E  436F756E7400       "Count\0"
                         const [6]: "Count"
3454  04                 const type 4
3455  06                 string size (6)
3456  7461626C6500       "table\0"
                         const [7]: "table"
345C  01                 const type 3
345D  5EFDB1CD           const [8]: (-843973282)
3461  01                 const type 3
3462  4A9DA32A           const [9]: (715365706)
3466  04                 const type 4
3467  11                 string size (17)
3468  66697368496E666F+  "fishInfo"
3470  4D616E6966657374+  "Manifest"
3478  00                 "\0"
                         const [10]: "fishInfoManifest"
3479  01                 const type 3
347A  65770E40           const [11]: (1074689893)
347E  01                 const type 3
347F  9D0C45E6           const [12]: (-431682403)
3483  04                 const type 4
3484  07                 string size (7)
3485  46697368657300     "Fishes\0"
                         const [13]: "Fishes"
348C  01                 const type 3
348D  AE90F261           const [14]: (1643286702)
3491  04                 const type 4
3492  0B                 string size (11)
3493  4C6F7475735F4761+  "Lotus_Ga"
349B  6D6500             "me\0"
                         const [15]: "Lotus_Game"
349E  04                 const type 4
349F  1F                 string size (31)
34A0  5370656172466973+  "SpearFis"
34A8  68696E6746697368+  "hingFish"
34B0  496E666F5F53505F+  "Info_SP_"
34B8  57454947485400     "WEIGHT\0"
                         const [16]: "SpearFishingFishInfo_SP_WEIGHT"
34BF  01                 const type 3
34C0  785CE45F           const [17]: (1608801400)
34C4  04                 const type 4
34C5  12                 string size (18)
34C6  466973684974656D+  "FishItem"
34CE  5F4650435F484947+  "_FPC_HIG"
34D6  4800               "H\0"
                         const [18]: "FishItem_FPC_HIGH"
34D8  04                 const type 4
34D9  07                 string size (7)
34DA  6D4D6F76696500     "mMovie\0"
                         const [19]: "mMovie"
34E1  01                 const type 3
34E2  D40BDB05           const [20]: (98241492)
34E6  04                 const type 4
34E7  31                 string size (49)
34E8  2F4C6F7475732F4C+  "/Lotus/L"
34F0  616E67756167652F+  "anguage/"
34F8  506572736F6E616C+  "Personal"
3500  5175617274657273+  "Quarters"
3508  2F53656C65637446+  "/SelectF"
3510  6973685469746C65+  "ishTitle"
3518  00                 "\0"
                         const [21]: "/Lotus/Language/PersonalQuarters/SelectFishTitle"
3519  04                 const type 4
351A  04                 string size (4)
351B  4E554D00           "NUM\0"
                         const [22]: "NUM"
351F  04                 const type 4
3520  2C                 string size (44)
3521  2F4C6F7475732F4C+  "/Lotus/L"
3529  616E67756167652F+  "anguage/"
3531  506572736F6E616C+  "Personal"
3539  5175617274657273+  "Quarters"
3541  2F52656D6F766546+  "/RemoveF"
3549  69736800           "ish\0"
                         const [23]: "/Lotus/Language/PersonalQuarters/RemoveFish"
354D  04                 const type 4
354E  22                 string size (34)
354F  2F4C6F7475732F4C+  "/Lotus/L"
3557  616E67756167652F+  "anguage/"
355F  506572736F6E616C+  "Personal"
3567  5175617274657273+  "Quarters"
356F  2F00               "/\0"
                         const [24]: "/Lotus/Language/PersonalQuarters/"
3571  01                 const type 3
3572  A22217F8           const [25]: (-132701534)
3576  04                 const type 4
3577  14                 string size (20)
3578  4164644669736845+  "AddFishE"
3580  72726F724E6F5370+  "rrorNoSp"
3588  61636500           "ace\0"
                         const [26]: "AddFishErrorNoSpace"
358C  04                 const type 4
358D  16                 string size (22)
358E  52656D6F76654669+  "RemoveFi"
3596  73684572726F724E+  "shErrorN"
359E  6F4669736800       "oFish\0"
                         const [27]: "RemoveFishErrorNoFish"
35A4  01                 const type 3
35A5  32F0110B           const [28]: (185724978)
35A9  01                 const type 3
35AA  BB74F25F           const [29]: (1609725115)
35AE  04                 const type 4
35AF  03                 string size (3)
35B0  5F4700             "_G\0"
                         const [30]: "_G"
35B3  04                 const type 4
35B4  1A                 string size (26)
35B5  55494D6F7669655F+  "UIMovie_"
35BD  4974656D42726F77+  "ItemBrow"
35C5  73696E674D6F7669+  "singMovi"
35CD  6500               "e\0"
                         const [31]: "UIMovie_ItemBrowsingMovie"
35CF  01                 const type 3
35D0  A9278F45           const [32]: (1167009705)
35D4  04                 const type 4
35D5  15                 string size (21)
35D6  5365745661726961+  "SetVaria"
35DE  626C6553656C6563+  "bleSelec"
35E6  74696F6E00         "tion\0"
                         const [33]: "SetVariableSelection"
35EB  04                 const type 4
35EC  09                 string size (9)
35ED  5365745469746C65+  "SetTitle"
35F5  00                 "\0"
                         const [34]: "SetTitle"
35F6  04                 const type 4
35F7  03                 string size (3)
35F8  5F5400             "_T\0"
                         const [35]: "_T"
35FB  04                 const type 4
35FC  0D                 string size (13)
35FD  4669736853656C65+  "FishSele"
3605  6374656400         "cted\0"
                         const [36]: "FishSelected"
360A  04                 const type 4
360B  0C                 string size (12)
360C  53657443616C6C42+  "SetCallB"
3614  61636B00           "ack\0"
                         const [37]: "SetCallBack"
3618  04                 const type 4
3619  08                 string size (8)
361A  4765744669736800   "GetFish\0"
                         const [38]: "GetFish"
3622  04                 const type 4
3623  14                 string size (20)
3624  536574456C656D65+  "SetEleme"
362C  6E747346756E6374+  "ntsFunct"
3634  696F6E00           "ion\0"
                         const [39]: "SetElementsFunction"
3638  04                 const type 4
3639  0D                 string size (13)
363A  56616C6964617465+  "Validate"
3642  4669736800         "Fish\0"
                         const [40]: "ValidateFish"
3647  04                 const type 4
3648  16                 string size (22)
3649  53657456616C6964+  "SetValid"
3651  6174696F6E46756E+  "ationFun"
3659  6374696F6E00       "ction\0"
                         const [41]: "SetValidationFunction"
                         * functions:
365F  03                 sizep (3)
                         
3660                     ** function [0] definition (level 3)
                         ** start of function **
3660  00                 string size (0)
                         source name: (none)
3662  04                 line defined (559)
3663  DD                 last line defined (605)
3664  04                 nups (8)
3665  08                 numparams (1)
3666  01                 is_vararg (0)
3667  00                 maxstacksize (22)
                         * code:
3669  6B                 sizecode (107)
366A  5D000000           [001] getglobal  1   0        ; _T
366E  4C80C080           [002] settable   1   257 258  ; "FishSelected" nil
3672  5D000000           [003] getglobal  1   0        ; _T
3676  4C80C081           [004] settable   1   259 258  ; "GetFish" nil
367A  5D000000           [005] getglobal  1   0        ; _T
367E  4C804082           [006] settable   1   260 258  ; "ValidateFish" nil
3682  5D400100           [007] getglobal  1   5        ; 1074689893
3686  92000000           [008] move       2   0      
368A  62800001           [009] call       1   2   2  
368E  58400000           [010] test       1       1    ; to [12] if false
3692  1A801780           [011] jmp        95           ; to [107]
3696  53000000           [012] getupval   1   0      
369A  58000000           [013] test       1       0    ; to [15] if true
369E  1AC00E80           [014] jmp        60           ; to [75]
36A2  4B000000           [015] newtable   1   0   0    ; array=0, hash=0
36A6  93008000           [016] getupval   2   1      
36AA  CB000000           [017] newtable   3   0   0    ; array=0, hash=0
36AE  8CC00083           [018] settable   2   262 3    ; "CurrFish"
36B2  93008000           [019] getupval   2   1      
36B6  CB000000           [020] newtable   3   0   0    ; array=0, hash=0
36BA  8CC08083           [021] settable   2   263 3    ; "CurrStoreItems"
36BE  99000200           [022] loadk      2   8        ; 0
36C2  CA000000           [023] len        3   0      
36C6  19010200           [024] loadk      4   8        ; 0
36CA  90400780           [025] forprep    2   30       ; to [56]
36CE  8E410100           [026] gettable   6   0   5  
36D2  8E414203           [027] gettable   6   6   265  ; "StoreItem"
36D6  D3010001           [028] getupval   7   2      
36DA  CE81C203           [029] gettable   7   7   266  ; 715365706
36DE  12020003           [030] move       8   6      
36E2  5DC20200           [031] getglobal  9   11       ; fishInfoManifest
36E6  E2818001           [032] call       7   3   2  
36EA  1D420100           [033] getglobal  8   5        ; 1074689893
36EE  52028003           [034] move       9   7      
36F2  22820001           [035] call       8   2   2  
36F6  18420000           [036] test       8       1    ; to [38] if false
36FA  1A400480           [037] jmp        18           ; to [56]
36FE  1D020300           [038] getglobal  8   12       ; table
3702  0E424304           [039] gettable   8   8   269  ; -431682403
3706  52028000           [040] move       9   1      
370A  A482C303           [041] self       10  7   270  ; 455421500
370E  A2020001           [042] call       10  2   0  
3712  22420000           [043] call       8   0   1  
3716  1D020300           [044] getglobal  8   12       ; table
371A  0E424304           [045] gettable   8   8   269  ; -431682403
371E  53028000           [046] getupval   9   1      
3722  4E82C104           [047] gettable   9   9   262  ; "CurrFish"
3726  92028003           [048] move       10  7      
372A  22428001           [049] call       8   3   1  
372E  1D020300           [050] getglobal  8   12       ; table
3732  0E424304           [051] gettable   8   8   269  ; -431682403
3736  53028000           [052] getupval   9   1      
373A  4EC2C104           [053] gettable   9   9   263  ; "CurrStoreItems"
373E  92020003           [054] move       10  6      
3742  22428001           [055] call       8   3   1  
3746  9400F87F           [056] forloop    2   -31      ; to [26] if loop
374A  0A028000           [057] len        8   1      
fail op	21
374E  15008287           [058] concat     0   271 8  
3752  1A800B80           [059] jmp        47           ; to [107]
3756  13028000           [060] getupval   8   1      
375A  5D420400           [061] getglobal  9   17       ; UISys
375E  4E82C404           [062] gettable   9   9   274  ; 1151030240
3762  92028000           [063] move       10  1      
3766  62820001           [064] call       9   2   2  
376A  0C420288           [065] settable   8   272 9    ; "Loader"
376E  13028000           [066] getupval   8   1      
3772  0C02C589           [067] settable   8   275 276  ; "IsLoading" 1
3776  17028000           [068] loadbool   8   1   0    ; true
fail op	8
377A  08028001           [069] setupval   8   3      
377E  13020002           [070] getupval   8   4      
3782  24424504           [071] self       8   8   277  ; -492641364
3786  97028000           [072] loadbool   10  1   0    ; true
378A  22428001           [073] call       8   3   1  
378E  1AC00780           [074] jmp        32           ; to [107]
3792  19020200           [075] loadk      8   8        ; 0
3796  4A020000           [076] len        9   0      
379A  99020200           [077] loadk      10  8        ; 0
379E  10820680           [078] forprep    8   27       ; to [106]
37A2  0EC30200           [079] gettable   12  0   11 
37A6  0E434206           [080] gettable   12  12  265  ; "StoreItem"
37AA  59030200           [081] loadk      13  8        ; 0
37AE  99030200           [082] loadk      14  8        ; 0
37B2  D9030200           [083] loadk      15  8        ; 0
37B6  13048002           [084] getupval   16  5      
37BA  59040200           [085] loadk      17  8        ; 0
37BE  D0830280           [086] forprep    15  11       ; to [98]
37C2  D3040003           [087] getupval   19  6      
37C6  12050009           [088] move       20  18     
37CA  E2840001           [089] call       19  2   2  
37CE  92038009           [090] move       14  19     
37D2  D3048000           [091] getupval   19  1      
37D6  CE84C509           [092] gettable   19  19  278  ; "Fishes"
37DA  CE848309           [093] gettable   19  19  14 
fail op	35
37DE  23008309           [094] close      0  
37E2  1A400080           [095] jmp        2            ; to [98]
37E6  52030009           [096] move       13  18     
37EA  1A000080           [097] jmp        1            ; to [99]
37EE  D4C3FC7F           [098] forloop    15  -12      ; to [87] if loop
37F2  D3048003           [099] getupval   19  7      
37F6  0605000A           [100] loadnil    20  20     
37FA  52058006           [101] move       21  13     
37FE  E2448001           [102] call       19  3   1  
3802  D3048000           [103] getupval   19  1      
3806  CE84C509           [104] gettable   19  19  278  ; "Fishes"
380A  CCC44507           [105] settable   19  14  279  ; ""
380E  14C2F87F           [106] forloop    8   -28      ; to [79] if loop
3812  1E008000           [107] return     0   1      
                         * constants:
3816  18                 sizek (24)
3817  04                 const type 4
3818  03                 string size (3)
3819  5F5400             "_T\0"
                         const [0]: "_T"
381C  04                 const type 4
381D  0D                 string size (13)
381E  4669736853656C65+  "FishSele"
3826  6374656400         "cted\0"
                         const [1]: "FishSelected"
382B  00                 const type 0
                         const [2]: nil
382C  04                 const type 4
382D  08                 string size (8)
382E  4765744669736800   "GetFish\0"
                         const [3]: "GetFish"
3836  04                 const type 4
3837  0D                 string size (13)
3838  56616C6964617465+  "Validate"
3840  4669736800         "Fish\0"
                         const [4]: "ValidateFish"
3845  01                 const type 3
3846  65770E40           const [5]: (1074689893)
384A  04                 const type 4
384B  09                 string size (9)
384C  4375727246697368+  "CurrFish"
3854  00                 "\0"
                         const [6]: "CurrFish"
3855  04                 const type 4
3856  0F                 string size (15)
3857  4375727253746F72+  "CurrStor"
385F  654974656D7300     "eItems\0"
                         const [7]: "CurrStoreItems"
3866  03                 const type 3
3867  0000803F           const [8]: (0)
386B  04                 const type 4
386C  0A                 string size (10)
386D  53746F7265497465+  "StoreIte"
3875  6D00               "m\0"
                         const [9]: "StoreItem"
3877  01                 const type 3
3878  4A9DA32A           const [10]: (715365706)
387C  04                 const type 4
387D  11                 string size (17)
387E  66697368496E666F+  "fishInfo"
3886  4D616E6966657374+  "Manifest"
388E  00                 "\0"
                         const [11]: "fishInfoManifest"
388F  04                 const type 4
3890  06                 string size (6)
3891  7461626C6500       "table\0"
                         const [12]: "table"
3897  01                 const type 3
3898  9D0C45E6           const [13]: (-431682403)
389C  01                 const type 3
389D  3C2E251B           const [14]: (455421500)
38A1  03                 const type 3
38A2  00000000           const [15]: (0)
38A6  04                 const type 4
38A7  07                 string size (7)
38A8  4C6F6164657200     "Loader\0"
                         const [16]: "Loader"
38AF  04                 const type 4
38B0  06                 string size (6)
38B1  554953797300       "UISys\0"
                         const [17]: "UISys"
38B7  01                 const type 3
38B8  E0539B44           const [18]: (1151030240)
38BC  04                 const type 4
38BD  0A                 string size (10)
38BE  49734C6F6164696E+  "IsLoadin"
38C6  6700               "g\0"
                         const [19]: "IsLoading"
38C8  01                 const type 3
38C9  01000000           const [20]: (1)
38CD  01                 const type 3
38CE  ACE3A2E2           const [21]: (-492641364)
38D2  04                 const type 4
38D3  07                 string size (7)
38D4  46697368657300     "Fishes\0"
                         const [22]: "Fishes"
38DB  04                 const type 4
38DC  01                 string size (0)
                         const [23]: ""
                         * functions:
38DE  00                 sizep (0)
                         * lines:
38DF  6B                 sizelineinfo (107)
                         [pc] (line)
38E0  30                 [001] (48)
38E1  02                 [002] (48)
38E2  00                 [003] (49)
38E3  00                 [004] (49)
38E4  30                 [005] (50)
38E5  02                 [006] (50)
38E6  00                 [007] (52)
38E7  00                 [008] (52)
38E8  31                 [009] (52)
38E9  02                 [010] (52)
38EA  00                 [011] (52)
38EB  00                 [012] (53)
38EC  31                 [013] (53)
38ED  02                 [014] (53)
38EE  00                 [015] (54)
38EF  00                 [016] (55)
38F0  32                 [017] (55)
38F1  02                 [018] (55)
38F2  00                 [019] (56)
38F3  00                 [020] (56)
38F4  32                 [021] (56)
38F5  02                 [022] (57)
38F6  00                 [023] (57)
38F7  00                 [024] (57)
38F8  34                 [025] (57)
38F9  02                 [026] (58)
38FA  00                 [027] (58)
38FB  00                 [028] (59)
38FC  34                 [029] (59)
38FD  02                 [030] (59)
38FE  00                 [031] (59)
38FF  00                 [032] (59)
3900  34                 [033] (60)
3901  02                 [034] (60)
3902  00                 [035] (60)
3903  00                 [036] (60)
3904  34                 [037] (60)
3905  02                 [038] (61)
3906  00                 [039] (61)
3907  00                 [040] (61)
3908  34                 [041] (61)
3909  02                 [042] (61)
390A  00                 [043] (61)
390B  00                 [044] (62)
390C  35                 [045] (62)
390D  02                 [046] (62)
390E  00                 [047] (62)
390F  00                 [048] (62)
3910  35                 [049] (62)
3911  02                 [050] (63)
3912  00                 [051] (63)
3913  00                 [052] (63)
3914  35                 [053] (63)
3915  02                 [054] (63)
3916  00                 [055] (63)
3917  00                 [056] (57)
3918  36                 [057] (67)
3919  02                 [058] (67)
391A  00                 [059] (67)
391B  00                 [060] (68)
391C  37                 [061] (68)
391D  02                 [062] (68)
391E  00                 [063] (68)
391F  00                 [064] (68)
3920  37                 [065] (68)
3921  02                 [066] (69)
3922  00                 [067] (69)
3923  00                 [068] (71)
3924  37                 [069] (71)
3925  02                 [070] (72)
3926  00                 [071] (72)
3927  00                 [072] (72)
3928  38                 [073] (72)
3929  02                 [074] (73)
392A  00                 [075] (75)
392B  00                 [076] (75)
392C  38                 [077] (75)
392D  02                 [078] (75)
392E  00                 [079] (76)
392F  00                 [080] (76)
3930  38                 [081] (77)
3931  02                 [082] (78)
3932  00                 [083] (79)
3933  00                 [084] (79)
3934  39                 [085] (79)
3935  02                 [086] (79)
3936  00                 [087] (80)
3937  00                 [088] (80)
3938  39                 [089] (80)
3939  02                 [090] (80)
393A  00                 [091] (81)
393B  00                 [092] (81)
393C  39                 [093] (81)
393D  02                 [094] (81)
393E  00                 [095] (81)
393F  00                 [096] (82)
3940  39                 [097] (84)
3941  02                 [098] (79)
3942  00                 [099] (88)
3943  00                 [100] (88)
3944  3A                 [101] (88)
3945  02                 [102] (88)
3946  00                 [103] (89)
3947  00                 [104] (89)
3948  3A                 [105] (89)
3949  02                 [106] (75)
394A  00                 [107] (93)
                         * locals:
3A8C  00                 sizelocvars (0)
                         * upvalues:
3A8D  00                 sizeupvalues (0)
                         ** end of function **

                         
3A8E                     ** function [1] definition (level 3)
                         ** start of function **
3A8E  00                 string size (0)
                         source name: (none)
3A90  04                 line defined (609)
3A91  E3                 last line defined (611)
3A92  04                 nups (1)
3A93  01                 numparams (0)
3A94  00                 is_vararg (0)
3A95  00                 maxstacksize (2)
                         * code:
3A97  03                 sizecode (3)
3A98  13000000           [1] getupval   0   0      
3A9C  1E000001           [2] return     0   2      
3AA0  1E008000           [3] return     0   1      
                         * constants:
3AA4  00                 sizek (0)
                         * functions:
3AA5  00                 sizep (0)
                         * lines:
3AA6  03                 sizelineinfo (3)
                         [pc] (line)
3AA7  62                 [1] (98)
3AA8  02                 [2] (98)
3AA9  00                 [3] (99)
                         * locals:
3AB3  00                 sizelocvars (0)
                         * upvalues:
3AB4  00                 sizeupvalues (0)
                         ** end of function **

                         
3AB5                     ** function [2] definition (level 3)
                         ** start of function **
3AB5  00                 string size (0)
                         source name: (none)
3AB7  04                 line defined (615)
3AB8  F7                 last line defined (631)
3AB9  04                 nups (4)
3ABA  04                 numparams (1)
3ABB  01                 is_vararg (0)
3ABC  00                 maxstacksize (15)
                         * code:
3ABE  2D                 sizecode (45)
3ABF  53000000           [01] getupval   1   0      
3AC3  58000000           [02] test       1       0    ; to [4] if true
3AC7  1A800980           [03] jmp        39           ; to [43]
3ACB  59000000           [04] loadk      1   0        ; 0
3ACF  99400000           [05] loadk      2   1        ; 0
3AD3  CA000000           [06] len        3   0      
3AD7  19410000           [07] loadk      4   1        ; 0
3ADB  90800380           [08] forprep    2   15       ; to [24]
3ADF  8E410100           [09] gettable   6   0   5  
3AE3  8E814003           [10] gettable   6   6   258  ; "StoreItem"
3AE7  E4C14003           [11] self       7   6   259  ; 1643286702
3AEB  E2810001           [12] call       7   2   2  
3AEF  1D020100           [13] getglobal  8   4        ; Lotus_Game
3AF3  0E424104           [14] gettable   8   8   261  ; "SpearFishingFishInfo_SP_WEIGHT"
fail op	35
3AF7  23008203           [15] close      0  
3AFB  1A800180           [16] jmp        7            ; to [24]
3AFF  E4814103           [17] self       7   6   262  ; 1608801400
3B03  E2810001           [18] call       7   2   2  
3B07  1D020100           [19] getglobal  8   4        ; Lotus_Game
3B0B  0EC24104           [20] gettable   8   8   263  ; "FishItem_FPC_HIGH"
fail op	35
3B0F  23008203           [21] close      0  
3B13  1A000080           [22] jmp        1            ; to [24]
3B17  4340C000           [23] add        1   1   257  ; 0
3B1B  94C0FB7F           [24] forloop    2   -16      ; to [9] if loop
3B1F  D3018000           [25] getupval   7   1      
3B23  C3C18100           [26] add        7   1   7  
3B27  13020001           [27] getupval   8   2      
fail op	21
3B2B  15C00104           [28] concat     0   8   7  
3B2F  1A000380           [29] jmp        13           ; to [43]
3B33  D7010000           [30] loadbool   7   0   0    ; false
3B37  1D020200           [31] getglobal  8   8        ; mMovie
3B3B  24424204           [32] self       8   8   265  ; 98241492
3B3F  99820200           [33] loadk      10  10       ; "/Lotus/Language/PersonalQuarters/FishTankLargeWarning"
3B43  D7020000           [34] loadbool   11  0   0    ; false
3B47  0B430000           [35] newtable   12  0   1    ; array=0, hash=1
3B4B  53038001           [36] getupval   13  3      
3B4F  4E03C306           [37] gettable   13  13  268  ; 2115597333
3B53  93030001           [38] getupval   14  2      
3B57  62830001           [39] call       13  2   2  
3B5B  0C438385           [40] settable   12  267 13   ; "NUM"
3B5F  22028002           [41] call       8   5   0  
3B63  DE010000           [42] return     7   0      
3B67  D7018000           [43] loadbool   7   1   0    ; true
3B6B  DE010001           [44] return     7   2      
3B6F  1E008000           [45] return     0   1      
                         * constants:
3B73  0D                 sizek (13)
3B74  03                 const type 3
3B75  00000000           const [0]: (0)
3B79  03                 const type 3
3B7A  0000803F           const [1]: (0)
3B7E  04                 const type 4
3B7F  0A                 string size (10)
3B80  53746F7265497465+  "StoreIte"
3B88  6D00               "m\0"
                         const [2]: "StoreItem"
3B8A  01                 const type 3
3B8B  AE90F261           const [3]: (1643286702)
3B8F  04                 const type 4
3B90  0B                 string size (11)
3B91  4C6F7475735F4761+  "Lotus_Ga"
3B99  6D6500             "me\0"
                         const [4]: "Lotus_Game"
3B9C  04                 const type 4
3B9D  1F                 string size (31)
3B9E  5370656172466973+  "SpearFis"
3BA6  68696E6746697368+  "hingFish"
3BAE  496E666F5F53505F+  "Info_SP_"
3BB6  57454947485400     "WEIGHT\0"
                         const [5]: "SpearFishingFishInfo_SP_WEIGHT"
3BBD  01                 const type 3
3BBE  785CE45F           const [6]: (1608801400)
3BC2  04                 const type 4
3BC3  12                 string size (18)
3BC4  466973684974656D+  "FishItem"
3BCC  5F4650435F484947+  "_FPC_HIG"
3BD4  4800               "H\0"
                         const [7]: "FishItem_FPC_HIGH"
3BD6  04                 const type 4
3BD7  07                 string size (7)
3BD8  6D4D6F76696500     "mMovie\0"
                         const [8]: "mMovie"
3BDF  01                 const type 3
3BE0  D40BDB05           const [9]: (98241492)
3BE4  04                 const type 4
3BE5  36                 string size (54)
3BE6  2F4C6F7475732F4C+  "/Lotus/L"
3BEE  616E67756167652F+  "anguage/"
3BF6  506572736F6E616C+  "Personal"
3BFE  5175617274657273+  "Quarters"
3C06  2F4669736854616E+  "/FishTan"
3C0E  6B4C617267655761+  "kLargeWa"
3C16  726E696E6700       "rning\0"
                         const [10]: "/Lotus/Language/PersonalQuarters/FishTankLargeWarning"
3C1C  04                 const type 4
3C1D  04                 string size (4)
3C1E  4E554D00           "NUM\0"
                         const [11]: "NUM"
3C22  01                 const type 3
3C23  1574197E           const [12]: (2115597333)
                         * functions:
3C27  00                 sizep (0)
                         * lines:
3C28  2D                 sizelineinfo (45)
                         [pc] (line)
3C29  68                 [01] (104)
3C2A  02                 [02] (104)
3C2B  00                 [03] (104)
3C2C  00                 [04] (105)
3C2D  68                 [05] (106)
3C2E  02                 [06] (106)
3C2F  00                 [07] (106)
3C30  00                 [08] (106)
3C31  68                 [09] (107)
3C32  02                 [10] (107)
3C33  00                 [11] (108)
3C34  00                 [12] (108)
3C35  69                 [13] (108)
3C36  02                 [14] (108)
3C37  00                 [15] (108)
3C38  00                 [16] (108)
3C39  6A                 [17] (108)
3C3A  02                 [18] (108)
3C3B  00                 [19] (108)
3C3C  00                 [20] (108)
3C3D  6A                 [21] (108)
3C3E  02                 [22] (108)
3C3F  00                 [23] (109)
3C40  00                 [24] (106)
3C41  6A                 [25] (113)
3C42  02                 [26] (113)
3C43  00                 [27] (113)
3C44  00                 [28] (113)
3C45  6A                 [29] (113)
3C46  02                 [30] (114)
3C47  00                 [31] (114)
3C48  00                 [32] (114)
3C49  6B                 [33] (114)
3C4A  02                 [34] (114)
3C4B  00                 [35] (114)
3C4C  00                 [36] (114)
3C4D  6B                 [37] (114)
3C4E  02                 [38] (114)
3C4F  00                 [39] (114)
3C50  00                 [40] (114)
3C51  6C                 [41] (114)
3C52  02                 [42] (114)
3C53  00                 [43] (118)
3C54  00                 [44] (118)
3C55  6C                 [45] (119)
                         * locals:
3CDD  00                 sizelocvars (0)
                         * upvalues:
3CDE  00                 sizeupvalues (0)
                         ** end of function **

                         * lines:
3CE0  01                 sizelineinfo (216)
                         [pc] (line)
3CE1  F1                 [001] (-15)
3CE2  01                 [002] (-14)
3CE3  00                 [003] (-13)
3CE4  00                 [004] (-12)
3CE5  F2                 [005] (-11)
3CE6  01                 [006] (-10)
3CE7  00                 [007] (-10)
3CE8  00                 [008] (-9)
3CE9  F3                 [009] (-9)
3CEA  01                 [010] (-9)
3CEB  00                 [011] (-9)
3CEC  00                 [012] (-9)
3CED  F4                 [013] (-9)
3CEE  01                 [014] (-9)
3CEF  00                 [015] (-8)
3CF0  00                 [016] (-8)
3CF1  F5                 [017] (-7)
3CF2  01                 [018] (-7)
3CF3  00                 [019] (-7)
3CF4  00                 [020] (-7)
3CF5  F6                 [021] (-6)
3CF6  01                 [022] (-5)
3CF7  00                 [023] (-4)
3CF8  00                 [024] (-4)
3CF9  F6                 [025] (-4)
3CFA  01                 [026] (-4)
3CFB  00                 [027] (-3)
3CFC  00                 [028] (-3)
3CFD  F7                 [029] (-3)
3CFE  01                 [030] (-3)
3CFF  00                 [031] (-3)
3D00  00                 [032] (-2)
3D01  F7                 [033] (-2)
3D02  01                 [034] (-2)
3D03  00                 [035] (-2)
3D04  00                 [036] (-2)
3D05  F7                 [037] (-2)
3D06  01                 [038] (-1)
3D07  00                 [039] (-1)
3D08  00                 [040] (-1)
3D09  F7                 [041] (-1)
3D0A  01                 [042] (0)
3D0B  00                 [043] (0)
3D0C  00                 [044] (0)
3D0D  F7                 [045] (0)
3D0E  01                 [046] (0)
3D0F  00                 [047] (3)
3D10  00                 [048] (4)
3D11  F7                 [049] (-4)
3D12  01                 [050] (8)
3D13  00                 [051] (8)
3D14  00                 [052] (8)
3D15  F7                 [053] (8)
3D16  01                 [054] (8)
3D17  00                 [055] (9)
3D18  00                 [056] (9)
3D19  F8                 [057] (9)
3D1A  01                 [058] (9)
3D1B  00                 [059] (9)
3D1C  00                 [060] (9)
3D1D  F8                 [061] (9)
3D1E  01                 [062] (9)
3D1F  00                 [063] (9)
3D20  00                 [064] (9)
3D21  F9                 [065] (10)
3D22  01                 [066] (10)
3D23  00                 [067] (10)
3D24  00                 [068] (10)
3D25  F9                 [069] (10)
3D26  01                 [070] (10)
3D27  00                 [071] (10)
3D28  00                 [072] (10)
3D29  F9                 [073] (10)
3D2A  01                 [074] (-7)
3D2B  00                 [075] (14)
3D2C  00                 [076] (14)
3D2D  F9                 [077] (14)
3D2E  01                 [078] (14)
3D2F  00                 [079] (15)
3D30  00                 [080] (15)
3D31  FA                 [081] (15)
3D32  01                 [082] (16)
3D33  00                 [083] (16)
3D34  00                 [084] (16)
3D35  FB                 [085] (16)
3D36  01                 [086] (16)
3D37  00                 [087] (17)
3D38  00                 [088] (17)
3D39  FC                 [089] (18)
3D3A  01                 [090] (18)
3D3B  00                 [091] (18)
3D3C  00                 [092] (18)
3D3D  FC                 [093] (18)
3D3E  01                 [094] (18)
3D3F  00                 [095] (18)
3D40  00                 [096] (18)
3D41  FC                 [097] (18)
3D42  01                 [098] (18)
3D43  00                 [099] (18)
3D44  00                 [100] (18)
3D45  FC                 [101] (18)
3D46  01                 [102] (18)
3D47  00                 [103] (18)
3D48  00                 [104] (18)
3D49  FD                 [105] (18)
3D4A  01                 [106] (18)
3D4B  00                 [107] (19)
3D4C  00                 [108] (14)
3D4D  FD                 [109] (22)
3D4E  01                 [110] (22)
3D4F  00                 [111] (22)
3D50  00                 [112] (22)
3D51  FD                 [113] (22)
3D52  01                 [114] (22)
3D53  00                 [115] (22)
3D54  00                 [116] (22)
3D55  FD                 [117] (22)
3D56  01                 [118] (24)
3D57  00                 [119] (24)
3D58  00                 [120] (24)
3D59  FD                 [121] (24)
3D5A  01                 [122] (25)
3D5B  00                 [123] (25)
3D5C  00                 [124] (25)
3D5D  FE                 [125] (26)
3D5E  01                 [126] (26)
3D5F  00                 [127] (26)
3D60  00                 [128] (26)
3D61  FE                 [129] (26)
3D62  01                 [130] (27)
3D63  00                 [131] (27)
3D64  00                 [132] (27)
3D65  FE                 [133] (27)
3D66  01                 [134] (27)
3D67  00                 [135] (27)
3D68  00                 [136] (27)
3D69  FE                 [137] (27)
3D6A  01                 [138] (27)
3D6B  00                 [139] (27)
3D6C  00                 [140] (24)
3D6D  FE                 [141] (31)
3D6E  01                 [142] (32)
3D6F  00                 [143] (32)
3D70  00                 [144] (32)
3D71  FE                 [145] (32)
3D72  01                 [146] (32)
3D73  00                 [147] (32)
3D74  00                 [148] (35)
3D75  FF                 [149] (35)
3D76  01                 [150] (36)
3D77  00                 [151] (36)
3D78  00                 [152] (36)
3D79  FF                 [153] (36)
3D7A  01                 [154] (36)
3D7B  00                 [155] (36)
3D7C  00                 [156] (36)
3D7D  FF                 [157] (36)
3D7E  01                 [158] (37)
3D7F  00                 [159] (37)
3D80  00                 [160] (37)
3D81  FF                 [161] (37)
3D82  01                 [162] (39)
3D83  00                 [163] (42)
3D84  00                 [164] (42)
3D85  00                 [165] (42)
3D86  02                 [166] (42)
3D87  00                 [167] (42)
3D88  00                 [168] (42)
3D89  00                 [169] (43)
3D8A  02                 [170] (43)
3D8B  00                 [171] (43)
3D8C  00                 [172] (43)
3D8D  00                 [173] (43)
3D8E  02                 [174] (44)
3D8F  00                 [175] (44)
3D90  00                 [176] (44)
3D91  00                 [177] (44)
3D92  02                 [178] (44)
3D93  00                 [179] (46)
3D94  00                 [180] (93)
3D95  00                 [181] (93)
3D96  02                 [182] (93)
3D97  00                 [183] (93)
3D98  00                 [184] (93)
3D99  03                 [185] (93)
3D9A  02                 [186] (93)
3D9B  00                 [187] (93)
3D9C  00                 [188] (93)
3D9D  04                 [189] (93)
3D9E  02                 [190] (94)
3D9F  00                 [191] (94)
3DA0  00                 [192] (94)
3DA1  FC                 [193] (94)
3DA2  01                 [194] (94)
3DA3  00                 [195] (96)
3DA4  00                 [196] (99)
3DA5  08                 [197] (99)
3DA6  02                 [198] (99)
3DA7  00                 [199] (100)
3DA8  00                 [200] (100)
3DA9  08                 [201] (100)
3DAA  02                 [202] (100)
3DAB  00                 [203] (100)
3DAC  00                 [204] (102)
3DAD  08                 [205] (119)
3DAE  02                 [206] (119)
3DAF  00                 [207] (119)
3DB0  00                 [208] (119)
3DB1  08                 [209] (119)
3DB2  02                 [210] (119)
3DB3  00                 [211] (120)
3DB4  00                 [212] (120)
3DB5  08                 [213] (120)
3DB6  02                 [214] (120)
3DB7  00                 [215] (120)
3DB8  00                 [216] (121)
                         * locals:
4041  00                 sizelocvars (0)
                         * upvalues:
4042  00                 sizeupvalues (0)
                         ** end of function **

                         
4043                     ** function [23] definition (level 2)
                         ** start of function **
4043  00                 string size (0)
                         source name: (none)
4045  04                 line defined (635)
4046  FD                 last line defined (637)
4047  04                 nups (1)
4048  01                 numparams (0)
4049  00                 is_vararg (0)
404A  00                 maxstacksize (2)
                         * code:
404C  04                 sizecode (4)
404D  13000000           [1] getupval   0   0      
4051  57008000           [2] loadbool   1   1   0    ; true
4055  22400001           [3] call       0   2   1  
4059  1E008000           [4] return     0   1      
                         * constants:
405D  00                 sizek (0)
                         * functions:
405E  00                 sizep (0)
                         * lines:
405F  04                 sizelineinfo (4)
                         [pc] (line)
4060  7C                 [1] (124)
4061  02                 [2] (124)
4062  00                 [3] (124)
4063  00                 [4] (125)
                         * locals:
4070  00                 sizelocvars (0)
                         * upvalues:
4071  00                 sizeupvalues (0)
                         ** end of function **

                         
4072                     ** function [24] definition (level 2)
                         ** start of function **
4072  00                 string size (0)
                         source name: (none)
4074  04                 line defined (639)
4075  81                 last line defined (641)
4076  05                 nups (1)
4077  01                 numparams (0)
4078  00                 is_vararg (0)
4079  00                 maxstacksize (2)
                         * code:
407B  04                 sizecode (4)
407C  13000000           [1] getupval   0   0      
4080  57000000           [2] loadbool   1   0   0    ; false
4084  22400001           [3] call       0   2   1  
4088  1E008000           [4] return     0   1      
                         * constants:
408C  00                 sizek (0)
                         * functions:
408D  00                 sizep (0)
                         * lines:
408E  04                 sizelineinfo (4)
                         [pc] (line)
408F  80                 [1] (-128)
4090  02                 [2] (-128)
4091  00                 [3] (-128)
4092  00                 [4] (-127)
                         * locals:
409F  00                 sizelocvars (0)
                         * upvalues:
40A0  00                 sizeupvalues (0)
                         ** end of function **

                         
40A1                     ** function [25] definition (level 2)
                         ** start of function **
40A1  00                 string size (0)
                         source name: (none)
40A3  05                 line defined (643)
40A4  FA                 last line defined (762)
40A5  05                 nups (19)
40A6  13                 numparams (1)
40A7  01                 is_vararg (0)
40A8  00                 maxstacksize (20)
                         * code:
40AB  01                 sizecode (198)
40AC  53000000           [001] getupval   1   0      
40B0  4E00C000           [002] gettable   1   1   256  ; "CustomizationList"
40B4  6440C000           [003] self       1   1   257  ; 2096569603
40B8  D7008000           [004] loadbool   3   1   0    ; true
40BC  17018000           [005] loadbool   4   1   0    ; true
40C0  62400002           [006] call       1   4   1  
40C4  53008000           [007] getupval   1   1      
40C8  4E80C000           [008] gettable   1   1   258  ; "Vignette"
40CC  8B000001           [009] newtable   2   2   0    ; array=2, hash=0
40D0  CBC00100           [010] newtable   3   0   7    ; array=0, hash=7
40D4  13010000           [011] getupval   4   0      
40D8  0E014002           [012] gettable   4   4   256  ; "CustomizationList"
40DC  0EC14002           [013] gettable   4   4   259  ; "Type"
40E0  0E014102           [014] gettable   4   4   260  ; "ITEM_SELECTION"
40E4  CC008181           [015] settable   3   259 4    ; "Type"
40E8  CC80C182           [016] settable   3   261 262  ; "TopTitle" "/Lotus/Language/PersonalQuarters/WallpaperTitle"
40EC  CC80C183           [017] settable   3   263 262  ; "NameTag" "/Lotus/Language/PersonalQuarters/WallpaperTitle"
40F0  CC404284           [018] settable   3   264 265  ; "Tag" "WALLPAPER"
40F4  13010001           [019] getupval   4   2      
40F8  CC000185           [020] settable   3   266 4    ; "CameraTag"
40FC  0BC10100           [021] newtable   4   0   7    ; array=0, hash=7
4100  0C01C382           [022] settable   4   261 268  ; "TopTitle" "/Lotus/Language/PersonalQuarters/WallpaperSelectionTitle"
4104  53018001           [023] getupval   5   3      
4108  0C418186           [024] settable   4   269 5    ; "GetItemsFunction"
410C  53010002           [025] getupval   5   4      
4110  0C410187           [026] settable   4   270 5    ; "OnItemSelectedFunction"
4114  53018002           [027] getupval   5   5      
4118  0C418187           [028] settable   4   271 5    ; "OnSelectionDoneFunction"
411C  0C414488           [029] settable   4   272 273  ; "Columns" 0
4120  0CC14489           [030] settable   4   274 275  ; "VerticalFill" 1
4124  0C41458A           [031] settable   4   276 277  ; "VerticalFillRatio" -102
4128  CC008185           [032] settable   3   267 4    ; "ItemSelectionData"
412C  CCC0448B           [033] settable   3   278 275  ; "HasBottomLine" 1
4130  0B810100           [034] newtable   4   0   6    ; array=0, hash=6
4134  53010000           [035] getupval   5   0      
4138  4E01C002           [036] gettable   5   5   256  ; "CustomizationList"
413C  4EC1C002           [037] gettable   5   5   259  ; "Type"
4140  4E01C102           [038] gettable   5   5   260  ; "ITEM_SELECTION"
4144  0C418181           [039] settable   4   259 5    ; "Type"
4148  0CC1C582           [040] settable   4   261 279  ; "TopTitle" "/Lotus/Language/PersonalQuarters/VignetteTitle"
414C  0CC1C583           [041] settable   4   263 279  ; "NameTag" "/Lotus/Language/PersonalQuarters/VignetteTitle"
4150  0C014684           [042] settable   4   264 280  ; "Tag" "VIGNETTE"
4154  4BC10100           [043] newtable   5   0   7    ; array=0, hash=7
4158  4C41C682           [044] settable   5   261 281  ; "TopTitle" "/Lotus/Language/PersonalQuarters/VignetteSelectionTitle"
415C  93010003           [045] getupval   6   6      
4160  4C818186           [046] settable   5   269 6    ; "GetItemsFunction"
4164  93018003           [047] getupval   6   7      
4168  4C810187           [048] settable   5   270 6    ; "OnItemSelectedFunction"
416C  93010004           [049] getupval   6   8      
4170  4C818187           [050] settable   5   271 6    ; "OnSelectionDoneFunction"
4174  4C414488           [051] settable   5   272 273  ; "Columns" 0
4178  4CC14489           [052] settable   5   274 275  ; "VerticalFill" 1
417C  4C41458A           [053] settable   5   276 277  ; "VerticalFillRatio" -102
4180  0C418185           [054] settable   4   267 5    ; "ItemSelectionData"
4184  0CC1448B           [055] settable   4   278 275  ; "HasBottomLine" 1
4188  9B400001           [056] setlist    2   2   1    ; index 1 to 2
418C  CB000001           [057] newtable   3   2   0    ; array=2, hash=0
4190  0B810000           [058] newtable   4   0   2    ; array=0, hash=2
4194  0CC1468D           [059] settable   4   282 283  ; "Label" "/Lotus/Language/PersonalQuarters/FishTankSide"
4198  53018004           [060] getupval   5   9      
419C  4E01C702           [061] gettable   5   5   284  ; "SIDE"
41A0  0C418181           [062] settable   4   259 5    ; "Type"
41A4  4B810000           [063] newtable   5   0   2    ; array=0, hash=2
41A8  4C41478D           [064] settable   5   282 285  ; "Label" "/Lotus/Language/PersonalQuarters/FishTankVignette"
41AC  93018004           [065] getupval   6   9      
41B0  8E814703           [066] gettable   6   6   286  ; "MAIN"
41B4  4C818181           [067] settable   5   259 6    ; "Type"
41B8  DB400001           [068] setlist    3   2   1    ; index 1 to 2
41BC  13010005           [069] getupval   4   10     
fail op	35
41C0  23008100           [070] close      0  
41C4  1A400180           [071] jmp        6            ; to [78]
41C8  18000000           [072] test       0       0    ; to [74] if true
41CC  1AC00080           [073] jmp        4            ; to [78]
41D0  13018005           [074] getupval   4   11     
41D4  53018004           [075] getupval   5   9      
41D8  4E81C702           [076] gettable   5   5   286  ; "MAIN"
41DC  0C41818F           [077] settable   4   287 5    ; "CurrTank"
41E0  13010006           [078] getupval   4   12     
41E4  22818000           [079] call       4   1   2  
41E8  53018006           [080] getupval   5   13     
41EC  62818000           [081] call       5   1   2  
41F0  8B018001           [082] newtable   6   3   0    ; array=3, hash=0
41F4  CB410200           [083] newtable   7   0   9    ; array=0, hash=9
41F8  13020000           [084] getupval   8   0      
41FC  0E024004           [085] gettable   8   8   256  ; "CustomizationList"
4200  0EC24004           [086] gettable   8   8   259  ; "Type"
4204  0E024804           [087] gettable   8   8   288  ; "TOGGLE"
4208  CC018281           [088] settable   7   259 8    ; "Type"
420C  CC41C882           [089] settable   7   261 289  ; "TopTitle" "/Lotus/Language/PersonalQuarters/FishTag"
4210  CC81C883           [090] settable   7   263 290  ; "NameTag" "/Lotus/Language/PersonalQuarters/FishTankTag"
4214  CCC1C491           [091] settable   7   291 275  ; "IsFishElement" 1
4218  CCC14492           [092] settable   7   292 275  ; "IsTankToggle" 1
421C  CC010185           [093] settable   7   266 4    ; "CameraTag"
4220  13028005           [094] getupval   8   11     
4224  0EC24704           [095] gettable   8   8   287  ; "CurrTank"
4228  03424404           [096] add        8   8   273  ; 0
422C  CC018292           [097] settable   7   293 8    ; "ToggleIndex"
4230  CCC10093           [098] settable   7   294 3    ; "Values"
4234  13020007           [099] getupval   8   14     
4238  CC018293           [100] settable   7   295 8    ; "CallBack"
423C  0B820100           [101] newtable   8   0   6    ; array=0, hash=6
4240  53020000           [102] getupval   9   0      
4244  4E02C004           [103] gettable   9   9   256  ; "CustomizationList"
4248  4EC2C004           [104] gettable   9   9   259  ; "Type"
424C  4E02CA04           [105] gettable   9   9   296  ; "BUTTON"
4250  0C428281           [106] settable   8   259 9    ; "Type"
4254  0C42CA83           [107] settable   8   263 297  ; "NameTag" "/Lotus/Language/PersonalQuarters/AddFish"
4258  0CC2C491           [108] settable   8   291 275  ; "IsFishElement" 1
425C  0C420195           [109] settable   8   298 5    ; "Enabled"
4260  0C020185           [110] settable   8   266 4    ; "CameraTag"
4264  53028007           [111] getupval   9   15     
4268  0C428293           [112] settable   8   295 9    ; "CallBack"
426C  4BC20100           [113] newtable   9   0   7    ; array=0, hash=7
4270  93020000           [114] getupval   10  0      
4274  8E024005           [115] gettable   10  10  256  ; "CustomizationList"
4278  8EC24005           [116] gettable   10  10  259  ; "Type"
427C  8E024A05           [117] gettable   10  10  296  ; "BUTTON"
4280  4C828281           [118] settable   9   259 10   ; "Type"
4284  4CC2CA83           [119] settable   9   263 299  ; "NameTag" "/Lotus/Language/PersonalQuarters/RemoveFish"
4288  4CC2C491           [120] settable   9   291 275  ; "IsFishElement" 1
428C  4C420195           [121] settable   9   298 5    ; "Enabled"
4290  4C020185           [122] settable   9   266 4    ; "CameraTag"
4294  93020008           [123] getupval   10  16     
4298  4C828293           [124] settable   9   295 10   ; "CallBack"
429C  4CC2448B           [125] settable   9   278 275  ; "HasBottomLine" 1
42A0  9B418001           [126] setlist    6   3   1    ; index 1 to 3
42A4  D9410400           [127] loadk      7   17       ; 0
42A8  0A020003           [128] len        8   6      
42AC  59420400           [129] loadk      9   17       ; 0
42B0  D0010180           [130] forprep    7   5        ; to [136]
42B4  DD020B00           [131] getglobal  11  44       ; table
42B8  CE42CB05           [132] gettable   11  11  301  ; -431682403
42BC  12030001           [133] move       12  2      
42C0  4E830203           [134] gettable   13  6   10 
42C4  E2428001           [135] call       11  3   1  
42C8  D441FE7F           [136] forloop    7   -6       ; to [131] if loop
42CC  DD820B00           [137] getglobal  11  46       ; 1672515847
42D0  12030001           [138] move       12  2      
42D4  E2020101           [139] call       11  2   4  
42D8  1AC00B80           [140] jmp        48           ; to [189]
42DC  0EC4C007           [141] gettable   16  15  259  ; "Type"
42E0  53040000           [142] getupval   17  0      
42E4  4E04C008           [143] gettable   17  17  256  ; "CustomizationList"
42E8  4EC4C008           [144] gettable   17  17  259  ; "Type"
42EC  4E04C108           [145] gettable   17  17  260  ; "ITEM_SELECTION"
fail op	35
42F0  23400408           [146] close      0  
42F4  1A800880           [147] jmp        35           ; to [183]
42F8  0EC4C207           [148] gettable   16  15  267  ; "ItemSelectionData"
42FC  0C04CC97           [149] settable   16  303 304  ; "CurrSelection" nil
4300  0EC4C207           [150] gettable   16  15  267  ; "ItemSelectionData"
4304  0C04CC98           [151] settable   16  305 304  ; "TempSelection" nil
4308  0E04C207           [152] gettable   16  15  264  ; "Tag"
fail op	35
430C  23404208           [153] close      0  
4310  1A400380           [154] jmp        14           ; to [169]
4314  1D840C00           [155] getglobal  16  50       ; 1074689893
4318  53048008           [156] getupval   17  17     
431C  4EC4CC08           [157] gettable   17  17  307  ; "Wallpaper"
4320  22840001           [158] call       16  2   2  
4324  18440000           [159] test       16      1    ; to [161] if false
4328  1A400580           [160] jmp        22           ; to [183]
432C  0EC4C207           [161] gettable   16  15  267  ; "ItemSelectionData"
4330  53040009           [162] getupval   17  18     
4334  6404CD08           [163] self       17  17  308  ; 1660666296
4338  D3048008           [164] getupval   19  17     
433C  CEC4CC09           [165] gettable   19  19  307  ; "Wallpaper"
4340  62848001           [166] call       17  3   2  
4344  0C448497           [167] settable   16  303 17   ; "CurrSelection"
4348  1A400380           [168] jmp        14           ; to [183]
434C  0E04C207           [169] gettable   16  15  264  ; "Tag"
fail op	35
4350  23004608           [170] close      0  
4354  1A800280           [171] jmp        11           ; to [183]
4358  1D840C00           [172] getglobal  16  50       ; 1074689893
435C  52048000           [173] move       17  1      
4360  22840001           [174] call       16  2   2  
4364  18440000           [175] test       16      1    ; to [177] if false
4368  1A400180           [176] jmp        6            ; to [183]
436C  0EC4C207           [177] gettable   16  15  267  ; "ItemSelectionData"
4370  53040009           [178] getupval   17  18     
4374  6404CD08           [179] self       17  17  308  ; 1660666296
4378  D2048000           [180] move       19  1      
437C  62848001           [181] call       17  3   2  
4380  0C448497           [182] settable   16  303 17   ; "CurrSelection"
4384  13040000           [183] getupval   16  0      
4388  0E044008           [184] gettable   16  16  256  ; "CustomizationList"
438C  24444D08           [185] self       16  16  309  ; -1484936978
4390  92048007           [186] move       18  15     
4394  D7048000           [187] loadbool   19  1   0    ; true
4398  22440002           [188] call       16  4   1  
439C  D6820000           [189] tforloop   11      2    ; to [191] if exit
43A0  1A40F37F           [190] jmp        -50          ; to [141]
43A4  13040000           [191] getupval   16  0      
43A8  0E044008           [192] gettable   16  16  256  ; "CustomizationList"
43AC  24844D08           [193] self       16  16  310  ; 1685109492
43B0  22440001           [194] call       16  2   1  
43B4  13040000           [195] getupval   16  0      
43B8  0EC44D08           [196] gettable   16  16  311  ; -259419428
43BC  22448000           [197] call       16  1   1  
43C0  1E008000           [198] return     0   1      
                         * constants:
43C4  38                 sizek (56)
43C5  04                 const type 4
43C6  12                 string size (18)
43C7  437573746F6D697A+  "Customiz"
43CF  6174696F6E4C6973+  "ationLis"
43D7  7400               "t\0"
                         const [0]: "CustomizationList"
43D9  01                 const type 3
43DA  031DF77C           const [1]: (2096569603)
43DE  04                 const type 4
43DF  09                 string size (9)
43E0  5669676E65747465+  "Vignette"
43E8  00                 "\0"
                         const [2]: "Vignette"
43E9  04                 const type 4
43EA  05                 string size (5)
43EB  5479706500         "Type\0"
                         const [3]: "Type"
43F0  04                 const type 4
43F1  0F                 string size (15)
43F2  4954454D5F53454C+  "ITEM_SEL"
43FA  454354494F4E00     "ECTION\0"
                         const [4]: "ITEM_SELECTION"
4401  04                 const type 4
4402  09                 string size (9)
4403  546F705469746C65+  "TopTitle"
440B  00                 "\0"
                         const [5]: "TopTitle"
440C  04                 const type 4
440D  30                 string size (48)
440E  2F4C6F7475732F4C+  "/Lotus/L"
4416  616E67756167652F+  "anguage/"
441E  506572736F6E616C+  "Personal"
4426  5175617274657273+  "Quarters"
442E  2F57616C6C706170+  "/Wallpap"
4436  65725469746C6500   "erTitle\0"
                         const [6]: "/Lotus/Language/PersonalQuarters/WallpaperTitle"
443E  04                 const type 4
443F  08                 string size (8)
4440  4E616D6554616700   "NameTag\0"
                         const [7]: "NameTag"
4448  04                 const type 4
4449  04                 string size (4)
444A  54616700           "Tag\0"
                         const [8]: "Tag"
444E  04                 const type 4
444F  0A                 string size (10)
4450  57414C4C50415045+  "WALLPAPE"
4458  5200               "R\0"
                         const [9]: "WALLPAPER"
445A  04                 const type 4
445B  0A                 string size (10)
445C  43616D6572615461+  "CameraTa"
4464  6700               "g\0"
                         const [10]: "CameraTag"
4466  04                 const type 4
4467  12                 string size (18)
4468  4974656D53656C65+  "ItemSele"
4470  6374696F6E446174+  "ctionDat"
4478  6100               "a\0"
                         const [11]: "ItemSelectionData"
447A  04                 const type 4
447B  39                 string size (57)
447C  2F4C6F7475732F4C+  "/Lotus/L"
4484  616E67756167652F+  "anguage/"
448C  506572736F6E616C+  "Personal"
4494  5175617274657273+  "Quarters"
449C  2F57616C6C706170+  "/Wallpap"
44A4  657253656C656374+  "erSelect"
44AC  696F6E5469746C65+  "ionTitle"
44B4  00                 "\0"
                         const [12]: "/Lotus/Language/PersonalQuarters/WallpaperSelectionTitle"
44B5  04                 const type 4
44B6  11                 string size (17)
44B7  4765744974656D73+  "GetItems"
44BF  46756E6374696F6E+  "Function"
44C7  00                 "\0"
                         const [13]: "GetItemsFunction"
44C8  04                 const type 4
44C9  17                 string size (23)
44CA  4F6E4974656D5365+  "OnItemSe"
44D2  6C65637465644675+  "lectedFu"
44DA  6E6374696F6E00     "nction\0"
                         const [14]: "OnItemSelectedFunction"
44E1  04                 const type 4
44E2  18                 string size (24)
44E3  4F6E53656C656374+  "OnSelect"
44EB  696F6E446F6E6546+  "ionDoneF"
44F3  756E6374696F6E00   "unction\0"
                         const [15]: "OnSelectionDoneFunction"
44FB  04                 const type 4
44FC  08                 string size (8)
44FD  436F6C756D6E7300   "Columns\0"
                         const [16]: "Columns"
4505  03                 const type 3
4506  0000803F           const [17]: (0)
450A  04                 const type 4
450B  0D                 string size (13)
450C  566572746963616C+  "Vertical"
4514  46696C6C00         "Fill\0"
                         const [18]: "VerticalFill"
4519  01                 const type 3
451A  01000000           const [19]: (1)
451E  04                 const type 4
451F  12                 string size (18)
4520  566572746963616C+  "Vertical"
4528  46696C6C52617469+  "FillRati"
4530  6F00               "o\0"
                         const [20]: "VerticalFillRatio"
4532  03                 const type 3
4533  9A99993E           const [21]: (-102)
4537  04                 const type 4
4538  0E                 string size (14)
4539  486173426F74746F+  "HasBotto"
4541  6D4C696E6500       "mLine\0"
                         const [22]: "HasBottomLine"
4547  04                 const type 4
4548  2F                 string size (47)
4549  2F4C6F7475732F4C+  "/Lotus/L"
4551  616E67756167652F+  "anguage/"
4559  506572736F6E616C+  "Personal"
4561  5175617274657273+  "Quarters"
4569  2F5669676E657474+  "/Vignett"
4571  655469746C6500     "eTitle\0"
                         const [23]: "/Lotus/Language/PersonalQuarters/VignetteTitle"
4578  04                 const type 4
4579  09                 string size (9)
457A  5649474E45545445+  "VIGNETTE"
4582  00                 "\0"
                         const [24]: "VIGNETTE"
4583  04                 const type 4
4584  38                 string size (56)
4585  2F4C6F7475732F4C+  "/Lotus/L"
458D  616E67756167652F+  "anguage/"
4595  506572736F6E616C+  "Personal"
459D  5175617274657273+  "Quarters"
45A5  2F5669676E657474+  "/Vignett"
45AD  6553656C65637469+  "eSelecti"
45B5  6F6E5469746C6500   "onTitle\0"
                         const [25]: "/Lotus/Language/PersonalQuarters/VignetteSelectionTitle"
45BD  04                 const type 4
45BE  06                 string size (6)
45BF  4C6162656C00       "Label\0"
                         const [26]: "Label"
45C5  04                 const type 4
45C6  2E                 string size (46)
45C7  2F4C6F7475732F4C+  "/Lotus/L"
45CF  616E67756167652F+  "anguage/"
45D7  506572736F6E616C+  "Personal"
45DF  5175617274657273+  "Quarters"
45E7  2F4669736854616E+  "/FishTan"
45EF  6B5369646500       "kSide\0"
                         const [27]: "/Lotus/Language/PersonalQuarters/FishTankSide"
45F5  04                 const type 4
45F6  05                 string size (5)
45F7  5349444500         "SIDE\0"
                         const [28]: "SIDE"
45FC  04                 const type 4
45FD  32                 string size (50)
45FE  2F4C6F7475732F4C+  "/Lotus/L"
4606  616E67756167652F+  "anguage/"
460E  506572736F6E616C+  "Personal"
4616  5175617274657273+  "Quarters"
461E  2F4669736854616E+  "/FishTan"
4626  6B5669676E657474+  "kVignett"
462E  6500               "e\0"
                         const [29]: "/Lotus/Language/PersonalQuarters/FishTankVignette"
4630  04                 const type 4
4631  05                 string size (5)
4632  4D41494E00         "MAIN\0"
                         const [30]: "MAIN"
4637  04                 const type 4
4638  09                 string size (9)
4639  4375727254616E6B+  "CurrTank"
4641  00                 "\0"
                         const [31]: "CurrTank"
4642  04                 const type 4
4643  07                 string size (7)
4644  544F47474C4500     "TOGGLE\0"
                         const [32]: "TOGGLE"
464B  04                 const type 4
464C  29                 string size (41)
464D  2F4C6F7475732F4C+  "/Lotus/L"
4655  616E67756167652F+  "anguage/"
465D  506572736F6E616C+  "Personal"
4665  5175617274657273+  "Quarters"
466D  2F46697368546167+  "/FishTag"
4675  00                 "\0"
                         const [33]: "/Lotus/Language/PersonalQuarters/FishTag"
4676  04                 const type 4
4677  2D                 string size (45)
4678  2F4C6F7475732F4C+  "/Lotus/L"
4680  616E67756167652F+  "anguage/"
4688  506572736F6E616C+  "Personal"
4690  5175617274657273+  "Quarters"
4698  2F4669736854616E+  "/FishTan"
46A0  6B54616700         "kTag\0"
                         const [34]: "/Lotus/Language/PersonalQuarters/FishTankTag"
46A5  04                 const type 4
46A6  0E                 string size (14)
46A7  497346697368456C+  "IsFishEl"
46AF  656D656E7400       "ement\0"
                         const [35]: "IsFishElement"
46B5  04                 const type 4
46B6  0D                 string size (13)
46B7  497354616E6B546F+  "IsTankTo"
46BF  67676C6500         "ggle\0"
                         const [36]: "IsTankToggle"
46C4  04                 const type 4
46C5  0C                 string size (12)
46C6  546F67676C65496E+  "ToggleIn"
46CE  64657800           "dex\0"
                         const [37]: "ToggleIndex"
46D2  04                 const type 4
46D3  07                 string size (7)
46D4  56616C75657300     "Values\0"
                         const [38]: "Values"
46DB  04                 const type 4
46DC  09                 string size (9)
46DD  43616C6C4261636B+  "CallBack"
46E5  00                 "\0"
                         const [39]: "CallBack"
46E6  04                 const type 4
46E7  07                 string size (7)
46E8  425554544F4E00     "BUTTON\0"
                         const [40]: "BUTTON"
46EF  04                 const type 4
46F0  29                 string size (41)
46F1  2F4C6F7475732F4C+  "/Lotus/L"
46F9  616E67756167652F+  "anguage/"
4701  506572736F6E616C+  "Personal"
4709  5175617274657273+  "Quarters"
4711  2F41646446697368+  "/AddFish"
4719  00                 "\0"
                         const [41]: "/Lotus/Language/PersonalQuarters/AddFish"
471A  04                 const type 4
471B  08                 string size (8)
471C  456E61626C656400   "Enabled\0"
                         const [42]: "Enabled"
4724  04                 const type 4
4725  2C                 string size (44)
4726  2F4C6F7475732F4C+  "/Lotus/L"
472E  616E67756167652F+  "anguage/"
4736  506572736F6E616C+  "Personal"
473E  5175617274657273+  "Quarters"
4746  2F52656D6F766546+  "/RemoveF"
474E  69736800           "ish\0"
                         const [43]: "/Lotus/Language/PersonalQuarters/RemoveFish"
4752  04                 const type 4
4753  06                 string size (6)
4754  7461626C6500       "table\0"
                         const [44]: "table"
475A  01                 const type 3
475B  9D0C45E6           const [45]: (-431682403)
475F  01                 const type 3
4760  0791B063           const [46]: (1672515847)
4764  04                 const type 4
4765  0E                 string size (14)
4766  4375727253656C65+  "CurrSele"
476E  6374696F6E00       "ction\0"
                         const [47]: "CurrSelection"
4774  00                 const type 0
                         const [48]: nil
4775  04                 const type 4
4776  0E                 string size (14)
4777  54656D7053656C65+  "TempSele"
477F  6374696F6E00       "ction\0"
                         const [49]: "TempSelection"
4785  01                 const type 3
4786  65770E40           const [50]: (1074689893)
478A  04                 const type 4
478B  0A                 string size (10)
478C  57616C6C70617065+  "Wallpape"
4794  7200               "r\0"
                         const [51]: "Wallpaper"
4796  01                 const type 3
4797  B8C1FB62           const [52]: (1660666296)
479B  01                 const type 3
479C  EEA87DA7           const [53]: (-1484936978)
47A0  01                 const type 3
47A1  F4BA7064           const [54]: (1685109492)
47A5  01                 const type 3
47A6  DC9289F0           const [55]: (-259419428)
                         * functions:
47AA  00                 sizep (0)
                         * lines:
47AC  01                 sizelineinfo (198)
                         [pc] (line)
47AD  84                 [001] (-124)
47AE  02                 [002] (-124)
47AF  00                 [003] (-124)
47B0  00                 [004] (-124)
47B1  84                 [005] (-124)
47B2  02                 [006] (-124)
47B3  00                 [007] (-122)
47B4  00                 [008] (-122)
47B5  84                 [009] (-121)
47B6  02                 [010] (-120)
47B7  00                 [011] (-118)
47B8  00                 [012] (-118)
47B9  84                 [013] (-118)
47BA  02                 [014] (-118)
47BB  00                 [015] (-118)
47BC  00                 [016] (-117)
47BD  84                 [017] (-116)
47BE  02                 [018] (-115)
47BF  00                 [019] (-114)
47C0  00                 [020] (-114)
47C1  84                 [021] (-113)
47C2  02                 [022] (-111)
47C3  00                 [023] (-110)
47C4  00                 [024] (-110)
47C5  86                 [025] (-109)
47C6  02                 [026] (-109)
47C7  00                 [027] (-108)
47C8  00                 [028] (-108)
47C9  86                 [029] (-107)
47CA  02                 [030] (-106)
47CB  00                 [031] (-105)
47CC  00                 [032] (-104)
47CD  87                 [033] (-103)
47CE  02                 [034] (-102)
47CF  00                 [035] (-100)
47D0  00                 [036] (-100)
47D1  88                 [037] (-100)
47D2  02                 [038] (-100)
47D3  00                 [039] (-100)
47D4  00                 [040] (-99)
47D5  8A                 [041] (-98)
47D6  02                 [042] (-97)
47D7  00                 [043] (-96)
47D8  00                 [044] (-94)
47D9  8A                 [045] (-93)
47DA  02                 [046] (-93)
47DB  00                 [047] (-92)
47DC  00                 [048] (-92)
47DD  8A                 [049] (-91)
47DE  02                 [050] (-91)
47DF  00                 [051] (-90)
47E0  00                 [052] (-89)
47E1  8A                 [053] (-88)
47E2  02                 [054] (-87)
47E3  00                 [055] (-86)
47E4  00                 [056] (-84)
47E5  8A                 [057] (-82)
47E6  02                 [058] (-81)
47E7  00                 [059] (-79)
47E8  00                 [060] (-78)
47E9  8B                 [061] (-78)
47EA  02                 [062] (-78)
47EB  00                 [063] (-77)
47EC  00                 [064] (-75)
47ED  8C                 [065] (-74)
47EE  02                 [066] (-74)
47EF  00                 [067] (-74)
47F0  00                 [068] (-72)
47F1  8D                 [069] (-70)
47F2  02                 [070] (-70)
47F3  00                 [071] (-70)
47F4  00                 [072] (-70)
47F5  8E                 [073] (-70)
47F6  02                 [074] (-68)
47F7  00                 [075] (-68)
47F8  00                 [076] (-68)
47F9  8E                 [077] (-68)
47FA  02                 [078] (-66)
47FB  00                 [079] (-66)
47FC  00                 [080] (-65)
47FD  8F                 [081] (-65)
47FE  02                 [082] (-63)
47FF  00                 [083] (-62)
4800  00                 [084] (-60)
4801  91                 [085] (-60)
4802  02                 [086] (-60)
4803  00                 [087] (-60)
4804  00                 [088] (-60)
4805  92                 [089] (-59)
4806  02                 [090] (-58)
4807  00                 [091] (-57)
4808  00                 [092] (-56)
4809  92                 [093] (-55)
480A  02                 [094] (-54)
480B  00                 [095] (-54)
480C  00                 [096] (-54)
480D  93                 [097] (-54)
480E  02                 [098] (-53)
480F  00                 [099] (-52)
4810  00                 [100] (-52)
4811  93                 [101] (-51)
4812  02                 [102] (-49)
4813  00                 [103] (-49)
4814  00                 [104] (-49)
4815  94                 [105] (-49)
4816  02                 [106] (-49)
4817  00                 [107] (-48)
4818  00                 [108] (-47)
4819  94                 [109] (-46)
481A  02                 [110] (-45)
481B  00                 [111] (-44)
481C  00                 [112] (-44)
481D  95                 [113] (-43)
481E  02                 [114] (-41)
481F  00                 [115] (-41)
4820  00                 [116] (-41)
4821  96                 [117] (-41)
4822  02                 [118] (-41)
4823  00                 [119] (-40)
4824  00                 [120] (-39)
4825  97                 [121] (-38)
4826  02                 [122] (-37)
4827  00                 [123] (-36)
4828  00                 [124] (-36)
4829  98                 [125] (-35)
482A  02                 [126] (-33)
482B  00                 [127] (-31)
482C  00                 [128] (-31)
482D  99                 [129] (-31)
482E  02                 [130] (-31)
482F  00                 [131] (-30)
4830  00                 [132] (-30)
4831  9A                 [133] (-30)
4832  02                 [134] (-30)
4833  00                 [135] (-30)
4834  00                 [136] (-31)
4835  9C                 [137] (-27)
4836  02                 [138] (-27)
4837  00                 [139] (-27)
4838  00                 [140] (-27)
4839  9C                 [141] (-26)
483A  02                 [142] (-26)
483B  00                 [143] (-26)
483C  00                 [144] (-26)
483D  9C                 [145] (-26)
483E  02                 [146] (-26)
483F  00                 [147] (-26)
4840  00                 [148] (-25)
4841  9C                 [149] (-25)
4842  02                 [150] (-24)
4843  00                 [151] (-24)
4844  00                 [152] (-22)
4845  9C                 [153] (-22)
4846  02                 [154] (-22)
4847  00                 [155] (-21)
4848  00                 [156] (-21)
4849  9D                 [157] (-21)
484A  02                 [158] (-21)
484B  00                 [159] (-21)
484C  00                 [160] (-21)
484D  9E                 [161] (-20)
484E  02                 [162] (-20)
484F  00                 [163] (-20)
4850  00                 [164] (-20)
4851  9F                 [165] (-20)
4852  02                 [166] (-20)
4853  00                 [167] (-20)
4854  00                 [168] (-19)
4855  A0                 [169] (-18)
4856  02                 [170] (-18)
4857  00                 [171] (-18)
4858  00                 [172] (-17)
4859  A2                 [173] (-17)
485A  02                 [174] (-17)
485B  00                 [175] (-17)
485C  00                 [176] (-17)
485D  A3                 [177] (-16)
485E  02                 [178] (-16)
485F  00                 [179] (-16)
4860  00                 [180] (-16)
4861  A3                 [181] (-16)
4862  02                 [182] (-16)
4863  00                 [183] (-11)
4864  00                 [184] (-11)
4865  A4                 [185] (-11)
4866  02                 [186] (-11)
4867  00                 [187] (-11)
4868  00                 [188] (-11)
4869  A4                 [189] (-27)
486A  02                 [190] (-11)
486B  00                 [191] (-8)
486C  00                 [192] (-8)
486D  A5                 [193] (-8)
486E  02                 [194] (-8)
486F  00                 [195] (-7)
4870  00                 [196] (-7)
4871  A5                 [197] (-7)
4872  02                 [198] (-6)
                         * locals:
4AC5  00                 sizelocvars (0)
                         * upvalues:
4AC6  00                 sizeupvalues (0)
                         ** end of function **

                         
4AC7                     ** function [26] definition (level 2)
                         ** start of function **
4AC7  00                 string size (0)
                         source name: (none)
4AC9  05                 line defined (764)
4ACA  8A                 last line defined (778)
4ACB  06                 nups (1)
4ACC  01                 numparams (1)
4ACD  01                 is_vararg (0)
4ACE  00                 maxstacksize (7)
                         * code:
4AD0  1D                 sizecode (29)
4AD1  5D000000           [01] getglobal  1   0        ; 1074689893
4AD5  92000000           [02] move       2   0      
4AD9  62800001           [03] call       1   2   2  
4ADD  58000000           [04] test       1       0    ; to [6] if true
4AE1  1A000080           [05] jmp        1            ; to [7]
4AE5  1E008000           [06] return     0   1      
4AE9  5D400000           [07] getglobal  1   1        ; gRegion
4AED  6480C000           [08] self       1   1   258  ; 65205951
4AF1  62800001           [09] call       1   2   2  
4AF5  9D000000           [10] getglobal  2   0        ; 1074689893
4AF9  D2008000           [11] move       3   1      
4AFD  A2800001           [12] call       2   2   2  
4B01  98400000           [13] test       2       1    ; to [15] if false
4B05  1A400380           [14] jmp        14           ; to [29]
4B09  A4C0C000           [15] self       2   1   259  ; 1525877273
4B0D  A2800001           [16] call       2   2   2  
4B11  DD000000           [17] getglobal  3   0        ; 1074689893
4B15  12010001           [18] move       4   2      
4B19  E2800001           [19] call       3   2   2  
4B1D  D8400000           [20] test       3       1    ; to [22] if false
4B21  1A800180           [21] jmp        7            ; to [29]
4B25  E4004101           [22] self       3   2   260  ; 1362416700
4B29  52010000           [23] move       5   0      
4B2D  99410100           [24] loadk      6   5        ; 0
4B31  E2400002           [25] call       3   4   1  
4B35  E4804100           [26] self       3   0   262  ; -830264577
4B39  E2800001           [27] call       3   2   2  
fail op	8
4B3D  C8000000           [28] setupval   3   0      
4B41  1E008000           [29] return     0   1      
                         * constants:
4B45  07                 sizek (7)
4B46  01                 const type 3
4B47  65770E40           const [0]: (1074689893)
4B4B  04                 const type 4
4B4C  08                 string size (8)
4B4D  67526567696F6E00   "gRegion\0"
                         const [1]: "gRegion"
4B55  01                 const type 3
4B56  BFF6E203           const [2]: (65205951)
4B5A  01                 const type 3
4B5B  190AF35A           const [3]: (1525877273)
4B5F  01                 const type 3
4B60  3CD43451           const [4]: (1362416700)
4B64  03                 const type 3
4B65  0000003F           const [5]: (0)
4B69  01                 const type 3
4B6A  FF2A83CE           const [6]: (-830264577)
                         * functions:
4B6E  00                 sizep (0)
                         * lines:
4B6F  1D                 sizelineinfo (29)
                         [pc] (line)
4B70  FD                 [01] (-3)
4B71  02                 [02] (-3)
4B72  00                 [03] (-3)
4B73  00                 [04] (-3)
4B74  FD                 [05] (-3)
4B75  02                 [06] (-2)
4B76  00                 [07] (1)
4B77  00                 [08] (1)
4B78  FD                 [09] (1)
4B79  02                 [10] (2)
4B7A  00                 [11] (2)
4B7B  00                 [12] (2)
4B7C  FD                 [13] (2)
4B7D  02                 [14] (2)
4B7E  00                 [15] (3)
4B7F  00                 [16] (3)
4B80  FD                 [17] (4)
4B81  02                 [18] (4)
4B82  00                 [19] (4)
4B83  00                 [20] (4)
4B84  FE                 [21] (4)
4B85  02                 [22] (5)
4B86  00                 [23] (5)
4B87  00                 [24] (5)
4B88  01                 [25] (5)
4B89  03                 [26] (7)
4B8A  00                 [27] (7)
4B8B  00                 [28] (7)
4B8C  01                 [29] (10)
                         * locals:
4BE4  00                 sizelocvars (0)
                         * upvalues:
4BE5  00                 sizeupvalues (0)
                         ** end of function **

                         
4BE6                     ** function [27] definition (level 2)
                         ** start of function **
4BE6  00                 string size (0)
                         source name: (none)
4BE8  06                 line defined (780)
4BE9  94                 last line defined (788)
4BEA  06                 nups (3)
4BEB  03                 numparams (0)
4BEC  00                 is_vararg (0)
4BED  00                 maxstacksize (7)
                         * code:
4BEF  33                 sizecode (51)
4BF0  1D000000           [01] getglobal  0   0        ; mMovie
4BF4  24404000           [02] self       0   0   257  ; 471456102
4BF8  99800000           [03] loadk      2   2        ; "Hint"
4BFC  D9C00000           [04] loadk      3   3        ; "_visible"
4C00  13010000           [05] getupval   4   0      
4C04  0E014102           [06] gettable   4   4   260  ; "mState"
4C08  53010000           [07] getupval   5   0      
4C0C  4E41C102           [08] gettable   5   5   261  ; "State"
4C10  4E81C102           [09] gettable   5   5   262  ; "CUSTOMIZATION"
fail op	35
4C14  63400102           [10] close      1  
4C18  1A000080           [11] jmp        1            ; to [13]
4C1C  17410000           [12] loadbool   4   0   1    ; false, to [14]
4C20  17018000           [13] loadbool   4   1   0    ; true
4C24  22408002           [14] call       0   5   1  
4C28  1DC00100           [15] getglobal  0   7        ; -174740002
4C2C  5D000000           [16] getglobal  1   0        ; mMovie
4C30  6400C200           [17] self       1   1   264  ; 1803241227
4C34  D9800000           [18] loadk      3   2        ; "Hint"
4C38  19410200           [19] loadk      4   9        ; "textHeight"
4C3C  62000002           [20] call       1   4   0  
4C40  22800000           [21] call       0   0   2  
4C44  03804200           [22] add        0   0   266  ; 0
4C48  53008000           [23] getupval   1   1      
4C4C  93000001           [24] getupval   2   2      
4C50  8EC04201           [25] gettable   2   2   267  ; -132701534
4C54  D3000000           [26] getupval   3   0      
4C58  CE00C101           [27] gettable   3   3   260  ; "mState"
4C5C  13010000           [28] getupval   4   0      
4C60  0E414102           [29] gettable   4   4   261  ; "State"
4C64  0E814102           [30] gettable   4   4   262  ; "CUSTOMIZATION"
fail op	35
4C68  63008101           [31] close      1  
4C6C  1A000080           [32] jmp        1            ; to [34]
4C70  D7400000           [33] loadbool   3   0   1    ; false, to [35]
4C74  D7008000           [34] loadbool   3   1   0    ; true
4C78  12010000           [35] move       4   0      
4C7C  59010300           [36] loadk      5   12       ; 0
4C80  A2800002           [37] call       2   4   2  
4C84  43808000           [38] add        1   1   2  
4C88  9D000000           [39] getglobal  2   0        ; mMovie
4C8C  A4404001           [40] self       2   2   257  ; 471456102
4C90  19410300           [41] loadk      4   13       ; "Bg"
4C94  59810300           [42] loadk      5   14       ; "_height"
4C98  92018000           [43] move       6   1      
4C9C  A2408002           [44] call       2   5   1  
4CA0  9D000000           [45] getglobal  2   0        ; mMovie
4CA4  A4404001           [46] self       2   2   257  ; 471456102
4CA8  19C10300           [47] loadk      4   15       ; "Blurer"
4CAC  59810300           [48] loadk      5   14       ; "_height"
4CB0  92018000           [49] move       6   1      
4CB4  A2408002           [50] call       2   5   1  
4CB8  1E008000           [51] return     0   1      
                         * constants:
4CBC  10                 sizek (16)
4CBD  04                 const type 4
4CBE  07                 string size (7)
4CBF  6D4D6F76696500     "mMovie\0"
                         const [0]: "mMovie"
4CC6  01                 const type 3
4CC7  66D9191C           const [1]: (471456102)
4CCB  04                 const type 4
4CCC  05                 string size (5)
4CCD  48696E7400         "Hint\0"
                         const [2]: "Hint"
4CD2  04                 const type 4
4CD3  09                 string size (9)
4CD4  5F76697369626C65+  "_visible"
4CDC  00                 "\0"
                         const [3]: "_visible"
4CDD  04                 const type 4
4CDE  07                 string size (7)
4CDF  6D537461746500     "mState\0"
                         const [4]: "mState"
4CE6  04                 const type 4
4CE7  06                 string size (6)
4CE8  537461746500       "State\0"
                         const [5]: "State"
4CEE  04                 const type 4
4CEF  0E                 string size (14)
4CF0  435553544F4D495A+  "CUSTOMIZ"
4CF8  4154494F4E00       "ATION\0"
                         const [6]: "CUSTOMIZATION"
4CFE  01                 const type 3
4CFF  DEAD95F5           const [7]: (-174740002)
4D03  01                 const type 3
4D04  0B477B6B           const [8]: (1803241227)
4D08  04                 const type 4
4D09  0B                 string size (11)
4D0A  7465787448656967+  "textHeig"
4D12  687400             "ht\0"
                         const [9]: "textHeight"
4D15  03                 const type 3
4D16  00002041           const [10]: (0)
4D1A  01                 const type 3
4D1B  A22217F8           const [11]: (-132701534)
4D1F  03                 const type 3
4D20  00000000           const [12]: (0)
4D24  04                 const type 4
4D25  03                 string size (3)
4D26  426700             "Bg\0"
                         const [13]: "Bg"
4D29  04                 const type 4
4D2A  08                 string size (8)
4D2B  5F68656967687400   "_height\0"
                         const [14]: "_height"
4D33  04                 const type 4
4D34  07                 string size (7)
4D35  426C7572657200     "Blurer\0"
                         const [15]: "Blurer"
                         * functions:
4D3C  00                 sizep (0)
                         * lines:
4D3D  33                 sizelineinfo (51)
                         [pc] (line)
4D3E  0D                 [01] (13)
4D3F  03                 [02] (13)
4D40  00                 [03] (13)
4D41  00                 [04] (13)
4D42  0D                 [05] (13)
4D43  03                 [06] (13)
4D44  00                 [07] (13)
4D45  00                 [08] (13)
4D46  0D                 [09] (13)
4D47  03                 [10] (13)
4D48  00                 [11] (13)
4D49  00                 [12] (13)
4D4A  0D                 [13] (13)
4D4B  03                 [14] (13)
4D4C  00                 [15] (15)
4D4D  00                 [16] (15)
4D4E  0D                 [17] (15)
4D4F  03                 [18] (15)
4D50  00                 [19] (15)
4D51  00                 [20] (15)
4D52  0D                 [21] (15)
4D53  03                 [22] (15)
4D54  00                 [23] (16)
4D55  00                 [24] (16)
4D56  0D                 [25] (16)
4D57  03                 [26] (16)
4D58  00                 [27] (16)
4D59  00                 [28] (16)
4D5A  0D                 [29] (16)
4D5B  03                 [30] (16)
4D5C  00                 [31] (16)
4D5D  00                 [32] (16)
4D5E  0D                 [33] (16)
4D5F  03                 [34] (16)
4D60  00                 [35] (16)
4D61  00                 [36] (16)
4D62  0D                 [37] (16)
4D63  03                 [38] (16)
4D64  00                 [39] (18)
4D65  00                 [40] (18)
4D66  0D                 [41] (18)
4D67  03                 [42] (18)
4D68  00                 [43] (18)
4D69  00                 [44] (18)
4D6A  0D                 [45] (19)
4D6B  03                 [46] (19)
4D6C  00                 [47] (19)
4D6D  00                 [48] (19)
4D6E  0D                 [49] (19)
4D6F  03                 [50] (19)
4D70  00                 [51] (20)
                         * locals:
4E0A  00                 sizelocvars (0)
                         * upvalues:
4E0B  00                 sizeupvalues (0)
                         ** end of function **

                         
4E0C                     ** function [28] definition (level 2)
                         ** start of function **
4E0C  00                 string size (0)
                         source name: (none)
4E0E  06                 line defined (790)
4E0F  B0                 last line defined (816)
4E10  06                 nups (5)
4E11  05                 numparams (0)
4E12  00                 is_vararg (0)
4E13  00                 maxstacksize (11)
                         * code:
4E15  63                 sizecode (99)
4E16  19000000           [01] loadk      0   0        ; 0
4E1A  5D400000           [02] getglobal  1   1        ; -174740002
4E1E  9D800000           [03] getglobal  2   2        ; mMovie
4E22  A4C04001           [04] self       2   2   259  ; 1803241227
4E26  19010100           [05] loadk      4   4        ; "Settings"
4E2A  59410100           [06] loadk      5   5        ; "_y"
4E2E  A2000002           [07] call       2   4   0  
4E32  62800000           [08] call       1   0   2  
4E36  93000000           [09] getupval   2   0      
4E3A  83808000           [10] add        2   1   2  
4E3E  D3008000           [11] getupval   3   1      
4E42  CE80C101           [12] gettable   3   3   262  ; "mState"
4E46  13018000           [13] getupval   4   1      
4E4A  0EC14102           [14] gettable   4   4   263  ; "State"
4E4E  0E014202           [15] gettable   4   4   264  ; "CUSTOMIZATION"
fail op	35
4E52  23008101           [16] close      0  
4E56  1AC00180           [17] jmp        8            ; to [26]
4E5A  D3008000           [18] getupval   3   1      
4E5E  CE40C201           [19] gettable   3   3   265  ; "CustomizationList"
4E62  E480C201           [20] self       3   3   266  ; -1947164746
4E66  E2800001           [21] call       3   2   2  
4E6A  C3C0C201           [22] add        3   3   267  ; 0
fail op	8
4E6E  C8000001           [23] setupval   3   2      
4E72  19000300           [24] loadk      0   12       ; 0
4E76  1A800980           [25] jmp        39           ; to [65]
4E7A  D3008000           [26] getupval   3   1      
4E7E  CE40C301           [27] gettable   3   3   269  ; "ItemSelectionGrid"
4E82  CE80C301           [28] gettable   3   3   270  ; "mRows"
4E86  13018000           [29] getupval   4   1      
4E8A  0E414302           [30] gettable   4   4   269  ; "ItemSelectionGrid"
4E8E  0EC14302           [31] gettable   4   4   271  ; "mRowSeparation"
4E92  C4008101           [32] mul        3   3   4  
4E96  C3C0C201           [33] add        3   3   267  ; 0
fail op	8
4E9A  C8000001           [34] setupval   3   2      
4E9E  D3008000           [35] getupval   3   1      
4EA2  CE40C301           [36] gettable   3   3   269  ; "ItemSelectionGrid"
4EA6  CE00C401           [37] gettable   3   3   272  ; "CurrSelectionData"
4EAA  D8000000           [38] test       3       0    ; to [40] if true
4EAE  1AC00580           [39] jmp        24           ; to [64]
4EB2  D3008000           [40] getupval   3   1      
4EB6  CE40C301           [41] gettable   3   3   269  ; "ItemSelectionGrid"
4EBA  CE00C401           [42] gettable   3   3   272  ; "CurrSelectionData"
4EBE  CE40C401           [43] gettable   3   3   273  ; "VerticalFill"
4EC2  D8000000           [44] test       3       0    ; to [46] if true
4EC6  1A400480           [45] jmp        18           ; to [64]
4ECA  D3008001           [46] getupval   3   3      
4ECE  CE80C401           [47] gettable   3   3   274  ; -857652474
4ED2  1D810000           [48] getglobal  4   2        ; mMovie
4ED6  E2C00001           [49] call       3   2   3  
4EDA  5D810000           [50] getglobal  5   2        ; mMovie
4EDE  64C1C402           [51] self       5   5   275  ; 1754893949
4EE2  62810001           [52] call       5   2   2  
4EE6  9C014502           [53] div        6   4   276  ; 0
4EEA  5C818102           [54] div        5   5   6  
fail op	8
4EEE  48010001           [55] setupval   5   2      
4EF2  53018001           [56] getupval   5   3      
4EF6  4E41C502           [57] gettable   5   5   277  ; 1274513252
4EFA  9D810000           [58] getglobal  6   2        ; mMovie
4EFE  CB810000           [59] newtable   7   0   2    ; array=0, hash=2
4F02  CC01408B           [60] settable   7   278 256  ; "x" 0
4F06  CC01C08B           [61] settable   7   279 256  ; "y" 0
4F0A  62818001           [62] call       5   3   2  
4F0E  8EC0C502           [63] gettable   2   5   279  ; "y"
4F12  19000600           [64] loadk      0   24       ; 0
4F16  5D810000           [65] getglobal  5   2        ; mMovie
4F1A  6441C602           [66] self       5   5   281  ; 471456102
4F1E  D9810600           [67] loadk      7   26       ; "Bg"
4F22  19420100           [68] loadk      8   5        ; "_y"
4F26  52020001           [69] move       9   2      
4F2A  62418002           [70] call       5   5   1  
4F2E  5D810000           [71] getglobal  5   2        ; mMovie
4F32  6441C602           [72] self       5   5   281  ; 471456102
4F36  D9810600           [73] loadk      7   26       ; "Bg"
4F3A  19C20600           [74] loadk      8   27       ; "_width"
4F3E  52020000           [75] move       9   0      
4F42  62418002           [76] call       5   5   1  
4F46  5D810000           [77] getglobal  5   2        ; mMovie
4F4A  6441C602           [78] self       5   5   281  ; 471456102
4F4E  D9010700           [79] loadk      7   28       ; "Blurer"
4F52  19C20600           [80] loadk      8   27       ; "_width"
4F56  52020000           [81] move       9   0      
4F5A  62418002           [82] call       5   5   1  
4F5E  5D410000           [83] getglobal  5   1        ; -174740002
4F62  9D810000           [84] getglobal  6   2        ; mMovie
4F66  A4C14003           [85] self       6   6   259  ; 1803241227
4F6A  19820600           [86] loadk      8   26       ; "Bg"
4F6E  59420100           [87] loadk      9   5        ; "_y"
4F72  A2010002           [88] call       6   4   0  
4F76  62810000           [89] call       5   0   2  
4F7A  9D810000           [90] getglobal  6   2        ; mMovie
4F7E  A4414603           [91] self       6   6   281  ; 471456102
4F82  19420700           [92] loadk      8   29       ; "Hint"
4F86  59420100           [93] loadk      9   5        ; "_y"
4F8A  93020001           [94] getupval   10  2      
4F8E  83828202           [95] add        10  5   10 
4F92  A2418002           [96] call       6   5   1  
4F96  93010002           [97] getupval   6   4      
4F9A  A2418000           [98] call       6   1   1  
4F9E  1E008000           [99] return     0   1      
                         * constants:
4FA2  1E                 sizek (30)
4FA3  03                 const type 3
4FA4  00000000           const [0]: (0)
4FA8  01                 const type 3
4FA9  DEAD95F5           const [1]: (-174740002)
4FAD  04                 const type 4
4FAE  07                 string size (7)
4FAF  6D4D6F76696500     "mMovie\0"
                         const [2]: "mMovie"
4FB6  01                 const type 3
4FB7  0B477B6B           const [3]: (1803241227)
4FBB  04                 const type 4
4FBC  09                 string size (9)
4FBD  53657474696E6773+  "Settings"
4FC5  00                 "\0"
                         const [4]: "Settings"
4FC6  04                 const type 4
4FC7  03                 string size (3)
4FC8  5F7900             "_y\0"
                         const [5]: "_y"
4FCB  04                 const type 4
4FCC  07                 string size (7)
4FCD  6D537461746500     "mState\0"
                         const [6]: "mState"
4FD4  04                 const type 4
4FD5  06                 string size (6)
4FD6  537461746500       "State\0"
                         const [7]: "State"
4FDC  04                 const type 4
4FDD  0E                 string size (14)
4FDE  435553544F4D495A+  "CUSTOMIZ"
4FE6  4154494F4E00       "ATION\0"
                         const [8]: "CUSTOMIZATION"
4FEC  04                 const type 4
4FED  12                 string size (18)
4FEE  437573746F6D697A+  "Customiz"
4FF6  6174696F6E4C6973+  "ationLis"
4FFE  7400               "t\0"
                         const [9]: "CustomizationList"
5000  01                 const type 3
5001  B69FF08B           const [10]: (-1947164746)
5005  03                 const type 3
5006  00004842           const [11]: (0)
500A  03                 const type 3
500B  0000D743           const [12]: (0)
500F  04                 const type 4
5010  12                 string size (18)
5011  4974656D53656C65+  "ItemSele"
5019  6374696F6E477269+  "ctionGri"
5021  6400               "d\0"
                         const [13]: "ItemSelectionGrid"
5023  04                 const type 4
5024  06                 string size (6)
5025  6D526F777300       "mRows\0"
                         const [14]: "mRows"
502B  04                 const type 4
502C  0F                 string size (15)
502D  6D526F7753657061+  "mRowSepa"
5035  726174696F6E00     "ration\0"
                         const [15]: "mRowSeparation"
503C  04                 const type 4
503D  12                 string size (18)
503E  4375727253656C65+  "CurrSele"
5046  6374696F6E446174+  "ctionDat"
504E  6100               "a\0"
                         const [16]: "CurrSelectionData"
5050  04                 const type 4
5051  0D                 string size (13)
5052  566572746963616C+  "Vertical"
505A  46696C6C00         "Fill\0"
                         const [17]: "VerticalFill"
505F  01                 const type 3
5060  0643E1CC           const [18]: (-857652474)
5064  01                 const type 3
5065  7D8E9968           const [19]: (1754893949)
5069  03                 const type 3
506A  0000C842           const [20]: (0)
506E  01                 const type 3
506F  6487F74B           const [21]: (1274513252)
5073  04                 const type 4
5074  02                 string size (2)
5075  7800               "x\0"
                         const [22]: "x"
5077  04                 const type 4
5078  02                 string size (2)
5079  7900               "y\0"
                         const [23]: "y"
507B  03                 const type 3
507C  0000A543           const [24]: (0)
5080  01                 const type 3
5081  66D9191C           const [25]: (471456102)
5085  04                 const type 4
5086  03                 string size (3)
5087  426700             "Bg\0"
                         const [26]: "Bg"
508A  04                 const type 4
508B  07                 string size (7)
508C  5F776964746800     "_width\0"
                         const [27]: "_width"
5093  04                 const type 4
5094  07                 string size (7)
5095  426C7572657200     "Blurer\0"
                         const [28]: "Blurer"
509C  04                 const type 4
509D  05                 string size (5)
509E  48696E7400         "Hint\0"
                         const [29]: "Hint"
                         * functions:
50A3  00                 sizep (0)
                         * lines:
50A4  63                 sizelineinfo (99)
                         [pc] (line)
50A5  17                 [01] (23)
50A6  03                 [02] (24)
50A7  00                 [03] (24)
50A8  00                 [04] (24)
50A9  18                 [05] (24)
50AA  03                 [06] (24)
50AB  00                 [07] (24)
50AC  00                 [08] (24)
50AD  18                 [09] (25)
50AE  03                 [10] (25)
50AF  00                 [11] (26)
50B0  00                 [12] (26)
50B1  18                 [13] (26)
50B2  03                 [14] (26)
50B3  00                 [15] (26)
50B4  00                 [16] (26)
50B5  18                 [17] (26)
50B6  03                 [18] (27)
50B7  00                 [19] (27)
50B8  00                 [20] (27)
50B9  18                 [21] (27)
50BA  03                 [22] (27)
50BB  00                 [23] (27)
50BC  00                 [24] (28)
50BD  18                 [25] (28)
50BE  03                 [26] (30)
50BF  00                 [27] (30)
50C0  00                 [28] (30)
50C1  18                 [29] (30)
50C2  03                 [30] (30)
50C3  00                 [31] (30)
50C4  00                 [32] (30)
50C5  19                 [33] (30)
50C6  03                 [34] (30)
50C7  00                 [35] (31)
50C8  00                 [36] (31)
50C9  19                 [37] (31)
50CA  03                 [38] (31)
50CB  00                 [39] (31)
50CC  00                 [40] (31)
50CD  1A                 [41] (31)
50CE  03                 [42] (31)
50CF  00                 [43] (31)
50D0  00                 [44] (31)
50D1  1A                 [45] (31)
50D2  03                 [46] (32)
50D3  00                 [47] (32)
50D4  00                 [48] (32)
50D5  1A                 [49] (32)
50D6  03                 [50] (33)
50D7  00                 [51] (33)
50D8  00                 [52] (33)
50D9  1A                 [53] (33)
50DA  03                 [54] (33)
50DB  00                 [55] (33)
50DC  00                 [56] (34)
50DD  1A                 [57] (34)
50DE  03                 [58] (34)
50DF  00                 [59] (34)
50E0  00                 [60] (34)
50E1  1A                 [61] (34)
50E2  03                 [62] (34)
50E3  00                 [63] (34)
50E4  00                 [64] (36)
50E5  1A                 [65] (38)
50E6  03                 [66] (38)
50E7  00                 [67] (38)
50E8  00                 [68] (38)
50E9  1B                 [69] (38)
50EA  03                 [70] (38)
50EB  00                 [71] (41)
50EC  00                 [72] (41)
50ED  1B                 [73] (41)
50EE  03                 [74] (41)
50EF  00                 [75] (41)
50F0  00                 [76] (41)
50F1  1B                 [77] (42)
50F2  03                 [78] (42)
50F3  00                 [79] (42)
50F4  00                 [80] (42)
50F5  1B                 [81] (42)
50F6  03                 [82] (42)
50F7  00                 [83] (44)
50F8  00                 [84] (44)
50F9  1B                 [85] (44)
50FA  03                 [86] (44)
50FB  00                 [87] (44)
50FC  00                 [88] (44)
50FD  1B                 [89] (44)
50FE  03                 [90] (45)
50FF  00                 [91] (45)
5100  00                 [92] (45)
5101  1C                 [93] (45)
5102  03                 [94] (45)
5103  00                 [95] (45)
5104  00                 [96] (45)
5105  1C                 [97] (47)
5106  03                 [98] (47)
5107  00                 [99] (48)
                         * locals:
5231  00                 sizelocvars (0)
                         * upvalues:
5232  00                 sizeupvalues (0)
                         ** end of function **

                         
5233                     ** function [29] definition (level 2)
                         ** start of function **
5233  00                 string size (0)
                         source name: (none)
5235  06                 line defined (818)
5236  C6                 last line defined (838)
5237  06                 nups (4)
5238  04                 numparams (0)
5239  00                 is_vararg (0)
523A  00                 maxstacksize (4)
                         * code:
523C  22                 sizecode (34)
523D  1D000000           [01] getglobal  0   0        ; 849075268
5241  59400000           [02] loadk      1   1        ; "Lotus.Interface.Components.CustomizationList"
5245  22800001           [03] call       0   2   2  
5249  4E804000           [04] gettable   1   0   258  ; 1191123516
524D  9DC00000           [05] getglobal  2   3        ; mMovie
5251  D9000100           [06] loadk      3   4        ; "Settings"
5255  62808001           [07] call       1   3   2  
fail op	8
5259  48000000           [08] setupval   1   0      
525D  53000000           [09] getupval   1   0      
5261  A5000000           [10] closure    2   0      
5265  13000000           [11] getupval   0   0      
5269  13008000           [12] getupval   0   1      
526D  13000001           [13] getupval   0   2      
5271  4C808082           [14] settable   1   261 2    ; "StateChangedCallBack"
5275  53000000           [15] getupval   1   0      
5279  4E80C100           [16] gettable   1   1   262  ; "CustomizationList"
527D  93000000           [17] getupval   2   0      
5281  8E804101           [18] gettable   2   2   262  ; "CustomizationList"
5285  8E004201           [19] gettable   2   2   264  ; "OnFocused"
5289  4C808083           [20] settable   1   263 2    ; "_Settings_OnFocused"
528D  53000000           [21] getupval   1   0      
5291  4E80C100           [22] gettable   1   1   262  ; "CustomizationList"
5295  A5400000           [23] closure    2   1      
5299  13008001           [24] getupval   0   3      
529D  4C800084           [25] settable   1   264 2    ; "OnFocused"
52A1  53000000           [26] getupval   1   0      
52A5  4E80C100           [27] gettable   1   1   262  ; "CustomizationList"
52A9  6440C200           [28] self       1   1   265  ; 1782520990
52AD  62400001           [29] call       1   2   1  
52B1  53000000           [30] getupval   1   0      
52B5  4E80C200           [31] gettable   1   1   266  ; "ItemSelectionGrid"
52B9  6440C200           [32] self       1   1   265  ; 1782520990
52BD  62400001           [33] call       1   2   1  
52C1  1E008000           [34] return     0   1      
                         * constants:
52C5  0B                 sizek (11)
52C6  01                 const type 3
52C7  44DC9B32           const [0]: (849075268)
52CB  04                 const type 4
52CC  2D                 string size (45)
52CD  4C6F7475732E496E+  "Lotus.In"
52D5  746572666163652E+  "terface."
52DD  436F6D706F6E656E+  "Componen"
52E5  74732E437573746F+  "ts.Custo"
52ED  6D697A6174696F6E+  "mization"
52F5  4C69737400         "List\0"
                         const [1]: "Lotus.Interface.Components.CustomizationList"
52FA  01                 const type 3
52FB  3C1AFF46           const [2]: (1191123516)
52FF  04                 const type 4
5300  07                 string size (7)
5301  6D4D6F76696500     "mMovie\0"
                         const [3]: "mMovie"
5308  04                 const type 4
5309  09                 string size (9)
530A  53657474696E6773+  "Settings"
5312  00                 "\0"
                         const [4]: "Settings"
5313  04                 const type 4
5314  15                 string size (21)
5315  5374617465436861+  "StateCha"
531D  6E67656443616C6C+  "ngedCall"
5325  4261636B00         "Back\0"
                         const [5]: "StateChangedCallBack"
532A  04                 const type 4
532B  12                 string size (18)
532C  437573746F6D697A+  "Customiz"
5334  6174696F6E4C6973+  "ationLis"
533C  7400               "t\0"
                         const [6]: "CustomizationList"
533E  04                 const type 4
533F  14                 string size (20)
5340  5F53657474696E67+  "_Setting"
5348  735F4F6E466F6375+  "s_OnFocu"
5350  73656400           "sed\0"
                         const [7]: "_Settings_OnFocused"
5354  04                 const type 4
5355  0A                 string size (10)
5356  4F6E466F63757365+  "OnFocuse"
535E  6400               "d\0"
                         const [8]: "OnFocused"
5360  01                 const type 3
5361  9E1C3F6A           const [9]: (1782520990)
5365  04                 const type 4
5366  12                 string size (18)
5367  4974656D53656C65+  "ItemSele"
536F  6374696F6E477269+  "ctionGri"
5377  6400               "d\0"
                         const [10]: "ItemSelectionGrid"
                         * functions:
5379  02                 sizep (2)
                         
537A                     ** function [0] definition (level 3)
                         ** start of function **
537A  00                 string size (0)
                         source name: (none)
537C  06                 line defined (822)
537D  BC                 last line defined (828)
537E  06                 nups (3)
537F  03                 numparams (0)
5380  00                 is_vararg (0)
5381  00                 maxstacksize (6)
                         * code:
5383  13                 sizecode (19)
5384  1D000000           [01] getglobal  0   0        ; mMovie
5388  24404000           [02] self       0   0   257  ; 471456102
538C  99800000           [03] loadk      2   2        ; "Bg"
5390  D9C00000           [04] loadk      3   3        ; "_visible"
5394  13010000           [05] getupval   4   0      
5398  0E014102           [06] gettable   4   4   260  ; "mState"
539C  53010000           [07] getupval   5   0      
53A0  4E41C102           [08] gettable   5   5   261  ; "State"
53A4  4E81C102           [09] gettable   5   5   262  ; "CUSTOMIZATION"
fail op	35
53A8  63400102           [10] close      1  
53AC  1A000080           [11] jmp        1            ; to [13]
53B0  17410000           [12] loadbool   4   0   1    ; false, to [14]
53B4  17018000           [13] loadbool   4   1   0    ; true
53B8  22408002           [14] call       0   5   1  
53BC  13008000           [15] getupval   0   1      
53C0  22408000           [16] call       0   1   1  
53C4  13000001           [17] getupval   0   2      
53C8  22408000           [18] call       0   1   1  
53CC  1E008000           [19] return     0   1      
                         * constants:
53D0  07                 sizek (7)
53D1  04                 const type 4
53D2  07                 string size (7)
53D3  6D4D6F76696500     "mMovie\0"
                         const [0]: "mMovie"
53DA  01                 const type 3
53DB  66D9191C           const [1]: (471456102)
53DF  04                 const type 4
53E0  03                 string size (3)
53E1  426700             "Bg\0"
                         const [2]: "Bg"
53E4  04                 const type 4
53E5  09                 string size (9)
53E6  5F76697369626C65+  "_visible"
53EE  00                 "\0"
                         const [3]: "_visible"
53EF  04                 const type 4
53F0  07                 string size (7)
53F1  6D537461746500     "mState\0"
                         const [4]: "mState"
53F8  04                 const type 4
53F9  06                 string size (6)
53FA  537461746500       "State\0"
                         const [5]: "State"
5400  04                 const type 4
5401  0E                 string size (14)
5402  435553544F4D495A+  "CUSTOMIZ"
540A  4154494F4E00       "ATION\0"
                         const [6]: "CUSTOMIZATION"
                         * functions:
5410  00                 sizep (0)
                         * lines:
5411  13                 sizelineinfo (19)
                         [pc] (line)
5412  37                 [01] (55)
5413  03                 [02] (55)
5414  00                 [03] (55)
5415  00                 [04] (55)
5416  37                 [05] (55)
5417  03                 [06] (55)
5418  00                 [07] (55)
5419  00                 [08] (55)
541A  37                 [09] (55)
541B  03                 [10] (55)
541C  00                 [11] (55)
541D  00                 [12] (55)
541E  37                 [13] (55)
541F  03                 [14] (55)
5420  00                 [15] (57)
5421  00                 [16] (57)
5422  37                 [17] (59)
5423  03                 [18] (59)
5424  00                 [19] (60)
                         * locals:
545E  00                 sizelocvars (0)
                         * upvalues:
545F  00                 sizeupvalues (0)
                         ** end of function **

                         
5460                     ** function [1] definition (level 3)
                         ** start of function **
5460  00                 string size (0)
                         source name: (none)
5462  06                 line defined (831)
5463  C3                 last line defined (835)
5464  06                 nups (1)
5465  01                 numparams (2)
5466  02                 is_vararg (0)
5467  00                 maxstacksize (5)
                         * code:
5469  07                 sizecode (7)
546A  A4004000           [1] self       2   0   256  ; 1168482138
546E  12018000           [2] move       4   1      
5472  A2408001           [3] call       2   3   1  
5476  93000000           [4] getupval   2   0      
547A  CE40C000           [5] gettable   3   1   257  ; "CameraTag"
547E  A2400001           [6] call       2   2   1  
5482  1E008000           [7] return     0   1      
                         * constants:
5486  02                 sizek (2)
5487  01                 const type 3
5488  5A9FA545           const [0]: (1168482138)
548C  04                 const type 4
548D  0A                 string size (10)
548E  43616D6572615461+  "CameraTa"
5496  6700               "g\0"
                         const [1]: "CameraTag"
                         * functions:
5498  00                 sizep (0)
                         * lines:
5499  07                 sizelineinfo (7)
                         [pc] (line)
549A  40                 [1] (64)
549B  03                 [2] (64)
549C  00                 [3] (64)
549D  00                 [4] (66)
549E  40                 [5] (66)
549F  03                 [6] (66)
54A0  00                 [7] (67)
                         * locals:
54B6  00                 sizelocvars (0)
                         * upvalues:
54B7  00                 sizeupvalues (0)
                         ** end of function **

                         * lines:
54B8  22                 sizelineinfo (34)
                         [pc] (line)
54B9  33                 [01] (51)
54BA  03                 [02] (51)
54BB  00                 [03] (51)
54BC  00                 [04] (52)
54BD  33                 [05] (52)
54BE  03                 [06] (52)
54BF  00                 [07] (52)
54C0  00                 [08] (52)
54C1  33                 [09] (53)
54C2  03                 [10] (60)
54C3  00                 [11] (60)
54C4  00                 [12] (60)
54C5  34                 [13] (60)
54C6  03                 [14] (60)
54C7  00                 [15] (61)
54C8  00                 [16] (61)
54C9  34                 [17] (61)
54CA  03                 [18] (61)
54CB  00                 [19] (61)
54CC  00                 [20] (61)
54CD  34                 [21] (62)
54CE  03                 [22] (62)
54CF  00                 [23] (67)
54D0  00                 [24] (67)
54D1  34                 [25] (67)
54D2  03                 [26] (68)
54D3  00                 [27] (68)
54D4  00                 [28] (68)
54D5  34                 [29] (68)
54D6  03                 [30] (69)
54D7  00                 [31] (69)
54D8  00                 [32] (69)
54D9  35                 [33] (69)
54DA  03                 [34] (70)
                         * locals:
5541  00                 sizelocvars (0)
                         * upvalues:
5542  00                 sizeupvalues (0)
                         ** end of function **

                         
5543                     ** function [30] definition (level 2)
                         ** start of function **
5543  00                 string size (0)
                         source name: (none)
5545  06                 line defined (840)
5546  DE                 last line defined (862)
5547  06                 nups (3)
5548  03                 numparams (0)
5549  00                 is_vararg (0)
554A  00                 maxstacksize (5)
                         * code:
554C  3B                 sizecode (59)
554D  1D000000           [01] getglobal  0   0        ; mMovie
5551  24404000           [02] self       0   0   257  ; 471456102
5555  99800000           [03] loadk      2   2        ; "Hint"
5559  D9C00000           [04] loadk      3   3        ; "_width"
555D  19010100           [05] loadk      4   4        ; 0
5561  22408002           [06] call       0   5   1  
5565  1D400100           [07] getglobal  0   5        ; 849075268
5569  59800100           [08] loadk      1   6        ; "Lotus.Interface.Components.TipGenerator"
556D  22800001           [09] call       0   2   2  
5571  4EC04100           [10] gettable   1   0   263  ; 1191123516
5575  9D000000           [11] getglobal  2   0        ; mMovie
5579  D9800000           [12] loadk      3   2        ; "Hint"
557D  62808001           [13] call       1   3   2  
fail op	8
5581  48000000           [14] setupval   1   0      
5585  53000000           [15] getupval   1   0      
5589  93000000           [16] getupval   2   0      
558D  8E404201           [17] gettable   2   2   265  ; "RefreshTip"
5591  4C800084           [18] settable   1   264 2    ; "_RefreshTip"
5595  53000000           [19] getupval   1   0      
5599  A5000000           [20] closure    2   0      
559D  13008000           [21] getupval   0   1      
55A1  4C808084           [22] settable   1   265 2    ; "RefreshTip"
55A5  53000000           [23] getupval   1   0      
55A9  6480C200           [24] self       1   1   266  ; 957286486
55AD  D9C00200           [25] loadk      3   11       ; "/Lotus/Language/PersonalQuarters/FishSelectionHint"
55B1  13010000           [26] getupval   4   0      
55B5  0E014302           [27] gettable   4   4   268  ; "COMMON"
55B9  62400002           [28] call       1   4   1  
55BD  53000000           [29] getupval   1   0      
55C1  6480C200           [30] self       1   1   266  ; 957286486
55C5  D9400300           [31] loadk      3   13       ; "/Lotus/Language/PersonalQuarters/DecoRemoveHint"
55C9  13010000           [32] getupval   4   0      
55CD  0E014302           [33] gettable   4   4   268  ; "COMMON"
55D1  62400002           [34] call       1   4   1  
55D5  53000000           [35] getupval   1   0      
55D9  6480C200           [36] self       1   1   266  ; 957286486
55DD  D9800300           [37] loadk      3   14       ; "/Lotus/Language/PersonalQuarters/FishTankCapacityHint"
55E1  13010000           [38] getupval   4   0      
55E5  0E014302           [39] gettable   4   4   268  ; "COMMON"
55E9  62400002           [40] call       1   4   1  
55ED  53000000           [41] getupval   1   0      
55F1  6480C200           [42] self       1   1   266  ; 957286486
55F5  D9C00300           [43] loadk      3   15       ; "/Lotus/Language/PersonalQuarters/FishTankLargeCapacityHint"
55F9  13010000           [44] getupval   4   0      
55FD  0E014402           [45] gettable   4   4   272  ; "UNCOMMON"
5601  62400002           [46] call       1   4   1  
5605  53000000           [47] getupval   1   0      
5609  6480C200           [48] self       1   1   266  ; 957286486
560D  D9400400           [49] loadk      3   17       ; "/Lotus/Language/PersonalQuarters/FishNoTankHint"
5611  13010000           [50] getupval   4   0      
5615  0E014402           [51] gettable   4   4   272  ; "UNCOMMON"
5619  62400002           [52] call       1   4   1  
561D  53000001           [53] getupval   1   2      
5621  6480C400           [54] self       1   1   274  ; 1632191879
5625  D9C00400           [55] loadk      3   19       ; 0
5629  25410000           [56] closure    4   1      
562D  13000000           [57] getupval   0   0      
5631  62400002           [58] call       1   4   1  
5635  1E008000           [59] return     0   1      
                         * constants:
5639  14                 sizek (20)
563A  04                 const type 4
563B  07                 string size (7)
563C  6D4D6F76696500     "mMovie\0"
                         const [0]: "mMovie"
5643  01                 const type 3
5644  66D9191C           const [1]: (471456102)
5648  04                 const type 4
5649  05                 string size (5)
564A  48696E7400         "Hint\0"
                         const [2]: "Hint"
564F  04                 const type 4
5650  07                 string size (7)
5651  5F776964746800     "_width\0"
                         const [3]: "_width"
5658  03                 const type 3
5659  0000D243           const [4]: (0)
565D  01                 const type 3
565E  44DC9B32           const [5]: (849075268)
5662  04                 const type 4
5663  28                 string size (40)
5664  4C6F7475732E496E+  "Lotus.In"
566C  746572666163652E+  "terface."
5674  436F6D706F6E656E+  "Componen"
567C  74732E5469704765+  "ts.TipGe"
5684  6E657261746F7200   "nerator\0"
                         const [6]: "Lotus.Interface.Components.TipGenerator"
568C  01                 const type 3
568D  3C1AFF46           const [7]: (1191123516)
5691  04                 const type 4
5692  0C                 string size (12)
5693  5F52656672657368+  "_Refresh"
569B  54697000           "Tip\0"
                         const [8]: "_RefreshTip"
569F  04                 const type 4
56A0  0B                 string size (11)
56A1  5265667265736854+  "RefreshT"
56A9  697000             "ip\0"
                         const [9]: "RefreshTip"
56AC  01                 const type 3
56AD  56080F39           const [10]: (957286486)
56B1  04                 const type 4
56B2  33                 string size (51)
56B3  2F4C6F7475732F4C+  "/Lotus/L"
56BB  616E67756167652F+  "anguage/"
56C3  506572736F6E616C+  "Personal"
56CB  5175617274657273+  "Quarters"
56D3  2F4669736853656C+  "/FishSel"
56DB  656374696F6E4869+  "ectionHi"
56E3  6E7400             "nt\0"
                         const [11]: "/Lotus/Language/PersonalQuarters/FishSelectionHint"
56E6  04                 const type 4
56E7  07                 string size (7)
56E8  434F4D4D4F4E00     "COMMON\0"
                         const [12]: "COMMON"
56EF  04                 const type 4
56F0  30                 string size (48)
56F1  2F4C6F7475732F4C+  "/Lotus/L"
56F9  616E67756167652F+  "anguage/"
5701  506572736F6E616C+  "Personal"
5709  5175617274657273+  "Quarters"
5711  2F4465636F52656D+  "/DecoRem"
5719  6F766548696E7400   "oveHint\0"
                         const [13]: "/Lotus/Language/PersonalQuarters/DecoRemoveHint"
5721  04                 const type 4
5722  36                 string size (54)
5723  2F4C6F7475732F4C+  "/Lotus/L"
572B  616E67756167652F+  "anguage/"
5733  506572736F6E616C+  "Personal"
573B  5175617274657273+  "Quarters"
5743  2F4669736854616E+  "/FishTan"
574B  6B43617061636974+  "kCapacit"
5753  7948696E7400       "yHint\0"
                         const [14]: "/Lotus/Language/PersonalQuarters/FishTankCapacityHint"
5759  04                 const type 4
575A  3B                 string size (59)
575B  2F4C6F7475732F4C+  "/Lotus/L"
5763  616E67756167652F+  "anguage/"
576B  506572736F6E616C+  "Personal"
5773  5175617274657273+  "Quarters"
577B  2F4669736854616E+  "/FishTan"
5783  6B4C617267654361+  "kLargeCa"
578B  7061636974794869+  "pacityHi"
5793  6E7400             "nt\0"
                         const [15]: "/Lotus/Language/PersonalQuarters/FishTankLargeCapacityHint"
5796  04                 const type 4
5797  09                 string size (9)
5798  554E434F4D4D4F4E+  "UNCOMMON"
57A0  00                 "\0"
                         const [16]: "UNCOMMON"
57A1  04                 const type 4
57A2  30                 string size (48)
57A3  2F4C6F7475732F4C+  "/Lotus/L"
57AB  616E67756167652F+  "anguage/"
57B3  506572736F6E616C+  "Personal"
57BB  5175617274657273+  "Quarters"
57C3  2F466973684E6F54+  "/FishNoT"
57CB  616E6B48696E7400   "ankHint\0"
                         const [17]: "/Lotus/Language/PersonalQuarters/FishNoTankHint"
57D3  01                 const type 3
57D4  87454961           const [18]: (1632191879)
57D8  03                 const type 3
57D9  0000003F           const [19]: (0)
                         * functions:
57DD  02                 sizep (2)
                         
57DE                     ** function [0] definition (level 3)
                         ** start of function **
57DE  00                 string size (0)
                         source name: (none)
57E0  06                 line defined (847)
57E1  D3                 last line defined (851)
57E2  06                 nups (1)
57E3  01                 numparams (1)
57E4  01                 is_vararg (0)
57E5  00                 maxstacksize (3)
                         * code:
57E7  05                 sizecode (5)
57E8  64004000           [1] self       1   0   256  ; -2053685199
57EC  62400001           [2] call       1   2   1  
57F0  53000000           [3] getupval   1   0      
57F4  62408000           [4] call       1   1   1  
57F8  1E008000           [5] return     0   1      
                         * constants:
57FC  01                 sizek (1)
57FD  01                 const type 3
57FE  31409785           const [0]: (-2053685199)
                         * functions:
5802  00                 sizep (0)
                         * lines:
5803  05                 sizelineinfo (5)
                         [pc] (line)
5804  50                 [1] (80)
5805  03                 [2] (80)
5806  00                 [3] (82)
5807  00                 [4] (82)
5808  50                 [5] (83)
                         * locals:
5818  00                 sizelocvars (0)
                         * upvalues:
5819  00                 sizeupvalues (0)
                         ** end of function **

                         
581A                     ** function [1] definition (level 3)
                         ** start of function **
581A  00                 string size (0)
                         source name: (none)
581C  06                 line defined (859)
581D  DD                 last line defined (861)
581E  06                 nups (1)
581F  01                 numparams (0)
5820  00                 is_vararg (0)
5821  00                 maxstacksize (2)
                         * code:
5823  04                 sizecode (4)
5824  13000000           [1] getupval   0   0      
5828  24004000           [2] self       0   0   256  ; 1868177976
582C  22400001           [3] call       0   2   1  
5830  1E008000           [4] return     0   1      
                         * constants:
5834  01                 sizek (1)
5835  01                 const type 3
5836  38225A6F           const [0]: (1868177976)
                         * functions:
583A  00                 sizep (0)
                         * lines:
583B  04                 sizelineinfo (4)
                         [pc] (line)
583C  5C                 [1] (92)
583D  03                 [2] (92)
583E  00                 [3] (92)
583F  00                 [4] (93)
                         * locals:
584C  00                 sizelocvars (0)
                         * upvalues:
584D  00                 sizeupvalues (0)
                         ** end of function **

                         * lines:
584E  3B                 sizelineinfo (59)
                         [pc] (line)
584F  49                 [01] (73)
5850  03                 [02] (73)
5851  00                 [03] (73)
5852  00                 [04] (73)
5853  49                 [05] (73)
5854  03                 [06] (73)
5855  00                 [07] (75)
5856  00                 [08] (75)
5857  49                 [09] (75)
5858  03                 [10] (76)
5859  00                 [11] (76)
585A  00                 [12] (76)
585B  49                 [13] (76)
585C  03                 [14] (76)
585D  00                 [15] (77)
585E  00                 [16] (77)
585F  49                 [17] (77)
5860  03                 [18] (77)
5861  00                 [19] (78)
5862  00                 [20] (83)
5863  49                 [21] (83)
5864  03                 [22] (83)
5865  00                 [23] (84)
5866  00                 [24] (84)
5867  4B                 [25] (84)
5868  03                 [26] (84)
5869  00                 [27] (84)
586A  00                 [28] (84)
586B  4B                 [29] (85)
586C  03                 [30] (85)
586D  00                 [31] (85)
586E  00                 [32] (85)
586F  4B                 [33] (85)
5870  03                 [34] (85)
5871  00                 [35] (86)
5872  00                 [36] (86)
5873  4C                 [37] (86)
5874  03                 [38] (86)
5875  00                 [39] (86)
5876  00                 [40] (86)
5877  4C                 [41] (87)
5878  03                 [42] (87)
5879  00                 [43] (87)
587A  00                 [44] (87)
587B  4C                 [45] (87)
587C  03                 [46] (87)
587D  00                 [47] (88)
587E  00                 [48] (88)
587F  4C                 [49] (88)
5880  03                 [50] (88)
5881  00                 [51] (88)
5882  00                 [52] (88)
5883  4C                 [53] (90)
5884  03                 [54] (90)
5885  00                 [55] (90)
5886  00                 [56] (93)
5887  4D                 [57] (93)
5888  03                 [58] (90)
5889  00                 [59] (94)
                         * locals:
593B  00                 sizelocvars (0)
                         * upvalues:
593C  00                 sizeupvalues (0)
                         ** end of function **

                         
593D                     ** function [31] definition (level 2)
                         ** start of function **
593D  00                 string size (0)
                         source name: (none)
593F  06                 line defined (864)
5940  A1                 last line defined (929)
5941  07                 nups (18)
5942  12                 numparams (0)
5943  00                 is_vararg (0)
5944  00                 maxstacksize (21)
                         * code:
5947  01                 sizecode (225)
5948  13000000           [001] getupval   0   0      
594C  0E004000           [002] gettable   0   0   256  ; 630793108
5950  5D400000           [003] getglobal  1   1        ; _G
5954  4E80C000           [004] gettable   1   1   258  ; "UISound_Open"
5958  22400001           [005] call       0   2   1  
595C  1DC00000           [006] getglobal  0   3        ; mMovie
5960  24004100           [007] self       0   0   260  ; -403402525
5964  99400100           [008] loadk      2   5        ; 0
5968  22408001           [009] call       0   3   1  
596C  1DC00000           [010] getglobal  0   3        ; mMovie
5970  24804100           [011] self       0   0   262  ; -266877948
5974  99400100           [012] loadk      2   5        ; 0
5978  22408001           [013] call       0   3   1  
597C  1DC00100           [014] getglobal  0   7        ; 1074689893
5980  5D000200           [015] getglobal  1   8        ; _T
5984  4E40C200           [016] gettable   1   1   265  ; "EnableUIInput"
5988  22800001           [017] call       0   2   2  
598C  18400000           [018] test       0       1    ; to [20] if false
5990  1A800080           [019] jmp        3            ; to [23]
5994  1D000200           [020] getglobal  0   8        ; _T
5998  0E804200           [021] gettable   0   0   266  ; -1898916515
599C  22408000           [022] call       0   1   1  
59A0  1DC00200           [023] getglobal  0   11       ; gPlayerProfileMgr
59A4  24004300           [024] self       0   0   268  ; 569342746
59A8  99400100           [025] loadk      2   5        ; 0
59AC  22808001           [026] call       0   3   2  
59B0  5DC00100           [027] getglobal  1   7        ; 1074689893
59B4  92000000           [028] move       2   0      
59B8  62800001           [029] call       1   2   2  
59BC  58000000           [030] test       1       0    ; to [32] if true
59C0  1A000080           [031] jmp        1            ; to [33]
59C4  1E008000           [032] return     0   1      
59C8  64404300           [033] self       1   0   269  ; 1699680402
59CC  62800001           [034] call       1   2   2  
fail op	8
59D0  48008000           [035] setupval   1   1      
59D4  5DC00100           [036] getglobal  1   7        ; 1074689893
59D8  93008000           [037] getupval   2   1      
59DC  62800001           [038] call       1   2   2  
59E0  58000000           [039] test       1       0    ; to [41] if true
59E4  1A000080           [040] jmp        1            ; to [42]
59E8  1E008000           [041] return     0   1      
59EC  5D800300           [042] getglobal  1   14       ; gGameRules
59F0  64C0C300           [043] self       1   1   271  ; 1861369943
59F4  D7008000           [044] loadbool   3   1   0    ; true
59F8  62408001           [045] call       1   3   1  
59FC  5D000400           [046] getglobal  1   16       ; 849075268
5A00  99400400           [047] loadk      2   17       ; "Lotus.Interface.Libs.TimerMgr"
5A04  62800001           [048] call       1   2   2  
5A08  8E80C400           [049] gettable   2   1   274  ; -1029178688
5A0C  A2808000           [050] call       2   1   2  
fail op	8
5A10  88000001           [051] setupval   2   2      
5A14  9DC00000           [052] getglobal  2   3        ; mMovie
5A18  A4C04401           [053] self       2   2   275  ; 2115970775
5A1C  19010500           [054] loadk      4   20       ; "Bg"
5A20  5D410500           [055] getglobal  5   21       ; bgMaterial
5A24  A2400002           [056] call       2   4   1  
5A28  9DC00000           [057] getglobal  2   3        ; mMovie
5A2C  A4C04401           [058] self       2   2   275  ; 2115970775
5A30  19810500           [059] loadk      4   22       ; "Blurer"
5A34  5D410500           [060] getglobal  5   21       ; bgMaterial
5A38  A2400002           [061] call       2   4   1  
5A3C  9DC00000           [062] getglobal  2   3        ; mMovie
5A40  A4C04501           [063] self       2   2   279  ; 471456102
5A44  19010500           [064] loadk      4   20       ; "Bg"
5A48  59010600           [065] loadk      5   24       ; "_color"
5A4C  9D410000           [066] getglobal  6   1        ; _G
5A50  8E414603           [067] gettable   6   6   281  ; "UIColor_Black"
5A54  A2408002           [068] call       2   5   1  
5A58  9DC00000           [069] getglobal  2   3        ; mMovie
5A5C  A4C04501           [070] self       2   2   279  ; 471456102
5A60  19010500           [071] loadk      4   20       ; "Bg"
5A64  59810600           [072] loadk      5   26       ; "_alpha"
5A68  99C10600           [073] loadk      6   27       ; 0
5A6C  A2408002           [074] call       2   5   1  
5A70  9D000700           [075] getglobal  2   28       ; -174740002
5A74  DDC00000           [076] getglobal  3   3        ; mMovie
5A78  E440C701           [077] self       3   3   285  ; 1803241227
5A7C  59010500           [078] loadk      5   20       ; "Bg"
5A80  99810700           [079] loadk      6   30       ; "_y"
5A84  E2000002           [080] call       3   4   0  
5A88  A2800000           [081] call       2   0   2  
5A8C  DD000700           [082] getglobal  3   28       ; -174740002
5A90  1DC10000           [083] getglobal  4   3        ; mMovie
5A94  24414702           [084] self       4   4   285  ; 1803241227
5A98  99C10700           [085] loadk      6   31       ; "Settings"
5A9C  D9810700           [086] loadk      7   30       ; "_y"
5AA0  22010002           [087] call       4   4   0  
5AA4  E2800000           [088] call       3   0   2  
5AA8  8DC00001           [089] sub        2   2   3  
fail op	8
5AAC  88008001           [090] setupval   2   3      
5AB0  93000002           [091] getupval   2   4      
5AB4  A2408000           [092] call       2   1   1  
5AB8  93008000           [093] getupval   2   1      
5ABC  A4004801           [094] self       2   2   288  ; 1865287165
5AC0  A2800001           [095] call       2   2   2  
fail op	8
5AC4  88008002           [096] setupval   2   5      
5AC8  93008000           [097] getupval   2   1      
5ACC  A4404801           [098] self       2   2   289  ; 339600978
5AD0  17018000           [099] loadbool   4   1   0    ; true
5AD4  A2808001           [100] call       2   3   2  
fail op	8
5AD8  88000003           [101] setupval   2   6      
5ADC  93008003           [102] getupval   2   7      
5AE0  D3000003           [103] getupval   3   6      
5AE4  CEC0C801           [104] gettable   3   3   291  ; "mVignette"
5AE8  8CC00091           [105] settable   2   290 3    ; "Vignette"
5AEC  93000004           [106] getupval   2   8      
5AF0  D3000003           [107] getupval   3   6      
5AF4  CE40C901           [108] gettable   3   3   293  ; "mWallpaper"
5AF8  8CC00092           [109] settable   2   292 3    ; "Wallpaper"
5AFC  9D800300           [110] getglobal  2   14       ; gGameRules
5B00  A4804901           [111] self       2   2   294  ; -1049586730
5B04  A2800001           [112] call       2   2   2  
fail op	8
5B08  88008004           [113] setupval   2   9      
5B0C  93000003           [114] getupval   2   6      
5B10  8EC04901           [115] gettable   2   2   295  ; "mVignetteFish"
5B14  D9000A00           [116] loadk      3   40       ; 0
5B18  13010005           [117] getupval   4   10     
5B1C  53018005           [118] getupval   5   11     
5B20  04410102           [119] mul        4   4   5  
5B24  59010A00           [120] loadk      5   40       ; 0
5B28  D0800280           [121] forprep    3   11       ; to [133]
5B2C  DD410A00           [122] getglobal  7   41       ; table
5B30  CE81CA03           [123] gettable   7   7   298  ; -431682403
5B34  13020006           [124] getupval   8   12     
5B38  0EC24A04           [125] gettable   8   8   299  ; "Fishes"
5B3C  59020B00           [126] loadk      9   44       ; ""
5B40  E2418001           [127] call       7   3   1  
5B44  DD410A00           [128] getglobal  7   41       ; table
5B48  CE81CA03           [129] gettable   7   7   298  ; -431682403
5B4C  13028006           [130] getupval   8   13     
5B50  59020B00           [131] loadk      9   44       ; ""
5B54  E2418001           [132] call       7   3   1  
5B58  D4C0FC7F           [133] forloop    3   -12      ; to [122] if loop
5B5C  DDC10100           [134] getglobal  7   7        ; 1074689893
5B60  12020001           [135] move       8   2      
5B64  E2810001           [136] call       7   2   2  
5B68  D8410000           [137] test       7       1    ; to [139] if false
5B6C  1A800380           [138] jmp        15           ; to [154]
5B70  DD410B00           [139] getglobal  7   45       ; 248503575
5B74  12020001           [140] move       8   2      
5B78  E2010101           [141] call       7   2   4  
5B7C  1A000280           [142] jmp        9            ; to [152]
5B80  13038004           [143] getupval   12  9      
5B84  24834B06           [144] self       12  12  302  ; 1660666296
5B88  92038005           [145] move       14  11     
5B8C  22838001           [146] call       12  3   2  
5B90  53038006           [147] getupval   13  13     
5B94  4C030305           [148] settable   13  10  12 
5B98  53030006           [149] getupval   13  12     
5B9C  4EC3CA06           [150] gettable   13  13  299  ; "Fishes"
5BA0  4C030305           [151] settable   13  10  12 
5BA4  D6810000           [152] tforloop   7       2    ; to [154] if exit
5BA8  1A00FD7F           [153] jmp        -11          ; to [143]
5BAC  5D030400           [154] getglobal  13  16       ; 849075268
5BB0  99C30B00           [155] loadk      14  47       ; "EE.Interface.AnchorMgr"
5BB4  62830001           [156] call       13  2   2  
5BB8  8E03CC06           [157] gettable   14  13  304  ; 1191123516
5BBC  DDC30000           [158] getglobal  15  3        ; mMovie
5BC0  A2830001           [159] call       14  2   2  
fail op	8
5BC4  88030007           [160] setupval   14  14     
5BC8  93030007           [161] getupval   14  14     
5BCC  A4434C07           [162] self       14  14  305  ; -1716902634
5BD0  1DC40000           [163] getglobal  16  3        ; mMovie
5BD4  59840C00           [164] loadk      17  50       ; "Spinner"
5BD8  8B040001           [165] newtable   18  2   0    ; array=2, hash=0
5BDC  D3040007           [166] getupval   19  14     
5BE0  CEC4CC09           [167] gettable   19  19  307  ; "ANCHOR_V_CENTRE"
5BE4  13050007           [168] getupval   20  14     
5BE8  0E054D0A           [169] gettable   20  20  308  ; "ANCHOR_H_CENTRE"
5BEC  9B440001           [170] setlist    18  2   1    ; index 1 to 2
5BF0  A2438002           [171] call       14  5   1  
5BF4  93030007           [172] getupval   14  14     
5BF8  A4434C07           [173] self       14  14  305  ; -1716902634
5BFC  1DC40000           [174] getglobal  16  3        ; mMovie
5C00  59C40700           [175] loadk      17  31       ; "Settings"
5C04  8B040001           [176] newtable   18  2   0    ; array=2, hash=0
5C08  D3040007           [177] getupval   19  14     
5C0C  CE44CD09           [178] gettable   19  19  309  ; "ANCHOR_V_TOP"
5C10  13050007           [179] getupval   20  14     
5C14  0E854D0A           [180] gettable   20  20  310  ; "ANCHOR_H_LEFT"
5C18  9B440001           [181] setlist    18  2   1    ; index 1 to 2
5C1C  A2438002           [182] call       14  5   1  
5C20  93030007           [183] getupval   14  14     
5C24  A4434C07           [184] self       14  14  305  ; -1716902634
5C28  1DC40000           [185] getglobal  16  3        ; mMovie
5C2C  59040500           [186] loadk      17  20       ; "Bg"
5C30  8B040001           [187] newtable   18  2   0    ; array=2, hash=0
5C34  D3040007           [188] getupval   19  14     
5C38  CE44CD09           [189] gettable   19  19  309  ; "ANCHOR_V_TOP"
5C3C  13050007           [190] getupval   20  14     
5C40  0E854D0A           [191] gettable   20  20  310  ; "ANCHOR_H_LEFT"
5C44  9B440001           [192] setlist    18  2   1    ; index 1 to 2
5C48  A2438002           [193] call       14  5   1  
5C4C  93030007           [194] getupval   14  14     
5C50  A4434C07           [195] self       14  14  305  ; -1716902634
5C54  1DC40000           [196] getglobal  16  3        ; mMovie
5C58  59C40D00           [197] loadk      17  55       ; "Hint"
5C5C  8B048000           [198] newtable   18  1   0    ; array=1, hash=0
5C60  D3040007           [199] getupval   19  14     
5C64  CE84CD09           [200] gettable   19  19  310  ; "ANCHOR_H_LEFT"
5C68  9B448000           [201] setlist    18  1   1    ; index 1 to 1
5C6C  A2438002           [202] call       14  5   1  
5C70  93030007           [203] getupval   14  14     
5C74  A4034E07           [204] self       14  14  312  ; -1938777623
5C78  1DC40000           [205] getglobal  16  3        ; mMovie
5C7C  24444E08           [206] self       16  16  313  ; -174729759
5C80  22840001           [207] call       16  2   2  
5C84  5DC40000           [208] getglobal  17  3        ; mMovie
5C88  6484CE08           [209] self       17  17  314  ; -301556379
5C8C  62040001           [210] call       17  2   0  
5C90  A2430000           [211] call       14  0   1  
5C94  9D030400           [212] getglobal  14  16       ; 849075268
5C98  D9C30E00           [213] loadk      15  59       ; "Lotus.Interface.Components.ThemedSpinner"
5C9C  A2830001           [214] call       14  2   2  
5CA0  CE034C07           [215] gettable   15  14  304  ; 1191123516
5CA4  1DC40000           [216] getglobal  16  3        ; mMovie
5CA8  59840C00           [217] loadk      17  50       ; "Spinner"
5CAC  E2838001           [218] call       15  3   2  
fail op	8
5CB0  C8038007           [219] setupval   15  15     
5CB4  D3030008           [220] getupval   15  16     
5CB8  E2438000           [221] call       15  1   1  
5CBC  D3038008           [222] getupval   15  17     
5CC0  17048000           [223] loadbool   16  1   0    ; true
5CC4  E2430001           [224] call       15  2   1  
5CC8  1E008000           [225] return     0   1      
                         * constants:
5CCC  3C                 sizek (60)
5CCD  01                 const type 3
5CCE  94239925           const [0]: (630793108)
5CD2  04                 const type 4
5CD3  03                 string size (3)
5CD4  5F4700             "_G\0"
                         const [1]: "_G"
5CD7  04                 const type 4
5CD8  0D                 string size (13)
5CD9  5549536F756E645F+  "UISound_"
5CE1  4F70656E00         "Open\0"
                         const [2]: "UISound_Open"
5CE6  04                 const type 4
5CE7  07                 string size (7)
5CE8  6D4D6F76696500     "mMovie\0"
                         const [3]: "mMovie"
5CEF  01                 const type 3
5CF0  E390F4E7           const [4]: (-403402525)
5CF4  03                 const type 3
5CF5  00000000           const [5]: (0)
5CF9  01                 const type 3
5CFA  04C417F0           const [6]: (-266877948)
5CFE  01                 const type 3
5CFF  65770E40           const [7]: (1074689893)
5D03  04                 const type 4
5D04  03                 string size (3)
5D05  5F5400             "_T\0"
                         const [8]: "_T"
5D08  04                 const type 4
5D09  0E                 string size (14)
5D0A  456E61626C655549+  "EnableUI"
5D12  496E70757400       "Input\0"
                         const [9]: "EnableUIInput"
5D18  01                 const type 3
5D19  5DD5D08E           const [10]: (-1898916515)
5D1D  04                 const type 4
5D1E  12                 string size (18)
5D1F  67506C6179657250+  "gPlayerP"
5D27  726F66696C654D67+  "rofileMg"
5D2F  7200               "r\0"
                         const [11]: "gPlayerProfileMgr"
5D31  01                 const type 3
5D32  1A7BEF21           const [12]: (569342746)
5D36  01                 const type 3
5D37  92104F65           const [13]: (1699680402)
5D3B  04                 const type 4
5D3C  0B                 string size (11)
5D3D  6747616D6552756C+  "gGameRul"
5D45  657300             "es\0"
                         const [14]: "gGameRules"
5D48  01                 const type 3
5D49  5740F26E           const [15]: (1861369943)
5D4D  01                 const type 3
5D4E  44DC9B32           const [16]: (849075268)
5D52  04                 const type 4
5D53  1E                 string size (30)
5D54  4C6F7475732E496E+  "Lotus.In"
5D5C  746572666163652E+  "terface."
5D64  4C6962732E54696D+  "Libs.Tim"
5D6C  65724D677200       "erMgr\0"
                         const [17]: "Lotus.Interface.Libs.TimerMgr"
5D72  01                 const type 3
5D73  C0FAA7C2           const [18]: (-1029178688)
5D77  01                 const type 3
5D78  D7261F7E           const [19]: (2115970775)
5D7C  04                 const type 4
5D7D  03                 string size (3)
5D7E  426700             "Bg\0"
                         const [20]: "Bg"
5D81  04                 const type 4
5D82  0B                 string size (11)
5D83  62674D6174657269+  "bgMateri"
5D8B  616C00             "al\0"
                         const [21]: "bgMaterial"
5D8E  04                 const type 4
5D8F  07                 string size (7)
5D90  426C7572657200     "Blurer\0"
                         const [22]: "Blurer"
5D97  01                 const type 3
5D98  66D9191C           const [23]: (471456102)
5D9C  04                 const type 4
5D9D  07                 string size (7)
5D9E  5F636F6C6F7200     "_color\0"
                         const [24]: "_color"
5DA5  04                 const type 4
5DA6  0E                 string size (14)
5DA7  5549436F6C6F725F+  "UIColor_"
5DAF  426C61636B00       "Black\0"
                         const [25]: "UIColor_Black"
5DB5  04                 const type 4
5DB6  07                 string size (7)
5DB7  5F616C70686100     "_alpha\0"
                         const [26]: "_alpha"
5DBE  03                 const type 3
5DBF  00004842           const [27]: (0)
5DC3  01                 const type 3
5DC4  DEAD95F5           const [28]: (-174740002)
5DC8  01                 const type 3
5DC9  0B477B6B           const [29]: (1803241227)
5DCD  04                 const type 4
5DCE  03                 string size (3)
5DCF  5F7900             "_y\0"
                         const [30]: "_y"
5DD2  04                 const type 4
5DD3  09                 string size (9)
5DD4  53657474696E6773+  "Settings"
5DDC  00                 "\0"
                         const [31]: "Settings"
5DDD  01                 const type 3
5DDE  FD052E6F           const [32]: (1865287165)
5DE2  01                 const type 3
5DE3  52E63D14           const [33]: (339600978)
5DE7  04                 const type 4
5DE8  09                 string size (9)
5DE9  5669676E65747465+  "Vignette"
5DF1  00                 "\0"
                         const [34]: "Vignette"
5DF2  04                 const type 4
5DF3  0A                 string size (10)
5DF4  6D5669676E657474+  "mVignett"
5DFC  6500               "e\0"
                         const [35]: "mVignette"
5DFE  04                 const type 4
5DFF  0A                 string size (10)
5E00  57616C6C70617065+  "Wallpape"
5E08  7200               "r\0"
                         const [36]: "Wallpaper"
5E0A  04                 const type 4
5E0B  0B                 string size (11)
5E0C  6D57616C6C706170+  "mWallpap"
5E14  657200             "er\0"
                         const [37]: "mWallpaper"
5E17  01                 const type 3
5E18  D69370C1           const [38]: (-1049586730)
5E1C  04                 const type 4
5E1D  0E                 string size (14)
5E1E  6D5669676E657474+  "mVignett"
5E26  654669736800       "eFish\0"
                         const [39]: "mVignetteFish"
5E2C  03                 const type 3
5E2D  0000803F           const [40]: (0)
5E31  04                 const type 4
5E32  06                 string size (6)
5E33  7461626C6500       "table\0"
                         const [41]: "table"
5E39  01                 const type 3
5E3A  9D0C45E6           const [42]: (-431682403)
5E3E  04                 const type 4
5E3F  07                 string size (7)
5E40  46697368657300     "Fishes\0"
                         const [43]: "Fishes"
5E47  04                 const type 4
5E48  01                 string size (0)
                         const [44]: ""
5E4A  01                 const type 3
5E4B  17DDCF0E           const [45]: (248503575)
5E4F  01                 const type 3
5E50  B8C1FB62           const [46]: (1660666296)
5E54  04                 const type 4
5E55  17                 string size (23)
5E56  45452E496E746572+  "EE.Inter"
5E5E  666163652E416E63+  "face.Anc"
5E66  686F724D677200     "horMgr\0"
                         const [47]: "EE.Interface.AnchorMgr"
5E6D  01                 const type 3
5E6E  3C1AFF46           const [48]: (1191123516)
5E72  01                 const type 3
5E73  1625AA99           const [49]: (-1716902634)
5E77  04                 const type 4
5E78  08                 string size (8)
5E79  5370696E6E657200   "Spinner\0"
                         const [50]: "Spinner"
5E81  04                 const type 4
5E82  10                 string size (16)
5E83  414E43484F525F56+  "ANCHOR_V"
5E8B  5F43454E54524500   "_CENTRE\0"
                         const [51]: "ANCHOR_V_CENTRE"
5E93  04                 const type 4
5E94  10                 string size (16)
5E95  414E43484F525F48+  "ANCHOR_H"
5E9D  5F43454E54524500   "_CENTRE\0"
                         const [52]: "ANCHOR_H_CENTRE"
5EA5  04                 const type 4
5EA6  0D                 string size (13)
5EA7  414E43484F525F56+  "ANCHOR_V"
5EAF  5F544F5000         "_TOP\0"
                         const [53]: "ANCHOR_V_TOP"
5EB4  04                 const type 4
5EB5  0E                 string size (14)
5EB6  414E43484F525F48+  "ANCHOR_H"
5EBE  5F4C45465400       "_LEFT\0"
                         const [54]: "ANCHOR_H_LEFT"
5EC4  04                 const type 4
5EC5  05                 string size (5)
5EC6  48696E7400         "Hint\0"
                         const [55]: "Hint"
5ECB  01                 const type 3
5ECC  E999708C           const [56]: (-1938777623)
5ED0  01                 const type 3
5ED1  E1D595F5           const [57]: (-174729759)
5ED5  01                 const type 3
5ED6  659D06EE           const [58]: (-301556379)
5EDA  04                 const type 4
5EDB  29                 string size (41)
5EDC  4C6F7475732E496E+  "Lotus.In"
5EE4  746572666163652E+  "terface."
5EEC  436F6D706F6E656E+  "Componen"
5EF4  74732E5468656D65+  "ts.Theme"
5EFC  645370696E6E6572+  "dSpinner"
5F04  00                 "\0"
                         const [59]: "Lotus.Interface.Components.ThemedSpinner"
                         * functions:
5F05  00                 sizep (0)
                         * lines:
5F07  01                 sizelineinfo (225)
                         [pc] (line)
5F08  61                 [001] (97)
5F09  03                 [002] (97)
5F0A  00                 [003] (97)
5F0B  00                 [004] (97)
5F0C  61                 [005] (97)
5F0D  03                 [006] (99)
5F0E  00                 [007] (99)
5F0F  00                 [008] (99)
5F10  61                 [009] (99)
5F11  03                 [010] (100)
5F12  00                 [011] (100)
5F13  00                 [012] (100)
5F14  61                 [013] (100)
5F15  03                 [014] (102)
5F16  00                 [015] (102)
5F17  00                 [016] (102)
5F18  61                 [017] (102)
5F19  03                 [018] (102)
5F1A  00                 [019] (102)
5F1B  00                 [020] (103)
5F1C  63                 [021] (103)
5F1D  03                 [022] (103)
5F1E  00                 [023] (106)
5F1F  00                 [024] (106)
5F20  63                 [025] (106)
5F21  03                 [026] (106)
5F22  00                 [027] (107)
5F23  00                 [028] (107)
5F24  63                 [029] (107)
5F25  03                 [030] (107)
5F26  00                 [031] (107)
5F27  00                 [032] (108)
5F28  63                 [033] (110)
5F29  03                 [034] (110)
5F2A  00                 [035] (110)
5F2B  00                 [036] (111)
5F2C  64                 [037] (111)
5F2D  03                 [038] (111)
5F2E  00                 [039] (111)
5F2F  00                 [040] (111)
5F30  64                 [041] (112)
5F31  03                 [042] (115)
5F32  00                 [043] (115)
5F33  00                 [044] (115)
5F34  64                 [045] (115)
5F35  03                 [046] (117)
5F36  00                 [047] (117)
5F37  00                 [048] (117)
5F38  64                 [049] (118)
5F39  03                 [050] (118)
5F3A  00                 [051] (118)
5F3B  00                 [052] (120)
5F3C  66                 [053] (120)
5F3D  03                 [054] (120)
5F3E  00                 [055] (120)
5F3F  00                 [056] (120)
5F40  66                 [057] (121)
5F41  03                 [058] (121)
5F42  00                 [059] (121)
5F43  00                 [060] (121)
5F44  66                 [061] (121)
5F45  03                 [062] (122)
5F46  00                 [063] (122)
5F47  00                 [064] (122)
5F48  66                 [065] (122)
5F49  03                 [066] (122)
5F4A  00                 [067] (122)
5F4B  00                 [068] (122)
5F4C  66                 [069] (123)
5F4D  03                 [070] (123)
5F4E  00                 [071] (123)
5F4F  00                 [072] (123)
5F50  66                 [073] (123)
5F51  03                 [074] (123)
5F52  00                 [075] (124)
5F53  00                 [076] (124)
5F54  67                 [077] (124)
5F55  03                 [078] (124)
5F56  00                 [079] (124)
5F57  00                 [080] (124)
5F58  67                 [081] (124)
5F59  03                 [082] (124)
5F5A  00                 [083] (124)
5F5B  00                 [084] (124)
5F5C  67                 [085] (124)
5F5D  03                 [086] (124)
5F5E  00                 [087] (124)
5F5F  00                 [088] (124)
5F60  6A                 [089] (124)
5F61  03                 [090] (124)
5F62  00                 [091] (126)
5F63  00                 [092] (126)
5F64  6A                 [093] (-128)
5F65  03                 [094] (-128)
5F66  00                 [095] (-128)
5F67  00                 [096] (-128)
5F68  6A                 [097] (-127)
5F69  03                 [098] (-127)
5F6A  00                 [099] (-127)
5F6B  00                 [100] (-127)
5F6C  6A                 [101] (-127)
5F6D  03                 [102] (-126)
5F6E  00                 [103] (-126)
5F6F  00                 [104] (-126)
5F70  6B                 [105] (-126)
5F71  03                 [106] (-125)
5F72  00                 [107] (-125)
5F73  00                 [108] (-125)
5F74  6B                 [109] (-125)
5F75  03                 [110] (-124)
5F76  00                 [111] (-124)
5F77  00                 [112] (-124)
5F78  6B                 [113] (-124)
5F79  03                 [114] (-122)
5F7A  00                 [115] (-122)
5F7B  00                 [116] (-121)
5F7C  6B                 [117] (-121)
5F7D  03                 [118] (-121)
5F7E  00                 [119] (-121)
5F7F  00                 [120] (-121)
5F80  6B                 [121] (-121)
5F81  03                 [122] (-120)
5F82  00                 [123] (-120)
5F83  00                 [124] (-120)
5F84  6C                 [125] (-120)
5F85  03                 [126] (-120)
5F86  00                 [127] (-120)
5F87  00                 [128] (-119)
5F88  6E                 [129] (-119)
5F89  03                 [130] (-119)
5F8A  00                 [131] (-119)
5F8B  00                 [132] (-119)
5F8C  6E                 [133] (-121)
5F8D  03                 [134] (-116)
5F8E  00                 [135] (-116)
5F8F  00                 [136] (-116)
5F90  6E                 [137] (-116)
5F91  03                 [138] (-116)
5F92  00                 [139] (-115)
5F93  00                 [140] (-115)
5F94  6F                 [141] (-115)
5F95  03                 [142] (-115)
5F96  00                 [143] (-114)
5F97  00                 [144] (-114)
5F98  6F                 [145] (-114)
5F99  03                 [146] (-114)
5F9A  00                 [147] (-113)
5F9B  00                 [148] (-113)
5F9C  6F                 [149] (-112)
5F9D  03                 [150] (-112)
5F9E  00                 [151] (-112)
5F9F  00                 [152] (-115)
5FA0  6F                 [153] (-112)
5FA1  03                 [154] (-108)
5FA2  00                 [155] (-108)
5FA3  00                 [156] (-108)
5FA4  6F                 [157] (-107)
5FA5  03                 [158] (-107)
5FA6  00                 [159] (-107)
5FA7  00                 [160] (-107)
5FA8  70                 [161] (-106)
5FA9  03                 [162] (-106)
5FAA  00                 [163] (-106)
5FAB  00                 [164] (-106)
5FAC  73                 [165] (-106)
5FAD  03                 [166] (-106)
5FAE  00                 [167] (-106)
5FAF  00                 [168] (-106)
5FB0  73                 [169] (-106)
5FB1  03                 [170] (-106)
5FB2  00                 [171] (-106)
5FB3  00                 [172] (-105)
5FB4  73                 [173] (-105)
5FB5  03                 [174] (-105)
5FB6  00                 [175] (-105)
5FB7  00                 [176] (-105)
5FB8  73                 [177] (-105)
5FB9  03                 [178] (-105)
5FBA  00                 [179] (-105)
5FBB  00                 [180] (-105)
5FBC  75                 [181] (-105)
5FBD  03                 [182] (-105)
5FBE  00                 [183] (-104)
5FBF  00                 [184] (-104)
5FC0  75                 [185] (-104)
5FC1  03                 [186] (-104)
5FC2  00                 [187] (-104)
5FC3  00                 [188] (-104)
5FC4  75                 [189] (-104)
5FC5  03                 [190] (-104)
5FC6  00                 [191] (-104)
5FC7  00                 [192] (-104)
5FC8  76                 [193] (-104)
5FC9  03                 [194] (-103)
5FCA  00                 [195] (-103)
5FCB  00                 [196] (-103)
5FCC  76                 [197] (-103)
5FCD  03                 [198] (-103)
5FCE  00                 [199] (-103)
5FCF  00                 [200] (-103)
5FD0  76                 [201] (-103)
5FD1  03                 [202] (-103)
5FD2  00                 [203] (-102)
5FD3  00                 [204] (-102)
5FD4  78                 [205] (-102)
5FD5  03                 [206] (-102)
5FD6  00                 [207] (-102)
5FD7  00                 [208] (-102)
5FD8  78                 [209] (-102)
5FD9  03                 [210] (-102)
5FDA  00                 [211] (-102)
5FDB  00                 [212] (-100)
5FDC  78                 [213] (-100)
5FDD  03                 [214] (-100)
5FDE  00                 [215] (-99)
5FDF  00                 [216] (-99)
5FE0  78                 [217] (-99)
5FE1  03                 [218] (-99)
5FE2  00                 [219] (-99)
5FE3  00                 [220] (-97)
5FE4  78                 [221] (-97)
5FE5  03                 [222] (-96)
5FE6  00                 [223] (-96)
5FE7  00                 [224] (-96)
5FE8  79                 [225] (-95)
                         * locals:
628C  00                 sizelocvars (0)
                         * upvalues:
628D  00                 sizeupvalues (0)
                         ** end of function **

                         
628E                     ** function [32] definition (level 2)
                         ** start of function **
628E  00                 string size (0)
                         source name: (none)
6290  07                 line defined (931)
6291  AB                 last line defined (939)
6292  07                 nups (1)
6293  01                 numparams (0)
6294  00                 is_vararg (0)
6295  00                 maxstacksize (3)
                         * code:
6297  12                 sizecode (18)
6298  1D000000           [01] getglobal  0   0        ; 1074689893
629C  53000000           [02] getupval   1   0      
62A0  22800001           [03] call       0   2   2  
62A4  18400000           [04] test       0       1    ; to [6] if false
62A8  1A800080           [05] jmp        3            ; to [9]
62AC  13000000           [06] getupval   0   0      
62B0  24404000           [07] self       0   0   257  ; -1517569684
62B4  22400001           [08] call       0   2   1  
62B8  1D000000           [09] getglobal  0   0        ; 1074689893
62BC  5D800000           [10] getglobal  1   2        ; gGameRules
62C0  22800001           [11] call       0   2   2  
62C4  18400000           [12] test       0       1    ; to [14] if false
62C8  1AC00080           [13] jmp        4            ; to [18]
62CC  1D800000           [14] getglobal  0   2        ; gGameRules
62D0  24C04000           [15] self       0   0   259  ; 1861369943
62D4  97000000           [16] loadbool   2   0   0    ; false
62D8  22408001           [17] call       0   3   1  
62DC  1E008000           [18] return     0   1      
                         * constants:
62E0  04                 sizek (4)
62E1  01                 const type 3
62E2  65770E40           const [0]: (1074689893)
62E6  01                 const type 3
62E7  6CB98BA5           const [1]: (-1517569684)
62EB  04                 const type 4
62EC  0B                 string size (11)
62ED  6747616D6552756C+  "gGameRul"
62F5  657300             "es\0"
                         const [2]: "gGameRules"
62F8  01                 const type 3
62F9  5740F26E           const [3]: (1861369943)
                         * functions:
62FD  00                 sizep (0)
                         * lines:
62FE  12                 sizelineinfo (18)
                         [pc] (line)
62FF  A4                 [01] (-92)
6300  03                 [02] (-92)
6301  00                 [03] (-92)
6302  00                 [04] (-92)
6303  A4                 [05] (-92)
6304  03                 [06] (-91)
6305  00                 [07] (-91)
6306  00                 [08] (-91)
6307  A4                 [09] (-88)
6308  03                 [10] (-88)
6309  00                 [11] (-88)
630A  00                 [12] (-88)
630B  A4                 [13] (-88)
630C  03                 [14] (-87)
630D  00                 [15] (-87)
630E  00                 [16] (-87)
630F  A4                 [17] (-87)
6310  03                 [18] (-85)
                         * locals:
6347  00                 sizelocvars (0)
                         * upvalues:
6348  00                 sizeupvalues (0)
                         ** end of function **

                         
6349                     ** function [33] definition (level 2)
                         ** start of function **
6349  00                 string size (0)
                         source name: (none)
634B  07                 line defined (941)
634C  B8                 last line defined (952)
634D  07                 nups (5)
634E  05                 numparams (0)
634F  00                 is_vararg (0)
6350  00                 maxstacksize (15)
                         * code:
6352  22                 sizecode (34)
6353  19000000           [01] loadk      0   0        ; 0
6357  53000000           [02] getupval   1   0      
635B  4D40C000           [03] sub        1   1   257  ; 0
635F  99400000           [04] loadk      2   1        ; 0
6363  10800680           [05] forprep    0   27       ; to [33]
6367  19410000           [06] loadk      4   1        ; 0
636B  53018000           [07] getupval   5   1      
636F  99410000           [08] loadk      6   1        ; 0
6373  10410580           [09] forprep    4   22       ; to [32]
6377  06020004           [10] loadnil    8   8      
637B  53020001           [11] getupval   9   2      
637F  93028000           [12] getupval   10  1      
6383  84C20005           [13] mul        10  10  3  
6387  83828203           [14] add        10  7   10 
638B  4E828204           [15] gettable   9   9   10 
fail op	35
638F  6380C004           [16] close      1  
6393  1A400180           [17] jmp        6            ; to [24]
6397  93028001           [18] getupval   10  3      
639B  8EC24005           [19] gettable   10  10  259  ; 715365706
639F  D2028004           [20] move       11  9      
63A3  1D030100           [21] getglobal  12  4        ; fishInfoManifest
63A7  A2828001           [22] call       10  3   2  
63AB  12020005           [23] move       8   10     
63AF  93020002           [24] getupval   10  4      
63B3  DD420100           [25] getglobal  11  5        ; 2083004503
63B7  12030004           [26] move       12  8      
63BB  E2820001           [27] call       11  2   2  
63BF  12038003           [28] move       12  7      
63C3  52038001           [29] move       13  3      
63C7  92038004           [30] move       14  9      
63CB  A2428002           [31] call       10  5   1  
63CF  1401FA7F           [32] forloop    4   -23      ; to [10] if loop
63D3  14C0F87F           [33] forloop    0   -28      ; to [6] if loop
63D7  1E008000           [34] return     0   1      
                         * constants:
63DB  06                 sizek (6)
63DC  03                 const type 3
63DD  00000000           const [0]: (0)
63E1  03                 const type 3
63E2  0000803F           const [1]: (0)
63E6  04                 const type 4
63E7  01                 string size (0)
                         const [2]: ""
63E9  01                 const type 3
63EA  4A9DA32A           const [3]: (715365706)
63EE  04                 const type 4
63EF  11                 string size (17)
63F0  66697368496E666F+  "fishInfo"
63F8  4D616E6966657374+  "Manifest"
6400  00                 "\0"
                         const [4]: "fishInfoManifest"
6401  01                 const type 3
6402  5720287C           const [5]: (2083004503)
                         * functions:
6406  00                 sizep (0)
                         * lines:
6407  22                 sizelineinfo (34)
                         [pc] (line)
6408  AE                 [01] (-82)
6409  03                 [02] (-82)
640A  00                 [03] (-82)
640B  00                 [04] (-82)
640C  AE                 [05] (-82)
640D  03                 [06] (-81)
640E  00                 [07] (-81)
640F  00                 [08] (-81)
6410  AE                 [09] (-81)
6411  03                 [10] (-80)
6412  00                 [11] (-79)
6413  00                 [12] (-79)
6414  AE                 [13] (-79)
6415  03                 [14] (-79)
6416  00                 [15] (-79)
6417  00                 [16] (-78)
6418  AE                 [17] (-78)
6419  03                 [18] (-77)
641A  00                 [19] (-77)
641B  00                 [20] (-77)
641C  AF                 [21] (-77)
641D  03                 [22] (-77)
641E  00                 [23] (-77)
641F  00                 [24] (-75)
6420  AF                 [25] (-75)
6421  03                 [26] (-75)
6422  00                 [27] (-75)
6423  00                 [28] (-75)
6424  AF                 [29] (-75)
6425  03                 [30] (-75)
6426  00                 [31] (-75)
6427  00                 [32] (-81)
6428  AF                 [33] (-82)
6429  03                 [34] (-72)
                         * locals:
6490  00                 sizelocvars (0)
                         * upvalues:
6491  00                 sizeupvalues (0)
                         ** end of function **

                         
6492                     ** function [34] definition (level 2)
                         ** start of function **
6492  00                 string size (0)
                         source name: (none)
6494  07                 line defined (954)
6495  D7                 last line defined (983)
6496  07                 nups (15)
6497  0F                 numparams (0)
6498  00                 is_vararg (0)
6499  00                 maxstacksize (13)
                         * code:
649B  4F                 sizecode (79)
649C  13000000           [01] getupval   0   0      
64A0  0D004000           [02] sub        0   0   256  ; 0
fail op	8
64A4  08000000           [03] setupval   0   0      
64A8  13000000           [04] getupval   0   0      
fail op	35
64AC  23404000           [05] close      0  
64B0  1AC01180           [06] jmp        72           ; to [79]
64B4  13008000           [07] getupval   0   1      
64B8  24804000           [08] self       0   0   258  ; -492641364
64BC  97000000           [09] loadbool   2   0   0    ; false
64C0  22408001           [10] call       0   3   1  
64C4  13000001           [11] getupval   0   2      
64C8  18000000           [12] test       0       0    ; to [14] if true
64CC  1A800180           [13] jmp        7            ; to [21]
64D0  13008001           [14] getupval   0   3      
64D4  0EC04000           [15] gettable   0   0   259  ; "ResetFish"
64D8  18000000           [16] test       0       0    ; to [18] if true
64DC  1A800080           [17] jmp        3            ; to [21]
64E0  13000002           [18] getupval   0   4      
64E4  22408000           [19] call       0   1   1  
64E8  1A400A80           [20] jmp        42           ; to [63]
64EC  13000001           [21] getupval   0   2      
64F0  18400000           [22] test       0       1    ; to [24] if false
64F4  1A800980           [23] jmp        39           ; to [63]
64F8  13008002           [24] getupval   0   5      
64FC  0E004100           [25] gettable   0   0   260  ; "Vignette"
6500  53000003           [26] getupval   1   6      
fail op	35
6504  23400000           [27] close      0  
6508  1A400880           [28] jmp        34           ; to [63]
650C  19000000           [29] loadk      0   0        ; 0
6510  53008003           [30] getupval   1   7      
6514  99000000           [31] loadk      2   0        ; 0
6518  10000780           [32] forprep    0   29       ; to [62]
651C  13018003           [33] getupval   4   7      
6520  53010004           [34] getupval   5   8      
6524  4E41C102           [35] gettable   5   5   261  ; "MAIN"
6528  04410102           [36] mul        4   4   5  
652C  03018101           [37] add        4   3   4  
6530  53018004           [38] getupval   5   9      
6534  4E81C102           [39] gettable   5   5   262  ; "Fishes"
6538  4E018102           [40] gettable   5   5   4  
fail op	35
653C  63C0C102           [41] close      1  
6540  1A800480           [42] jmp        19           ; to [62]
6544  93010005           [43] getupval   6   10     
6548  8E014203           [44] gettable   6   6   264  ; 715365706
654C  D2018002           [45] move       7   5      
6550  1D420200           [46] getglobal  8   9        ; fishInfoManifest
6554  A2818001           [47] call       6   3   2  
6558  DD810200           [48] getglobal  7   10       ; 1074689893
655C  12020003           [49] move       8   6      
6560  E2810001           [50] call       7   2   2  
6564  D8410000           [51] test       7       1    ; to [53] if false
6568  1A000280           [52] jmp        9            ; to [62]
656C  D3018005           [53] getupval   7   11     
6570  1DC20200           [54] getglobal  8   11       ; 2083004503
6574  52020003           [55] move       9   6      
6578  22820001           [56] call       8   2   2  
657C  52028001           [57] move       9   3      
6580  93020004           [58] getupval   10  8      
6584  8E424105           [59] gettable   10  10  261  ; "MAIN"
6588  D2028002           [60] move       11  5      
658C  E2418002           [61] call       7   5   1  
6590  1440F87F           [62] forloop    0   -30      ; to [33] if loop
6594  D3010001           [63] getupval   7   2      
6598  D8010000           [64] test       7       0    ; to [66] if true
659C  1AC00080           [65] jmp        4            ; to [70]
65A0  D3010006           [66] getupval   7   12     
65A4  17028000           [67] loadbool   8   1   0    ; true
65A8  E2410001           [68] call       7   2   1  
65AC  1A000280           [69] jmp        9            ; to [79]
65B0  D3018006           [70] getupval   7   13     
65B4  CE01C303           [71] gettable   7   7   268  ; -617354062
65B8  1D420300           [72] getglobal  8   13       ; mMovie
65BC  59420000           [73] loadk      9   1        ; 0
65C0  99820300           [74] loadk      10  14       ; 0
65C4  D9420000           [75] loadk      11  1        ; 0
65C8  25030000           [76] closure    12  0      
65CC  13000007           [77] getupval   0   14     
65D0  E2410003           [78] call       7   6   1  
65D4  1E008000           [79] return     0   1      
                         * constants:
65D8  0F                 sizek (15)
65D9  03                 const type 3
65DA  0000803F           const [0]: (0)
65DE  03                 const type 3
65DF  00000000           const [1]: (0)
65E3  01                 const type 3
65E4  ACE3A2E2           const [2]: (-492641364)
65E8  04                 const type 4
65E9  0A                 string size (10)
65EA  5265736574466973+  "ResetFis"
65F2  6800               "h\0"
                         const [3]: "ResetFish"
65F4  04                 const type 4
65F5  09                 string size (9)
65F6  5669676E65747465+  "Vignette"
65FE  00                 "\0"
                         const [4]: "Vignette"
65FF  04                 const type 4
6600  05                 string size (5)
6601  4D41494E00         "MAIN\0"
                         const [5]: "MAIN"
6606  04                 const type 4
6607  07                 string size (7)
6608  46697368657300     "Fishes\0"
                         const [6]: "Fishes"
660F  04                 const type 4
6610  01                 string size (0)
                         const [7]: ""
6612  01                 const type 3
6613  4A9DA32A           const [8]: (715365706)
6617  04                 const type 4
6618  11                 string size (17)
6619  66697368496E666F+  "fishInfo"
6621  4D616E6966657374+  "Manifest"
6629  00                 "\0"
                         const [9]: "fishInfoManifest"
662A  01                 const type 3
662B  65770E40           const [10]: (1074689893)
662F  01                 const type 3
6630  5720287C           const [11]: (2083004503)
6634  01                 const type 3
6635  B2EC33DB           const [12]: (-617354062)
6639  04                 const type 4
663A  07                 string size (7)
663B  6D4D6F76696500     "mMovie\0"
                         const [13]: "mMovie"
6642  03                 const type 3
6643  0000803E           const [14]: (0)
                         * functions:
6647  01                 sizep (1)
                         
6648                     ** function [0] definition (level 3)
                         ** start of function **
6648  00                 string size (0)
                         source name: (none)
664A  07                 line defined (978)
664B  D4                 last line defined (980)
664C  07                 nups (1)
664D  01                 numparams (0)
664E  00                 is_vararg (0)
664F  00                 maxstacksize (2)
                         * code:
6651  03                 sizecode (3)
6652  17000000           [1] loadbool   0   0   0    ; false
fail op	8
6656  08000000           [2] setupval   0   0      
665A  1E008000           [3] return     0   1      
                         * constants:
665E  00                 sizek (0)
                         * functions:
665F  00                 sizep (0)
                         * lines:
6660  03                 sizelineinfo (3)
                         [pc] (line)
6661  D3                 [1] (-45)
6662  03                 [2] (-45)
6663  00                 [3] (-44)
                         * locals:
666D  00                 sizelocvars (0)
                         * upvalues:
666E  00                 sizeupvalues (0)
                         ** end of function **

                         * lines:
666F  4F                 sizelineinfo (79)
                         [pc] (line)
6670  BB                 [01] (-69)
6671  03                 [02] (-69)
6672  00                 [03] (-69)
6673  00                 [04] (-68)
6674  BB                 [05] (-68)
6675  03                 [06] (-68)
6676  00                 [07] (-67)
6677  00                 [08] (-67)
6678  BB                 [09] (-67)
6679  03                 [10] (-67)
667A  00                 [11] (-65)
667B  00                 [12] (-65)
667C  BC                 [13] (-65)
667D  03                 [14] (-65)
667E  00                 [15] (-65)
667F  00                 [16] (-65)
6680  BC                 [17] (-65)
6681  03                 [18] (-64)
6682  00                 [19] (-64)
6683  00                 [20] (-64)
6684  BC                 [21] (-63)
6685  03                 [22] (-63)
6686  00                 [23] (-63)
6687  00                 [24] (-63)
6688  BD                 [25] (-63)
6689  03                 [26] (-63)
668A  00                 [27] (-63)
668B  00                 [28] (-63)
668C  BD                 [29] (-62)
668D  03                 [30] (-62)
668E  00                 [31] (-62)
668F  00                 [32] (-62)
6690  BD                 [33] (-61)
6691  03                 [34] (-61)
6692  00                 [35] (-61)
6693  00                 [36] (-61)
6694  BD                 [37] (-61)
6695  03                 [38] (-60)
6696  00                 [39] (-60)
6697  00                 [40] (-60)
6698  BF                 [41] (-59)
6699  03                 [42] (-59)
669A  00                 [43] (-58)
669B  00                 [44] (-58)
669C  BF                 [45] (-58)
669D  03                 [46] (-58)
669E  00                 [47] (-58)
669F  00                 [48] (-57)
66A0  BF                 [49] (-57)
66A1  03                 [50] (-57)
66A2  00                 [51] (-57)
66A3  00                 [52] (-57)
66A4  BF                 [53] (-56)
66A5  03                 [54] (-56)
66A6  00                 [55] (-56)
66A7  00                 [56] (-56)
66A8  BF                 [57] (-56)
66A9  03                 [58] (-56)
66AA  00                 [59] (-56)
66AB  00                 [60] (-56)
66AC  BF                 [61] (-56)
66AD  03                 [62] (-62)
66AE  00                 [63] (-50)
66AF  00                 [64] (-50)
66B0  BF                 [65] (-50)
66B1  03                 [66] (-49)
66B2  00                 [67] (-49)
66B3  00                 [68] (-49)
66B4  C0                 [69] (-49)
66B5  03                 [70] (-47)
66B6  00                 [71] (-47)
66B7  00                 [72] (-47)
66B8  C0                 [73] (-47)
66B9  03                 [74] (-47)
66BA  00                 [75] (-47)
66BB  00                 [76] (-44)
66BC  C0                 [77] (-44)
66BD  03                 [78] (-47)
66BE  00                 [79] (-41)
                         * locals:
67AC  00                 sizelocvars (0)
                         * upvalues:
67AD  00                 sizeupvalues (0)
                         ** end of function **

                         
67AE                     ** function [35] definition (level 2)
                         ** start of function **
67AE  00                 string size (0)
                         source name: (none)
67B0  07                 line defined (985)
67B1  DB                 last line defined (987)
67B2  07                 nups (1)
67B3  01                 numparams (2)
67B4  02                 is_vararg (0)
67B5  00                 maxstacksize (3)
                         * code:
67B7  03                 sizecode (3)
67B8  93000000           [1] getupval   2   0      
67BC  A2408000           [2] call       2   1   1  
67C0  1E008000           [3] return     0   1      
                         * constants:
67C4  00                 sizek (0)
                         * functions:
67C5  00                 sizep (0)
                         * lines:
67C6  03                 sizelineinfo (3)
                         [pc] (line)
67C7  DA                 [1] (-38)
67C8  03                 [2] (-38)
67C9  00                 [3] (-37)
                         * locals:
67D3  00                 sizelocvars (0)
                         * upvalues:
67D4  00                 sizeupvalues (0)
                         ** end of function **

                         
67D5                     ** function [36] definition (level 2)
                         ** start of function **
67D5  00                 string size (0)
                         source name: (none)
67D7  07                 line defined (989)
67D8  DF                 last line defined (991)
67D9  07                 nups (1)
67DA  01                 numparams (2)
67DB  02                 is_vararg (0)
67DC  00                 maxstacksize (3)
                         * code:
67DE  03                 sizecode (3)
67DF  93000000           [1] getupval   2   0      
67E3  A2408000           [2] call       2   1   1  
67E7  1E008000           [3] return     0   1      
                         * constants:
67EB  00                 sizek (0)
                         * functions:
67EC  00                 sizep (0)
                         * lines:
67ED  03                 sizelineinfo (3)
                         [pc] (line)
67EE  DE                 [1] (-34)
67EF  03                 [2] (-34)
67F0  00                 [3] (-33)
                         * locals:
67FA  00                 sizelocvars (0)
                         * upvalues:
67FB  00                 sizeupvalues (0)
                         ** end of function **

                         
67FC                     ** function [37] definition (level 2)
                         ** start of function **
67FC  00                 string size (0)
                         source name: (none)
67FE  07                 line defined (993)
67FF  F4                 last line defined (1012)
6800  07                 nups (1)
6801  01                 numparams (1)
6802  01                 is_vararg (0)
6803  00                 maxstacksize (11)
                         * code:
6805  18                 sizecode (24)
6806  93000000           [01] getupval   2   0      
680A  A2808000           [02] call       2   1   2  
680E  DD000000           [03] getglobal  3   0        ; 1074689893
6812  12010001           [04] move       4   2      
6816  E2800001           [05] call       3   2   2  
681A  D8000000           [06] test       3       0    ; to [8] if true
681E  1A000080           [07] jmp        1            ; to [9]
6822  5E000001           [08] return     1   2      
6826  E4404001           [09] self       3   2   257  ; -1284295806
682A  E2800001           [10] call       3   2   2  
682E  19810000           [11] loadk      4   2        ; 0
6832  4A018001           [12] len        5   3      
6836  99810000           [13] loadk      6   2        ; 0
683A  10810180           [14] forprep    4   7        ; to [22]
683E  0EC28101           [15] gettable   8   3   7  
6842  64C24004           [16] self       9   8   259  ; -631671221
6846  62820001           [17] call       9   2   2  
fail op	35
684A  23008004           [18] close      0  
684E  1A400080           [19] jmp        2            ; to [22]
6852  52000004           [20] move       1   8      
6856  1A000080           [21] jmp        1            ; to [23]
685A  14C1FD7F           [22] forloop    4   -8       ; to [15] if loop
685E  5E000001           [23] return     1   2      
6862  1E008000           [24] return     0   1      
                         * constants:
6866  04                 sizek (4)
6867  01                 const type 3
6868  65770E40           const [0]: (1074689893)
686C  01                 const type 3
686D  823373B3           const [1]: (-1284295806)
6871  03                 const type 3
6872  0000803F           const [2]: (0)
6876  01                 const type 3
6877  4B7659DA           const [3]: (-631671221)
                         * functions:
687B  00                 sizep (0)
                         * lines:
687C  18                 sizelineinfo (24)
                         [pc] (line)
687D  E3                 [01] (-29)
687E  03                 [02] (-29)
687F  00                 [03] (-28)
6880  00                 [04] (-28)
6881  E3                 [05] (-28)
6882  03                 [06] (-28)
6883  00                 [07] (-28)
6884  00                 [08] (-27)
6885  E4                 [09] (-25)
6886  03                 [10] (-25)
6887  00                 [11] (-23)
6888  00                 [12] (-23)
6889  E4                 [13] (-23)
688A  03                 [14] (-23)
688B  00                 [15] (-22)
688C  00                 [16] (-21)
688D  E4                 [17] (-21)
688E  03                 [18] (-21)
688F  00                 [19] (-21)
6890  00                 [20] (-20)
6891  E4                 [21] (-18)
6892  03                 [22] (-23)
6893  00                 [23] (-13)
6894  00                 [24] (-12)
                         * locals:
68DD  00                 sizelocvars (0)
                         * upvalues:
68DE  00                 sizeupvalues (0)
                         ** end of function **

                         
68DF                     ** function [38] definition (level 2)
                         ** start of function **
68DF  00                 string size (0)
                         source name: (none)
68E1  07                 line defined (1014)
68E2  BB                 last line defined (1083)
68E3  08                 nups (8)
68E4  08                 numparams (5)
68E5  05                 is_vararg (0)
68E6  00                 maxstacksize (23)
                         * code:
68E9  01                 sizecode (227)
68EA  53010000           [001] getupval   5   0      
68EE  92010001           [002] move       6   2      
68F2  62810001           [003] call       5   2   2  
68F6  9D010000           [004] getglobal  6   0        ; 1074689893
68FA  D2018002           [005] move       7   5      
68FE  A2810001           [006] call       6   2   2  
6902  98010000           [007] test       6       0    ; to [9] if true
6906  1A000080           [008] jmp        1            ; to [10]
690A  1E008000           [009] return     0   1      
690E  86010003           [010] loadnil    6   6      
fail op	35
6912  2340C000           [011] close      0  
6916  1AC02C80           [012] jmp        180          ; to [193]
691A  CB010000           [013] newtable   7   0   0    ; array=0, hash=0
691E  1D020000           [014] getglobal  8   0        ; 1074689893
6922  52028001           [015] move       9   3      
6926  22820001           [016] call       8   2   2  
692A  18420000           [017] test       8       1    ; to [19] if false
692E  1AC00280           [018] jmp        12           ; to [31]
6932  2482C001           [019] self       8   3   258  ; 1643286702
6936  22820001           [020] call       8   2   2  
693A  5DC20000           [021] getglobal  9   3        ; Lotus_Game
693E  4E02C104           [022] gettable   9   9   260  ; "SpearFishingFishInfo_SP_WEIGHT"
fail op	35
6942  23400204           [023] close      0  
6946  1A400180           [024] jmp        6            ; to [31]
694A  2442C101           [025] self       8   3   261  ; 1608801400
694E  22820001           [026] call       8   2   2  
6952  5DC20000           [027] getglobal  9   3        ; Lotus_Game
6956  4E82C104           [028] gettable   9   9   262  ; "FishItem_FPC_HIGH"
fail op	35
695A  63400204           [029] close      1  
695E  1A000080           [030] jmp        1            ; to [32]
6962  17420000           [031] loadbool   8   0   1    ; false, to [33]
6966  17028000           [032] loadbool   8   1   0    ; true
696A  18020000           [033] test       8       0    ; to [35] if true
696E  1AC01680           [034] jmp        92           ; to [127]
6972  53028000           [035] getupval   9   1      
6976  4EC2C104           [036] gettable   9   9   263  ; "CurrTank"
697A  93020001           [037] getupval   10  2      
697E  8E024205           [038] gettable   10  10  264  ; "SIDE"
fail op	35
6982  23808204           [039] close      0  
6986  1A800A80           [040] jmp        43           ; to [84]
698A  53028000           [041] getupval   9   1      
698E  4E42C204           [042] gettable   9   9   265  ; "Fishes"
6992  4E82C204           [043] gettable   9   9   266  ; 0
fail op	35
6996  63C0C204           [044] close      1  
699A  1A000280           [045] jmp        9            ; to [55]
699E  53028000           [046] getupval   9   1      
69A2  4E42C204           [047] gettable   9   9   265  ; "Fishes"
69A6  4E82C204           [048] gettable   9   9   266  ; 0
69AA  6442C104           [049] self       9   9   261  ; 1608801400
69AE  62820001           [050] call       9   2   2  
69B2  9DC20000           [051] getglobal  10  3        ; Lotus_Game
69B6  8E824105           [052] gettable   10  10  262  ; "FishItem_FPC_HIGH"
fail op	35
69BA  63808204           [053] close      1  
69BE  1A800180           [054] jmp        7            ; to [62]
69C2  5D020300           [055] getglobal  9   12       ; table
69C6  4E42C304           [056] gettable   9   9   269  ; -431682403
69CA  92028003           [057] move       10  7      
69CE  CB820000           [058] newtable   11  0   2    ; array=0, hash=2
69D2  CC824287           [059] settable   11  270 266  ; "Path" 0
69D6  CC82C287           [060] settable   11  271 266  ; "Index" 0
69DA  62428001           [061] call       9   3   1  
69DE  53028000           [062] getupval   9   1      
69E2  4E42C204           [063] gettable   9   9   265  ; "Fishes"
69E6  4E02C404           [064] gettable   9   9   272  ; 0
fail op	35
69EA  63C0C204           [065] close      1  
69EE  1A000280           [066] jmp        9            ; to [76]
69F2  53028000           [067] getupval   9   1      
69F6  4E42C204           [068] gettable   9   9   265  ; "Fishes"
69FA  4E02C404           [069] gettable   9   9   272  ; 0
69FE  6442C104           [070] self       9   9   261  ; 1608801400
6A02  62820001           [071] call       9   2   2  
6A06  9DC20000           [072] getglobal  10  3        ; Lotus_Game
6A0A  8E824105           [073] gettable   10  10  262  ; "FishItem_FPC_HIGH"
fail op	35
6A0E  63808204           [074] close      1  
6A12  1A801280           [075] jmp        75           ; to [151]
6A16  5D020300           [076] getglobal  9   12       ; table
6A1A  4E42C304           [077] gettable   9   9   269  ; -431682403
6A1E  92028003           [078] move       10  7      
6A22  CB820000           [079] newtable   11  0   2    ; array=0, hash=2
6A26  CC024487           [080] settable   11  270 272  ; "Path" 0
6A2A  CC02C487           [081] settable   11  271 272  ; "Index" 0
6A2E  62428001           [082] call       9   3   1  
6A32  1A801080           [083] jmp        67           ; to [151]
6A36  53028000           [084] getupval   9   1      
6A3A  4E42C204           [085] gettable   9   9   265  ; "Fishes"
6A3E  4E42C404           [086] gettable   9   9   273  ; 0
fail op	35
6A42  63C0C204           [087] close      1  
6A46  1A000280           [088] jmp        9            ; to [98]
6A4A  53028000           [089] getupval   9   1      
6A4E  4E42C204           [090] gettable   9   9   265  ; "Fishes"
6A52  4E42C404           [091] gettable   9   9   273  ; 0
6A56  6442C104           [092] self       9   9   261  ; 1608801400
6A5A  62820001           [093] call       9   2   2  
6A5E  9DC20000           [094] getglobal  10  3        ; Lotus_Game
6A62  8E824105           [095] gettable   10  10  262  ; "FishItem_FPC_HIGH"
fail op	35
6A66  63808204           [096] close      1  
6A6A  1A800180           [097] jmp        7            ; to [105]
6A6E  5D020300           [098] getglobal  9   12       ; table
6A72  4E42C304           [099] gettable   9   9   269  ; -431682403
6A76  92028003           [100] move       10  7      
6A7A  CB820000           [101] newtable   11  0   2    ; array=0, hash=2
6A7E  CC824487           [102] settable   11  270 274  ; "Path" 0
6A82  CC42C487           [103] settable   11  271 273  ; "Index" 0
6A86  62428001           [104] call       9   3   1  
6A8A  53028000           [105] getupval   9   1      
6A8E  4E42C204           [106] gettable   9   9   265  ; "Fishes"
6A92  4EC2C404           [107] gettable   9   9   275  ; 0
fail op	35
6A96  63C0C204           [108] close      1  
6A9A  1A000280           [109] jmp        9            ; to [119]
6A9E  53028000           [110] getupval   9   1      
6AA2  4E42C204           [111] gettable   9   9   265  ; "Fishes"
6AA6  4EC2C404           [112] gettable   9   9   275  ; 0
6AAA  6442C104           [113] self       9   9   261  ; 1608801400
6AAE  62820001           [114] call       9   2   2  
6AB2  9DC20000           [115] getglobal  10  3        ; Lotus_Game
6AB6  8E824105           [116] gettable   10  10  262  ; "FishItem_FPC_HIGH"
fail op	35
6ABA  63808204           [117] close      1  
6ABE  1AC00780           [118] jmp        32           ; to [151]
6AC2  5D020300           [119] getglobal  9   12       ; table
6AC6  4E42C304           [120] gettable   9   9   269  ; -431682403
6ACA  92028003           [121] move       10  7      
6ACE  CB820000           [122] newtable   11  0   2    ; array=0, hash=2
6AD2  CC024587           [123] settable   11  270 276  ; "Path" 0
6AD6  CCC2C487           [124] settable   11  271 275  ; "Index" 0
6ADA  62428001           [125] call       9   3   1  
6ADE  1AC00580           [126] jmp        24           ; to [151]
6AE2  59420500           [127] loadk      9   21       ; 0
6AE6  93028001           [128] getupval   10  3      
6AEA  D9420500           [129] loadk      11  21       ; 0
6AEE  50820480           [130] forprep    9   19       ; to [150]
fail op	35
6AF2  63404002           [131] close      1  
6AF6  1A400080           [132] jmp        2            ; to [135]
fail op	35
6AFA  63000106           [133] close      1  
6AFE  1A800380           [134] jmp        15           ; to [150]
6B02  53030002           [135] getupval   13  4      
6B06  92030006           [136] move       14  12     
6B0A  62830001           [137] call       13  2   2  
6B0E  93038000           [138] getupval   14  1      
6B12  8E434207           [139] gettable   14  14  265  ; "Fishes"
6B16  8E430307           [140] gettable   14  14  13 
fail op	35
6B1A  23C04207           [141] close      0  
6B1E  1A800180           [142] jmp        7            ; to [150]
6B22  9D030300           [143] getglobal  14  12       ; table
6B26  8E434307           [144] gettable   14  14  269  ; -431682403
6B2A  D2038003           [145] move       15  7      
6B2E  0B840000           [146] newtable   16  0   2    ; array=0, hash=2
6B32  0C040387           [147] settable   16  270 12   ; "Path"
6B36  0C448387           [148] settable   16  271 13   ; "Index"
6B3A  A2438001           [149] call       14  3   1  
6B3E  54C2FA7F           [150] forloop    9   -20      ; to [131] if loop
6B42  8A038003           [151] len        14  7      
fail op	35
6B46  23804507           [152] close      0  
6B4A  1A000080           [153] jmp        1            ; to [155]
6B4E  1E008000           [154] return     0   1      
6B52  9DC30500           [155] getglobal  14  23       ; 2144646525
6B56  D9430500           [156] loadk      15  21       ; 0
6B5A  0A048003           [157] len        16  7      
6B5E  A2838001           [158] call       14  3   2  
6B62  CE838303           [159] gettable   15  7   14 
6B66  4E80C307           [160] gettable   1   15  270  ; "Path"
6B6A  CE838303           [161] gettable   15  7   14 
6B6E  8EC1C307           [162] gettable   6   15  271  ; "Index"
6B72  18020000           [163] test       8       0    ; to [165] if true
6B76  1AC00680           [164] jmp        28           ; to [193]
6B7A  D3038000           [165] getupval   15  1      
6B7E  CE43C207           [166] gettable   15  15  265  ; "Fishes"
6B82  CE838107           [167] gettable   15  15  6  
fail op	35
6B86  63C0C207           [168] close      1  
6B8A  1A800580           [169] jmp        23           ; to [193]
6B8E  D3038002           [170] getupval   15  5      
6B92  CE03C607           [171] gettable   15  15  280  ; 715365706
6B96  13048000           [172] getupval   16  1      
6B9A  0E444208           [173] gettable   16  16  265  ; "Fishes"
6B9E  0E840108           [174] gettable   16  16  6  
6BA2  5D440600           [175] getglobal  17  25       ; fishInfoManifest
6BA6  E2838001           [176] call       15  3   2  
6BAA  13040003           [177] getupval   16  6      
6BAE  5D840600           [178] getglobal  17  26       ; 2083004503
6BB2  92048007           [179] move       18  15     
6BB6  62840001           [180] call       17  2   2  
6BBA  86048009           [181] loadnil    18  19     
6BBE  13058000           [182] getupval   20  1      
6BC2  0E45420A           [183] gettable   20  20  265  ; "Fishes"
6BC6  0E85010A           [184] gettable   20  20  6  
6BCA  52058000           [185] move       21  1      
6BCE  22840003           [186] call       16  6   2  
6BD2  53048000           [187] getupval   17  1      
6BD6  4E44C208           [188] gettable   17  17  265  ; "Fishes"
6BDA  93048000           [189] getupval   18  1      
6BDE  8E444209           [190] gettable   18  18  265  ; "Fishes"
6BE2  8E840109           [191] gettable   18  18  6  
6BE6  4C840408           [192] settable   17  16  18 
6BEA  5DC40600           [193] getglobal  17  27       ; -332969190
6BEE  99040700           [194] loadk      18  28       ; "GAME_C1_FISH"
6BF2  DD440700           [195] getglobal  19  29       ; -1615931716
6BF6  12058000           [196] move       20  1      
6BFA  E2840001           [197] call       19  2   2  
6BFE  82C40409           [198] concat     18  18  19 
6C02  62840001           [199] call       17  2   2  
6C06  93048003           [200] getupval   18  7      
6C0A  D2048008           [201] move       19  17     
6C0E  A2840001           [202] call       18  2   2  
6C12  DD040000           [203] getglobal  19  0        ; 1074689893
6C16  12050009           [204] move       20  18     
6C1A  E2840001           [205] call       19  2   2  
6C1E  D8440000           [206] test       19      1    ; to [208] if false
6C22  1AC00080           [207] jmp        4            ; to [212]
6C26  DD840700           [208] getglobal  19  30       ; gRegion
6C2A  E4C4C709           [209] self       19  19  287  ; -1693828985
6C2E  52050009           [210] move       21  18     
6C32  E2448001           [211] call       19  3   1  
6C36  DD040000           [212] getglobal  19  0        ; 1074689893
6C3A  12050000           [213] move       20  0      
6C3E  E2840001           [214] call       19  2   2  
6C42  D8440000           [215] test       19      1    ; to [217] if false
6C46  1A000280           [216] jmp        9            ; to [226]
6C4A  E404C802           [217] self       19  5   288  ; -1421644046
6C4E  52050000           [218] move       21  0      
6C52  92058008           [219] move       22  17     
6C56  E2840002           [220] call       19  4   2  
6C5A  13058002           [221] getupval   20  5      
6C5E  0E45480A           [222] gettable   20  20  289  ; 517923945
6C62  52058009           [223] move       21  19     
6C66  92058001           [224] move       22  3      
6C6A  22458001           [225] call       20  3   1  
6C6E  9E010001           [226] return     6   2      
6C72  1E008000           [227] return     0   1      
                         * constants:
6C76  22                 sizek (34)
6C77  01                 const type 3
6C78  65770E40           const [0]: (1074689893)
6C7C  00                 const type 0
                         const [1]: nil
6C7D  01                 const type 3
6C7E  AE90F261           const [2]: (1643286702)
6C82  04                 const type 4
6C83  0B                 string size (11)
6C84  4C6F7475735F4761+  "Lotus_Ga"
6C8C  6D6500             "me\0"
                         const [3]: "Lotus_Game"
6C8F  04                 const type 4
6C90  1F                 string size (31)
6C91  5370656172466973+  "SpearFis"
6C99  68696E6746697368+  "hingFish"
6CA1  496E666F5F53505F+  "Info_SP_"
6CA9  57454947485400     "WEIGHT\0"
                         const [4]: "SpearFishingFishInfo_SP_WEIGHT"
6CB0  01                 const type 3
6CB1  785CE45F           const [5]: (1608801400)
6CB5  04                 const type 4
6CB6  12                 string size (18)
6CB7  466973684974656D+  "FishItem"
6CBF  5F4650435F484947+  "_FPC_HIG"
6CC7  4800               "H\0"
                         const [6]: "FishItem_FPC_HIGH"
6CC9  04                 const type 4
6CCA  09                 string size (9)
6CCB  4375727254616E6B+  "CurrTank"
6CD3  00                 "\0"
                         const [7]: "CurrTank"
6CD4  04                 const type 4
6CD5  05                 string size (5)
6CD6  5349444500         "SIDE\0"
                         const [8]: "SIDE"
6CDB  04                 const type 4
6CDC  07                 string size (7)
6CDD  46697368657300     "Fishes\0"
                         const [9]: "Fishes"
6CE4  03                 const type 3
6CE5  00000041           const [10]: (0)
6CE9  04                 const type 4
6CEA  01                 string size (0)
                         const [11]: ""
6CEC  04                 const type 4
6CED  06                 string size (6)
6CEE  7461626C6500       "table\0"
                         const [12]: "table"
6CF4  01                 const type 3
6CF5  9D0C45E6           const [13]: (-431682403)
6CF9  04                 const type 4
6CFA  05                 string size (5)
6CFB  5061746800         "Path\0"
                         const [14]: "Path"
6D00  04                 const type 4
6D01  06                 string size (6)
6D02  496E64657800       "Index\0"
                         const [15]: "Index"
6D08  03                 const type 3
6D09  00001041           const [16]: (0)
6D0D  03                 const type 3
6D0E  00008841           const [17]: (0)
6D12  03                 const type 3
6D13  0000E040           const [18]: (0)
6D17  03                 const type 3
6D18  0000A041           const [19]: (0)
6D1C  03                 const type 3
6D1D  00002041           const [20]: (0)
6D21  03                 const type 3
6D22  0000803F           const [21]: (0)
6D26  03                 const type 3
6D27  00000000           const [22]: (0)
6D2B  01                 const type 3
6D2C  7DB5D47F           const [23]: (2144646525)
6D30  01                 const type 3
6D31  4A9DA32A           const [24]: (715365706)
6D35  04                 const type 4
6D36  11                 string size (17)
6D37  66697368496E666F+  "fishInfo"
6D3F  4D616E6966657374+  "Manifest"
6D47  00                 "\0"
                         const [25]: "fishInfoManifest"
6D48  01                 const type 3
6D49  5720287C           const [26]: (2083004503)
6D4D  01                 const type 3
6D4E  1A4B27EC           const [27]: (-332969190)
6D52  04                 const type 4
6D53  0D                 string size (13)
6D54  47414D455F43315F+  "GAME_C1_"
6D5C  4649534800         "FISH\0"
                         const [28]: "GAME_C1_FISH"
6D61  01                 const type 3
6D62  BCD6AE9F           const [29]: (-1615931716)
6D66  04                 const type 4
6D67  08                 string size (8)
6D68  67526567696F6E00   "gRegion\0"
                         const [30]: "gRegion"
6D70  01                 const type 3
6D71  87380A9B           const [31]: (-1693828985)
6D75  01                 const type 3
6D76  F26E43AB           const [32]: (-1421644046)
6D7A  01                 const type 3
6D7B  69E4DE1E           const [33]: (517923945)
                         * functions:
6D7F  00                 sizep (0)
                         * lines:
6D81  01                 sizelineinfo (227)
                         [pc] (line)
6D82  F7                 [001] (-9)
6D83  03                 [002] (-9)
6D84  00                 [003] (-9)
6D85  00                 [004] (-8)
6D86  F7                 [005] (-8)
6D87  03                 [006] (-8)
6D88  00                 [007] (-8)
6D89  00                 [008] (-8)
6D8A  F7                 [009] (-7)
6D8B  03                 [010] (-3)
6D8C  00                 [011] (-2)
6D8D  00                 [012] (-2)
6D8E  F8                 [013] (-1)
6D8F  03                 [014] (0)
6D90  00                 [015] (0)
6D91  00                 [016] (0)
6D92  F8                 [017] (0)
6D93  03                 [018] (0)
6D94  00                 [019] (0)
6D95  00                 [020] (0)
6D96  F8                 [021] (0)
6D97  03                 [022] (0)
6D98  00                 [023] (0)
6D99  00                 [024] (0)
6D9A  F8                 [025] (0)
6D9B  03                 [026] (0)
6D9C  00                 [027] (0)
6D9D  00                 [028] (0)
6D9E  F8                 [029] (0)
6D9F  03                 [030] (0)
6DA0  00                 [031] (0)
6DA1  00                 [032] (0)
6DA2  F9                 [033] (1)
6DA3  03                 [034] (1)
6DA4  00                 [035] (3)
6DA5  00                 [036] (3)
6DA6  FD                 [037] (3)
6DA7  03                 [038] (3)
6DA8  00                 [039] (3)
6DA9  00                 [040] (3)
6DAA  FE                 [041] (4)
6DAB  03                 [042] (4)
6DAC  00                 [043] (4)
6DAD  00                 [044] (4)
6DAE  FE                 [045] (4)
6DAF  03                 [046] (4)
6DB0  00                 [047] (4)
6DB1  00                 [048] (4)
6DB2  FF                 [049] (4)
6DB3  03                 [050] (4)
6DB4  00                 [051] (4)
6DB5  00                 [052] (4)
6DB6  00                 [053] (4)
6DB7  04                 [054] (4)
6DB8  00                 [055] (5)
6DB9  00                 [056] (5)
6DBA  00                 [057] (5)
6DBB  04                 [058] (5)
6DBC  00                 [059] (5)
6DBD  00                 [060] (5)
6DBE  00                 [061] (5)
6DBF  04                 [062] (8)
6DC0  00                 [063] (8)
6DC1  00                 [064] (8)
6DC2  00                 [065] (8)
6DC3  04                 [066] (8)
6DC4  00                 [067] (8)
6DC5  00                 [068] (8)
6DC6  00                 [069] (8)
6DC7  04                 [070] (8)
6DC8  00                 [071] (8)
6DC9  00                 [072] (8)
6DCA  00                 [073] (8)
6DCB  04                 [074] (8)
6DCC  00                 [075] (8)
6DCD  00                 [076] (9)
6DCE  00                 [077] (9)
6DCF  04                 [078] (9)
6DD0  00                 [079] (9)
6DD1  00                 [080] (9)
6DD2  00                 [081] (9)
6DD3  04                 [082] (9)
6DD4  00                 [083] (10)
6DD5  00                 [084] (12)
6DD6  00                 [085] (12)
6DD7  04                 [086] (12)
6DD8  00                 [087] (12)
6DD9  00                 [088] (12)
6DDA  00                 [089] (12)
6DDB  04                 [090] (12)
6DDC  00                 [091] (12)
6DDD  00                 [092] (12)
6DDE  00                 [093] (12)
6DDF  04                 [094] (12)
6DE0  00                 [095] (12)
6DE1  00                 [096] (12)
6DE2  00                 [097] (12)
6DE3  04                 [098] (13)
6DE4  00                 [099] (13)
6DE5  00                 [100] (13)
6DE6  00                 [101] (13)
6DE7  04                 [102] (13)
6DE8  00                 [103] (13)
6DE9  00                 [104] (13)
6DEA  00                 [105] (16)
6DEB  04                 [106] (16)
6DEC  00                 [107] (16)
6DED  00                 [108] (16)
6DEE  00                 [109] (16)
6DEF  04                 [110] (16)
6DF0  00                 [111] (16)
6DF1  00                 [112] (16)
6DF2  00                 [113] (16)
6DF3  04                 [114] (16)
6DF4  00                 [115] (16)
6DF5  00                 [116] (16)
6DF6  00                 [117] (16)
6DF7  04                 [118] (16)
6DF8  00                 [119] (17)
6DF9  00                 [120] (17)
6DFA  00                 [121] (17)
6DFB  04                 [122] (17)
6DFC  00                 [123] (17)
6DFD  00                 [124] (17)
6DFE  00                 [125] (17)
6DFF  04                 [126] (19)
6E00  00                 [127] (21)
6E01  00                 [128] (21)
6E02  01                 [129] (21)
6E03  04                 [130] (21)
6E04  00                 [131] (22)
6E05  00                 [132] (22)
6E06  01                 [133] (22)
6E07  04                 [134] (22)
6E08  00                 [135] (23)
6E09  00                 [136] (23)
6E0A  03                 [137] (23)
6E0B  04                 [138] (24)
6E0C  00                 [139] (24)
6E0D  00                 [140] (24)
6E0E  03                 [141] (24)
6E0F  04                 [142] (24)
6E10  00                 [143] (25)
6E11  00                 [144] (25)
6E12  03                 [145] (25)
6E13  04                 [146] (25)
6E14  00                 [147] (25)
6E15  00                 [148] (25)
6E16  03                 [149] (25)
6E17  04                 [150] (21)
6E18  00                 [151] (31)
6E19  00                 [152] (31)
6E1A  03                 [153] (31)
6E1B  04                 [154] (32)
6E1C  00                 [155] (35)
6E1D  00                 [156] (35)
6E1E  03                 [157] (35)
6E1F  04                 [158] (35)
6E20  00                 [159] (36)
6E21  00                 [160] (36)
6E22  04                 [161] (37)
6E23  04                 [162] (37)
6E24  00                 [163] (39)
6E25  00                 [164] (39)
6E26  04                 [165] (39)
6E27  04                 [166] (39)
6E28  00                 [167] (39)
6E29  00                 [168] (39)
6E2A  04                 [169] (39)
6E2B  04                 [170] (41)
6E2C  00                 [171] (41)
6E2D  00                 [172] (41)
6E2E  04                 [173] (41)
6E2F  04                 [174] (41)
6E30  00                 [175] (41)
6E31  00                 [176] (41)
6E32  04                 [177] (42)
6E33  04                 [178] (42)
6E34  00                 [179] (42)
6E35  00                 [180] (42)
6E36  04                 [181] (42)
6E37  04                 [182] (42)
6E38  00                 [183] (42)
6E39  00                 [184] (42)
6E3A  04                 [185] (42)
6E3B  04                 [186] (42)
6E3C  00                 [187] (43)
6E3D  00                 [188] (43)
6E3E  04                 [189] (43)
6E3F  04                 [190] (43)
6E40  00                 [191] (43)
6E41  00                 [192] (43)
6E42  04                 [193] (47)
6E43  04                 [194] (47)
6E44  00                 [195] (47)
6E45  00                 [196] (47)
6E46  04                 [197] (47)
6E47  04                 [198] (47)
6E48  00                 [199] (47)
6E49  00                 [200] (48)
6E4A  04                 [201] (48)
6E4B  04                 [202] (48)
6E4C  00                 [203] (49)
6E4D  00                 [204] (49)
6E4E  04                 [205] (49)
6E4F  04                 [206] (49)
6E50  00                 [207] (49)
6E51  00                 [208] (50)
6E52  04                 [209] (50)
6E53  04                 [210] (50)
6E54  00                 [211] (50)
6E55  00                 [212] (53)
6E56  04                 [213] (53)
6E57  04                 [214] (53)
6E58  00                 [215] (53)
6E59  00                 [216] (53)
6E5A  05                 [217] (54)
6E5B  04                 [218] (54)
6E5C  00                 [219] (54)
6E5D  00                 [220] (54)
6E5E  05                 [221] (55)
6E5F  04                 [222] (55)
6E60  00                 [223] (55)
6E61  00                 [224] (55)
6E62  05                 [225] (55)
6E63  04                 [226] (58)
6E64  00                 [227] (59)
                         * locals:
710E  00                 sizelocvars (0)
                         * upvalues:
710F  00                 sizeupvalues (0)
                         ** end of function **

                         
7110                     ** function [39] definition (level 2)
                         ** start of function **
7110  00                 string size (0)
                         source name: (none)
7112  08                 line defined (1085)
7113  CE                 last line defined (1102)
7114  08                 nups (4)
7115  04                 numparams (2)
7116  02                 is_vararg (0)
7117  00                 maxstacksize (10)
                         * code:
7119  1D                 sizecode (29)
711A  DD000000           [01] getglobal  3   0        ; 1074689893
711E  12010000           [02] move       4   0      
7122  E2800001           [03] call       3   2   2  
7126  D8400000           [04] test       3       1    ; to [6] if false
712A  1A800080           [05] jmp        3            ; to [9]
712E  E4404000           [06] self       3   0   257  ; 1129859866
7132  E2800001           [07] call       3   2   2  
7136  92008001           [08] move       2   3      
713A  E5000000           [09] closure    3   0      
713E  13000000           [10] getupval   0   0      
7142  12000001           [11] move       0   2      
7146  12000000           [12] move       0   0      
714A  13008000           [13] getupval   0   1      
714E  13000001           [14] getupval   0   2      
7152  13008001           [15] getupval   0   3      
7156  58000000           [16] test       1       0    ; to [18] if true
715A  1A800080           [17] jmp        3            ; to [21]
715E  12018001           [18] move       4   3      
7162  22418000           [19] call       4   1   1  
7166  1AC00180           [20] jmp        8            ; to [29]
716A  13018001           [21] getupval   4   3      
716E  0E814002           [22] gettable   4   4   258  ; -617354062
7172  5DC10000           [23] getglobal  5   3        ; mMovie
7176  99010100           [24] loadk      6   4        ; 0
717A  D9410100           [25] loadk      7   5        ; 0
717E  19820100           [26] loadk      8   6        ; 0
7182  52028001           [27] move       9   3      
7186  22410003           [28] call       4   6   1  
718A  1E008000           [29] return     0   1      
                         * constants:
718E  07                 sizek (7)
718F  01                 const type 3
7190  65770E40           const [0]: (1074689893)
7194  01                 const type 3
7195  1A4B5843           const [1]: (1129859866)
7199  01                 const type 3
719A  B2EC33DB           const [2]: (-617354062)
719E  04                 const type 4
719F  07                 string size (7)
71A0  6D4D6F76696500     "mMovie\0"
                         const [3]: "mMovie"
71A7  03                 const type 3
71A8  0000803F           const [4]: (0)
71AC  03                 const type 3
71AD  0000803E           const [5]: (0)
71B1  03                 const type 3
71B2  00000000           const [6]: (0)
                         * functions:
71B6  01                 sizep (1)
                         
71B7                     ** function [0] definition (level 3)
                         ** start of function **
71B7  00                 string size (0)
                         source name: (none)
71B9  08                 line defined (1092)
71BA  C7                 last line defined (1095)
71BB  08                 nups (6)
71BC  06                 numparams (0)
71BD  00                 is_vararg (0)
71BE  00                 maxstacksize (5)
                         * code:
71C0  1C                 sizecode (28)
71C1  13000000           [01] getupval   0   0      
71C5  0E004000           [02] gettable   0   0   256  ; 1339542244
71C9  5D400000           [03] getglobal  1   1        ; mMovie
71CD  93008000           [04] getupval   2   1      
71D1  D3000001           [05] getupval   3   2      
71D5  13018001           [06] getupval   4   3      
71D9  0E814002           [07] gettable   4   4   258  ; "mVignette"
fail op	35
71DD  63008101           [08] close      1  
71E1  1A000080           [09] jmp        1            ; to [11]
71E5  D7400000           [10] loadbool   3   0   1    ; false, to [12]
71E9  D7008000           [11] loadbool   3   1   0    ; true
71ED  22400002           [12] call       0   4   1  
71F1  13008002           [13] getupval   0   5      
71F5  0EC04000           [14] gettable   0   0   259  ; -132701534
71F9  5D000100           [15] getglobal  1   4        ; _T
71FD  4E40C100           [16] gettable   1   1   261  ; "QuartersVignette"
7201  4E80C100           [17] gettable   1   1   262  ; "RemovingOld"
7205  58000000           [18] test       1       0    ; to [20] if true
7209  1AC00080           [19] jmp        4            ; to [24]
720D  5DC00100           [20] getglobal  1   7        ; 1074689893
7211  93008000           [21] getupval   2   1      
7215  62800001           [22] call       1   2   2  
fail op	9
7219  49008000           [23] settable   1   1   0  
721D  99000200           [24] loadk      2   8        ; 0
7221  D9400200           [25] loadk      3   9        ; 0
7225  22800002           [26] call       0   4   2  
fail op	8
7229  08000002           [27] setupval   0   4      
722D  1E008000           [28] return     0   1      
                         * constants:
7231  0A                 sizek (10)
7232  01                 const type 3
7233  E4CAD74F           const [0]: (1339542244)
7237  04                 const type 4
7238  07                 string size (7)
7239  6D4D6F76696500     "mMovie\0"
                         const [1]: "mMovie"
7240  04                 const type 4
7241  0A                 string size (10)
7242  6D5669676E657474+  "mVignett"
724A  6500               "e\0"
                         const [2]: "mVignette"
724C  01                 const type 3
724D  A22217F8           const [3]: (-132701534)
7251  04                 const type 4
7252  03                 string size (3)
7253  5F5400             "_T\0"
                         const [4]: "_T"
7256  04                 const type 4
7257  11                 string size (17)
7258  5175617274657273+  "Quarters"
7260  5669676E65747465+  "Vignette"
7268  00                 "\0"
                         const [5]: "QuartersVignette"
7269  04                 const type 4
726A  0C                 string size (12)
726B  52656D6F76696E67+  "Removing"
7273  4F6C6400           "Old\0"
                         const [6]: "RemovingOld"
7277  01                 const type 3
7278  65770E40           const [7]: (1074689893)
727C  03                 const type 3
727D  00000040           const [8]: (0)
7281  03                 const type 3
7282  0000803F           const [9]: (0)
                         * functions:
7286  00                 sizep (0)
                         * lines:
7287  1C                 sizelineinfo (28)
                         [pc] (line)
7288  45                 [01] (69)
7289  04                 [02] (69)
728A  00                 [03] (69)
728B  00                 [04] (69)
728C  45                 [05] (69)
728D  04                 [06] (69)
728E  00                 [07] (69)
728F  00                 [08] (69)
7290  45                 [09] (69)
7291  04                 [10] (69)
7292  00                 [11] (69)
7293  00                 [12] (69)
7294  45                 [13] (70)
7295  04                 [14] (70)
7296  00                 [15] (70)
7297  00                 [16] (70)
7298  45                 [17] (70)
7299  04                 [18] (70)
729A  00                 [19] (70)
729B  00                 [20] (70)
729C  45                 [21] (70)
729D  04                 [22] (70)
729E  00                 [23] (70)
729F  00                 [24] (70)
72A0  45                 [25] (70)
72A1  04                 [26] (70)
72A2  00                 [27] (70)
72A3  00                 [28] (71)
                         * locals:
72F8  00                 sizelocvars (0)
                         * upvalues:
72F9  00                 sizeupvalues (0)
                         ** end of function **

                         * lines:
72FA  1D                 sizelineinfo (29)
                         [pc] (line)
72FB  3F                 [01] (63)
72FC  04                 [02] (63)
72FD  00                 [03] (63)
72FE  00                 [04] (63)
72FF  3F                 [05] (63)
7300  04                 [06] (64)
7301  00                 [07] (64)
7302  00                 [08] (64)
7303  3F                 [09] (71)
7304  04                 [10] (71)
7305  00                 [11] (71)
7306  00                 [12] (71)
7307  3F                 [13] (71)
7308  04                 [14] (71)
7309  00                 [15] (71)
730A  00                 [16] (73)
730B  3F                 [17] (73)
730C  04                 [18] (74)
730D  00                 [19] (74)
730E  00                 [20] (74)
730F  40                 [21] (76)
7310  04                 [22] (76)
7311  00                 [23] (76)
7312  00                 [24] (76)
7313  40                 [25] (76)
7314  04                 [26] (76)
7315  00                 [27] (76)
7316  00                 [28] (76)
7317  40                 [29] (78)
                         * locals:
736F  00                 sizelocvars (0)
                         * upvalues:
7370  00                 sizeupvalues (0)
                         ** end of function **

                         
7371                     ** function [40] definition (level 2)
                         ** start of function **
7371  00                 string size (0)
                         source name: (none)
7373  08                 line defined (1104)
7374  94                 last line defined (1172)
7375  09                 nups (14)
7376  0E                 numparams (0)
7377  00                 is_vararg (0)
7378  00                 maxstacksize (11)
                         * code:
737B  01                 sizecode (199)
737C  1D000000           [001] getglobal  0   0        ; 1661359502
7380  22808000           [002] call       0   1   2  
7384  5D400000           [003] getglobal  1   1        ; mMovie
7388  6480C000           [004] self       1   1   258  ; 135097114
738C  D2000000           [005] move       3   0      
7390  62408001           [006] call       1   3   1  
7394  5DC00000           [007] getglobal  1   3        ; 1074689893
7398  93000000           [008] getupval   2   0      
739C  62800001           [009] call       1   2   2  
73A0  58400000           [010] test       1       1    ; to [12] if false
73A4  1A800080           [011] jmp        3            ; to [15]
73A8  53000000           [012] getupval   1   0      
73AC  6400C100           [013] self       1   1   260  ; -1938777623
73B0  62400001           [014] call       1   2   1  
73B4  5DC00000           [015] getglobal  1   3        ; 1074689893
73B8  93008000           [016] getupval   2   1      
73BC  62800001           [017] call       1   2   2  
73C0  58400000           [018] test       1       1    ; to [20] if false
73C4  1AC00080           [019] jmp        4            ; to [24]
73C8  53008000           [020] getupval   1   1      
73CC  6400C100           [021] self       1   1   260  ; -1938777623
73D0  D2000000           [022] move       3   0      
73D4  62408001           [023] call       1   3   1  
73D8  5DC00000           [024] getglobal  1   3        ; 1074689893
73DC  93000001           [025] getupval   2   2      
73E0  62800001           [026] call       1   2   2  
73E4  58400000           [027] test       1       1    ; to [29] if false
73E8  1A000180           [028] jmp        5            ; to [34]
73EC  53000001           [029] getupval   1   2      
73F0  6400C100           [030] self       1   1   260  ; -1938777623
73F4  DD000000           [031] getglobal  3   0        ; 1661359502
73F8  E2008000           [032] call       3   1   0  
73FC  62400000           [033] call       1   0   1  
7400  53008001           [034] getupval   1   3      
7404  4E40C100           [035] gettable   1   1   261  ; "IsLoading"
7408  58000000           [036] test       1       0    ; to [38] if true
740C  1AC00480           [037] jmp        20           ; to [58]
7410  5DC00000           [038] getglobal  1   3        ; 1074689893
7414  93008001           [039] getupval   2   3      
7418  8E804101           [040] gettable   2   2   262  ; "Loader"
741C  62800001           [041] call       1   2   2  
7420  58400000           [042] test       1       1    ; to [44] if false
7424  1A400380           [043] jmp        14           ; to [58]
7428  53008001           [044] getupval   1   3      
742C  4E80C100           [045] gettable   1   1   262  ; "Loader"
7430  64C0C100           [046] self       1   1   263  ; -1344420604
7434  62800001           [047] call       1   2   2  
7438  58000000           [048] test       1       0    ; to [50] if true
743C  1AC00180           [049] jmp        8            ; to [58]
7440  53008001           [050] getupval   1   3      
7444  4C00C282           [051] settable   1   261 264  ; "IsLoading" 0
7448  53000002           [052] getupval   1   4      
744C  9D400200           [053] getglobal  2   9        ; 2083004503
7450  D3008001           [054] getupval   3   3      
7454  CE80C201           [055] gettable   3   3   266  ; "Vignette"
7458  A2000001           [056] call       2   2   0  
745C  62400000           [057] call       1   0   1  
7460  53008002           [058] getupval   1   5      
7464  4E40C100           [059] gettable   1   1   261  ; "IsLoading"
7468  58000000           [060] test       1       0    ; to [62] if true
746C  1A400B80           [061] jmp        46           ; to [108]
7470  5DC00000           [062] getglobal  1   3        ; 1074689893
7474  93008002           [063] getupval   2   5      
7478  8E804101           [064] gettable   2   2   262  ; "Loader"
747C  62800001           [065] call       1   2   2  
7480  58400000           [066] test       1       1    ; to [68] if false
7484  1AC00980           [067] jmp        40           ; to [108]
7488  53008002           [068] getupval   1   5      
748C  4E80C100           [069] gettable   1   1   262  ; "Loader"
7490  64C0C100           [070] self       1   1   263  ; -1344420604
7494  62800001           [071] call       1   2   2  
7498  58000000           [072] test       1       0    ; to [74] if true
749C  1A400880           [073] jmp        34           ; to [108]
74A0  53008002           [074] getupval   1   5      
74A4  4C00C282           [075] settable   1   261 264  ; "IsLoading" 0
74A8  57000000           [076] loadbool   1   0   0    ; false
fail op	8
74AC  48000003           [077] setupval   1   6      
74B0  53000000           [078] getupval   1   0      
74B4  64C0C200           [079] self       1   1   267  ; -492641364
74B8  D7000000           [080] loadbool   3   0   0    ; false
74BC  62408001           [081] call       1   3   1  
74C0  59000300           [082] loadk      1   12       ; 0
74C4  93008002           [083] getupval   2   5      
74C8  8E404301           [084] gettable   2   2   269  ; "CurrFish"
74CC  8A000001           [085] len        2   2      
74D0  D9000300           [086] loadk      3   12       ; 0
74D4  50800480           [087] forprep    1   19       ; to [107]
74D8  53018003           [088] getupval   5   7      
74DC  9D410200           [089] getglobal  6   9        ; 2083004503
74E0  D3018002           [090] getupval   7   5      
74E4  CE41C303           [091] gettable   7   7   269  ; "CurrFish"
74E8  CE018103           [092] gettable   7   7   4  
74EC  A2810001           [093] call       6   2   2  
74F0  C6010004           [094] loadnil    7   8      
74F4  53028002           [095] getupval   9   5      
74F8  4E82C304           [096] gettable   9   9   270  ; "CurrStoreItems"
74FC  4E028104           [097] gettable   9   9   4  
7500  62818002           [098] call       5   5   2  
fail op	35
7504  63C0C302           [099] close      1  
7508  1A400180           [100] jmp        6            ; to [107]
750C  93018002           [101] getupval   6   5      
7510  8E014403           [102] gettable   6   6   272  ; "Fishes"
7514  D3018002           [103] getupval   7   5      
7518  CE81C303           [104] gettable   7   7   270  ; "CurrStoreItems"
751C  CE018103           [105] gettable   7   7   4  
7520  8CC18102           [106] settable   6   5   7  
7524  54C0FA7F           [107] forloop    1   -20      ; to [88] if loop
7528  93010004           [108] getupval   6   8      
752C  8E414103           [109] gettable   6   6   261  ; "IsLoading"
7530  98010000           [110] test       6       0    ; to [112] if true
7534  1AC00480           [111] jmp        20           ; to [132]
7538  9DC10000           [112] getglobal  6   3        ; 1074689893
753C  D3010004           [113] getupval   7   8      
7540  CE81C103           [114] gettable   7   7   262  ; "Loader"
7544  A2810001           [115] call       6   2   2  
7548  98410000           [116] test       6       1    ; to [118] if false
754C  1A400380           [117] jmp        14           ; to [132]
7550  93010004           [118] getupval   6   8      
7554  8E814103           [119] gettable   6   6   262  ; "Loader"
7558  A4C14103           [120] self       6   6   263  ; -1344420604
755C  A2810001           [121] call       6   2   2  
7560  98010000           [122] test       6       0    ; to [124] if true
7564  1AC00180           [123] jmp        8            ; to [132]
7568  93010004           [124] getupval   6   8      
756C  8C01C282           [125] settable   6   261 264  ; "IsLoading" 0
7570  93018004           [126] getupval   6   9      
7574  DD410200           [127] getglobal  7   9        ; 2083004503
7578  13020004           [128] getupval   8   8      
757C  0E424404           [129] gettable   8   8   273  ; "Wallpaper"
7580  E2010001           [130] call       7   2   0  
7584  A2410000           [131] call       6   0   1  
7588  93010005           [132] getupval   6   10     
758C  8E414103           [133] gettable   6   6   261  ; "IsLoading"
7590  98010000           [134] test       6       0    ; to [136] if true
7594  1A800F80           [135] jmp        63           ; to [199]
7598  9DC10000           [136] getglobal  6   3        ; 1074689893
759C  D3010005           [137] getupval   7   10     
75A0  CE81C103           [138] gettable   7   7   262  ; "Loader"
75A4  A2810001           [139] call       6   2   2  
75A8  98410000           [140] test       6       1    ; to [142] if false
75AC  1A000E80           [141] jmp        57           ; to [199]
75B0  93010005           [142] getupval   6   10     
75B4  8E814103           [143] gettable   6   6   262  ; "Loader"
75B8  A4C14103           [144] self       6   6   263  ; -1344420604
75BC  A2810001           [145] call       6   2   2  
75C0  98010000           [146] test       6       0    ; to [148] if true
75C4  1A800C80           [147] jmp        51           ; to [199]
75C8  93010005           [148] getupval   6   10     
75CC  8C01C282           [149] settable   6   261 264  ; "IsLoading" 0
75D0  93010005           [150] getupval   6   10     
75D4  8E814403           [151] gettable   6   6   274  ; "ResetWallpaper"
75D8  98010000           [152] test       6       0    ; to [154] if true
75DC  1A800380           [153] jmp        15           ; to [169]
75E0  86010003           [154] loadnil    6   6      
75E4  DDC10000           [155] getglobal  7   3        ; 1074689893
75E8  13028005           [156] getupval   8   11     
75EC  0EC24404           [157] gettable   8   8   275  ; "mWallpaper"
75F0  E2810001           [158] call       7   2   2  
75F4  D8410000           [159] test       7       1    ; to [161] if false
75F8  1A000180           [160] jmp        5            ; to [166]
75FC  DD410200           [161] getglobal  7   9        ; 2083004503
7600  13028005           [162] getupval   8   11     
7604  0EC24404           [163] gettable   8   8   275  ; "mWallpaper"
7608  E2810001           [164] call       7   2   2  
760C  92018003           [165] move       6   7      
7610  D3018004           [166] getupval   7   9      
7614  12020003           [167] move       8   6      
7618  E2410001           [168] call       7   2   1  
761C  D3010005           [169] getupval   7   10     
7620  CE01C503           [170] gettable   7   7   276  ; "ResetVignette"
7624  D8010000           [171] test       7       0    ; to [173] if true
7628  1A000480           [172] jmp        17           ; to [190]
762C  C6018003           [173] loadnil    7   7      
7630  1DC20000           [174] getglobal  8   3        ; 1074689893
7634  53028005           [175] getupval   9   11     
7638  4E42C504           [176] gettable   9   9   277  ; "mVignette"
763C  22820001           [177] call       8   2   2  
7640  18420000           [178] test       8       1    ; to [180] if false
7644  1A000180           [179] jmp        5            ; to [185]
7648  1D420200           [180] getglobal  8   9        ; 2083004503
764C  53028005           [181] getupval   9   11     
7650  4E42C504           [182] gettable   9   9   277  ; "mVignette"
7654  22820001           [183] call       8   2   2  
7658  D2010004           [184] move       7   8      
765C  13020002           [185] getupval   8   4      
7660  52028003           [186] move       9   7      
7664  97028000           [187] loadbool   10  1   0    ; true
7668  22428001           [188] call       8   3   1  
766C  1A000280           [189] jmp        9            ; to [199]
7670  13020005           [190] getupval   8   10     
7674  0E824504           [191] gettable   8   8   278  ; "ResetFish"
7678  18020000           [192] test       8       0    ; to [194] if true
767C  1A000180           [193] jmp        5            ; to [199]
7680  13020006           [194] getupval   8   12     
7684  22428000           [195] call       8   1   1  
7688  13028006           [196] getupval   8   13     
768C  57028000           [197] loadbool   9   1   0    ; true
7690  22420001           [198] call       8   2   1  
7694  1E008000           [199] return     0   1      
                         * constants:
7698  17                 sizek (23)
7699  01                 const type 3
769A  8E550663           const [0]: (1661359502)
769E  04                 const type 4
769F  07                 string size (7)
76A0  6D4D6F76696500     "mMovie\0"
                         const [1]: "mMovie"
76A7  01                 const type 3
76A8  1A6B0D08           const [2]: (135097114)
76AC  01                 const type 3
76AD  65770E40           const [3]: (1074689893)
76B1  01                 const type 3
76B2  E999708C           const [4]: (-1938777623)
76B6  04                 const type 4
76B7  0A                 string size (10)
76B8  49734C6F6164696E+  "IsLoadin"
76C0  6700               "g\0"
                         const [5]: "IsLoading"
76C2  04                 const type 4
76C3  07                 string size (7)
76C4  4C6F6164657200     "Loader\0"
                         const [6]: "Loader"
76CB  01                 const type 3
76CC  04C5DDAF           const [7]: (-1344420604)
76D0  01                 const type 3
76D1  00000000           const [8]: (0)
76D5  01                 const type 3
76D6  5720287C           const [9]: (2083004503)
76DA  04                 const type 4
76DB  09                 string size (9)
76DC  5669676E65747465+  "Vignette"
76E4  00                 "\0"
                         const [10]: "Vignette"
76E5  01                 const type 3
76E6  ACE3A2E2           const [11]: (-492641364)
76EA  03                 const type 3
76EB  0000803F           const [12]: (0)
76EF  04                 const type 4
76F0  09                 string size (9)
76F1  4375727246697368+  "CurrFish"
76F9  00                 "\0"
                         const [13]: "CurrFish"
76FA  04                 const type 4
76FB  0F                 string size (15)
76FC  4375727253746F72+  "CurrStor"
7704  654974656D7300     "eItems\0"
                         const [14]: "CurrStoreItems"
770B  00                 const type 0
                         const [15]: nil
770C  04                 const type 4
770D  07                 string size (7)
770E  46697368657300     "Fishes\0"
                         const [16]: "Fishes"
7715  04                 const type 4
7716  0A                 string size (10)
7717  57616C6C70617065+  "Wallpape"
771F  7200               "r\0"
                         const [17]: "Wallpaper"
7721  04                 const type 4
7722  0F                 string size (15)
7723  526573657457616C+  "ResetWal"
772B  6C706170657200     "lpaper\0"
                         const [18]: "ResetWallpaper"
7732  04                 const type 4
7733  0B                 string size (11)
7734  6D57616C6C706170+  "mWallpap"
773C  657200             "er\0"
                         const [19]: "mWallpaper"
773F  04                 const type 4
7740  0E                 string size (14)
7741  5265736574566967+  "ResetVig"
7749  6E6574746500       "nette\0"
                         const [20]: "ResetVignette"
774F  04                 const type 4
7750  0A                 string size (10)
7751  6D5669676E657474+  "mVignett"
7759  6500               "e\0"
                         const [21]: "mVignette"
775B  04                 const type 4
775C  0A                 string size (10)
775D  5265736574466973+  "ResetFis"
7765  6800               "h\0"
                         const [22]: "ResetFish"
                         * functions:
7767  00                 sizep (0)
                         * lines:
7769  01                 sizelineinfo (199)
                         [pc] (line)
776A  51                 [001] (81)
776B  04                 [002] (81)
776C  00                 [003] (83)
776D  00                 [004] (83)
776E  51                 [005] (83)
776F  04                 [006] (83)
7770  00                 [007] (85)
7771  00                 [008] (85)
7772  53                 [009] (85)
7773  04                 [010] (85)
7774  00                 [011] (85)
7775  00                 [012] (86)
7776  53                 [013] (86)
7777  04                 [014] (86)
7778  00                 [015] (89)
7779  00                 [016] (89)
777A  53                 [017] (89)
777B  04                 [018] (89)
777C  00                 [019] (89)
777D  00                 [020] (90)
777E  53                 [021] (90)
777F  04                 [022] (90)
7780  00                 [023] (90)
7781  00                 [024] (93)
7782  55                 [025] (93)
7783  04                 [026] (93)
7784  00                 [027] (93)
7785  00                 [028] (93)
7786  55                 [029] (94)
7787  04                 [030] (94)
7788  00                 [031] (94)
7789  00                 [032] (94)
778A  55                 [033] (94)
778B  04                 [034] (97)
778C  00                 [035] (97)
778D  00                 [036] (97)
778E  55                 [037] (97)
778F  04                 [038] (97)
7790  00                 [039] (97)
7791  00                 [040] (97)
7792  55                 [041] (97)
7793  04                 [042] (97)
7794  00                 [043] (97)
7795  00                 [044] (97)
7796  56                 [045] (97)
7797  04                 [046] (97)
7798  00                 [047] (97)
7799  00                 [048] (97)
779A  56                 [049] (97)
779B  04                 [050] (98)
779C  00                 [051] (98)
779D  00                 [052] (100)
779E  56                 [053] (100)
779F  04                 [054] (100)
77A0  00                 [055] (100)
77A1  00                 [056] (100)
77A2  59                 [057] (100)
77A3  04                 [058] (103)
77A4  00                 [059] (103)
77A5  00                 [060] (103)
77A6  59                 [061] (103)
77A7  04                 [062] (103)
77A8  00                 [063] (103)
77A9  00                 [064] (103)
77AA  59                 [065] (103)
77AB  04                 [066] (103)
77AC  00                 [067] (103)
77AD  00                 [068] (103)
77AE  59                 [069] (103)
77AF  04                 [070] (103)
77B0  00                 [071] (103)
77B1  00                 [072] (103)
77B2  59                 [073] (103)
77B3  04                 [074] (104)
77B4  00                 [075] (104)
77B5  00                 [076] (105)
77B6  5A                 [077] (105)
77B7  04                 [078] (106)
77B8  00                 [079] (106)
77B9  00                 [080] (106)
77BA  5A                 [081] (106)
77BB  04                 [082] (108)
77BC  00                 [083] (108)
77BD  00                 [084] (108)
77BE  5A                 [085] (108)
77BF  04                 [086] (108)
77C0  00                 [087] (108)
77C1  00                 [088] (109)
77C2  5A                 [089] (109)
77C3  04                 [090] (109)
77C4  00                 [091] (109)
77C5  00                 [092] (109)
77C6  5D                 [093] (109)
77C7  04                 [094] (109)
77C8  00                 [095] (109)
77C9  00                 [096] (109)
77CA  5D                 [097] (109)
77CB  04                 [098] (109)
77CC  00                 [099] (110)
77CD  00                 [100] (110)
77CE  5D                 [101] (111)
77CF  04                 [102] (111)
77D0  00                 [103] (111)
77D1  00                 [104] (111)
77D2  5D                 [105] (111)
77D3  04                 [106] (111)
77D4  00                 [107] (108)
77D5  00                 [108] (116)
77D6  5D                 [109] (116)
77D7  04                 [110] (116)
77D8  00                 [111] (116)
77D9  00                 [112] (116)
77DA  5E                 [113] (116)
77DB  04                 [114] (116)
77DC  00                 [115] (116)
77DD  00                 [116] (116)
77DE  5E                 [117] (116)
77DF  04                 [118] (116)
77E0  00                 [119] (116)
77E1  00                 [120] (116)
77E2  5E                 [121] (116)
77E3  04                 [122] (116)
77E4  00                 [123] (116)
77E5  00                 [124] (117)
77E6  5E                 [125] (117)
77E7  04                 [126] (119)
77E8  00                 [127] (119)
77E9  00                 [128] (119)
77EA  5E                 [129] (119)
77EB  04                 [130] (119)
77EC  00                 [131] (119)
77ED  00                 [132] (122)
77EE  61                 [133] (122)
77EF  04                 [134] (122)
77F0  00                 [135] (122)
77F1  00                 [136] (122)
77F2  61                 [137] (122)
77F3  04                 [138] (122)
77F4  00                 [139] (122)
77F5  00                 [140] (122)
77F6  61                 [141] (122)
77F7  04                 [142] (122)
77F8  00                 [143] (122)
77F9  00                 [144] (122)
77FA  61                 [145] (122)
77FB  04                 [146] (122)
77FC  00                 [147] (122)
77FD  00                 [148] (123)
77FE  61                 [149] (123)
77FF  04                 [150] (125)
7800  00                 [151] (125)
7801  00                 [152] (125)
7802  61                 [153] (125)
7803  04                 [154] (126)
7804  00                 [155] (127)
7805  00                 [156] (127)
7806  61                 [157] (127)
7807  04                 [158] (127)
7808  00                 [159] (127)
7809  00                 [160] (127)
780A  61                 [161] (-128)
780B  04                 [162] (-128)
780C  00                 [163] (-128)
780D  00                 [164] (-128)
780E  61                 [165] (-128)
780F  04                 [166] (-125)
7810  00                 [167] (-125)
7811  00                 [168] (-125)
7812  61                 [169] (-122)
7813  04                 [170] (-122)
7814  00                 [171] (-122)
7815  00                 [172] (-122)
7816  61                 [173] (-121)
7817  04                 [174] (-120)
7818  00                 [175] (-120)
7819  00                 [176] (-120)
781A  61                 [177] (-120)
781B  04                 [178] (-120)
781C  00                 [179] (-120)
781D  00                 [180] (-119)
781E  61                 [181] (-119)
781F  04                 [182] (-119)
7820  00                 [183] (-119)
7821  00                 [184] (-119)
7822  61                 [185] (-116)
7823  04                 [186] (-116)
7824  00                 [187] (-116)
7825  00                 [188] (-116)
7826  61                 [189] (-116)
7827  04                 [190] (-115)
7828  00                 [191] (-115)
7829  00                 [192] (-115)
782A  61                 [193] (-115)
782B  04                 [194] (-113)
782C  00                 [195] (-113)
782D  00                 [196] (-111)
782E  62                 [197] (-111)
782F  04                 [198] (-111)
7830  00                 [199] (-108)
                         * locals:
7A86  00                 sizelocvars (0)
                         * upvalues:
7A87  00                 sizeupvalues (0)
                         ** end of function **

                         
7A88                     ** function [41] definition (level 2)
                         ** start of function **
7A88  00                 string size (0)
                         source name: (none)
7A8A  09                 line defined (1174)
7A8B  9F                 last line defined (1183)
7A8C  09                 nups (3)
7A8D  03                 numparams (2)
7A8E  02                 is_vararg (0)
7A8F  00                 maxstacksize (7)
                         * code:
7A91  1C                 sizecode (28)
7A92  93000000           [01] getupval   2   0      
fail op	35
7A96  63004001           [02] close      1  
7A9A  1A000280           [03] jmp        9            ; to [13]
7A9E  93000000           [04] getupval   2   0      
7AA2  A4404001           [05] self       2   2   257  ; -1938777623
7AA6  1D810000           [06] getglobal  4   2        ; mMovie
7AAA  24C14002           [07] self       4   4   259  ; -174729759
7AAE  22810001           [08] call       4   2   2  
7AB2  5D810000           [09] getglobal  5   2        ; mMovie
7AB6  6401C102           [10] self       5   5   260  ; -301556379
7ABA  62010001           [11] call       5   2   0  
7ABE  A2400000           [12] call       2   0   1  
7AC2  93008000           [13] getupval   2   1      
7AC6  98000000           [14] test       2       0    ; to [16] if true
7ACA  1AC00280           [15] jmp        12           ; to [28]
7ACE  93008000           [16] getupval   2   1      
7AD2  8E404101           [17] gettable   2   2   261  ; "ItemSelectionGrid"
fail op	35
7AD6  63004001           [18] close      1  
7ADA  1AC00180           [19] jmp        8            ; to [28]
7ADE  93008000           [20] getupval   2   1      
7AE2  8E404101           [21] gettable   2   2   261  ; "ItemSelectionGrid"
7AE6  A4804101           [22] self       2   2   262  ; 982516775
7AEA  12010000           [23] move       4   0      
7AEE  52018000           [24] move       5   1      
7AF2  A2400002           [25] call       2   4   1  
7AF6  93000001           [26] getupval   2   2      
7AFA  A2408000           [27] call       2   1   1  
7AFE  1E008000           [28] return     0   1      
                         * constants:
7B02  07                 sizek (7)
7B03  00                 const type 0
                         const [0]: nil
7B04  01                 const type 3
7B05  E999708C           const [1]: (-1938777623)
7B09  04                 const type 4
7B0A  07                 string size (7)
7B0B  6D4D6F76696500     "mMovie\0"
                         const [2]: "mMovie"
7B12  01                 const type 3
7B13  E1D595F5           const [3]: (-174729759)
7B17  01                 const type 3
7B18  659D06EE           const [4]: (-301556379)
7B1C  04                 const type 4
7B1D  12                 string size (18)
7B1E  4974656D53656C65+  "ItemSele"
7B26  6374696F6E477269+  "ctionGri"
7B2E  6400               "d\0"
                         const [5]: "ItemSelectionGrid"
7B30  01                 const type 3
7B31  2704903A           const [6]: (982516775)
                         * functions:
7B35  00                 sizep (0)
                         * lines:
7B36  1C                 sizelineinfo (28)
                         [pc] (line)
7B37  97                 [01] (-105)
7B38  04                 [02] (-105)
7B39  00                 [03] (-105)
7B3A  00                 [04] (-104)
7B3B  97                 [05] (-104)
7B3C  04                 [06] (-104)
7B3D  00                 [07] (-104)
7B3E  00                 [08] (-104)
7B3F  97                 [09] (-104)
7B40  04                 [10] (-104)
7B41  00                 [11] (-104)
7B42  00                 [12] (-104)
7B43  98                 [13] (-101)
7B44  04                 [14] (-101)
7B45  00                 [15] (-101)
7B46  00                 [16] (-101)
7B47  98                 [17] (-101)
7B48  04                 [18] (-101)
7B49  00                 [19] (-101)
7B4A  00                 [20] (-100)
7B4B  98                 [21] (-100)
7B4C  04                 [22] (-100)
7B4D  00                 [23] (-100)
7B4E  00                 [24] (-100)
7B4F  98                 [25] (-100)
7B50  04                 [26] (-99)
7B51  00                 [27] (-99)
7B52  00                 [28] (-97)
                         * locals:
7BA7  00                 sizelocvars (0)
                         * upvalues:
7BA8  00                 sizeupvalues (0)
                         ** end of function **

                         
7BA9                     ** function [42] definition (level 2)
                         ** start of function **
7BA9  00                 string size (0)
                         source name: (none)
7BAB  09                 line defined (1185)
7BAC  A5                 last line defined (1189)
7BAD  09                 nups (1)
7BAE  01                 numparams (0)
7BAF  00                 is_vararg (0)
7BB0  00                 maxstacksize (2)
                         * code:
7BB2  09                 sizecode (9)
7BB3  1D000000           [1] getglobal  0   0        ; 1074689893
7BB7  53000000           [2] getupval   1   0      
7BBB  22800001           [3] call       0   2   2  
7BBF  18400000           [4] test       0       1    ; to [6] if false
7BC3  1A800080           [5] jmp        3            ; to [9]
7BC7  13000000           [6] getupval   0   0      
7BCB  24404000           [7] self       0   0   257  ; -469094454
7BCF  22400001           [8] call       0   2   1  
7BD3  1E008000           [9] return     0   1      
                         * constants:
7BD7  02                 sizek (2)
7BD8  01                 const type 3
7BD9  65770E40           const [0]: (1074689893)
7BDD  01                 const type 3
7BDE  CA2F0AE4           const [1]: (-469094454)
                         * functions:
7BE2  00                 sizep (0)
                         * lines:
7BE3  09                 sizelineinfo (9)
                         [pc] (line)
7BE4  A2                 [1] (-94)
7BE5  04                 [2] (-94)
7BE6  00                 [3] (-94)
7BE7  00                 [4] (-94)
7BE8  A2                 [5] (-94)
7BE9  04                 [6] (-93)
7BEA  00                 [7] (-93)
7BEB  00                 [8] (-93)
7BEC  A2                 [9] (-91)
                         * locals:
7C08  00                 sizelocvars (0)
                         * upvalues:
7C09  00                 sizeupvalues (0)
                         ** end of function **

                         
7C0A                     ** function [43] definition (level 2)
                         ** start of function **
7C0A  00                 string size (0)
                         source name: (none)
7C0C  09                 line defined (1191)
7C0D  AB                 last line defined (1195)
7C0E  09                 nups (1)
7C0F  01                 numparams (0)
7C10  00                 is_vararg (0)
7C11  00                 maxstacksize (2)
                         * code:
7C13  09                 sizecode (9)
7C14  1D000000           [1] getglobal  0   0        ; 1074689893
7C18  53000000           [2] getupval   1   0      
7C1C  22800001           [3] call       0   2   2  
7C20  18400000           [4] test       0       1    ; to [6] if false
7C24  1A800080           [5] jmp        3            ; to [9]
7C28  13000000           [6] getupval   0   0      
7C2C  24404000           [7] self       0   0   257  ; 914083198
7C30  22400001           [8] call       0   2   1  
7C34  1E008000           [9] return     0   1      
                         * constants:
7C38  02                 sizek (2)
7C39  01                 const type 3
7C3A  65770E40           const [0]: (1074689893)
7C3E  01                 const type 3
7C3F  7ECD7B36           const [1]: (914083198)
                         * functions:
7C43  00                 sizep (0)
                         * lines:
7C44  09                 sizelineinfo (9)
                         [pc] (line)
7C45  A8                 [1] (-88)
7C46  04                 [2] (-88)
7C47  00                 [3] (-88)
7C48  00                 [4] (-88)
7C49  A8                 [5] (-88)
7C4A  04                 [6] (-87)
7C4B  00                 [7] (-87)
7C4C  00                 [8] (-87)
7C4D  A8                 [9] (-85)
                         * locals:
7C69  00                 sizelocvars (0)
                         * upvalues:
7C6A  00                 sizeupvalues (0)
                         ** end of function **

                         
7C6B                     ** function [44] definition (level 2)
                         ** start of function **
7C6B  00                 string size (0)
                         source name: (none)
7C6D  09                 line defined (1197)
7C6E  B1                 last line defined (1201)
7C6F  09                 nups (2)
7C70  02                 numparams (0)
7C71  00                 is_vararg (0)
7C72  00                 maxstacksize (2)
                         * code:
7C74  0A                 sizecode (10)
7C75  13000000           [01] getupval   0   0      
7C79  18400000           [02] test       0       1    ; to [4] if false
7C7D  1A400180           [03] jmp        6            ; to [10]
7C81  13008000           [04] getupval   0   1      
fail op	35
7C85  63004000           [05] close      1  
7C89  1A800080           [06] jmp        3            ; to [10]
7C8D  13008000           [07] getupval   0   1      
7C91  24404000           [08] self       0   0   257  ; 1897506678
7C95  22400001           [09] call       0   2   1  
7C99  1E008000           [10] return     0   1      
                         * constants:
7C9D  02                 sizek (2)
7C9E  00                 const type 0
                         const [0]: nil
7C9F  01                 const type 3
7CA0  76A71971           const [1]: (1897506678)
                         * functions:
7CA4  00                 sizep (0)
                         * lines:
7CA5  0A                 sizelineinfo (10)
                         [pc] (line)
7CA6  AE                 [01] (-82)
7CA7  04                 [02] (-82)
7CA8  00                 [03] (-82)
7CA9  00                 [04] (-82)
7CAA  AE                 [05] (-82)
7CAB  04                 [06] (-82)
7CAC  00                 [07] (-81)
7CAD  00                 [08] (-81)
7CAE  AE                 [09] (-81)
7CAF  04                 [10] (-79)
                         * locals:
7CCE  00                 sizelocvars (0)
                         * upvalues:
7CCF  00                 sizeupvalues (0)
                         ** end of function **

                         
7CD0                     ** function [45] definition (level 2)
                         ** start of function **
7CD0  00                 string size (0)
                         source name: (none)
7CD2  09                 line defined (1203)
7CD3  BB                 last line defined (1211)
7CD4  09                 nups (2)
7CD5  02                 numparams (2)
7CD6  02                 is_vararg (0)
7CD7  00                 maxstacksize (5)
                         * code:
7CD9  0E                 sizecode (14)
7CDA  93000000           [01] getupval   2   0      
7CDE  98000000           [02] test       2       0    ; to [4] if true
7CE2  1A000080           [03] jmp        1            ; to [5]
7CE6  1E008000           [04] return     0   1      
7CEA  9D000000           [05] getglobal  2   0        ; 1074689893
7CEE  D3008000           [06] getupval   3   1      
7CF2  A2800001           [07] call       2   2   2  
7CF6  98400000           [08] test       2       1    ; to [10] if false
7CFA  1AC00080           [09] jmp        4            ; to [14]
7CFE  93008000           [10] getupval   2   1      
7D02  A4404001           [11] self       2   2   257  ; 1961685184
7D06  12018000           [12] move       4   1      
7D0A  A2408001           [13] call       2   3   1  
7D0E  1E008000           [14] return     0   1      
                         * constants:
7D12  02                 sizek (2)
7D13  01                 const type 3
7D14  65770E40           const [0]: (1074689893)
7D18  01                 const type 3
7D19  C0F0EC74           const [1]: (1961685184)
                         * functions:
7D1D  00                 sizep (0)
                         * lines:
7D1E  0E                 sizelineinfo (14)
                         [pc] (line)
7D1F  B4                 [01] (-76)
7D20  04                 [02] (-76)
7D21  00                 [03] (-76)
7D22  00                 [04] (-75)
7D23  B4                 [05] (-72)
7D24  04                 [06] (-72)
7D25  00                 [07] (-72)
7D26  00                 [08] (-72)
7D27  B4                 [09] (-72)
7D28  04                 [10] (-71)
7D29  00                 [11] (-71)
7D2A  00                 [12] (-71)
7D2B  B5                 [13] (-71)
7D2C  04                 [14] (-69)
                         * locals:
7D57  00                 sizelocvars (0)
                         * upvalues:
7D58  00                 sizeupvalues (0)
                         ** end of function **

                         
7D59                     ** function [46] definition (level 2)
                         ** start of function **
7D59  00                 string size (0)
                         source name: (none)
7D5B  09                 line defined (1213)
7D5C  C3                 last line defined (1219)
7D5D  09                 nups (0)
7D5E  00                 numparams (1)
7D5F  01                 is_vararg (0)
7D60  00                 maxstacksize (9)
                         * code:
7D62  20                 sizecode (32)
fail op	35
7D63  23004000           [01] close      0  
7D67  1A800380           [02] jmp        15           ; to [18]
7D6B  5D400000           [03] getglobal  1   1        ; 1390508688
7D6F  9D800000           [04] getglobal  2   2        ; mMovie
7D73  D9C00000           [05] loadk      3   3        ; "_root"
7D77  1D010100           [06] getglobal  4   4        ; UISys
7D7B  0E414102           [07] gettable   4   4   261  ; "FlashInstance_LINEAR"
7D7F  4B018000           [08] newtable   5   1   0    ; array=1, hash=0
7D83  99810100           [09] loadk      6   6        ; "_alpha"
7D87  5B418000           [10] setlist    5   1   1    ; index 1 to 1
7D8B  8B018000           [11] newtable   6   1   0    ; array=1, hash=0
7D8F  D9C10100           [12] loadk      7   7        ; 0
7D93  9B418000           [13] setlist    6   1   1    ; index 1 to 1
7D97  D9010200           [14] loadk      7   8        ; -102
7D9B  19C20100           [15] loadk      8   7        ; 0
7D9F  62400004           [16] call       1   8   1  
7DA3  1A400380           [17] jmp        14           ; to [32]
7DA7  5D400000           [18] getglobal  1   1        ; 1390508688
7DAB  9D800000           [19] getglobal  2   2        ; mMovie
7DAF  D9C00000           [20] loadk      3   3        ; "_root"
7DB3  1D010100           [21] getglobal  4   4        ; UISys
7DB7  0E414202           [22] gettable   4   4   265  ; "FlashInstance_EASE_OUT"
7DBB  4B018000           [23] newtable   5   1   0    ; array=1, hash=0
7DBF  99810100           [24] loadk      6   6        ; "_alpha"
7DC3  5B418000           [25] setlist    5   1   1    ; index 1 to 1
7DC7  8B018000           [26] newtable   6   1   0    ; array=1, hash=0
7DCB  D9810200           [27] loadk      7   10       ; 0
7DCF  9B418000           [28] setlist    6   1   1    ; index 1 to 1
7DD3  D9010200           [29] loadk      7   8        ; -102
7DD7  19C20100           [30] loadk      8   7        ; 0
7DDB  62400004           [31] call       1   8   1  
7DDF  1E008000           [32] return     0   1      
                         * constants:
7DE3  0B                 sizek (11)
7DE4  04                 const type 4
7DE5  05                 string size (5)
7DE6  7472756500         "true\0"
                         const [0]: "true"
7DEB  01                 const type 3
7DEC  907AE152           const [1]: (1390508688)
7DF0  04                 const type 4
7DF1  07                 string size (7)
7DF2  6D4D6F76696500     "mMovie\0"
                         const [2]: "mMovie"
7DF9  04                 const type 4
7DFA  06                 string size (6)
7DFB  5F726F6F7400       "_root\0"
                         const [3]: "_root"
7E01  04                 const type 4
7E02  06                 string size (6)
7E03  554953797300       "UISys\0"
                         const [4]: "UISys"
7E09  04                 const type 4
7E0A  15                 string size (21)
7E0B  466C617368496E73+  "FlashIns"
7E13  74616E63655F4C49+  "tance_LI"
7E1B  4E45415200         "NEAR\0"
                         const [5]: "FlashInstance_LINEAR"
7E20  04                 const type 4
7E21  07                 string size (7)
7E22  5F616C70686100     "_alpha\0"
                         const [6]: "_alpha"
7E29  03                 const type 3
7E2A  00000000           const [7]: (0)
7E2E  03                 const type 3
7E2F  9A99193E           const [8]: (-102)
7E33  04                 const type 4
7E34  17                 string size (23)
7E35  466C617368496E73+  "FlashIns"
7E3D  74616E63655F4541+  "tance_EA"
7E45  53455F4F555400     "SE_OUT\0"
                         const [9]: "FlashInstance_EASE_OUT"
7E4C  03                 const type 3
7E4D  0000C842           const [10]: (0)
                         * functions:
7E51  00                 sizep (0)
                         * lines:
7E52  20                 sizelineinfo (32)
                         [pc] (line)
7E53  BE                 [01] (-66)
7E54  04                 [02] (-66)
7E55  00                 [03] (-65)
7E56  00                 [04] (-65)
7E57  BE                 [05] (-65)
7E58  04                 [06] (-65)
7E59  00                 [07] (-65)
7E5A  00                 [08] (-65)
7E5B  BF                 [09] (-65)
7E5C  04                 [10] (-65)
7E5D  00                 [11] (-65)
7E5E  00                 [12] (-65)
7E5F  BF                 [13] (-65)
7E60  04                 [14] (-65)
7E61  00                 [15] (-65)
7E62  00                 [16] (-65)
7E63  BF                 [17] (-65)
7E64  04                 [18] (-63)
7E65  00                 [19] (-63)
7E66  00                 [20] (-63)
7E67  BF                 [21] (-63)
7E68  04                 [22] (-63)
7E69  00                 [23] (-63)
7E6A  00                 [24] (-63)
7E6B  BF                 [25] (-63)
7E6C  04                 [26] (-63)
7E6D  00                 [27] (-63)
7E6E  00                 [28] (-63)
7E6F  BF                 [29] (-63)
7E70  04                 [30] (-63)
7E71  00                 [31] (-63)
7E72  00                 [32] (-61)
                         * locals:
7ED3  00                 sizelocvars (0)
                         * upvalues:
7ED4  00                 sizeupvalues (0)
                         ** end of function **

                         * lines:
7ED6  02                 sizelineinfo (356)
                         [pc] (line)
7ED7  05                 [001] (5)
7ED8  00                 [002] (5)
7ED9  00                 [003] (5)
7EDA  00                 [004] (6)
7EDB  05                 [005] (6)
7EDC  00                 [006] (6)
7EDD  00                 [007] (8)
7EDE  00                 [008] (13)
7EDF  05                 [009] (14)
7EE0  00                 [010] (17)
7EE1  00                 [011] (18)
7EE2  00                 [012] (18)
7EE3  06                 [013] (18)
7EE4  00                 [014] (18)
7EE5  00                 [015] (19)
7EE6  00                 [016] (19)
7EE7  06                 [017] (19)
7EE8  00                 [018] (19)
7EE9  00                 [019] (19)
7EEA  00                 [020] (19)
7EEB  06                 [021] (19)
7EEC  00                 [022] (19)
7EED  00                 [023] (19)
7EEE  00                 [024] (19)
7EEF  08                 [025] (20)
7EF0  00                 [026] (20)
7EF1  00                 [027] (20)
7EF2  00                 [028] (20)
7EF3  0D                 [029] (21)
7EF4  00                 [030] (21)
7EF5  00                 [031] (21)
7EF6  00                 [032] (21)
7EF7  0E                 [033] (21)
7EF8  00                 [034] (21)
7EF9  00                 [035] (22)
7EFA  00                 [036] (23)
7EFB  11                 [037] (25)
7EFC  00                 [038] (26)
7EFD  00                 [039] (29)
7EFE  00                 [040] (30)
7EFF  12                 [041] (32)
7F00  00                 [042] (32)
7F01  00                 [043] (32)
7F02  00                 [044] (33)
7F03  12                 [045] (33)
7F04  00                 [046] (33)
7F05  00                 [047] (34)
7F06  00                 [048] (34)
7F07  12                 [049] (34)
7F08  00                 [050] (35)
7F09  00                 [051] (35)
7F0A  00                 [052] (35)
7F0B  12                 [053] (36)
7F0C  00                 [054] (36)
7F0D  00                 [055] (36)
7F0E  00                 [056] (38)
7F0F  13                 [057] (38)
7F10  00                 [058] (38)
7F11  00                 [059] (39)
7F12  00                 [060] (40)
7F13  13                 [061] (42)
7F14  00                 [062] (52)
7F15  00                 [063] (52)
7F16  00                 [064] (52)
7F17  13                 [065] (50)
7F18  00                 [066] (58)
7F19  00                 [067] (58)
7F1A  00                 [068] (58)
7F1B  13                 [069] (58)
7F1C  00                 [070] (58)
7F1D  00                 [071] (54)
7F1E  00                 [072] (97)
7F1F  13                 [073] (97)
7F20  00                 [074] (97)
7F21  00                 [075] (97)
7F22  00                 [076] (97)
7F23  13                 [077] (-82)
7F24  00                 [078] (-82)
7F25  00                 [079] (-82)
7F26  00                 [080] (-82)
7F27  13                 [081] (-82)
7F28  00                 [082] (-82)
7F29  00                 [083] (-82)
7F2A  00                 [084] (-82)
7F2B  13                 [085] (-82)
7F2C  00                 [086] (-82)
7F2D  00                 [087] (-82)
7F2E  00                 [088] (-82)
7F2F  13                 [089] (-82)
7F30  00                 [090] (-82)
7F31  00                 [091] (-82)
7F32  00                 [092] (-78)
7F33  13                 [093] (-78)
7F34  00                 [094] (-78)
7F35  00                 [095] (-80)
7F36  00                 [096] (-19)
7F37  14                 [097] (-19)
7F38  00                 [098] (-19)
7F39  00                 [099] (-19)
7F3A  00                 [100] (-19)
7F3B  14                 [101] (-19)
7F3C  00                 [102] (-19)
7F3D  00                 [103] (-19)
7F3E  00                 [104] (-19)
7F3F  14                 [105] (-19)
7F40  00                 [106] (-19)
7F41  00                 [107] (-19)
7F42  00                 [108] (-19)
7F43  14                 [109] (-19)
7F44  00                 [110] (-19)
7F45  00                 [111] (-76)
7F46  00                 [112] (2)
7F47  15                 [113] (2)
7F48  00                 [114] (6)
7F49  00                 [115] (6)
7F4A  00                 [116] (6)
7F4B  15                 [117] (4)
7F4C  00                 [118] (57)
7F4D  00                 [119] (57)
7F4E  00                 [120] (57)
7F4F  15                 [121] (57)
7F50  00                 [122] (61)
7F51  00                 [123] (61)
7F52  00                 [124] (61)
7F53  15                 [125] (65)
7F54  00                 [126] (65)
7F55  00                 [127] (65)
7F56  00                 [128] (106)
7F57  15                 [129] (106)
7F58  00                 [130] (106)
7F59  00                 [131] (106)
7F5A  00                 [132] (106)
7F5B  15                 [133] (106)
7F5C  00                 [134] (106)
7F5D  00                 [135] (106)
7F5E  00                 [136] (106)
7F5F  16                 [137] (106)
7F60  00                 [138] (106)
7F61  00                 [139] (120)
7F62  00                 [140] (120)
7F63  17                 [141] (120)
7F64  00                 [142] (120)
7F65  00                 [143] (-123)
7F66  00                 [144] (-123)
7F67  19                 [145] (-123)
7F68  00                 [146] (-123)
7F69  00                 [147] (-123)
7F6A  00                 [148] (-93)
7F6B  1A                 [149] (-93)
7F6C  00                 [150] (-93)
7F6D  00                 [151] (-93)
7F6E  00                 [152] (-93)
7F6F  1D                 [153] (-93)
7F70  00                 [154] (-79)
7F71  00                 [155] (-79)
7F72  00                 [156] (-79)
7F73  1E                 [157] (-75)
7F74  00                 [158] (-75)
7F75  00                 [159] (-75)
7F76  00                 [160] (-68)
7F77  20                 [161] (-68)
7F78  00                 [162] (-68)
7F79  00                 [163] (-64)
7F7A  00                 [164] (-64)
7F7B  20                 [165] (-64)
7F7C  00                 [166] (-64)
7F7D  00                 [167] (-64)
7F7E  00                 [168] (-47)
7F7F  20                 [169] (-47)
7F80  00                 [170] (-47)
7F81  00                 [171] (-47)
7F82  00                 [172] (-43)
7F83  21                 [173] (-43)
7F84  00                 [174] (-43)
7F85  00                 [175] (-43)
7F86  00                 [176] (-43)
7F87  21                 [177] (-18)
7F88  00                 [178] (-18)
7F89  00                 [179] (-18)
7F8A  00                 [180] (-18)
7F8B  21                 [181] (-18)
7F8C  00                 [182] (-18)
7F8D  00                 [183] (-18)
7F8E  00                 [184] (121)
7F8F  22                 [185] (121)
7F90  00                 [186] (121)
7F91  00                 [187] (121)
7F92  00                 [188] (121)
7F93  22                 [189] (121)
7F94  00                 [190] (121)
7F95  00                 [191] (121)
7F96  00                 [192] (121)
7F97  22                 [193] (121)
7F98  00                 [194] (121)
7F99  00                 [195] (121)
7F9A  00                 [196] (125)
7F9B  23                 [197] (125)
7F9C  00                 [198] (-127)
7F9D  00                 [199] (-127)
7F9E  00                 [200] (-6)
7F9F  23                 [201] (-6)
7FA0  00                 [202] (-6)
7FA1  00                 [203] (-6)
7FA2  00                 [204] (-6)
7FA3  23                 [205] (-6)
7FA4  00                 [206] (-6)
7FA5  00                 [207] (-6)
7FA6  00                 [208] (-6)
7FA7  24                 [209] (-6)
7FA8  00                 [210] (-6)
7FA9  00                 [211] (-6)
7FAA  00                 [212] (-6)
7FAB  24                 [213] (-6)
7FAC  00                 [214] (-6)
7FAD  00                 [215] (-6)
7FAE  00                 [216] (-6)
7FAF  24                 [217] (-6)
7FB0  00                 [218] (-6)
7FB1  00                 [219] (-6)
7FB2  00                 [220] (10)
7FB3  26                 [221] (10)
7FB4  00                 [222] (20)
7FB5  00                 [223] (20)
7FB6  00                 [224] (20)
7FB7  26                 [225] (20)
7FB8  00                 [226] (48)
7FB9  00                 [227] (48)
7FBA  00                 [228] (48)
7FBB  26                 [229] (48)
7FBC  00                 [230] (48)
7FBD  00                 [231] (48)
7FBE  00                 [232] (70)
7FBF  27                 [233] (70)
7FC0  00                 [234] (70)
7FC1  00                 [235] (70)
7FC2  00                 [236] (70)
7FC3  28                 [237] (94)
7FC4  00                 [238] (94)
7FC5  00                 [239] (94)
7FC6  00                 [240] (94)
7FC7  2A                 [241] (-95)
7FC8  00                 [242] (-95)
7FC9  00                 [243] (-95)
7FCA  00                 [244] (-95)
7FCB  34                 [245] (-95)
7FCC  00                 [246] (-95)
7FCD  00                 [247] (-95)
7FCE  00                 [248] (-95)
7FCF  34                 [249] (-95)
7FD0  00                 [250] (-95)
7FD1  00                 [251] (-95)
7FD2  00                 [252] (-95)
7FD3  34                 [253] (-95)
7FD4  00                 [254] (-95)
7FD5  00                 [255] (-95)
7FD6  00                 [256] (-95)
7FD7  32                 [257] (-95)
7FD8  00                 [258] (-95)
7FD9  00                 [259] (-95)
7FDA  00                 [260] (-95)
7FDB  3A                 [261] (96)
7FDC  00                 [262] (-85)
7FDD  00                 [263] (-85)
7FDE  00                 [264] (-85)
7FDF  3A                 [265] (-93)
7FE0  00                 [266] (-72)
7FE1  00                 [267] (-72)
7FE2  00                 [268] (-72)
7FE3  3A                 [269] (-72)
7FE4  00                 [270] (-72)
7FE5  00                 [271] (-72)
7FE6  00                 [272] (-41)
7FE7  3A                 [273] (-41)
7FE8  00                 [274] (-41)
7FE9  00                 [275] (-41)
7FEA  00                 [276] (-41)
7FEB  3A                 [277] (-41)
7FEC  00                 [278] (-41)
7FED  00                 [279] (-41)
7FEE  00                 [280] (-41)
7FEF  36                 [281] (-41)
7FF0  00                 [282] (-41)
7FF1  00                 [283] (-41)
7FF2  00                 [284] (-41)
7FF3  61                 [285] (-41)
7FF4  00                 [286] (-41)
7FF5  00                 [287] (-41)
7FF6  00                 [288] (-37)
7FF7  61                 [289] (-37)
7FF8  00                 [290] (-37)
7FF9  00                 [291] (-39)
7FFA  00                 [292] (-33)
7FFB  61                 [293] (-33)
7FFC  00                 [294] (-33)
7FFD  00                 [295] (-35)
7FFE  00                 [296] (-12)
7FFF  61                 [297] (-12)
8000  00                 [298] (59)
8001  00                 [299] (59)
8002  00                 [300] (59)
8003  61                 [301] (59)
8004  00                 [302] (59)
8005  00                 [303] (59)
8006  00                 [304] (59)
8007  AE                 [305] (59)
8008  00                 [306] (59)
8009  00                 [307] (78)
800A  00                 [308] (78)
800B  AE                 [309] (78)
800C  00                 [310] (78)
800D  00                 [311] (78)
800E  00                 [312] (-108)
800F  AE                 [313] (-108)
8010  00                 [314] (-108)
8011  00                 [315] (-108)
8012  00                 [316] (-108)
8013  AE                 [317] (-108)
8014  00                 [318] (-108)
8015  00                 [319] (-108)
8016  00                 [320] (-108)
8017  AE                 [321] (-108)
8018  00                 [322] (-108)
8019  00                 [323] (-108)
801A  00                 [324] (-108)
801B  AE                 [325] (-108)
801C  00                 [326] (-108)
801D  00                 [327] (-108)
801E  00                 [328] (80)
801F  AE                 [329] (-97)
8020  00                 [330] (-97)
8021  00                 [331] (-97)
8022  00                 [332] (-97)
8023  AE                 [333] (-97)
8024  00                 [334] (-106)
8025  00                 [335] (-91)
8026  00                 [336] (-91)
8027  AE                 [337] (-91)
8028  00                 [338] (-95)
8029  00                 [339] (-85)
802A  00                 [340] (-85)
802B  AE                 [341] (-85)
802C  00                 [342] (-89)
802D  00                 [343] (-79)
802E  00                 [344] (-79)
802F  AE                 [345] (-79)
8030  00                 [346] (-79)
8031  00                 [347] (-83)
8032  00                 [348] (-69)
8033  AE                 [349] (-69)
8034  00                 [350] (-69)
8035  00                 [351] (-69)
8036  00                 [352] (-77)
8037  AE                 [353] (-61)
8038  00                 [354] (-61)
8039  00                 [355] (-67)
803A  00                 [356] (-61)
                         * locals:
8467  00                 sizelocvars (0)
                         * upvalues:
8468  00                 sizeupvalues (0)
                         ** end of function **

8469                     ** end of chunk **
