1	C:\wlua_dump\path\Lotus\InterfaceAppearancePreview.lua
Pos   Hex Data           Description or Code
------------------------------------------------------------------------
0000                     ** source chunk: C:\wlua_dump\path\Lotus\InterfaceAppearancePreview.lua
                         ** global header start **
0000  7F                 header signature: ""
0001  00                 version (major:minor hex digits)
0002  00                 format (0=official)
0003  00                 endianness (1=little endian)
0004  00                 size of int (bytes)
0005  00                 size of size_t (bytes)
0006  02                 size of Instruction (bytes)
0007  3D                 size of number (bytes)
0008  A9                 integral (1=integral)
4169
                         * number type: single
                         * x86 standard (32-bit, little endian, doubles)
                         ** global header end **
EE.Interface.Utilities
Lotus.Interface.LotusUtilities
Lotus.Interface.UIUtilities
Lotus.Interface.StoreItemUtilities
Lotus.Interface.UIStyleUtilities
Lotus.Interface.ModularWeaponUtilities
Lotus.Interface.LoadoutUtilities
EE.Interface.AnchorMgr
Center
Size
FadeSize
/Lotus/Language/Menu/AppearancePreview_ConfirmWord
/Lotus/Types/Vehicles/Hoverboard/HoverboardSuit
/Lotus/Types/Friendly/Pets/MoaPets/MoaPetPowerSuit
/Lotus/Interface/LoadOutRedux.swf
/Lotus/Upgrades/Skins/UnlockAnimSetBase
Loader
SecondaryLoader
IsLoading
IsLoadingSecond

IsInputBlocked
Shutdown
ApplyAppearance
EquipAppearance
ConfirmEquipAppearance
OnSaveLoadOutComplete
OnUpdateSessionSettings
Initialize
Update
onViewportSizeChanged
SetLink
SetSender
SetOnCloseCallback
SupportsThemes
ItemPressed
ItemFocused
ItemUnfocused
onKeyDown_MENU_RIGHT_X
onKeyUp_MENU_RIGHT_X
onKeyDown_MENU_MOUSE_Z
onRawInputEvent
_T
mMovie

mItemType
mItemId
mId

mPicker
mStoreItem
mOwned
mMovie
Count
math
mVisibleElements
mColumns
Filler
ItemGrid
_visible
_T
ShowBackground
Visible
HideBackground
mItemType
SkipCustomDiorama
SkipPreviewKubrow
mModularParts
ModularInfo
Gild
Parts
gGameData
mStoreItem
gGameData
gGameRules
mEquippedItem
mWeaponInfos
mItemType
mItem
table
mStoreItem
Lotus_Game
MAX_SlotName
mItemId
mId

mSkinInfo
mOwned
mPicker
PrimaryColors
Facial
Sigil
mIsHoverboard
mRawPalette
MAX_CustomizationColor
string
0x%08X
mColourPickers
mPalette
mMovie
Link
text
IsLoadingSecond
SecondaryLoader
UISys
/Lotus/Language/Menu/AppearancePreview_ApplyBtn_Disabled
gGameData
gGameRules
string
|
mStoreItem
mItemType
mIsHoverboard
mModularParts
table
_T
SetSquadOverlayTitle
mMovie
/Lotus/Language/Menu/AppearancePreview_Title
SENDER
WEAPON
AppearancePreview: Trying to decode bad link 
Lotus_Game
HEAVY_GUN_SLOT
LOT_ARCHWING
LONG_GUN_SLOT
0
MAX_SlotName
SigilChest
SigilBack
PrimaryColors
Facial
Sigil
MAX_CustomizationColor
nnnnnn
mRawPalette
IsLoading
Loader
UISys
mAllowUglyMode
Lotus_Game
MAX_SlotName
mItemType
mStoreItem
mOwned
PrimaryColors
Facial
Sigil
mIsHoverboard
mRawPalette
mPalette
MAX_CustomizationColor
Lotus_Game
table
Label
mMovie
<WARNING>
Tips
/Lotus/Language/WarframeHints/AppearancePreview_0
Padding
/Lotus/Language/Menu/Global_Back
CallBack
CallOut
MENU_CANCEL
_T
SetButtons
_T
InfoPopup_Data
InfoPopup_Grid
AppearancePreviewOpen
SetSquadOverlayTitle
Visible
ShowBackground
HighlightOffset
HighlightOn
VisRangeInfo
HideBackground
gFlashMgr
HideScreenForPlatPurchase
false
_G
UIMovie_DetailedPurchaseDialog
HideScreen
mMovie
_G
UIMovie_GenericMenu
SetTitle
/Lotus/Language/Menu/Appearance_Prefix
_T
ConfigSelectionDone
SetCallBack
GetConfigList
SetElementsFunction
_T
ConfigSelectionDone
GetConfigList
mItemInfo
mConfigId
mMovie
ConfirmEquipAppearance

mMovie
mWeaponInfos
mMovie
string
/Lotus/Language/Dojo/VaultContributionDecoIncorrectConfirmWord
gGameData
mItemId
mId

mItemType
OnSaveLoadOutComplete
gGameStatsMgr
LOOK_LINK
APPLIED

gGameRules
mItemType
mMovie
CONFIG_TYPES
/Lotus/Language/Menu/AppearancePreview_ConfirmTitle
/Lotus/Language/Menu/AppearancePreview_ConfirmDesc
WEAPON
CONFIG
OVERRIDE
/Lotus/Language/Menu/AppearancePreview_ConfirmShortDesc1
/Lotus/Language/Menu/AppearancePreview_ConfirmShortDesc2
string
EquipAppearance
gGameRules
gLotusPhotoBoothGameRulesType
OnUpdateSessionSettings
gRegion
equipEffect
EMPTY_SYMBOL
_T
InHub
{"loadout":
}
Lotus_Game
LOT_NORMAL
mEquippedItem
mItem
mItemId
mId
mCustSlot
gGameData
gFlashMgr
OnAppearanceCopied
unowedItemBgMaterial
unownedItemVisRangeMaterial
unownedItemTextVisRangeMaterial
mMovie
ItemGrid
_y
mRowSeparation
mRows
ElementDimBuffer
mInitialY
ElementHeight
Lotus_Game
VISIBILITY_CENTER
VISIBILITY_SIZE
VISIBILITY_FADE_SIZE
gGameRules
TransitionOut

EE.Interface.Components.Grid
mMovie
ItemGrid.Item
ItemPressed
ItemFocused
ItemUnfocused
mSelectElementsOnFocus
ElementWidth
ElementHeight
ElementDimBuffer
Width
Height
ItemGrid.ScrollBar
mScrollAlwaysVisible
VisibleRangeMaterial
unownedItemVisRangeMaterial
TextVisibleRangeMaterial
unownedItemTextVisRangeMaterial
RectangleVisibleRangeMaterial
unowedItemBgMaterial
mClipCreatedCallback
mOnSelectedCallback
mOnFocusedCallback
mOnUnfocusedCallback
mElementDrawCallback
ItemGrid.Title.text
/Lotus/Language/Menu/AppearancePreview_GridTitle
ItemGrid.Title
textColor
FloatingContent
mMovie
Filler
_T
marketDetailedViewParms
ITEM
CALLBACK
mMovie
_G
UIMovie_DetailedPurchaseDialog
SetIgnoreTopMenu
true
mClipName
mMovie
IsSelected
IsFocused
ShowInfoPopup
mClipName
mMovie
IsSelected
IsFocused
mClipName
mMovie
HideCountThreshold
IgnoreCount
Filler
Background1
Lotus_Game
UIStyle_Background1
FloatingContent
UIStyle_FloatingContent
Lotus.Interface.Components.ThemedSpinner
mMovie
Spinner
_T
RadialSolarMapOpen
UIInputEnabled
gFlashMgr
_G
UIMovie_DetailedPurchaseDialog
HideScreen
true
Lotus.Interface.Components.RotationControl
mUseControllerDeltaIfSet
Lotus.Interface.Components.AvatarDiorama
AppearancePreviewOpen
ItemGrid
ANCHOR_V_TOP
ANCHOR_H_LEFT
ApplyBtn
ANCHOR_V_BOTTOM
ANCHOR_H_RIGHT
Lotus.Interface.Components.ThemedButton
/Lotus/Language/Menu/AppearancePreview_ApplyBtn
ApplyAppearance
Link
_visible
HideScreenForPlatPurchase
gGameStatsMgr
LOOK_LINK
OPENED
mMovie
IsLoading
Loader
IsLoadingSecond
SecondaryLoader
mDioramaLoader
Engine
mForceUseControllerDelta
mMovie
AppearancePreview: 
mScrollBar
EN_MOUSE_B0
1
                         
0001                     ** function [0] definition (level 1)
                         ** start of function **
0001  00                 string size (0)
                         source name: (none)
0002  00                 line defined (0)
0003  00                 last line defined (0)
0004  00                 nups (0)
0005  00                 numparams (0)
0006  02                 is_vararg (2)
0007  3D                 maxstacksize (61)
                         * code:
0009  02                 sizecode (297)
000A  1D000000           [001] getglobal  0   0        ; 849075268
000E  59400000           [002] loadk      1   1        ; "EE.Interface.Utilities"
0012  22800001           [003] call       0   2   2  
0016  5D000000           [004] getglobal  1   0        ; 849075268
001A  99800000           [005] loadk      2   2        ; "Lotus.Interface.LotusUtilities"
001E  62800001           [006] call       1   2   2  
0022  9D000000           [007] getglobal  2   0        ; 849075268
0026  D9C00000           [008] loadk      3   3        ; "Lotus.Interface.UIUtilities"
002A  A2800001           [009] call       2   2   2  
002E  DD000000           [010] getglobal  3   0        ; 849075268
0032  19010100           [011] loadk      4   4        ; "Lotus.Interface.StoreItemUtilities"
0036  E2800001           [012] call       3   2   2  
003A  1D010000           [013] getglobal  4   0        ; 849075268
003E  59410100           [014] loadk      5   5        ; "Lotus.Interface.UIStyleUtilities"
0042  22810001           [015] call       4   2   2  
0046  5D010000           [016] getglobal  5   0        ; 849075268
004A  99810100           [017] loadk      6   6        ; "Lotus.Interface.ModularWeaponUtilities"
004E  62810001           [018] call       5   2   2  
0052  9D010000           [019] getglobal  6   0        ; 849075268
0056  D9C10100           [020] loadk      7   7        ; "Lotus.Interface.LoadoutUtilities"
005A  A2810001           [021] call       6   2   2  
005E  DD010000           [022] getglobal  7   0        ; 849075268
0062  19020200           [023] loadk      8   8        ; "EE.Interface.AnchorMgr"
0066  E2810001           [024] call       7   2   2  
006A  0BC20000           [025] newtable   8   0   3    ; array=0, hash=3
006E  0C82C284           [026] settable   8   265 266  ; "Center" 0
0072  0C02C385           [027] settable   8   267 268  ; "Size" 51
0076  0C82C386           [028] settable   8   269 270  ; "FadeSize" 0
007A  59C20300           [029] loadk      9   15       ; "/Lotus/Language/Menu/AppearancePreview_ConfirmWord"
007E  9D020400           [030] getglobal  10  16       ; 738251817
0082  D9420400           [031] loadk      11  17       ; "/Lotus/Types/Vehicles/Hoverboard/HoverboardSuit"
0086  A2820001           [032] call       10  2   2  
008A  DD020400           [033] getglobal  11  16       ; 738251817
008E  19830400           [034] loadk      12  18       ; "/Lotus/Types/Friendly/Pets/MoaPets/MoaPetPowerSuit"
0092  E2820001           [035] call       11  2   2  
0096  1D030400           [036] getglobal  12  16       ; 738251817
009A  59C30400           [037] loadk      13  19       ; "/Lotus/Interface/LoadOutRedux.swf"
009E  22830001           [038] call       12  2   2  
00A2  5D030400           [039] getglobal  13  16       ; 738251817
00A6  99030500           [040] loadk      14  20       ; "/Lotus/Upgrades/Skins/UnlockAnimSetBase"
00AA  62830001           [041] call       13  2   2  
00AE  8B030100           [042] newtable   14  0   4    ; array=0, hash=4
00B2  8C83C58A           [043] settable   14  277 278  ; "Loader" nil
00B6  8C83C58B           [044] settable   14  279 278  ; "SecondaryLoader" nil
00BA  8C43468C           [045] settable   14  280 281  ; "IsLoading" 0
00BE  8C43468D           [046] settable   14  282 281  ; "IsLoadingSecond" 0
00C2  C6038007           [047] loadnil    15  15     
00C6  17040000           [048] loadbool   16  0   0    ; false
00CA  46040009           [049] loadnil    17  18     
00CE  CB040000           [050] newtable   19  0   0    ; array=0, hash=0
00D2  0605800B           [051] loadnil    20  23     
00D6  17060000           [052] loadbool   24  0   0    ; false
00DA  4606800D           [053] loadnil    25  27     
00DE  17070000           [054] loadbool   28  0   0    ; false
00E2  4B070000           [055] newtable   29  0   0    ; array=0, hash=0
00E6  8B070000           [056] newtable   30  0   0    ; array=0, hash=0
00EA  D7070000           [057] loadbool   31  0   0    ; false
00EE  19C80600           [058] loadk      32  27       ; ""
00F2  57080000           [059] loadbool   33  0   0    ; false
00F6  8B080000           [060] newtable   34  0   0    ; array=0, hash=0
00FA  CB080000           [061] newtable   35  0   0    ; array=0, hash=0
00FE  17090000           [062] loadbool   36  0   0    ; false
0102  46098012           [063] loadnil    37  37     
0106  99890200           [064] loadk      38  10       ; 0
010A  CB090000           [065] newtable   39  0   0    ; array=0, hash=0
010E  0B0A0000           [066] newtable   40  0   0    ; array=0, hash=0
0112  4B0A0000           [067] newtable   41  0   0    ; array=0, hash=0
0116  860A0015           [068] loadnil    42  42     
011A  E50A0000           [069] closure    43  0      
011E  1200000C           [070] move       0   24     
0122  E00A0700           [071] setglobal  43  28       ; IsInputBlocked
0126  E04A0700           [072] setglobal  43  29       ; 1877468992
012A  E54A0000           [073] closure    43  1      
012E  1200800C           [074] move       0   25     
0132  258B0000           [075] closure    44  2      
0136  65CB0000           [076] closure    45  3      
013A  A50B0100           [077] closure    46  4      
013E  1200000F           [078] move       0   30     
0142  12000017           [079] move       0   46     
0146  E54B0100           [080] closure    47  5      
014A  12000015           [081] move       0   42     
014E  12008014           [082] move       0   41     
0152  12008001           [083] move       0   3      
0156  12008010           [084] move       0   33     
015A  12000004           [085] move       0   8      
015E  12008011           [086] move       0   35     
0162  258C0100           [087] closure    48  6      
0166  1200800E           [088] move       0   29     
016A  12000009           [089] move       0   18     
016E  1200800A           [090] move       0   21     
0172  65CC0100           [091] closure    49  7      
0176  12008014           [092] move       0   41     
017A  1200800E           [093] move       0   29     
017E  1200000D           [094] move       0   26     
0182  1200800D           [095] move       0   27     
0186  12000003           [096] move       0   6      
018A  12008013           [097] move       0   39     
018E  12008016           [098] move       0   45     
0192  12008006           [099] move       0   13     
0196  1200000F           [100] move       0   30     
019A  12000014           [101] move       0   40     
019E  12000017           [102] move       0   46     
01A2  12008017           [103] move       0   47     
01A6  12000007           [104] move       0   14     
01AA  12000018           [105] move       0   48     
01AE  1200800A           [106] move       0   21     
01B2  A50C0200           [107] closure    50  8      
01B6  1200000B           [108] move       0   22     
01BA  1200800E           [109] move       0   29     
01BE  12000016           [110] move       0   44     
01C2  12000005           [111] move       0   10     
01C6  12000010           [112] move       0   32     
01CA  1200800F           [113] move       0   31     
01CE  12008002           [114] move       0   5      
01D2  1200000D           [115] move       0   26     
01D6  1200800D           [116] move       0   27     
01DA  1200000E           [117] move       0   28     
01DE  12008013           [118] move       0   39     
01E2  1200000F           [119] move       0   30     
01E6  12008000           [120] move       0   1      
01EA  12000014           [121] move       0   40     
01EE  12000007           [122] move       0   14     
01F2  12008018           [123] move       0   49     
01F6  E54C0200           [124] closure    51  9      
01FA  1200000E           [125] move       0   28     
01FE  12008013           [126] move       0   39     
0202  12008012           [127] move       0   37     
0206  1200800E           [128] move       0   29     
020A  12000000           [129] move       0   0      
020E  12000014           [130] move       0   40     
0212  258D0200           [131] closure    52  10     
0216  12008019           [132] move       0   51     
021A  12000005           [133] move       0   10     
021E  12008005           [134] move       0   11     
0222  65CD0200           [135] closure    53  11     
0226  12008015           [136] move       0   43     
022A  A50D0300           [137] closure    54  12     
022E  1200800B           [138] move       0   23     
0232  1200800F           [139] move       0   31     
0236  12008011           [140] move       0   35     
023A  12008010           [141] move       0   33     
023E  12000008           [142] move       0   16     
0242  12000001           [143] move       0   2      
0246  12000011           [144] move       0   34     
024A  12008000           [145] move       0   1      
024E  12000012           [146] move       0   36     
0252  1200800C           [147] move       0   25     
0256  A08D0700           [148] setglobal  54  30       ; Shutdown
025A  A0CD0700           [149] setglobal  54  31       ; 1012367267
025E  A54D0300           [150] closure    54  13     
0262  1200000B           [151] move       0   22     
0266  1200800B           [152] move       0   23     
026A  1200000C           [153] move       0   24     
026E  12008012           [154] move       0   37     
0272  12000013           [155] move       0   38     
0276  12000003           [156] move       0   6      
027A  1200800E           [157] move       0   29     
027E  A00D0800           [158] setglobal  54  32       ; ApplyAppearance
0282  A04D0800           [159] setglobal  54  33       ; 969613292
0286  A58D0300           [160] closure    54  14     
028A  12008004           [161] move       0   9      
028E  12000000           [162] move       0   0      
0292  12008012           [163] move       0   37     
0296  12000013           [164] move       0   38     
029A  12008019           [165] move       0   51     
029E  1200800E           [166] move       0   29     
02A2  A08D0800           [167] setglobal  54  34       ; EquipAppearance
02A6  A0CD0800           [168] setglobal  54  35       ; 1274327261
02AA  A5CD0300           [169] closure    54  15     
02AE  12008012           [170] move       0   37     
02B2  12000013           [171] move       0   38     
02B6  12000003           [172] move       0   6      
02BA  12008004           [173] move       0   9      
02BE  12008000           [174] move       0   1      
02C2  A00D0900           [175] setglobal  54  36       ; ConfirmEquipAppearance
02C6  A04D0900           [176] setglobal  54  37       ; -1651013883
02CA  A50D0400           [177] closure    54  16     
02CE  12008000           [178] move       0   1      
02D2  1200000D           [179] move       0   26     
02D6  1200800E           [180] move       0   29     
02DA  12008012           [181] move       0   37     
02DE  12000013           [182] move       0   38     
02E2  12000006           [183] move       0   12     
02E6  12008015           [184] move       0   43     
02EA  A08D0900           [185] setglobal  54  38       ; OnSaveLoadOutComplete
02EE  A0CD0900           [186] setglobal  54  39       ; -554137788
02F2  A54D0400           [187] closure    54  17     
02F6  A00D0A00           [188] setglobal  54  40       ; OnUpdateSessionSettings
02FA  A04D0A00           [189] setglobal  54  41       ; -237945275
02FE  A58D0400           [190] closure    54  18     
0302  12000015           [191] move       0   42     
0306  12000000           [192] move       0   0      
030A  E5CD0400           [193] closure    55  19     
030E  1200000F           [194] move       0   30     
0312  12008000           [195] move       0   1      
0316  12008018           [196] move       0   49     
031A  1200800B           [197] move       0   23     
031E  250E0500           [198] closure    56  20     
0322  12000015           [199] move       0   42     
0326  12000001           [200] move       0   2      
032A  1200801B           [201] move       0   55     
032E  1200800B           [202] move       0   23     
0332  12008009           [203] move       0   19     
0336  1200001B           [204] move       0   54     
033A  654E0500           [205] closure    57  21     
033E  12008009           [206] move       0   19     
0342  12000002           [207] move       0   4      
0346  12008007           [208] move       0   15     
034A  12008011           [209] move       0   35     
034E  12000001           [210] move       0   2      
0352  12000011           [211] move       0   34     
0356  12008000           [212] move       0   1      
035A  12000012           [213] move       0   36     
035E  12008008           [214] move       0   17     
0362  12000009           [215] move       0   18     
0366  12000000           [216] move       0   0      
036A  1200000A           [217] move       0   20     
036E  12008003           [218] move       0   7      
0372  1200800A           [219] move       0   21     
0376  1200001C           [220] move       0   56     
037A  1200801A           [221] move       0   53     
037E  608E0A00           [222] setglobal  57  42       ; Initialize
0382  60CE0A00           [223] setglobal  57  43       ; 1650753590
0386  658E0500           [224] closure    57  22     
038A  12008007           [225] move       0   15     
038E  12000007           [226] move       0   14     
0392  12008018           [227] move       0   49     
0396  12000018           [228] move       0   48     
039A  12000009           [229] move       0   18     
039E  12000008           [230] move       0   16     
03A2  1200001A           [231] move       0   52     
03A6  12000000           [232] move       0   0      
03AA  12008008           [233] move       0   17     
03AE  1200000C           [234] move       0   24     
03B2  600E0B00           [235] setglobal  57  44       ; Update
03B6  604E0B00           [236] setglobal  57  45       ; -1938777623
03BA  65CE0500           [237] closure    57  23     
03BE  1200000A           [238] move       0   20     
03C2  1200001B           [239] move       0   54     
03C6  608E0B00           [240] setglobal  57  46       ; onViewportSizeChanged
03CA  60CE0B00           [241] setglobal  57  47       ; 982516775
03CE  650E0600           [242] closure    57  24     
03D2  1200000B           [243] move       0   22     
03D6  12000019           [244] move       0   50     
03DA  12008015           [245] move       0   43     
03DE  600E0C00           [246] setglobal  57  48       ; SetLink
03E2  604E0C00           [247] setglobal  57  49       ; -1735157166
03E6  654E0600           [248] closure    57  25     
03EA  12000010           [249] move       0   32     
03EE  608E0C00           [250] setglobal  57  50       ; SetSender
03F2  60CE0C00           [251] setglobal  57  51       ; 603449262
03F6  658E0600           [252] closure    57  26     
03FA  1200800C           [253] move       0   25     
03FE  600E0D00           [254] setglobal  57  52       ; SetOnCloseCallback
0402  604E0D00           [255] setglobal  57  53       ; 477373205
0406  65CE0600           [256] closure    57  27     
040A  608E0D00           [257] setglobal  57  54       ; SupportsThemes
040E  60CE0D00           [258] setglobal  57  55       ; -605602914
0412  650E0700           [259] closure    57  28     
0416  1200000C           [260] move       0   24     
041A  12000015           [261] move       0   42     
041E  600E0E00           [262] setglobal  57  56       ; ItemPressed
0422  604E0E00           [263] setglobal  57  57       ; -1701565293
0426  654E0700           [264] closure    57  29     
042A  12000015           [265] move       0   42     
042E  608E0E00           [266] setglobal  57  58       ; ItemFocused
0432  60CE0E00           [267] setglobal  57  59       ; -1310662604
0436  658E0700           [268] closure    57  30     
043A  12000015           [269] move       0   42     
043E  600E0F00           [270] setglobal  57  60       ; ItemUnfocused
0442  604E0F00           [271] setglobal  57  61       ; 1267579337
0446  65CE0700           [272] closure    57  31     
044A  1200000C           [273] move       0   24     
044E  12008008           [274] move       0   17     
0452  A50E0800           [275] closure    58  32     
0456  1200801C           [276] move       0   57     
045A  A08E0F00           [277] setglobal  58  62       ; onKeyDown_MENU_RIGHT_X
045E  A0CE0F00           [278] setglobal  58  63       ; 109066814
0462  A54E0800           [279] closure    58  33     
0466  1200801C           [280] move       0   57     
046A  A00E1000           [281] setglobal  58  64       ; onKeyUp_MENU_RIGHT_X
046E  A04E1000           [282] setglobal  58  65       ; -1509066575
0472  A58E0800           [283] closure    58  34     
0476  12008008           [284] move       0   17     
047A  E5CE0800           [285] closure    59  35     
047E  12008008           [286] move       0   17     
0482  250F0900           [287] closure    60  36     
0486  1200000C           [288] move       0   24     
048A  12000015           [289] move       0   42     
048E  208F1000           [290] setglobal  60  66       ; onKeyDown_MENU_MOUSE_Z
0492  20CF1000           [291] setglobal  60  67       ; 1458230185
0496  254F0900           [292] closure    60  37     
049A  1200001D           [293] move       0   58     
049E  1200801D           [294] move       0   59     
04A2  200F1100           [295] setglobal  60  68       ; onRawInputEvent
04A6  204F1100           [296] setglobal  60  69       ; 290863379
04AA  1E008000           [297] return     0   1      
                         * constants:
04AE  46                 sizek (70)
04AF  01                 const type 3
04B0  44DC9B32           const [0]: (849075268)
04B4  04                 const type 4
04B5  17                 string size (23)
04B6  45452E496E746572+  "EE.Inter"
04BE  666163652E557469+  "face.Uti"
04C6  6C697469657300     "lities\0"
                         const [1]: "EE.Interface.Utilities"
04CD  04                 const type 4
04CE  1F                 string size (31)
04CF  4C6F7475732E496E+  "Lotus.In"
04D7  746572666163652E+  "terface."
04DF  4C6F747573557469+  "LotusUti"
04E7  6C697469657300     "lities\0"
                         const [2]: "Lotus.Interface.LotusUtilities"
04EE  04                 const type 4
04EF  1C                 string size (28)
04F0  4C6F7475732E496E+  "Lotus.In"
04F8  746572666163652E+  "terface."
0500  55495574696C6974+  "UIUtilit"
0508  69657300           "ies\0"
                         const [3]: "Lotus.Interface.UIUtilities"
050C  04                 const type 4
050D  23                 string size (35)
050E  4C6F7475732E496E+  "Lotus.In"
0516  746572666163652E+  "terface."
051E  53746F7265497465+  "StoreIte"
0526  6D5574696C697469+  "mUtiliti"
052E  657300             "es\0"
                         const [4]: "Lotus.Interface.StoreItemUtilities"
0531  04                 const type 4
0532  21                 string size (33)
0533  4C6F7475732E496E+  "Lotus.In"
053B  746572666163652E+  "terface."
0543  55495374796C6555+  "UIStyleU"
054B  74696C6974696573+  "tilities"
0553  00                 "\0"
                         const [5]: "Lotus.Interface.UIStyleUtilities"
0554  04                 const type 4
0555  27                 string size (39)
0556  4C6F7475732E496E+  "Lotus.In"
055E  746572666163652E+  "terface."
0566  4D6F64756C617257+  "ModularW"
056E  6561706F6E557469+  "eaponUti"
0576  6C697469657300     "lities\0"
                         const [6]: "Lotus.Interface.ModularWeaponUtilities"
057D  04                 const type 4
057E  21                 string size (33)
057F  4C6F7475732E496E+  "Lotus.In"
0587  746572666163652E+  "terface."
058F  4C6F61646F757455+  "LoadoutU"
0597  74696C6974696573+  "tilities"
059F  00                 "\0"
                         const [7]: "Lotus.Interface.LoadoutUtilities"
05A0  04                 const type 4
05A1  17                 string size (23)
05A2  45452E496E746572+  "EE.Inter"
05AA  666163652E416E63+  "face.Anc"
05B2  686F724D677200     "horMgr\0"
                         const [8]: "EE.Interface.AnchorMgr"
05B9  04                 const type 4
05BA  07                 string size (7)
05BB  43656E74657200     "Center\0"
                         const [9]: "Center"
05C2  03                 const type 3
05C3  00000000           const [10]: (0)
05C7  04                 const type 4
05C8  05                 string size (5)
05C9  53697A6500         "Size\0"
                         const [11]: "Size"
05CE  03                 const type 3
05CF  3333B33E           const [12]: (51)
05D3  04                 const type 4
05D4  09                 string size (9)
05D5  4661646553697A65+  "FadeSize"
05DD  00                 "\0"
                         const [13]: "FadeSize"
05DE  03                 const type 3
05DF  0000803E           const [14]: (0)
05E3  04                 const type 4
05E4  33                 string size (51)
05E5  2F4C6F7475732F4C+  "/Lotus/L"
05ED  616E67756167652F+  "anguage/"
05F5  4D656E752F417070+  "Menu/App"
05FD  656172616E636550+  "earanceP"
0605  7265766965775F43+  "review_C"
060D  6F6E6669726D576F+  "onfirmWo"
0615  726400             "rd\0"
                         const [15]: "/Lotus/Language/Menu/AppearancePreview_ConfirmWord"
0618  01                 const type 3
0619  29D4002C           const [16]: (738251817)
061D  04                 const type 4
061E  30                 string size (48)
061F  2F4C6F7475732F54+  "/Lotus/T"
0627  797065732F566568+  "ypes/Veh"
062F  69636C65732F486F+  "icles/Ho"
0637  766572626F617264+  "verboard"
063F  2F486F766572626F+  "/Hoverbo"
0647  6172645375697400   "ardSuit\0"
                         const [17]: "/Lotus/Types/Vehicles/Hoverboard/HoverboardSuit"
064F  04                 const type 4
0650  33                 string size (51)
0651  2F4C6F7475732F54+  "/Lotus/T"
0659  797065732F467269+  "ypes/Fri"
0661  656E646C792F5065+  "endly/Pe"
0669  74732F4D6F615065+  "ts/MoaPe"
0671  74732F4D6F615065+  "ts/MoaPe"
0679  74506F7765725375+  "tPowerSu"
0681  697400             "it\0"
                         const [18]: "/Lotus/Types/Friendly/Pets/MoaPets/MoaPetPowerSuit"
0684  04                 const type 4
0685  22                 string size (34)
0686  2F4C6F7475732F49+  "/Lotus/I"
068E  6E74657266616365+  "nterface"
0696  2F4C6F61644F7574+  "/LoadOut"
069E  52656475782E7377+  "Redux.sw"
06A6  6600               "f\0"
                         const [19]: "/Lotus/Interface/LoadOutRedux.swf"
06A8  04                 const type 4
06A9  28                 string size (40)
06AA  2F4C6F7475732F55+  "/Lotus/U"
06B2  706772616465732F+  "pgrades/"
06BA  536B696E732F556E+  "Skins/Un"
06C2  6C6F636B416E696D+  "lockAnim"
06CA  5365744261736500   "SetBase\0"
                         const [20]: "/Lotus/Upgrades/Skins/UnlockAnimSetBase"
06D2  04                 const type 4
06D3  07                 string size (7)
06D4  4C6F6164657200     "Loader\0"
                         const [21]: "Loader"
06DB  00                 const type 0
                         const [22]: nil
06DC  04                 const type 4
06DD  10                 string size (16)
06DE  5365636F6E646172+  "Secondar"
06E6  794C6F6164657200   "yLoader\0"
                         const [23]: "SecondaryLoader"
06EE  04                 const type 4
06EF  0A                 string size (10)
06F0  49734C6F6164696E+  "IsLoadin"
06F8  6700               "g\0"
                         const [24]: "IsLoading"
06FA  01                 const type 3
06FB  00000000           const [25]: (0)
06FF  04                 const type 4
0700  10                 string size (16)
0701  49734C6F6164696E+  "IsLoadin"
0709  675365636F6E6400   "gSecond\0"
                         const [26]: "IsLoadingSecond"
0711  04                 const type 4
0712  01                 string size (0)
                         const [27]: ""
0714  04                 const type 4
0715  0F                 string size (15)
0716  4973496E70757442+  "IsInputB"
071E  6C6F636B656400     "locked\0"
                         const [28]: "IsInputBlocked"
0725  01                 const type 3
0726  40E7E76F           const [29]: (1877468992)
072A  04                 const type 4
072B  09                 string size (9)
072C  53687574646F776E+  "Shutdown"
0734  00                 "\0"
                         const [30]: "Shutdown"
0735  01                 const type 3
0736  A37F573C           const [31]: (1012367267)
073A  04                 const type 4
073B  10                 string size (16)
073C  4170706C79417070+  "ApplyApp"
0744  656172616E636500   "earance\0"
                         const [32]: "ApplyAppearance"
074C  01                 const type 3
074D  EC1FCB39           const [33]: (969613292)
0751  04                 const type 4
0752  10                 string size (16)
0753  4571756970417070+  "EquipApp"
075B  656172616E636500   "earance\0"
                         const [34]: "EquipAppearance"
0763  01                 const type 3
0764  DDB0F44B           const [35]: (1274327261)
0768  04                 const type 4
0769  17                 string size (23)
076A  436F6E6669726D45+  "ConfirmE"
0772  7175697041707065+  "quipAppe"
077A  6172616E636500     "arance\0"
                         const [36]: "ConfirmEquipAppearance"
0781  01                 const type 3
0782  0587979D           const [37]: (-1651013883)
0786  04                 const type 4
0787  16                 string size (22)
0788  4F6E536176654C6F+  "OnSaveLo"
0790  61644F7574436F6D+  "adOutCom"
0798  706C65746500       "plete\0"
                         const [38]: "OnSaveLoadOutComplete"
079E  01                 const type 3
079F  4487F8DE           const [39]: (-554137788)
07A3  04                 const type 4
07A4  18                 string size (24)
07A5  4F6E557064617465+  "OnUpdate"
07AD  53657373696F6E53+  "SessionS"
07B5  657474696E677300   "ettings\0"
                         const [40]: "OnUpdateSessionSettings"
07BD  01                 const type 3
07BE  453ED1F1           const [41]: (-237945275)
07C2  04                 const type 4
07C3  0B                 string size (11)
07C4  496E697469616C69+  "Initiali"
07CC  7A6500             "ze\0"
                         const [42]: "Initialize"
07CF  01                 const type 3
07D0  36806462           const [43]: (1650753590)
07D4  04                 const type 4
07D5  07                 string size (7)
07D6  55706461746500     "Update\0"
                         const [44]: "Update"
07DD  01                 const type 3
07DE  E999708C           const [45]: (-1938777623)
07E2  04                 const type 4
07E3  16                 string size (22)
07E4  6F6E56696577706F+  "onViewpo"
07EC  727453697A654368+  "rtSizeCh"
07F4  616E67656400       "anged\0"
                         const [46]: "onViewportSizeChanged"
07FA  01                 const type 3
07FB  2704903A           const [47]: (982516775)
07FF  04                 const type 4
0800  08                 string size (8)
0801  5365744C696E6B00   "SetLink\0"
                         const [48]: "SetLink"
0809  01                 const type 3
080A  529A9398           const [49]: (-1735157166)
080E  04                 const type 4
080F  0A                 string size (10)
0810  53657453656E6465+  "SetSende"
0818  7200               "r\0"
                         const [50]: "SetSender"
081A  01                 const type 3
081B  AEE7F723           const [51]: (603449262)
081F  04                 const type 4
0820  13                 string size (19)
0821  5365744F6E436C6F+  "SetOnClo"
0829  736543616C6C6261+  "seCallba"
0831  636B00             "ck\0"
                         const [52]: "SetOnCloseCallback"
0834  01                 const type 3
0835  1523741C           const [53]: (477373205)
0839  04                 const type 4
083A  0F                 string size (15)
083B  537570706F727473+  "Supports"
0843  5468656D657300     "Themes\0"
                         const [54]: "SupportsThemes"
084A  01                 const type 3
084B  9E3BE7DB           const [55]: (-605602914)
084F  04                 const type 4
0850  0C                 string size (12)
0851  4974656D50726573+  "ItemPres"
0859  73656400           "sed\0"
                         const [56]: "ItemPressed"
085D  01                 const type 3
085E  932C949A           const [57]: (-1701565293)
0862  04                 const type 4
0863  0C                 string size (12)
0864  4974656D466F6375+  "ItemFocu"
086C  73656400           "sed\0"
                         const [58]: "ItemFocused"
0870  01                 const type 3
0871  34E0E0B1           const [59]: (-1310662604)
0875  04                 const type 4
0876  0E                 string size (14)
0877  4974656D556E666F+  "ItemUnfo"
087F  637573656400       "cused\0"
                         const [60]: "ItemUnfocused"
0885  01                 const type 3
0886  C9B98D4B           const [61]: (1267579337)
088A  04                 const type 4
088B  17                 string size (23)
088C  6F6E4B6579446F77+  "onKeyDow"
0894  6E5F4D454E555F52+  "n_MENU_R"
089C  494748545F5800     "IGHT_X\0"
                         const [62]: "onKeyDown_MENU_RIGHT_X"
08A3  01                 const type 3
08A4  3E3A8006           const [63]: (109066814)
08A8  04                 const type 4
08A9  15                 string size (21)
08AA  6F6E4B657955705F+  "onKeyUp_"
08B2  4D454E555F524947+  "MENU_RIG"
08BA  48545F5800         "HT_X\0"
                         const [64]: "onKeyUp_MENU_RIGHT_X"
08BF  01                 const type 3
08C0  B1780DA6           const [65]: (-1509066575)
08C4  04                 const type 4
08C5  17                 string size (23)
08C6  6F6E4B6579446F77+  "onKeyDow"
08CE  6E5F4D454E555F4D+  "n_MENU_M"
08D6  4F5553455F5A00     "OUSE_Z\0"
                         const [66]: "onKeyDown_MENU_MOUSE_Z"
08DD  01                 const type 3
08DE  A9D3EA56           const [67]: (1458230185)
08E2  04                 const type 4
08E3  10                 string size (16)
08E4  6F6E526177496E70+  "onRawInp"
08EC  75744576656E7400   "utEvent\0"
                         const [68]: "onRawInputEvent"
08F4  01                 const type 3
08F5  13395611           const [69]: (290863379)
                         * functions:
08F9  26                 sizep (38)
                         
08FA                     ** function [0] definition (level 2)
                         ** start of function **
08FA  00                 string size (0)
                         source name: (none)
08FB  36                 line defined (54)
08FC  38                 last line defined (56)
08FD  01                 nups (1)
08FE  00                 numparams (0)
08FF  00                 is_vararg (0)
0900  02                 maxstacksize (2)
                         * code:
0901  03                 sizecode (3)
0902  13000000           [1] getupval   0   0      
0906  1E000001           [2] return     0   2      
090A  1E008000           [3] return     0   1      
                         * constants:
090E  00                 sizek (0)
                         * functions:
090F  00                 sizep (0)
                         * lines:
0910  03                 sizelineinfo (3)
                         [pc] (line)
0911  37                 [1] (55)
0912  00                 [2] (55)
0913  00                 [3] (56)
                         * locals:
091D  00                 sizelocvars (0)
                         * upvalues:
091E  00                 sizeupvalues (0)
                         ** end of function **

                         
091F                     ** function [1] definition (level 2)
                         ** start of function **
091F  00                 string size (0)
                         source name: (none)
0920  3A                 line defined (58)
0921  43                 last line defined (67)
0922  01                 nups (1)
0923  00                 numparams (0)
0924  00                 is_vararg (0)
0925  03                 maxstacksize (3)
                         * code:
0926  19                 sizecode (25)
0927  1D000000           [01] getglobal  0   0        ; _T
092B  0E404000           [02] gettable   0   0   257  ; -270549122
092F  5D800000           [03] getglobal  1   2        ; mMovie
0933  86000001           [04] loadnil    2   2      
0937  22408001           [05] call       0   3   1  
093B  13000000           [06] getupval   0   0      
fail op	35
093F  63C04000           [07] close      1  
0943  1A000380           [08] jmp        13           ; to [22]
0947  1D000100           [09] getglobal  0   4        ; 1074689893
094B  5D000000           [10] getglobal  1   0        ; _T
094F  93000000           [11] getupval   2   0      
0953  4E808000           [12] gettable   1   1   2  
0957  22800001           [13] call       0   2   2  
095B  18400000           [14] test       0       1    ; to [16] if false
095F  1A400180           [15] jmp        6            ; to [22]
0963  1D000000           [16] getglobal  0   0        ; _T
0967  53000000           [17] getupval   1   0      
096B  0E400000           [18] gettable   0   0   1  
096F  22408000           [19] call       0   1   1  
0973  06000000           [20] loadnil    0   0      
fail op	8
0977  08000000           [21] setupval   0   0      
097B  1D800000           [22] getglobal  0   2        ; mMovie
097F  24404100           [23] self       0   0   261  ; -1517569684
0983  22400001           [24] call       0   2   1  
0987  1E008000           [25] return     0   1      
                         * constants:
098B  06                 sizek (6)
098C  04                 const type 4
098D  03                 string size (3)
098E  5F5400             "_T\0"
                         const [0]: "_T"
0991  01                 const type 3
0992  7EBFDFEF           const [1]: (-270549122)
0996  04                 const type 4
0997  07                 string size (7)
0998  6D4D6F76696500     "mMovie\0"
                         const [2]: "mMovie"
099F  00                 const type 0
                         const [3]: nil
09A0  01                 const type 3
09A1  65770E40           const [4]: (1074689893)
09A5  01                 const type 3
09A6  6CB98BA5           const [5]: (-1517569684)
                         * functions:
09AA  00                 sizep (0)
                         * lines:
09AB  19                 sizelineinfo (25)
                         [pc] (line)
09AC  3B                 [01] (59)
09AD  00                 [02] (59)
09AE  00                 [03] (59)
09AF  00                 [04] (59)
09B0  3B                 [05] (59)
09B1  00                 [06] (61)
09B2  00                 [07] (61)
09B3  00                 [08] (61)
09B4  3B                 [09] (61)
09B5  00                 [10] (61)
09B6  00                 [11] (61)
09B7  00                 [12] (61)
09B8  3B                 [13] (61)
09B9  00                 [14] (61)
09BA  00                 [15] (61)
09BB  00                 [16] (62)
09BC  3B                 [17] (62)
09BD  00                 [18] (62)
09BE  00                 [19] (62)
09BF  00                 [20] (63)
09C0  3D                 [21] (63)
09C1  00                 [22] (66)
09C2  00                 [23] (66)
09C3  00                 [24] (66)
09C4  3D                 [25] (67)
                         * locals:
0A10  00                 sizelocvars (0)
                         * upvalues:
0A11  00                 sizeupvalues (0)
                         ** end of function **

                         
0A12                     ** function [2] definition (level 2)
                         ** start of function **
0A12  00                 string size (0)
                         source name: (none)
0A13  45                 line defined (69)
0A14  50                 last line defined (80)
0A15  00                 nups (0)
0A16  02                 numparams (2)
0A17  00                 is_vararg (0)
0A18  05                 maxstacksize (5)
                         * code:
0A19  10                 sizecode (16)
fail op	35
0A1A  2300C000           [01] close      0  
0A1E  1A400080           [02] jmp        2            ; to [5]
0A22  86000001           [03] loadnil    2   2      
0A26  9E000001           [04] return     2   2      
0A2A  9D400000           [05] getglobal  2   1        ; -174740002
0A2E  D2008000           [06] move       3   1      
0A32  19810000           [07] loadk      4   2        ; 0
0A36  A2808001           [08] call       2   3   2  
0A3A  CA000000           [09] len        3   0      
fail op	21
0A3E  15808001           [10] concat     0   3   2  
0A42  1A400080           [11] jmp        2            ; to [14]
0A46  C6008001           [12] loadnil    3   3      
0A4A  DE000001           [13] return     3   2      
0A4E  CE800000           [14] gettable   3   0   2  
0A52  DE000001           [15] return     3   2      
0A56  1E008000           [16] return     0   1      
                         * constants:
0A5A  03                 sizek (3)
0A5B  04                 const type 4
0A5C  01                 string size (0)
                         const [0]: ""
0A5E  01                 const type 3
0A5F  DEAD95F5           const [1]: (-174740002)
0A63  03                 const type 3
0A64  00008041           const [2]: (0)
                         * functions:
0A68  00                 sizep (0)
                         * lines:
0A69  10                 sizelineinfo (16)
                         [pc] (line)
0A6A  46                 [01] (70)
0A6B  00                 [02] (70)
0A6C  00                 [03] (71)
0A6D  00                 [04] (71)
0A6E  46                 [05] (74)
0A6F  00                 [06] (74)
0A70  00                 [07] (74)
0A71  00                 [08] (74)
0A72  47                 [09] (75)
0A73  00                 [10] (75)
0A74  00                 [11] (75)
0A75  00                 [12] (76)
0A76  47                 [13] (76)
0A77  00                 [14] (79)
0A78  00                 [15] (79)
0A79  00                 [16] (80)
                         * locals:
0AAA  00                 sizelocvars (0)
                         * upvalues:
0AAB  00                 sizeupvalues (0)
                         ** end of function **

                         
0AAC                     ** function [3] definition (level 2)
                         ** start of function **
0AAC  00                 string size (0)
                         source name: (none)
0AAD  52                 line defined (82)
0AAE  5E                 last line defined (94)
0AAF  00                 nups (0)
0AB0  02                 numparams (2)
0AB1  00                 is_vararg (0)
0AB2  08                 maxstacksize (8)
                         * code:
0AB3  18                 sizecode (24)
0AB4  9D000000           [01] getglobal  2   0        ; 1074689893
0AB8  D2008000           [02] move       3   1      
0ABC  A2800001           [03] call       2   2   2  
0AC0  98000000           [04] test       2       0    ; to [6] if true
0AC4  1A400080           [05] jmp        2            ; to [8]
0AC8  86000001           [06] loadnil    2   2      
0ACC  9E000001           [07] return     2   2      
0AD0  9D400000           [08] getglobal  2   1        ; 1672515847
0AD4  D2000000           [09] move       3   0      
0AD8  A2000101           [10] call       2   2   4  
0ADC  1AC00180           [11] jmp        8            ; to [20]
0AE0  CE814003           [12] gettable   7   6   258  ; "mItemType"
fail op	35
0AE4  23408003           [13] close      0  
0AE8  1A000180           [14] jmp        5            ; to [20]
0AEC  CEC14003           [15] gettable   7   6   259  ; "mItemId"
0AF0  CE01C103           [16] gettable   7   7   260  ; "mId"
fail op	35
0AF4  6340C103           [17] close      1  
0AF8  1A000080           [18] jmp        1            ; to [20]
0AFC  9E010001           [19] return     6   2      
0B00  96800000           [20] tforloop   2       2    ; to [22] if exit
0B04  1A40FD7F           [21] jmp        -10          ; to [12]
0B08  C6018003           [22] loadnil    7   7      
0B0C  DE010001           [23] return     7   2      
0B10  1E008000           [24] return     0   1      
                         * constants:
0B14  06                 sizek (6)
0B15  01                 const type 3
0B16  65770E40           const [0]: (1074689893)
0B1A  01                 const type 3
0B1B  0791B063           const [1]: (1672515847)
0B1F  04                 const type 4
0B20  0A                 string size (10)
0B21  6D4974656D547970+  "mItemTyp"
0B29  6500               "e\0"
                         const [2]: "mItemType"
0B2B  04                 const type 4
0B2C  08                 string size (8)
0B2D  6D4974656D496400   "mItemId\0"
                         const [3]: "mItemId"
0B35  04                 const type 4
0B36  04                 string size (4)
0B37  6D496400           "mId\0"
                         const [4]: "mId"
0B3B  04                 const type 4
0B3C  01                 string size (0)
                         const [5]: ""
                         * functions:
0B3E  00                 sizep (0)
                         * lines:
0B3F  18                 sizelineinfo (24)
                         [pc] (line)
0B40  53                 [01] (83)
0B41  00                 [02] (83)
0B42  00                 [03] (83)
0B43  00                 [04] (83)
0B44  53                 [05] (83)
0B45  00                 [06] (84)
0B46  00                 [07] (84)
0B47  00                 [08] (87)
0B48  53                 [09] (87)
0B49  00                 [10] (87)
0B4A  00                 [11] (87)
0B4B  00                 [12] (88)
0B4C  53                 [13] (88)
0B4D  00                 [14] (88)
0B4E  00                 [15] (88)
0B4F  00                 [16] (88)
0B50  53                 [17] (88)
0B51  00                 [18] (88)
0B52  00                 [19] (89)
0B53  00                 [20] (87)
0B54  54                 [21] (90)
0B55  00                 [22] (93)
0B56  00                 [23] (93)
0B57  00                 [24] (94)
                         * locals:
0BA0  00                 sizelocvars (0)
                         * upvalues:
0BA1  00                 sizeupvalues (0)
                         ** end of function **

                         
0BA2                     ** function [4] definition (level 2)
                         ** start of function **
0BA2  00                 string size (0)
                         source name: (none)
0BA3  60                 line defined (96)
0BA4  7C                 last line defined (124)
0BA5  02                 nups (2)
0BA6  02                 numparams (2)
0BA7  00                 is_vararg (0)
0BA8  10                 maxstacksize (16)
                         * code:
0BA9  3B                 sizecode (59)
0BAA  97000000           [01] loadbool   2   0   0    ; false
0BAE  D7000000           [02] loadbool   3   0   0    ; false
0BB2  06010002           [03] loadnil    4   4      
0BB6  5D010000           [04] getglobal  5   0        ; 1672515847
0BBA  93010000           [05] getupval   6   0      
0BBE  62010101           [06] call       5   2   4  
0BC2  1A800980           [07] jmp        39           ; to [47]
0BC6  8E42C004           [08] gettable   10  9   257  ; "mPicker"
0BCA  CE82C004           [09] gettable   11  9   258  ; "mStoreItem"
0BCE  E4C2C005           [10] self       11  11  259  ; -831208779
0BD2  E2820001           [11] call       11  2   2  
0BD6  D8020000           [12] test       11      0    ; to [14] if true
0BDA  1A000880           [13] jmp        33           ; to [47]
0BDE  DD020100           [14] getglobal  11  4        ; 1074689893
0BE2  12030005           [15] move       12  10     
0BE6  E2820001           [16] call       11  2   2  
0BEA  D8420000           [17] test       11      1    ; to [19] if false
0BEE  1AC00680           [18] jmp        28           ; to [47]
0BF2  E4424105           [19] self       11  10  261  ; 57958373
0BF6  52030000           [20] move       13  0      
fail op	35
0BFA  6380C100           [21] close      1  
0BFE  1A000080           [22] jmp        1            ; to [24]
0C02  97430000           [23] loadbool   14  0   1    ; false, to [25]
0C06  97038000           [24] loadbool   14  1   0    ; true
0C0A  E2820002           [25] call       11  4   2  
0C0E  D8020000           [26] test       11      0    ; to [28] if true
0C12  1A800480           [27] jmp        19           ; to [47]
0C16  CEC2C104           [28] gettable   11  9   263  ; "mOwned"
0C1A  0E83C004           [29] gettable   12  9   258  ; "mStoreItem"
0C1E  24034206           [30] self       12  12  264  ; 2102883565
0C22  22830001           [31] call       12  2   2  
fail op	35
0C26  63404202           [32] close      1  
0C2A  1A400280           [33] jmp        10           ; to [44]
0C2E  D8020000           [34] test       11      0    ; to [36] if true
0C32  1A400080           [35] jmp        2            ; to [38]
0C36  98000000           [36] test       2       0    ; to [38] if true
0C3A  1A400180           [37] jmp        6            ; to [44]
0C3E  98400000           [38] test       2       1    ; to [40] if false
0C42  1A800180           [39] jmp        7            ; to [47]
0C46  18030000           [40] test       12      0    ; to [42] if true
0C4A  1A000180           [41] jmp        5            ; to [47]
0C4E  D8400000           [42] test       3       1    ; to [44] if false
0C52  1A800080           [43] jmp        3            ; to [47]
0C56  12018004           [44] move       4   9      
0C5A  92008005           [45] move       2   11     
0C5E  D2000006           [46] move       3   12     
0C62  56810000           [47] tforloop   5       2    ; to [49] if exit
0C66  1A80F57F           [48] jmp        -41          ; to [8]
fail op	35
0C6A  23404202           [49] close      0  
0C6E  1A800180           [50] jmp        7            ; to [58]
fail op	35
0C72  2340C200           [51] close      0  
0C76  1A000180           [52] jmp        5            ; to [58]
0C7A  53038000           [53] getupval   13  1      
0C7E  92030000           [54] move       14  0      
0C82  D7038000           [55] loadbool   15  1   0    ; true
0C86  62838001           [56] call       13  3   2  
0C8A  12018006           [57] move       4   13     
0C8E  1E010001           [58] return     4   2      
0C92  1E008000           [59] return     0   1      
                         * constants:
0C96  0A                 sizek (10)
0C97  01                 const type 3
0C98  0791B063           const [0]: (1672515847)
0C9C  04                 const type 4
0C9D  08                 string size (8)
0C9E  6D5069636B657200   "mPicker\0"
                         const [1]: "mPicker"
0CA6  04                 const type 4
0CA7  0B                 string size (11)
0CA8  6D53746F72654974+  "mStoreIt"
0CB0  656D00             "em\0"
                         const [2]: "mStoreItem"
0CB3  01                 const type 3
0CB4  B5C274CE           const [3]: (-831208779)
0CB8  01                 const type 3
0CB9  65770E40           const [4]: (1074689893)
0CBD  01                 const type 3
0CBE  E55F7403           const [5]: (57958373)
0CC2  01                 const type 3
0CC3  01000000           const [6]: (1)
0CC7  04                 const type 4
0CC8  07                 string size (7)
0CC9  6D4F776E656400     "mOwned\0"
                         const [7]: "mOwned"
0CD0  01                 const type 3
0CD1  ED74577D           const [8]: (2102883565)
0CD5  00                 const type 0
                         const [9]: nil
                         * functions:
0CD6  00                 sizep (0)
                         * lines:
0CD7  3B                 sizelineinfo (59)
                         [pc] (line)
0CD8  62                 [01] (98)
0CD9  00                 [02] (99)
0CDA  00                 [03] (100)
0CDB  00                 [04] (101)
0CDC  63                 [05] (101)
0CDD  00                 [06] (101)
0CDE  00                 [07] (101)
0CDF  00                 [08] (102)
0CE0  64                 [09] (103)
0CE1  00                 [10] (103)
0CE2  00                 [11] (103)
0CE3  00                 [12] (103)
0CE4  65                 [13] (103)
0CE5  00                 [14] (103)
0CE6  00                 [15] (103)
0CE7  00                 [16] (103)
0CE8  65                 [17] (103)
0CE9  00                 [18] (103)
0CEA  00                 [19] (103)
0CEB  00                 [20] (103)
0CEC  65                 [21] (103)
0CED  00                 [22] (103)
0CEE  00                 [23] (103)
0CEF  00                 [24] (103)
0CF0  65                 [25] (103)
0CF1  00                 [26] (103)
0CF2  00                 [27] (103)
0CF3  00                 [28] (104)
0CF4  66                 [29] (105)
0CF5  00                 [30] (105)
0CF6  00                 [31] (105)
0CF7  00                 [32] (108)
0CF8  67                 [33] (108)
0CF9  00                 [34] (109)
0CFA  00                 [35] (109)
0CFB  00                 [36] (109)
0CFC  67                 [37] (109)
0CFD  00                 [38] (110)
0CFE  00                 [39] (110)
0CFF  00                 [40] (110)
0D00  67                 [41] (110)
0D01  00                 [42] (110)
0D02  00                 [43] (110)
0D03  00                 [44] (112)
0D04  67                 [45] (113)
0D05  00                 [46] (114)
0D06  00                 [47] (101)
0D07  00                 [48] (116)
0D08  67                 [49] (119)
0D09  00                 [50] (119)
0D0A  00                 [51] (119)
0D0B  00                 [52] (119)
0D0C  67                 [53] (120)
0D0D  00                 [54] (120)
0D0E  00                 [55] (120)
0D0F  00                 [56] (120)
0D10  67                 [57] (120)
0D11  00                 [58] (123)
0D12  00                 [59] (124)
                         * locals:
0DC4  00                 sizelocvars (0)
                         * upvalues:
0DC5  00                 sizeupvalues (0)
                         ** end of function **

                         
0DC6                     ** function [5] definition (level 2)
                         ** start of function **
0DC6  00                 string size (0)
                         source name: (none)
0DC7  7E                 line defined (126)
0DC8  99                 last line defined (153)
0DC9  01                 nups (6)
0DCA  06                 numparams (0)
0DCB  00                 is_vararg (0)
0DCC  00                 maxstacksize (18)
                         * code:
0DCE  5B                 sizecode (91)
0DCF  13000000           [01] getupval   0   0      
0DD3  24004000           [02] self       0   0   256  ; 2096569603
0DD7  97008000           [03] loadbool   2   1   0    ; true
0DDB  D7008000           [04] loadbool   3   1   0    ; true
0DDF  22400002           [05] call       0   4   1  
0DE3  1D400000           [06] getglobal  0   1        ; 248503575
0DE7  53008000           [07] getupval   1   1      
0DEB  22000101           [08] call       0   2   4  
0DEF  1A000380           [09] jmp        13           ; to [23]
0DF3  53010001           [10] getupval   5   2      
0DF7  4E81C002           [11] gettable   5   5   258  ; 460674431
0DFB  9DC10000           [12] getglobal  6   3        ; mMovie
0DFF  D2010002           [13] move       7   4      
0E03  06020005           [14] loadnil    8   10     
0E07  D7028000           [15] loadbool   11  1   0    ; true
0E0B  62818003           [16] call       5   7   2  
0E0F  4C414182           [17] settable   5   260 261  ; "Count" 0
0E13  93010000           [18] getupval   6   0      
0E17  A4814103           [19] self       6   6   262  ; -1484936978
0E1B  12028002           [20] move       8   5      
0E1F  57028000           [21] loadbool   9   1   0    ; true
0E23  A2410002           [22] call       6   4   1  
0E27  16800000           [23] tforloop   0       2    ; to [25] if exit
0E2B  1A00FC7F           [24] jmp        -15          ; to [10]
0E2F  93010000           [25] getupval   6   0      
0E33  A4C14103           [26] self       6   6   263  ; -988128099
0E37  A2810001           [27] call       6   2   2  
0E3B  DD010200           [28] getglobal  7   8        ; math
0E3F  CE41C203           [29] gettable   7   7   265  ; -1962864584
0E43  13020000           [30] getupval   8   0      
0E47  0E824204           [31] gettable   8   8   266  ; "mVisibleElements"
0E4B  0D820104           [32] sub        8   8   6  
0E4F  53020000           [33] getupval   9   0      
0E53  4EC2C204           [34] gettable   9   9   267  ; "mColumns"
0E57  5F420203           [35] mod        9   6   9  
0E5B  E2818001           [36] call       7   3   2  
0E5F  19020300           [37] loadk      8   12       ; 0
0E63  52028003           [38] move       9   7      
0E67  99020300           [39] loadk      10  12       ; 0
0E6B  10420180           [40] forprep    8   6        ; to [47]
0E6F  13030000           [41] getupval   12  0      
0E73  24834106           [42] self       12  12  262  ; -1484936978
0E77  8B430000           [43] newtable   14  0   1    ; array=0, hash=1
0E7B  8C83C386           [44] settable   14  269 270  ; "Filler" 1
0E7F  D7038000           [45] loadbool   15  1   0    ; true
0E83  22430002           [46] call       12  4   1  
0E87  1402FE7F           [47] forloop    8   -7       ; to [41] if loop
0E8B  13030000           [48] getupval   12  0      
0E8F  24C34306           [49] self       12  12  271  ; 1685109492
0E93  22430001           [50] call       12  2   1  
fail op	21
0E97  55808182           [51] concat     1   261 6  
0E9B  1A000080           [52] jmp        1            ; to [54]
0E9F  17430000           [53] loadbool   12  0   1    ; false, to [55]
0EA3  17038000           [54] loadbool   12  1   0    ; true
0EA7  5DC30000           [55] getglobal  13  3        ; mMovie
0EAB  6403C406           [56] self       13  13  272  ; 471456102
0EAF  D9430400           [57] loadk      15  17       ; "ItemGrid"
0EB3  19840400           [58] loadk      16  18       ; "_visible"
0EB7  52040006           [59] move       17  12     
0EBB  62438002           [60] call       13  5   1  
0EBF  18030000           [61] test       12      0    ; to [63] if true
0EC3  1A800380           [62] jmp        15           ; to [78]
0EC7  5DC30400           [63] getglobal  13  19       ; 1074689893
0ECB  9D030500           [64] getglobal  14  20       ; _T
0ECF  8E434507           [65] gettable   14  14  277  ; "ShowBackground"
0ED3  62830001           [66] call       13  2   2  
0ED7  58430000           [67] test       13      1    ; to [69] if false
0EDB  1A400580           [68] jmp        22           ; to [91]
0EDF  57038000           [69] loadbool   13  1   0    ; true
fail op	8
0EE3  48038001           [70] setupval   13  3      
0EE7  5D030500           [71] getglobal  13  20       ; _T
0EEB  4E83C506           [72] gettable   13  13  278  ; 398318646
0EEF  99C30500           [73] loadk      14  23       ; 0
0EF3  C6030008           [74] loadnil    15  16     
0EF7  53040002           [75] getupval   17  4      
0EFB  62438002           [76] call       13  5   1  
0EFF  1A000380           [77] jmp        13           ; to [91]
0F03  53038002           [78] getupval   13  5      
0F07  4E03C606           [79] gettable   13  13  280  ; "Visible"
0F0B  58030000           [80] test       13      0    ; to [82] if true
0F0F  1A000280           [81] jmp        9            ; to [91]
0F13  5DC30400           [82] getglobal  13  19       ; 1074689893
0F17  9D030500           [83] getglobal  14  20       ; _T
0F1B  8E434607           [84] gettable   14  14  281  ; "HideBackground"
0F1F  62830001           [85] call       13  2   2  
0F23  58430000           [86] test       13      1    ; to [88] if false
0F27  1A800080           [87] jmp        3            ; to [91]
0F2B  5D030500           [88] getglobal  13  20       ; _T
0F2F  4E83C606           [89] gettable   13  13  282  ; -1873712487
0F33  62438000           [90] call       13  1   1  
0F37  1E008000           [91] return     0   1      
                         * constants:
0F3B  1B                 sizek (27)
0F3C  01                 const type 3
0F3D  031DF77C           const [0]: (2096569603)
0F41  01                 const type 3
0F42  17DDCF0E           const [1]: (248503575)
0F46  01                 const type 3
0F47  7F55751B           const [2]: (460674431)
0F4B  04                 const type 4
0F4C  07                 string size (7)
0F4D  6D4D6F76696500     "mMovie\0"
                         const [3]: "mMovie"
0F54  04                 const type 4
0F55  06                 string size (6)
0F56  436F756E7400       "Count\0"
                         const [4]: "Count"
0F5C  03                 const type 3
0F5D  00000000           const [5]: (0)
0F61  01                 const type 3
0F62  EEA87DA7           const [6]: (-1484936978)
0F66  01                 const type 3
0F67  9D5C1AC5           const [7]: (-988128099)
0F6B  04                 const type 4
0F6C  05                 string size (5)
0F6D  6D61746800         "math\0"
                         const [8]: "math"
0F72  01                 const type 3
0F73  3810018B           const [9]: (-1962864584)
0F77  04                 const type 4
0F78  11                 string size (17)
0F79  6D56697369626C65+  "mVisible"
0F81  456C656D656E7473+  "Elements"
0F89  00                 "\0"
                         const [10]: "mVisibleElements"
0F8A  04                 const type 4
0F8B  09                 string size (9)
0F8C  6D436F6C756D6E73+  "mColumns"
0F94  00                 "\0"
                         const [11]: "mColumns"
0F95  03                 const type 3
0F96  0000803F           const [12]: (0)
0F9A  04                 const type 4
0F9B  07                 string size (7)
0F9C  46696C6C657200     "Filler\0"
                         const [13]: "Filler"
0FA3  01                 const type 3
0FA4  01000000           const [14]: (1)
0FA8  01                 const type 3
0FA9  F4BA7064           const [15]: (1685109492)
0FAD  01                 const type 3
0FAE  66D9191C           const [16]: (471456102)
0FB2  04                 const type 4
0FB3  09                 string size (9)
0FB4  4974656D47726964+  "ItemGrid"
0FBC  00                 "\0"
                         const [17]: "ItemGrid"
0FBD  04                 const type 4
0FBE  09                 string size (9)
0FBF  5F76697369626C65+  "_visible"
0FC7  00                 "\0"
                         const [18]: "_visible"
0FC8  01                 const type 3
0FC9  65770E40           const [19]: (1074689893)
0FCD  04                 const type 4
0FCE  03                 string size (3)
0FCF  5F5400             "_T\0"
                         const [20]: "_T"
0FD2  04                 const type 4
0FD3  0F                 string size (15)
0FD4  53686F774261636B+  "ShowBack"
0FDC  67726F756E6400     "ground\0"
                         const [21]: "ShowBackground"
0FE3  01                 const type 3
0FE4  36DCBD17           const [22]: (398318646)
0FE8  03                 const type 3
0FE9  0000803E           const [23]: (0)
0FED  04                 const type 4
0FEE  08                 string size (8)
0FEF  56697369626C6500   "Visible\0"
                         const [24]: "Visible"
0FF7  04                 const type 4
0FF8  0F                 string size (15)
0FF9  486964654261636B+  "HideBack"
1001  67726F756E6400     "ground\0"
                         const [25]: "HideBackground"
1008  01                 const type 3
1009  996A5190           const [26]: (-1873712487)
                         * functions:
100D  00                 sizep (0)
                         * lines:
100E  5B                 sizelineinfo (91)
                         [pc] (line)
100F  7F                 [01] (127)
1010  00                 [02] (127)
1011  00                 [03] (127)
1012  00                 [04] (127)
1013  7F                 [05] (127)
1014  00                 [06] (-127)
1015  00                 [07] (-127)
1016  00                 [08] (-127)
1017  7F                 [09] (-127)
1018  00                 [10] (-126)
1019  00                 [11] (-126)
101A  00                 [12] (-126)
101B  7F                 [13] (-126)
101C  00                 [14] (-126)
101D  00                 [15] (-126)
101E  00                 [16] (-126)
101F  7F                 [17] (-125)
1020  00                 [18] (-124)
1021  00                 [19] (-124)
1022  00                 [20] (-124)
1023  81                 [21] (-124)
1024  00                 [22] (-124)
1025  00                 [23] (-127)
1026  00                 [24] (-124)
1027  81                 [25] (-121)
1028  00                 [26] (-121)
1029  00                 [27] (-121)
102A  00                 [28] (-120)
102B  81                 [29] (-120)
102C  00                 [30] (-120)
102D  00                 [31] (-120)
102E  00                 [32] (-120)
102F  81                 [33] (-120)
1030  00                 [34] (-120)
1031  00                 [35] (-120)
1032  00                 [36] (-120)
1033  82                 [37] (-119)
1034  00                 [38] (-119)
1035  00                 [39] (-119)
1036  00                 [40] (-119)
1037  82                 [41] (-118)
1038  00                 [42] (-118)
1039  00                 [43] (-118)
103A  00                 [44] (-118)
103B  82                 [45] (-118)
103C  00                 [46] (-118)
103D  00                 [47] (-119)
103E  00                 [48] (-115)
103F  82                 [49] (-115)
1040  00                 [50] (-115)
1041  00                 [51] (-113)
1042  00                 [52] (-113)
1043  82                 [53] (-113)
1044  00                 [54] (-113)
1045  00                 [55] (-112)
1046  00                 [56] (-112)
1047  82                 [57] (-112)
1048  00                 [58] (-112)
1049  00                 [59] (-112)
104A  00                 [60] (-112)
104B  82                 [61] (-111)
104C  00                 [62] (-111)
104D  00                 [63] (-110)
104E  00                 [64] (-110)
104F  83                 [65] (-110)
1050  00                 [66] (-110)
1051  00                 [67] (-110)
1052  00                 [68] (-110)
1053  84                 [69] (-109)
1054  00                 [70] (-109)
1055  00                 [71] (-108)
1056  00                 [72] (-108)
1057  84                 [73] (-108)
1058  00                 [74] (-108)
1059  00                 [75] (-108)
105A  00                 [76] (-108)
105B  84                 [77] (-107)
105C  00                 [78] (-106)
105D  00                 [79] (-106)
105E  00                 [80] (-106)
105F  84                 [81] (-106)
1060  00                 [82] (-106)
1061  00                 [83] (-106)
1062  00                 [84] (-106)
1063  84                 [85] (-106)
1064  00                 [86] (-106)
1065  00                 [87] (-106)
1066  00                 [88] (-105)
1067  81                 [89] (-105)
1068  00                 [90] (-105)
1069  00                 [91] (-103)
                         * locals:
117B  00                 sizelocvars (0)
                         * upvalues:
117C  00                 sizeupvalues (0)
                         ** end of function **

                         
117D                     ** function [6] definition (level 2)
                         ** start of function **
117D  00                 string size (0)
                         source name: (none)
117F  01                 line defined (155)
1180  A5                 last line defined (165)
1181  01                 nups (3)
1182  03                 numparams (0)
1183  00                 is_vararg (0)
1184  00                 maxstacksize (7)
                         * code:
1186  21                 sizecode (33)
1187  1D000000           [01] getglobal  0   0        ; 1074689893
118B  53000000           [02] getupval   1   0      
118F  4E40C000           [03] gettable   1   1   257  ; "mItemType"
1193  22800001           [04] call       0   2   2  
1197  18400000           [05] test       0       1    ; to [7] if false
119B  1A400580           [06] jmp        22           ; to [29]
119F  0B800000           [07] newtable   0   0   2    ; array=0, hash=2
11A3  0CC04081           [08] settable   0   258 259  ; "SkipCustomDiorama" 1
11A7  0CC04082           [09] settable   0   260 259  ; "SkipPreviewKubrow" 1
11AB  53000000           [10] getupval   1   0      
11AF  4E40C100           [11] gettable   1   1   261  ; "mModularParts"
11B3  4A008000           [12] len        1   1      
fail op	21
11B7  15400083           [13] concat     0   262 1  
11BB  1A400180           [14] jmp        6            ; to [21]
11BF  4B800000           [15] newtable   1   0   2    ; array=0, hash=2
11C3  4CC04084           [16] settable   1   264 259  ; "Gild" 1
11C7  93000000           [17] getupval   2   0      
11CB  8E404101           [18] gettable   2   2   261  ; "mModularParts"
11CF  4C808084           [19] settable   1   265 2    ; "Parts"
11D3  0C408083           [20] settable   0   263 1    ; "ModularInfo"
11D7  53008000           [21] getupval   1   1      
11DB  6480C200           [22] self       1   1   266  ; -954162024
11DF  DDC00200           [23] getglobal  3   11       ; gGameData
11E3  13010000           [24] getupval   4   0      
11E7  0E014302           [25] gettable   4   4   268  ; "mStoreItem"
11EB  46018002           [26] loadnil    5   5      
11EF  92010000           [27] move       6   0      
11F3  62400003           [28] call       1   6   1  
11F7  53000001           [29] getupval   1   2      
11FB  6440C300           [30] self       1   1   269  ; -492641364
11FF  D7008000           [31] loadbool   3   1   0    ; true
1203  62408001           [32] call       1   3   1  
1207  1E008000           [33] return     0   1      
                         * constants:
120B  0E                 sizek (14)
120C  01                 const type 3
120D  65770E40           const [0]: (1074689893)
1211  04                 const type 4
1212  0A                 string size (10)
1213  6D4974656D547970+  "mItemTyp"
121B  6500               "e\0"
                         const [1]: "mItemType"
121D  04                 const type 4
121E  12                 string size (18)
121F  536B697043757374+  "SkipCust"
1227  6F6D44696F72616D+  "omDioram"
122F  6100               "a\0"
                         const [2]: "SkipCustomDiorama"
1231  01                 const type 3
1232  01000000           const [3]: (1)
1236  04                 const type 4
1237  12                 string size (18)
1238  536B697050726576+  "SkipPrev"
1240  6965774B7562726F+  "iewKubro"
1248  7700               "w\0"
                         const [4]: "SkipPreviewKubrow"
124A  04                 const type 4
124B  0E                 string size (14)
124C  6D4D6F64756C6172+  "mModular"
1254  506172747300       "Parts\0"
                         const [5]: "mModularParts"
125A  03                 const type 3
125B  00000000           const [6]: (0)
125F  04                 const type 4
1260  0C                 string size (12)
1261  4D6F64756C617249+  "ModularI"
1269  6E666F00           "nfo\0"
                         const [7]: "ModularInfo"
126D  04                 const type 4
126E  05                 string size (5)
126F  47696C6400         "Gild\0"
                         const [8]: "Gild"
1274  04                 const type 4
1275  06                 string size (6)
1276  506172747300       "Parts\0"
                         const [9]: "Parts"
127C  01                 const type 3
127D  98A420C7           const [10]: (-954162024)
1281  04                 const type 4
1282  0A                 string size (10)
1283  6747616D65446174+  "gGameDat"
128B  6100               "a\0"
                         const [11]: "gGameData"
128D  04                 const type 4
128E  0B                 string size (11)
128F  6D53746F72654974+  "mStoreIt"
1297  656D00             "em\0"
                         const [12]: "mStoreItem"
129A  01                 const type 3
129B  ACE3A2E2           const [13]: (-492641364)
                         * functions:
129F  00                 sizep (0)
                         * lines:
12A0  21                 sizelineinfo (33)
                         [pc] (line)
12A1  9C                 [01] (-100)
12A2  00                 [02] (-100)
12A3  00                 [03] (-100)
12A4  00                 [04] (-100)
12A5  9C                 [05] (-100)
12A6  00                 [06] (-100)
12A7  00                 [07] (-99)
12A8  00                 [08] (-99)
12A9  9C                 [09] (-99)
12AA  00                 [10] (-98)
12AB  00                 [11] (-98)
12AC  00                 [12] (-98)
12AD  9C                 [13] (-98)
12AE  00                 [14] (-98)
12AF  00                 [15] (-97)
12B0  00                 [16] (-97)
12B1  9C                 [17] (-97)
12B2  00                 [18] (-97)
12B3  00                 [19] (-97)
12B4  00                 [20] (-97)
12B5  9C                 [21] (-94)
12B6  00                 [22] (-94)
12B7  00                 [23] (-94)
12B8  00                 [24] (-94)
12B9  9D                 [25] (-94)
12BA  00                 [26] (-94)
12BB  00                 [27] (-94)
12BC  00                 [28] (-94)
12BD  9D                 [29] (-92)
12BE  00                 [30] (-92)
12BF  00                 [31] (-92)
12C0  00                 [32] (-92)
12C1  9D                 [33] (-91)
                         * locals:
1325  00                 sizelocvars (0)
                         * upvalues:
1326  00                 sizeupvalues (0)
                         ** end of function **

                         
1327                     ** function [7] definition (level 2)
                         ** start of function **
1327  00                 string size (0)
                         source name: (none)
1329  01                 line defined (167)
132A  DF                 last line defined (351)
132B  02                 nups (15)
132C  0F                 numparams (1)
132D  01                 is_vararg (0)
132E  00                 maxstacksize (54)
                         * code:
1331  02                 sizecode (380)
1332  5D000000           [001] getglobal  1   0        ; gGameData
1336  6440C000           [002] self       1   1   257  ; 1865287165
133A  62800001           [003] call       1   2   2  
133E  9D800000           [004] getglobal  2   2        ; 1074689893
1342  D2008000           [005] move       3   1      
1346  A2800001           [006] call       2   2   2  
134A  98000000           [007] test       2       0    ; to [9] if true
134E  1A400080           [008] jmp        2            ; to [11]
1352  97000000           [009] loadbool   2   0   0    ; false
1356  9E000001           [010] return     2   2      
135A  9DC00000           [011] getglobal  2   3        ; gGameRules
135E  A4004101           [012] self       2   2   260  ; -1049586730
1362  A2800001           [013] call       2   2   2  
1366  DD800000           [014] getglobal  3   2        ; 1074689893
136A  12010001           [015] move       4   2      
136E  E2800001           [016] call       3   2   2  
1372  D8000000           [017] test       3       0    ; to [19] if true
1376  1A400080           [018] jmp        2            ; to [21]
137A  D7000000           [019] loadbool   3   0   0    ; false
137E  DE000001           [020] return     3   2      
1382  CB000000           [021] newtable   3   0   0    ; array=0, hash=0
1386  0B010000           [022] newtable   4   0   0    ; array=0, hash=0
fail op	8
138A  08010000           [023] setupval   4   0      
138E  13018000           [024] getupval   4   1      
1392  5D010000           [025] getglobal  5   0        ; gGameData
1396  6481C102           [026] self       5   5   262  ; 51109503
139A  62810001           [027] call       5   2   2  
139E  64C1C102           [028] self       5   5   263  ; 114450322
13A2  D3010001           [029] getupval   7   2      
13A6  13028001           [030] getupval   8   3      
13AA  62810002           [031] call       5   4   2  
13AE  0C418182           [032] settable   4   261 5    ; "mEquippedItem"
13B2  13018000           [033] getupval   4   1      
13B6  53010002           [034] getupval   5   4      
13BA  4E41C202           [035] gettable   5   5   265  ; 55402905
13BE  92018000           [036] move       6   1      
13C2  D3018000           [037] getupval   7   1      
13C6  CE81C203           [038] gettable   7   7   266  ; "mItemType"
13CA  13028000           [039] getupval   8   1      
13CE  0E424104           [040] gettable   8   8   261  ; "mEquippedItem"
13D2  5D820000           [041] getglobal  9   2        ; 1074689893
13D6  93028000           [042] getupval   10  1      
13DA  8E424105           [043] gettable   10  10  261  ; "mEquippedItem"
13DE  8EC24205           [044] gettable   10  10  267  ; "mItem"
13E2  8E824205           [045] gettable   10  10  266  ; "mItemType"
13E6  62820001           [046] call       9   2   2  
fail op	9
13EA  49028004           [047] settable   9   9   0  
13EE  62818002           [048] call       5   5   2  
13F2  0C410184           [049] settable   4   264 5    ; "mWeaponInfos"
13F6  13018000           [050] getupval   4   1      
13FA  0E014202           [051] gettable   4   4   264  ; "mWeaponInfos"
13FE  0A010002           [052] len        4   4      
fail op	35
1402  23004302           [053] close      0  
1406  1A000280           [054] jmp        9            ; to [64]
140A  13018000           [055] getupval   4   1      
140E  4B010000           [056] newtable   5   0   0    ; array=0, hash=0
1412  0C410184           [057] settable   4   264 5    ; "mWeaponInfos"
1416  1D410300           [058] getglobal  4   13       ; table
141A  0E814302           [059] gettable   4   4   270  ; -431682403
141E  53010000           [060] getupval   5   0      
1422  93018000           [061] getupval   6   1      
1426  8EC14303           [062] gettable   6   6   271  ; "mStoreItem"
142A  22418001           [063] call       4   3   1  
142E  2401C400           [064] self       4   1   272  ; -361369609
1432  22810001           [065] call       4   2   2  
1436  6441C400           [066] self       5   1   273  ; 1335955611
143A  62810001           [067] call       5   2   2  
143E  9D810400           [068] getglobal  6   18       ; 2083004503
1442  D3018000           [069] getupval   7   1      
1446  CE81C203           [070] gettable   7   7   266  ; "mItemType"
144A  A2810001           [071] call       6   2   2  
144E  D9010300           [072] loadk      7   12       ; 0
1452  1DC20400           [073] getglobal  8   19       ; Lotus_Game
1456  0E024504           [074] gettable   8   8   276  ; "MAX_SlotName"
145A  0D424504           [075] sub        8   8   277  ; 0
145E  59420500           [076] loadk      9   21       ; 0
1462  D0812980           [077] forprep    7   167      ; to [245]
1466  E4824503           [078] self       11  6   278  ; 1911080885
146A  52030005           [079] move       13  10     
146E  E2828001           [080] call       11  3   2  
1472  1D830000           [081] getglobal  12  2        ; 1074689893
1476  52038005           [082] move       13  11     
147A  22830001           [083] call       12  2   2  
147E  18430000           [084] test       12      1    ; to [86] if false
1482  1A400180           [085] jmp        6            ; to [92]
1486  1D430300           [086] getglobal  12  13       ; table
148A  0E834306           [087] gettable   12  12  270  ; -431682403
148E  52038001           [088] move       13  3      
1492  A4C3C505           [089] self       14  11  279  ; 455421500
1496  A2030001           [090] call       14  2   0  
149A  22430000           [091] call       12  0   1  
149E  1D830000           [092] getglobal  12  2        ; 1074689893
14A2  53038002           [093] getupval   13  5      
14A6  4E838206           [094] gettable   13  13  10 
14AA  4E83C206           [095] gettable   13  13  266  ; "mItemType"
14AE  22830001           [096] call       12  2   2  
14B2  18430000           [097] test       12      1    ; to [99] if false
14B6  1A402480           [098] jmp        146          ; to [245]
14BA  13038002           [099] getupval   12  5      
14BE  0E830206           [100] gettable   12  12  10 
14C2  0EC34306           [101] gettable   12  12  271  ; "mStoreItem"
14C6  53030003           [102] getupval   13  6      
14CA  92030002           [103] move       14  4      
14CE  D3038002           [104] getupval   15  5      
14D2  CE838207           [105] gettable   15  15  10 
14D6  CE83C207           [106] gettable   15  15  266  ; "mItemType"
14DA  62838001           [107] call       13  3   2  
fail op	5
14DE  85038006           [108] getglobal  14  6656     ; nil
14E2  1A400180           [109] jmp        6            ; to [116]
14E6  8E03C606           [110] gettable   14  13  280  ; "mItemId"
14EA  8E434607           [111] gettable   14  14  281  ; "mId"
fail op	35
14EE  23804607           [112] close      0  
14F2  1A000080           [113] jmp        1            ; to [115]
14F6  97430000           [114] loadbool   14  0   1    ; false, to [116]
14FA  97038000           [115] loadbool   14  1   0    ; true
14FE  DD830000           [116] getglobal  15  2        ; 1074689893
1502  12040006           [117] move       16  12     
1506  E2830001           [118] call       15  2   2  
150A  D8430000           [119] test       15      1    ; to [121] if false
150E  1A401D80           [120] jmp        118          ; to [239]
1512  E4C34606           [121] self       15  12  283  ; 1096827414
1516  E2830001           [122] call       15  2   2  
fail op	21
151A  55C00386           [123] concat     1   268 15 
151E  1A000180           [124] jmp        5            ; to [130]
1522  E4034706           [125] self       15  12  284  ; -441311171
1526  E2830001           [126] call       15  2   2  
fail op	21
152A  55C00386           [127] concat     1   268 15 
152E  1A000080           [128] jmp        1            ; to [130]
1532  D7430000           [129] loadbool   15  0   1    ; false, to [131]
1536  D7038000           [130] loadbool   15  1   0    ; true
153A  98430000           [131] test       14      1    ; to [133] if false
153E  1A401780           [132] jmp        94           ; to [227]
1542  24444706           [133] self       16  12  285  ; -913425770
1546  22840001           [134] call       16  2   2  
154A  5D840000           [135] getglobal  17  2        ; 1074689893
154E  92040008           [136] move       18  16     
1552  62840001           [137] call       17  2   2  
1556  58440000           [138] test       17      1    ; to [140] if false
155A  1A801580           [139] jmp        87           ; to [227]
155E  64844706           [140] self       17  12  286  ; -228838394
1562  62840001           [141] call       17  2   2  
1566  A4C44701           [142] self       18  2   287  ; 1660666296
156A  12050008           [143] move       20  16     
156E  A2848001           [144] call       18  3   2  
1572  DD840000           [145] getglobal  19  2        ; 1074689893
1576  12050009           [146] move       20  18     
157A  E2840001           [147] call       19  2   2  
157E  D8440000           [148] test       19      1    ; to [150] if false
1582  1A000380           [149] jmp        13           ; to [163]
1586  D8430000           [150] test       15      1    ; to [152] if false
158A  1A400280           [151] jmp        10           ; to [162]
158E  E4C44609           [152] self       19  18  283  ; 1096827414
1592  E2840001           [153] call       19  2   2  
fail op	21
1596  55C00486           [154] concat     1   268 19 
159A  1A000180           [155] jmp        5            ; to [161]
159E  E4044709           [156] self       19  18  284  ; -441311171
15A2  E2840001           [157] call       19  2   2  
fail op	21
15A6  55C00486           [158] concat     1   268 19 
15AA  1A000080           [159] jmp        1            ; to [161]
15AE  D7430000           [160] loadbool   15  0   1    ; false, to [162]
15B2  D7038000           [161] loadbool   15  1   0    ; true
15B6  12030009           [162] move       12  18     
15BA  DD840000           [163] getglobal  19  2        ; 1074689893
15BE  24054806           [164] self       20  12  288  ; 813153904
15C2  22050001           [165] call       20  2   0  
15C6  E2840000           [166] call       19  0   2  
15CA  D8440000           [167] test       19      1    ; to [169] if false
15CE  1A400180           [168] jmp        6            ; to [175]
15D2  E4044806           [169] self       19  12  288  ; 813153904
15D6  E2840001           [170] call       19  2   2  
15DA  E444C809           [171] self       19  19  289  ; -1957065004
15DE  53058003           [172] getupval   21  7      
15E2  E2848001           [173] call       19  3   2  
15E6  1A400080           [174] jmp        2            ; to [177]
15EA  D7440000           [175] loadbool   19  0   1    ; false, to [177]
15EE  D7048000           [176] loadbool   19  1   0    ; true
15F2  1D850800           [177] getglobal  20  34       ; 1672515847
15F6  52058002           [178] move       21  5      
15FA  22050101           [179] call       20  2   4  
15FE  1A000180           [180] jmp        5            ; to [186]
1602  4E86420C           [181] gettable   25  24  266  ; "mItemType"
fail op	35
1606  2300840C           [182] close      0  
160A  1A400080           [183] jmp        2            ; to [186]
160E  97038000           [184] loadbool   14  1   0    ; true
1612  1A400080           [185] jmp        2            ; to [188]
1616  16850000           [186] tforloop   20      2    ; to [188] if exit
161A  1A00FE7F           [187] jmp        -7           ; to [181]
161E  98430000           [188] test       14      1    ; to [190] if false
1622  1A000980           [189] jmp        37           ; to [227]
1626  D8040000           [190] test       19      0    ; to [192] if true
162A  1A800880           [191] jmp        35           ; to [227]
162E  5D860000           [192] getglobal  25  2        ; 1074689893
1632  92068008           [193] move       26  17     
1636  62860001           [194] call       25  2   2  
163A  58460000           [195] test       25      1    ; to [197] if false
163E  1A400780           [196] jmp        30           ; to [227]
1642  53068000           [197] getupval   25  1      
1646  4E06C20C           [198] gettable   25  25  264  ; "mWeaponInfos"
164A  4A06800C           [199] len        25  25     
fail op	21
164E  55400686           [200] concat     1   268 25 
1652  1A000080           [201] jmp        1            ; to [203]
1656  97430000           [202] loadbool   14  0   1    ; false, to [204]
165A  97038000           [203] loadbool   14  1   0    ; true
165E  59460500           [204] loadk      25  21       ; 0
1662  93068000           [205] getupval   26  1      
1666  8E06420D           [206] gettable   26  26  264  ; "mWeaponInfos"
166A  8A06000D           [207] len        26  26     
166E  D9460500           [208] loadk      27  21       ; 0
1672  50C60380           [209] forprep    25  16       ; to [226]
1676  53078000           [210] getupval   29  1      
167A  4E07C20E           [211] gettable   29  29  264  ; "mWeaponInfos"
167E  4E07870E           [212] gettable   29  29  28 
1682  4E87C20E           [213] gettable   29  29  266  ; "mItemType"
1686  9D870000           [214] getglobal  30  2        ; 1074689893
168A  D207800E           [215] move       31  29     
168E  A2870001           [216] call       30  2   2  
1692  98470000           [217] test       30      1    ; to [219] if false
1696  1A800180           [218] jmp        7            ; to [226]
169A  A447C80E           [219] self       30  29  289  ; -1957065004
169E  12088008           [220] move       32  17     
16A2  A2878001           [221] call       30  3   2  
16A6  98470000           [222] test       30      1    ; to [224] if false
16AA  1A400080           [223] jmp        2            ; to [226]
16AE  97030000           [224] loadbool   14  0   0    ; false
16B2  1A000080           [225] jmp        1            ; to [227]
16B6  5486FB7F           [226] forloop    25  -17      ; to [210] if loop
16BA  98430000           [227] test       14      1    ; to [229] if false
16BE  1A400280           [228] jmp        10           ; to [239]
16C2  D8030000           [229] test       15      0    ; to [231] if true
16C6  1AC00180           [230] jmp        8            ; to [239]
16CA  A4C74806           [231] self       30  12  291  ; -1897280249
16CE  A2870001           [232] call       30  2   2  
16D2  98470000           [233] test       30      1    ; to [235] if false
16D6  1AC00080           [234] jmp        4            ; to [239]
16DA  93070000           [235] getupval   30  0      
16DE  E4C74506           [236] self       31  12  279  ; 455421500
16E2  E2870001           [237] call       31  2   2  
16E6  8C07830F           [238] settable   30  31  12 
16EA  93078002           [239] getupval   30  5      
16EE  8E87020F           [240] gettable   30  30  10 
16F2  8C470392           [241] settable   30  292 13   ; "mSkinInfo"
16F6  93078002           [242] getupval   30  5      
16FA  8E87020F           [243] gettable   30  30  10 
16FE  8C878392           [244] settable   30  293 14   ; "mOwned"
1702  D4C1D57F           [245] forloop    7   -168     ; to [78] if loop
1706  9D870800           [246] getglobal  30  34       ; 1672515847
170A  D3070004           [247] getupval   31  8      
170E  A2070101           [248] call       30  2   4  
1712  1A000380           [249] jmp        13           ; to [263]
1716  D3080004           [250] getupval   35  8      
171A  0BC90000           [251] newtable   36  0   3    ; array=0, hash=3
171E  4EC94311           [252] gettable   37  34  271  ; "mStoreItem"
1722  0C498987           [253] settable   36  271 37   ; "mStoreItem"
1726  5D890400           [254] getglobal  37  18       ; 2083004503
172A  8EC94311           [255] gettable   38  34  271  ; "mStoreItem"
172E  A4094813           [256] self       38  38  288  ; 813153904
1732  A2090001           [257] call       38  2   0  
1736  62890000           [258] call       37  0   2  
173A  0C490993           [259] settable   36  294 37   ; "mPicker"
173E  4E494911           [260] gettable   37  34  293  ; "mOwned"
1742  0C498992           [261] settable   36  293 37   ; "mOwned"
1746  CC088910           [262] settable   35  33  36 
174A  96870000           [263] tforloop   30      2    ; to [265] if exit
174E  1A00FC7F           [264] jmp        -15          ; to [250]
1752  DDC80400           [265] getglobal  35  19       ; Lotus_Game
1756  CEC8C911           [266] gettable   35  35  295  ; "PrimaryColors"
175A  1DC90400           [267] getglobal  36  19       ; Lotus_Game
175E  0E094A12           [268] gettable   36  36  296  ; "Facial"
1762  59490500           [269] loadk      37  21       ; 0
1766  D0C81080           [270] forprep    35  68       ; to [339]
176A  DDC90400           [271] getglobal  39  19       ; Lotus_Game
176E  CE49CA13           [272] gettable   39  39  297  ; "Sigil"
fail op	35
1772  23C00913           [273] close      0  
1776  1AC00080           [274] jmp        4            ; to [279]
177A  D3098000           [275] getupval   39  1      
177E  CE89CA13           [276] gettable   39  39  298  ; "mIsHoverboard"
1782  D8090000           [277] test       39      0    ; to [279] if true
1786  1AC00E80           [278] jmp        60           ; to [339]
178A  D3098004           [279] getupval   39  9      
178E  CE898913           [280] gettable   39  39  38 
1792  CEC9CA13           [281] gettable   39  39  299  ; "mRawPalette"
1796  1DCA0400           [282] getglobal  40  19       ; Lotus_Game
179A  0E0A4B14           [283] gettable   40  40  300  ; -552268994
179E  228A8000           [284] call       40  1   2  
17A2  4B0A0000           [285] newtable   41  0   0    ; array=0, hash=0
17A6  990A0300           [286] loadk      42  12       ; 0
17AA  DDCA0400           [287] getglobal  43  19       ; Lotus_Game
17AE  CE4ACB15           [288] gettable   43  43  301  ; "MAX_CustomizationColor"
17B2  CD4AC515           [289] sub        43  43  277  ; 0
17B6  194B0500           [290] loadk      44  21       ; 0
17BA  90CA0980           [291] forprep    42  40       ; to [332]
17BE  A48BCB13           [292] self       46  39  302  ; 979293742
17C2  120C8016           [293] move       48  45     
17C6  A28B8001           [294] call       46  3   2  
17CA  980B0000           [295] test       46      0    ; to [297] if true
17CE  1A800880           [296] jmp        35           ; to [332]
17D2  A4CBCB13           [297] self       46  39  303  ; -576482948
17D6  120C8016           [298] move       48  45     
17DA  A28B8001           [299] call       46  3   2  
17DE  D30B0005           [300] getupval   47  10     
17E2  1D0C0C00           [301] getglobal  48  48       ; string
17E6  0E4C4C18           [302] gettable   48  48  305  ; 1260343128
17EA  598C0C00           [303] loadk      49  50       ; "0x%08X"
17EE  A4CC4C17           [304] self       50  46  307  ; 1201562292
17F2  A20C0001           [305] call       50  2   0  
17F6  220C0000           [306] call       48  0   0  
17FA  E28B0000           [307] call       47  0   2  
17FE  1D8C0000           [308] getglobal  48  2        ; 1074689893
1802  520C8017           [309] move       49  47     
1806  228C0001           [310] call       48  2   2  
180A  184C0000           [311] test       48      1    ; to [313] if false
180E  1A800480           [312] jmp        19           ; to [332]
1812  0E4CC917           [313] gettable   48  47  293  ; "mOwned"
1816  180C0000           [314] test       48      0    ; to [316] if true
181A  1A000280           [315] jmp        9            ; to [325]
181E  240C4D14           [316] self       48  40  308  ; -1881992366
1822  920C8016           [317] move       50  45     
1826  D20C0017           [318] move       51  46     
182A  224C0002           [319] call       48  4   1  
182E  244C4D14           [320] self       48  40  309  ; -1037856321
1832  920C8016           [321] move       50  45     
1836  D70C8000           [322] loadbool   51  1   0    ; true
183A  224C0002           [323] call       48  4   1  
183E  1A400180           [324] jmp        6            ; to [331]
1842  130C0000           [325] getupval   48  0      
1846  4ECCC317           [326] gettable   49  47  271  ; "mStoreItem"
184A  64CCC518           [327] self       49  49  279  ; 455421500
184E  628C0001           [328] call       49  2   2  
1852  8ECCC317           [329] gettable   50  47  271  ; "mStoreItem"
1856  0C8C8C18           [330] settable   48  49  50 
185A  4CCA8B16           [331] settable   41  45  47 
185E  948AF57F           [332] forloop    42  -41      ; to [292] if loop
1862  130C8004           [333] getupval   48  9      
1866  0E8C0918           [334] gettable   48  48  38 
186A  0C4C0A9B           [335] settable   48  310 41   ; "mColourPickers"
186E  130C8004           [336] getupval   48  9      
1872  0E8C0918           [337] gettable   48  48  38 
1876  0C0C8A9B           [338] settable   48  311 40   ; "mPalette"
187A  D488EE7F           [339] forloop    35  -69      ; to [271] if loop
187E  198C0600           [340] loadk      48  26       ; ""
1882  5D0C0E00           [341] getglobal  49  56       ; mMovie
1886  644CCE18           [342] self       49  49  313  ; 471456102
188A  D98C0E00           [343] loadk      51  58       ; "Link"
188E  19CD0E00           [344] loadk      52  59       ; "text"
1892  520D0018           [345] move       53  48     
1896  624C8002           [346] call       49  5   1  
189A  530C8005           [347] getupval   49  11     
189E  624C8000           [348] call       49  1   1  
18A2  18400000           [349] test       0       1    ; to [351] if false
18A6  1A400380           [350] jmp        14           ; to [365]
18AA  4A0C8001           [351] len        49  3      
fail op	21
18AE  15400C86           [352] concat     0   268 49 
18B2  1A000280           [353] jmp        9            ; to [363]
18B6  530C0006           [354] getupval   49  12     
18BA  4C4C4F9E           [355] settable   49  316 317  ; "IsLoadingSecond" 1
18BE  530C0006           [356] getupval   49  12     
18C2  9DCC0F00           [357] getglobal  50  63       ; UISys
18C6  8E0C5019           [358] gettable   50  50  320  ; 1151030240
18CA  D20C8001           [359] move       51  3      
18CE  A28C0001           [360] call       50  2   2  
18D2  4C8C0C9F           [361] settable   49  318 50   ; "SecondaryLoader"
18D6  1A400080           [362] jmp        2            ; to [365]
18DA  530C8006           [363] getupval   49  13     
18DE  624C8000           [364] call       49  1   1  
18E2  530C8000           [365] getupval   49  1      
18E6  4E0CC218           [366] gettable   49  49  264  ; "mWeaponInfos"
18EA  4A0C8018           [367] len        49  49     
fail op	35
18EE  2300C318           [368] close      0  
18F2  1AC00180           [369] jmp        8            ; to [378]
18F6  530C0007           [370] getupval   49  14     
18FA  644CD018           [371] self       49  49  321  ; -492641364
18FE  D70C0000           [372] loadbool   51  0   0    ; false
1902  624C8001           [373] call       49  3   1  
1906  530C0007           [374] getupval   49  14     
190A  648CD018           [375] self       49  49  322  ; -2120785850
190E  D9CC1000           [376] loadk      51  67       ; "/Lotus/Language/Menu/AppearancePreview_ApplyBtn_Disabled"
1912  624C8001           [377] call       49  3   1  
1916  570C8000           [378] loadbool   49  1   0    ; true
191A  5E0C0001           [379] return     49  2      
191E  1E008000           [380] return     0   1      
                         * constants:
1922  44                 sizek (68)
1923  04                 const type 4
1924  0A                 string size (10)
1925  6747616D65446174+  "gGameDat"
192D  6100               "a\0"
                         const [0]: "gGameData"
192F  01                 const type 3
1930  FD052E6F           const [1]: (1865287165)
1934  01                 const type 3
1935  65770E40           const [2]: (1074689893)
1939  04                 const type 4
193A  0B                 string size (11)
193B  6747616D6552756C+  "gGameRul"
1943  657300             "es\0"
                         const [3]: "gGameRules"
1946  01                 const type 3
1947  D69370C1           const [4]: (-1049586730)
194B  04                 const type 4
194C  0E                 string size (14)
194D  6D45717569707065+  "mEquippe"
1955  644974656D00       "dItem\0"
                         const [5]: "mEquippedItem"
195B  01                 const type 3
195C  7FDE0B03           const [6]: (51109503)
1960  01                 const type 3
1961  925FD206           const [7]: (114450322)
1965  04                 const type 4
1966  0D                 string size (13)
1967  6D576561706F6E49+  "mWeaponI"
196F  6E666F7300         "nfos\0"
                         const [8]: "mWeaponInfos"
1974  01                 const type 3
1975  99614D03           const [9]: (55402905)
1979  04                 const type 4
197A  0A                 string size (10)
197B  6D4974656D547970+  "mItemTyp"
1983  6500               "e\0"
                         const [10]: "mItemType"
1985  04                 const type 4
1986  06                 string size (6)
1987  6D4974656D00       "mItem\0"
                         const [11]: "mItem"
198D  03                 const type 3
198E  00000000           const [12]: (0)
1992  04                 const type 4
1993  06                 string size (6)
1994  7461626C6500       "table\0"
                         const [13]: "table"
199A  01                 const type 3
199B  9D0C45E6           const [14]: (-431682403)
199F  04                 const type 4
19A0  0B                 string size (11)
19A1  6D53746F72654974+  "mStoreIt"
19A9  656D00             "em\0"
                         const [15]: "mStoreItem"
19AC  01                 const type 3
19AD  F7EF75EA           const [16]: (-361369609)
19B1  01                 const type 3
19B2  9B10A14F           const [17]: (1335955611)
19B6  01                 const type 3
19B7  5720287C           const [18]: (2083004503)
19BB  04                 const type 4
19BC  0B                 string size (11)
19BD  4C6F7475735F4761+  "Lotus_Ga"
19C5  6D6500             "me\0"
                         const [19]: "Lotus_Game"
19C8  04                 const type 4
19C9  0D                 string size (13)
19CA  4D41585F536C6F74+  "MAX_Slot"
19D2  4E616D6500         "Name\0"
                         const [20]: "MAX_SlotName"
19D7  03                 const type 3
19D8  0000803F           const [21]: (0)
19DC  01                 const type 3
19DD  B5C7E871           const [22]: (1911080885)
19E1  01                 const type 3
19E2  3C2E251B           const [23]: (455421500)
19E6  04                 const type 4
19E7  08                 string size (8)
19E8  6D4974656D496400   "mItemId\0"
                         const [24]: "mItemId"
19F0  04                 const type 4
19F1  04                 string size (4)
19F2  6D496400           "mId\0"
                         const [25]: "mId"
19F6  04                 const type 4
19F7  01                 string size (0)
                         const [26]: ""
19F9  01                 const type 3
19FA  16426041           const [27]: (1096827414)
19FE  01                 const type 3
19FF  3D20B2E5           const [28]: (-441311171)
1A03  01                 const type 3
1A04  963A8EC9           const [29]: (-913425770)
1A08  01                 const type 3
1A09  06345CF2           const [30]: (-228838394)
1A0D  01                 const type 3
1A0E  B8C1FB62           const [31]: (1660666296)
1A12  01                 const type 3
1A13  70BE7730           const [32]: (813153904)
1A17  01                 const type 3
1A18  D48E598B           const [33]: (-1957065004)
1A1C  01                 const type 3
1A1D  0791B063           const [34]: (1672515847)
1A21  01                 const type 3
1A22  07CDE98E           const [35]: (-1897280249)
1A26  04                 const type 4
1A27  0A                 string size (10)
1A28  6D536B696E496E66+  "mSkinInf"
1A30  6F00               "o\0"
                         const [36]: "mSkinInfo"
1A32  04                 const type 4
1A33  07                 string size (7)
1A34  6D4F776E656400     "mOwned\0"
                         const [37]: "mOwned"
1A3B  04                 const type 4
1A3C  08                 string size (8)
1A3D  6D5069636B657200   "mPicker\0"
                         const [38]: "mPicker"
1A45  04                 const type 4
1A46  0E                 string size (14)
1A47  5072696D61727943+  "PrimaryC"
1A4F  6F6C6F727300       "olors\0"
                         const [39]: "PrimaryColors"
1A55  04                 const type 4
1A56  07                 string size (7)
1A57  46616369616C00     "Facial\0"
                         const [40]: "Facial"
1A5E  04                 const type 4
1A5F  06                 string size (6)
1A60  536967696C00       "Sigil\0"
                         const [41]: "Sigil"
1A66  04                 const type 4
1A67  0E                 string size (14)
1A68  6D4973486F766572+  "mIsHover"
1A70  626F61726400       "board\0"
                         const [42]: "mIsHoverboard"
1A76  04                 const type 4
1A77  0C                 string size (12)
1A78  6D52617750616C65+  "mRawPale"
1A80  74746500           "tte\0"
                         const [43]: "mRawPalette"
1A84  01                 const type 3
1A85  3E0B15DF           const [44]: (-552268994)
1A89  04                 const type 4
1A8A  17                 string size (23)
1A8B  4D41585F43757374+  "MAX_Cust"
1A93  6F6D697A6174696F+  "omizatio"
1A9B  6E436F6C6F7200     "nColor\0"
                         const [45]: "MAX_CustomizationColor"
1AA2  01                 const type 3
1AA3  2ED65E3A           const [46]: (979293742)
1AA7  01                 const type 3
1AA8  7C91A3DD           const [47]: (-576482948)
1AAC  04                 const type 4
1AAD  07                 string size (7)
1AAE  737472696E6700     "string\0"
                         const [48]: "string"
1AB5  01                 const type 3
1AB6  584F1F4B           const [49]: (1260343128)
1ABA  04                 const type 4
1ABB  07                 string size (7)
1ABC  30782530385800     "0x%08X\0"
                         const [50]: "0x%08X"
1AC3  01                 const type 3
1AC4  B4629E47           const [51]: (1201562292)
1AC8  01                 const type 3
1AC9  5213D38F           const [52]: (-1881992366)
1ACD  01                 const type 3
1ACE  BF9123C2           const [53]: (-1037856321)
1AD2  04                 const type 4
1AD3  0F                 string size (15)
1AD4  6D436F6C6F757250+  "mColourP"
1ADC  69636B65727300     "ickers\0"
                         const [54]: "mColourPickers"
1AE3  04                 const type 4
1AE4  09                 string size (9)
1AE5  6D50616C65747465+  "mPalette"
1AED  00                 "\0"
                         const [55]: "mPalette"
1AEE  04                 const type 4
1AEF  07                 string size (7)
1AF0  6D4D6F76696500     "mMovie\0"
                         const [56]: "mMovie"
1AF7  01                 const type 3
1AF8  66D9191C           const [57]: (471456102)
1AFC  04                 const type 4
1AFD  05                 string size (5)
1AFE  4C696E6B00         "Link\0"
                         const [58]: "Link"
1B03  04                 const type 4
1B04  05                 string size (5)
1B05  7465787400         "text\0"
                         const [59]: "text"
1B0A  04                 const type 4
1B0B  10                 string size (16)
1B0C  49734C6F6164696E+  "IsLoadin"
1B14  675365636F6E6400   "gSecond\0"
                         const [60]: "IsLoadingSecond"
1B1C  01                 const type 3
1B1D  01000000           const [61]: (1)
1B21  04                 const type 4
1B22  10                 string size (16)
1B23  5365636F6E646172+  "Secondar"
1B2B  794C6F6164657200   "yLoader\0"
                         const [62]: "SecondaryLoader"
1B33  04                 const type 4
1B34  06                 string size (6)
1B35  554953797300       "UISys\0"
                         const [63]: "UISys"
1B3B  01                 const type 3
1B3C  E0539B44           const [64]: (1151030240)
1B40  01                 const type 3
1B41  ACE3A2E2           const [65]: (-492641364)
1B45  01                 const type 3
1B46  46609781           const [66]: (-2120785850)
1B4A  04                 const type 4
1B4B  39                 string size (57)
1B4C  2F4C6F7475732F4C+  "/Lotus/L"
1B54  616E67756167652F+  "anguage/"
1B5C  4D656E752F417070+  "Menu/App"
1B64  656172616E636550+  "earanceP"
1B6C  7265766965775F41+  "review_A"
1B74  70706C7942746E5F+  "pplyBtn_"
1B7C  44697361626C6564+  "Disabled"
1B84  00                 "\0"
                         const [67]: "/Lotus/Language/Menu/AppearancePreview_ApplyBtn_Disabled"
                         * functions:
1B85  00                 sizep (0)
                         * lines:
1B87  02                 sizelineinfo (380)
                         [pc] (line)
1B88  A9                 [001] (-87)
1B89  00                 [002] (-87)
1B8A  00                 [003] (-87)
1B8B  00                 [004] (-86)
1B8C  A9                 [005] (-86)
1B8D  00                 [006] (-86)
1B8E  00                 [007] (-86)
1B8F  00                 [008] (-86)
1B90  A9                 [009] (-85)
1B91  00                 [010] (-85)
1B92  00                 [011] (-82)
1B93  00                 [012] (-82)
1B94  AA                 [013] (-82)
1B95  00                 [014] (-81)
1B96  00                 [015] (-81)
1B97  00                 [016] (-81)
1B98  AA                 [017] (-81)
1B99  00                 [018] (-81)
1B9A  00                 [019] (-80)
1B9B  00                 [020] (-80)
1B9C  AA                 [021] (-77)
1B9D  00                 [022] (-76)
1B9E  00                 [023] (-76)
1B9F  00                 [024] (-73)
1BA0  AA                 [025] (-73)
1BA1  00                 [026] (-73)
1BA2  00                 [027] (-73)
1BA3  00                 [028] (-73)
1BA4  AA                 [029] (-73)
1BA5  00                 [030] (-73)
1BA6  00                 [031] (-73)
1BA7  00                 [032] (-73)
1BA8  AB                 [033] (-72)
1BA9  00                 [034] (-72)
1BAA  00                 [035] (-72)
1BAB  00                 [036] (-72)
1BAC  AB                 [037] (-72)
1BAD  00                 [038] (-72)
1BAE  00                 [039] (-72)
1BAF  00                 [040] (-72)
1BB0  AE                 [041] (-72)
1BB1  00                 [042] (-72)
1BB2  00                 [043] (-72)
1BB3  00                 [044] (-72)
1BB4  AE                 [045] (-72)
1BB5  00                 [046] (-72)
1BB6  00                 [047] (-72)
1BB7  00                 [048] (-72)
1BB8  AE                 [049] (-72)
1BB9  00                 [050] (-71)
1BBA  00                 [051] (-71)
1BBB  00                 [052] (-71)
1BBC  AF                 [053] (-71)
1BBD  00                 [054] (-71)
1BBE  00                 [055] (-70)
1BBF  00                 [056] (-70)
1BC0  AF                 [057] (-70)
1BC1  00                 [058] (-69)
1BC2  00                 [059] (-69)
1BC3  00                 [060] (-69)
1BC4  AF                 [061] (-69)
1BC5  00                 [062] (-69)
1BC6  00                 [063] (-69)
1BC7  00                 [064] (-65)
1BC8  AF                 [065] (-65)
1BC9  00                 [066] (-64)
1BCA  00                 [067] (-64)
1BCB  00                 [068] (-63)
1BCC  AF                 [069] (-63)
1BCD  00                 [070] (-63)
1BCE  00                 [071] (-63)
1BCF  00                 [072] (-61)
1BD0  B0                 [073] (-61)
1BD1  00                 [074] (-61)
1BD2  00                 [075] (-61)
1BD3  00                 [076] (-61)
1BD4  B0                 [077] (-61)
1BD5  00                 [078] (-60)
1BD6  00                 [079] (-60)
1BD7  00                 [080] (-60)
1BD8  B3                 [081] (-59)
1BD9  00                 [082] (-59)
1BDA  00                 [083] (-59)
1BDB  00                 [084] (-59)
1BDC  B4                 [085] (-59)
1BDD  00                 [086] (-58)
1BDE  00                 [087] (-58)
1BDF  00                 [088] (-58)
1BE0  B4                 [089] (-58)
1BE1  00                 [090] (-58)
1BE2  00                 [091] (-58)
1BE3  00                 [092] (-55)
1BE4  B7                 [093] (-55)
1BE5  00                 [094] (-55)
1BE6  00                 [095] (-55)
1BE7  00                 [096] (-55)
1BE8  B7                 [097] (-55)
1BE9  00                 [098] (-55)
1BEA  00                 [099] (-54)
1BEB  00                 [100] (-54)
1BEC  B7                 [101] (-54)
1BED  00                 [102] (-53)
1BEE  00                 [103] (-53)
1BEF  00                 [104] (-53)
1BF0  B7                 [105] (-53)
1BF1  00                 [106] (-53)
1BF2  00                 [107] (-53)
1BF3  00                 [108] (-52)
1BF4  B7                 [109] (-52)
1BF5  00                 [110] (-52)
1BF6  00                 [111] (-52)
1BF7  00                 [112] (-52)
1BF8  B7                 [113] (-52)
1BF9  00                 [114] (-52)
1BFA  00                 [115] (-52)
1BFB  00                 [116] (-50)
1BFC  B7                 [117] (-50)
1BFD  00                 [118] (-50)
1BFE  00                 [119] (-50)
1BFF  00                 [120] (-50)
1C00  B7                 [121] (-49)
1C01  00                 [122] (-49)
1C02  00                 [123] (-49)
1C03  00                 [124] (-49)
1C04  B7                 [125] (-49)
1C05  00                 [126] (-49)
1C06  00                 [127] (-49)
1C07  00                 [128] (-49)
1C08  B8                 [129] (-49)
1C09  00                 [130] (-49)
1C0A  00                 [131] (-47)
1C0B  00                 [132] (-47)
1C0C  B8                 [133] (-46)
1C0D  00                 [134] (-46)
1C0E  00                 [135] (-45)
1C0F  00                 [136] (-45)
1C10  B8                 [137] (-45)
1C11  00                 [138] (-45)
1C12  00                 [139] (-45)
1C13  00                 [140] (-44)
1C14  B8                 [141] (-44)
1C15  00                 [142] (-43)
1C16  00                 [143] (-43)
1C17  00                 [144] (-43)
1C18  B8                 [145] (-42)
1C19  00                 [146] (-42)
1C1A  00                 [147] (-42)
1C1B  00                 [148] (-42)
1C1C  B8                 [149] (-42)
1C1D  00                 [150] (-41)
1C1E  00                 [151] (-41)
1C1F  00                 [152] (-41)
1C20  B8                 [153] (-41)
1C21  00                 [154] (-41)
1C22  00                 [155] (-41)
1C23  00                 [156] (-41)
1C24  B8                 [157] (-41)
1C25  00                 [158] (-41)
1C26  00                 [159] (-41)
1C27  00                 [160] (-41)
1C28  B8                 [161] (-41)
1C29  00                 [162] (-40)
1C2A  00                 [163] (-37)
1C2B  00                 [164] (-37)
1C2C  B8                 [165] (-37)
1C2D  00                 [166] (-37)
1C2E  00                 [167] (-37)
1C2F  00                 [168] (-37)
1C30  B8                 [169] (-37)
1C31  00                 [170] (-37)
1C32  00                 [171] (-37)
1C33  00                 [172] (-37)
1C34  B8                 [173] (-37)
1C35  00                 [174] (-37)
1C36  00                 [175] (-37)
1C37  00                 [176] (-37)
1C38  B8                 [177] (-34)
1C39  00                 [178] (-34)
1C3A  00                 [179] (-34)
1C3B  00                 [180] (-34)
1C3C  B8                 [181] (-33)
1C3D  00                 [182] (-33)
1C3E  00                 [183] (-33)
1C3F  00                 [184] (-32)
1C40  B8                 [185] (-31)
1C41  00                 [186] (-34)
1C42  00                 [187] (-30)
1C43  00                 [188] (-27)
1C44  B8                 [189] (-27)
1C45  00                 [190] (-27)
1C46  00                 [191] (-27)
1C47  00                 [192] (-27)
1C48  B8                 [193] (-27)
1C49  00                 [194] (-27)
1C4A  00                 [195] (-27)
1C4B  00                 [196] (-27)
1C4C  B9                 [197] (-24)
1C4D  00                 [198] (-24)
1C4E  00                 [199] (-24)
1C4F  00                 [200] (-24)
1C50  B9                 [201] (-24)
1C51  00                 [202] (-24)
1C52  00                 [203] (-24)
1C53  00                 [204] (-23)
1C54  B9                 [205] (-23)
1C55  00                 [206] (-23)
1C56  00                 [207] (-23)
1C57  00                 [208] (-23)
1C58  B9                 [209] (-23)
1C59  00                 [210] (-22)
1C5A  00                 [211] (-22)
1C5B  00                 [212] (-22)
1C5C  B9                 [213] (-22)
1C5D  00                 [214] (-21)
1C5E  00                 [215] (-21)
1C5F  00                 [216] (-21)
1C60  BA                 [217] (-21)
1C61  00                 [218] (-21)
1C62  00                 [219] (-21)
1C63  00                 [220] (-21)
1C64  BA                 [221] (-21)
1C65  00                 [222] (-21)
1C66  00                 [223] (-21)
1C67  00                 [224] (-20)
1C68  BA                 [225] (-18)
1C69  00                 [226] (-23)
1C6A  00                 [227] (-11)
1C6B  00                 [228] (-11)
1C6C  BB                 [229] (-11)
1C6D  00                 [230] (-11)
1C6E  00                 [231] (-11)
1C6F  00                 [232] (-11)
1C70  BB                 [233] (-11)
1C71  00                 [234] (-11)
1C72  00                 [235] (-10)
1C73  00                 [236] (-10)
1C74  BB                 [237] (-10)
1C75  00                 [238] (-10)
1C76  00                 [239] (-6)
1C77  00                 [240] (-6)
1C78  BB                 [241] (-6)
1C79  00                 [242] (-5)
1C7A  00                 [243] (-5)
1C7B  00                 [244] (-5)
1C7C  BB                 [245] (-61)
1C7D  00                 [246] (0)
1C7E  00                 [247] (0)
1C7F  00                 [248] (0)
1C80  BB                 [249] (0)
1C81  00                 [250] (1)
1C82  00                 [251] (1)
1C83  00                 [252] (1)
1C84  BF                 [253] (1)
1C85  00                 [254] (1)
1C86  00                 [255] (1)
1C87  00                 [256] (1)
1C88  BF                 [257] (1)
1C89  00                 [258] (1)
1C8A  00                 [259] (1)
1C8B  00                 [260] (1)
1C8C  C0                 [261] (1)
1C8D  00                 [262] (1)
1C8E  00                 [263] (0)
1C8F  00                 [264] (1)
1C90  C0                 [265] (4)
1C91  00                 [266] (4)
1C92  00                 [267] (4)
1C93  00                 [268] (4)
1C94  C1                 [269] (4)
1C95  00                 [270] (4)
1C96  00                 [271] (5)
1C97  00                 [272] (5)
1C98  C1                 [273] (5)
1C99  00                 [274] (5)
1C9A  00                 [275] (5)
1C9B  00                 [276] (5)
1C9C  C1                 [277] (5)
1C9D  00                 [278] (5)
1C9E  00                 [279] (6)
1C9F  00                 [280] (6)
1CA0  C1                 [281] (6)
1CA1  00                 [282] (7)
1CA2  00                 [283] (7)
1CA3  00                 [284] (7)
1CA4  C3                 [285] (8)
1CA5  00                 [286] (10)
1CA6  00                 [287] (10)
1CA7  00                 [288] (10)
1CA8  C3                 [289] (10)
1CA9  00                 [290] (10)
1CAA  00                 [291] (10)
1CAB  00                 [292] (11)
1CAC  C3                 [293] (11)
1CAD  00                 [294] (11)
1CAE  00                 [295] (11)
1CAF  00                 [296] (11)
1CB0  C3                 [297] (12)
1CB1  00                 [298] (12)
1CB2  00                 [299] (12)
1CB3  00                 [300] (13)
1CB4  C3                 [301] (13)
1CB5  00                 [302] (13)
1CB6  00                 [303] (13)
1CB7  00                 [304] (13)
1CB8  C3                 [305] (13)
1CB9  00                 [306] (13)
1CBA  00                 [307] (13)
1CBB  00                 [308] (14)
1CBC  C4                 [309] (14)
1CBD  00                 [310] (14)
1CBE  00                 [311] (14)
1CBF  00                 [312] (14)
1CC0  C4                 [313] (15)
1CC1  00                 [314] (15)
1CC2  00                 [315] (15)
1CC3  00                 [316] (16)
1CC4  C4                 [317] (16)
1CC5  00                 [318] (16)
1CC6  00                 [319] (16)
1CC7  00                 [320] (17)
1CC8  C5                 [321] (17)
1CC9  00                 [322] (17)
1CCA  00                 [323] (17)
1CCB  00                 [324] (17)
1CCC  C5                 [325] (19)
1CCD  00                 [326] (19)
1CCE  00                 [327] (19)
1CCF  00                 [328] (19)
1CD0  C5                 [329] (19)
1CD1  00                 [330] (19)
1CD2  00                 [331] (22)
1CD3  00                 [332] (10)
1CD4  C5                 [333] (27)
1CD5  00                 [334] (27)
1CD6  00                 [335] (27)
1CD7  00                 [336] (28)
1CD8  C5                 [337] (28)
1CD9  00                 [338] (28)
1CDA  00                 [339] (4)
1CDB  00                 [340] (33)
1CDC  C6                 [341] (75)
1CDD  00                 [342] (75)
1CDE  00                 [343] (75)
1CDF  00                 [344] (75)
1CE0  C6                 [345] (75)
1CE1  00                 [346] (75)
1CE2  00                 [347] (78)
1CE3  00                 [348] (78)
1CE4  C6                 [349] (80)
1CE5  00                 [350] (80)
1CE6  00                 [351] (81)
1CE7  00                 [352] (81)
1CE8  C6                 [353] (81)
1CE9  00                 [354] (82)
1CEA  00                 [355] (82)
1CEB  00                 [356] (83)
1CEC  C6                 [357] (83)
1CED  00                 [358] (83)
1CEE  00                 [359] (83)
1CEF  00                 [360] (83)
1CF0  C6                 [361] (83)
1CF1  00                 [362] (83)
1CF2  00                 [363] (85)
1CF3  00                 [364] (85)
1CF4  C9                 [365] (89)
1CF5  00                 [366] (89)
1CF6  00                 [367] (89)
1CF7  00                 [368] (89)
1CF8  C9                 [369] (89)
1CF9  00                 [370] (90)
1CFA  00                 [371] (90)
1CFB  00                 [372] (90)
1CFC  C9                 [373] (90)
1CFD  00                 [374] (91)
1CFE  00                 [375] (91)
1CFF  00                 [376] (91)
1D00  C9                 [377] (91)
1D01  00                 [378] (94)
1D02  00                 [379] (94)
1D03  00                 [380] (95)
                         * locals:
2178  00                 sizelocvars (0)
                         * upvalues:
2179  00                 sizeupvalues (0)
                         ** end of function **

                         
217A                     ** function [8] definition (level 2)
                         ** start of function **
217A  00                 string size (0)
                         source name: (none)
217C  02                 line defined (353)
217D  F7                 last line defined (503)
217E  03                 nups (16)
217F  10                 numparams (0)
2180  00                 is_vararg (0)
2181  00                 maxstacksize (50)
                         * code:
2184  03                 sizecode (430)
2185  13000000           [001] getupval   0   0      
fail op	35
2189  63004000           [002] close      1  
218D  1A000180           [003] jmp        5            ; to [9]
2191  1D400000           [004] getglobal  0   1        ; 1074689893
2195  5D800000           [005] getglobal  1   2        ; gGameData
2199  22800001           [006] call       0   2   2  
219D  18000000           [007] test       0       0    ; to [9] if true
21A1  1A400080           [008] jmp        2            ; to [11]
21A5  17000000           [009] loadbool   0   0   0    ; false
21A9  1E000001           [010] return     0   2      
21AD  1DC00000           [011] getglobal  0   3        ; gGameRules
21B1  24004100           [012] self       0   0   260  ; -1049586730
21B5  22800001           [013] call       0   2   2  
21B9  5D400000           [014] getglobal  1   1        ; 1074689893
21BD  92000000           [015] move       2   0      
21C1  62800001           [016] call       1   2   2  
21C5  58000000           [017] test       1       0    ; to [19] if true
21C9  1A400080           [018] jmp        2            ; to [21]
21CD  57000000           [019] loadbool   1   0   0    ; false
21D1  5E000001           [020] return     1   2      
21D5  4B000000           [021] newtable   1   0   0    ; array=0, hash=0
21D9  A4404100           [022] self       2   0   261  ; 1179136855
21DD  A2800001           [023] call       2   2   2  
21E1  DD800100           [024] getglobal  3   6        ; string
21E5  CEC0C101           [025] gettable   3   3   263  ; -565905820
21E9  13010000           [026] getupval   4   0      
21ED  59010200           [027] loadk      5   8        ; "|"
21F1  E2808001           [028] call       3   3   2  
21F5  12018001           [029] move       4   3      
21F9  5D810100           [030] getglobal  5   6        ; string
21FD  4E41C202           [031] gettable   5   5   265  ; 2071470131
2201  93010000           [032] getupval   6   0      
2205  D9810200           [033] loadk      7   10       ; 0
2209  0D82C201           [034] sub        8   3   266  ; 0
220D  62810002           [035] call       5   4   2  
2211  93018000           [036] getupval   6   1      
2215  D3010001           [037] getupval   7   2      
2219  12020001           [038] move       8   2      
221D  52028002           [039] move       9   5      
2221  E2818001           [040] call       7   3   2  
2225  8CC18185           [041] settable   6   267 7    ; "mStoreItem"
2229  93018000           [042] getupval   6   1      
222D  D3018000           [043] getupval   7   1      
2231  CEC1C203           [044] gettable   7   7   267  ; "mStoreItem"
2235  D8010000           [045] test       7       0    ; to [47] if true
2239  1AC00080           [046] jmp        4            ; to [51]
223D  D3018000           [047] getupval   7   1      
2241  CEC1C203           [048] gettable   7   7   267  ; "mStoreItem"
2245  E441C303           [049] self       7   7   269  ; 813153904
2249  E2810001           [050] call       7   2   2  
224D  8CC10186           [051] settable   6   268 7    ; "mItemType"
2251  9D410000           [052] getglobal  6   1        ; 1074689893
2255  D3018000           [053] getupval   7   1      
2259  CE01C303           [054] gettable   7   7   268  ; "mItemType"
225D  A2810001           [055] call       6   2   2  
2261  98010000           [056] test       6       0    ; to [58] if true
2265  1A400080           [057] jmp        2            ; to [60]
2269  97010000           [058] loadbool   6   0   0    ; false
226D  9E010001           [059] return     6   2      
2271  93018000           [060] getupval   6   1      
2275  D3018000           [061] getupval   7   1      
2279  CE01C303           [062] gettable   7   7   268  ; "mItemType"
227D  E4C1C303           [063] self       7   7   271  ; -1957065004
2281  53028001           [064] getupval   9   3      
2285  E2818001           [065] call       7   3   2  
2289  8CC10187           [066] settable   6   270 7    ; "mIsHoverboard"
228D  93018000           [067] getupval   6   1      
2291  CB010000           [068] newtable   7   0   0    ; array=0, hash=0
2295  8CC10188           [069] settable   6   272 7    ; "mModularParts"
2299  9D410400           [070] getglobal  6   17       ; table
229D  8E814403           [071] gettable   6   6   274  ; -431682403
22A1  D2018000           [072] move       7   1      
22A5  13028000           [073] getupval   8   1      
22A9  0E024304           [074] gettable   8   8   268  ; "mItemType"
22AD  24C24404           [075] self       8   8   275  ; 455421500
22B1  22020001           [076] call       8   2   0  
22B5  A2410000           [077] call       6   0   1  
22B9  9D410000           [078] getglobal  6   1        ; 1074689893
22BD  D3018000           [079] getupval   7   1      
22C1  CEC1C203           [080] gettable   7   7   267  ; "mStoreItem"
22C5  A2810001           [081] call       6   2   2  
22C9  98410000           [082] test       6       1    ; to [84] if false
22CD  1A800780           [083] jmp        31           ; to [115]
22D1  9D410000           [084] getglobal  6   1        ; 1074689893
22D5  DD010500           [085] getglobal  7   20       ; _T
22D9  CE41C503           [086] gettable   7   7   277  ; "SetSquadOverlayTitle"
22DD  A2810001           [087] call       6   2   2  
22E1  98410000           [088] test       6       1    ; to [90] if false
22E5  1A000680           [089] jmp        25           ; to [115]
22E9  9D810500           [090] getglobal  6   22       ; mMovie
22ED  A4C14503           [091] self       6   6   279  ; 98241492
22F1  13028000           [092] getupval   8   1      
22F5  0EC24204           [093] gettable   8   8   267  ; "mStoreItem"
22F9  24024604           [094] self       8   8   280  ; 1634497718
22FD  22820001           [095] call       8   2   2  
2301  24424604           [096] self       8   8   281  ; 1590141906
2305  22820001           [097] call       8   2   2  
2309  57020000           [098] loadbool   9   0   0    ; false
230D  A2810002           [099] call       6   4   2  
2311  DD810500           [100] getglobal  7   22       ; mMovie
2315  E4C1C503           [101] self       7   7   279  ; 98241492
2319  59820600           [102] loadk      9   26       ; "/Lotus/Language/Menu/AppearancePreview_Title"
231D  97020000           [103] loadbool   10  0   0    ; false
2321  CB820000           [104] newtable   11  0   2    ; array=0, hash=2
2325  13030002           [105] getupval   12  4      
2329  CC02838D           [106] settable   11  283 12   ; "SENDER"
232D  CC82018E           [107] settable   11  284 6    ; "WEAPON"
2331  E2818002           [108] call       7   5   2  
2335  1D020500           [109] getglobal  8   20       ; _T
2339  0E424704           [110] gettable   8   8   285  ; 1453523133
233D  52028003           [111] move       9   7      
2341  22420001           [112] call       8   2   1  
2345  17028000           [113] loadbool   8   1   0    ; true
fail op	8
2349  08028002           [114] setupval   8   5      
234D  1D820100           [115] getglobal  8   6        ; string
2351  0EC24104           [116] gettable   8   8   263  ; -565905820
2355  53020000           [117] getupval   9   0      
2359  99020200           [118] loadk      10  8        ; "|"
235D  C3824202           [119] add        11  4   266  ; 0
2361  22820002           [120] call       8   4   2  
2365  D2000004           [121] move       3   8      
2369  13020003           [122] getupval   8   6      
236D  0E824704           [123] gettable   8   8   286  ; 1032202902
2371  53028000           [124] getupval   9   1      
2375  4E02C304           [125] gettable   9   9   268  ; "mItemType"
2379  22C20001           [126] call       8   2   3  
fail op	35
237D  6300C004           [127] close      1  
2381  1A400A80           [128] jmp        42           ; to [171]
2385  99820200           [129] loadk      10  10       ; 0
2389  D2028004           [130] move       11  9      
238D  19830200           [131] loadk      12  10       ; 0
2391  90020980           [132] forprep    10  37       ; to [170]
2395  9D830100           [133] getglobal  14  6        ; string
2399  8E434207           [134] gettable   14  14  265  ; 2071470131
239D  D3030000           [135] getupval   15  0      
23A1  03844202           [136] add        16  4   266  ; 0
23A5  4D84C201           [137] sub        17  3   266  ; 0
23A9  A2830002           [138] call       14  4   2  
23AD  D3030001           [139] getupval   15  2      
23B1  12040001           [140] move       16  2      
23B5  52040007           [141] move       17  14     
23B9  E2838001           [142] call       15  3   2  
23BD  1D440000           [143] getglobal  16  1        ; 1074689893
23C1  52048007           [144] move       17  15     
23C5  22840001           [145] call       16  2   2  
23C9  18440000           [146] test       16      1    ; to [148] if false
23CD  1A400380           [147] jmp        14           ; to [162]
23D1  2444C307           [148] self       16  15  269  ; 813153904
23D5  22840001           [149] call       16  2   2  
23D9  5D440400           [150] getglobal  17  17       ; table
23DD  4E84C408           [151] gettable   17  17  274  ; -431682403
23E1  93048000           [152] getupval   18  1      
23E5  8E044409           [153] gettable   18  18  272  ; "mModularParts"
23E9  D2040008           [154] move       19  16     
23ED  62448001           [155] call       17  3   1  
23F1  5D440400           [156] getglobal  17  17       ; table
23F5  4E84C408           [157] gettable   17  17  274  ; -431682403
23F9  92048000           [158] move       18  1      
23FD  E4C44408           [159] self       19  16  275  ; 455421500
2401  E2040001           [160] call       19  2   0  
2405  62440000           [161] call       17  0   1  
2409  12018001           [162] move       4   3      
240D  5D840100           [163] getglobal  17  6        ; string
2411  4EC4C108           [164] gettable   17  17  263  ; -565905820
2415  93040000           [165] getupval   18  0      
2419  D9040200           [166] loadk      19  8        ; "|"
241D  03854202           [167] add        20  4   266  ; 0
2421  62840002           [168] call       17  4   2  
2425  D2008008           [169] move       3   17     
2429  9442F67F           [170] forloop    10  -38      ; to [133] if loop
242D  5D840100           [171] getglobal  17  6        ; string
2431  4E44C208           [172] gettable   17  17  265  ; 2071470131
2435  93040000           [173] getupval   18  0      
2439  C3844202           [174] add        19  4   266  ; 0
243D  0D85C201           [175] sub        20  3   266  ; 0
2441  62840002           [176] call       17  4   2  
2445  A4C4C708           [177] self       18  17  287  ; -965268854
2449  A2840001           [178] call       18  2   2  
fail op	35
244D  63004809           [179] close      1  
2451  1A800180           [180] jmp        7            ; to [188]
2455  9D440800           [181] getglobal  18  33       ; -1817107093
2459  D9840800           [182] loadk      19  34       ; "AppearancePreview: Trying to decode bad link "
245D  13050000           [183] getupval   20  0      
2461  C2048509           [184] concat     19  19  20 
2465  A2440001           [185] call       18  2   1  
2469  97040000           [186] loadbool   18  0   0    ; false
246D  9E040001           [187] return     18  2      
2471  9DC40800           [188] getglobal  18  35       ; -174740002
2475  DD840100           [189] getglobal  19  6        ; string
2479  CE44C209           [190] gettable   19  19  265  ; 2071470131
247D  12058008           [191] move       20  17     
2481  59850200           [192] loadk      21  10       ; 0
2485  99850200           [193] loadk      22  10       ; 0
2489  E2040002           [194] call       19  4   0  
248D  A2840000           [195] call       18  0   2  
fail op	8
2491  88048003           [196] setupval   18  7      
2495  9DC40800           [197] getglobal  18  35       ; -174740002
2499  DD840100           [198] getglobal  19  6        ; string
249D  CE44C209           [199] gettable   19  19  265  ; 2071470131
24A1  12058008           [200] move       20  17     
24A5  59050800           [201] loadk      21  32       ; 0
24A9  99050800           [202] loadk      22  32       ; 0
24AD  E2040002           [203] call       19  4   0  
24B1  A2840000           [204] call       18  0   2  
fail op	8
24B5  88040004           [205] setupval   18  8      
24B9  93040004           [206] getupval   18  8      
24BD  DD040900           [207] getglobal  19  36       ; Lotus_Game
24C1  CE44C909           [208] gettable   19  19  293  ; "HEAVY_GUN_SLOT"
fail op	35
24C5  23C00409           [209] close      0  
24C9  1A400180           [210] jmp        6            ; to [217]
24CD  9D040900           [211] getglobal  18  36       ; Lotus_Game
24D1  8E844909           [212] gettable   18  18  294  ; "LOT_ARCHWING"
fail op	8
24D5  88048003           [213] setupval   18  7      
24D9  9D040900           [214] getglobal  18  36       ; Lotus_Game
24DD  8EC44909           [215] gettable   18  18  295  ; "LONG_GUN_SLOT"
fail op	8
24E1  88040004           [216] setupval   18  8      
24E5  12018001           [217] move       4   3      
24E9  9D840100           [218] getglobal  18  6        ; string
24ED  8EC44109           [219] gettable   18  18  263  ; -565905820
24F1  D3040000           [220] getupval   19  0      
24F5  19050200           [221] loadk      20  8        ; "|"
24F9  43854202           [222] add        21  4   266  ; 0
24FD  A2840002           [223] call       18  4   2  
2501  D2000009           [224] move       3   18     
2505  9D840100           [225] getglobal  18  6        ; string
2509  8E444209           [226] gettable   18  18  265  ; 2071470131
250D  D3040000           [227] getupval   19  0      
2511  03854202           [228] add        20  4   266  ; 0
2515  4D85C201           [229] sub        21  3   266  ; 0
2519  A2840002           [230] call       18  4   2  
251D  E4C44709           [231] self       19  18  287  ; -965268854
2521  E2840001           [232] call       19  2   2  
fail op	35
2525  6380C209           [233] close      1  
2529  1A800180           [234] jmp        7            ; to [242]
252D  DD440800           [235] getglobal  19  33       ; -1817107093
2531  19850800           [236] loadk      20  34       ; "AppearancePreview: Trying to decode bad link "
2535  53050000           [237] getupval   21  0      
2539  0245050A           [238] concat     20  20  21 
253D  E2440001           [239] call       19  2   1  
2541  D7040000           [240] loadbool   19  0   0    ; false
2545  DE040001           [241] return     19  2      
fail op	35
2549  23004A09           [242] close      0  
254D  1A000080           [243] jmp        1            ; to [245]
2551  D7440000           [244] loadbool   19  0   1    ; false, to [246]
2555  D7048000           [245] loadbool   19  1   0    ; true
fail op	8
2559  C8048004           [246] setupval   19  9      
255D  12018001           [247] move       4   3      
2561  D9440A00           [248] loadk      19  41       ; 0
2565  1D050900           [249] getglobal  20  36       ; Lotus_Game
2569  0E854A0A           [250] gettable   20  20  298  ; "MAX_SlotName"
256D  0D85420A           [251] sub        20  20  266  ; 0
2571  59850200           [252] loadk      21  10       ; 0
2575  D0040D80           [253] forprep    19  53       ; to [307]
2579  C605000C           [254] loadnil    23  24     
257D  5D060900           [255] getglobal  25  36       ; Lotus_Game
2581  4EC6CA0C           [256] gettable   25  25  299  ; "SigilChest"
fail op	35
2585  6340060B           [257] close      1  
2589  1AC00080           [258] jmp        4            ; to [263]
258D  5D060900           [259] getglobal  25  36       ; Lotus_Game
2591  4E06CB0C           [260] gettable   25  25  300  ; "SigilBack"
fail op	35
2595  2340060B           [261] close      0  
2599  1AC00080           [262] jmp        4            ; to [267]
259D  53068000           [263] getupval   25  1      
25A1  4E86C30C           [264] gettable   25  25  270  ; "mIsHoverboard"
25A5  58060000           [265] test       25      0    ; to [267] if true
25A9  1AC00580           [266] jmp        24           ; to [291]
25AD  5D860100           [267] getglobal  25  6        ; string
25B1  4EC6C10C           [268] gettable   25  25  263  ; -565905820
25B5  93060000           [269] getupval   26  0      
25B9  D9060200           [270] loadk      27  8        ; "|"
25BD  03874202           [271] add        28  4   266  ; 0
25C1  62860002           [272] call       25  4   2  
25C5  D200800C           [273] move       3   25     
25C9  5D860100           [274] getglobal  25  6        ; string
25CD  4E46C20C           [275] gettable   25  25  265  ; 2071470131
25D1  93060000           [276] getupval   26  0      
25D5  C3864202           [277] add        27  4   266  ; 0
25D9  0D87C201           [278] sub        28  3   266  ; 0
25DD  62860002           [279] call       25  4   2  
25E1  93060001           [280] getupval   26  2      
25E5  D2060001           [281] move       27  2      
25E9  1207800C           [282] move       28  25     
25ED  A2868001           [283] call       26  3   2  
25F1  D205000D           [284] move       23  26     
fail op	5
25F5  0506800B           [285] getglobal  24  11776    ; nil
25F9  1A800080           [286] jmp        3            ; to [290]
25FD  A446C30B           [287] self       26  23  269  ; 813153904
2601  A2860001           [288] call       26  2   2  
2605  1206000D           [289] move       24  26     
2609  12018001           [290] move       4   3      
260D  9D460000           [291] getglobal  26  1        ; 1074689893
2611  D206000C           [292] move       27  24     
2615  A2860001           [293] call       26  2   2  
2619  98460000           [294] test       26      1    ; to [296] if false
261D  1A400180           [295] jmp        6            ; to [302]
2621  9D460400           [296] getglobal  26  17       ; table
2625  8E86440D           [297] gettable   26  26  274  ; -431682403
2629  D2068000           [298] move       27  1      
262D  24C7440C           [299] self       28  24  275  ; 455421500
2631  22070001           [300] call       28  2   0  
2635  A2460000           [301] call       26  0   1  
2639  93060005           [302] getupval   26  10     
263D  CB860000           [303] newtable   27  0   2    ; array=0, hash=2
2641  CCC68585           [304] settable   27  267 23   ; "mStoreItem"
2645  CC060686           [305] settable   27  268 24   ; "mItemType"
2649  8CC6060B           [306] settable   26  22  27 
264D  D444F27F           [307] forloop    19  -54      ; to [254] if loop
2651  93060006           [308] getupval   26  12     
2655  8E464B0D           [309] gettable   26  26  301  ; 791209889
2659  D2060000           [310] move       27  0      
265D  17070000           [311] loadbool   28  0   0    ; false
2661  57078000           [312] loadbool   29  1   0    ; true
2665  A2860002           [313] call       26  4   2  
fail op	8
2669  88068005           [314] setupval   26  11     
266D  9D860B00           [315] getglobal  26  46       ; 1672515847
2671  D3068005           [316] getupval   27  11     
2675  A2060101           [317] call       26  2   4  
2679  1A400380           [318] jmp        14           ; to [333]
267D  CEC7420F           [319] gettable   31  30  267  ; "mStoreItem"
2681  E447C30F           [320] self       31  31  269  ; 813153904
2685  E2870001           [321] call       31  2   2  
2689  1D480000           [322] getglobal  32  1        ; 1074689893
268D  5208800F           [323] move       33  31     
2691  22880001           [324] call       32  2   2  
2695  18480000           [325] test       32      1    ; to [327] if false
2699  1A400180           [326] jmp        6            ; to [333]
269D  1D480400           [327] getglobal  32  17       ; table
26A1  0E884410           [328] gettable   32  32  274  ; -431682403
26A5  52088000           [329] move       33  1      
26A9  A4C8C40F           [330] self       34  31  275  ; 455421500
26AD  A2080001           [331] call       34  2   0  
26B1  22480000           [332] call       32  0   1  
26B5  96860000           [333] tforloop   26      2    ; to [335] if exit
26B9  1AC0FB7F           [334] jmp        -16          ; to [319]
26BD  1D080900           [335] getglobal  32  36       ; Lotus_Game
26C1  0EC84B10           [336] gettable   32  32  303  ; "PrimaryColors"
26C5  5D080900           [337] getglobal  33  36       ; Lotus_Game
26C9  4E08CC10           [338] gettable   33  33  304  ; "Facial"
26CD  99880200           [339] loadk      34  10       ; 0
26D1  10881180           [340] forprep    32  71       ; to [412]
26D5  1D090900           [341] getglobal  36  36       ; Lotus_Game
26D9  0E494C12           [342] gettable   36  36  305  ; "Sigil"
fail op	35
26DD  23008911           [343] close      0  
26E1  1AC00080           [344] jmp        4            ; to [349]
26E5  13098000           [345] getupval   36  1      
26E9  0E894312           [346] gettable   36  36  270  ; "mIsHoverboard"
26ED  18090000           [347] test       36      0    ; to [349] if true
26F1  1A800F80           [348] jmp        63           ; to [412]
26F5  1D890100           [349] getglobal  36  6        ; string
26F9  0EC94112           [350] gettable   36  36  263  ; -565905820
26FD  53090000           [351] getupval   37  0      
2701  99090200           [352] loadk      38  8        ; "|"
2705  C3894202           [353] add        39  4   266  ; 0
2709  22890002           [354] call       36  4   2  
fail op	5
270D  C5400012           [355] getglobal  3   18433    ; nil
2711  1AC00080           [356] jmp        4            ; to [361]
2715  13090000           [357] getupval   36  0      
2719  24C94712           [358] self       36  36  287  ; -965268854
271D  22890001           [359] call       36  2   2  
2721  D2000012           [360] move       3   36     
2725  1D090900           [361] getglobal  36  36       ; Lotus_Game
2729  0E894C12           [362] gettable   36  36  306  ; -552268994
272D  22898000           [363] call       36  1   2  
2731  5D890100           [364] getglobal  37  6        ; string
2735  4E49C212           [365] gettable   37  37  265  ; 2071470131
2739  93090000           [366] getupval   38  0      
273D  C3894202           [367] add        39  4   266  ; 0
2741  0D8AC201           [368] sub        40  3   266  ; 0
2745  62890002           [369] call       37  4   2  
2749  A4C9C712           [370] self       38  37  287  ; -965268854
274D  A2890001           [371] call       38  2   2  
2751  DD090900           [372] getglobal  39  36       ; Lotus_Game
2755  CEC9CC13           [373] gettable   39  39  307  ; "MAX_CustomizationColor"
2759  C4C9099A           [374] mul        39  308 39   ; 0
fail op	35
275D  23C00913           [375] close      0  
2761  1A400780           [376] jmp        30           ; to [407]
2765  99490A00           [377] loadk      38  41       ; 0
2769  DD090900           [378] getglobal  39  36       ; Lotus_Game
276D  CEC9CC13           [379] gettable   39  39  307  ; "MAX_CustomizationColor"
2771  CD89C213           [380] sub        39  39  266  ; 0
2775  198A0200           [381] loadk      40  10       ; 0
2779  90890580           [382] forprep    38  23       ; to [406]
277D  9D8A0100           [383] getglobal  42  6        ; string
2781  8E4A4215           [384] gettable   42  42  265  ; 2071470131
2785  D20A8012           [385] move       43  37     
2789  044B0A9A           [386] mul        44  308 41   ; 0
278D  030B0B85           [387] add        44  266 44   ; 0
2791  438BC214           [388] add        45  41  266  ; 0
2795  444B0B9A           [389] mul        45  308 45   ; 0
2799  A28A0002           [390] call       42  4   2  
fail op	35
279D  63404D15           [391] close      1  
27A1  1A000380           [392] jmp        13           ; to [406]
27A5  E48A4D12           [393] self       43  36  310  ; -1881992366
27A9  520B8014           [394] move       45  41     
27AD  9DCB0D00           [395] getglobal  46  55       ; -1247440829
27B1  DDCB0800           [396] getglobal  47  35       ; -174740002
27B5  120C0015           [397] move       48  42     
27B9  590C0E00           [398] loadk      49  56       ; 0
27BD  E20B8001           [399] call       47  3   0  
27C1  A20B0000           [400] call       46  0   0  
27C5  E24A0000           [401] call       43  0   1  
27C9  E44A4E12           [402] self       43  36  313  ; -1037856321
27CD  520B8014           [403] move       45  41     
27D1  970B8000           [404] loadbool   46  1   0    ; true
27D5  E24A0002           [405] call       43  4   1  
27D9  94C9F97F           [406] forloop    38  -24      ; to [383] if loop
27DD  D30A8006           [407] getupval   43  13     
27E1  0B4B0000           [408] newtable   44  0   1    ; array=0, hash=1
27E5  0C0B099D           [409] settable   44  314 36   ; "mRawPalette"
27E9  CC0A8B11           [410] settable   43  35  44 
27ED  12018001           [411] move       4   3      
27F1  14C8ED7F           [412] forloop    32  -72      ; to [341] if loop
27F5  CA0A8000           [413] len        43  1      
fail op	21
27F9  15C08A94           [414] concat     0   297 43 
27FD  1A000280           [415] jmp        9            ; to [425]
2801  D30A0007           [416] getupval   43  14     
2805  CC0ACF9D           [417] settable   43  315 316  ; "IsLoading" 1
2809  D30A0007           [418] getupval   43  14     
280D  1D8B0F00           [419] getglobal  44  62       ; UISys
2811  0ECB4F16           [420] gettable   44  44  319  ; 1151030240
2815  520B8000           [421] move       45  1      
2819  228B0001           [422] call       44  2   2  
281D  CC0A8B9E           [423] settable   43  317 44   ; "Loader"
2821  1A800080           [424] jmp        3            ; to [428]
2825  D30A8007           [425] getupval   43  15     
2829  C70A8000           [426] tailcall   43  1   0  
282D  DE0A0000           [427] return     43  0      
2831  D70A8000           [428] loadbool   43  1   0    ; true
2835  DE0A0001           [429] return     43  2      
2839  1E008000           [430] return     0   1      
                         * constants:
283D  40                 sizek (64)
283E  00                 const type 0
                         const [0]: nil
283F  01                 const type 3
2840  65770E40           const [1]: (1074689893)
2844  04                 const type 4
2845  0A                 string size (10)
2846  6747616D65446174+  "gGameDat"
284E  6100               "a\0"
                         const [2]: "gGameData"
2850  04                 const type 4
2851  0B                 string size (11)
2852  6747616D6552756C+  "gGameRul"
285A  657300             "es\0"
                         const [3]: "gGameRules"
285D  01                 const type 3
285E  D69370C1           const [4]: (-1049586730)
2862  01                 const type 3
2863  57334846           const [5]: (1179136855)
2867  04                 const type 4
2868  07                 string size (7)
2869  737472696E6700     "string\0"
                         const [6]: "string"
2870  01                 const type 3
2871  64F644DE           const [7]: (-565905820)
2875  04                 const type 4
2876  02                 string size (2)
2877  7C00               "|\0"
                         const [8]: "|"
2879  01                 const type 3
287A  3320787B           const [9]: (2071470131)
287E  03                 const type 3
287F  0000803F           const [10]: (0)
2883  04                 const type 4
2884  0B                 string size (11)
2885  6D53746F72654974+  "mStoreIt"
288D  656D00             "em\0"
                         const [11]: "mStoreItem"
2890  04                 const type 4
2891  0A                 string size (10)
2892  6D4974656D547970+  "mItemTyp"
289A  6500               "e\0"
                         const [12]: "mItemType"
289C  01                 const type 3
289D  70BE7730           const [13]: (813153904)
28A1  04                 const type 4
28A2  0E                 string size (14)
28A3  6D4973486F766572+  "mIsHover"
28AB  626F61726400       "board\0"
                         const [14]: "mIsHoverboard"
28B1  01                 const type 3
28B2  D48E598B           const [15]: (-1957065004)
28B6  04                 const type 4
28B7  0E                 string size (14)
28B8  6D4D6F64756C6172+  "mModular"
28C0  506172747300       "Parts\0"
                         const [16]: "mModularParts"
28C6  04                 const type 4
28C7  06                 string size (6)
28C8  7461626C6500       "table\0"
                         const [17]: "table"
28CE  01                 const type 3
28CF  9D0C45E6           const [18]: (-431682403)
28D3  01                 const type 3
28D4  3C2E251B           const [19]: (455421500)
28D8  04                 const type 4
28D9  03                 string size (3)
28DA  5F5400             "_T\0"
                         const [20]: "_T"
28DD  04                 const type 4
28DE  15                 string size (21)
28DF  5365745371756164+  "SetSquad"
28E7  4F7665726C617954+  "OverlayT"
28EF  69746C6500         "itle\0"
                         const [21]: "SetSquadOverlayTitle"
28F4  04                 const type 4
28F5  07                 string size (7)
28F6  6D4D6F76696500     "mMovie\0"
                         const [22]: "mMovie"
28FD  01                 const type 3
28FE  D40BDB05           const [23]: (98241492)
2902  01                 const type 3
2903  B6746C61           const [24]: (1634497718)
2907  01                 const type 3
2908  D2A3C75E           const [25]: (1590141906)
290C  04                 const type 4
290D  2D                 string size (45)
290E  2F4C6F7475732F4C+  "/Lotus/L"
2916  616E67756167652F+  "anguage/"
291E  4D656E752F417070+  "Menu/App"
2926  656172616E636550+  "earanceP"
292E  7265766965775F54+  "review_T"
2936  69746C6500         "itle\0"
                         const [26]: "/Lotus/Language/Menu/AppearancePreview_Title"
293B  04                 const type 4
293C  07                 string size (7)
293D  53454E44455200     "SENDER\0"
                         const [27]: "SENDER"
2944  04                 const type 4
2945  07                 string size (7)
2946  574541504F4E00     "WEAPON\0"
                         const [28]: "WEAPON"
294D  01                 const type 3
294E  BD00A356           const [29]: (1453523133)
2952  01                 const type 3
2953  962A863D           const [30]: (1032202902)
2957  01                 const type 3
2958  8A2A77C6           const [31]: (-965268854)
295C  03                 const type 3
295D  00000040           const [32]: (0)
2961  01                 const type 3
2962  6B25B193           const [33]: (-1817107093)
2966  04                 const type 4
2967  2E                 string size (46)
2968  417070656172616E+  "Appearan"
2970  6365507265766965+  "cePrevie"
2978  773A20547279696E+  "w: Tryin"
2980  6720746F20646563+  "g to dec"
2988  6F64652062616420+  "ode bad "
2990  6C696E6B2000       "link \0"
                         const [34]: "AppearancePreview: Trying to decode bad link "
2996  01                 const type 3
2997  DEAD95F5           const [35]: (-174740002)
299B  04                 const type 4
299C  0B                 string size (11)
299D  4C6F7475735F4761+  "Lotus_Ga"
29A5  6D6500             "me\0"
                         const [36]: "Lotus_Game"
29A8  04                 const type 4
29A9  0F                 string size (15)
29AA  48454156595F4755+  "HEAVY_GU"
29B2  4E5F534C4F5400     "N_SLOT\0"
                         const [37]: "HEAVY_GUN_SLOT"
29B9  04                 const type 4
29BA  0D                 string size (13)
29BB  4C4F545F41524348+  "LOT_ARCH"
29C3  57494E4700         "WING\0"
                         const [38]: "LOT_ARCHWING"
29C8  04                 const type 4
29C9  0E                 string size (14)
29CA  4C4F4E475F47554E+  "LONG_GUN"
29D2  5F534C4F5400       "_SLOT\0"
                         const [39]: "LONG_GUN_SLOT"
29D8  04                 const type 4
29D9  02                 string size (2)
29DA  3000               "0\0"
                         const [40]: "0"
29DC  03                 const type 3
29DD  00000000           const [41]: (0)
29E1  04                 const type 4
29E2  0D                 string size (13)
29E3  4D41585F536C6F74+  "MAX_Slot"
29EB  4E616D6500         "Name\0"
                         const [42]: "MAX_SlotName"
29F0  04                 const type 4
29F1  0B                 string size (11)
29F2  536967696C436865+  "SigilChe"
29FA  737400             "st\0"
                         const [43]: "SigilChest"
29FD  04                 const type 4
29FE  0A                 string size (10)
29FF  536967696C426163+  "SigilBac"
2A07  6B00               "k\0"
                         const [44]: "SigilBack"
2A09  01                 const type 3
2A0A  A1E7282F           const [45]: (791209889)
2A0E  01                 const type 3
2A0F  0791B063           const [46]: (1672515847)
2A13  04                 const type 4
2A14  0E                 string size (14)
2A15  5072696D61727943+  "PrimaryC"
2A1D  6F6C6F727300       "olors\0"
                         const [47]: "PrimaryColors"
2A23  04                 const type 4
2A24  07                 string size (7)
2A25  46616369616C00     "Facial\0"
                         const [48]: "Facial"
2A2C  04                 const type 4
2A2D  06                 string size (6)
2A2E  536967696C00       "Sigil\0"
                         const [49]: "Sigil"
2A34  01                 const type 3
2A35  3E0B15DF           const [50]: (-552268994)
2A39  04                 const type 4
2A3A  17                 string size (23)
2A3B  4D41585F43757374+  "MAX_Cust"
2A43  6F6D697A6174696F+  "omizatio"
2A4B  6E436F6C6F7200     "nColor\0"
                         const [51]: "MAX_CustomizationColor"
2A52  03                 const type 3
2A53  0000C040           const [52]: (0)
2A57  04                 const type 4
2A58  07                 string size (7)
2A59  6E6E6E6E6E6E00     "nnnnnn\0"
                         const [53]: "nnnnnn"
2A60  01                 const type 3
2A61  5213D38F           const [54]: (-1881992366)
2A65  01                 const type 3
2A66  4390A5B5           const [55]: (-1247440829)
2A6A  03                 const type 3
2A6B  00008041           const [56]: (0)
2A6F  01                 const type 3
2A70  BF9123C2           const [57]: (-1037856321)
2A74  04                 const type 4
2A75  0C                 string size (12)
2A76  6D52617750616C65+  "mRawPale"
2A7E  74746500           "tte\0"
                         const [58]: "mRawPalette"
2A82  04                 const type 4
2A83  0A                 string size (10)
2A84  49734C6F6164696E+  "IsLoadin"
2A8C  6700               "g\0"
                         const [59]: "IsLoading"
2A8E  01                 const type 3
2A8F  01000000           const [60]: (1)
2A93  04                 const type 4
2A94  07                 string size (7)
2A95  4C6F6164657200     "Loader\0"
                         const [61]: "Loader"
2A9C  04                 const type 4
2A9D  06                 string size (6)
2A9E  554953797300       "UISys\0"
                         const [62]: "UISys"
2AA4  01                 const type 3
2AA5  E0539B44           const [63]: (1151030240)
                         * functions:
2AA9  00                 sizep (0)
                         * lines:
2AAB  03                 sizelineinfo (430)
                         [pc] (line)
2AAC  63                 [001] (99)
2AAD  01                 [002] (99)
2AAE  00                 [003] (99)
2AAF  00                 [004] (99)
2AB0  63                 [005] (99)
2AB1  01                 [006] (99)
2AB2  00                 [007] (99)
2AB3  00                 [008] (99)
2AB4  63                 [009] (100)
2AB5  01                 [010] (100)
2AB6  00                 [011] (103)
2AB7  00                 [012] (103)
2AB8  63                 [013] (103)
2AB9  01                 [014] (104)
2ABA  00                 [015] (104)
2ABB  00                 [016] (104)
2ABC  63                 [017] (104)
2ABD  01                 [018] (104)
2ABE  00                 [019] (105)
2ABF  00                 [020] (105)
2AC0  63                 [021] (108)
2AC1  01                 [022] (109)
2AC2  00                 [023] (109)
2AC3  00                 [024] (110)
2AC4  63                 [025] (110)
2AC5  01                 [026] (110)
2AC6  00                 [027] (110)
2AC7  00                 [028] (110)
2AC8  63                 [029] (111)
2AC9  01                 [030] (114)
2ACA  00                 [031] (114)
2ACB  00                 [032] (114)
2ACC  64                 [033] (114)
2ACD  01                 [034] (114)
2ACE  00                 [035] (114)
2ACF  00                 [036] (115)
2AD0  64                 [037] (115)
2AD1  01                 [038] (115)
2AD2  00                 [039] (115)
2AD3  00                 [040] (115)
2AD4  67                 [041] (115)
2AD5  01                 [042] (116)
2AD6  00                 [043] (116)
2AD7  00                 [044] (116)
2AD8  67                 [045] (116)
2AD9  01                 [046] (116)
2ADA  00                 [047] (116)
2ADB  00                 [048] (116)
2ADC  67                 [049] (116)
2ADD  01                 [050] (116)
2ADE  00                 [051] (116)
2ADF  00                 [052] (118)
2AE0  68                 [053] (118)
2AE1  01                 [054] (118)
2AE2  00                 [055] (118)
2AE3  00                 [056] (118)
2AE4  68                 [057] (118)
2AE5  01                 [058] (119)
2AE6  00                 [059] (119)
2AE7  00                 [060] (122)
2AE8  68                 [061] (122)
2AE9  01                 [062] (122)
2AEA  00                 [063] (122)
2AEB  00                 [064] (122)
2AEC  68                 [065] (122)
2AED  01                 [066] (122)
2AEE  00                 [067] (123)
2AEF  00                 [068] (123)
2AF0  68                 [069] (123)
2AF1  01                 [070] (125)
2AF2  00                 [071] (125)
2AF3  00                 [072] (125)
2AF4  69                 [073] (125)
2AF5  01                 [074] (125)
2AF6  00                 [075] (125)
2AF7  00                 [076] (125)
2AF8  69                 [077] (125)
2AF9  01                 [078] (127)
2AFA  00                 [079] (127)
2AFB  00                 [080] (127)
2AFC  6C                 [081] (127)
2AFD  01                 [082] (127)
2AFE  00                 [083] (127)
2AFF  00                 [084] (127)
2B00  6D                 [085] (127)
2B01  01                 [086] (127)
2B02  00                 [087] (127)
2B03  00                 [088] (127)
2B04  6D                 [089] (127)
2B05  01                 [090] (-128)
2B06  00                 [091] (-128)
2B07  00                 [092] (-128)
2B08  6E                 [093] (-128)
2B09  01                 [094] (-128)
2B0A  00                 [095] (-128)
2B0B  00                 [096] (-128)
2B0C  6E                 [097] (-128)
2B0D  01                 [098] (-128)
2B0E  00                 [099] (-128)
2B0F  00                 [100] (-127)
2B10  6E                 [101] (-127)
2B11  01                 [102] (-127)
2B12  00                 [103] (-127)
2B13  00                 [104] (-127)
2B14  6E                 [105] (-127)
2B15  01                 [106] (-127)
2B16  00                 [107] (-127)
2B17  00                 [108] (-127)
2B18  6E                 [109] (-126)
2B19  01                 [110] (-126)
2B1A  00                 [111] (-126)
2B1B  00                 [112] (-126)
2B1C  6F                 [113] (-124)
2B1D  01                 [114] (-124)
2B1E  00                 [115] (-121)
2B1F  00                 [116] (-121)
2B20  72                 [117] (-121)
2B21  01                 [118] (-121)
2B22  00                 [119] (-121)
2B23  00                 [120] (-121)
2B24  72                 [121] (-121)
2B25  01                 [122] (-119)
2B26  00                 [123] (-119)
2B27  00                 [124] (-119)
2B28  72                 [125] (-119)
2B29  01                 [126] (-119)
2B2A  00                 [127] (-118)
2B2B  00                 [128] (-118)
2B2C  72                 [129] (-116)
2B2D  01                 [130] (-116)
2B2E  00                 [131] (-116)
2B2F  00                 [132] (-116)
2B30  72                 [133] (-115)
2B31  01                 [134] (-115)
2B32  00                 [135] (-115)
2B33  00                 [136] (-115)
2B34  72                 [137] (-115)
2B35  01                 [138] (-115)
2B36  00                 [139] (-114)
2B37  00                 [140] (-114)
2B38  73                 [141] (-114)
2B39  01                 [142] (-114)
2B3A  00                 [143] (-113)
2B3B  00                 [144] (-113)
2B3C  73                 [145] (-113)
2B3D  01                 [146] (-113)
2B3E  00                 [147] (-113)
2B3F  00                 [148] (-112)
2B40  73                 [149] (-112)
2B41  01                 [150] (-111)
2B42  00                 [151] (-111)
2B43  00                 [152] (-111)
2B44  73                 [153] (-111)
2B45  01                 [154] (-111)
2B46  00                 [155] (-111)
2B47  00                 [156] (-110)
2B48  73                 [157] (-110)
2B49  01                 [158] (-110)
2B4A  00                 [159] (-110)
2B4B  00                 [160] (-110)
2B4C  73                 [161] (-110)
2B4D  01                 [162] (-107)
2B4E  00                 [163] (-106)
2B4F  00                 [164] (-106)
2B50  74                 [165] (-106)
2B51  01                 [166] (-106)
2B52  00                 [167] (-106)
2B53  00                 [168] (-106)
2B54  74                 [169] (-106)
2B55  01                 [170] (-116)
2B56  00                 [171] (-101)
2B57  00                 [172] (-101)
2B58  74                 [173] (-101)
2B59  01                 [174] (-101)
2B5A  00                 [175] (-101)
2B5B  00                 [176] (-101)
2B5C  74                 [177] (-100)
2B5D  01                 [178] (-100)
2B5E  00                 [179] (-100)
2B5F  00                 [180] (-100)
2B60  74                 [181] (-99)
2B61  01                 [182] (-99)
2B62  00                 [183] (-99)
2B63  00                 [184] (-99)
2B64  74                 [185] (-99)
2B65  01                 [186] (-98)
2B66  00                 [187] (-98)
2B67  00                 [188] (-95)
2B68  74                 [189] (-95)
2B69  01                 [190] (-95)
2B6A  00                 [191] (-95)
2B6B  00                 [192] (-95)
2B6C  74                 [193] (-95)
2B6D  01                 [194] (-95)
2B6E  00                 [195] (-95)
2B6F  00                 [196] (-95)
2B70  74                 [197] (-94)
2B71  01                 [198] (-94)
2B72  00                 [199] (-94)
2B73  00                 [200] (-94)
2B74  74                 [201] (-94)
2B75  01                 [202] (-94)
2B76  00                 [203] (-94)
2B77  00                 [204] (-94)
2B78  76                 [205] (-94)
2B79  01                 [206] (-92)
2B7A  00                 [207] (-92)
2B7B  00                 [208] (-92)
2B7C  76                 [209] (-92)
2B7D  01                 [210] (-92)
2B7E  00                 [211] (-91)
2B7F  00                 [212] (-91)
2B80  76                 [213] (-91)
2B81  01                 [214] (-90)
2B82  00                 [215] (-90)
2B83  00                 [216] (-90)
2B84  76                 [217] (-87)
2B85  01                 [218] (-84)
2B86  00                 [219] (-84)
2B87  00                 [220] (-84)
2B88  76                 [221] (-84)
2B89  01                 [222] (-84)
2B8A  00                 [223] (-84)
2B8B  00                 [224] (-84)
2B8C  76                 [225] (-82)
2B8D  01                 [226] (-82)
2B8E  00                 [227] (-82)
2B8F  00                 [228] (-82)
2B90  77                 [229] (-82)
2B91  01                 [230] (-82)
2B92  00                 [231] (-81)
2B93  00                 [232] (-81)
2B94  77                 [233] (-81)
2B95  01                 [234] (-81)
2B96  00                 [235] (-80)
2B97  00                 [236] (-80)
2B98  7A                 [237] (-80)
2B99  01                 [238] (-80)
2B9A  00                 [239] (-80)
2B9B  00                 [240] (-79)
2B9C  7A                 [241] (-79)
2B9D  01                 [242] (-76)
2B9E  00                 [243] (-76)
2B9F  00                 [244] (-76)
2BA0  7A                 [245] (-76)
2BA1  01                 [246] (-76)
2BA2  00                 [247] (-74)
2BA3  00                 [248] (-71)
2BA4  7A                 [249] (-71)
2BA5  01                 [250] (-71)
2BA6  00                 [251] (-71)
2BA7  00                 [252] (-71)
2BA8  7A                 [253] (-71)
2BA9  01                 [254] (-70)
2BAA  00                 [255] (-67)
2BAB  00                 [256] (-67)
2BAC  7A                 [257] (-67)
2BAD  01                 [258] (-67)
2BAE  00                 [259] (-67)
2BAF  00                 [260] (-67)
2BB0  7A                 [261] (-67)
2BB1  01                 [262] (-67)
2BB2  00                 [263] (-67)
2BB3  00                 [264] (-67)
2BB4  7B                 [265] (-67)
2BB5  01                 [266] (-67)
2BB6  00                 [267] (-66)
2BB7  00                 [268] (-66)
2BB8  7B                 [269] (-66)
2BB9  01                 [270] (-66)
2BBA  00                 [271] (-66)
2BBB  00                 [272] (-66)
2BBC  7B                 [273] (-66)
2BBD  01                 [274] (-64)
2BBE  00                 [275] (-64)
2BBF  00                 [276] (-64)
2BC0  7D                 [277] (-64)
2BC1  01                 [278] (-64)
2BC2  00                 [279] (-64)
2BC3  00                 [280] (-63)
2BC4  7D                 [281] (-63)
2BC5  01                 [282] (-63)
2BC6  00                 [283] (-63)
2BC7  00                 [284] (-63)
2BC8  7D                 [285] (-62)
2BC9  01                 [286] (-62)
2BCA  00                 [287] (-62)
2BCB  00                 [288] (-62)
2BCC  7D                 [289] (-62)
2BCD  01                 [290] (-60)
2BCE  00                 [291] (-57)
2BCF  00                 [292] (-57)
2BD0  7D                 [293] (-57)
2BD1  01                 [294] (-57)
2BD2  00                 [295] (-57)
2BD3  00                 [296] (-56)
2BD4  7D                 [297] (-56)
2BD5  01                 [298] (-56)
2BD6  00                 [299] (-56)
2BD7  00                 [300] (-56)
2BD8  7D                 [301] (-56)
2BD9  01                 [302] (-53)
2BDA  00                 [303] (-53)
2BDB  00                 [304] (-53)
2BDC  7D                 [305] (-53)
2BDD  01                 [306] (-53)
2BDE  00                 [307] (-71)
2BDF  00                 [308] (-49)
2BE0  7F                 [309] (-49)
2BE1  01                 [310] (-49)
2BE2  00                 [311] (-49)
2BE3  00                 [312] (-49)
2BE4  7F                 [313] (-49)
2BE5  01                 [314] (-49)
2BE6  00                 [315] (-47)
2BE7  00                 [316] (-47)
2BE8  7F                 [317] (-47)
2BE9  01                 [318] (-47)
2BEA  00                 [319] (-46)
2BEB  00                 [320] (-46)
2BEC  7F                 [321] (-46)
2BED  01                 [322] (-45)
2BEE  00                 [323] (-45)
2BEF  00                 [324] (-45)
2BF0  7F                 [325] (-45)
2BF1  01                 [326] (-45)
2BF2  00                 [327] (-44)
2BF3  00                 [328] (-44)
2BF4  7F                 [329] (-44)
2BF5  01                 [330] (-44)
2BF6  00                 [331] (-44)
2BF7  00                 [332] (-44)
2BF8  7F                 [333] (-47)
2BF9  01                 [334] (-43)
2BFA  00                 [335] (-40)
2BFB  00                 [336] (-40)
2BFC  7F                 [337] (-40)
2BFD  01                 [338] (-40)
2BFE  00                 [339] (-40)
2BFF  00                 [340] (-40)
2C00  7F                 [341] (-39)
2C01  01                 [342] (-39)
2C02  00                 [343] (-39)
2C03  00                 [344] (-39)
2C04  7F                 [345] (-39)
2C05  01                 [346] (-39)
2C06  00                 [347] (-39)
2C07  00                 [348] (-39)
2C08  7F                 [349] (-38)
2C09  01                 [350] (-38)
2C0A  00                 [351] (-38)
2C0B  00                 [352] (-38)
2C0C  7F                 [353] (-38)
2C0D  01                 [354] (-38)
2C0E  00                 [355] (-38)
2C0F  00                 [356] (-38)
2C10  80                 [357] (-38)
2C11  01                 [358] (-38)
2C12  00                 [359] (-38)
2C13  00                 [360] (-38)
2C14  80                 [361] (-36)
2C15  01                 [362] (-36)
2C16  00                 [363] (-36)
2C17  00                 [364] (-34)
2C18  80                 [365] (-34)
2C19  01                 [366] (-34)
2C1A  00                 [367] (-34)
2C1B  00                 [368] (-34)
2C1C  80                 [369] (-34)
2C1D  01                 [370] (-33)
2C1E  00                 [371] (-33)
2C1F  00                 [372] (-33)
2C20  80                 [373] (-33)
2C21  01                 [374] (-33)
2C22  00                 [375] (-33)
2C23  00                 [376] (-33)
2C24  80                 [377] (-32)
2C25  01                 [378] (-32)
2C26  00                 [379] (-32)
2C27  00                 [380] (-32)
2C28  80                 [381] (-32)
2C29  01                 [382] (-32)
2C2A  00                 [383] (-31)
2C2B  00                 [384] (-31)
2C2C  80                 [385] (-31)
2C2D  01                 [386] (-31)
2C2E  00                 [387] (-31)
2C2F  00                 [388] (-31)
2C30  80                 [389] (-31)
2C31  01                 [390] (-31)
2C32  00                 [391] (-29)
2C33  00                 [392] (-29)
2C34  80                 [393] (-28)
2C35  01                 [394] (-28)
2C36  00                 [395] (-28)
2C37  00                 [396] (-28)
2C38  81                 [397] (-28)
2C39  01                 [398] (-28)
2C3A  00                 [399] (-28)
2C3B  00                 [400] (-28)
2C3C  81                 [401] (-28)
2C3D  01                 [402] (-27)
2C3E  00                 [403] (-27)
2C3F  00                 [404] (-27)
2C40  81                 [405] (-27)
2C41  01                 [406] (-32)
2C42  00                 [407] (-22)
2C43  00                 [408] (-22)
2C44  81                 [409] (-22)
2C45  01                 [410] (-22)
2C46  00                 [411] (-21)
2C47  00                 [412] (-40)
2C48  81                 [413] (-17)
2C49  01                 [414] (-17)
2C4A  00                 [415] (-17)
2C4B  00                 [416] (-16)
2C4C  81                 [417] (-16)
2C4D  01                 [418] (-15)
2C4E  00                 [419] (-15)
2C4F  00                 [420] (-15)
2C50  81                 [421] (-15)
2C51  01                 [422] (-15)
2C52  00                 [423] (-15)
2C53  00                 [424] (-15)
2C54  81                 [425] (-13)
2C55  01                 [426] (-13)
2C56  00                 [427] (-13)
2C57  00                 [428] (-10)
2C58  81                 [429] (-10)
2C59  01                 [430] (-9)
                         * locals:
3164  00                 sizelocvars (0)
                         * upvalues:
3165  00                 sizeupvalues (0)
                         ** end of function **

                         
3166                     ** function [9] definition (level 2)
                         ** start of function **
3166  00                 string size (0)
                         source name: (none)
3168  03                 line defined (505)
3169  A6                 last line defined (550)
316A  04                 nups (6)
316B  06                 numparams (3)
316C  03                 is_vararg (0)
316D  00                 maxstacksize (29)
                         * code:
3170  01                 sizecode (137)
3171  D3000000           [001] getupval   3   0      
3175  0CC00080           [002] settable   0   256 3    ; "mAllowUglyMode"
3179  D9400000           [003] loadk      3   1        ; 0
317D  1D810000           [004] getglobal  4   2        ; Lotus_Game
3181  0EC14002           [005] gettable   4   4   259  ; "MAX_SlotName"
3185  0D014102           [006] sub        4   4   260  ; 0
3189  59010100           [007] loadk      5   4        ; 0
318D  D0401080           [008] forprep    3   66       ; to [75]
3191  DD410100           [009] getglobal  7   5        ; 1074689893
3195  13028000           [010] getupval   8   1      
3199  0E820104           [011] gettable   8   8   6  
319D  0E824104           [012] gettable   8   8   262  ; "mItemType"
31A1  E2810001           [013] call       7   2   2  
31A5  D8410000           [014] test       7       1    ; to [16] if false
31A9  1A800E80           [015] jmp        59           ; to [75]
31AD  D7018000           [016] loadbool   7   1   0    ; true
31B1  98400000           [017] test       2       1    ; to [19] if false
31B5  1A400B80           [018] jmp        46           ; to [65]
31B9  13028000           [019] getupval   8   1      
31BD  0E820104           [020] gettable   8   8   6  
31C1  0EC24104           [021] gettable   8   8   263  ; "mStoreItem"
31C5  64024204           [022] self       9   8   264  ; -228838394
31C9  62820001           [023] call       9   2   2  
31CD  9D420100           [024] getglobal  10  5        ; 1074689893
31D1  D2028004           [025] move       11  9      
31D5  A2820001           [026] call       10  2   2  
31D9  98420000           [027] test       10      1    ; to [29] if false
31DD  1A000180           [028] jmp        5            ; to [34]
31E1  93020001           [029] getupval   10  2      
31E5  8E824105           [030] gettable   10  10  262  ; "mItemType"
31E9  A4424205           [031] self       10  10  265  ; -1957065004
31ED  12038004           [032] move       12  9      
31F1  A2828001           [033] call       10  3   2  
31F5  D3028000           [034] getupval   11  1      
31F9  CE828105           [035] gettable   11  11  6  
31FD  CE82C205           [036] gettable   11  11  266  ; "mOwned"
3201  D8420000           [037] test       11      1    ; to [39] if false
3205  1A000180           [038] jmp        5            ; to [44]
3209  E4C24204           [039] self       11  8   267  ; -1897280249
320D  E2820001           [040] call       11  2   2  
3211  D8020000           [041] test       11      0    ; to [43] if true
3215  1A000080           [042] jmp        1            ; to [44]
3219  D2020005           [043] move       11  10     
321D  98420000           [044] test       10      1    ; to [46] if false
3221  1AC00380           [045] jmp        16           ; to [62]
3225  24034304           [046] self       12  8   268  ; 1280772681
3229  22830001           [047] call       12  2   2  
322D  5D430100           [048] getglobal  13  5        ; 1074689893
3231  92030006           [049] move       14  12     
3235  62830001           [050] call       13  2   2  
3239  58430000           [051] test       13      1    ; to [53] if false
323D  1A800180           [052] jmp        7            ; to [60]
3241  53030001           [053] getupval   13  2      
3245  4E83C106           [054] gettable   13  13  262  ; "mItemType"
3249  6443C206           [055] self       13  13  265  ; -1957065004
324D  D2030006           [056] move       15  12     
3251  62838001           [057] call       13  3   2  
3255  92028006           [058] move       10  13     
3259  1A400080           [059] jmp        2            ; to [62]
325D  97420000           [060] loadbool   10  0   1    ; false, to [62]
3261  97028000           [061] loadbool   10  1   0    ; true
fail op	5
3265  C5010005           [062] getglobal  7   5120     ; nil
3269  1A000080           [063] jmp        1            ; to [65]
326D  D2018005           [064] move       7   11     
3271  D8010000           [065] test       7       0    ; to [67] if true
3275  1AC00180           [066] jmp        8            ; to [75]
3279  64434300           [067] self       13  0   269  ; 67885531
327D  DD830300           [068] getglobal  15  14       ; 2083004503
3281  13048000           [069] getupval   16  1      
3285  0E840108           [070] gettable   16  16  6  
3289  0E844108           [071] gettable   16  16  262  ; "mItemType"
328D  E2830001           [072] call       15  2   2  
3291  12040003           [073] move       16  6      
3295  62430002           [074] call       13  4   1  
3299  D400EF7F           [075] forloop    3   -67      ; to [9] if loop
329D  5D830000           [076] getglobal  13  2        ; Lotus_Game
32A1  4EC3C306           [077] gettable   13  13  271  ; "PrimaryColors"
32A5  9D830000           [078] getglobal  14  2        ; Lotus_Game
32A9  8E034407           [079] gettable   14  14  272  ; "Facial"
32AD  D9030100           [080] loadk      15  4        ; 0
32B1  50430D80           [081] forprep    13  54       ; to [136]
32B5  5D840000           [082] getglobal  17  2        ; Lotus_Game
32B9  4E44C408           [083] gettable   17  17  273  ; "Sigil"
fail op	35
32BD  23400408           [084] close      0  
32C1  1AC00080           [085] jmp        4            ; to [90]
32C5  53048001           [086] getupval   17  3      
32C9  4E84C408           [087] gettable   17  17  274  ; "mIsHoverboard"
32CD  58040000           [088] test       17      0    ; to [90] if true
32D1  1A400B80           [089] jmp        46           ; to [136]
32D5  53040002           [090] getupval   17  4      
32D9  4EC4C408           [091] gettable   17  17  275  ; -132701534
32DD  92040001           [092] move       18  2      
32E1  D3048002           [093] getupval   19  5      
32E5  CE048409           [094] gettable   19  19  16 
32E9  CE04C509           [095] gettable   19  19  276  ; "mRawPalette"
32ED  13058002           [096] getupval   20  5      
32F1  0E05040A           [097] gettable   20  20  16 
32F5  0E45450A           [098] gettable   20  20  277  ; "mPalette"
32F9  62840002           [099] call       17  4   2  
32FD  A4844500           [100] self       18  0   278  ; -479391803
3301  12050008           [101] move       20  16     
3305  A2848001           [102] call       18  3   2  
3309  D9440000           [103] loadk      19  1        ; 0
330D  1D850000           [104] getglobal  20  2        ; Lotus_Game
3311  0EC5450A           [105] gettable   20  20  279  ; "MAX_CustomizationColor"
3315  0D05410A           [106] sub        20  20  260  ; 0
3319  59050100           [107] loadk      21  4        ; 0
331D  D0440580           [108] forprep    19  22       ; to [131]
3321  E405C608           [109] self       23  17  280  ; 979293742
3325  5206000B           [110] move       25  22     
3329  E2858001           [111] call       23  3   2  
332D  D8050000           [112] test       23      0    ; to [114] if true
3331  1A800280           [113] jmp        11           ; to [125]
3335  E4454609           [114] self       23  18  281  ; -1881992366
3339  5206000B           [115] move       25  22     
333D  A486C608           [116] self       26  17  282  ; -576482948
3341  1207000B           [117] move       28  22     
3345  A2068001           [118] call       26  3   0  
3349  E2450000           [119] call       23  0   1  
334D  E4C54609           [120] self       23  18  283  ; -1037856321
3351  5206000B           [121] move       25  22     
3355  97068000           [122] loadbool   26  1   0    ; true
3359  E2450002           [123] call       23  4   1  
335D  1A400180           [124] jmp        6            ; to [131]
3361  58000000           [125] test       1       0    ; to [127] if true
3365  1AC00080           [126] jmp        4            ; to [131]
3369  E4C54609           [127] self       23  18  283  ; -1037856321
336D  5206000B           [128] move       25  22     
3371  97060000           [129] loadbool   26  0   0    ; false
3375  E2450002           [130] call       23  4   1  
3379  D404FA7F           [131] forloop    19  -23      ; to [109] if loop
337D  E4054700           [132] self       23  0   284  ; -1708889336
3381  52060008           [133] move       25  16     
3385  92060009           [134] move       26  18     
3389  E2450002           [135] call       23  4   1  
338D  5403F27F           [136] forloop    13  -55      ; to [82] if loop
3391  1E008000           [137] return     0   1      
                         * constants:
3395  1D                 sizek (29)
3396  04                 const type 4
3397  0F                 string size (15)
3398  6D416C6C6F775567+  "mAllowUg"
33A0  6C794D6F646500     "lyMode\0"
                         const [0]: "mAllowUglyMode"
33A7  03                 const type 3
33A8  00000000           const [1]: (0)
33AC  04                 const type 4
33AD  0B                 string size (11)
33AE  4C6F7475735F4761+  "Lotus_Ga"
33B6  6D6500             "me\0"
                         const [2]: "Lotus_Game"
33B9  04                 const type 4
33BA  0D                 string size (13)
33BB  4D41585F536C6F74+  "MAX_Slot"
33C3  4E616D6500         "Name\0"
                         const [3]: "MAX_SlotName"
33C8  03                 const type 3
33C9  0000803F           const [4]: (0)
33CD  01                 const type 3
33CE  65770E40           const [5]: (1074689893)
33D2  04                 const type 4
33D3  0A                 string size (10)
33D4  6D4974656D547970+  "mItemTyp"
33DC  6500               "e\0"
                         const [6]: "mItemType"
33DE  04                 const type 4
33DF  0B                 string size (11)
33E0  6D53746F72654974+  "mStoreIt"
33E8  656D00             "em\0"
                         const [7]: "mStoreItem"
33EB  01                 const type 3
33EC  06345CF2           const [8]: (-228838394)
33F0  01                 const type 3
33F1  D48E598B           const [9]: (-1957065004)
33F5  04                 const type 4
33F6  07                 string size (7)
33F7  6D4F776E656400     "mOwned\0"
                         const [10]: "mOwned"
33FE  01                 const type 3
33FF  07CDE98E           const [11]: (-1897280249)
3403  01                 const type 3
3404  490A574C           const [12]: (1280772681)
3408  01                 const type 3
3409  DBD90B04           const [13]: (67885531)
340D  01                 const type 3
340E  5720287C           const [14]: (2083004503)
3412  04                 const type 4
3413  0E                 string size (14)
3414  5072696D61727943+  "PrimaryC"
341C  6F6C6F727300       "olors\0"
                         const [15]: "PrimaryColors"
3422  04                 const type 4
3423  07                 string size (7)
3424  46616369616C00     "Facial\0"
                         const [16]: "Facial"
342B  04                 const type 4
342C  06                 string size (6)
342D  536967696C00       "Sigil\0"
                         const [17]: "Sigil"
3433  04                 const type 4
3434  0E                 string size (14)
3435  6D4973486F766572+  "mIsHover"
343D  626F61726400       "board\0"
                         const [18]: "mIsHoverboard"
3443  01                 const type 3
3444  A22217F8           const [19]: (-132701534)
3448  04                 const type 4
3449  0C                 string size (12)
344A  6D52617750616C65+  "mRawPale"
3452  74746500           "tte\0"
                         const [20]: "mRawPalette"
3456  04                 const type 4
3457  09                 string size (9)
3458  6D50616C65747465+  "mPalette"
3460  00                 "\0"
                         const [21]: "mPalette"
3461  01                 const type 3
3462  C50F6DE3           const [22]: (-479391803)
3466  04                 const type 4
3467  17                 string size (23)
3468  4D41585F43757374+  "MAX_Cust"
3470  6F6D697A6174696F+  "omizatio"
3478  6E436F6C6F7200     "nColor\0"
                         const [23]: "MAX_CustomizationColor"
347F  01                 const type 3
3480  2ED65E3A           const [24]: (979293742)
3484  01                 const type 3
3485  5213D38F           const [25]: (-1881992366)
3489  01                 const type 3
348A  7C91A3DD           const [26]: (-576482948)
348E  01                 const type 3
348F  BF9123C2           const [27]: (-1037856321)
3493  01                 const type 3
3494  086B249A           const [28]: (-1708889336)
                         * functions:
3498  00                 sizep (0)
                         * lines:
349A  01                 sizelineinfo (137)
                         [pc] (line)
349B  FA                 [001] (-6)
349C  01                 [002] (-6)
349D  00                 [003] (-4)
349E  00                 [004] (-4)
349F  FA                 [005] (-4)
34A0  01                 [006] (-4)
34A1  00                 [007] (-4)
34A2  00                 [008] (-4)
34A3  FC                 [009] (-3)
34A4  01                 [010] (-3)
34A5  00                 [011] (-3)
34A6  00                 [012] (-3)
34A7  FC                 [013] (-3)
34A8  01                 [014] (-3)
34A9  00                 [015] (-3)
34AA  00                 [016] (-2)
34AB  FC                 [017] (0)
34AC  01                 [018] (0)
34AD  00                 [019] (1)
34AE  00                 [020] (1)
34AF  FC                 [021] (1)
34B0  01                 [022] (2)
34B1  00                 [023] (2)
34B2  00                 [024] (4)
34B3  FC                 [025] (4)
34B4  01                 [026] (4)
34B5  00                 [027] (4)
34B6  00                 [028] (4)
34B7  FC                 [029] (4)
34B8  01                 [030] (4)
34B9  00                 [031] (4)
34BA  00                 [032] (4)
34BB  FD                 [033] (4)
34BC  01                 [034] (5)
34BD  00                 [035] (5)
34BE  00                 [036] (5)
34BF  FD                 [037] (5)
34C0  01                 [038] (5)
34C1  00                 [039] (5)
34C2  00                 [040] (5)
34C3  FD                 [041] (5)
34C4  01                 [042] (5)
34C5  00                 [043] (5)
34C6  00                 [044] (7)
34C7  FD                 [045] (7)
34C8  01                 [046] (8)
34C9  00                 [047] (8)
34CA  00                 [048] (9)
34CB  FD                 [049] (9)
34CC  01                 [050] (9)
34CD  00                 [051] (9)
34CE  00                 [052] (9)
34CF  FD                 [053] (9)
34D0  01                 [054] (9)
34D1  00                 [055] (9)
34D2  00                 [056] (9)
34D3  FD                 [057] (9)
34D4  01                 [058] (9)
34D5  00                 [059] (9)
34D6  00                 [060] (9)
34D7  FE                 [061] (9)
34D8  01                 [062] (12)
34D9  00                 [063] (12)
34DA  00                 [064] (12)
34DB  00                 [065] (15)
34DC  02                 [066] (15)
34DD  00                 [067] (16)
34DE  00                 [068] (16)
34DF  00                 [069] (16)
34E0  02                 [070] (16)
34E1  00                 [071] (16)
34E2  00                 [072] (16)
34E3  01                 [073] (16)
34E4  02                 [074] (16)
34E5  00                 [075] (-4)
34E6  00                 [076] (21)
34E7  01                 [077] (21)
34E8  02                 [078] (21)
34E9  00                 [079] (21)
34EA  00                 [080] (21)
34EB  01                 [081] (21)
34EC  02                 [082] (22)
34ED  00                 [083] (22)
34EE  00                 [084] (22)
34EF  02                 [085] (22)
34F0  02                 [086] (22)
34F1  00                 [087] (22)
34F2  00                 [088] (22)
34F3  02                 [089] (22)
34F4  02                 [090] (23)
34F5  00                 [091] (23)
34F6  00                 [092] (23)
34F7  04                 [093] (23)
34F8  02                 [094] (23)
34F9  00                 [095] (23)
34FA  00                 [096] (23)
34FB  04                 [097] (23)
34FC  02                 [098] (23)
34FD  00                 [099] (23)
34FE  00                 [100] (24)
34FF  04                 [101] (24)
3500  02                 [102] (24)
3501  00                 [103] (26)
3502  00                 [104] (26)
3503  04                 [105] (26)
3504  02                 [106] (26)
3505  00                 [107] (26)
3506  00                 [108] (26)
3507  04                 [109] (27)
3508  02                 [110] (27)
3509  00                 [111] (27)
350A  00                 [112] (27)
350B  04                 [113] (27)
350C  02                 [114] (28)
350D  00                 [115] (28)
350E  00                 [116] (28)
350F  04                 [117] (28)
3510  02                 [118] (28)
3511  00                 [119] (28)
3512  00                 [120] (29)
3513  04                 [121] (29)
3514  02                 [122] (29)
3515  00                 [123] (29)
3516  00                 [124] (29)
3517  04                 [125] (30)
3518  02                 [126] (30)
3519  00                 [127] (31)
351A  00                 [128] (31)
351B  04                 [129] (31)
351C  02                 [130] (31)
351D  00                 [131] (26)
351E  00                 [132] (35)
351F  05                 [133] (35)
3520  02                 [134] (35)
3521  00                 [135] (35)
3522  00                 [136] (21)
3523  05                 [137] (38)
                         * locals:
36BF  00                 sizelocvars (0)
                         * upvalues:
36C0  00                 sizeupvalues (0)
                         ** end of function **

                         
36C1                     ** function [10] definition (level 2)
                         ** start of function **
36C1  00                 string size (0)
                         source name: (none)
36C3  04                 line defined (552)
36C4  B5                 last line defined (565)
36C5  04                 nups (3)
36C6  03                 numparams (2)
36C7  02                 is_vararg (0)
36C8  00                 maxstacksize (7)
                         * code:
36CA  24                 sizecode (36)
36CB  9D000000           [01] getglobal  2   0        ; 1074689893
36CF  D2000000           [02] move       3   0      
36D3  A2800001           [03] call       2   2   2  
36D7  98000000           [04] test       2       0    ; to [6] if true
36DB  1A000080           [05] jmp        1            ; to [7]
36DF  1E008000           [06] return     0   1      
36E3  9D400000           [07] getglobal  2   1        ; Lotus_Game
36E7  8E804001           [08] gettable   2   2   258  ; -1513010955
36EB  A2808000           [09] call       2   1   2  
36EF  D3000000           [10] getupval   3   0      
36F3  12010001           [11] move       4   2      
36F7  57010000           [12] loadbool   5   0   0    ; false
36FB  97018000           [13] loadbool   6   1   0    ; true
36FF  E2400002           [14] call       3   4   1  
3703  E4C04000           [15] self       3   0   259  ; -1038992139
3707  52010001           [16] move       5   2      
370B  E2408001           [17] call       3   3   1  
370F  E4004100           [18] self       3   0   260  ; -1957065004
3713  53018000           [19] getupval   5   1      
3717  E2808001           [20] call       3   3   2  
371B  D8400000           [21] test       3       1    ; to [23] if false
371F  1A000180           [22] jmp        5            ; to [28]
3723  E4004100           [23] self       3   0   260  ; -1957065004
3727  53010001           [24] getupval   5   2      
372B  E2808001           [25] call       3   3   2  
372F  D8000000           [26] test       3       0    ; to [28] if true
3733  1AC00180           [27] jmp        8            ; to [36]
3737  DD000000           [28] getglobal  3   0        ; 1074689893
373B  12018000           [29] move       4   1      
373F  E2800001           [30] call       3   2   2  
3743  D8400000           [31] test       3       1    ; to [33] if false
3747  1A800080           [32] jmp        3            ; to [36]
374B  E4404101           [33] self       3   2   261  ; -1216321311
374F  52018000           [34] move       5   1      
3753  E2408001           [35] call       3   3   1  
3757  1E008000           [36] return     0   1      
                         * constants:
375B  06                 sizek (6)
375C  01                 const type 3
375D  65770E40           const [0]: (1074689893)
3761  04                 const type 4
3762  0B                 string size (11)
3763  4C6F7475735F4761+  "Lotus_Ga"
376B  6D6500             "me\0"
                         const [1]: "Lotus_Game"
376E  01                 const type 3
376F  F548D1A5           const [2]: (-1513010955)
3773  01                 const type 3
3774  F53C12C2           const [3]: (-1038992139)
3778  01                 const type 3
3779  D48E598B           const [4]: (-1957065004)
377D  01                 const type 3
377E  E16880B7           const [5]: (-1216321311)
                         * functions:
3782  00                 sizep (0)
                         * lines:
3783  24                 sizelineinfo (36)
                         [pc] (line)
3784  29                 [01] (41)
3785  02                 [02] (41)
3786  00                 [03] (41)
3787  00                 [04] (41)
3788  29                 [05] (41)
3789  02                 [06] (42)
378A  00                 [07] (46)
378B  00                 [08] (46)
378C  29                 [09] (46)
378D  02                 [10] (47)
378E  00                 [11] (47)
378F  00                 [12] (47)
3790  29                 [13] (47)
3791  02                 [14] (47)
3792  00                 [15] (48)
3793  00                 [16] (48)
3794  29                 [17] (48)
3795  02                 [18] (50)
3796  00                 [19] (50)
3797  00                 [20] (50)
3798  2A                 [21] (50)
3799  02                 [22] (50)
379A  00                 [23] (50)
379B  00                 [24] (50)
379C  2E                 [25] (50)
379D  02                 [26] (50)
379E  00                 [27] (50)
379F  00                 [28] (50)
37A0  2E                 [29] (50)
37A1  02                 [30] (50)
37A2  00                 [31] (50)
37A3  00                 [32] (50)
37A4  2E                 [33] (51)
37A5  02                 [34] (51)
37A6  00                 [35] (51)
37A7  00                 [36] (53)
                         * locals:
3814  00                 sizelocvars (0)
                         * upvalues:
3815  00                 sizeupvalues (0)
                         ** end of function **

                         
3816                     ** function [11] definition (level 2)
                         ** start of function **
3816  00                 string size (0)
                         source name: (none)
3818  04                 line defined (567)
3819  C3                 last line defined (579)
381A  04                 nups (1)
381B  01                 numparams (0)
381C  00                 is_vararg (0)
381D  00                 maxstacksize (9)
                         * code:
381F  2D                 sizecode (45)
3820  0B000000           [01] newtable   0   0   0    ; array=0, hash=0
3824  5D000000           [02] getglobal  1   0        ; table
3828  4E40C000           [03] gettable   1   1   257  ; -431682403
382C  92000000           [04] move       2   0      
3830  CBC00000           [05] newtable   3   0   3    ; array=0, hash=3
3834  1DC10000           [06] getglobal  4   3        ; mMovie
3838  24014102           [07] self       4   4   260  ; 98241492
383C  99410100           [08] loadk      6   5        ; "<WARNING>"
3840  D7018000           [09] loadbool   7   1   0    ; true
3844  22810002           [10] call       4   4   2  
3848  CC000181           [11] settable   3   258 4    ; "Label"
384C  0B010000           [12] newtable   4   0   0    ; array=0, hash=0
3850  5DC10000           [13] getglobal  5   3        ; mMovie
3854  6401C102           [14] self       5   5   260  ; 98241492
3858  D9C10100           [15] loadk      7   7        ; "/Lotus/Language/WarframeHints/AppearancePreview_0"
385C  17020000           [16] loadbool   8   0   0    ; false
3860  62010002           [17] call       5   4   0  
3864  1B410000           [18] setlist    4   0   1    ; index 1 to top
3868  CC000183           [19] settable   3   262 4    ; "Tips"
386C  CC404284           [20] settable   3   264 265  ; "Padding" 0
3870  62408001           [21] call       1   3   1  
3874  5D000000           [22] getglobal  1   0        ; table
3878  4E40C000           [23] gettable   1   1   257  ; -431682403
387C  92000000           [24] move       2   0      
3880  CBC00000           [25] newtable   3   0   3    ; array=0, hash=3
3884  CC804281           [26] settable   3   258 266  ; "Label" "/Lotus/Language/Menu/Global_Back"
3888  13010000           [27] getupval   4   0      
388C  CC008185           [28] settable   3   267 4    ; "CallBack"
3890  CC404386           [29] settable   3   268 269  ; "CallOut" "MENU_CANCEL"
3894  62408001           [30] call       1   3   1  
3898  5D800300           [31] getglobal  1   14       ; 1074689893
389C  9DC00300           [32] getglobal  2   15       ; _T
38A0  8E004401           [33] gettable   2   2   272  ; "SetButtons"
38A4  62800001           [34] call       1   2   2  
38A8  58400000           [35] test       1       1    ; to [37] if false
38AC  1AC00180           [36] jmp        8            ; to [45]
38B0  5DC00300           [37] getglobal  1   15       ; _T
38B4  4E40C400           [38] gettable   1   1   273  ; -270549122
38B8  9DC00000           [39] getglobal  2   3        ; mMovie
38BC  D2000000           [40] move       3   0      
38C0  1D810400           [41] getglobal  4   18       ; 1802065273
38C4  59C10400           [42] loadk      5   19       ; 0
38C8  22010001           [43] call       4   2   0  
38CC  62400000           [44] call       1   0   1  
38D0  1E008000           [45] return     0   1      
                         * constants:
38D4  14                 sizek (20)
38D5  04                 const type 4
38D6  06                 string size (6)
38D7  7461626C6500       "table\0"
                         const [0]: "table"
38DD  01                 const type 3
38DE  9D0C45E6           const [1]: (-431682403)
38E2  04                 const type 4
38E3  06                 string size (6)
38E4  4C6162656C00       "Label\0"
                         const [2]: "Label"
38EA  04                 const type 4
38EB  07                 string size (7)
38EC  6D4D6F76696500     "mMovie\0"
                         const [3]: "mMovie"
38F3  01                 const type 3
38F4  D40BDB05           const [4]: (98241492)
38F8  04                 const type 4
38F9  0A                 string size (10)
38FA  3C5741524E494E47+  "<WARNING"
3902  3E00               ">\0"
                         const [5]: "<WARNING>"
3904  04                 const type 4
3905  05                 string size (5)
3906  5469707300         "Tips\0"
                         const [6]: "Tips"
390B  04                 const type 4
390C  32                 string size (50)
390D  2F4C6F7475732F4C+  "/Lotus/L"
3915  616E67756167652F+  "anguage/"
391D  5761726672616D65+  "Warframe"
3925  48696E74732F4170+  "Hints/Ap"
392D  70656172616E6365+  "pearance"
3935  507265766965775F+  "Preview_"
393D  3000               "0\0"
                         const [7]: "/Lotus/Language/WarframeHints/AppearancePreview_0"
393F  04                 const type 4
3940  08                 string size (8)
3941  50616464696E6700   "Padding\0"
                         const [8]: "Padding"
3949  03                 const type 3
394A  000020C1           const [9]: (0)
394E  04                 const type 4
394F  21                 string size (33)
3950  2F4C6F7475732F4C+  "/Lotus/L"
3958  616E67756167652F+  "anguage/"
3960  4D656E752F476C6F+  "Menu/Glo"
3968  62616C5F4261636B+  "bal_Back"
3970  00                 "\0"
                         const [10]: "/Lotus/Language/Menu/Global_Back"
3971  04                 const type 4
3972  09                 string size (9)
3973  43616C6C4261636B+  "CallBack"
397B  00                 "\0"
                         const [11]: "CallBack"
397C  04                 const type 4
397D  08                 string size (8)
397E  43616C6C4F757400   "CallOut\0"
                         const [12]: "CallOut"
3986  04                 const type 4
3987  0C                 string size (12)
3988  4D454E555F43414E+  "MENU_CAN"
3990  43454C00           "CEL\0"
                         const [13]: "MENU_CANCEL"
3994  01                 const type 3
3995  65770E40           const [14]: (1074689893)
3999  04                 const type 4
399A  03                 string size (3)
399B  5F5400             "_T\0"
                         const [15]: "_T"
399E  04                 const type 4
399F  0B                 string size (11)
39A0  536574427574746F+  "SetButto"
39A8  6E7300             "ns\0"
                         const [16]: "SetButtons"
39AB  01                 const type 3
39AC  7EBFDFEF           const [17]: (-270549122)
39B0  01                 const type 3
39B1  7955696B           const [18]: (1802065273)
39B5  03                 const type 3
39B6  0000803F           const [19]: (0)
                         * functions:
39BA  00                 sizep (0)
                         * lines:
39BB  2D                 sizelineinfo (45)
                         [pc] (line)
39BC  38                 [01] (56)
39BD  02                 [02] (59)
39BE  00                 [03] (59)
39BF  00                 [04] (59)
39C0  3B                 [05] (59)
39C1  02                 [06] (59)
39C2  00                 [07] (59)
39C3  00                 [08] (59)
39C4  3B                 [09] (59)
39C5  02                 [10] (59)
39C6  00                 [11] (59)
39C7  00                 [12] (59)
39C8  3B                 [13] (60)
39C9  02                 [14] (60)
39CA  00                 [15] (60)
39CB  00                 [16] (60)
39CC  3B                 [17] (60)
39CD  02                 [18] (61)
39CE  00                 [19] (61)
39CF  00                 [20] (61)
39D0  3B                 [21] (59)
39D1  02                 [22] (62)
39D2  00                 [23] (62)
39D3  00                 [24] (62)
39D4  3B                 [25] (62)
39D5  02                 [26] (62)
39D6  00                 [27] (62)
39D7  00                 [28] (62)
39D8  3B                 [29] (62)
39D9  02                 [30] (62)
39DA  00                 [31] (64)
39DB  00                 [32] (64)
39DC  3B                 [33] (64)
39DD  02                 [34] (64)
39DE  00                 [35] (64)
39DF  00                 [36] (64)
39E0  3B                 [37] (65)
39E1  02                 [38] (65)
39E2  00                 [39] (65)
39E3  00                 [40] (65)
39E4  3B                 [41] (65)
39E5  02                 [42] (65)
39E6  00                 [43] (65)
39E7  00                 [44] (65)
39E8  3B                 [45] (67)
                         * locals:
3A70  00                 sizelocvars (0)
                         * upvalues:
3A71  00                 sizeupvalues (0)
                         ** end of function **

                         
3A72                     ** function [12] definition (level 2)
                         ** start of function **
3A72  00                 string size (0)
                         source name: (none)
3A74  04                 line defined (581)
3A75  EE                 last line defined (622)
3A76  04                 nups (10)
3A77  0A                 numparams (0)
3A78  00                 is_vararg (0)
3A79  00                 maxstacksize (5)
                         * code:
3A7B  79                 sizecode (121)
3A7C  1D000000           [001] getglobal  0   0        ; 1074689893
3A80  53000000           [002] getupval   1   0      
3A84  22800001           [003] call       0   2   2  
3A88  18400000           [004] test       0       1    ; to [6] if false
3A8C  1A800080           [005] jmp        3            ; to [9]
3A90  13000000           [006] getupval   0   0      
3A94  24404000           [007] self       0   0   257  ; -1517569684
3A98  22400001           [008] call       0   2   1  
3A9C  1D800000           [009] getglobal  0   2        ; _T
3AA0  0C00C181           [010] settable   0   259 260  ; "InfoPopup_Data" nil
3AA4  1D800000           [011] getglobal  0   2        ; _T
3AA8  0C00C182           [012] settable   0   261 260  ; "InfoPopup_Grid" nil
3AAC  1D800000           [013] getglobal  0   2        ; _T
3AB0  0CC04183           [014] settable   0   262 263  ; "AppearancePreviewOpen" 0
3AB4  13008000           [015] getupval   0   1      
3AB8  18000000           [016] test       0       0    ; to [18] if true
3ABC  1A000280           [017] jmp        9            ; to [27]
3AC0  1D000000           [018] getglobal  0   0        ; 1074689893
3AC4  5D800000           [019] getglobal  1   2        ; _T
3AC8  4E00C200           [020] gettable   1   1   264  ; "SetSquadOverlayTitle"
3ACC  22800001           [021] call       0   2   2  
3AD0  18400000           [022] test       0       1    ; to [24] if false
3AD4  1A800080           [023] jmp        3            ; to [27]
3AD8  1D800000           [024] getglobal  0   2        ; _T
3ADC  0E404200           [025] gettable   0   0   265  ; 1453523133
3AE0  22408000           [026] call       0   1   1  
3AE4  13000001           [027] getupval   0   2      
3AE8  0E804200           [028] gettable   0   0   266  ; "Visible"
3AEC  18000000           [029] test       0       0    ; to [31] if true
3AF0  1A000480           [030] jmp        17           ; to [48]
3AF4  1D000000           [031] getglobal  0   0        ; 1074689893
3AF8  5D800000           [032] getglobal  1   2        ; _T
3AFC  4EC0C200           [033] gettable   1   1   267  ; "ShowBackground"
3B00  22800001           [034] call       0   2   2  
3B04  18400000           [035] test       0       1    ; to [37] if false
3B08  1A800280           [036] jmp        11           ; to [48]
3B0C  1D800000           [037] getglobal  0   2        ; _T
3B10  0E004300           [038] gettable   0   0   268  ; 398318646
3B14  59400300           [039] loadk      1   13       ; 0
3B18  93000001           [040] getupval   2   2      
3B1C  8E804301           [041] gettable   2   2   270  ; "HighlightOffset"
3B20  D3000001           [042] getupval   3   2      
3B24  CEC0C301           [043] gettable   3   3   271  ; "HighlightOn"
3B28  13010001           [044] getupval   4   2      
3B2C  0E014402           [045] gettable   4   4   272  ; "VisRangeInfo"
3B30  22408002           [046] call       0   5   1  
3B34  1AC00280           [047] jmp        12           ; to [60]
3B38  13008001           [048] getupval   0   3      
3B3C  18000000           [049] test       0       0    ; to [51] if true
3B40  1A000280           [050] jmp        9            ; to [60]
3B44  1D000000           [051] getglobal  0   0        ; 1074689893
3B48  5D800000           [052] getglobal  1   2        ; _T
3B4C  4E40C400           [053] gettable   1   1   273  ; "HideBackground"
3B50  22800001           [054] call       0   2   2  
3B54  18400000           [055] test       0       1    ; to [57] if false
3B58  1A800080           [056] jmp        3            ; to [60]
3B5C  1D800000           [057] getglobal  0   2        ; _T
3B60  0E804400           [058] gettable   0   0   274  ; -1873712487
3B64  22408000           [059] call       0   1   1  
3B68  13000002           [060] getupval   0   4      
3B6C  18000000           [061] test       0       0    ; to [63] if true
3B70  1AC00180           [062] jmp        8            ; to [71]
3B74  1D000000           [063] getglobal  0   0        ; 1074689893
3B78  5DC00400           [064] getglobal  1   19       ; gFlashMgr
3B7C  22800001           [065] call       0   2   2  
3B80  18400000           [066] test       0       1    ; to [68] if false
3B84  1A800080           [067] jmp        3            ; to [71]
3B88  1DC00400           [068] getglobal  0   19       ; gFlashMgr
3B8C  24004500           [069] self       0   0   276  ; -991492797
3B90  22400001           [070] call       0   2   1  
3B94  13008002           [071] getupval   0   5      
3B98  0E404500           [072] gettable   0   0   277  ; 2020962785
3B9C  57008000           [073] loadbool   1   1   0    ; true
3BA0  93000003           [074] getupval   2   6      
3BA4  22408001           [075] call       0   3   1  
3BA8  13008003           [076] getupval   0   7      
3BAC  0E804500           [077] gettable   0   0   278  ; -1694810916
3BB0  57000000           [078] loadbool   1   0   0    ; false
3BB4  22400001           [079] call       0   2   1  
3BB8  1DC00400           [080] getglobal  0   19       ; gFlashMgr
3BBC  24C04500           [081] self       0   0   279  ; -475485270
3BC0  99000600           [082] loadk      2   24       ; "HideScreenForPlatPurchase"
3BC4  D9400600           [083] loadk      3   25       ; "false"
3BC8  22400002           [084] call       0   4   1  
3BCC  13000004           [085] getupval   0   8      
3BD0  18000000           [086] test       0       0    ; to [88] if true
3BD4  1A800080           [087] jmp        3            ; to [91]
3BD8  1D800000           [088] getglobal  0   2        ; _T
3BDC  0E804600           [089] gettable   0   0   282  ; 1170981787
3BE0  22408000           [090] call       0   1   1  
3BE4  1DC00400           [091] getglobal  0   19       ; gFlashMgr
3BE8  24C04600           [092] self       0   0   283  ; 1634586770
3BEC  9D000700           [093] getglobal  2   28       ; _G
3BF0  8E404701           [094] gettable   2   2   285  ; "UIMovie_DetailedPurchaseDialog"
3BF4  22808001           [095] call       0   3   2  
3BF8  5D000000           [096] getglobal  1   0        ; 1074689893
3BFC  92000000           [097] move       2   0      
3C00  62800001           [098] call       1   2   2  
3C04  58400000           [099] test       1       1    ; to [101] if false
3C08  1AC00080           [100] jmp        4            ; to [105]
3C0C  64804700           [101] self       1   0   286  ; 1167009705
3C10  D9C00700           [102] loadk      3   31       ; "HideScreen"
3C14  19410600           [103] loadk      4   25       ; "false"
3C18  62400002           [104] call       1   4   1  
3C1C  53008004           [105] getupval   1   9      
fail op	35
3C20  6300C100           [106] close      1  
3C24  1A800280           [107] jmp        11           ; to [119]
3C28  5D000000           [108] getglobal  1   0        ; 1074689893
3C2C  9D800000           [109] getglobal  2   2        ; _T
3C30  D3008004           [110] getupval   3   9      
3C34  8EC00001           [111] gettable   2   2   3  
3C38  62800001           [112] call       1   2   2  
3C3C  58400000           [113] test       1       1    ; to [115] if false
3C40  1AC00080           [114] jmp        4            ; to [119]
3C44  5D800000           [115] getglobal  1   2        ; _T
3C48  93008004           [116] getupval   2   9      
3C4C  4E808000           [117] gettable   1   1   2  
3C50  62408000           [118] call       1   1   1  
3C54  46008000           [119] loadnil    1   1      
fail op	8
3C58  48008004           [120] setupval   1   9      
3C5C  1E008000           [121] return     0   1      
                         * constants:
3C60  20                 sizek (32)
3C61  01                 const type 3
3C62  65770E40           const [0]: (1074689893)
3C66  01                 const type 3
3C67  6CB98BA5           const [1]: (-1517569684)
3C6B  04                 const type 4
3C6C  03                 string size (3)
3C6D  5F5400             "_T\0"
                         const [2]: "_T"
3C70  04                 const type 4
3C71  0F                 string size (15)
3C72  496E666F506F7075+  "InfoPopu"
3C7A  705F4461746100     "p_Data\0"
                         const [3]: "InfoPopup_Data"
3C81  00                 const type 0
                         const [4]: nil
3C82  04                 const type 4
3C83  0F                 string size (15)
3C84  496E666F506F7075+  "InfoPopu"
3C8C  705F4772696400     "p_Grid\0"
                         const [5]: "InfoPopup_Grid"
3C93  04                 const type 4
3C94  16                 string size (22)
3C95  417070656172616E+  "Appearan"
3C9D  6365507265766965+  "cePrevie"
3CA5  774F70656E00       "wOpen\0"
                         const [6]: "AppearancePreviewOpen"
3CAB  01                 const type 3
3CAC  00000000           const [7]: (0)
3CB0  04                 const type 4
3CB1  15                 string size (21)
3CB2  5365745371756164+  "SetSquad"
3CBA  4F7665726C617954+  "OverlayT"
3CC2  69746C6500         "itle\0"
                         const [8]: "SetSquadOverlayTitle"
3CC7  01                 const type 3
3CC8  BD00A356           const [9]: (1453523133)
3CCC  04                 const type 4
3CCD  08                 string size (8)
3CCE  56697369626C6500   "Visible\0"
                         const [10]: "Visible"
3CD6  04                 const type 4
3CD7  0F                 string size (15)
3CD8  53686F774261636B+  "ShowBack"
3CE0  67726F756E6400     "ground\0"
                         const [11]: "ShowBackground"
3CE7  01                 const type 3
3CE8  36DCBD17           const [12]: (398318646)
3CEC  03                 const type 3
3CED  00000000           const [13]: (0)
3CF1  04                 const type 4
3CF2  10                 string size (16)
3CF3  486967686C696768+  "Highligh"
3CFB  744F666673657400   "tOffset\0"
                         const [14]: "HighlightOffset"
3D03  04                 const type 4
3D04  0C                 string size (12)
3D05  486967686C696768+  "Highligh"
3D0D  744F6E00           "tOn\0"
                         const [15]: "HighlightOn"
3D11  04                 const type 4
3D12  0D                 string size (13)
3D13  56697352616E6765+  "VisRange"
3D1B  496E666F00         "Info\0"
                         const [16]: "VisRangeInfo"
3D20  04                 const type 4
3D21  0F                 string size (15)
3D22  486964654261636B+  "HideBack"
3D2A  67726F756E6400     "ground\0"
                         const [17]: "HideBackground"
3D31  01                 const type 3
3D32  996A5190           const [18]: (-1873712487)
3D36  04                 const type 4
3D37  0A                 string size (10)
3D38  67466C6173684D67+  "gFlashMg"
3D40  7200               "r\0"
                         const [19]: "gFlashMgr"
3D42  01                 const type 3
3D43  4305E7C4           const [20]: (-991492797)
3D47  01                 const type 3
3D48  E1717578           const [21]: (2020962785)
3D4C  01                 const type 3
3D4D  DC3CFB9A           const [22]: (-1694810916)
3D51  01                 const type 3
3D52  AAABA8E3           const [23]: (-475485270)
3D56  04                 const type 4
3D57  1A                 string size (26)
3D58  4869646553637265+  "HideScre"
3D60  656E466F72506C61+  "enForPla"
3D68  7450757263686173+  "tPurchas"
3D70  6500               "e\0"
                         const [24]: "HideScreenForPlatPurchase"
3D72  04                 const type 4
3D73  06                 string size (6)
3D74  66616C736500       "false\0"
                         const [25]: "false"
3D7A  01                 const type 3
3D7B  9BC3CB45           const [26]: (1170981787)
3D7F  01                 const type 3
3D80  92D06D61           const [27]: (1634586770)
3D84  04                 const type 4
3D85  03                 string size (3)
3D86  5F4700             "_G\0"
                         const [28]: "_G"
3D89  04                 const type 4
3D8A  1F                 string size (31)
3D8B  55494D6F7669655F+  "UIMovie_"
3D93  44657461696C6564+  "Detailed"
3D9B  5075726368617365+  "Purchase"
3DA3  4469616C6F6700     "Dialog\0"
                         const [29]: "UIMovie_DetailedPurchaseDialog"
3DAA  01                 const type 3
3DAB  A9278F45           const [30]: (1167009705)
3DAF  04                 const type 4
3DB0  0B                 string size (11)
3DB1  4869646553637265+  "HideScre"
3DB9  656E00             "en\0"
                         const [31]: "HideScreen"
                         * functions:
3DBC  00                 sizep (0)
                         * lines:
3DBD  79                 sizelineinfo (121)
                         [pc] (line)
3DBE  46                 [001] (70)
3DBF  02                 [002] (70)
3DC0  00                 [003] (70)
3DC1  00                 [004] (70)
3DC2  46                 [005] (70)
3DC3  02                 [006] (71)
3DC4  00                 [007] (71)
3DC5  00                 [008] (71)
3DC6  46                 [009] (74)
3DC7  02                 [010] (74)
3DC8  00                 [011] (75)
3DC9  00                 [012] (75)
3DCA  46                 [013] (77)
3DCB  02                 [014] (77)
3DCC  00                 [015] (79)
3DCD  00                 [016] (79)
3DCE  46                 [017] (79)
3DCF  02                 [018] (79)
3DD0  00                 [019] (79)
3DD1  00                 [020] (79)
3DD2  47                 [021] (79)
3DD3  02                 [022] (79)
3DD4  00                 [023] (79)
3DD5  00                 [024] (80)
3DD6  47                 [025] (80)
3DD7  02                 [026] (80)
3DD8  00                 [027] (83)
3DD9  00                 [028] (83)
3DDA  47                 [029] (83)
3DDB  02                 [030] (83)
3DDC  00                 [031] (83)
3DDD  00                 [032] (83)
3DDE  4A                 [033] (83)
3DDF  02                 [034] (83)
3DE0  00                 [035] (83)
3DE1  00                 [036] (83)
3DE2  4A                 [037] (84)
3DE3  02                 [038] (84)
3DE4  00                 [039] (84)
3DE5  00                 [040] (84)
3DE6  4B                 [041] (84)
3DE7  02                 [042] (84)
3DE8  00                 [043] (84)
3DE9  00                 [044] (84)
3DEA  4B                 [045] (84)
3DEB  02                 [046] (84)
3DEC  00                 [047] (84)
3DED  00                 [048] (85)
3DEE  4D                 [049] (85)
3DEF  02                 [050] (85)
3DF0  00                 [051] (85)
3DF1  00                 [052] (85)
3DF2  4D                 [053] (85)
3DF3  02                 [054] (85)
3DF4  00                 [055] (85)
3DF5  00                 [056] (85)
3DF6  4F                 [057] (86)
3DF7  02                 [058] (86)
3DF8  00                 [059] (86)
3DF9  00                 [060] (89)
3DFA  4F                 [061] (89)
3DFB  02                 [062] (89)
3DFC  00                 [063] (89)
3DFD  00                 [064] (89)
3DFE  4F                 [065] (89)
3DFF  02                 [066] (89)
3E00  00                 [067] (89)
3E01  00                 [068] (90)
3E02  4F                 [069] (90)
3E03  02                 [070] (90)
3E04  00                 [071] (93)
3E05  00                 [072] (93)
3E06  4F                 [073] (93)
3E07  02                 [074] (93)
3E08  00                 [075] (93)
3E09  00                 [076] (94)
3E0A  4F                 [077] (94)
3E0B  02                 [078] (94)
3E0C  00                 [079] (94)
3E0D  00                 [080] (95)
3E0E  4F                 [081] (95)
3E0F  02                 [082] (95)
3E10  00                 [083] (95)
3E11  00                 [084] (95)
3E12  4F                 [085] (97)
3E13  02                 [086] (97)
3E14  00                 [087] (97)
3E15  00                 [088] (98)
3E16  4F                 [089] (98)
3E17  02                 [090] (98)
3E18  00                 [091] (101)
3E19  00                 [092] (101)
3E1A  50                 [093] (101)
3E1B  02                 [094] (101)
3E1C  00                 [095] (101)
3E1D  00                 [096] (102)
3E1E  50                 [097] (102)
3E1F  02                 [098] (102)
3E20  00                 [099] (102)
3E21  00                 [100] (102)
3E22  50                 [101] (103)
3E23  02                 [102] (103)
3E24  00                 [103] (103)
3E25  00                 [104] (103)
3E26  53                 [105] (106)
3E27  02                 [106] (106)
3E28  00                 [107] (106)
3E29  00                 [108] (106)
3E2A  53                 [109] (106)
3E2B  02                 [110] (106)
3E2C  00                 [111] (106)
3E2D  00                 [112] (106)
3E2E  53                 [113] (106)
3E2F  02                 [114] (106)
3E30  00                 [115] (107)
3E31  00                 [116] (107)
3E32  53                 [117] (107)
3E33  02                 [118] (107)
3E34  00                 [119] (109)
3E35  00                 [120] (109)
3E36  53                 [121] (110)
                         * locals:
3FA2  00                 sizelocvars (0)
                         * upvalues:
3FA3  00                 sizeupvalues (0)
                         ** end of function **

                         
3FA4                     ** function [13] definition (level 2)
                         ** start of function **
3FA4  00                 string size (0)
                         source name: (none)
3FA6  04                 line defined (624)
3FA7  90                 last line defined (656)
3FA8  05                 nups (7)
3FA9  07                 numparams (0)
3FAA  00                 is_vararg (0)
3FAB  00                 maxstacksize (4)
                         * code:
3FAD  2C                 sizecode (44)
3FAE  13000000           [01] getupval   0   0      
fail op	35
3FB2  23004000           [02] close      0  
3FB6  1A000080           [03] jmp        1            ; to [5]
3FBA  1E008000           [04] return     0   1      
3FBE  1D400000           [05] getglobal  0   1        ; mMovie
3FC2  24804000           [06] self       0   0   258  ; 1609725115
3FC6  9DC00000           [07] getglobal  2   3        ; _G
3FCA  8E004101           [08] gettable   2   2   260  ; "UIMovie_GenericMenu"
3FCE  22808001           [09] call       0   3   2  
fail op	8
3FD2  08008000           [10] setupval   0   1      
3FD6  1D400100           [11] getglobal  0   5        ; 1074689893
3FDA  53008000           [12] getupval   1   1      
3FDE  22800001           [13] call       0   2   2  
3FE2  18400000           [14] test       0       1    ; to [16] if false
3FE6  1AC00680           [15] jmp        28           ; to [44]
3FEA  17008000           [16] loadbool   0   1   0    ; true
fail op	8
3FEE  08000001           [17] setupval   0   2      
3FF2  13008000           [18] getupval   0   1      
3FF6  24804100           [19] self       0   0   262  ; 1167009705
3FFA  99C00100           [20] loadk      2   7        ; "SetTitle"
3FFE  D9000200           [21] loadk      3   8        ; "/Lotus/Language/Menu/Appearance_Prefix"
4002  22400002           [22] call       0   4   1  
4006  1D400200           [23] getglobal  0   9        ; _T
400A  65000000           [24] closure    1   0      
400E  13000001           [25] getupval   0   2      
4012  13008001           [26] getupval   0   3      
4016  13000002           [27] getupval   0   4      
401A  0C400085           [28] settable   0   266 1    ; "ConfigSelectionDone"
401E  13008000           [29] getupval   0   1      
4022  24804100           [30] self       0   0   262  ; 1167009705
4026  99C00200           [31] loadk      2   11       ; "SetCallBack"
402A  D9800200           [32] loadk      3   10       ; "ConfigSelectionDone"
402E  22400002           [33] call       0   4   1  
4032  1D400200           [34] getglobal  0   9        ; _T
4036  65400000           [35] closure    1   1      
403A  13008002           [36] getupval   0   5      
403E  13000003           [37] getupval   0   6      
4042  0C400086           [38] settable   0   268 1    ; "GetConfigList"
4046  13008000           [39] getupval   0   1      
404A  24804100           [40] self       0   0   262  ; 1167009705
404E  99400300           [41] loadk      2   13       ; "SetElementsFunction"
4052  D9000300           [42] loadk      3   12       ; "GetConfigList"
4056  22400002           [43] call       0   4   1  
405A  1E008000           [44] return     0   1      
                         * constants:
405E  0E                 sizek (14)
405F  00                 const type 0
                         const [0]: nil
4060  04                 const type 4
4061  07                 string size (7)
4062  6D4D6F76696500     "mMovie\0"
                         const [1]: "mMovie"
4069  01                 const type 3
406A  BB74F25F           const [2]: (1609725115)
406E  04                 const type 4
406F  03                 string size (3)
4070  5F4700             "_G\0"
                         const [3]: "_G"
4073  04                 const type 4
4074  14                 string size (20)
4075  55494D6F7669655F+  "UIMovie_"
407D  47656E657269634D+  "GenericM"
4085  656E7500           "enu\0"
                         const [4]: "UIMovie_GenericMenu"
4089  01                 const type 3
408A  65770E40           const [5]: (1074689893)
408E  01                 const type 3
408F  A9278F45           const [6]: (1167009705)
4093  04                 const type 4
4094  09                 string size (9)
4095  5365745469746C65+  "SetTitle"
409D  00                 "\0"
                         const [7]: "SetTitle"
409E  04                 const type 4
409F  27                 string size (39)
40A0  2F4C6F7475732F4C+  "/Lotus/L"
40A8  616E67756167652F+  "anguage/"
40B0  4D656E752F417070+  "Menu/App"
40B8  656172616E63655F+  "earance_"
40C0  50726566697800     "Prefix\0"
                         const [8]: "/Lotus/Language/Menu/Appearance_Prefix"
40C7  04                 const type 4
40C8  03                 string size (3)
40C9  5F5400             "_T\0"
                         const [9]: "_T"
40CC  04                 const type 4
40CD  14                 string size (20)
40CE  436F6E6669675365+  "ConfigSe"
40D6  6C656374696F6E44+  "lectionD"
40DE  6F6E6500           "one\0"
                         const [10]: "ConfigSelectionDone"
40E2  04                 const type 4
40E3  0C                 string size (12)
40E4  53657443616C6C42+  "SetCallB"
40EC  61636B00           "ack\0"
                         const [11]: "SetCallBack"
40F0  04                 const type 4
40F1  0E                 string size (14)
40F2  476574436F6E6669+  "GetConfi"
40FA  674C69737400       "gList\0"
                         const [12]: "GetConfigList"
4100  04                 const type 4
4101  14                 string size (20)
4102  536574456C656D65+  "SetEleme"
410A  6E747346756E6374+  "ntsFunct"
4112  696F6E00           "ion\0"
                         const [13]: "SetElementsFunction"
                         * functions:
4116  02                 sizep (2)
                         
4117                     ** function [0] definition (level 3)
                         ** start of function **
4117  00                 string size (0)
                         source name: (none)
4119  04                 line defined (635)
411A  86                 last line defined (646)
411B  05                 nups (3)
411C  03                 numparams (1)
411D  01                 is_vararg (0)
411E  00                 maxstacksize (5)
                         * code:
4120  1A                 sizecode (26)
4121  5D000000           [01] getglobal  1   0        ; _T
4125  4C80C080           [02] settable   1   257 258  ; "ConfigSelectionDone" nil
4129  5D000000           [03] getglobal  1   0        ; _T
412D  4C80C081           [04] settable   1   259 258  ; "GetConfigList" nil
4131  57000000           [05] loadbool   1   0   0    ; false
fail op	8
4135  48000000           [06] setupval   1   0      
4139  5D000100           [07] getglobal  1   4        ; 1074689893
413D  92000000           [08] move       2   0      
4141  62800001           [09] call       1   2   2  
4145  58400000           [10] test       1       1    ; to [12] if false
4149  1A400380           [11] jmp        14           ; to [26]
414D  4E404100           [12] gettable   1   0   261  ; 0
fail op	35
4151  6380C000           [13] close      1  
4155  1A800280           [14] jmp        11           ; to [26]
4159  4E404100           [15] gettable   1   0   261  ; 0
415D  4E80C100           [16] gettable   1   1   262  ; "mItemInfo"
fail op	8
4161  48008000           [17] setupval   1   1      
4165  4E404100           [18] gettable   1   0   261  ; 0
4169  4EC0C100           [19] gettable   1   1   263  ; "mConfigId"
fail op	8
416D  48000001           [20] setupval   1   2      
4171  5D000200           [21] getglobal  1   8        ; mMovie
4175  6440C200           [22] self       1   1   265  ; 1167009705
4179  D9800200           [23] loadk      3   10       ; "ConfirmEquipAppearance"
417D  19C10200           [24] loadk      4   11       ; ""
4181  62400002           [25] call       1   4   1  
4185  1E008000           [26] return     0   1      
                         * constants:
4189  0C                 sizek (12)
418A  04                 const type 4
418B  03                 string size (3)
418C  5F5400             "_T\0"
                         const [0]: "_T"
418F  04                 const type 4
4190  14                 string size (20)
4191  436F6E6669675365+  "ConfigSe"
4199  6C656374696F6E44+  "lectionD"
41A1  6F6E6500           "one\0"
                         const [1]: "ConfigSelectionDone"
41A5  00                 const type 0
                         const [2]: nil
41A6  04                 const type 4
41A7  0E                 string size (14)
41A8  476574436F6E6669+  "GetConfi"
41B0  674C69737400       "gList\0"
                         const [3]: "GetConfigList"
41B6  01                 const type 3
41B7  65770E40           const [4]: (1074689893)
41BB  03                 const type 3
41BC  0000803F           const [5]: (0)
41C0  04                 const type 4
41C1  0A                 string size (10)
41C2  6D4974656D496E66+  "mItemInf"
41CA  6F00               "o\0"
                         const [6]: "mItemInfo"
41CC  04                 const type 4
41CD  0A                 string size (10)
41CE  6D436F6E66696749+  "mConfigI"
41D6  6400               "d\0"
                         const [7]: "mConfigId"
41D8  04                 const type 4
41D9  07                 string size (7)
41DA  6D4D6F76696500     "mMovie\0"
                         const [8]: "mMovie"
41E1  01                 const type 3
41E2  A9278F45           const [9]: (1167009705)
41E6  04                 const type 4
41E7  17                 string size (23)
41E8  436F6E6669726D45+  "ConfirmE"
41F0  7175697041707065+  "quipAppe"
41F8  6172616E636500     "arance\0"
                         const [10]: "ConfirmEquipAppearance"
41FF  04                 const type 4
4200  01                 string size (0)
                         const [11]: ""
                         * functions:
4202  00                 sizep (0)
                         * lines:
4203  1A                 sizelineinfo (26)
                         [pc] (line)
4204  7C                 [01] (124)
4205  02                 [02] (124)
4206  00                 [03] (125)
4207  00                 [04] (125)
4208  7C                 [05] (127)
4209  02                 [06] (127)
420A  00                 [07] (-127)
420B  00                 [08] (-127)
420C  7D                 [09] (-127)
420D  02                 [10] (-127)
420E  00                 [11] (-127)
420F  00                 [12] (-127)
4210  7D                 [13] (-127)
4211  02                 [14] (-127)
4212  00                 [15] (-126)
4213  00                 [16] (-126)
4214  7F                 [17] (-126)
4215  02                 [18] (-125)
4216  00                 [19] (-125)
4217  00                 [20] (-125)
4218  7F                 [21] (-124)
4219  02                 [22] (-124)
421A  00                 [23] (-124)
421B  00                 [24] (-124)
421C  81                 [25] (-124)
421D  02                 [26] (-122)
                         * locals:
426C  00                 sizelocvars (0)
                         * upvalues:
426D  00                 sizeupvalues (0)
                         ** end of function **

                         
426E                     ** function [1] definition (level 3)
                         ** start of function **
426E  00                 string size (0)
                         source name: (none)
4270  05                 line defined (650)
4271  8D                 last line defined (653)
4272  05                 nups (2)
4273  02                 numparams (0)
4274  00                 is_vararg (0)
4275  00                 maxstacksize (3)
                         * code:
4277  08                 sizecode (8)
4278  13000000           [1] getupval   0   0      
427C  0E004000           [2] gettable   0   0   256  ; 1179783558
4280  5D400000           [3] getglobal  1   1        ; mMovie
4284  93008000           [4] getupval   2   1      
4288  8E804001           [5] gettable   2   2   258  ; "mWeaponInfos"
428C  22808001           [6] call       0   3   2  
4290  1E000001           [7] return     0   2      
4294  1E008000           [8] return     0   1      
                         * constants:
4298  03                 sizek (3)
4299  01                 const type 3
429A  86115246           const [0]: (1179783558)
429E  04                 const type 4
429F  07                 string size (7)
42A0  6D4D6F76696500     "mMovie\0"
                         const [1]: "mMovie"
42A7  04                 const type 4
42A8  0D                 string size (13)
42A9  6D576561706F6E49+  "mWeaponI"
42B1  6E666F7300         "nfos\0"
                         const [2]: "mWeaponInfos"
                         * functions:
42B6  00                 sizep (0)
                         * lines:
42B7  08                 sizelineinfo (8)
                         [pc] (line)
42B8  8B                 [1] (-117)
42B9  02                 [2] (-117)
42BA  00                 [3] (-117)
42BB  00                 [4] (-117)
42BC  8B                 [5] (-117)
42BD  02                 [6] (-117)
42BE  00                 [7] (-116)
42BF  00                 [8] (-115)
                         * locals:
42D8  00                 sizelocvars (0)
                         * upvalues:
42D9  00                 sizeupvalues (0)
                         ** end of function **

                         * lines:
42DA  2C                 sizelineinfo (44)
                         [pc] (line)
42DB  71                 [01] (113)
42DC  02                 [02] (113)
42DD  00                 [03] (113)
42DE  00                 [04] (114)
42DF  71                 [05] (117)
42E0  02                 [06] (117)
42E1  00                 [07] (117)
42E2  00                 [08] (117)
42E3  71                 [09] (117)
42E4  02                 [10] (117)
42E5  00                 [11] (118)
42E6  00                 [12] (118)
42E7  72                 [13] (118)
42E8  02                 [14] (118)
42E9  00                 [15] (118)
42EA  00                 [16] (119)
42EB  75                 [17] (119)
42EC  02                 [18] (120)
42ED  00                 [19] (120)
42EE  00                 [20] (120)
42EF  75                 [21] (120)
42F0  02                 [22] (120)
42F1  00                 [23] (122)
42F2  00                 [24] (-122)
42F3  75                 [25] (-122)
42F4  02                 [26] (-122)
42F5  00                 [27] (-122)
42F6  00                 [28] (-122)
42F7  75                 [29] (-121)
42F8  02                 [30] (-121)
42F9  00                 [31] (-121)
42FA  00                 [32] (-121)
42FB  75                 [33] (-121)
42FC  02                 [34] (-119)
42FD  00                 [35] (-115)
42FE  00                 [36] (-115)
42FF  75                 [37] (-115)
4300  02                 [38] (-115)
4301  00                 [39] (-114)
4302  00                 [40] (-114)
4303  76                 [41] (-114)
4304  02                 [42] (-114)
4305  00                 [43] (-114)
4306  00                 [44] (-112)
                         * locals:
438B  00                 sizelocvars (0)
                         * upvalues:
438C  00                 sizeupvalues (0)
                         ** end of function **

                         
438D                     ** function [14] definition (level 2)
                         ** start of function **
438D  00                 string size (0)
                         source name: (none)
438F  05                 line defined (658)
4390  AC                 last line defined (684)
4391  05                 nups (6)
4392  06                 numparams (1)
4393  01                 is_vararg (0)
4394  00                 maxstacksize (9)
                         * code:
4396  4F                 sizecode (79)
4397  5D000000           [01] getglobal  1   0        ; mMovie
439B  6440C000           [02] self       1   1   257  ; 98241492
439F  D3000000           [03] getupval   3   0      
43A3  17010000           [04] loadbool   4   0   0    ; false
43A7  62800002           [05] call       1   4   2  
fail op	35
43AB  63804000           [06] close      1  
43AF  1A400280           [07] jmp        10           ; to [18]
43B3  9DC00000           [08] getglobal  2   3        ; string
43B7  8E004101           [09] gettable   2   2   260  ; -1110387163
43BB  D2000000           [10] move       3   0      
43BF  A2800001           [11] call       2   2   2  
43C3  DDC00000           [12] getglobal  3   3        ; string
43C7  CE00C101           [13] gettable   3   3   260  ; -1110387163
43CB  12018000           [14] move       4   1      
43CF  E2800001           [15] call       3   2   2  
fail op	35
43D3  63C00001           [16] close      1  
43D7  1A000180           [17] jmp        5            ; to [23]
43DB  93008000           [18] getupval   2   1      
43DF  8E404101           [19] gettable   2   2   261  ; 955055712
43E3  D9800100           [20] loadk      3   6        ; "/Lotus/Language/Dojo/VaultContributionDecoIncorrectConfirmWord"
43E7  A2400001           [21] call       2   2   1  
43EB  1E008000           [22] return     0   1      
43EF  9DC00100           [23] getglobal  2   7        ; gGameData
43F3  A4004201           [24] self       2   2   264  ; 1865287165
43F7  A2800001           [25] call       2   2   2  
43FB  DD400200           [26] getglobal  3   9        ; 1074689893
43FF  12010001           [27] move       4   2      
4403  E2800001           [28] call       3   2   2  
4407  D8000000           [29] test       3       0    ; to [31] if true
440B  1A000080           [30] jmp        1            ; to [32]
440F  1E008000           [31] return     0   1      
4413  D3000001           [32] getupval   3   2      
fail op	35
4417  6380C001           [33] close      1  
441B  1A000180           [34] jmp        5            ; to [40]
441F  D3000001           [35] getupval   3   2      
4423  CE80C201           [36] gettable   3   3   266  ; "mItemId"
4427  CEC0C201           [37] gettable   3   3   267  ; "mId"
fail op	35
442B  2300C301           [38] close      0  
442F  1A000080           [39] jmp        1            ; to [41]
4433  1E008000           [40] return     0   1      
4437  D3000001           [41] getupval   3   2      
443B  E440C301           [42] self       3   3   269  ; -1348043987
443F  53018001           [43] getupval   5   3      
4443  E2808001           [44] call       3   3   2  
4447  13010002           [45] getupval   4   4      
444B  52018001           [46] move       5   3      
444F  93018002           [47] getupval   6   5      
4453  8E814303           [48] gettable   6   6   270  ; "mItemType"
4457  D3010001           [49] getupval   7   2      
445B  CE81C303           [50] gettable   7   7   270  ; "mItemType"
fail op	35
445F  63C00103           [51] close      1  
4463  1A000080           [52] jmp        1            ; to [54]
4467  97410000           [53] loadbool   6   0   1    ; false, to [55]
446B  97018000           [54] loadbool   6   1   0    ; true
446F  22418001           [55] call       4   3   1  
4473  24C14301           [56] self       4   2   271  ; 86265078
4477  93010001           [57] getupval   6   2      
447B  8E814203           [58] gettable   6   6   266  ; "mItemId"
447F  8EC14203           [59] gettable   6   6   267  ; "mId"
4483  D3018001           [60] getupval   7   3      
4487  12028001           [61] move       8   3      
448B  22418002           [62] call       4   5   1  
448F  1DC10100           [63] getglobal  4   7        ; gGameData
4493  24014402           [64] self       4   4   272  ; -2092150459
4497  99410400           [65] loadk      6   17       ; "OnSaveLoadOutComplete"
449B  22418001           [66] call       4   3   1  
449F  1D410200           [67] getglobal  4   9        ; 1074689893
44A3  5D810400           [68] getglobal  5   18       ; gGameStatsMgr
44A7  22810001           [69] call       4   2   2  
44AB  18410000           [70] test       4       1    ; to [72] if false
44AF  1A800180           [71] jmp        7            ; to [79]
44B3  1D810400           [72] getglobal  4   18       ; gGameStatsMgr
44B7  24C14402           [73] self       4   4   275  ; 838339401
44BB  9D010500           [74] getglobal  6   20       ; -332969190
44BF  D9410500           [75] loadk      7   21       ; "LOOK_LINK"
44C3  A2810001           [76] call       6   2   2  
44C7  D9810500           [77] loadk      7   22       ; "APPLIED"
44CB  22410002           [78] call       4   4   1  
44CF  1E008000           [79] return     0   1      
                         * constants:
44D3  17                 sizek (23)
44D4  04                 const type 4
44D5  07                 string size (7)
44D6  6D4D6F76696500     "mMovie\0"
                         const [0]: "mMovie"
44DD  01                 const type 3
44DE  D40BDB05           const [1]: (98241492)
44E2  00                 const type 0
                         const [2]: nil
44E3  04                 const type 4
44E4  07                 string size (7)
44E5  737472696E6700     "string\0"
                         const [3]: "string"
44EC  01                 const type 3
44ED  25D6D0BD           const [4]: (-1110387163)
44F1  01                 const type 3
44F2  60FEEC38           const [5]: (955055712)
44F6  04                 const type 4
44F7  3F                 string size (63)
44F8  2F4C6F7475732F4C+  "/Lotus/L"
4500  616E67756167652F+  "anguage/"
4508  446F6A6F2F566175+  "Dojo/Vau"
4510  6C74436F6E747269+  "ltContri"
4518  627574696F6E4465+  "butionDe"
4520  636F496E636F7272+  "coIncorr"
4528  656374436F6E6669+  "ectConfi"
4530  726D576F726400     "rmWord\0"
                         const [6]: "/Lotus/Language/Dojo/VaultContributionDecoIncorrectConfirmWord"
4537  04                 const type 4
4538  0A                 string size (10)
4539  6747616D65446174+  "gGameDat"
4541  6100               "a\0"
                         const [7]: "gGameData"
4543  01                 const type 3
4544  FD052E6F           const [8]: (1865287165)
4548  01                 const type 3
4549  65770E40           const [9]: (1074689893)
454D  04                 const type 4
454E  08                 string size (8)
454F  6D4974656D496400   "mItemId\0"
                         const [10]: "mItemId"
4557  04                 const type 4
4558  04                 string size (4)
4559  6D496400           "mId\0"
                         const [11]: "mId"
455D  04                 const type 4
455E  01                 string size (0)
                         const [12]: ""
4560  01                 const type 3
4561  2D7BA6AF           const [13]: (-1348043987)
4565  04                 const type 4
4566  0A                 string size (10)
4567  6D4974656D547970+  "mItemTyp"
456F  6500               "e\0"
                         const [14]: "mItemType"
4571  01                 const type 3
4572  F64C2405           const [15]: (86265078)
4576  01                 const type 3
4577  45514C83           const [16]: (-2092150459)
457B  04                 const type 4
457C  16                 string size (22)
457D  4F6E536176654C6F+  "OnSaveLo"
4585  61644F7574436F6D+  "adOutCom"
458D  706C65746500       "plete\0"
                         const [17]: "OnSaveLoadOutComplete"
4593  04                 const type 4
4594  0E                 string size (14)
4595  6747616D65537461+  "gGameSta"
459D  74734D677200       "tsMgr\0"
                         const [18]: "gGameStatsMgr"
45A3  01                 const type 3
45A4  490BF831           const [19]: (838339401)
45A8  01                 const type 3
45A9  1A4B27EC           const [20]: (-332969190)
45AD  04                 const type 4
45AE  0A                 string size (10)
45AF  4C4F4F4B5F4C494E+  "LOOK_LIN"
45B7  4B00               "K\0"
                         const [21]: "LOOK_LINK"
45B9  04                 const type 4
45BA  08                 string size (8)
45BB  4150504C49454400   "APPLIED\0"
                         const [22]: "APPLIED"
                         * functions:
45C3  00                 sizep (0)
                         * lines:
45C4  4F                 sizelineinfo (79)
                         [pc] (line)
45C5  93                 [01] (-109)
45C6  02                 [02] (-109)
45C7  00                 [03] (-109)
45C8  00                 [04] (-109)
45C9  93                 [05] (-109)
45CA  02                 [06] (-108)
45CB  00                 [07] (-108)
45CC  00                 [08] (-108)
45CD  93                 [09] (-108)
45CE  02                 [10] (-108)
45CF  00                 [11] (-108)
45D0  00                 [12] (-108)
45D1  93                 [13] (-108)
45D2  02                 [14] (-108)
45D3  00                 [15] (-108)
45D4  00                 [16] (-108)
45D5  93                 [17] (-108)
45D6  02                 [18] (-107)
45D7  00                 [19] (-107)
45D8  00                 [20] (-107)
45D9  94                 [21] (-107)
45DA  02                 [22] (-105)
45DB  00                 [23] (-102)
45DC  00                 [24] (-102)
45DD  94                 [25] (-102)
45DE  02                 [26] (-101)
45DF  00                 [27] (-101)
45E0  00                 [28] (-101)
45E1  94                 [29] (-101)
45E2  02                 [30] (-101)
45E3  00                 [31] (-100)
45E4  00                 [32] (-97)
45E5  94                 [33] (-97)
45E6  02                 [34] (-97)
45E7  00                 [35] (-97)
45E8  00                 [36] (-97)
45E9  94                 [37] (-97)
45EA  02                 [38] (-97)
45EB  00                 [39] (-97)
45EC  00                 [40] (-96)
45ED  94                 [41] (-93)
45EE  02                 [42] (-93)
45EF  00                 [43] (-93)
45F0  00                 [44] (-93)
45F1  94                 [45] (-92)
45F2  02                 [46] (-92)
45F3  00                 [47] (-92)
45F4  00                 [48] (-92)
45F5  94                 [49] (-92)
45F6  02                 [50] (-92)
45F7  00                 [51] (-92)
45F8  00                 [52] (-92)
45F9  94                 [53] (-92)
45FA  02                 [54] (-92)
45FB  00                 [55] (-92)
45FC  00                 [56] (-90)
45FD  94                 [57] (-90)
45FE  02                 [58] (-90)
45FF  00                 [59] (-90)
4600  00                 [60] (-90)
4601  94                 [61] (-90)
4602  02                 [62] (-90)
4603  00                 [63] (-89)
4604  00                 [64] (-89)
4605  94                 [65] (-89)
4606  02                 [66] (-89)
4607  00                 [67] (-87)
4608  00                 [68] (-87)
4609  95                 [69] (-87)
460A  02                 [70] (-87)
460B  00                 [71] (-87)
460C  00                 [72] (-86)
460D  95                 [73] (-86)
460E  02                 [74] (-86)
460F  00                 [75] (-86)
4610  00                 [76] (-86)
4611  95                 [77] (-86)
4612  02                 [78] (-86)
4613  00                 [79] (-84)
                         * locals:
4701  00                 sizelocvars (0)
                         * upvalues:
4702  00                 sizeupvalues (0)
                         ** end of function **

                         
4703                     ** function [15] definition (level 2)
                         ** start of function **
4703  00                 string size (0)
                         source name: (none)
4705  05                 line defined (686)
4706  C5                 last line defined (709)
4707  05                 nups (5)
4708  05                 numparams (0)
4709  00                 is_vararg (0)
470A  00                 maxstacksize (17)
                         * code:
470C  5B                 sizecode (91)
470D  19000000           [01] loadk      0   0        ; ""
4711  59000000           [02] loadk      1   0        ; ""
4715  9D400000           [03] getglobal  2   1        ; 1074689893
4719  D3000000           [04] getupval   3   0      
471D  A2800001           [05] call       2   2   2  
4721  98400000           [06] test       2       1    ; to [8] if false
4725  1A400680           [07] jmp        26           ; to [34]
4729  9D800000           [08] getglobal  2   2        ; gGameRules
472D  A4C04001           [09] self       2   2   259  ; -1049586730
4731  A2800001           [10] call       2   2   2  
4735  DD400000           [11] getglobal  3   1        ; 1074689893
4739  12010001           [12] move       4   2      
473D  E2800001           [13] call       3   2   2  
4741  D8400000           [14] test       3       1    ; to [16] if false
4745  1A400480           [15] jmp        18           ; to [34]
4749  E4004101           [16] self       3   2   260  ; 1660666296
474D  53010000           [17] getupval   5   0      
4751  4E41C102           [18] gettable   5   5   261  ; "mItemType"
4755  E2808001           [19] call       3   3   2  
4759  1D410000           [20] getglobal  4   1        ; 1074689893
475D  52018001           [21] move       5   3      
4761  22810001           [22] call       4   2   2  
4765  18410000           [23] test       4       1    ; to [25] if false
4769  1A000280           [24] jmp        9            ; to [34]
476D  1D810100           [25] getglobal  4   6        ; mMovie
4771  24C14102           [26] self       4   4   263  ; 98241492
4775  A401C201           [27] self       6   3   264  ; 1634497718
4779  A2810001           [28] call       6   2   2  
477D  A4414203           [29] self       6   6   265  ; 1590141906
4781  A2810001           [30] call       6   2   2  
4785  D7010000           [31] loadbool   7   0   0    ; false
4789  22810002           [32] call       4   4   2  
478D  12000002           [33] move       0   4      
4791  1D410000           [34] getglobal  4   1        ; 1074689893
4795  53018000           [35] getupval   5   1      
4799  22810001           [36] call       4   2   2  
479D  18410000           [37] test       4       1    ; to [39] if false
47A1  1A000180           [38] jmp        5            ; to [44]
47A5  13010001           [39] getupval   4   2      
47A9  0E814202           [40] gettable   4   4   266  ; "CONFIG_TYPES"
47AD  53018000           [41] getupval   5   1      
47B1  43C1C202           [42] add        5   5   267  ; 0
47B5  4E400102           [43] gettable   1   4   5  
47B9  1D810100           [44] getglobal  4   6        ; mMovie
47BD  24C14102           [45] self       4   4   263  ; 98241492
47C1  93018001           [46] getupval   6   3      
47C5  D7010000           [47] loadbool   7   0   0    ; false
47C9  22810002           [48] call       4   4   2  
47CD  5D810100           [49] getglobal  5   6        ; mMovie
47D1  64C1C102           [50] self       5   5   263  ; 98241492
47D5  D9010300           [51] loadk      7   12       ; "/Lotus/Language/Menu/AppearancePreview_ConfirmTitle"
47D9  17020000           [52] loadbool   8   0   0    ; false
47DD  62810002           [53] call       5   4   2  
47E1  9D810100           [54] getglobal  6   6        ; mMovie
47E5  A4C14103           [55] self       6   6   263  ; 98241492
47E9  19420300           [56] loadk      8   13       ; "/Lotus/Language/Menu/AppearancePreview_ConfirmDesc"
47ED  57020000           [57] loadbool   9   0   0    ; false
47F1  8BC20000           [58] newtable   10  0   3    ; array=0, hash=3
47F5  8C020087           [59] settable   10  270 0    ; "WEAPON"
47F9  8C428087           [60] settable   10  271 1    ; "CONFIG"
47FD  8C020188           [61] settable   10  272 4    ; "OVERRIDE"
4801  A2818002           [62] call       6   5   2  
4805  DD810100           [63] getglobal  7   6        ; mMovie
4809  E4C1C103           [64] self       7   7   263  ; 98241492
480D  59420400           [65] loadk      9   17       ; "/Lotus/Language/Menu/AppearancePreview_ConfirmShortDesc1"
4811  97020000           [66] loadbool   10  0   0    ; false
4815  CB820000           [67] newtable   11  0   2    ; array=0, hash=2
4819  CC020087           [68] settable   11  270 0    ; "WEAPON"
481D  CC428087           [69] settable   11  271 1    ; "CONFIG"
4821  E2818002           [70] call       7   5   2  
4825  1D820100           [71] getglobal  8   6        ; mMovie
4829  24C24104           [72] self       8   8   263  ; 98241492
482D  99820400           [73] loadk      10  18       ; "/Lotus/Language/Menu/AppearancePreview_ConfirmShortDesc2"
4831  D7020000           [74] loadbool   11  0   0    ; false
4835  0B430000           [75] newtable   12  0   1    ; array=0, hash=1
4839  0C030188           [76] settable   12  272 4    ; "OVERRIDE"
483D  22828002           [77] call       8   5   2  
4841  53020002           [78] getupval   9   4      
4845  4EC2C404           [79] gettable   9   9   275  ; 613834769
4849  9D820100           [80] getglobal  10  6        ; mMovie
484D  DD020500           [81] getglobal  11  20       ; string
4851  CE42C505           [82] gettable   11  11  277  ; -1110387163
4855  12030002           [83] move       12  4      
4859  E2820001           [84] call       11  2   2  
485D  12038002           [85] move       12  5      
4861  52038003           [86] move       13  7      
4865  92030004           [87] move       14  8      
4869  D9830500           [88] loadk      15  22       ; "EquipAppearance"
486D  12040003           [89] move       16  6      
4871  62420004           [90] call       9   8   1  
4875  1E008000           [91] return     0   1      
                         * constants:
4879  17                 sizek (23)
487A  04                 const type 4
487B  01                 string size (0)
                         const [0]: ""
487D  01                 const type 3
487E  65770E40           const [1]: (1074689893)
4882  04                 const type 4
4883  0B                 string size (11)
4884  6747616D6552756C+  "gGameRul"
488C  657300             "es\0"
                         const [2]: "gGameRules"
488F  01                 const type 3
4890  D69370C1           const [3]: (-1049586730)
4894  01                 const type 3
4895  B8C1FB62           const [4]: (1660666296)
4899  04                 const type 4
489A  0A                 string size (10)
489B  6D4974656D547970+  "mItemTyp"
48A3  6500               "e\0"
                         const [5]: "mItemType"
48A5  04                 const type 4
48A6  07                 string size (7)
48A7  6D4D6F76696500     "mMovie\0"
                         const [6]: "mMovie"
48AE  01                 const type 3
48AF  D40BDB05           const [7]: (98241492)
48B3  01                 const type 3
48B4  B6746C61           const [8]: (1634497718)
48B8  01                 const type 3
48B9  D2A3C75E           const [9]: (1590141906)
48BD  04                 const type 4
48BE  0D                 string size (13)
48BF  434F4E4649475F54+  "CONFIG_T"
48C7  5950455300         "YPES\0"
                         const [10]: "CONFIG_TYPES"
48CC  03                 const type 3
48CD  0000803F           const [11]: (0)
48D1  04                 const type 4
48D2  34                 string size (52)
48D3  2F4C6F7475732F4C+  "/Lotus/L"
48DB  616E67756167652F+  "anguage/"
48E3  4D656E752F417070+  "Menu/App"
48EB  656172616E636550+  "earanceP"
48F3  7265766965775F43+  "review_C"
48FB  6F6E6669726D5469+  "onfirmTi"
4903  746C6500           "tle\0"
                         const [12]: "/Lotus/Language/Menu/AppearancePreview_ConfirmTitle"
4907  04                 const type 4
4908  33                 string size (51)
4909  2F4C6F7475732F4C+  "/Lotus/L"
4911  616E67756167652F+  "anguage/"
4919  4D656E752F417070+  "Menu/App"
4921  656172616E636550+  "earanceP"
4929  7265766965775F43+  "review_C"
4931  6F6E6669726D4465+  "onfirmDe"
4939  736300             "sc\0"
                         const [13]: "/Lotus/Language/Menu/AppearancePreview_ConfirmDesc"
493C  04                 const type 4
493D  07                 string size (7)
493E  574541504F4E00     "WEAPON\0"
                         const [14]: "WEAPON"
4945  04                 const type 4
4946  07                 string size (7)
4947  434F4E46494700     "CONFIG\0"
                         const [15]: "CONFIG"
494E  04                 const type 4
494F  09                 string size (9)
4950  4F56455252494445+  "OVERRIDE"
4958  00                 "\0"
                         const [16]: "OVERRIDE"
4959  04                 const type 4
495A  39                 string size (57)
495B  2F4C6F7475732F4C+  "/Lotus/L"
4963  616E67756167652F+  "anguage/"
496B  4D656E752F417070+  "Menu/App"
4973  656172616E636550+  "earanceP"
497B  7265766965775F43+  "review_C"
4983  6F6E6669726D5368+  "onfirmSh"
498B  6F72744465736331+  "ortDesc1"
4993  00                 "\0"
                         const [17]: "/Lotus/Language/Menu/AppearancePreview_ConfirmShortDesc1"
4994  04                 const type 4
4995  39                 string size (57)
4996  2F4C6F7475732F4C+  "/Lotus/L"
499E  616E67756167652F+  "anguage/"
49A6  4D656E752F417070+  "Menu/App"
49AE  656172616E636550+  "earanceP"
49B6  7265766965775F43+  "review_C"
49BE  6F6E6669726D5368+  "onfirmSh"
49C6  6F72744465736332+  "ortDesc2"
49CE  00                 "\0"
                         const [18]: "/Lotus/Language/Menu/AppearancePreview_ConfirmShortDesc2"
49CF  01                 const type 3
49D0  11609624           const [19]: (613834769)
49D4  04                 const type 4
49D5  07                 string size (7)
49D6  737472696E6700     "string\0"
                         const [20]: "string"
49DD  01                 const type 3
49DE  25D6D0BD           const [21]: (-1110387163)
49E2  04                 const type 4
49E3  10                 string size (16)
49E4  4571756970417070+  "EquipApp"
49EC  656172616E636500   "earance\0"
                         const [22]: "EquipAppearance"
                         * functions:
49F4  00                 sizep (0)
                         * lines:
49F5  5B                 sizelineinfo (91)
                         [pc] (line)
49F6  AF                 [01] (-81)
49F7  02                 [02] (-80)
49F8  00                 [03] (-79)
49F9  00                 [04] (-79)
49FA  B0                 [05] (-79)
49FB  02                 [06] (-79)
49FC  00                 [07] (-79)
49FD  00                 [08] (-78)
49FE  B1                 [09] (-78)
49FF  02                 [10] (-78)
4A00  00                 [11] (-77)
4A01  00                 [12] (-77)
4A02  B1                 [13] (-77)
4A03  02                 [14] (-77)
4A04  00                 [15] (-77)
4A05  00                 [16] (-76)
4A06  B1                 [17] (-76)
4A07  02                 [18] (-76)
4A08  00                 [19] (-76)
4A09  00                 [20] (-75)
4A0A  B1                 [21] (-75)
4A0B  02                 [22] (-75)
4A0C  00                 [23] (-75)
4A0D  00                 [24] (-75)
4A0E  B1                 [25] (-74)
4A0F  02                 [26] (-74)
4A10  00                 [27] (-74)
4A11  00                 [28] (-74)
4A12  B2                 [29] (-74)
4A13  02                 [30] (-74)
4A14  00                 [31] (-74)
4A15  00                 [32] (-74)
4A16  B2                 [33] (-74)
4A17  02                 [34] (-69)
4A18  00                 [35] (-69)
4A19  00                 [36] (-69)
4A1A  B2                 [37] (-69)
4A1B  02                 [38] (-69)
4A1C  00                 [39] (-68)
4A1D  00                 [40] (-68)
4A1E  B3                 [41] (-68)
4A1F  02                 [42] (-68)
4A20  00                 [43] (-68)
4A21  00                 [44] (-65)
4A22  B3                 [45] (-65)
4A23  02                 [46] (-65)
4A24  00                 [47] (-65)
4A25  00                 [48] (-65)
4A26  B3                 [49] (-64)
4A27  02                 [50] (-64)
4A28  00                 [51] (-64)
4A29  00                 [52] (-64)
4A2A  B3                 [53] (-64)
4A2B  02                 [54] (-63)
4A2C  00                 [55] (-63)
4A2D  00                 [56] (-63)
4A2E  B3                 [57] (-63)
4A2F  02                 [58] (-63)
4A30  00                 [59] (-63)
4A31  00                 [60] (-63)
4A32  B4                 [61] (-63)
4A33  02                 [62] (-63)
4A34  00                 [63] (-62)
4A35  00                 [64] (-62)
4A36  B4                 [65] (-62)
4A37  02                 [66] (-62)
4A38  00                 [67] (-62)
4A39  00                 [68] (-62)
4A3A  B4                 [69] (-62)
4A3B  02                 [70] (-62)
4A3C  00                 [71] (-61)
4A3D  00                 [72] (-61)
4A3E  B4                 [73] (-61)
4A3F  02                 [74] (-61)
4A40  00                 [75] (-61)
4A41  00                 [76] (-61)
4A42  B5                 [77] (-61)
4A43  02                 [78] (-60)
4A44  00                 [79] (-60)
4A45  00                 [80] (-60)
4A46  B5                 [81] (-60)
4A47  02                 [82] (-60)
4A48  00                 [83] (-60)
4A49  00                 [84] (-60)
4A4A  B5                 [85] (-60)
4A4B  02                 [86] (-60)
4A4C  00                 [87] (-60)
4A4D  00                 [88] (-60)
4A4E  B5                 [89] (-60)
4A4F  02                 [90] (-60)
4A50  00                 [91] (-59)
                         * locals:
4B62  00                 sizelocvars (0)
                         * upvalues:
4B63  00                 sizeupvalues (0)
                         ** end of function **

                         
4B64                     ** function [16] definition (level 2)
                         ** start of function **
4B64  00                 string size (0)
                         source name: (none)
4B66  05                 line defined (711)
4B67  EB                 last line defined (747)
4B68  05                 nups (7)
4B69  07                 numparams (2)
4B6A  02                 is_vararg (0)
4B6B  00                 maxstacksize (10)
                         * code:
4B6D  68                 sizecode (104)
4B6E  9D000000           [001] getglobal  2   0        ; 1074689893
4B72  DD400000           [002] getglobal  3   1        ; gGameRules
4B76  A2800001           [003] call       2   2   2  
4B7A  98400000           [004] test       2       1    ; to [6] if false
4B7E  1A800280           [005] jmp        11           ; to [17]
4B82  9D400000           [006] getglobal  2   1        ; gGameRules
4B86  A4804001           [007] self       2   2   258  ; -1957065004
4B8A  1DC10000           [008] getglobal  4   3        ; gLotusPhotoBoothGameRulesType
4B8E  A2808001           [009] call       2   3   2  
4B92  98000000           [010] test       2       0    ; to [12] if true
4B96  1A000180           [011] jmp        5            ; to [17]
4B9A  9D400000           [012] getglobal  2   1        ; gGameRules
4B9E  A4004101           [013] self       2   2   260  ; -1370085094
4BA2  A2800001           [014] call       2   2   2  
4BA6  98400000           [015] test       2       1    ; to [17] if false
4BAA  1AC00080           [016] jmp        4            ; to [21]
4BAE  93000000           [017] getupval   2   0      
4BB2  8E404101           [018] gettable   2   2   261  ; 2122082048
4BB6  D9800100           [019] loadk      3   6        ; "OnUpdateSessionSettings"
4BBA  A2400001           [020] call       2   2   1  
4BBE  9DC00100           [021] getglobal  2   7        ; gRegion
4BC2  A4004201           [022] self       2   2   264  ; 925677844
4BC6  A2800001           [023] call       2   2   2  
4BCA  DD000000           [024] getglobal  3   0        ; 1074689893
4BCE  12010001           [025] move       4   2      
4BD2  E2800001           [026] call       3   2   2  
4BD6  D8400000           [027] test       3       1    ; to [29] if false
4BDA  1A400E80           [028] jmp        58           ; to [87]
4BDE  E4404201           [029] self       3   2   265  ; -1813551355
4BE2  E2800001           [030] call       3   2   2  
4BE6  1D010000           [031] getglobal  4   0        ; 1074689893
4BEA  52018001           [032] move       5   3      
4BEE  22810001           [033] call       4   2   2  
4BF2  18410000           [034] test       4       1    ; to [36] if false
4BF6  1A800C80           [035] jmp        51           ; to [87]
4BFA  2481C201           [036] self       4   3   266  ; -1421644046
4BFE  9DC10200           [037] getglobal  6   11       ; equipEffect
4C02  DD010300           [038] getglobal  7   12       ; EMPTY_SYMBOL
4C06  22410002           [039] call       4   4   1  
4C0A  1D410300           [040] getglobal  4   13       ; _T
4C0E  0E814302           [041] gettable   4   4   270  ; "InHub"
4C12  18010000           [042] test       4       0    ; to [44] if true
4C16  1A400380           [043] jmp        14           ; to [58]
4C1A  19C10300           [044] loadk      4   15       ; "{\"loadout\":"
4C1E  5D410000           [045] getglobal  5   1        ; gGameRules
4C22  6401C402           [046] self       5   5   272  ; -1183995340
4C26  62810001           [047] call       5   2   2  
4C2A  99410400           [048] loadk      6   17       ; "}"
4C2E  02810102           [049] concat     4   4   6  
4C32  5D410000           [050] getglobal  5   1        ; gGameRules
4C36  6481C402           [051] self       5   5   274  ; -686706828
4C3A  D2010002           [052] move       7   4      
4C3E  62418001           [053] call       5   3   1  
4C42  5D410000           [054] getglobal  5   1        ; gGameRules
4C46  64C1C402           [055] self       5   5   275  ; 1880808775
4C4A  D2018001           [056] move       7   3      
4C4E  62418001           [057] call       5   3   1  
4C52  53018000           [058] getupval   5   1      
4C56  9D010500           [059] getglobal  6   20       ; Lotus_Game
4C5A  8E414503           [060] gettable   6   6   277  ; "LOT_NORMAL"
fail op	35
4C5E  23808102           [061] close      0  
4C62  1AC00580           [062] jmp        24           ; to [87]
4C66  53010001           [063] getupval   5   2      
4C6A  4E81C502           [064] gettable   5   5   278  ; "mEquippedItem"
4C6E  4EC1C502           [065] gettable   5   5   279  ; "mItem"
4C72  4E01C602           [066] gettable   5   5   280  ; "mItemId"
4C76  4E41C602           [067] gettable   5   5   281  ; "mId"
4C7A  93018001           [068] getupval   6   3      
4C7E  8E014603           [069] gettable   6   6   280  ; "mItemId"
4C82  8E414603           [070] gettable   6   6   281  ; "mId"
fail op	35
4C86  23808102           [071] close      0  
4C8A  1A400380           [072] jmp        14           ; to [87]
4C8E  53010001           [073] getupval   5   2      
4C92  4E81C502           [074] gettable   5   5   278  ; "mEquippedItem"
4C96  4E81C602           [075] gettable   5   5   282  ; "mCustSlot"
4C9A  93010002           [076] getupval   6   4      
fail op	35
4C9E  23808102           [077] close      0  
4CA2  1AC00180           [078] jmp        8            ; to [87]
4CA6  64C1C601           [079] self       5   3   283  ; -1917464545
4CAA  62810001           [080] call       5   2   2  
4CAE  6401C702           [081] self       5   5   284  ; -1192489543
4CB2  DD410700           [082] getglobal  7   29       ; gGameData
4CB6  E481C703           [083] self       7   7   286  ; 51109503
4CBA  E2810001           [084] call       7   2   2  
4CBE  13028000           [085] getupval   8   1      
4CC2  62410002           [086] call       5   4   1  
4CC6  5DC10700           [087] getglobal  5   31       ; gFlashMgr
4CCA  6401C802           [088] self       5   5   288  ; 1634586770
4CCE  D3018002           [089] getupval   7   5      
4CD2  62818001           [090] call       5   3   2  
4CD6  9D010000           [091] getglobal  6   0        ; 1074689893
4CDA  D2018002           [092] move       7   5      
4CDE  A2810001           [093] call       6   2   2  
4CE2  98410000           [094] test       6       1    ; to [96] if false
4CE6  1A400180           [095] jmp        6            ; to [102]
4CEA  A441C802           [096] self       6   5   289  ; 1167009705
4CEE  19820800           [097] loadk      8   34       ; "OnAppearanceCopied"
4CF2  53028001           [098] getupval   9   3      
4CF6  4E02C604           [099] gettable   9   9   280  ; "mItemId"
4CFA  4E42C604           [100] gettable   9   9   281  ; "mId"
4CFE  A2410002           [101] call       6   4   1  
4D02  93010003           [102] getupval   6   6      
4D06  A2418000           [103] call       6   1   1  
4D0A  1E008000           [104] return     0   1      
                         * constants:
4D0E  23                 sizek (35)
4D0F  01                 const type 3
4D10  65770E40           const [0]: (1074689893)
4D14  04                 const type 4
4D15  0B                 string size (11)
4D16  6747616D6552756C+  "gGameRul"
4D1E  657300             "es\0"
                         const [1]: "gGameRules"
4D21  01                 const type 3
4D22  D48E598B           const [2]: (-1957065004)
4D26  04                 const type 4
4D27  1E                 string size (30)
4D28  674C6F7475735068+  "gLotusPh"
4D30  6F746F426F6F7468+  "otoBooth"
4D38  47616D6552756C65+  "GameRule"
4D40  735479706500       "sType\0"
                         const [3]: "gLotusPhotoBoothGameRulesType"
4D46  01                 const type 3
4D47  1A2956AE           const [4]: (-1370085094)
4D4B  01                 const type 3
4D4C  00677C7E           const [5]: (2122082048)
4D50  04                 const type 4
4D51  18                 string size (24)
4D52  4F6E557064617465+  "OnUpdate"
4D5A  53657373696F6E53+  "SessionS"
4D62  657474696E677300   "ettings\0"
                         const [6]: "OnUpdateSessionSettings"
4D6A  04                 const type 4
4D6B  08                 string size (8)
4D6C  67526567696F6E00   "gRegion\0"
                         const [7]: "gRegion"
4D74  01                 const type 3
4D75  14B92C37           const [8]: (925677844)
4D79  01                 const type 3
4D7A  0567E793           const [9]: (-1813551355)
4D7E  01                 const type 3
4D7F  F26E43AB           const [10]: (-1421644046)
4D83  04                 const type 4
4D84  0C                 string size (12)
4D85  6571756970456666+  "equipEff"
4D8D  65637400           "ect\0"
                         const [11]: "equipEffect"
4D91  04                 const type 4
4D92  0D                 string size (13)
4D93  454D5054595F5359+  "EMPTY_SY"
4D9B  4D424F4C00         "MBOL\0"
                         const [12]: "EMPTY_SYMBOL"
4DA0  04                 const type 4
4DA1  03                 string size (3)
4DA2  5F5400             "_T\0"
                         const [13]: "_T"
4DA5  04                 const type 4
4DA6  06                 string size (6)
4DA7  496E48756200       "InHub\0"
                         const [14]: "InHub"
4DAD  04                 const type 4
4DAE  0C                 string size (12)
4DAF  7B226C6F61646F75+  "{\"loadou"
4DB7  74223A00           "t\":\0"
                         const [15]: "{\"loadout\":"
4DBB  01                 const type 3
4DBC  34AA6DB9           const [16]: (-1183995340)
4DC0  04                 const type 4
4DC1  02                 string size (2)
4DC2  7D00               "}\0"
                         const [17]: "}"
4DC4  01                 const type 3
4DC5  74AF11D7           const [18]: (-686706828)
4DC9  01                 const type 3
4DCA  47DD1A70           const [19]: (1880808775)
4DCE  04                 const type 4
4DCF  0B                 string size (11)
4DD0  4C6F7475735F4761+  "Lotus_Ga"
4DD8  6D6500             "me\0"
                         const [20]: "Lotus_Game"
4DDB  04                 const type 4
4DDC  0B                 string size (11)
4DDD  4C4F545F4E4F524D+  "LOT_NORM"
4DE5  414C00             "AL\0"
                         const [21]: "LOT_NORMAL"
4DE8  04                 const type 4
4DE9  0E                 string size (14)
4DEA  6D45717569707065+  "mEquippe"
4DF2  644974656D00       "dItem\0"
                         const [22]: "mEquippedItem"
4DF8  04                 const type 4
4DF9  06                 string size (6)
4DFA  6D4974656D00       "mItem\0"
                         const [23]: "mItem"
4E00  04                 const type 4
4E01  08                 string size (8)
4E02  6D4974656D496400   "mItemId\0"
                         const [24]: "mItemId"
4E0A  04                 const type 4
4E0B  04                 string size (4)
4E0C  6D496400           "mId\0"
                         const [25]: "mId"
4E10  04                 const type 4
4E11  0A                 string size (10)
4E12  6D43757374536C6F+  "mCustSlo"
4E1A  7400               "t\0"
                         const [26]: "mCustSlot"
4E1C  01                 const type 3
4E1D  1FD0B58D           const [27]: (-1917464545)
4E21  01                 const type 3
4E22  B90DECB8           const [28]: (-1192489543)
4E26  04                 const type 4
4E27  0A                 string size (10)
4E28  6747616D65446174+  "gGameDat"
4E30  6100               "a\0"
                         const [29]: "gGameData"
4E32  01                 const type 3
4E33  7FDE0B03           const [30]: (51109503)
4E37  04                 const type 4
4E38  0A                 string size (10)
4E39  67466C6173684D67+  "gFlashMg"
4E41  7200               "r\0"
                         const [31]: "gFlashMgr"
4E43  01                 const type 3
4E44  92D06D61           const [32]: (1634586770)
4E48  01                 const type 3
4E49  A9278F45           const [33]: (1167009705)
4E4D  04                 const type 4
4E4E  13                 string size (19)
4E4F  4F6E417070656172+  "OnAppear"
4E57  616E6365436F7069+  "anceCopi"
4E5F  656400             "ed\0"
                         const [34]: "OnAppearanceCopied"
                         * functions:
4E62  00                 sizep (0)
                         * lines:
4E63  68                 sizelineinfo (104)
                         [pc] (line)
4E64  C8                 [001] (-56)
4E65  02                 [002] (-56)
4E66  00                 [003] (-56)
4E67  00                 [004] (-56)
4E68  C8                 [005] (-56)
4E69  02                 [006] (-56)
4E6A  00                 [007] (-56)
4E6B  00                 [008] (-56)
4E6C  C8                 [009] (-56)
4E6D  02                 [010] (-56)
4E6E  00                 [011] (-56)
4E6F  00                 [012] (-56)
4E70  C8                 [013] (-56)
4E71  02                 [014] (-56)
4E72  00                 [015] (-56)
4E73  00                 [016] (-56)
4E74  C8                 [017] (-55)
4E75  02                 [018] (-55)
4E76  00                 [019] (-55)
4E77  00                 [020] (-55)
4E78  C8                 [021] (-52)
4E79  02                 [022] (-52)
4E7A  00                 [023] (-52)
4E7B  00                 [024] (-51)
4E7C  C8                 [025] (-51)
4E7D  02                 [026] (-51)
4E7E  00                 [027] (-51)
4E7F  00                 [028] (-51)
4E80  C8                 [029] (-50)
4E81  02                 [030] (-50)
4E82  00                 [031] (-49)
4E83  00                 [032] (-49)
4E84  C8                 [033] (-49)
4E85  02                 [034] (-49)
4E86  00                 [035] (-49)
4E87  00                 [036] (-48)
4E88  C8                 [037] (-48)
4E89  02                 [038] (-48)
4E8A  00                 [039] (-48)
4E8B  00                 [040] (-46)
4E8C  C8                 [041] (-46)
4E8D  02                 [042] (-46)
4E8E  00                 [043] (-46)
4E8F  00                 [044] (-44)
4E90  C8                 [045] (-44)
4E91  02                 [046] (-44)
4E92  00                 [047] (-44)
4E93  00                 [048] (-44)
4E94  C8                 [049] (-44)
4E95  02                 [050] (-43)
4E96  00                 [051] (-43)
4E97  00                 [052] (-43)
4E98  C8                 [053] (-43)
4E99  02                 [054] (-42)
4E9A  00                 [055] (-42)
4E9B  00                 [056] (-42)
4E9C  C8                 [057] (-42)
4E9D  02                 [058] (-38)
4E9E  00                 [059] (-38)
4E9F  00                 [060] (-38)
4EA0  C8                 [061] (-38)
4EA1  02                 [062] (-38)
4EA2  00                 [063] (-37)
4EA3  00                 [064] (-37)
4EA4  C9                 [065] (-37)
4EA5  02                 [066] (-37)
4EA6  00                 [067] (-37)
4EA7  00                 [068] (-37)
4EA8  C9                 [069] (-37)
4EA9  02                 [070] (-37)
4EAA  00                 [071] (-37)
4EAB  00                 [072] (-37)
4EAC  C9                 [073] (-36)
4EAD  02                 [074] (-36)
4EAE  00                 [075] (-36)
4EAF  00                 [076] (-36)
4EB0  C9                 [077] (-36)
4EB1  02                 [078] (-36)
4EB2  00                 [079] (-34)
4EB3  00                 [080] (-34)
4EB4  CC                 [081] (-34)
4EB5  02                 [082] (-34)
4EB6  00                 [083] (-34)
4EB7  00                 [084] (-34)
4EB8  CC                 [085] (-34)
4EB9  02                 [086] (-34)
4EBA  00                 [087] (-29)
4EBB  00                 [088] (-29)
4EBC  CC                 [089] (-29)
4EBD  02                 [090] (-29)
4EBE  00                 [091] (-28)
4EBF  00                 [092] (-28)
4EC0  CD                 [093] (-28)
4EC1  02                 [094] (-28)
4EC2  00                 [095] (-28)
4EC3  00                 [096] (-25)
4EC4  CD                 [097] (-25)
4EC5  02                 [098] (-25)
4EC6  00                 [099] (-25)
4EC7  00                 [100] (-25)
4EC8  CD                 [101] (-25)
4EC9  02                 [102] (-22)
4ECA  00                 [103] (-22)
4ECB  00                 [104] (-21)
                         * locals:
5004  00                 sizelocvars (0)
                         * upvalues:
5005  00                 sizeupvalues (0)
                         ** end of function **

                         
5006                     ** function [17] definition (level 2)
                         ** start of function **
5006  00                 string size (0)
                         source name: (none)
5008  05                 line defined (749)
5009  EE                 last line defined (750)
500A  05                 nups (0)
500B  00                 numparams (0)
500C  00                 is_vararg (0)
500D  00                 maxstacksize (2)
                         * code:
500F  01                 sizecode (1)
5010  1E008000           [1] return     0   1      
                         * constants:
5014  00                 sizek (0)
                         * functions:
5015  00                 sizep (0)
                         * lines:
5016  01                 sizelineinfo (1)
                         [pc] (line)
5017  EE                 [1] (-18)
                         * locals:
501B  00                 sizelocvars (0)
                         * upvalues:
501C  00                 sizeupvalues (0)
                         ** end of function **

                         
501D                     ** function [18] definition (level 2)
                         ** start of function **
501D  00                 string size (0)
                         source name: (none)
501F  05                 line defined (752)
5020  80                 last line defined (768)
5021  06                 nups (2)
5022  02                 numparams (0)
5023  00                 is_vararg (0)
5024  00                 maxstacksize (15)
                         * code:
5026  47                 sizecode (71)
5027  1D000000           [01] getglobal  0   0        ; 1074689893
502B  53000000           [02] getupval   1   0      
502F  22800001           [03] call       0   2   2  
5033  18000000           [04] test       0       0    ; to [6] if true
5037  1A000080           [05] jmp        1            ; to [7]
503B  1E008000           [06] return     0   1      
503F  0B008001           [07] newtable   0   3   0    ; array=3, hash=0
5043  5D400000           [08] getglobal  1   1        ; unowedItemBgMaterial
5047  9D800000           [09] getglobal  2   2        ; unownedItemVisRangeMaterial
504B  DDC00000           [10] getglobal  3   3        ; unownedItemTextVisRangeMaterial
504F  1B408001           [11] setlist    0   3   1    ; index 1 to 3
5053  5D000100           [12] getglobal  1   4        ; -174740002
5057  9D400100           [13] getglobal  2   5        ; mMovie
505B  A4804101           [14] self       2   2   262  ; 1803241227
505F  19C10100           [15] loadk      4   7        ; "ItemGrid"
5063  59010200           [16] loadk      5   8        ; "_y"
5067  A2000002           [17] call       2   4   0  
506B  62800000           [18] call       1   0   2  
506F  93000000           [19] getupval   2   0      
5073  8E404201           [20] gettable   2   2   265  ; "mRowSeparation"
5077  D3000000           [21] getupval   3   0      
507B  CE80C201           [22] gettable   3   3   266  ; "mRows"
507F  84C00001           [23] mul        2   2   3  
5083  D3000000           [24] getupval   3   0      
5087  CEC0C201           [25] gettable   3   3   267  ; "ElementDimBuffer"
508B  8DC00001           [26] sub        2   2   3  
508F  D3008000           [27] getupval   3   1      
5093  CE00C301           [28] gettable   3   3   268  ; 1704170870
5097  1D410100           [29] getglobal  4   5        ; mMovie
509B  53010000           [30] getupval   5   0      
509F  4E41C302           [31] gettable   5   5   269  ; "mInitialY"
50A3  93010000           [32] getupval   6   0      
50A7  8E814303           [33] gettable   6   6   270  ; "ElementHeight"
50AB  9CC14303           [34] div        6   6   271  ; 0
50AF  4D818102           [35] sub        5   5   6  
50B3  43418100           [36] add        5   1   5  
50B7  9CC14301           [37] div        6   2   271  ; 0
50BB  43818102           [38] add        5   5   6  
50BF  E2808001           [39] call       3   3   2  
50C3  13018000           [40] getupval   4   1      
50C7  0E014402           [41] gettable   4   4   272  ; -1736116097
50CB  5D410100           [42] getglobal  5   5        ; mMovie
50CF  92010001           [43] move       6   2      
50D3  22818001           [44] call       4   3   2  
50D7  53018000           [45] getupval   5   1      
50DB  4E41C402           [46] gettable   5   5   273  ; 1938000739
50DF  9D410100           [47] getglobal  6   5        ; mMovie
50E3  D9810400           [48] loadk      7   18       ; 0
50E7  62818001           [49] call       5   3   2  
50EB  9DC10400           [50] getglobal  6   19       ; 1672515847
50EF  D2010000           [51] move       7   0      
50F3  A2010101           [52] call       6   2   4  
50F7  1A800380           [53] jmp        15           ; to [69]
50FB  E4024505           [54] self       11  10  276  ; -1795477990
50FF  5D430500           [55] getglobal  13  21       ; Lotus_Game
5103  4E83C506           [56] gettable   13  13  278  ; "VISIBILITY_CENTER"
5107  92038001           [57] move       14  3      
510B  E2420002           [58] call       11  4   1  
510F  E4024505           [59] self       11  10  276  ; -1795477990
5113  5D430500           [60] getglobal  13  21       ; Lotus_Game
5117  4EC3C506           [61] gettable   13  13  279  ; "VISIBILITY_SIZE"
511B  92030002           [62] move       14  4      
511F  E2420002           [63] call       11  4   1  
5123  E4024505           [64] self       11  10  276  ; -1795477990
5127  5D430500           [65] getglobal  13  21       ; Lotus_Game
512B  4E03C606           [66] gettable   13  13  280  ; "VISIBILITY_FADE_SIZE"
512F  92038002           [67] move       14  5      
5133  E2420002           [68] call       11  4   1  
5137  96810000           [69] tforloop   6       2    ; to [71] if exit
513B  1A80FB7F           [70] jmp        -17          ; to [54]
513F  1E008000           [71] return     0   1      
                         * constants:
5143  19                 sizek (25)
5144  01                 const type 3
5145  65770E40           const [0]: (1074689893)
5149  04                 const type 4
514A  15                 string size (21)
514B  756E6F7765644974+  "unowedIt"
5153  656D42674D617465+  "emBgMate"
515B  7269616C00         "rial\0"
                         const [1]: "unowedItemBgMaterial"
5160  04                 const type 4
5161  1C                 string size (28)
5162  756E6F776E656449+  "unownedI"
516A  74656D5669735261+  "temVisRa"
5172  6E67654D61746572+  "ngeMater"
517A  69616C00           "ial\0"
                         const [2]: "unownedItemVisRangeMaterial"
517E  04                 const type 4
517F  20                 string size (32)
5180  756E6F776E656449+  "unownedI"
5188  74656D5465787456+  "temTextV"
5190  697352616E67654D+  "isRangeM"
5198  6174657269616C00   "aterial\0"
                         const [3]: "unownedItemTextVisRangeMaterial"
51A0  01                 const type 3
51A1  DEAD95F5           const [4]: (-174740002)
51A5  04                 const type 4
51A6  07                 string size (7)
51A7  6D4D6F76696500     "mMovie\0"
                         const [5]: "mMovie"
51AE  01                 const type 3
51AF  0B477B6B           const [6]: (1803241227)
51B3  04                 const type 4
51B4  09                 string size (9)
51B5  4974656D47726964+  "ItemGrid"
51BD  00                 "\0"
                         const [7]: "ItemGrid"
51BE  04                 const type 4
51BF  03                 string size (3)
51C0  5F7900             "_y\0"
                         const [8]: "_y"
51C3  04                 const type 4
51C4  0F                 string size (15)
51C5  6D526F7753657061+  "mRowSepa"
51CD  726174696F6E00     "ration\0"
                         const [9]: "mRowSeparation"
51D4  04                 const type 4
51D5  06                 string size (6)
51D6  6D526F777300       "mRows\0"
                         const [10]: "mRows"
51DC  04                 const type 4
51DD  11                 string size (17)
51DE  456C656D656E7444+  "ElementD"
51E6  696D427566666572+  "imBuffer"
51EE  00                 "\0"
                         const [11]: "ElementDimBuffer"
51EF  01                 const type 3
51F0  76959365           const [12]: (1704170870)
51F4  04                 const type 4
51F5  0A                 string size (10)
51F6  6D496E697469616C+  "mInitial"
51FE  5900               "Y\0"
                         const [13]: "mInitialY"
5200  04                 const type 4
5201  0E                 string size (14)
5202  456C656D656E7448+  "ElementH"
520A  656967687400       "eight\0"
                         const [14]: "ElementHeight"
5210  03                 const type 3
5211  00000040           const [15]: (0)
5215  01                 const type 3
5216  7FF88498           const [16]: (-1736116097)
521A  01                 const type 3
521B  638B8373           const [17]: (1938000739)
521F  03                 const type 3
5220  00002041           const [18]: (0)
5224  01                 const type 3
5225  0791B063           const [19]: (1672515847)
5229  01                 const type 3
522A  1A2EFB94           const [20]: (-1795477990)
522E  04                 const type 4
522F  0B                 string size (11)
5230  4C6F7475735F4761+  "Lotus_Ga"
5238  6D6500             "me\0"
                         const [21]: "Lotus_Game"
523B  04                 const type 4
523C  12                 string size (18)
523D  5649534942494C49+  "VISIBILI"
5245  54595F43454E5445+  "TY_CENTE"
524D  5200               "R\0"
                         const [22]: "VISIBILITY_CENTER"
524F  04                 const type 4
5250  10                 string size (16)
5251  5649534942494C49+  "VISIBILI"
5259  54595F53495A4500   "TY_SIZE\0"
                         const [23]: "VISIBILITY_SIZE"
5261  04                 const type 4
5262  15                 string size (21)
5263  5649534942494C49+  "VISIBILI"
526B  54595F464144455F+  "TY_FADE_"
5273  53495A4500         "SIZE\0"
                         const [24]: "VISIBILITY_FADE_SIZE"
                         * functions:
5278  00                 sizep (0)
                         * lines:
5279  47                 sizelineinfo (71)
                         [pc] (line)
527A  F1                 [01] (-15)
527B  02                 [02] (-15)
527C  00                 [03] (-15)
527D  00                 [04] (-15)
527E  F1                 [05] (-15)
527F  02                 [06] (-14)
5280  00                 [07] (-11)
5281  00                 [08] (-11)
5282  F1                 [09] (-11)
5283  02                 [10] (-11)
5284  00                 [11] (-11)
5285  00                 [12] (-10)
5286  F1                 [13] (-10)
5287  02                 [14] (-10)
5288  00                 [15] (-10)
5289  00                 [16] (-10)
528A  F1                 [17] (-10)
528B  02                 [18] (-10)
528C  00                 [19] (-9)
528D  00                 [20] (-9)
528E  F2                 [21] (-9)
528F  02                 [22] (-9)
5290  00                 [23] (-9)
5291  00                 [24] (-9)
5292  F5                 [25] (-9)
5293  02                 [26] (-9)
5294  00                 [27] (-8)
5295  00                 [28] (-8)
5296  F5                 [29] (-8)
5297  02                 [30] (-8)
5298  00                 [31] (-8)
5299  00                 [32] (-8)
529A  F5                 [33] (-8)
529B  02                 [34] (-8)
529C  00                 [35] (-8)
529D  00                 [36] (-8)
529E  F5                 [37] (-8)
529F  02                 [38] (-8)
52A0  00                 [39] (-8)
52A1  00                 [40] (-7)
52A2  F5                 [41] (-7)
52A3  02                 [42] (-7)
52A4  00                 [43] (-7)
52A5  00                 [44] (-7)
52A6  F6                 [45] (-6)
52A7  02                 [46] (-6)
52A8  00                 [47] (-6)
52A9  00                 [48] (-6)
52AA  F6                 [49] (-6)
52AB  02                 [50] (-5)
52AC  00                 [51] (-5)
52AD  00                 [52] (-5)
52AE  F6                 [53] (-5)
52AF  02                 [54] (-4)
52B0  00                 [55] (-4)
52B1  00                 [56] (-4)
52B2  F6                 [57] (-4)
52B3  02                 [58] (-4)
52B4  00                 [59] (-3)
52B5  00                 [60] (-3)
52B6  F6                 [61] (-3)
52B7  02                 [62] (-3)
52B8  00                 [63] (-3)
52B9  00                 [64] (-2)
52BA  F6                 [65] (-2)
52BB  02                 [66] (-2)
52BC  00                 [67] (-2)
52BD  00                 [68] (-2)
52BE  F6                 [69] (-5)
52BF  02                 [70] (-2)
52C0  00                 [71] (0)
                         * locals:
5396  00                 sizelocvars (0)
                         * upvalues:
5397  00                 sizeupvalues (0)
                         ** end of function **

                         
5398                     ** function [19] definition (level 2)
                         ** start of function **
5398  00                 string size (0)
                         source name: (none)
539A  06                 line defined (770)
539B  8E                 last line defined (782)
539C  06                 nups (4)
539D  04                 numparams (3)
539E  03                 is_vararg (0)
539F  00                 maxstacksize (8)
                         * code:
53A1  1B                 sizecode (27)
53A2  18000000           [01] test       0       0    ; to [3] if true
53A6  1AC00580           [02] jmp        24           ; to [27]
53AA  98400000           [03] test       2       1    ; to [5] if false
53AE  1A400580           [04] jmp        22           ; to [27]
53B2  DD000000           [05] getglobal  3   0        ; gGameRules
53B6  E440C001           [06] self       3   3   257  ; -1049586730
53BA  E2800001           [07] call       3   2   2  
53BE  13018000           [08] getupval   4   1      
53C2  0E814002           [09] gettable   4   4   258  ; 791209889
53C6  52018001           [10] move       5   3      
53CA  97010000           [11] loadbool   6   0   0    ; false
53CE  22818001           [12] call       4   3   2  
fail op	8
53D2  08010000           [13] setupval   4   0      
53D6  13010001           [14] getupval   4   2      
53DA  57018000           [15] loadbool   5   1   0    ; true
53DE  22410001           [16] call       4   2   1  
53E2  1DC10000           [17] getglobal  4   3        ; 1074689893
53E6  53018001           [18] getupval   5   3      
53EA  22810001           [19] call       4   2   2  
53EE  18410000           [20] test       4       1    ; to [22] if false
53F2  1A000180           [21] jmp        5            ; to [27]
53F6  13018001           [22] getupval   4   3      
53FA  24014102           [23] self       4   4   260  ; 1167009705
53FE  99410100           [24] loadk      6   5        ; "TransitionOut"
5402  D9810100           [25] loadk      7   6        ; ""
5406  22410002           [26] call       4   4   1  
540A  1E008000           [27] return     0   1      
                         * constants:
540E  07                 sizek (7)
540F  04                 const type 4
5410  0B                 string size (11)
5411  6747616D6552756C+  "gGameRul"
5419  657300             "es\0"
                         const [0]: "gGameRules"
541C  01                 const type 3
541D  D69370C1           const [1]: (-1049586730)
5421  01                 const type 3
5422  A1E7282F           const [2]: (791209889)
5426  01                 const type 3
5427  65770E40           const [3]: (1074689893)
542B  01                 const type 3
542C  A9278F45           const [4]: (1167009705)
5430  04                 const type 4
5431  0E                 string size (14)
5432  5472616E73697469+  "Transiti"
543A  6F6E4F757400       "onOut\0"
                         const [5]: "TransitionOut"
5440  04                 const type 4
5441  01                 string size (0)
                         const [6]: ""
                         * functions:
5443  00                 sizep (0)
                         * lines:
5444  1B                 sizelineinfo (27)
                         [pc] (line)
5445  03                 [01] (3)
5446  03                 [02] (3)
5447  00                 [03] (3)
5448  00                 [04] (3)
5449  03                 [05] (6)
544A  03                 [06] (6)
544B  00                 [07] (6)
544C  00                 [08] (7)
544D  03                 [09] (7)
544E  03                 [10] (7)
544F  00                 [11] (7)
5450  00                 [12] (7)
5451  03                 [13] (7)
5452  03                 [14] (8)
5453  00                 [15] (8)
5454  00                 [16] (8)
5455  06                 [17] (10)
5456  03                 [18] (10)
5457  00                 [19] (10)
5458  00                 [20] (10)
5459  06                 [21] (10)
545A  03                 [22] (11)
545B  00                 [23] (11)
545C  00                 [24] (11)
545D  06                 [25] (11)
545E  03                 [26] (11)
545F  00                 [27] (14)
                         * locals:
54B1  00                 sizelocvars (0)
                         * upvalues:
54B2  00                 sizeupvalues (0)
                         ** end of function **

                         
54B3                     ** function [20] definition (level 2)
                         ** start of function **
54B3  00                 string size (0)
                         source name: (none)
54B5  06                 line defined (784)
54B6  CE                 last line defined (846)
54B7  06                 nups (6)
54B8  06                 numparams (0)
54B9  00                 is_vararg (0)
54BA  00                 maxstacksize (7)
                         * code:
54BC  5D                 sizecode (93)
54BD  1D000000           [01] getglobal  0   0        ; 849075268
54C1  59400000           [02] loadk      1   1        ; "EE.Interface.Components.Grid"
54C5  22800001           [03] call       0   2   2  
54C9  4E804000           [04] gettable   1   0   258  ; -1703198922
54CD  9DC00000           [05] getglobal  2   3        ; mMovie
54D1  D9000100           [06] loadk      3   4        ; "ItemGrid.Item"
54D5  06010002           [07] loadnil    4   4      
54D9  59410100           [08] loadk      5   5        ; 0
54DD  99810100           [09] loadk      6   6        ; 0
54E1  62800003           [10] call       1   6   2  
fail op	8
54E5  48000000           [11] setupval   1   0      
54E9  53000000           [12] getupval   1   0      
54ED  64C0C100           [13] self       1   1   263  ; 236168549
54F1  D9000200           [14] loadk      3   8        ; "ItemPressed"
54F5  19410200           [15] loadk      4   9        ; "ItemFocused"
54F9  59810200           [16] loadk      5   10       ; "ItemUnfocused"
54FD  62408002           [17] call       1   5   1  
5501  53000000           [18] getupval   1   0      
5505  4C00C385           [19] settable   1   267 268  ; "mSelectElementsOnFocus" 0
5509  53000000           [20] getupval   1   0      
550D  4C80C386           [21] settable   1   269 270  ; "ElementWidth" 0
5511  53000000           [22] getupval   1   0      
5515  4C80C387           [23] settable   1   271 270  ; "ElementHeight" 0
5519  53000000           [24] getupval   1   0      
551D  4C404488           [25] settable   1   272 273  ; "ElementDimBuffer" 0
5521  53000000           [26] getupval   1   0      
5525  4CC04489           [27] settable   1   274 275  ; "Width" 0
5529  53000000           [28] getupval   1   0      
552D  4C40458A           [29] settable   1   276 277  ; "Height" 0
5531  53008000           [30] getupval   1   1      
5535  4E80C500           [31] gettable   1   1   278  ; -1001113320
5539  9DC00000           [32] getglobal  2   3        ; mMovie
553D  D3000000           [33] getupval   3   0      
5541  62408001           [34] call       1   3   1  
5545  53000000           [35] getupval   1   0      
5549  64C0C500           [36] self       1   1   279  ; 1035345719
554D  D9000600           [37] loadk      3   24       ; "ItemGrid.ScrollBar"
5551  19410600           [38] loadk      4   25       ; 0
5555  62400002           [39] call       1   4   1  
5559  53000000           [40] getupval   1   0      
555D  6480C600           [41] self       1   1   282  ; -104757962
5561  62400001           [42] call       1   2   1  
5565  53000000           [43] getupval   1   0      
5569  4C00C78D           [44] settable   1   283 284  ; "mScrollAlwaysVisible" 1
556D  53000000           [45] getupval   1   0      
5571  9D800700           [46] getglobal  2   30       ; unownedItemVisRangeMaterial
5575  4C80808E           [47] settable   1   285 2    ; "VisibleRangeMaterial"
5579  53000000           [48] getupval   1   0      
557D  9D000800           [49] getglobal  2   32       ; unownedItemTextVisRangeMaterial
5581  4C80808F           [50] settable   1   287 2    ; "TextVisibleRangeMaterial"
5585  53000000           [51] getupval   1   0      
5589  9D800800           [52] getglobal  2   34       ; unowedItemBgMaterial
558D  4C808090           [53] settable   1   289 2    ; "RectangleVisibleRangeMaterial"
5591  53000000           [54] getupval   1   0      
5595  A5000000           [55] closure    2   0      
5599  13008000           [56] getupval   0   1      
559D  13000000           [57] getupval   0   0      
55A1  4C808091           [58] settable   1   291 2    ; "mClipCreatedCallback"
55A5  53000000           [59] getupval   1   0      
55A9  A5400000           [60] closure    2   1      
55AD  13000001           [61] getupval   0   2      
55B1  13008001           [62] getupval   0   3      
55B5  4C800092           [63] settable   1   292 2    ; "mOnSelectedCallback"
55B9  53000000           [64] getupval   1   0      
55BD  A5800000           [65] closure    2   2      
55C1  13008000           [66] getupval   0   1      
55C5  13000000           [67] getupval   0   0      
55C9  4C808092           [68] settable   1   293 2    ; "mOnFocusedCallback"
55CD  53000000           [69] getupval   1   0      
55D1  A5C00000           [70] closure    2   3      
55D5  13008000           [71] getupval   0   1      
55D9  13000000           [72] getupval   0   0      
55DD  4C800093           [73] settable   1   294 2    ; "mOnUnfocusedCallback"
55E1  53000000           [74] getupval   1   0      
55E5  A5000100           [75] closure    2   4      
55E9  13008000           [76] getupval   0   1      
55ED  13000000           [77] getupval   0   0      
55F1  4C808093           [78] settable   1   295 2    ; "mElementDrawCallback"
55F5  5DC00000           [79] getglobal  1   3        ; mMovie
55F9  6400CA00           [80] self       1   1   296  ; 386043535
55FD  D9400A00           [81] loadk      3   41       ; "ItemGrid.Title.text"
5601  19810A00           [82] loadk      4   42       ; "/Lotus/Language/Menu/AppearancePreview_GridTitle"
5605  62400002           [83] call       1   4   1  
5609  5DC00000           [84] getglobal  1   3        ; mMovie
560D  64C0CA00           [85] self       1   1   299  ; 471456102
5611  D9000B00           [86] loadk      3   44       ; "ItemGrid.Title"
5615  19410B00           [87] loadk      4   45       ; "textColor"
5619  53010002           [88] getupval   5   4      
561D  4E81CB02           [89] gettable   5   5   302  ; "FloatingContent"
5621  62408002           [90] call       1   5   1  
5625  53008002           [91] getupval   1   5      
5629  62408000           [92] call       1   1   1  
562D  1E008000           [93] return     0   1      
                         * constants:
5631  2F                 sizek (47)
5632  01                 const type 3
5633  44DC9B32           const [0]: (849075268)
5637  04                 const type 4
5638  1D                 string size (29)
5639  45452E496E746572+  "EE.Inter"
5641  666163652E436F6D+  "face.Com"
5649  706F6E656E74732E+  "ponents."
5651  4772696400         "Grid\0"
                         const [1]: "EE.Interface.Components.Grid"
5656  01                 const type 3
5657  363F7B9A           const [2]: (-1703198922)
565B  04                 const type 4
565C  07                 string size (7)
565D  6D4D6F76696500     "mMovie\0"
                         const [3]: "mMovie"
5664  04                 const type 4
5665  0E                 string size (14)
5666  4974656D47726964+  "ItemGrid"
566E  2E4974656D00       ".Item\0"
                         const [4]: "ItemGrid.Item"
5674  03                 const type 3
5675  00000040           const [5]: (0)
5679  03                 const type 3
567A  00008040           const [6]: (0)
567E  01                 const type 3
567F  65A5130E           const [7]: (236168549)
5683  04                 const type 4
5684  0C                 string size (12)
5685  4974656D50726573+  "ItemPres"
568D  73656400           "sed\0"
                         const [8]: "ItemPressed"
5691  04                 const type 4
5692  0C                 string size (12)
5693  4974656D466F6375+  "ItemFocu"
569B  73656400           "sed\0"
                         const [9]: "ItemFocused"
569F  04                 const type 4
56A0  0E                 string size (14)
56A1  4974656D556E666F+  "ItemUnfo"
56A9  637573656400       "cused\0"
                         const [10]: "ItemUnfocused"
56AF  04                 const type 4
56B0  17                 string size (23)
56B1  6D53656C65637445+  "mSelectE"
56B9  6C656D656E74734F+  "lementsO"
56C1  6E466F63757300     "nFocus\0"
                         const [11]: "mSelectElementsOnFocus"
56C8  01                 const type 3
56C9  00000000           const [12]: (0)
56CD  04                 const type 4
56CE  0D                 string size (13)
56CF  456C656D656E7457+  "ElementW"
56D7  6964746800         "idth\0"
                         const [13]: "ElementWidth"
56DC  03                 const type 3
56DD  00000C43           const [14]: (0)
56E1  04                 const type 4
56E2  0E                 string size (14)
56E3  456C656D656E7448+  "ElementH"
56EB  656967687400       "eight\0"
                         const [15]: "ElementHeight"
56F1  04                 const type 4
56F2  11                 string size (17)
56F3  456C656D656E7444+  "ElementD"
56FB  696D427566666572+  "imBuffer"
5703  00                 "\0"
                         const [16]: "ElementDimBuffer"
5704  03                 const type 3
5705  0000D841           const [17]: (0)
5709  04                 const type 4
570A  06                 string size (6)
570B  576964746800       "Width\0"
                         const [18]: "Width"
5711  03                 const type 3
5712  0000AF43           const [19]: (0)
5716  04                 const type 4
5717  07                 string size (7)
5718  48656967687400     "Height\0"
                         const [20]: "Height"
571F  03                 const type 3
5720  00802244           const [21]: (0)
5724  01                 const type 3
5725  183954C4           const [22]: (-1001113320)
5729  01                 const type 3
572A  371FB63D           const [23]: (1035345719)
572E  04                 const type 4
572F  13                 string size (19)
5730  4974656D47726964+  "ItemGrid"
5738  2E5363726F6C6C42+  ".ScrollB"
5740  617200             "ar\0"
                         const [24]: "ItemGrid.ScrollBar"
5743  03                 const type 3
5744  0000C8C1           const [25]: (0)
5748  01                 const type 3
5749  3685C1F9           const [26]: (-104757962)
574D  04                 const type 4
574E  15                 string size (21)
574F  6D5363726F6C6C41+  "mScrollA"
5757  6C77617973566973+  "lwaysVis"
575F  69626C6500         "ible\0"
                         const [27]: "mScrollAlwaysVisible"
5764  01                 const type 3
5765  01000000           const [28]: (1)
5769  04                 const type 4
576A  15                 string size (21)
576B  56697369626C6552+  "VisibleR"
5773  616E67654D617465+  "angeMate"
577B  7269616C00         "rial\0"
                         const [29]: "VisibleRangeMaterial"
5780  04                 const type 4
5781  1C                 string size (28)
5782  756E6F776E656449+  "unownedI"
578A  74656D5669735261+  "temVisRa"
5792  6E67654D61746572+  "ngeMater"
579A  69616C00           "ial\0"
                         const [30]: "unownedItemVisRangeMaterial"
579E  04                 const type 4
579F  19                 string size (25)
57A0  5465787456697369+  "TextVisi"
57A8  626C6552616E6765+  "bleRange"
57B0  4D6174657269616C+  "Material"
57B8  00                 "\0"
                         const [31]: "TextVisibleRangeMaterial"
57B9  04                 const type 4
57BA  20                 string size (32)
57BB  756E6F776E656449+  "unownedI"
57C3  74656D5465787456+  "temTextV"
57CB  697352616E67654D+  "isRangeM"
57D3  6174657269616C00   "aterial\0"
                         const [32]: "unownedItemTextVisRangeMaterial"
57DB  04                 const type 4
57DC  1E                 string size (30)
57DD  52656374616E676C+  "Rectangl"
57E5  6556697369626C65+  "eVisible"
57ED  52616E67654D6174+  "RangeMat"
57F5  657269616C00       "erial\0"
                         const [33]: "RectangleVisibleRangeMaterial"
57FB  04                 const type 4
57FC  15                 string size (21)
57FD  756E6F7765644974+  "unowedIt"
5805  656D42674D617465+  "emBgMate"
580D  7269616C00         "rial\0"
                         const [34]: "unowedItemBgMaterial"
5812  04                 const type 4
5813  15                 string size (21)
5814  6D436C6970437265+  "mClipCre"
581C  6174656443616C6C+  "atedCall"
5824  6261636B00         "back\0"
                         const [35]: "mClipCreatedCallback"
5829  04                 const type 4
582A  14                 string size (20)
582B  6D4F6E53656C6563+  "mOnSelec"
5833  74656443616C6C62+  "tedCallb"
583B  61636B00           "ack\0"
                         const [36]: "mOnSelectedCallback"
583F  04                 const type 4
5840  13                 string size (19)
5841  6D4F6E466F637573+  "mOnFocus"
5849  656443616C6C6261+  "edCallba"
5851  636B00             "ck\0"
                         const [37]: "mOnFocusedCallback"
5854  04                 const type 4
5855  15                 string size (21)
5856  6D4F6E556E666F63+  "mOnUnfoc"
585E  7573656443616C6C+  "usedCall"
5866  6261636B00         "back\0"
                         const [38]: "mOnUnfocusedCallback"
586B  04                 const type 4
586C  15                 string size (21)
586D  6D456C656D656E74+  "mElement"
5875  4472617743616C6C+  "DrawCall"
587D  6261636B00         "back\0"
                         const [39]: "mElementDrawCallback"
5882  01                 const type 3
5883  8F8E0217           const [40]: (386043535)
5887  04                 const type 4
5888  14                 string size (20)
5889  4974656D47726964+  "ItemGrid"
5891  2E5469746C652E74+  ".Title.t"
5899  65787400           "ext\0"
                         const [41]: "ItemGrid.Title.text"
589D  04                 const type 4
589E  31                 string size (49)
589F  2F4C6F7475732F4C+  "/Lotus/L"
58A7  616E67756167652F+  "anguage/"
58AF  4D656E752F417070+  "Menu/App"
58B7  656172616E636550+  "earanceP"
58BF  7265766965775F47+  "review_G"
58C7  7269645469746C65+  "ridTitle"
58CF  00                 "\0"
                         const [42]: "/Lotus/Language/Menu/AppearancePreview_GridTitle"
58D0  01                 const type 3
58D1  66D9191C           const [43]: (471456102)
58D5  04                 const type 4
58D6  0F                 string size (15)
58D7  4974656D47726964+  "ItemGrid"
58DF  2E5469746C6500     ".Title\0"
                         const [44]: "ItemGrid.Title"
58E6  04                 const type 4
58E7  0A                 string size (10)
58E8  74657874436F6C6F+  "textColo"
58F0  7200               "r\0"
                         const [45]: "textColor"
58F2  04                 const type 4
58F3  10                 string size (16)
58F4  466C6F6174696E67+  "Floating"
58FC  436F6E74656E7400   "Content\0"
                         const [46]: "FloatingContent"
                         * functions:
5904  05                 sizep (5)
                         
5905                     ** function [0] definition (level 3)
                         ** start of function **
5905  00                 string size (0)
                         source name: (none)
5907  06                 line defined (802)
5908  A4                 last line defined (804)
5909  06                 nups (2)
590A  02                 numparams (2)
590B  02                 is_vararg (0)
590C  00                 maxstacksize (6)
                         * code:
590E  07                 sizecode (7)
590F  93000000           [1] getupval   2   0      
5913  8E004001           [2] gettable   2   2   256  ; 1000090404
5917  DD400000           [3] getglobal  3   1        ; mMovie
591B  13018000           [4] getupval   4   1      
591F  52010000           [5] move       5   0      
5923  A2400002           [6] call       2   4   1  
5927  1E008000           [7] return     0   1      
                         * constants:
592B  02                 sizek (2)
592C  01                 const type 3
592D  242B9C3B           const [0]: (1000090404)
5931  04                 const type 4
5932  07                 string size (7)
5933  6D4D6F76696500     "mMovie\0"
                         const [1]: "mMovie"
                         * functions:
593A  00                 sizep (0)
                         * lines:
593B  07                 sizelineinfo (7)
                         [pc] (line)
593C  23                 [1] (35)
593D  03                 [2] (35)
593E  00                 [3] (35)
593F  00                 [4] (35)
5940  23                 [5] (35)
5941  03                 [6] (35)
5942  00                 [7] (36)
                         * locals:
5958  00                 sizelocvars (0)
                         * upvalues:
5959  00                 sizeupvalues (0)
                         ** end of function **

                         
595A                     ** function [1] definition (level 3)
                         ** start of function **
595A  00                 string size (0)
                         source name: (none)
595C  06                 line defined (806)
595D  B0                 last line defined (816)
595E  06                 nups (2)
595F  02                 numparams (1)
5960  01                 is_vararg (0)
5961  00                 maxstacksize (5)
                         * code:
5963  1B                 sizecode (27)
5964  4E004000           [01] gettable   1   0   256  ; "Filler"
5968  58000000           [02] test       1       0    ; to [4] if true
596C  1A000080           [03] jmp        1            ; to [5]
5970  1E008000           [04] return     0   1      
5974  5D400000           [05] getglobal  1   1        ; _T
5978  8B800000           [06] newtable   2   0   2    ; array=0, hash=2
597C  8C008081           [07] settable   2   259 0    ; "ITEM"
5980  D3000000           [08] getupval   3   0      
5984  8CC00082           [09] settable   2   260 3    ; "CALLBACK"
5988  4C800081           [10] settable   1   258 2    ; "marketDetailedViewParms"
598C  5D400100           [11] getglobal  1   5        ; mMovie
5990  6480C100           [12] self       1   1   262  ; 1609725115
5994  DDC00100           [13] getglobal  3   7        ; _G
5998  CE00C201           [14] gettable   3   3   264  ; "UIMovie_DetailedPurchaseDialog"
599C  62808001           [15] call       1   3   2  
fail op	8
59A0  48008000           [16] setupval   1   1      
59A4  5D400200           [17] getglobal  1   9        ; 1074689893
59A8  93008000           [18] getupval   2   1      
59AC  62800001           [19] call       1   2   2  
59B0  58400000           [20] test       1       1    ; to [22] if false
59B4  1A000180           [21] jmp        5            ; to [27]
59B8  53008000           [22] getupval   1   1      
59BC  6480C200           [23] self       1   1   266  ; 1167009705
59C0  D9C00200           [24] loadk      3   11       ; "SetIgnoreTopMenu"
59C4  19010300           [25] loadk      4   12       ; "true"
59C8  62400002           [26] call       1   4   1  
59CC  1E008000           [27] return     0   1      
                         * constants:
59D0  0D                 sizek (13)
59D1  04                 const type 4
59D2  07                 string size (7)
59D3  46696C6C657200     "Filler\0"
                         const [0]: "Filler"
59DA  04                 const type 4
59DB  03                 string size (3)
59DC  5F5400             "_T\0"
                         const [1]: "_T"
59DF  04                 const type 4
59E0  18                 string size (24)
59E1  6D61726B65744465+  "marketDe"
59E9  7461696C65645669+  "tailedVi"
59F1  65775061726D7300   "ewParms\0"
                         const [2]: "marketDetailedViewParms"
59F9  04                 const type 4
59FA  05                 string size (5)
59FB  4954454D00         "ITEM\0"
                         const [3]: "ITEM"
5A00  04                 const type 4
5A01  09                 string size (9)
5A02  43414C4C4241434B+  "CALLBACK"
5A0A  00                 "\0"
                         const [4]: "CALLBACK"
5A0B  04                 const type 4
5A0C  07                 string size (7)
5A0D  6D4D6F76696500     "mMovie\0"
                         const [5]: "mMovie"
5A14  01                 const type 3
5A15  BB74F25F           const [6]: (1609725115)
5A19  04                 const type 4
5A1A  03                 string size (3)
5A1B  5F4700             "_G\0"
                         const [7]: "_G"
5A1E  04                 const type 4
5A1F  1F                 string size (31)
5A20  55494D6F7669655F+  "UIMovie_"
5A28  44657461696C6564+  "Detailed"
5A30  5075726368617365+  "Purchase"
5A38  4469616C6F6700     "Dialog\0"
                         const [8]: "UIMovie_DetailedPurchaseDialog"
5A3F  01                 const type 3
5A40  65770E40           const [9]: (1074689893)
5A44  01                 const type 3
5A45  A9278F45           const [10]: (1167009705)
5A49  04                 const type 4
5A4A  11                 string size (17)
5A4B  53657449676E6F72+  "SetIgnor"
5A53  65546F704D656E75+  "eTopMenu"
5A5B  00                 "\0"
                         const [11]: "SetIgnoreTopMenu"
5A5C  04                 const type 4
5A5D  05                 string size (5)
5A5E  7472756500         "true\0"
                         const [12]: "true"
                         * functions:
5A63  00                 sizep (0)
                         * lines:
5A64  1B                 sizelineinfo (27)
                         [pc] (line)
5A65  27                 [01] (39)
5A66  03                 [02] (39)
5A67  00                 [03] (39)
5A68  00                 [04] (40)
5A69  27                 [05] (43)
5A6A  03                 [06] (43)
5A6B  00                 [07] (43)
5A6C  00                 [08] (43)
5A6D  27                 [09] (43)
5A6E  03                 [10] (43)
5A6F  00                 [11] (44)
5A70  00                 [12] (44)
5A71  28                 [13] (44)
5A72  03                 [14] (44)
5A73  00                 [15] (44)
5A74  00                 [16] (44)
5A75  2B                 [17] (45)
5A76  03                 [18] (45)
5A77  00                 [19] (45)
5A78  00                 [20] (45)
5A79  2B                 [21] (45)
5A7A  03                 [22] (46)
5A7B  00                 [23] (46)
5A7C  00                 [24] (46)
5A7D  2B                 [25] (46)
5A7E  03                 [26] (46)
5A7F  00                 [27] (48)
                         * locals:
5AD1  00                 sizelocvars (0)
                         * upvalues:
5AD2  00                 sizeupvalues (0)
                         ** end of function **

                         
5AD3                     ** function [2] definition (level 3)
                         ** start of function **
5AD3  00                 string size (0)
                         source name: (none)
5AD5  06                 line defined (818)
5AD6  B8                 last line defined (824)
5AD7  06                 nups (2)
5AD8  02                 numparams (1)
5AD9  01                 is_vararg (0)
5ADA  00                 maxstacksize (6)
                         * code:
5ADC  0F                 sizecode (15)
5ADD  4E004000           [01] gettable   1   0   256  ; "mClipName"
fail op	35
5AE1  2340C000           [02] close      0  
5AE5  1A000080           [03] jmp        1            ; to [5]
5AE9  1E008000           [04] return     0   1      
5AED  53000000           [05] getupval   1   0      
5AF1  4E80C000           [06] gettable   1   1   258  ; 81281438
5AF5  9DC00000           [07] getglobal  2   3        ; mMovie
5AF9  D3008000           [08] getupval   3   1      
5AFD  12010000           [09] move       4   0      
5B01  4BC10000           [10] newtable   5   0   3    ; array=0, hash=3
5B05  4C414182           [11] settable   5   260 261  ; "IsSelected" 0
5B09  4CC14183           [12] settable   5   262 263  ; "IsFocused" 1
5B0D  4CC14184           [13] settable   5   264 263  ; "ShowInfoPopup" 1
5B11  62408002           [14] call       1   5   1  
5B15  1E008000           [15] return     0   1      
                         * constants:
5B19  09                 sizek (9)
5B1A  04                 const type 4
5B1B  0A                 string size (10)
5B1C  6D436C69704E616D+  "mClipNam"
5B24  6500               "e\0"
                         const [0]: "mClipName"
5B26  00                 const type 0
                         const [1]: nil
5B27  01                 const type 3
5B28  9E41D804           const [2]: (81281438)
5B2C  04                 const type 4
5B2D  07                 string size (7)
5B2E  6D4D6F76696500     "mMovie\0"
                         const [3]: "mMovie"
5B35  04                 const type 4
5B36  0B                 string size (11)
5B37  497353656C656374+  "IsSelect"
5B3F  656400             "ed\0"
                         const [4]: "IsSelected"
5B42  01                 const type 3
5B43  00000000           const [5]: (0)
5B47  04                 const type 4
5B48  0A                 string size (10)
5B49  4973466F63757365+  "IsFocuse"
5B51  6400               "d\0"
                         const [6]: "IsFocused"
5B53  01                 const type 3
5B54  01000000           const [7]: (1)
5B58  04                 const type 4
5B59  0E                 string size (14)
5B5A  53686F77496E666F+  "ShowInfo"
5B62  506F70757000       "Popup\0"
                         const [8]: "ShowInfoPopup"
                         * functions:
5B68  00                 sizep (0)
                         * lines:
5B69  0F                 sizelineinfo (15)
                         [pc] (line)
5B6A  33                 [01] (51)
5B6B  03                 [02] (51)
5B6C  00                 [03] (51)
5B6D  00                 [04] (52)
5B6E  33                 [05] (55)
5B6F  03                 [06] (55)
5B70  00                 [07] (55)
5B71  00                 [08] (55)
5B72  33                 [09] (55)
5B73  03                 [10] (55)
5B74  00                 [11] (55)
5B75  00                 [12] (55)
5B76  34                 [13] (55)
5B77  03                 [14] (55)
5B78  00                 [15] (56)
                         * locals:
5BA6  00                 sizelocvars (0)
                         * upvalues:
5BA7  00                 sizeupvalues (0)
                         ** end of function **

                         
5BA8                     ** function [3] definition (level 3)
                         ** start of function **
5BA8  00                 string size (0)
                         source name: (none)
5BAA  06                 line defined (826)
5BAB  C0                 last line defined (832)
5BAC  06                 nups (2)
5BAD  02                 numparams (1)
5BAE  01                 is_vararg (0)
5BAF  00                 maxstacksize (6)
                         * code:
5BB1  0E                 sizecode (14)
5BB2  4E004000           [01] gettable   1   0   256  ; "mClipName"
fail op	35
5BB6  2340C000           [02] close      0  
5BBA  1A000080           [03] jmp        1            ; to [5]
5BBE  1E008000           [04] return     0   1      
5BC2  53000000           [05] getupval   1   0      
5BC6  4E80C000           [06] gettable   1   1   258  ; 81281438
5BCA  9DC00000           [07] getglobal  2   3        ; mMovie
5BCE  D3008000           [08] getupval   3   1      
5BD2  12010000           [09] move       4   0      
5BD6  4B810000           [10] newtable   5   0   2    ; array=0, hash=2
5BDA  4C414182           [11] settable   5   260 261  ; "IsSelected" 0
5BDE  4C414183           [12] settable   5   262 261  ; "IsFocused" 0
5BE2  62408002           [13] call       1   5   1  
5BE6  1E008000           [14] return     0   1      
                         * constants:
5BEA  07                 sizek (7)
5BEB  04                 const type 4
5BEC  0A                 string size (10)
5BED  6D436C69704E616D+  "mClipNam"
5BF5  6500               "e\0"
                         const [0]: "mClipName"
5BF7  00                 const type 0
                         const [1]: nil
5BF8  01                 const type 3
5BF9  9E41D804           const [2]: (81281438)
5BFD  04                 const type 4
5BFE  07                 string size (7)
5BFF  6D4D6F76696500     "mMovie\0"
                         const [3]: "mMovie"
5C06  04                 const type 4
5C07  0B                 string size (11)
5C08  497353656C656374+  "IsSelect"
5C10  656400             "ed\0"
                         const [4]: "IsSelected"
5C13  01                 const type 3
5C14  00000000           const [5]: (0)
5C18  04                 const type 4
5C19  0A                 string size (10)
5C1A  4973466F63757365+  "IsFocuse"
5C22  6400               "d\0"
                         const [6]: "IsFocused"
                         * functions:
5C24  00                 sizep (0)
                         * lines:
5C25  0E                 sizelineinfo (14)
                         [pc] (line)
5C26  3B                 [01] (59)
5C27  03                 [02] (59)
5C28  00                 [03] (59)
5C29  00                 [04] (60)
5C2A  3B                 [05] (63)
5C2B  03                 [06] (63)
5C2C  00                 [07] (63)
5C2D  00                 [08] (63)
5C2E  3B                 [09] (63)
5C2F  03                 [10] (63)
5C30  00                 [11] (63)
5C31  00                 [12] (63)
5C32  3C                 [13] (63)
5C33  03                 [14] (64)
                         * locals:
5C5E  00                 sizelocvars (0)
                         * upvalues:
5C5F  00                 sizeupvalues (0)
                         ** end of function **

                         
5C60                     ** function [4] definition (level 3)
                         ** start of function **
5C60  00                 string size (0)
                         source name: (none)
5C62  06                 line defined (834)
5C63  C8                 last line defined (840)
5C64  06                 nups (2)
5C65  02                 numparams (1)
5C66  01                 is_vararg (0)
5C67  00                 maxstacksize (7)
                         * code:
5C69  0F                 sizecode (15)
5C6A  4E004000           [01] gettable   1   0   256  ; "mClipName"
fail op	35
5C6E  2340C000           [02] close      0  
5C72  1A000080           [03] jmp        1            ; to [5]
5C76  1E008000           [04] return     0   1      
5C7A  53000000           [05] getupval   1   0      
5C7E  4E80C000           [06] gettable   1   1   258  ; 1503902066
5C82  9DC00000           [07] getglobal  2   3        ; mMovie
5C86  D3008000           [08] getupval   3   1      
5C8A  12010000           [09] move       4   0      
5C8E  4B810000           [10] newtable   5   0   2    ; array=0, hash=2
5C92  4C414182           [11] settable   5   260 261  ; "HideCountThreshold" 0
5C96  8EC14100           [12] gettable   6   0   263  ; "Filler"
5C9A  4C810183           [13] settable   5   262 6    ; "IgnoreCount"
5C9E  62408002           [14] call       1   5   1  
5CA2  1E008000           [15] return     0   1      
                         * constants:
5CA6  08                 sizek (8)
5CA7  04                 const type 4
5CA8  0A                 string size (10)
5CA9  6D436C69704E616D+  "mClipNam"
5CB1  6500               "e\0"
                         const [0]: "mClipName"
5CB3  00                 const type 0
                         const [1]: nil
5CB4  01                 const type 3
5CB5  72B9A359           const [2]: (1503902066)
5CB9  04                 const type 4
5CBA  07                 string size (7)
5CBB  6D4D6F76696500     "mMovie\0"
                         const [3]: "mMovie"
5CC2  04                 const type 4
5CC3  13                 string size (19)
5CC4  48696465436F756E+  "HideCoun"
5CCC  745468726573686F+  "tThresho"
5CD4  6C6400             "ld\0"
                         const [4]: "HideCountThreshold"
5CD7  03                 const type 3
5CD8  00000000           const [5]: (0)
5CDC  04                 const type 4
5CDD  0C                 string size (12)
5CDE  49676E6F7265436F+  "IgnoreCo"
5CE6  756E7400           "unt\0"
                         const [6]: "IgnoreCount"
5CEA  04                 const type 4
5CEB  07                 string size (7)
5CEC  46696C6C657200     "Filler\0"
                         const [7]: "Filler"
                         * functions:
5CF3  00                 sizep (0)
                         * lines:
5CF4  0F                 sizelineinfo (15)
                         [pc] (line)
5CF5  43                 [01] (67)
5CF6  03                 [02] (67)
5CF7  00                 [03] (67)
5CF8  00                 [04] (68)
5CF9  43                 [05] (71)
5CFA  03                 [06] (71)
5CFB  00                 [07] (71)
5CFC  00                 [08] (71)
5CFD  43                 [09] (71)
5CFE  03                 [10] (71)
5CFF  00                 [11] (71)
5D00  00                 [12] (71)
5D01  44                 [13] (71)
5D02  03                 [14] (71)
5D03  00                 [15] (72)
                         * locals:
5D31  00                 sizelocvars (0)
                         * upvalues:
5D32  00                 sizeupvalues (0)
                         ** end of function **

                         * lines:
5D33  5D                 sizelineinfo (93)
                         [pc] (line)
5D34  11                 [01] (17)
5D35  03                 [02] (17)
5D36  00                 [03] (17)
5D37  00                 [04] (18)
5D38  11                 [05] (18)
5D39  03                 [06] (18)
5D3A  00                 [07] (18)
5D3B  00                 [08] (18)
5D3C  11                 [09] (18)
5D3D  03                 [10] (18)
5D3E  00                 [11] (18)
5D3F  00                 [12] (19)
5D40  12                 [13] (19)
5D41  03                 [14] (19)
5D42  00                 [15] (19)
5D43  00                 [16] (19)
5D44  12                 [17] (19)
5D45  03                 [18] (20)
5D46  00                 [19] (20)
5D47  00                 [20] (21)
5D48  12                 [21] (21)
5D49  03                 [22] (22)
5D4A  00                 [23] (22)
5D4B  00                 [24] (23)
5D4C  12                 [25] (23)
5D4D  03                 [26] (24)
5D4E  00                 [27] (24)
5D4F  00                 [28] (25)
5D50  12                 [29] (25)
5D51  03                 [30] (26)
5D52  00                 [31] (26)
5D53  00                 [32] (26)
5D54  12                 [33] (26)
5D55  03                 [34] (26)
5D56  00                 [35] (27)
5D57  00                 [36] (27)
5D58  12                 [37] (27)
5D59  03                 [38] (27)
5D5A  00                 [39] (27)
5D5B  00                 [40] (28)
5D5C  12                 [41] (28)
5D5D  03                 [42] (28)
5D5E  00                 [43] (29)
5D5F  00                 [44] (29)
5D60  13                 [45] (30)
5D61  03                 [46] (30)
5D62  00                 [47] (30)
5D63  00                 [48] (31)
5D64  13                 [49] (31)
5D65  03                 [50] (31)
5D66  00                 [51] (32)
5D67  00                 [52] (32)
5D68  13                 [53] (32)
5D69  03                 [54] (33)
5D6A  00                 [55] (36)
5D6B  00                 [56] (36)
5D6C  13                 [57] (36)
5D6D  03                 [58] (36)
5D6E  00                 [59] (37)
5D6F  00                 [60] (48)
5D70  13                 [61] (48)
5D71  03                 [62] (48)
5D72  00                 [63] (48)
5D73  00                 [64] (49)
5D74  13                 [65] (56)
5D75  03                 [66] (56)
5D76  00                 [67] (56)
5D77  00                 [68] (56)
5D78  14                 [69] (57)
5D79  03                 [70] (64)
5D7A  00                 [71] (64)
5D7B  00                 [72] (64)
5D7C  14                 [73] (64)
5D7D  03                 [74] (65)
5D7E  00                 [75] (72)
5D7F  00                 [76] (72)
5D80  15                 [77] (72)
5D81  03                 [78] (72)
5D82  00                 [79] (74)
5D83  00                 [80] (74)
5D84  15                 [81] (74)
5D85  03                 [82] (74)
5D86  00                 [83] (74)
5D87  00                 [84] (75)
5D88  16                 [85] (75)
5D89  03                 [86] (75)
5D8A  00                 [87] (75)
5D8B  00                 [88] (75)
5D8C  16                 [89] (75)
5D8D  03                 [90] (75)
5D8E  00                 [91] (77)
5D8F  00                 [92] (77)
5D90  17                 [93] (78)
                         * locals:
5EA8  00                 sizelocvars (0)
                         * upvalues:
5EA9  00                 sizeupvalues (0)
                         ** end of function **

                         
5EAA                     ** function [21] definition (level 2)
                         ** start of function **
5EAA  00                 string size (0)
                         source name: (none)
5EAC  06                 line defined (848)
5EAD  8E                 last line defined (910)
5EAE  07                 nups (16)
5EAF  10                 numparams (0)
5EB0  00                 is_vararg (0)
5EB1  00                 maxstacksize (11)
                         * code:
5EB4  01                 sizecode (202)
5EB5  0B000000           [001] newtable   0   0   0    ; array=0, hash=0
fail op	8
5EB9  08000000           [002] setupval   0   0      
5EBD  13000000           [003] getupval   0   0      
5EC1  53008000           [004] getupval   1   1      
5EC5  4E40C000           [005] gettable   1   1   257  ; -576482948
5EC9  9D800000           [006] getglobal  2   2        ; Lotus_Game
5ECD  8EC04001           [007] gettable   2   2   259  ; "UIStyle_Background1"
5ED1  D7008000           [008] loadbool   3   1   0    ; true
5ED5  62808001           [009] call       1   3   2  
5ED9  0C400080           [010] settable   0   256 1    ; "Background1"
5EDD  13000000           [011] getupval   0   0      
5EE1  53008000           [012] getupval   1   1      
5EE5  4E40C000           [013] gettable   1   1   257  ; -576482948
5EE9  9D800000           [014] getglobal  2   2        ; Lotus_Game
5EED  8E404101           [015] gettable   2   2   261  ; "UIStyle_FloatingContent"
5EF1  D7008000           [016] loadbool   3   1   0    ; true
5EF5  62808001           [017] call       1   3   2  
5EF9  0C400082           [018] settable   0   260 1    ; "FloatingContent"
5EFD  1D800100           [019] getglobal  0   6        ; 849075268
5F01  59C00100           [020] loadk      1   7        ; "Lotus.Interface.Components.ThemedSpinner"
5F05  22800001           [021] call       0   2   2  
5F09  4E004200           [022] gettable   1   0   264  ; 1191123516
5F0D  9D400200           [023] getglobal  2   9        ; mMovie
5F11  D9800200           [024] loadk      3   10       ; "Spinner"
5F15  62808001           [025] call       1   3   2  
fail op	8
5F19  48000001           [026] setupval   1   2      
5F1D  53000001           [027] getupval   1   2      
5F21  64C0C200           [028] self       1   1   267  ; -492641364
5F25  D7008000           [029] loadbool   3   1   0    ; true
5F29  62408001           [030] call       1   3   1  
5F2D  53008000           [031] getupval   1   1      
5F31  4E00C300           [032] gettable   1   1   268  ; 392443149
5F35  62808000           [033] call       1   1   2  
fail op	8
5F39  48008001           [034] setupval   1   3      
5F3D  53000002           [035] getupval   1   4      
5F41  4E40C300           [036] gettable   1   1   269  ; 2020962785
5F45  97000000           [037] loadbool   2   0   0    ; false
5F49  D3008002           [038] getupval   3   5      
5F4D  62408001           [039] call       1   3   1  
5F51  53000003           [040] getupval   1   6      
5F55  4E80C300           [041] gettable   1   1   270  ; -1694810916
5F59  97008000           [042] loadbool   2   1   0    ; true
5F5D  62400001           [043] call       1   2   1  
5F61  5D400200           [044] getglobal  1   9        ; mMovie
5F65  64C0C300           [045] self       1   1   271  ; -695022981
5F69  DD000400           [046] getglobal  3   16       ; _T
5F6D  CE40C401           [047] gettable   3   3   273  ; "RadialSolarMapOpen"
fail op	35
5F71  6380C401           [048] close      1  
5F75  1A000080           [049] jmp        1            ; to [51]
5F79  D7400000           [050] loadbool   3   0   1    ; false, to [52]
5F7D  D7008000           [051] loadbool   3   1   0    ; true
5F81  62408001           [052] call       1   3   1  
5F85  5D400200           [053] getglobal  1   9        ; mMovie
5F89  64C0C400           [054] self       1   1   275  ; 1800181858
5F8D  D7008000           [055] loadbool   3   1   0    ; true
5F91  62408001           [056] call       1   3   1  
5F95  5D000400           [057] getglobal  1   16       ; _T
5F99  4E00C500           [058] gettable   1   1   276  ; "UIInputEnabled"
5F9D  58400000           [059] test       1       1    ; to [61] if false
5FA1  1A000180           [060] jmp        5            ; to [66]
5FA5  5D000400           [061] getglobal  1   16       ; _T
5FA9  4E40C500           [062] gettable   1   1   277  ; -1898916515
5FAD  62408000           [063] call       1   1   1  
5FB1  57008000           [064] loadbool   1   1   0    ; true
fail op	8
5FB5  48008003           [065] setupval   1   7      
5FB9  5D800500           [066] getglobal  1   22       ; gFlashMgr
5FBD  64C0C500           [067] self       1   1   279  ; 1634586770
5FC1  DD000600           [068] getglobal  3   24       ; _G
5FC5  CE40C601           [069] gettable   3   3   281  ; "UIMovie_DetailedPurchaseDialog"
5FC9  62808001           [070] call       1   3   2  
5FCD  9D800600           [071] getglobal  2   26       ; 1074689893
5FD1  D2008000           [072] move       3   1      
5FD5  A2800001           [073] call       2   2   2  
5FD9  98400000           [074] test       2       1    ; to [76] if false
5FDD  1AC00080           [075] jmp        4            ; to [80]
5FE1  A4C0C600           [076] self       2   1   283  ; 1167009705
5FE5  19010700           [077] loadk      4   28       ; "HideScreen"
5FE9  59410700           [078] loadk      5   29       ; "true"
5FED  A2400002           [079] call       2   4   1  
5FF1  9D800100           [080] getglobal  2   6        ; 849075268
5FF5  D9800700           [081] loadk      3   30       ; "Lotus.Interface.Components.RotationControl"
5FF9  A2800001           [082] call       2   2   2  
5FFD  CE004201           [083] gettable   3   2   264  ; 1191123516
6001  1D410200           [084] getglobal  4   9        ; mMovie
6005  E2800001           [085] call       3   2   2  
fail op	8
6009  C8000004           [086] setupval   3   8      
600D  D3000004           [087] getupval   3   8      
6011  CC80C48F           [088] settable   3   287 274  ; "mUseControllerDeltaIfSet" 1
6015  DD800100           [089] getglobal  3   6        ; 849075268
6019  19010800           [090] loadk      4   32       ; "Lotus.Interface.Components.AvatarDiorama"
601D  E2800001           [091] call       3   2   2  
6021  0E41C801           [092] gettable   4   3   289  ; 1043858735
6025  5D410200           [093] getglobal  5   9        ; mMovie
6029  22810001           [094] call       4   2   2  
fail op	8
602D  08018004           [095] setupval   4   9      
6031  1D410200           [096] getglobal  4   9        ; mMovie
6035  24814802           [097] self       4   4   290  ; -266877948
6039  93010000           [098] getupval   6   0      
603D  8E014003           [099] gettable   6   6   256  ; "Background1"
6041  22418001           [100] call       4   3   1  
6045  13010005           [101] getupval   4   10     
6049  0EC14802           [102] gettable   4   4   291  ; -617354062
604D  5D410200           [103] getglobal  5   9        ; mMovie
6051  99010900           [104] loadk      6   36       ; 102
6055  D9410900           [105] loadk      7   37       ; 0
6059  22410002           [106] call       4   4   1  
605D  1D010400           [107] getglobal  4   16       ; _T
6061  0C814493           [108] settable   4   294 274  ; "AppearancePreviewOpen" 1
6065  13010006           [109] getupval   4   12     
6069  0E014202           [110] gettable   4   4   264  ; 1191123516
606D  5D410200           [111] getglobal  5   9        ; mMovie
6071  22810001           [112] call       4   2   2  
fail op	8
6075  08018005           [113] setupval   4   11     
6079  13018005           [114] getupval   4   11     
607D  24C14902           [115] self       4   4   295  ; -1716902634
6081  9D410200           [116] getglobal  6   9        ; mMovie
6085  D9010A00           [117] loadk      7   40       ; "ItemGrid"
6089  0B020001           [118] newtable   8   2   0    ; array=2, hash=0
608D  53028005           [119] getupval   9   11     
6091  4E42CA04           [120] gettable   9   9   297  ; "ANCHOR_V_TOP"
6095  93028005           [121] getupval   10  11     
6099  8E824A05           [122] gettable   10  10  298  ; "ANCHOR_H_LEFT"
609D  1B420001           [123] setlist    8   2   1    ; index 1 to 2
60A1  22418002           [124] call       4   5   1  
60A5  13018005           [125] getupval   4   11     
60A9  24C14902           [126] self       4   4   295  ; -1716902634
60AD  9D410200           [127] getglobal  6   9        ; mMovie
60B1  D9C10A00           [128] loadk      7   43       ; "ApplyBtn"
60B5  0B020001           [129] newtable   8   2   0    ; array=2, hash=0
60B9  53028005           [130] getupval   9   11     
60BD  4E02CB04           [131] gettable   9   9   300  ; "ANCHOR_V_BOTTOM"
60C1  93028005           [132] getupval   10  11     
60C5  8E424B05           [133] gettable   10  10  301  ; "ANCHOR_H_RIGHT"
60C9  1B420001           [134] setlist    8   2   1    ; index 1 to 2
60CD  22418002           [135] call       4   5   1  
60D1  13018005           [136] getupval   4   11     
60D5  24814B02           [137] self       4   4   302  ; -1938777623
60D9  9D410200           [138] getglobal  6   9        ; mMovie
60DD  A4C14B03           [139] self       6   6   303  ; -174729759
60E1  A2810001           [140] call       6   2   2  
60E5  DD410200           [141] getglobal  7   9        ; mMovie
60E9  E401CC03           [142] self       7   7   304  ; -301556379
60ED  E2010001           [143] call       7   2   0  
60F1  22410000           [144] call       4   0   1  
60F5  1D810100           [145] getglobal  4   6        ; 849075268
60F9  59410C00           [146] loadk      5   49       ; "Lotus.Interface.Components.ThemedButton"
60FD  22810001           [147] call       4   2   2  
6101  4E014202           [148] gettable   5   4   264  ; 1191123516
6105  9D410200           [149] getglobal  6   9        ; mMovie
6109  D9C10A00           [150] loadk      7   43       ; "ApplyBtn"
610D  19820C00           [151] loadk      8   50       ; "/Lotus/Language/Menu/AppearancePreview_ApplyBtn"
6111  59C20C00           [152] loadk      9   51       ; "ApplyAppearance"
6115  62818002           [153] call       5   5   2  
fail op	8
6119  48018006           [154] setupval   5   13     
611D  53018006           [155] getupval   5   13     
6121  6401CD02           [156] self       5   5   308  ; -1464598297
6125  62410001           [157] call       5   2   1  
6129  53018006           [158] getupval   5   13     
612D  6441CD02           [159] self       5   5   309  ; -2011541260
6131  D9810D00           [160] loadk      7   54       ; 0
6135  62418001           [161] call       5   3   1  
6139  53018006           [162] getupval   5   13     
613D  64C1C202           [163] self       5   5   267  ; -492641364
6141  D7010000           [164] loadbool   7   0   0    ; false
6145  62418001           [165] call       5   3   1  
6149  53018006           [166] getupval   5   13     
614D  64C1CD02           [167] self       5   5   311  ; 1685109492
6151  62410001           [168] call       5   2   1  
6155  5D410200           [169] getglobal  5   9        ; mMovie
6159  6401CE02           [170] self       5   5   312  ; 471456102
615D  D9410E00           [171] loadk      7   57       ; "Link"
6161  19820E00           [172] loadk      8   58       ; "_visible"
6165  57020000           [173] loadbool   9   0   0    ; false
6169  62418002           [174] call       5   5   1  
616D  5D410200           [175] getglobal  5   9        ; mMovie
6171  6401CE02           [176] self       5   5   312  ; 471456102
6175  D9010A00           [177] loadk      7   40       ; "ItemGrid"
6179  19820E00           [178] loadk      8   58       ; "_visible"
617D  57020000           [179] loadbool   9   0   0    ; false
6181  62418002           [180] call       5   5   1  
6185  53010007           [181] getupval   5   14     
6189  62418000           [182] call       5   1   1  
618D  5D810500           [183] getglobal  5   22       ; gFlashMgr
6191  64C1CE02           [184] self       5   5   315  ; -475485270
6195  D9010F00           [185] loadk      7   60       ; "HideScreenForPlatPurchase"
6199  19420700           [186] loadk      8   29       ; "true"
619D  62410002           [187] call       5   4   1  
61A1  53018007           [188] getupval   5   15     
61A5  62418000           [189] call       5   1   1  
61A9  5D810600           [190] getglobal  5   26       ; 1074689893
61AD  9D410F00           [191] getglobal  6   61       ; gGameStatsMgr
61B1  62810001           [192] call       5   2   2  
61B5  58410000           [193] test       5       1    ; to [195] if false
61B9  1A800180           [194] jmp        7            ; to [202]
61BD  5D410F00           [195] getglobal  5   61       ; gGameStatsMgr
61C1  6481CF02           [196] self       5   5   318  ; 838339401
61C5  DDC10F00           [197] getglobal  7   63       ; -332969190
61C9  19021000           [198] loadk      8   64       ; "LOOK_LINK"
61CD  E2810001           [199] call       7   2   2  
61D1  19421000           [200] loadk      8   65       ; "OPENED"
61D5  62410002           [201] call       5   4   1  
61D9  1E008000           [202] return     0   1      
                         * constants:
61DD  42                 sizek (66)
61DE  04                 const type 4
61DF  0C                 string size (12)
61E0  4261636B67726F75+  "Backgrou"
61E8  6E643100           "nd1\0"
                         const [0]: "Background1"
61EC  01                 const type 3
61ED  7C91A3DD           const [1]: (-576482948)
61F1  04                 const type 4
61F2  0B                 string size (11)
61F3  4C6F7475735F4761+  "Lotus_Ga"
61FB  6D6500             "me\0"
                         const [2]: "Lotus_Game"
61FE  04                 const type 4
61FF  14                 string size (20)
6200  55495374796C655F+  "UIStyle_"
6208  4261636B67726F75+  "Backgrou"
6210  6E643100           "nd1\0"
                         const [3]: "UIStyle_Background1"
6214  04                 const type 4
6215  10                 string size (16)
6216  466C6F6174696E67+  "Floating"
621E  436F6E74656E7400   "Content\0"
                         const [4]: "FloatingContent"
6226  04                 const type 4
6227  18                 string size (24)
6228  55495374796C655F+  "UIStyle_"
6230  466C6F6174696E67+  "Floating"
6238  436F6E74656E7400   "Content\0"
                         const [5]: "UIStyle_FloatingContent"
6240  01                 const type 3
6241  44DC9B32           const [6]: (849075268)
6245  04                 const type 4
6246  29                 string size (41)
6247  4C6F7475732E496E+  "Lotus.In"
624F  746572666163652E+  "terface."
6257  436F6D706F6E656E+  "Componen"
625F  74732E5468656D65+  "ts.Theme"
6267  645370696E6E6572+  "dSpinner"
626F  00                 "\0"
                         const [7]: "Lotus.Interface.Components.ThemedSpinner"
6270  01                 const type 3
6271  3C1AFF46           const [8]: (1191123516)
6275  04                 const type 4
6276  07                 string size (7)
6277  6D4D6F76696500     "mMovie\0"
                         const [9]: "mMovie"
627E  04                 const type 4
627F  08                 string size (8)
6280  5370696E6E657200   "Spinner\0"
                         const [10]: "Spinner"
6288  01                 const type 3
6289  ACE3A2E2           const [11]: (-492641364)
628D  01                 const type 3
628E  0D356417           const [12]: (392443149)
6292  01                 const type 3
6293  E1717578           const [13]: (2020962785)
6297  01                 const type 3
6298  DC3CFB9A           const [14]: (-1694810916)
629C  01                 const type 3
629D  7BCA92D6           const [15]: (-695022981)
62A1  04                 const type 4
62A2  03                 string size (3)
62A3  5F5400             "_T\0"
                         const [16]: "_T"
62A6  04                 const type 4
62A7  13                 string size (19)
62A8  52616469616C536F+  "RadialSo"
62B0  6C61724D61704F70+  "larMapOp"
62B8  656E00             "en\0"
                         const [17]: "RadialSolarMapOpen"
62BB  01                 const type 3
62BC  01000000           const [18]: (1)
62C0  01                 const type 3
62C1  62984C6B           const [19]: (1800181858)
62C5  04                 const type 4
62C6  0F                 string size (15)
62C7  5549496E70757445+  "UIInputE"
62CF  6E61626C656400     "nabled\0"
                         const [20]: "UIInputEnabled"
62D6  01                 const type 3
62D7  5DD5D08E           const [21]: (-1898916515)
62DB  04                 const type 4
62DC  0A                 string size (10)
62DD  67466C6173684D67+  "gFlashMg"
62E5  7200               "r\0"
                         const [22]: "gFlashMgr"
62E7  01                 const type 3
62E8  92D06D61           const [23]: (1634586770)
62EC  04                 const type 4
62ED  03                 string size (3)
62EE  5F4700             "_G\0"
                         const [24]: "_G"
62F1  04                 const type 4
62F2  1F                 string size (31)
62F3  55494D6F7669655F+  "UIMovie_"
62FB  44657461696C6564+  "Detailed"
6303  5075726368617365+  "Purchase"
630B  4469616C6F6700     "Dialog\0"
                         const [25]: "UIMovie_DetailedPurchaseDialog"
6312  01                 const type 3
6313  65770E40           const [26]: (1074689893)
6317  01                 const type 3
6318  A9278F45           const [27]: (1167009705)
631C  04                 const type 4
631D  0B                 string size (11)
631E  4869646553637265+  "HideScre"
6326  656E00             "en\0"
                         const [28]: "HideScreen"
6329  04                 const type 4
632A  05                 string size (5)
632B  7472756500         "true\0"
                         const [29]: "true"
6330  04                 const type 4
6331  2B                 string size (43)
6332  4C6F7475732E496E+  "Lotus.In"
633A  746572666163652E+  "terface."
6342  436F6D706F6E656E+  "Componen"
634A  74732E526F746174+  "ts.Rotat"
6352  696F6E436F6E7472+  "ionContr"
635A  6F6C00             "ol\0"
                         const [30]: "Lotus.Interface.Components.RotationControl"
635D  04                 const type 4
635E  19                 string size (25)
635F  6D557365436F6E74+  "mUseCont"
6367  726F6C6C65724465+  "rollerDe"
636F  6C74614966536574+  "ltaIfSet"
6377  00                 "\0"
                         const [31]: "mUseControllerDeltaIfSet"
6378  04                 const type 4
6379  29                 string size (41)
637A  4C6F7475732E496E+  "Lotus.In"
6382  746572666163652E+  "terface."
638A  436F6D706F6E656E+  "Componen"
6392  74732E4176617461+  "ts.Avata"
639A  7244696F72616D61+  "rDiorama"
63A2  00                 "\0"
                         const [32]: "Lotus.Interface.Components.AvatarDiorama"
63A3  01                 const type 3
63A4  2F05383E           const [33]: (1043858735)
63A8  01                 const type 3
63A9  04C417F0           const [34]: (-266877948)
63AD  01                 const type 3
63AE  B2EC33DB           const [35]: (-617354062)
63B2  03                 const type 3
63B3  6666663F           const [36]: (102)
63B7  03                 const type 3
63B8  0000803E           const [37]: (0)
63BC  04                 const type 4
63BD  16                 string size (22)
63BE  417070656172616E+  "Appearan"
63C6  6365507265766965+  "cePrevie"
63CE  774F70656E00       "wOpen\0"
                         const [38]: "AppearancePreviewOpen"
63D4  01                 const type 3
63D5  1625AA99           const [39]: (-1716902634)
63D9  04                 const type 4
63DA  09                 string size (9)
63DB  4974656D47726964+  "ItemGrid"
63E3  00                 "\0"
                         const [40]: "ItemGrid"
63E4  04                 const type 4
63E5  0D                 string size (13)
63E6  414E43484F525F56+  "ANCHOR_V"
63EE  5F544F5000         "_TOP\0"
                         const [41]: "ANCHOR_V_TOP"
63F3  04                 const type 4
63F4  0E                 string size (14)
63F5  414E43484F525F48+  "ANCHOR_H"
63FD  5F4C45465400       "_LEFT\0"
                         const [42]: "ANCHOR_H_LEFT"
6403  04                 const type 4
6404  09                 string size (9)
6405  4170706C7942746E+  "ApplyBtn"
640D  00                 "\0"
                         const [43]: "ApplyBtn"
640E  04                 const type 4
640F  10                 string size (16)
6410  414E43484F525F56+  "ANCHOR_V"
6418  5F424F54544F4D00   "_BOTTOM\0"
                         const [44]: "ANCHOR_V_BOTTOM"
6420  04                 const type 4
6421  0F                 string size (15)
6422  414E43484F525F48+  "ANCHOR_H"
642A  5F524947485400     "_RIGHT\0"
                         const [45]: "ANCHOR_H_RIGHT"
6431  01                 const type 3
6432  E999708C           const [46]: (-1938777623)
6436  01                 const type 3
6437  E1D595F5           const [47]: (-174729759)
643B  01                 const type 3
643C  659D06EE           const [48]: (-301556379)
6440  04                 const type 4
6441  28                 string size (40)
6442  4C6F7475732E496E+  "Lotus.In"
644A  746572666163652E+  "terface."
6452  436F6D706F6E656E+  "Componen"
645A  74732E5468656D65+  "ts.Theme"
6462  64427574746F6E00   "dButton\0"
                         const [49]: "Lotus.Interface.Components.ThemedButton"
646A  04                 const type 4
646B  30                 string size (48)
646C  2F4C6F7475732F4C+  "/Lotus/L"
6474  616E67756167652F+  "anguage/"
647C  4D656E752F417070+  "Menu/App"
6484  656172616E636550+  "earanceP"
648C  7265766965775F41+  "review_A"
6494  70706C7942746E00   "pplyBtn\0"
                         const [50]: "/Lotus/Language/Menu/AppearancePreview_ApplyBtn"
649C  04                 const type 4
649D  10                 string size (16)
649E  4170706C79417070+  "ApplyApp"
64A6  656172616E636500   "earance\0"
                         const [51]: "ApplyAppearance"
64AE  01                 const type 3
64AF  E700B4A8           const [52]: (-1464598297)
64B3  01                 const type 3
64B4  F4501A88           const [53]: (-2011541260)
64B8  03                 const type 3
64B9  00808043           const [54]: (0)
64BD  01                 const type 3
64BE  F4BA7064           const [55]: (1685109492)
64C2  01                 const type 3
64C3  66D9191C           const [56]: (471456102)
64C7  04                 const type 4
64C8  05                 string size (5)
64C9  4C696E6B00         "Link\0"
                         const [57]: "Link"
64CE  04                 const type 4
64CF  09                 string size (9)
64D0  5F76697369626C65+  "_visible"
64D8  00                 "\0"
                         const [58]: "_visible"
64D9  01                 const type 3
64DA  AAABA8E3           const [59]: (-475485270)
64DE  04                 const type 4
64DF  1A                 string size (26)
64E0  4869646553637265+  "HideScre"
64E8  656E466F72506C61+  "enForPla"
64F0  7450757263686173+  "tPurchas"
64F8  6500               "e\0"
                         const [60]: "HideScreenForPlatPurchase"
64FA  04                 const type 4
64FB  0E                 string size (14)
64FC  6747616D65537461+  "gGameSta"
6504  74734D677200       "tsMgr\0"
                         const [61]: "gGameStatsMgr"
650A  01                 const type 3
650B  490BF831           const [62]: (838339401)
650F  01                 const type 3
6510  1A4B27EC           const [63]: (-332969190)
6514  04                 const type 4
6515  0A                 string size (10)
6516  4C4F4F4B5F4C494E+  "LOOK_LIN"
651E  4B00               "K\0"
                         const [64]: "LOOK_LINK"
6520  04                 const type 4
6521  07                 string size (7)
6522  4F50454E454400     "OPENED\0"
                         const [65]: "OPENED"
                         * functions:
6529  00                 sizep (0)
                         * lines:
652B  01                 sizelineinfo (202)
                         [pc] (line)
652C  51                 [001] (81)
652D  03                 [002] (81)
652E  00                 [003] (82)
652F  00                 [004] (82)
6530  51                 [005] (82)
6531  03                 [006] (82)
6532  00                 [007] (82)
6533  00                 [008] (82)
6534  52                 [009] (82)
6535  03                 [010] (82)
6536  00                 [011] (83)
6537  00                 [012] (83)
6538  52                 [013] (83)
6539  03                 [014] (83)
653A  00                 [015] (83)
653B  00                 [016] (83)
653C  52                 [017] (83)
653D  03                 [018] (83)
653E  00                 [019] (85)
653F  00                 [020] (85)
6540  52                 [021] (85)
6541  03                 [022] (86)
6542  00                 [023] (86)
6543  00                 [024] (86)
6544  52                 [025] (86)
6545  03                 [026] (86)
6546  00                 [027] (87)
6547  00                 [028] (87)
6548  52                 [029] (87)
6549  03                 [030] (87)
654A  00                 [031] (89)
654B  00                 [032] (89)
654C  52                 [033] (89)
654D  03                 [034] (89)
654E  00                 [035] (90)
654F  00                 [036] (90)
6550  52                 [037] (90)
6551  03                 [038] (90)
6552  00                 [039] (90)
6553  00                 [040] (91)
6554  53                 [041] (91)
6555  03                 [042] (91)
6556  00                 [043] (91)
6557  00                 [044] (92)
6558  53                 [045] (92)
6559  03                 [046] (92)
655A  00                 [047] (92)
655B  00                 [048] (92)
655C  53                 [049] (92)
655D  03                 [050] (92)
655E  00                 [051] (92)
655F  00                 [052] (92)
6560  53                 [053] (93)
6561  03                 [054] (93)
6562  00                 [055] (93)
6563  00                 [056] (93)
6564  53                 [057] (95)
6565  03                 [058] (95)
6566  00                 [059] (95)
6567  00                 [060] (95)
6568  53                 [061] (96)
6569  03                 [062] (96)
656A  00                 [063] (96)
656B  00                 [064] (98)
656C  53                 [065] (98)
656D  03                 [066] (101)
656E  00                 [067] (101)
656F  00                 [068] (101)
6570  53                 [069] (101)
6571  03                 [070] (101)
6572  00                 [071] (102)
6573  00                 [072] (102)
6574  55                 [073] (102)
6575  03                 [074] (102)
6576  00                 [075] (102)
6577  00                 [076] (103)
6578  55                 [077] (103)
6579  03                 [078] (103)
657A  00                 [079] (103)
657B  00                 [080] (106)
657C  55                 [081] (106)
657D  03                 [082] (106)
657E  00                 [083] (107)
657F  00                 [084] (107)
6580  56                 [085] (107)
6581  03                 [086] (107)
6582  00                 [087] (108)
6583  00                 [088] (108)
6584  56                 [089] (110)
6585  03                 [090] (110)
6586  00                 [091] (110)
6587  00                 [092] (111)
6588  56                 [093] (111)
6589  03                 [094] (111)
658A  00                 [095] (111)
658B  00                 [096] (113)
658C  56                 [097] (113)
658D  03                 [098] (113)
658E  00                 [099] (113)
658F  00                 [100] (113)
6590  56                 [101] (114)
6591  03                 [102] (114)
6592  00                 [103] (114)
6593  00                 [104] (114)
6594  57                 [105] (114)
6595  03                 [106] (114)
6596  00                 [107] (116)
6597  00                 [108] (116)
6598  57                 [109] (118)
6599  03                 [110] (118)
659A  00                 [111] (118)
659B  00                 [112] (118)
659C  57                 [113] (118)
659D  03                 [114] (119)
659E  00                 [115] (119)
659F  00                 [116] (119)
65A0  57                 [117] (119)
65A1  03                 [118] (119)
65A2  00                 [119] (119)
65A3  00                 [120] (119)
65A4  59                 [121] (119)
65A5  03                 [122] (119)
65A6  00                 [123] (119)
65A7  00                 [124] (119)
65A8  59                 [125] (120)
65A9  03                 [126] (120)
65AA  00                 [127] (120)
65AB  00                 [128] (120)
65AC  59                 [129] (120)
65AD  03                 [130] (120)
65AE  00                 [131] (120)
65AF  00                 [132] (120)
65B0  59                 [133] (120)
65B1  03                 [134] (120)
65B2  00                 [135] (120)
65B3  00                 [136] (121)
65B4  5A                 [137] (121)
65B5  03                 [138] (121)
65B6  00                 [139] (121)
65B7  00                 [140] (121)
65B8  5A                 [141] (121)
65B9  03                 [142] (121)
65BA  00                 [143] (121)
65BB  00                 [144] (121)
65BC  5A                 [145] (123)
65BD  03                 [146] (123)
65BE  00                 [147] (123)
65BF  00                 [148] (124)
65C0  5A                 [149] (124)
65C1  03                 [150] (124)
65C2  00                 [151] (124)
65C3  00                 [152] (124)
65C4  5A                 [153] (124)
65C5  03                 [154] (124)
65C6  00                 [155] (125)
65C7  00                 [156] (125)
65C8  5B                 [157] (125)
65C9  03                 [158] (126)
65CA  00                 [159] (126)
65CB  00                 [160] (126)
65CC  5B                 [161] (126)
65CD  03                 [162] (127)
65CE  00                 [163] (127)
65CF  00                 [164] (127)
65D0  5B                 [165] (127)
65D1  03                 [166] (-128)
65D2  00                 [167] (-128)
65D3  00                 [168] (-128)
65D4  5B                 [169] (-126)
65D5  03                 [170] (-126)
65D6  00                 [171] (-126)
65D7  00                 [172] (-126)
65D8  5C                 [173] (-126)
65D9  03                 [174] (-126)
65DA  00                 [175] (-125)
65DB  00                 [176] (-125)
65DC  5C                 [177] (-125)
65DD  03                 [178] (-125)
65DE  00                 [179] (-125)
65DF  00                 [180] (-125)
65E0  5C                 [181] (-123)
65E1  03                 [182] (-123)
65E2  00                 [183] (-121)
65E3  00                 [184] (-121)
65E4  5C                 [185] (-121)
65E5  03                 [186] (-121)
65E6  00                 [187] (-121)
65E7  00                 [188] (-119)
65E8  5C                 [189] (-119)
65E9  03                 [190] (-117)
65EA  00                 [191] (-117)
65EB  00                 [192] (-117)
65EC  5C                 [193] (-117)
65ED  03                 [194] (-117)
65EE  00                 [195] (-116)
65EF  00                 [196] (-116)
65F0  5C                 [197] (-116)
65F1  03                 [198] (-116)
65F2  00                 [199] (-116)
65F3  00                 [200] (-116)
65F4  5C                 [201] (-116)
65F5  03                 [202] (-114)
                         * locals:
6854  00                 sizelocvars (0)
                         * upvalues:
6855  00                 sizeupvalues (0)
                         ** end of function **

                         
6856                     ** function [22] definition (level 2)
                         ** start of function **
6856  00                 string size (0)
                         source name: (none)
6858  07                 line defined (912)
6859  BC                 last line defined (956)
685A  07                 nups (10)
685B  0A                 numparams (0)
685C  00                 is_vararg (0)
685D  00                 maxstacksize (8)
                         * code:
6860  01                 sizecode (142)
6861  1D000000           [001] getglobal  0   0        ; mMovie
6865  24404000           [002] self       0   0   257  ; 135097114
6869  9D800000           [003] getglobal  2   2        ; 1661359502
686D  A2008000           [004] call       2   1   0  
6871  22400000           [005] call       0   0   1  
6875  1DC00000           [006] getglobal  0   3        ; 1074689893
6879  53000000           [007] getupval   1   0      
687D  22800001           [008] call       0   2   2  
6881  18400000           [009] test       0       1    ; to [11] if false
6885  1A800080           [010] jmp        3            ; to [14]
6889  13000000           [011] getupval   0   0      
688D  24004100           [012] self       0   0   260  ; -1938777623
6891  22400001           [013] call       0   2   1  
6895  13008000           [014] getupval   0   1      
6899  0E404100           [015] gettable   0   0   261  ; "IsLoading"
689D  18000000           [016] test       0       0    ; to [18] if true
68A1  1AC00380           [017] jmp        16           ; to [34]
68A5  1DC00000           [018] getglobal  0   3        ; 1074689893
68A9  53008000           [019] getupval   1   1      
68AD  4E80C100           [020] gettable   1   1   262  ; "Loader"
68B1  22800001           [021] call       0   2   2  
68B5  18400000           [022] test       0       1    ; to [24] if false
68B9  1A400280           [023] jmp        10           ; to [34]
68BD  13008000           [024] getupval   0   1      
68C1  0E804100           [025] gettable   0   0   262  ; "Loader"
68C5  24C04100           [026] self       0   0   263  ; -1344420604
68C9  22800001           [027] call       0   2   2  
68CD  18000000           [028] test       0       0    ; to [30] if true
68D1  1AC00080           [029] jmp        4            ; to [34]
68D5  13008000           [030] getupval   0   1      
68D9  0C00C282           [031] settable   0   261 264  ; "IsLoading" 0
68DD  13000001           [032] getupval   0   2      
68E1  22408000           [033] call       0   1   1  
68E5  13008000           [034] getupval   0   1      
68E9  0E404200           [035] gettable   0   0   265  ; "IsLoadingSecond"
68ED  18000000           [036] test       0       0    ; to [38] if true
68F1  1AC00380           [037] jmp        16           ; to [54]
68F5  1DC00000           [038] getglobal  0   3        ; 1074689893
68F9  53008000           [039] getupval   1   1      
68FD  4E80C200           [040] gettable   1   1   266  ; "SecondaryLoader"
6901  22800001           [041] call       0   2   2  
6905  18400000           [042] test       0       1    ; to [44] if false
6909  1A400280           [043] jmp        10           ; to [54]
690D  13008000           [044] getupval   0   1      
6911  0E804200           [045] gettable   0   0   266  ; "SecondaryLoader"
6915  24C04100           [046] self       0   0   263  ; -1344420604
6919  22800001           [047] call       0   2   2  
691D  18000000           [048] test       0       0    ; to [50] if true
6921  1AC00080           [049] jmp        4            ; to [54]
6925  13008000           [050] getupval   0   1      
6929  0C00C284           [051] settable   0   265 264  ; "IsLoadingSecond" 0
692D  13008001           [052] getupval   0   3      
6931  22408000           [053] call       0   1   1  
6935  13000002           [054] getupval   0   4      
6939  0EC04200           [055] gettable   0   0   267  ; "mDioramaLoader"
693D  24004300           [056] self       0   0   268  ; 739620187
6941  22800001           [057] call       0   2   2  
6945  18000000           [058] test       0       0    ; to [60] if true
6949  1A400980           [059] jmp        38           ; to [98]
694D  13000002           [060] getupval   0   4      
6951  0EC04200           [061] gettable   0   0   267  ; "mDioramaLoader"
6955  24404300           [062] self       0   0   269  ; 729320363
6959  22800001           [063] call       0   2   2  
695D  18000000           [064] test       0       0    ; to [66] if true
6961  1A800980           [065] jmp        39           ; to [105]
6965  17008000           [066] loadbool   0   1   0    ; true
fail op	8
6969  08008002           [067] setupval   0   5      
696D  13000002           [068] getupval   0   4      
6971  0EC04200           [069] gettable   0   0   267  ; "mDioramaLoader"
6975  24804300           [070] self       0   0   270  ; 48435800
6979  22400001           [071] call       0   2   1  
697D  13000002           [072] getupval   0   4      
6981  24C04300           [073] self       0   0   271  ; 2063458214
6985  22000101           [074] call       0   2   4  
6989  D3000003           [075] getupval   3   6      
698D  13018003           [076] getupval   4   7      
6991  0E014402           [077] gettable   4   4   272  ; -132701534
6995  5DC10000           [078] getglobal  5   3        ; 1074689893
6999  92018000           [079] move       6   1      
699D  62810001           [080] call       5   2   2  
fail op	9
69A1  49018002           [081] settable   5   5   0  
69A5  92018000           [082] move       6   1      
69A9  D2010001           [083] move       7   2      
69AD  22810002           [084] call       4   4   2  
69B1  52010000           [085] move       5   0      
69B5  E2408001           [086] call       3   3   1  
69B9  D3008003           [087] getupval   3   7      
69BD  CE40C401           [088] gettable   3   3   273  ; -617354062
69C1  1D010000           [089] getglobal  4   0        ; mMovie
69C5  59810400           [090] loadk      5   18       ; 0
69C9  99C10400           [091] loadk      6   19       ; 0
69CD  E2400002           [092] call       3   4   1  
69D1  D3000000           [093] getupval   3   0      
69D5  E400C501           [094] self       3   3   276  ; -492641364
69D9  57010000           [095] loadbool   5   0   0    ; false
69DD  E2408001           [096] call       3   3   1  
69E1  1A800180           [097] jmp        7            ; to [105]
69E5  D3000002           [098] getupval   3   4      
69E9  E440C501           [099] self       3   3   277  ; 1536804205
69ED  53010004           [100] getupval   5   8      
69F1  E2408001           [101] call       3   3   1  
69F5  D3000002           [102] getupval   3   4      
69F9  E400C101           [103] self       3   3   260  ; -1938777623
69FD  E2400001           [104] call       3   2   1  
6A01  DD800500           [105] getglobal  3   22       ; Engine
6A05  CEC0C501           [106] gettable   3   3   279  ; -1802437008
6A09  E2808000           [107] call       3   1   2  
6A0D  D8000000           [108] test       3       0    ; to [110] if true
6A11  1A800680           [109] jmp        27           ; to [137]
6A15  D3008004           [110] getupval   3   9      
6A19  D8400000           [111] test       3       1    ; to [113] if false
6A1D  1A000780           [112] jmp        29           ; to [142]
6A21  DDC00000           [113] getglobal  3   3        ; 1074689893
6A25  13010002           [114] getupval   4   4      
6A29  E2800001           [115] call       3   2   2  
6A2D  D8400000           [116] test       3       1    ; to [118] if false
6A31  1AC00580           [117] jmp        24           ; to [142]
6A35  D3000002           [118] getupval   3   4      
6A39  E400C601           [119] self       3   3   280  ; 1602909124
6A3D  E2800001           [120] call       3   2   2  
6A41  D8000000           [121] test       3       0    ; to [123] if true
6A45  1A800480           [122] jmp        19           ; to [142]
6A49  D3000004           [123] getupval   3   8      
6A4D  CC80C68C           [124] settable   3   281 282  ; "mForceUseControllerDelta" 1
6A51  D3000004           [125] getupval   3   8      
6A55  E4C0C601           [126] self       3   3   283  ; -826106647
6A59  57018000           [127] loadbool   5   1   0    ; true
6A5D  E2408001           [128] call       3   3   1  
6A61  DD000000           [129] getglobal  3   0        ; mMovie
6A65  E400C701           [130] self       3   3   284  ; -1443109027
6A69  57018000           [131] loadbool   5   1   0    ; true
6A6D  E2408001           [132] call       3   3   1  
6A71  D3000004           [133] getupval   3   8      
6A75  E400C101           [134] self       3   3   260  ; -1938777623
6A79  E2400001           [135] call       3   2   1  
6A7D  1A000180           [136] jmp        5            ; to [142]
6A81  D3000004           [137] getupval   3   8      
6A85  CC00C28C           [138] settable   3   281 264  ; "mForceUseControllerDelta" 0
6A89  D3000004           [139] getupval   3   8      
6A8D  E400C101           [140] self       3   3   260  ; -1938777623
6A91  E2400001           [141] call       3   2   1  
6A95  1E008000           [142] return     0   1      
                         * constants:
6A99  1D                 sizek (29)
6A9A  04                 const type 4
6A9B  07                 string size (7)
6A9C  6D4D6F76696500     "mMovie\0"
                         const [0]: "mMovie"
6AA3  01                 const type 3
6AA4  1A6B0D08           const [1]: (135097114)
6AA8  01                 const type 3
6AA9  8E550663           const [2]: (1661359502)
6AAD  01                 const type 3
6AAE  65770E40           const [3]: (1074689893)
6AB2  01                 const type 3
6AB3  E999708C           const [4]: (-1938777623)
6AB7  04                 const type 4
6AB8  0A                 string size (10)
6AB9  49734C6F6164696E+  "IsLoadin"
6AC1  6700               "g\0"
                         const [5]: "IsLoading"
6AC3  04                 const type 4
6AC4  07                 string size (7)
6AC5  4C6F6164657200     "Loader\0"
                         const [6]: "Loader"
6ACC  01                 const type 3
6ACD  04C5DDAF           const [7]: (-1344420604)
6AD1  01                 const type 3
6AD2  00000000           const [8]: (0)
6AD6  04                 const type 4
6AD7  10                 string size (16)
6AD8  49734C6F6164696E+  "IsLoadin"
6AE0  675365636F6E6400   "gSecond\0"
                         const [9]: "IsLoadingSecond"
6AE8  04                 const type 4
6AE9  10                 string size (16)
6AEA  5365636F6E646172+  "Secondar"
6AF2  794C6F6164657200   "yLoader\0"
                         const [10]: "SecondaryLoader"
6AFA  04                 const type 4
6AFB  0F                 string size (15)
6AFC  6D44696F72616D61+  "mDiorama"
6B04  4C6F6164657200     "Loader\0"
                         const [11]: "mDioramaLoader"
6B0B  01                 const type 3
6B0C  5BB5152C           const [12]: (739620187)
6B10  01                 const type 3
6B11  AB8B782B           const [13]: (729320363)
6B15  01                 const type 3
6B16  5812E302           const [14]: (48435800)
6B1A  01                 const type 3
6B1B  A6DFFD7A           const [15]: (2063458214)
6B1F  01                 const type 3
6B20  A22217F8           const [16]: (-132701534)
6B24  01                 const type 3
6B25  B2EC33DB           const [17]: (-617354062)
6B29  03                 const type 3
6B2A  00000000           const [18]: (0)
6B2E  03                 const type 3
6B2F  0000803E           const [19]: (0)
6B33  01                 const type 3
6B34  ACE3A2E2           const [20]: (-492641364)
6B38  01                 const type 3
6B39  6DC5995B           const [21]: (1536804205)
6B3D  04                 const type 4
6B3E  07                 string size (7)
6B3F  456E67696E6500     "Engine\0"
                         const [22]: "Engine"
6B46  01                 const type 3
6B47  70FE9094           const [23]: (-1802437008)
6B4B  01                 const type 3
6B4C  C4738A5F           const [24]: (1602909124)
6B50  04                 const type 4
6B51  19                 string size (25)
6B52  6D466F7263655573+  "mForceUs"
6B5A  65436F6E74726F6C+  "eControl"
6B62  6C657244656C7461+  "lerDelta"
6B6A  00                 "\0"
                         const [25]: "mForceUseControllerDelta"
6B6B  01                 const type 3
6B6C  01000000           const [26]: (1)
6B70  01                 const type 3
6B71  E99CC2CE           const [27]: (-826106647)
6B75  01                 const type 3
6B76  5DE7FBA9           const [28]: (-1443109027)
                         * functions:
6B7A  00                 sizep (0)
                         * lines:
6B7C  01                 sizelineinfo (142)
                         [pc] (line)
6B7D  91                 [001] (-111)
6B7E  03                 [002] (-111)
6B7F  00                 [003] (-111)
6B80  00                 [004] (-111)
6B81  91                 [005] (-111)
6B82  03                 [006] (-109)
6B83  00                 [007] (-109)
6B84  00                 [008] (-109)
6B85  91                 [009] (-109)
6B86  03                 [010] (-109)
6B87  00                 [011] (-108)
6B88  00                 [012] (-108)
6B89  91                 [013] (-108)
6B8A  03                 [014] (-105)
6B8B  00                 [015] (-105)
6B8C  00                 [016] (-105)
6B8D  91                 [017] (-105)
6B8E  03                 [018] (-105)
6B8F  00                 [019] (-105)
6B90  00                 [020] (-105)
6B91  93                 [021] (-105)
6B92  03                 [022] (-105)
6B93  00                 [023] (-105)
6B94  00                 [024] (-105)
6B95  93                 [025] (-105)
6B96  03                 [026] (-105)
6B97  00                 [027] (-105)
6B98  00                 [028] (-105)
6B99  93                 [029] (-105)
6B9A  03                 [030] (-104)
6B9B  00                 [031] (-104)
6B9C  00                 [032] (-103)
6B9D  93                 [033] (-103)
6B9E  03                 [034] (-100)
6B9F  00                 [035] (-100)
6BA0  00                 [036] (-100)
6BA1  93                 [037] (-100)
6BA2  03                 [038] (-100)
6BA3  00                 [039] (-100)
6BA4  00                 [040] (-100)
6BA5  94                 [041] (-100)
6BA6  03                 [042] (-100)
6BA7  00                 [043] (-100)
6BA8  00                 [044] (-100)
6BA9  94                 [045] (-100)
6BAA  03                 [046] (-100)
6BAB  00                 [047] (-100)
6BAC  00                 [048] (-100)
6BAD  94                 [049] (-100)
6BAE  03                 [050] (-99)
6BAF  00                 [051] (-99)
6BB0  00                 [052] (-98)
6BB1  97                 [053] (-98)
6BB2  03                 [054] (-95)
6BB3  00                 [055] (-95)
6BB4  00                 [056] (-95)
6BB5  97                 [057] (-95)
6BB6  03                 [058] (-95)
6BB7  00                 [059] (-95)
6BB8  00                 [060] (-94)
6BB9  97                 [061] (-94)
6BBA  03                 [062] (-94)
6BBB  00                 [063] (-94)
6BBC  00                 [064] (-94)
6BBD  97                 [065] (-94)
6BBE  03                 [066] (-93)
6BBF  00                 [067] (-93)
6BC0  00                 [068] (-92)
6BC1  97                 [069] (-92)
6BC2  03                 [070] (-92)
6BC3  00                 [071] (-92)
6BC4  00                 [072] (-90)
6BC5  97                 [073] (-90)
6BC6  03                 [074] (-90)
6BC7  00                 [075] (-89)
6BC8  00                 [076] (-89)
6BC9  97                 [077] (-89)
6BCA  03                 [078] (-89)
6BCB  00                 [079] (-89)
6BCC  00                 [080] (-89)
6BCD  97                 [081] (-89)
6BCE  03                 [082] (-89)
6BCF  00                 [083] (-89)
6BD0  00                 [084] (-89)
6BD1  97                 [085] (-89)
6BD2  03                 [086] (-89)
6BD3  00                 [087] (-87)
6BD4  00                 [088] (-87)
6BD5  97                 [089] (-87)
6BD6  03                 [090] (-87)
6BD7  00                 [091] (-87)
6BD8  00                 [092] (-87)
6BD9  97                 [093] (-86)
6BDA  03                 [094] (-86)
6BDB  00                 [095] (-86)
6BDC  00                 [096] (-86)
6BDD  97                 [097] (-85)
6BDE  03                 [098] (-83)
6BDF  00                 [099] (-83)
6BE0  00                 [100] (-83)
6BE1  97                 [101] (-83)
6BE2  03                 [102] (-82)
6BE3  00                 [103] (-82)
6BE4  00                 [104] (-82)
6BE5  97                 [105] (-79)
6BE6  03                 [106] (-79)
6BE7  00                 [107] (-79)
6BE8  00                 [108] (-79)
6BE9  97                 [109] (-79)
6BEA  03                 [110] (-78)
6BEB  00                 [111] (-78)
6BEC  00                 [112] (-78)
6BED  97                 [113] (-78)
6BEE  03                 [114] (-78)
6BEF  00                 [115] (-78)
6BF0  00                 [116] (-78)
6BF1  98                 [117] (-78)
6BF2  03                 [118] (-78)
6BF3  00                 [119] (-78)
6BF4  00                 [120] (-78)
6BF5  98                 [121] (-78)
6BF6  03                 [122] (-78)
6BF7  00                 [123] (-77)
6BF8  00                 [124] (-77)
6BF9  99                 [125] (-76)
6BFA  03                 [126] (-76)
6BFB  00                 [127] (-76)
6BFC  00                 [128] (-76)
6BFD  99                 [129] (-75)
6BFE  03                 [130] (-75)
6BFF  00                 [131] (-75)
6C00  00                 [132] (-75)
6C01  9C                 [133] (-74)
6C02  03                 [134] (-74)
6C03  00                 [135] (-74)
6C04  00                 [136] (-73)
6C05  9C                 [137] (-71)
6C06  03                 [138] (-71)
6C07  00                 [139] (-70)
6C08  00                 [140] (-70)
6C09  9C                 [141] (-70)
6C0A  03                 [142] (-68)
                         * locals:
6DB5  00                 sizelocvars (0)
                         * upvalues:
6DB6  00                 sizeupvalues (0)
                         ** end of function **

                         
6DB7                     ** function [23] definition (level 2)
                         ** start of function **
6DB7  00                 string size (0)
                         source name: (none)
6DB9  07                 line defined (958)
6DBA  C4                 last line defined (964)
6DBB  07                 nups (2)
6DBC  02                 numparams (4)
6DBD  04                 is_vararg (0)
6DBE  00                 maxstacksize (9)
                         * code:
6DC0  11                 sizecode (17)
6DC1  1D010000           [01] getglobal  4   0        ; 1074689893
6DC5  53010000           [02] getupval   5   0      
6DC9  22810001           [03] call       4   2   2  
6DCD  18410000           [04] test       4       1    ; to [6] if false
6DD1  1A000280           [05] jmp        9            ; to [15]
6DD5  13010000           [06] getupval   4   0      
6DD9  24414002           [07] self       4   4   257  ; -1938777623
6DDD  9D810000           [08] getglobal  6   2        ; mMovie
6DE1  A4C14003           [09] self       6   6   259  ; -174729759
6DE5  A2810001           [10] call       6   2   2  
6DE9  DD810000           [11] getglobal  7   2        ; mMovie
6DED  E401C103           [12] self       7   7   260  ; -301556379
6DF1  E2010001           [13] call       7   2   0  
6DF5  22410000           [14] call       4   0   1  
6DF9  13018000           [15] getupval   4   1      
6DFD  22418000           [16] call       4   1   1  
6E01  1E008000           [17] return     0   1      
                         * constants:
6E05  05                 sizek (5)
6E06  01                 const type 3
6E07  65770E40           const [0]: (1074689893)
6E0B  01                 const type 3
6E0C  E999708C           const [1]: (-1938777623)
6E10  04                 const type 4
6E11  07                 string size (7)
6E12  6D4D6F76696500     "mMovie\0"
                         const [2]: "mMovie"
6E19  01                 const type 3
6E1A  E1D595F5           const [3]: (-174729759)
6E1E  01                 const type 3
6E1F  659D06EE           const [4]: (-301556379)
                         * functions:
6E23  00                 sizep (0)
                         * lines:
6E24  11                 sizelineinfo (17)
                         [pc] (line)
6E25  BF                 [01] (-65)
6E26  03                 [02] (-65)
6E27  00                 [03] (-65)
6E28  00                 [04] (-65)
6E29  BF                 [05] (-65)
6E2A  03                 [06] (-64)
6E2B  00                 [07] (-64)
6E2C  00                 [08] (-64)
6E2D  BF                 [09] (-64)
6E2E  03                 [10] (-64)
6E2F  00                 [11] (-64)
6E30  00                 [12] (-64)
6E31  BF                 [13] (-64)
6E32  03                 [14] (-64)
6E33  00                 [15] (-61)
6E34  00                 [16] (-61)
6E35  BF                 [17] (-60)
                         * locals:
6E69  00                 sizelocvars (0)
                         * upvalues:
6E6A  00                 sizeupvalues (0)
                         ** end of function **

                         
6E6B                     ** function [24] definition (level 2)
                         ** start of function **
6E6B  00                 string size (0)
                         source name: (none)
6E6D  07                 line defined (966)
6E6E  CD                 last line defined (973)
6E6F  07                 nups (3)
6E70  03                 numparams (1)
6E71  01                 is_vararg (0)
6E72  00                 maxstacksize (4)
                         * code:
6E74  0D                 sizecode (13)
6E75  5D000000           [01] getglobal  1   0        ; -1817107093
6E79  99400000           [02] loadk      2   1        ; "AppearancePreview: "
6E7D  D2000000           [03] move       3   0      
6E81  82C00001           [04] concat     2   2   3  
6E85  62400001           [05] call       1   2   1  
fail op	8
6E89  08000000           [06] setupval   0   0      
6E8D  53008000           [07] getupval   1   1      
6E91  62808000           [08] call       1   1   2  
6E95  58400000           [09] test       1       1    ; to [11] if false
6E99  1A400080           [10] jmp        2            ; to [13]
6E9D  53000001           [11] getupval   1   2      
6EA1  62408000           [12] call       1   1   1  
6EA5  1E008000           [13] return     0   1      
                         * constants:
6EA9  02                 sizek (2)
6EAA  01                 const type 3
6EAB  6B25B193           const [0]: (-1817107093)
6EAF  04                 const type 4
6EB0  14                 string size (20)
6EB1  417070656172616E+  "Appearan"
6EB9  6365507265766965+  "cePrevie"
6EC1  773A2000           "w: \0"
                         const [1]: "AppearancePreview: "
                         * functions:
6EC5  00                 sizep (0)
                         * lines:
6EC6  0D                 sizelineinfo (13)
                         [pc] (line)
6EC7  C7                 [01] (-57)
6EC8  03                 [02] (-57)
6EC9  00                 [03] (-57)
6ECA  00                 [04] (-57)
6ECB  C7                 [05] (-57)
6ECC  03                 [06] (-55)
6ECD  00                 [07] (-54)
6ECE  00                 [08] (-54)
6ECF  C7                 [09] (-54)
6ED0  03                 [10] (-54)
6ED1  00                 [11] (-53)
6ED2  00                 [12] (-53)
6ED3  C7                 [13] (-51)
                         * locals:
6EFB  00                 sizelocvars (0)
                         * upvalues:
6EFC  00                 sizeupvalues (0)
                         ** end of function **

                         
6EFD                     ** function [25] definition (level 2)
                         ** start of function **
6EFD  00                 string size (0)
                         source name: (none)
6EFF  07                 line defined (975)
6F00  D1                 last line defined (977)
6F01  07                 nups (1)
6F02  01                 numparams (1)
6F03  01                 is_vararg (0)
6F04  00                 maxstacksize (2)
                         * code:
6F06  02                 sizecode (2)
fail op	8
6F07  08000000           [1] setupval   0   0      
6F0B  1E008000           [2] return     0   1      
                         * constants:
6F0F  00                 sizek (0)
                         * functions:
6F10  00                 sizep (0)
                         * lines:
6F11  02                 sizelineinfo (2)
                         [pc] (line)
6F12  D0                 [1] (-48)
6F13  03                 [2] (-47)
                         * locals:
6F1A  00                 sizelocvars (0)
                         * upvalues:
6F1B  00                 sizeupvalues (0)
                         ** end of function **

                         
6F1C                     ** function [26] definition (level 2)
                         ** start of function **
6F1C  00                 string size (0)
                         source name: (none)
6F1E  07                 line defined (979)
6F1F  D5                 last line defined (981)
6F20  07                 nups (1)
6F21  01                 numparams (1)
6F22  01                 is_vararg (0)
6F23  00                 maxstacksize (2)
                         * code:
6F25  02                 sizecode (2)
fail op	8
6F26  08000000           [1] setupval   0   0      
6F2A  1E008000           [2] return     0   1      
                         * constants:
6F2E  00                 sizek (0)
                         * functions:
6F2F  00                 sizep (0)
                         * lines:
6F30  02                 sizelineinfo (2)
                         [pc] (line)
6F31  D4                 [1] (-44)
6F32  03                 [2] (-43)
                         * locals:
6F39  00                 sizelocvars (0)
                         * upvalues:
6F3A  00                 sizeupvalues (0)
                         ** end of function **

                         
6F3B                     ** function [27] definition (level 2)
                         ** start of function **
6F3B  00                 string size (0)
                         source name: (none)
6F3D  07                 line defined (983)
6F3E  D9                 last line defined (985)
6F3F  07                 nups (0)
6F40  00                 numparams (0)
6F41  00                 is_vararg (0)
6F42  00                 maxstacksize (2)
                         * code:
6F44  03                 sizecode (3)
6F45  17008000           [1] loadbool   0   1   0    ; true
6F49  1E000001           [2] return     0   2      
6F4D  1E008000           [3] return     0   1      
                         * constants:
6F51  00                 sizek (0)
                         * functions:
6F52  00                 sizep (0)
                         * lines:
6F53  03                 sizelineinfo (3)
                         [pc] (line)
6F54  D8                 [1] (-40)
6F55  03                 [2] (-40)
6F56  00                 [3] (-39)
                         * locals:
6F60  00                 sizelocvars (0)
                         * upvalues:
6F61  00                 sizeupvalues (0)
                         ** end of function **

                         
6F62                     ** function [28] definition (level 2)
                         ** start of function **
6F62  00                 string size (0)
                         source name: (none)
6F64  07                 line defined (987)
6F65  DF                 last line defined (991)
6F66  07                 nups (2)
6F67  02                 numparams (1)
6F68  01                 is_vararg (0)
6F69  00                 maxstacksize (5)
                         * code:
6F6B  10                 sizecode (16)
6F6C  53000000           [01] getupval   1   0      
6F70  58400000           [02] test       1       1    ; to [4] if false
6F74  1AC00280           [03] jmp        12           ; to [16]
6F78  5D000000           [04] getglobal  1   0        ; 1074689893
6F7C  93008000           [05] getupval   2   1      
6F80  62800001           [06] call       1   2   2  
6F84  58400000           [07] test       1       1    ; to [9] if false
6F88  1A800180           [08] jmp        7            ; to [16]
6F8C  53008000           [09] getupval   1   1      
6F90  6440C000           [10] self       1   1   257  ; 1002639746
6F94  DD800000           [11] getglobal  3   2        ; -174740002
6F98  12010000           [12] move       4   0      
6F9C  E2800001           [13] call       3   2   2  
6FA0  17018000           [14] loadbool   4   1   0    ; true
6FA4  62400002           [15] call       1   4   1  
6FA8  1E008000           [16] return     0   1      
                         * constants:
6FAC  03                 sizek (3)
6FAD  01                 const type 3
6FAE  65770E40           const [0]: (1074689893)
6FB2  01                 const type 3
6FB3  8211C33B           const [1]: (1002639746)
6FB7  01                 const type 3
6FB8  DEAD95F5           const [2]: (-174740002)
                         * functions:
6FBC  00                 sizep (0)
                         * lines:
6FBD  10                 sizelineinfo (16)
                         [pc] (line)
6FBE  DC                 [01] (-36)
6FBF  03                 [02] (-36)
6FC0  00                 [03] (-36)
6FC1  00                 [04] (-36)
6FC2  DC                 [05] (-36)
6FC3  03                 [06] (-36)
6FC4  00                 [07] (-36)
6FC5  00                 [08] (-36)
6FC6  DC                 [09] (-35)
6FC7  03                 [10] (-35)
6FC8  00                 [11] (-35)
6FC9  00                 [12] (-35)
6FCA  DC                 [13] (-35)
6FCB  03                 [14] (-35)
6FCC  00                 [15] (-35)
6FCD  00                 [16] (-33)
                         * locals:
6FFE  00                 sizelocvars (0)
                         * upvalues:
6FFF  00                 sizeupvalues (0)
                         ** end of function **

                         
7000                     ** function [29] definition (level 2)
                         ** start of function **
7000  00                 string size (0)
                         source name: (none)
7002  07                 line defined (993)
7003  E5                 last line defined (997)
7004  07                 nups (1)
7005  01                 numparams (1)
7006  01                 is_vararg (0)
7007  00                 maxstacksize (5)
                         * code:
7009  0D                 sizecode (13)
700A  5D000000           [01] getglobal  1   0        ; 1074689893
700E  93000000           [02] getupval   2   0      
7012  62800001           [03] call       1   2   2  
7016  58400000           [04] test       1       1    ; to [6] if false
701A  1A800180           [05] jmp        7            ; to [13]
701E  53000000           [06] getupval   1   0      
7022  6440C000           [07] self       1   1   257  ; -1967297336
7026  DD800000           [08] getglobal  3   2        ; -174740002
702A  12010000           [09] move       4   0      
702E  E2800001           [10] call       3   2   2  
7032  17018000           [11] loadbool   4   1   0    ; true
7036  62400002           [12] call       1   4   1  
703A  1E008000           [13] return     0   1      
                         * constants:
703E  03                 sizek (3)
703F  01                 const type 3
7040  65770E40           const [0]: (1074689893)
7044  01                 const type 3
7045  C86CBD8A           const [1]: (-1967297336)
7049  01                 const type 3
704A  DEAD95F5           const [2]: (-174740002)
                         * functions:
704E  00                 sizep (0)
                         * lines:
704F  0D                 sizelineinfo (13)
                         [pc] (line)
7050  E2                 [01] (-30)
7051  03                 [02] (-30)
7052  00                 [03] (-30)
7053  00                 [04] (-30)
7054  E2                 [05] (-30)
7055  03                 [06] (-29)
7056  00                 [07] (-29)
7057  00                 [08] (-29)
7058  E2                 [09] (-29)
7059  03                 [10] (-29)
705A  00                 [11] (-29)
705B  00                 [12] (-29)
705C  E2                 [13] (-27)
                         * locals:
7084  00                 sizelocvars (0)
                         * upvalues:
7085  00                 sizeupvalues (0)
                         ** end of function **

                         
7086                     ** function [30] definition (level 2)
                         ** start of function **
7086  00                 string size (0)
                         source name: (none)
7088  07                 line defined (999)
7089  EB                 last line defined (1003)
708A  07                 nups (1)
708B  01                 numparams (1)
708C  01                 is_vararg (0)
708D  00                 maxstacksize (5)
                         * code:
708F  0D                 sizecode (13)
7090  5D000000           [01] getglobal  1   0        ; 1074689893
7094  93000000           [02] getupval   2   0      
7098  62800001           [03] call       1   2   2  
709C  58400000           [04] test       1       1    ; to [6] if false
70A0  1A800180           [05] jmp        7            ; to [13]
70A4  53000000           [06] getupval   1   0      
70A8  6440C000           [07] self       1   1   257  ; 561426718
70AC  DD800000           [08] getglobal  3   2        ; -174740002
70B0  12010000           [09] move       4   0      
70B4  E2800001           [10] call       3   2   2  
70B8  17018000           [11] loadbool   4   1   0    ; true
70BC  62400002           [12] call       1   4   1  
70C0  1E008000           [13] return     0   1      
                         * constants:
70C4  03                 sizek (3)
70C5  01                 const type 3
70C6  65770E40           const [0]: (1074689893)
70CA  01                 const type 3
70CB  1EB17621           const [1]: (561426718)
70CF  01                 const type 3
70D0  DEAD95F5           const [2]: (-174740002)
                         * functions:
70D4  00                 sizep (0)
                         * lines:
70D5  0D                 sizelineinfo (13)
                         [pc] (line)
70D6  E8                 [01] (-24)
70D7  03                 [02] (-24)
70D8  00                 [03] (-24)
70D9  00                 [04] (-24)
70DA  E8                 [05] (-24)
70DB  03                 [06] (-23)
70DC  00                 [07] (-23)
70DD  00                 [08] (-23)
70DE  E8                 [09] (-23)
70DF  03                 [10] (-23)
70E0  00                 [11] (-23)
70E1  00                 [12] (-23)
70E2  E8                 [13] (-21)
                         * locals:
710A  00                 sizelocvars (0)
                         * upvalues:
710B  00                 sizeupvalues (0)
                         ** end of function **

                         
710C                     ** function [31] definition (level 2)
                         ** start of function **
710C  00                 string size (0)
                         source name: (none)
710E  07                 line defined (1005)
710F  F5                 last line defined (1013)
7110  07                 nups (2)
7111  02                 numparams (1)
7112  01                 is_vararg (0)
7113  00                 maxstacksize (4)
                         * code:
7115  15                 sizecode (21)
7116  53000000           [01] getupval   1   0      
711A  58400000           [02] test       1       1    ; to [4] if false
711E  1A000280           [03] jmp        9            ; to [13]
7122  53008000           [04] getupval   1   1      
7126  6400C000           [05] self       1   1   256  ; 1261793790
712A  D2000000           [06] move       3   0      
712E  62408001           [07] call       1   3   1  
7132  53008000           [08] getupval   1   1      
7136  6440C000           [09] self       1   1   257  ; -826106647
713A  D7008000           [10] loadbool   3   1   0    ; true
713E  62408001           [11] call       1   3   1  
7142  1AC00180           [12] jmp        8            ; to [21]
7146  53008000           [13] getupval   1   1      
714A  6400C000           [14] self       1   1   256  ; 1261793790
714E  D9800000           [15] loadk      3   2        ; 0
7152  62408001           [16] call       1   3   1  
7156  53008000           [17] getupval   1   1      
715A  6440C000           [18] self       1   1   257  ; -826106647
715E  D7000000           [19] loadbool   3   0   0    ; false
7162  62408001           [20] call       1   3   1  
7166  1E008000           [21] return     0   1      
                         * constants:
716A  03                 sizek (3)
716B  01                 const type 3
716C  FE71354B           const [0]: (1261793790)
7170  01                 const type 3
7171  E99CC2CE           const [1]: (-826106647)
7175  03                 const type 3
7176  00000000           const [2]: (0)
                         * functions:
717A  00                 sizep (0)
                         * lines:
717B  15                 sizelineinfo (21)
                         [pc] (line)
717C  EE                 [01] (-18)
717D  03                 [02] (-18)
717E  00                 [03] (-18)
717F  00                 [04] (-17)
7180  EE                 [05] (-17)
7181  03                 [06] (-17)
7182  00                 [07] (-17)
7183  00                 [08] (-16)
7184  EE                 [09] (-16)
7185  03                 [10] (-16)
7186  00                 [11] (-16)
7187  00                 [12] (-16)
7188  EF                 [13] (-14)
7189  03                 [14] (-14)
718A  00                 [15] (-14)
718B  00                 [16] (-14)
718C  EF                 [17] (-13)
718D  03                 [18] (-13)
718E  00                 [19] (-13)
718F  00                 [20] (-13)
7190  EF                 [21] (-11)
                         * locals:
71D0  00                 sizelocvars (0)
                         * upvalues:
71D1  00                 sizeupvalues (0)
                         ** end of function **

                         
71D2                     ** function [32] definition (level 2)
                         ** start of function **
71D2  00                 string size (0)
                         source name: (none)
71D4  07                 line defined (1015)
71D5  FA                 last line defined (1018)
71D6  07                 nups (1)
71D7  01                 numparams (2)
71D8  02                 is_vararg (0)
71D9  00                 maxstacksize (4)
                         * code:
71DB  06                 sizecode (6)
71DC  93000000           [1] getupval   2   0      
71E0  D2008000           [2] move       3   1      
71E4  A2400001           [3] call       2   2   1  
71E8  97008000           [4] loadbool   2   1   0    ; true
71EC  9E000001           [5] return     2   2      
71F0  1E008000           [6] return     0   1      
                         * constants:
71F4  00                 sizek (0)
                         * functions:
71F5  00                 sizep (0)
                         * lines:
71F6  06                 sizelineinfo (6)
                         [pc] (line)
71F7  F8                 [1] (-8)
71F8  03                 [2] (-8)
71F9  00                 [3] (-8)
71FA  00                 [4] (-7)
71FB  F8                 [5] (-7)
71FC  03                 [6] (-6)
                         * locals:
720F  00                 sizelocvars (0)
                         * upvalues:
7210  00                 sizeupvalues (0)
                         ** end of function **

                         
7211                     ** function [33] definition (level 2)
                         ** start of function **
7211  00                 string size (0)
                         source name: (none)
7213  07                 line defined (1020)
7214  FF                 last line defined (1023)
7215  07                 nups (1)
7216  01                 numparams (2)
7217  02                 is_vararg (0)
7218  00                 maxstacksize (4)
                         * code:
721A  06                 sizecode (6)
721B  93000000           [1] getupval   2   0      
721F  D2008000           [2] move       3   1      
7223  A2400001           [3] call       2   2   1  
7227  97008000           [4] loadbool   2   1   0    ; true
722B  9E000001           [5] return     2   2      
722F  1E008000           [6] return     0   1      
                         * constants:
7233  00                 sizek (0)
                         * functions:
7234  00                 sizep (0)
                         * lines:
7235  06                 sizelineinfo (6)
                         [pc] (line)
7236  FD                 [1] (-3)
7237  03                 [2] (-3)
7238  00                 [3] (-3)
7239  00                 [4] (-2)
723A  FD                 [5] (-2)
723B  03                 [6] (-1)
                         * locals:
724E  00                 sizelocvars (0)
                         * upvalues:
724F  00                 sizeupvalues (0)
                         ** end of function **

                         
7250                     ** function [34] definition (level 2)
                         ** start of function **
7250  00                 string size (0)
                         source name: (none)
7252  08                 line defined (1025)
7253  85                 last line defined (1029)
7254  08                 nups (1)
7255  01                 numparams (0)
7256  00                 is_vararg (0)
7257  00                 maxstacksize (3)
                         * code:
7259  0A                 sizecode (10)
725A  1D000000           [01] getglobal  0   0        ; 1074689893
725E  53000000           [02] getupval   1   0      
7262  22800001           [03] call       0   2   2  
7266  18400000           [04] test       0       1    ; to [6] if false
726A  1AC00080           [05] jmp        4            ; to [10]
726E  13000000           [06] getupval   0   0      
7272  24404000           [07] self       0   0   257  ; -826106647
7276  97008000           [08] loadbool   2   1   0    ; true
727A  22408001           [09] call       0   3   1  
727E  1E008000           [10] return     0   1      
                         * constants:
7282  02                 sizek (2)
7283  01                 const type 3
7284  65770E40           const [0]: (1074689893)
7288  01                 const type 3
7289  E99CC2CE           const [1]: (-826106647)
                         * functions:
728D  00                 sizep (0)
                         * lines:
728E  0A                 sizelineinfo (10)
                         [pc] (line)
728F  02                 [01] (2)
7290  04                 [02] (2)
7291  00                 [03] (2)
7292  00                 [04] (2)
7293  02                 [05] (2)
7294  04                 [06] (3)
7295  00                 [07] (3)
7296  00                 [08] (3)
7297  02                 [09] (3)
7298  04                 [10] (5)
                         * locals:
72B7  00                 sizelocvars (0)
                         * upvalues:
72B8  00                 sizeupvalues (0)
                         ** end of function **

                         
72B9                     ** function [35] definition (level 2)
                         ** start of function **
72B9  00                 string size (0)
                         source name: (none)
72BB  08                 line defined (1031)
72BC  8B                 last line defined (1035)
72BD  08                 nups (1)
72BE  01                 numparams (0)
72BF  00                 is_vararg (0)
72C0  00                 maxstacksize (3)
                         * code:
72C2  0A                 sizecode (10)
72C3  1D000000           [01] getglobal  0   0        ; 1074689893
72C7  53000000           [02] getupval   1   0      
72CB  22800001           [03] call       0   2   2  
72CF  18400000           [04] test       0       1    ; to [6] if false
72D3  1AC00080           [05] jmp        4            ; to [10]
72D7  13000000           [06] getupval   0   0      
72DB  24404000           [07] self       0   0   257  ; -826106647
72DF  97000000           [08] loadbool   2   0   0    ; false
72E3  22408001           [09] call       0   3   1  
72E7  1E008000           [10] return     0   1      
                         * constants:
72EB  02                 sizek (2)
72EC  01                 const type 3
72ED  65770E40           const [0]: (1074689893)
72F1  01                 const type 3
72F2  E99CC2CE           const [1]: (-826106647)
                         * functions:
72F6  00                 sizep (0)
                         * lines:
72F7  0A                 sizelineinfo (10)
                         [pc] (line)
72F8  08                 [01] (8)
72F9  04                 [02] (8)
72FA  00                 [03] (8)
72FB  00                 [04] (8)
72FC  08                 [05] (8)
72FD  04                 [06] (9)
72FE  00                 [07] (9)
72FF  00                 [08] (9)
7300  08                 [09] (9)
7301  04                 [10] (11)
                         * locals:
7320  00                 sizelocvars (0)
                         * upvalues:
7321  00                 sizeupvalues (0)
                         ** end of function **

                         
7322                     ** function [36] definition (level 2)
                         ** start of function **
7322  00                 string size (0)
                         source name: (none)
7324  08                 line defined (1037)
7325  91                 last line defined (1041)
7326  08                 nups (2)
7327  02                 numparams (2)
7328  02                 is_vararg (0)
7329  00                 maxstacksize (6)
                         * code:
732B  11                 sizecode (17)
732C  93000000           [01] getupval   2   0      
7330  98400000           [02] test       2       1    ; to [4] if false
7334  1A000380           [03] jmp        13           ; to [17]
7338  9D000000           [04] getglobal  2   0        ; 1074689893
733C  D3008000           [05] getupval   3   1      
7340  CE40C001           [06] gettable   3   3   257  ; "mScrollBar"
7344  A2800001           [07] call       2   2   2  
7348  98400000           [08] test       2       1    ; to [10] if false
734C  1A800180           [09] jmp        7            ; to [17]
7350  93008000           [10] getupval   2   1      
7354  8E404001           [11] gettable   2   2   257  ; "mScrollBar"
7358  A4804001           [12] self       2   2   258  ; -1622081655
735C  1DC10000           [13] getglobal  4   3        ; -174740002
7360  52018000           [14] move       5   1      
7364  22010001           [15] call       4   2   0  
7368  A2400000           [16] call       2   0   1  
736C  1E008000           [17] return     0   1      
                         * constants:
7370  04                 sizek (4)
7371  01                 const type 3
7372  65770E40           const [0]: (1074689893)
7376  04                 const type 4
7377  0B                 string size (11)
7378  6D5363726F6C6C42+  "mScrollB"
7380  617200             "ar\0"
                         const [1]: "mScrollBar"
7383  01                 const type 3
7384  89FF509F           const [2]: (-1622081655)
7388  01                 const type 3
7389  DEAD95F5           const [3]: (-174740002)
                         * functions:
738D  00                 sizep (0)
                         * lines:
738E  11                 sizelineinfo (17)
                         [pc] (line)
738F  0E                 [01] (14)
7390  04                 [02] (14)
7391  00                 [03] (14)
7392  00                 [04] (14)
7393  0E                 [05] (14)
7394  04                 [06] (14)
7395  00                 [07] (14)
7396  00                 [08] (14)
7397  0E                 [09] (14)
7398  04                 [10] (15)
7399  00                 [11] (15)
739A  00                 [12] (15)
739B  0E                 [13] (15)
739C  04                 [14] (15)
739D  00                 [15] (15)
739E  00                 [16] (15)
739F  0E                 [17] (17)
                         * locals:
73D3  00                 sizelocvars (0)
                         * upvalues:
73D4  00                 sizeupvalues (0)
                         ** end of function **

                         
73D5                     ** function [37] definition (level 2)
                         ** start of function **
73D5  00                 string size (0)
                         source name: (none)
73D7  08                 line defined (1043)
73D8  9B                 last line defined (1051)
73D9  08                 nups (2)
73DA  02                 numparams (3)
73DB  03                 is_vararg (0)
73DC  00                 maxstacksize (4)
                         * code:
73DE  0A                 sizecode (10)
fail op	35
73DF  2300C000           [01] close      0  
73E3  1A800180           [02] jmp        7            ; to [10]
fail op	35
73E7  23404001           [03] close      0  
73EB  1A800080           [04] jmp        3            ; to [8]
73EF  D3000000           [05] getupval   3   0      
73F3  E2408000           [06] call       3   1   1  
73F7  1A400080           [07] jmp        2            ; to [10]
73FB  D3008000           [08] getupval   3   1      
73FF  E2408000           [09] call       3   1   1  
7403  1E008000           [10] return     0   1      
                         * constants:
7407  02                 sizek (2)
7408  04                 const type 4
7409  0C                 string size (12)
740A  454E5F4D4F555345+  "EN_MOUSE"
7412  5F423000           "_B0\0"
                         const [0]: "EN_MOUSE_B0"
7416  04                 const type 4
7417  02                 string size (2)
7418  3100               "1\0"
                         const [1]: "1"
                         * functions:
741A  00                 sizep (0)
                         * lines:
741B  0A                 sizelineinfo (10)
                         [pc] (line)
741C  14                 [01] (20)
741D  04                 [02] (20)
741E  00                 [03] (21)
741F  00                 [04] (21)
7420  14                 [05] (22)
7421  04                 [06] (22)
7422  00                 [07] (22)
7423  00                 [08] (24)
7424  15                 [09] (24)
7425  04                 [10] (27)
                         * locals:
7444  00                 sizelocvars (0)
                         * upvalues:
7445  00                 sizeupvalues (0)
                         ** end of function **

                         * lines:
7447  02                 sizelineinfo (297)
                         [pc] (line)
7448  06                 [001] (6)
7449  00                 [002] (6)
744A  00                 [003] (6)
744B  00                 [004] (7)
744C  06                 [005] (7)
744D  00                 [006] (7)
744E  00                 [007] (8)
744F  00                 [008] (8)
7450  06                 [009] (8)
7451  00                 [010] (9)
7452  00                 [011] (9)
7453  00                 [012] (9)
7454  07                 [013] (10)
7455  00                 [014] (10)
7456  00                 [015] (10)
7457  00                 [016] (11)
7458  07                 [017] (11)
7459  00                 [018] (11)
745A  00                 [019] (12)
745B  00                 [020] (12)
745C  07                 [021] (12)
745D  00                 [022] (13)
745E  00                 [023] (13)
745F  00                 [024] (13)
7460  08                 [025] (15)
7461  00                 [026] (15)
7462  00                 [027] (15)
7463  00                 [028] (15)
7464  08                 [029] (16)
7465  00                 [030] (18)
7466  00                 [031] (18)
7467  00                 [032] (18)
7468  08                 [033] (19)
7469  00                 [034] (19)
746A  00                 [035] (19)
746B  00                 [036] (20)
746C  09                 [037] (20)
746D  00                 [038] (20)
746E  00                 [039] (21)
746F  00                 [040] (21)
7470  09                 [041] (21)
7471  00                 [042] (23)
7472  00                 [043] (23)
7473  00                 [044] (23)
7474  09                 [045] (23)
7475  00                 [046] (23)
7476  00                 [047] (24)
7477  00                 [048] (25)
7478  0A                 [049] (26)
7479  00                 [050] (28)
747A  00                 [051] (29)
747B  00                 [052] (33)
747C  0A                 [053] (34)
747D  00                 [054] (37)
747E  00                 [055] (38)
747F  00                 [056] (39)
7480  0A                 [057] (40)
7481  00                 [058] (41)
7482  00                 [059] (42)
7483  00                 [060] (43)
7484  0B                 [061] (44)
7485  00                 [062] (45)
7486  00                 [063] (47)
7487  00                 [064] (48)
7488  0B                 [065] (49)
7489  00                 [066] (50)
748A  00                 [067] (51)
748B  00                 [068] (52)
748C  0B                 [069] (56)
748D  00                 [070] (56)
748E  00                 [071] (56)
748F  00                 [072] (54)
7490  0C                 [073] (67)
7491  00                 [074] (67)
7492  00                 [075] (80)
7493  00                 [076] (94)
7494  0C                 [077] (124)
7495  00                 [078] (124)
7496  00                 [079] (124)
7497  00                 [080] (-103)
7498  0C                 [081] (-103)
7499  00                 [082] (-103)
749A  00                 [083] (-103)
749B  00                 [084] (-103)
749C  0D                 [085] (-103)
749D  00                 [086] (-103)
749E  00                 [087] (-91)
749F  00                 [088] (-91)
74A0  0D                 [089] (-91)
74A1  00                 [090] (-91)
74A2  00                 [091] (95)
74A3  00                 [092] (95)
74A4  0D                 [093] (95)
74A5  00                 [094] (95)
74A6  00                 [095] (95)
74A7  00                 [096] (95)
74A8  0F                 [097] (95)
74A9  00                 [098] (95)
74AA  00                 [099] (95)
74AB  00                 [100] (95)
74AC  0F                 [101] (95)
74AD  00                 [102] (95)
74AE  00                 [103] (95)
74AF  00                 [104] (95)
74B0  0F                 [105] (95)
74B1  00                 [106] (95)
74B2  00                 [107] (-9)
74B3  00                 [108] (-9)
74B4  0F                 [109] (-9)
74B5  00                 [110] (-9)
74B6  00                 [111] (-9)
74B7  00                 [112] (-9)
74B8  10                 [113] (-9)
74B9  00                 [114] (-9)
74BA  00                 [115] (-9)
74BB  00                 [116] (-9)
74BC  12                 [117] (-9)
74BD  00                 [118] (-9)
74BE  00                 [119] (-9)
74BF  00                 [120] (-9)
74C0  12                 [121] (-9)
74C1  00                 [122] (-9)
74C2  00                 [123] (-9)
74C3  00                 [124] (38)
74C4  12                 [125] (38)
74C5  00                 [126] (38)
74C6  00                 [127] (38)
74C7  00                 [128] (38)
74C8  13                 [129] (38)
74C9  00                 [130] (38)
74CA  00                 [131] (53)
74CB  00                 [132] (53)
74CC  13                 [133] (53)
74CD  00                 [134] (53)
74CE  00                 [135] (67)
74CF  00                 [136] (67)
74D0  13                 [137] (110)
74D1  00                 [138] (110)
74D2  00                 [139] (110)
74D3  00                 [140] (110)
74D4  14                 [141] (110)
74D5  00                 [142] (110)
74D6  00                 [143] (110)
74D7  00                 [144] (110)
74D8  14                 [145] (110)
74D9  00                 [146] (110)
74DA  00                 [147] (110)
74DB  00                 [148] (110)
74DC  14                 [149] (69)
74DD  00                 [150] (-112)
74DE  00                 [151] (-112)
74DF  00                 [152] (-112)
74E0  15                 [153] (-112)
74E1  00                 [154] (-112)
74E2  00                 [155] (-112)
74E3  00                 [156] (-112)
74E4  15                 [157] (-112)
74E5  00                 [158] (-112)
74E6  00                 [159] (112)
74E7  00                 [160] (-84)
74E8  15                 [161] (-84)
74E9  00                 [162] (-84)
74EA  00                 [163] (-84)
74EB  00                 [164] (-84)
74EC  17                 [165] (-84)
74ED  00                 [166] (-84)
74EE  00                 [167] (-84)
74EF  00                 [168] (-110)
74F0  17                 [169] (-59)
74F1  00                 [170] (-59)
74F2  00                 [171] (-59)
74F3  00                 [172] (-59)
74F4  17                 [173] (-59)
74F5  00                 [174] (-59)
74F6  00                 [175] (-59)
74F7  00                 [176] (-82)
74F8  17                 [177] (-21)
74F9  00                 [178] (-21)
74FA  00                 [179] (-21)
74FB  00                 [180] (-21)
74FC  17                 [181] (-21)
74FD  00                 [182] (-21)
74FE  00                 [183] (-21)
74FF  00                 [184] (-21)
7500  18                 [185] (-21)
7501  00                 [186] (-57)
7502  00                 [187] (-18)
7503  00                 [188] (-18)
7504  19                 [189] (-19)
7505  00                 [190] (0)
7506  00                 [191] (0)
7507  00                 [192] (0)
7508  1A                 [193] (14)
7509  00                 [194] (14)
750A  00                 [195] (14)
750B  00                 [196] (14)
750C  1C                 [197] (14)
750D  00                 [198] (78)
750E  00                 [199] (78)
750F  00                 [200] (78)
7510  1D                 [201] (78)
7511  00                 [202] (78)
7512  00                 [203] (78)
7513  00                 [204] (78)
7514  21                 [205] (-114)
7515  00                 [206] (-114)
7516  00                 [207] (-114)
7517  00                 [208] (-114)
7518  22                 [209] (-114)
7519  00                 [210] (-114)
751A  00                 [211] (-114)
751B  00                 [212] (-114)
751C  25                 [213] (-114)
751D  00                 [214] (-114)
751E  00                 [215] (-114)
751F  00                 [216] (-114)
7520  26                 [217] (-114)
7521  00                 [218] (-114)
7522  00                 [219] (-114)
7523  00                 [220] (-114)
7524  27                 [221] (-114)
7525  00                 [222] (-114)
7526  00                 [223] (80)
7527  00                 [224] (-68)
7528  28                 [225] (-68)
7529  00                 [226] (-68)
752A  00                 [227] (-68)
752B  00                 [228] (-68)
752C  29                 [229] (-68)
752D  00                 [230] (-68)
752E  00                 [231] (-68)
752F  00                 [232] (-68)
7530  2A                 [233] (-68)
7531  00                 [234] (-68)
7532  00                 [235] (-68)
7533  00                 [236] (-112)
7534  2B                 [237] (-60)
7535  00                 [238] (-60)
7536  00                 [239] (-60)
7537  00                 [240] (-60)
7538  2C                 [241] (-66)
7539  00                 [242] (-51)
753A  00                 [243] (-51)
753B  00                 [244] (-51)
753C  2D                 [245] (-51)
753D  00                 [246] (-51)
753E  00                 [247] (-58)
753F  00                 [248] (-47)
7540  2F                 [249] (-47)
7541  00                 [250] (-47)
7542  00                 [251] (-49)
7543  00                 [252] (-43)
7544  30                 [253] (-43)
7545  00                 [254] (-43)
7546  00                 [255] (-45)
7547  00                 [256] (-39)
7548  31                 [257] (-39)
7549  00                 [258] (-41)
754A  00                 [259] (-33)
754B  00                 [260] (-33)
754C  32                 [261] (-33)
754D  00                 [262] (-33)
754E  00                 [263] (-37)
754F  00                 [264] (-27)
7550  33                 [265] (-27)
7551  00                 [266] (-27)
7552  00                 [267] (-31)
7553  00                 [268] (-21)
7554  34                 [269] (-21)
7555  00                 [270] (-21)
7556  00                 [271] (-25)
7557  00                 [272] (-11)
7558  38                 [273] (-11)
7559  00                 [274] (-11)
755A  00                 [275] (-6)
755B  00                 [276] (-6)
755C  38                 [277] (-6)
755D  00                 [278] (-9)
755E  00                 [279] (-1)
755F  00                 [280] (-1)
7560  38                 [281] (-1)
7561  00                 [282] (-4)
7562  00                 [283] (5)
7563  00                 [284] (5)
7564  36                 [285] (11)
7565  00                 [286] (11)
7566  00                 [287] (17)
7567  00                 [288] (17)
7568  43                 [289] (17)
7569  00                 [290] (17)
756A  00                 [291] (13)
756B  00                 [292] (27)
756C  43                 [293] (27)
756D  00                 [294] (27)
756E  00                 [295] (27)
756F  00                 [296] (19)
7570  50                 [297] (27)
                         * locals:
78EC  00                 sizelocvars (0)
                         * upvalues:
78ED  00                 sizeupvalues (0)
                         ** end of function **

78EE                     ** end of chunk **
