1	C:\wlua_dump\path\Lotus\InterfaceMap.lua
Pos   Hex Data           Description or Code
------------------------------------------------------------------------
0000                     ** source chunk: C:\wlua_dump\path\Lotus\InterfaceMap.lua
                         ** global header start **
0000  7F                 header signature: ""
0001  00                 version (major:minor hex digits)
0002  00                 format (0=official)
0003  00                 endianness (1=little endian)
0004  00                 size of int (bytes)
0005  00                 size of size_t (bytes)
0006  02                 size of Instruction (bytes)
0007  52                 size of number (bytes)
0008  B5                 integral (1=integral)
4181
                         * number type: single
                         * x86 standard (32-bit, little endian, doubles)
                         ** global header end **
EE.Interface.Utilities
Lotus.Interface.LotusUtilities
EE.Interface.AnchorMgr
x
y
IsVisible
Engine
X
Y
ResetBuddyEffects
OnProfileSaved
Initialize
Close
Hide
ToggleVisibility
SetAdvancedMode
Shutdown
Update
onViewportSizeChanged
onKeyUp_MENU_CANCEL
onKeyDown_MENU_CLICK
onKeyUp_MENU_CLICK
onKeyDown_MENU_RIGHT_CLICK
onKeyUp_MENU_RIGHT_CLICK
onKeyDown_MENU_MOUSE_Z
onKeyUp_MENU_MOUSE_Z
onKeyDown_MENU_UP
onKeyUp_MENU_UP
onKeyDown_MENU_DOWN
onKeyUp_MENU_DOWN
onKeyDown_MENU_LEFT
onKeyUp_MENU_LEFT
onKeyDown_MENU_RIGHT
onKeyUp_MENU_RIGHT
onKeyDown_MENU_X
onKeyUp_MENU_X
onKeyDown_MENU_Y
onKeyUp_MENU_Y
onKeyDown_MENU_RIGHT_Y
onKeyUp_MENU_RIGHT_Y
onKeyDown_TOGGLE_CHAT_WINDOW
onKeyDown_TOGGLE_CHAT_WINDOW_ALT
onKeyDown_SHOW_LEVEL_MAP
onKeyDown_MENU_GENERIC1
onKeyUp_MENU_GENERIC1
OnGamepadTransition
mMovie
_x
x
_y
y
gRegion
gGameRules
gRegion
IsVisible
mMovie
Reticle
_visible
mMovie
x
X
y
Y
Engine
buddyTrackFx
gRegion
Engine
PM_AIM
mMovie
MiniMapContainer
_x
mMovie
MiniMapContainer.MiniMapMarkers.PlayerArrow
playerPulseFx
gBackgroundRegion
mInstance
_rotation
mCurrentCoords
x
y
mCurVal
_T
OverlayMapVisible
mMovie
_root
UISys
FlashInstance_EASE_OUT
_alpha
_z
gPlayerProfileMgr
X
Y
mMovie
Reticle
_x
_y
_visible
IsVisible
x
y
z
mMovie
math
MapHint
UISys
FlashInstance_SMOOTH_STEP
_alpha
playerPulseInterval
mMovie
MapHint
UISys
FlashInstance_SMOOTH_STEP
_alpha
x
z
mMovie
IsVisible
mCurVal
mMin
mMax
y
controllerPanMarginDecrease
mScrollRange
mCurrentCoords
mLeeway
mCurVal
x
mCurrentCoords
z
y
gRegion
ERROR: No avatar found!
gGameRules
gPlayerProfileMgr
OnProfileSaved
InitOnValidAvatarPlayer: no playerProfile
mMovie
Blurer
_width
_height
Lotus.Interface.Libs.TimerMgr
mMovie
TimeOfDay
ANCHOR_V_BOTTOM
ANCHOR_H_RIGHT
MapHint
_root
_alpha
_z
Reticle
_visible
Blurer
mapDayNightSky
TimeOfDay.DayNight
TimeOfDay.DayNightcycler
mapDayNightCycler
TimeOfDay.Label
showMaplabels
ORB_VALLIS_NODE_TAG
MiniMapContainer.MiniMapMarkers.Marker1
MapHint.text
/Lotus/Language/Menu/AdvancedMapHint
MiniMapContainer.MiniMapMarkers.PlayerArrow.swapDepths
gGameRules
missionType
Lotus_Game
MT_LANDSCAPE
_T
gToolTip
OverlayMapVisible
mMovie
gGameRules
_root
_visible
UISys
FlashInstance_EASE_OUT
_alpha
_z
Engine
table
Label
/Lotus/Language/Menu/Pan
CallOut
MENU_X
/Lotus/Language/Menu/Zoom
MENU_RIGHT_X
/Lotus/Language/Menu/MapMarkerWaypoint
MENU_GENERIC1
/Lotus/Language/Menu/Exit
CallBack
MENU_CANCEL
_T
SetButtons
mMovie
mMovie
Map opened in advanced mode
gRegion
Engine
_T
ShowButtonBarCursor
EE.Interface.Components.DragScroll
Board
gGameRules
_root
_visible
true
MapHint
UISys
FlashInstance_SMOOTH_STEP
_alpha
Reticle
IsVisible
TimeOfDay
Blurer
true
_T
ShowButtonBarCursor
gRegion
mMovie
TimeOfDay.DayNight
_rotation
/Lotus/Language/SystemMessages/TimeUntil
LABEL
TIME
CompactOne
TimeOfDay.Label.text
mMovie
_x
_y
_width
_height
mMovie
_T
CommanderMap
_root
_visible
DisableMiniMap
ArsenalOpen
ArsenalUpgradeOpen
ModScreenOpen
gRegion
mapDayNightSky
TimeOfDay.DayNight
TimeOfDay.DayNightcycler
mapDayNightCycler
TimeOfDay.Label
showMaplabels
ORB_VALLIS_NODE_TAG
TimeOfDay
UISys
FlashInstance_SMOOTH_STEP
_alpha
mInstance
gGameRules
mCurVal
mDragMultiplier
mDragSpeed
x
y
mTargetVal
z
mCurrentCoords
miniMapMaterial
colorMiniMapMaterial
mCurVal
x
mCurrentCoords
z
y
mMovie
_xmouse
_ymouse
x
y
MapHint.text
/Lotus/Language/Menu/MapMarkerDisabledZone
_G
UISound_Error
MapHint
UISys
FlashInstance_SMOOTH_STEP
_alpha
mMovie
MapHint
UISys
FlashInstance_SMOOTH_STEP
_alpha
INCREMENT
DECREMENT
math
controllerDeadZone
y
math
controllerDeadZone
x
y
y
x
x
controllerPanSpeed
controllerPanSpeed
mMovie
Reticle
_x
_y
x
y
MapHint.text
/Lotus/Language/Menu/MapMarkerDisabledZone
_G
UISound_Error
MapHint
UISys
FlashInstance_SMOOTH_STEP
_alpha
mMovie
MapHint
UISys
FlashInstance_SMOOTH_STEP
_alpha
true
mMovie
_T
ShowButtonBarCursor
                         
0001                     ** function [0] definition (level 1)
                         ** start of function **
0001  00                 string size (0)
                         source name: (none)
0002  00                 line defined (0)
0003  00                 last line defined (0)
0004  00                 nups (0)
0005  00                 numparams (0)
0006  02                 is_vararg (2)
0007  52                 maxstacksize (82)
                         * code:
0009  03                 sizecode (437)
000A  1D000000           [001] getglobal  0   0        ; 849075268
000E  59400000           [002] loadk      1   1        ; "EE.Interface.Utilities"
0012  22800001           [003] call       0   2   2  
0016  5D000000           [004] getglobal  1   0        ; 849075268
001A  99800000           [005] loadk      2   2        ; "Lotus.Interface.LotusUtilities"
001E  62800001           [006] call       1   2   2  
0022  9D000000           [007] getglobal  2   0        ; 849075268
0026  D9C00000           [008] loadk      3   3        ; "EE.Interface.AnchorMgr"
002A  A2800001           [009] call       2   2   2  
002E  C6000002           [010] loadnil    3   4      
0032  57018000           [011] loadbool   5   1   0    ; true
0036  97010000           [012] loadbool   6   0   0    ; false
003A  D7010000           [013] loadbool   7   0   0    ; false
003E  17020000           [014] loadbool   8   0   0    ; false
0042  46020006           [015] loadnil    9   12     
0046  57030000           [016] loadbool   13  0   0    ; false
004A  97030000           [017] loadbool   14  0   0    ; false
004E  C6038008           [018] loadnil    15  17     
0052  97040000           [019] loadbool   18  0   0    ; false
0056  D7040000           [020] loadbool   19  0   0    ; false
005A  17050000           [021] loadbool   20  0   0    ; false
005E  59050100           [022] loadk      21  4        ; 0
0062  99450100           [023] loadk      22  5        ; 0
0066  D7058000           [024] loadbool   23  1   0    ; true
006A  17060000           [025] loadbool   24  0   0    ; false
006E  4606800C           [026] loadnil    25  25     
0072  97060000           [027] loadbool   26  0   0    ; false
0076  D9860100           [028] loadk      27  6        ; 0
007A  19C70100           [029] loadk      28  7        ; 0
007E  4607800E           [030] loadnil    29  29     
0082  97070000           [031] loadbool   30  0   0    ; false
0086  C6070011           [032] loadnil    31  34     
008A  CB880000           [033] newtable   35  0   2    ; array=0, hash=2
008E  CC484184           [034] settable   35  264 261  ; "x" 0
0092  CC48C184           [035] settable   35  265 261  ; "y" 0
0096  06090012           [036] loadnil    36  36     
009A  5D890200           [037] getglobal  37  10       ; 1892953090
009E  99C90200           [038] loadk      38  11       ; 0
00A2  D9090300           [039] loadk      39  12       ; 51
00A6  62898001           [040] call       37  3   2  
00AA  99490300           [041] loadk      38  13       ; 0
00AE  D9890300           [042] loadk      39  14       ; 0
00B2  170A8000           [043] loadbool   40  1   0    ; true
00B6  4B8A0000           [044] newtable   41  0   2    ; array=0, hash=2
00BA  4C4A4184           [045] settable   41  264 261  ; "x" 0
00BE  4C4AC184           [046] settable   41  265 261  ; "y" 0
00C2  994A0100           [047] loadk      42  5        ; 0
00C6  C60A8017           [048] loadnil    43  47     
00CA  1DCC0300           [049] getglobal  48  15       ; 572299008
00CE  228C8000           [050] call       48  1   2  
00D2  5DCC0300           [051] getglobal  49  15       ; 572299008
00D6  628C8000           [052] call       49  1   2  
00DA  8BCC0000           [053] newtable   50  0   3    ; array=0, hash=3
00DE  DD4C0400           [054] getglobal  51  17       ; Engine
00E2  CE8CC419           [055] gettable   51  51  274  ; -1802437008
00E6  E28C8000           [056] call       51  1   2  
00EA  8CCC0C88           [057] settable   50  272 51   ; "IsVisible"
00EE  8C4CC189           [058] settable   50  275 261  ; "X" 0
00F2  8C4C418A           [059] settable   50  276 261  ; "Y" 0
00F6  D70C0000           [060] loadbool   51  0   0    ; false
00FA  194D0500           [061] loadk      52  21       ; -51
00FE  598D0500           [062] loadk      53  22       ; 0
0102  860D801B           [063] loadnil    54  55     
0106  250E0000           [064] closure    56  0      
010A  654E0000           [065] closure    57  1      
010E  A58E0000           [066] closure    58  2      
0112  E5CE0000           [067] closure    59  3      
0116  12000019           [068] move       0   50     
011A  250F0100           [069] closure    60  4      
011E  12000000           [070] move       0   0      
0122  12000019           [071] move       0   50     
0126  1200001D           [072] move       0   58     
012A  4B0F0000           [073] newtable   61  0   0    ; array=0, hash=0
012E  A54F0100           [074] closure    62  5      
0132  1200801E           [075] move       0   61     
0136  A0CF0500           [076] setglobal  62  23       ; ResetBuddyEffects
013A  A00F0600           [077] setglobal  62  24       ; -447859588
013E  A58F0100           [078] closure    62  6      
0142  12000007           [079] move       0   14     
0146  1200801E           [080] move       0   61     
014A  E5CF0100           [081] closure    63  7      
014E  1200001F           [082] move       0   62     
0152  1200000B           [083] move       0   22     
0156  25100200           [084] closure    64  8      
015A  12008010           [085] move       0   33     
015E  1200800D           [086] move       0   27     
0162  65500200           [087] closure    65  9      
0166  12000016           [088] move       0   44     
016A  12000000           [089] move       0   0      
016E  12000002           [090] move       0   4      
0172  12008020           [091] move       0   65     
0176  A5900200           [092] closure    66  10     
017A  12008002           [093] move       0   5      
017E  12008010           [094] move       0   33     
0182  12008020           [095] move       0   65     
0186  E5D00200           [096] closure    67  11     
018A  1200000D           [097] move       0   26     
018E  12008003           [098] move       0   7      
0192  12000005           [099] move       0   10     
0196  12008010           [100] move       0   33     
019A  12000012           [101] move       0   36     
019E  12008012           [102] move       0   37     
01A2  1200800B           [103] move       0   23     
01A6  12000021           [104] move       0   66     
01AA  25110300           [105] closure    68  12     
01AE  12008009           [106] move       0   19     
01B2  1200000A           [107] move       0   20     
01B6  1200800A           [108] move       0   21     
01BA  65510300           [109] closure    69  13     
01BE  12000022           [110] move       0   68     
01C2  60510600           [111] setglobal  69  25       ; OnProfileSaved
01C6  60910600           [112] setglobal  69  26       ; -263662435
01CA  65910300           [113] closure    69  14     
01CE  12000019           [114] move       0   50     
01D2  12000000           [115] move       0   0      
01D6  1200800D           [116] move       0   27     
01DA  1200000E           [117] move       0   28     
01DE  12008010           [118] move       0   33     
01E2  A5D10300           [119] closure    70  15     
01E6  12000005           [120] move       0   10     
01EA  12008016           [121] move       0   45     
01EE  12000017           [122] move       0   46     
01F2  12008017           [123] move       0   47     
01F6  1200800D           [124] move       0   27     
01FA  1200000E           [125] move       0   28     
01FE  12000013           [126] move       0   38     
0202  1200800A           [127] move       0   21     
0206  12008012           [128] move       0   37     
020A  12008022           [129] move       0   69     
020E  12008010           [130] move       0   33     
0212  12008015           [131] move       0   43     
0216  12000002           [132] move       0   4      
021A  12008020           [133] move       0   65     
021E  E5110400           [134] closure    71  16     
0222  12000012           [135] move       0   36     
0226  12000005           [136] move       0   10     
022A  12000014           [137] move       0   40     
022E  12000018           [138] move       0   48     
0232  12008018           [139] move       0   49     
0236  12008016           [140] move       0   45     
023A  12000017           [141] move       0   46     
023E  12008017           [142] move       0   47     
0242  1200000E           [143] move       0   28     
0246  1200800D           [144] move       0   27     
024A  12000019           [145] move       0   50     
024E  12008012           [146] move       0   37     
0252  12000013           [147] move       0   38     
0256  12000000           [148] move       0   0      
025A  25520400           [149] closure    72  17     
025E  12008012           [150] move       0   37     
0262  12000005           [151] move       0   10     
0266  12008004           [152] move       0   9      
026A  1200800D           [153] move       0   27     
026E  12000012           [154] move       0   36     
0272  1200000E           [155] move       0   28     
0276  65920400           [156] closure    73  18     
027A  12008004           [157] move       0   9      
027E  12000006           [158] move       0   12     
0282  12008005           [159] move       0   11     
0286  12008006           [160] move       0   13     
028A  12000007           [161] move       0   14     
028E  12000022           [162] move       0   68     
0292  12000020           [163] move       0   64     
0296  12000005           [164] move       0   10     
029A  12000023           [165] move       0   70     
029E  12008023           [166] move       0   71     
02A2  12008021           [167] move       0   67     
02A6  12000004           [168] move       0   8      
02AA  A5D20400           [169] closure    74  19     
02AE  12000000           [170] move       0   0      
02B2  E5120500           [171] closure    75  20     
02B6  12000002           [172] move       0   4      
02BA  12008001           [173] move       0   3      
02BE  12000001           [174] move       0   2      
02C2  1200800D           [175] move       0   27     
02C6  1200000E           [176] move       0   28     
02CA  12000025           [177] move       0   74     
02CE  12008000           [178] move       0   1      
02D2  12000010           [179] move       0   32     
02D6  12000011           [180] move       0   34     
02DA  12000003           [181] move       0   6      
02DE  E0D20600           [182] setglobal  75  27       ; Initialize
02E2  E0120700           [183] setglobal  75  28       ; 1650753590
02E6  E5520500           [184] closure    75  21     
02EA  1200000D           [185] move       0   26     
02EE  1200001B           [186] move       0   54     
02F2  12008010           [187] move       0   33     
02F6  1200800E           [188] move       0   29     
02FA  12000005           [189] move       0   10     
02FE  12008002           [190] move       0   5      
0302  1200800B           [191] move       0   23     
0306  1200800C           [192] move       0   25     
030A  12008003           [193] move       0   7      
030E  25930500           [194] closure    76  22     
0312  12008025           [195] move       0   75     
0316  20530700           [196] setglobal  76  29       ; Close
031A  20930700           [197] setglobal  76  30       ; -1517569684
031E  25D30500           [198] closure    76  23     
0322  12008025           [199] move       0   75     
0326  12008010           [200] move       0   33     
032A  20D30700           [201] setglobal  76  31       ; Hide
032E  20130800           [202] setglobal  76  32       ; 2045399863
0332  25130600           [203] closure    76  24     
0336  1200800B           [204] move       0   23     
033A  12008025           [205] move       0   75     
033E  12008021           [206] move       0   67     
0342  20530800           [207] setglobal  76  33       ; ToggleVisibility
0346  20930800           [208] setglobal  76  34       ; 2123632618
034A  A54D0600           [209] closure    54  25     
034E  1200000D           [210] move       0   26     
0352  12008010           [211] move       0   33     
0356  12008025           [212] move       0   75     
035A  25930600           [213] closure    76  26     
035E  12008010           [214] move       0   33     
0362  12000020           [215] move       0   64     
0366  1200800C           [216] move       0   25     
036A  1200801D           [217] move       0   59     
036E  12000005           [218] move       0   10     
0372  12000023           [219] move       0   70     
0376  12000012           [220] move       0   36     
037A  12008023           [221] move       0   71     
037E  1200800E           [222] move       0   29     
0382  1200001B           [223] move       0   54     
0386  12000019           [224] move       0   50     
038A  12000009           [225] move       0   18     
038E  12000011           [226] move       0   34     
0392  12000000           [227] move       0   0      
0396  65D30600           [228] closure    77  27     
039A  1200000D           [229] move       0   26     
039E  12008010           [230] move       0   33     
03A2  12000026           [231] move       0   76     
03A6  12000005           [232] move       0   10     
03AA  1200800C           [233] move       0   25     
03AE  60D30800           [234] setglobal  77  35       ; SetAdvancedMode
03B2  60130900           [235] setglobal  77  36       ; -1055985952
03B6  65130700           [236] closure    77  28     
03BA  60530900           [237] setglobal  77  37       ; Shutdown
03BE  60930900           [238] setglobal  77  38       ; 1012367267
03C2  65530700           [239] closure    77  29     
03C6  12008000           [240] move       0   1      
03CA  12000010           [241] move       0   32     
03CE  A5930700           [242] closure    78  30     
03D2  E5D30700           [243] closure    79  31     
03D6  12000003           [244] move       0   6      
03DA  12008003           [245] move       0   7      
03DE  1200800F           [246] move       0   31     
03E2  1200000C           [247] move       0   24     
03E6  12008004           [248] move       0   9      
03EA  12000004           [249] move       0   8      
03EE  12008000           [250] move       0   1      
03F2  12000010           [251] move       0   32     
03F6  12008024           [252] move       0   73     
03FA  12000002           [253] move       0   4      
03FE  12008010           [254] move       0   33     
0402  12000011           [255] move       0   34     
0406  12000005           [256] move       0   10     
040A  12000009           [257] move       0   18     
040E  12008026           [258] move       0   77     
0412  12000016           [259] move       0   44     
0416  1200000F           [260] move       0   30     
041A  12008007           [261] move       0   15     
041E  12000008           [262] move       0   16     
0422  12008008           [263] move       0   17     
0426  1200800B           [264] move       0   23     
042A  12008012           [265] move       0   37     
042E  12000012           [266] move       0   36     
0432  12008014           [267] move       0   41     
0436  1200801A           [268] move       0   53     
043A  12000015           [269] move       0   42     
043E  1200001A           [270] move       0   52     
0442  12000013           [271] move       0   38     
0446  12008013           [272] move       0   39     
044A  12000014           [273] move       0   40     
044E  12000018           [274] move       0   48     
0452  12008023           [275] move       0   71     
0456  12008018           [276] move       0   49     
045A  12008009           [277] move       0   19     
045E  1200801F           [278] move       0   63     
0462  E0D30900           [279] setglobal  79  39       ; Update
0466  E0130A00           [280] setglobal  79  40       ; -1938777623
046A  E5130800           [281] closure    79  32     
046E  12000020           [282] move       0   64     
0472  12008001           [283] move       0   3      
0476  12000025           [284] move       0   74     
047A  E0530A00           [285] setglobal  79  41       ; onViewportSizeChanged
047E  E0930A00           [286] setglobal  79  42       ; 982516775
0482  E54D0800           [287] closure    55  33     
0486  12000005           [288] move       0   10     
048A  12008012           [289] move       0   37     
048E  12008004           [290] move       0   9      
0492  12008016           [291] move       0   45     
0496  1200800D           [292] move       0   27     
049A  12000012           [293] move       0   36     
049E  12000017           [294] move       0   46     
04A2  1200000E           [295] move       0   28     
04A6  E5930800           [296] closure    79  34     
04AA  12008002           [297] move       0   5      
04AE  12008025           [298] move       0   75     
04B2  E0D30A00           [299] setglobal  79  43       ; onKeyUp_MENU_CANCEL
04B6  E0130B00           [300] setglobal  79  44       ; -665590474
04BA  E5D30800           [301] closure    79  35     
04BE  12000012           [302] move       0   36     
04C2  E0530B00           [303] setglobal  79  45       ; onKeyDown_MENU_CLICK
04C6  E0930B00           [304] setglobal  79  46       ; -469094454
04CA  E5130900           [305] closure    79  36     
04CE  12000012           [306] move       0   36     
04D2  E0D30B00           [307] setglobal  79  47       ; onKeyUp_MENU_CLICK
04D6  E0130C00           [308] setglobal  79  48       ; 914083198
04DA  E5530900           [309] closure    79  37     
04DE  12008019           [310] move       0   51     
04E2  E0530C00           [311] setglobal  79  49       ; onKeyDown_MENU_RIGHT_CLICK
04E6  E0930C00           [312] setglobal  79  50       ; 177409983
04EA  E5930900           [313] closure    79  38     
04EE  12008019           [314] move       0   51     
04F2  1200801B           [315] move       0   55     
04F6  12008004           [316] move       0   9      
04FA  12008011           [317] move       0   35     
04FE  12000024           [318] move       0   72     
0502  12000000           [319] move       0   0      
0506  E0D30C00           [320] setglobal  79  51       ; onKeyUp_MENU_RIGHT_CLICK
050A  E0130D00           [321] setglobal  79  52       ; 980824432
050E  E5D30900           [322] closure    79  39     
0512  12000000           [323] move       0   0      
0516  12000015           [324] move       0   42     
051A  E0530D00           [325] setglobal  79  53       ; onKeyDown_MENU_MOUSE_Z
051E  E0930D00           [326] setglobal  79  54       ; 1458230185
0522  E5130A00           [327] closure    79  40     
0526  12000015           [328] move       0   42     
052A  E0D30D00           [329] setglobal  79  55       ; onKeyUp_MENU_MOUSE_Z
052E  E0130E00           [330] setglobal  79  56       ; 509967373
0532  E5530A00           [331] closure    79  41     
0536  12008014           [332] move       0   41     
053A  12000000           [333] move       0   0      
053E  25940A00           [334] closure    80  42     
0542  12008014           [335] move       0   41     
0546  12000000           [336] move       0   0      
054A  65D40A00           [337] closure    81  43     
054E  12008027           [338] move       0   79     
0552  60540E00           [339] setglobal  81  57       ; onKeyDown_MENU_UP
0556  60940E00           [340] setglobal  81  58       ; 963615866
055A  65140B00           [341] closure    81  44     
055E  12008014           [342] move       0   41     
0562  12008027           [343] move       0   79     
0566  60D40E00           [344] setglobal  81  59       ; onKeyUp_MENU_UP
056A  60140F00           [345] setglobal  81  60       ; -278231323
056E  65540B00           [346] closure    81  45     
0572  12008027           [347] move       0   79     
0576  60540F00           [348] setglobal  81  61       ; onKeyDown_MENU_DOWN
057A  60940F00           [349] setglobal  81  62       ; 1011601395
057E  65940B00           [350] closure    81  46     
0582  12008014           [351] move       0   41     
0586  12008027           [352] move       0   79     
058A  60D40F00           [353] setglobal  81  63       ; onKeyUp_MENU_DOWN
058E  60141000           [354] setglobal  81  64       ; -252043339
0592  65D40B00           [355] closure    81  47     
0596  12000028           [356] move       0   80     
059A  60541000           [357] setglobal  81  65       ; onKeyDown_MENU_LEFT
059E  60941000           [358] setglobal  81  66       ; -414055353
05A2  65140C00           [359] closure    81  48     
05A6  12008014           [360] move       0   41     
05AA  12000028           [361] move       0   80     
05AE  60D41000           [362] setglobal  81  67       ; onKeyUp_MENU_LEFT
05B2  60141100           [363] setglobal  81  68       ; 1025351894
05B6  65540C00           [364] closure    81  49     
05BA  12000028           [365] move       0   80     
05BE  60541100           [366] setglobal  81  69       ; onKeyDown_MENU_RIGHT
05C2  60941100           [367] setglobal  81  70       ; -642185325
05C6  65940C00           [368] closure    81  50     
05CA  12008014           [369] move       0   41     
05CE  12000028           [370] move       0   80     
05D2  60D41100           [371] setglobal  81  71       ; onKeyUp_MENU_RIGHT
05D6  60141200           [372] setglobal  81  72       ; -2091611677
05DA  65D40C00           [373] closure    81  51     
05DE  12008002           [374] move       0   5      
05E2  12000028           [375] move       0   80     
05E6  60541200           [376] setglobal  81  73       ; onKeyDown_MENU_X
05EA  60941200           [377] setglobal  81  74       ; -1741400568
05EE  65140D00           [378] closure    81  52     
05F2  12008002           [379] move       0   5      
05F6  12000028           [380] move       0   80     
05FA  60D41200           [381] setglobal  81  75       ; onKeyUp_MENU_X
05FE  60141300           [382] setglobal  81  76       ; -1345409204
0602  65540D00           [383] closure    81  53     
0606  12008002           [384] move       0   5      
060A  12008027           [385] move       0   79     
060E  60541300           [386] setglobal  81  77       ; onKeyDown_MENU_Y
0612  60941300           [387] setglobal  81  78       ; 1480429011
0616  65940D00           [388] closure    81  54     
061A  12008002           [389] move       0   5      
061E  12008027           [390] move       0   79     
0622  60D41300           [391] setglobal  81  79       ; onKeyUp_MENU_Y
0626  60141400           [392] setglobal  81  80       ; 206176771
062A  65D40D00           [393] closure    81  55     
062E  12008002           [394] move       0   5      
0632  12000015           [395] move       0   42     
0636  60541400           [396] setglobal  81  81       ; onKeyDown_MENU_RIGHT_Y
063A  60941400           [397] setglobal  81  82       ; -1986829795
063E  65140E00           [398] closure    81  56     
0642  12008002           [399] move       0   5      
0646  12000015           [400] move       0   42     
064A  60D41400           [401] setglobal  81  83       ; onKeyUp_MENU_RIGHT_Y
064E  60141500           [402] setglobal  81  84       ; 11707322
0652  65540E00           [403] closure    81  57     
0656  12000028           [404] move       0   80     
065A  12008027           [405] move       0   79     
065E  60541500           [406] setglobal  81  85       ; onKeyDown_TOGGLE_CHAT_WINDOW
0662  60941500           [407] setglobal  81  86       ; 1550925889
0666  65940E00           [408] closure    81  58     
066A  12000028           [409] move       0   80     
066E  12008027           [410] move       0   79     
0672  60D41500           [411] setglobal  81  87       ; onKeyDown_TOGGLE_CHAT_WINDOW_ALT
0676  60141600           [412] setglobal  81  88       ; -772625239
067A  65D40E00           [413] closure    81  59     
067E  12008025           [414] move       0   75     
0682  60541600           [415] setglobal  81  89       ; onKeyDown_SHOW_LEVEL_MAP
0686  60941600           [416] setglobal  81  90       ; -166166417
068A  65140F00           [417] closure    81  60     
068E  12008019           [418] move       0   51     
0692  60D41600           [419] setglobal  81  91       ; onKeyDown_MENU_GENERIC1
0696  60141700           [420] setglobal  81  92       ; -1431471040
069A  65540F00           [421] closure    81  61     
069E  12008019           [422] move       0   51     
06A2  12008002           [423] move       0   5      
06A6  1200801B           [424] move       0   55     
06AA  12008004           [425] move       0   9      
06AE  12008011           [426] move       0   35     
06B2  12000024           [427] move       0   72     
06B6  12000000           [428] move       0   0      
06BA  60541700           [429] setglobal  81  93       ; onKeyUp_MENU_GENERIC1
06BE  60941700           [430] setglobal  81  94       ; -1672983138
06C2  65940F00           [431] closure    81  62     
06C6  12008010           [432] move       0   33     
06CA  1200801D           [433] move       0   59     
06CE  1200001B           [434] move       0   54     
06D2  60D41700           [435] setglobal  81  95       ; OnGamepadTransition
06D6  60141800           [436] setglobal  81  96       ; -1729825229
06DA  1E008000           [437] return     0   1      
                         * constants:
06DE  61                 sizek (97)
06DF  01                 const type 3
06E0  44DC9B32           const [0]: (849075268)
06E4  04                 const type 4
06E5  17                 string size (23)
06E6  45452E496E746572+  "EE.Inter"
06EE  666163652E557469+  "face.Uti"
06F6  6C697469657300     "lities\0"
                         const [1]: "EE.Interface.Utilities"
06FD  04                 const type 4
06FE  1F                 string size (31)
06FF  4C6F7475732E496E+  "Lotus.In"
0707  746572666163652E+  "terface."
070F  4C6F747573557469+  "LotusUti"
0717  6C697469657300     "lities\0"
                         const [2]: "Lotus.Interface.LotusUtilities"
071E  04                 const type 4
071F  17                 string size (23)
0720  45452E496E746572+  "EE.Inter"
0728  666163652E416E63+  "face.Anc"
0730  686F724D677200     "horMgr\0"
                         const [3]: "EE.Interface.AnchorMgr"
0737  03                 const type 3
0738  0000803F           const [4]: (0)
073C  03                 const type 3
073D  00000000           const [5]: (0)
0741  03                 const type 3
0742  0000C844           const [6]: (0)
0746  03                 const type 3
0747  00006144           const [7]: (0)
074B  04                 const type 4
074C  02                 string size (2)
074D  7800               "x\0"
                         const [8]: "x"
074F  04                 const type 4
0750  02                 string size (2)
0751  7900               "y\0"
                         const [9]: "y"
0753  01                 const type 3
0754  022CD470           const [10]: (1892953090)
0758  03                 const type 3
0759  00000040           const [11]: (0)
075D  03                 const type 3
075E  3333333E           const [12]: (51)
0762  03                 const type 3
0763  0000003F           const [13]: (0)
0767  03                 const type 3
0768  00008040           const [14]: (0)
076C  01                 const type 3
076D  00971C22           const [15]: (572299008)
0771  04                 const type 4
0772  0A                 string size (10)
0773  497356697369626C+  "IsVisibl"
077B  6500               "e\0"
                         const [16]: "IsVisible"
077D  04                 const type 4
077E  07                 string size (7)
077F  456E67696E6500     "Engine\0"
                         const [17]: "Engine"
0786  01                 const type 3
0787  70FE9094           const [18]: (-1802437008)
078B  04                 const type 4
078C  02                 string size (2)
078D  5800               "X\0"
                         const [19]: "X"
078F  04                 const type 4
0790  02                 string size (2)
0791  5900               "Y\0"
                         const [20]: "Y"
0793  03                 const type 3
0794  CDCCCC3D           const [21]: (-51)
0798  03                 const type 3
0799  00009642           const [22]: (0)
079D  04                 const type 4
079E  12                 string size (18)
079F  5265736574427564+  "ResetBud"
07A7  6479456666656374+  "dyEffect"
07AF  7300               "s\0"
                         const [23]: "ResetBuddyEffects"
07B1  01                 const type 3
07B2  7C344EE5           const [24]: (-447859588)
07B6  04                 const type 4
07B7  0F                 string size (15)
07B8  4F6E50726F66696C+  "OnProfil"
07C0  65536176656400     "eSaved\0"
                         const [25]: "OnProfileSaved"
07C7  01                 const type 3
07C8  9DD448F0           const [26]: (-263662435)
07CC  04                 const type 4
07CD  0B                 string size (11)
07CE  496E697469616C69+  "Initiali"
07D6  7A6500             "ze\0"
                         const [27]: "Initialize"
07D9  01                 const type 3
07DA  36806462           const [28]: (1650753590)
07DE  04                 const type 4
07DF  06                 string size (6)
07E0  436C6F736500       "Close\0"
                         const [29]: "Close"
07E6  01                 const type 3
07E7  6CB98BA5           const [30]: (-1517569684)
07EB  04                 const type 4
07EC  05                 string size (5)
07ED  4869646500         "Hide\0"
                         const [31]: "Hide"
07F2  01                 const type 3
07F3  3753EA79           const [32]: (2045399863)
07F7  04                 const type 4
07F8  11                 string size (17)
07F9  546F67676C655669+  "ToggleVi"
0801  736962696C697479+  "sibility"
0809  00                 "\0"
                         const [33]: "ToggleVisibility"
080A  01                 const type 3
080B  EA0F947E           const [34]: (2123632618)
080F  04                 const type 4
0810  10                 string size (16)
0811  536574416476616E+  "SetAdvan"
0819  6365644D6F646500   "cedMode\0"
                         const [35]: "SetAdvancedMode"
0821  01                 const type 3
0822  E0EE0EC1           const [36]: (-1055985952)
0826  04                 const type 4
0827  09                 string size (9)
0828  53687574646F776E+  "Shutdown"
0830  00                 "\0"
                         const [37]: "Shutdown"
0831  01                 const type 3
0832  A37F573C           const [38]: (1012367267)
0836  04                 const type 4
0837  07                 string size (7)
0838  55706461746500     "Update\0"
                         const [39]: "Update"
083F  01                 const type 3
0840  E999708C           const [40]: (-1938777623)
0844  04                 const type 4
0845  16                 string size (22)
0846  6F6E56696577706F+  "onViewpo"
084E  727453697A654368+  "rtSizeCh"
0856  616E67656400       "anged\0"
                         const [41]: "onViewportSizeChanged"
085C  01                 const type 3
085D  2704903A           const [42]: (982516775)
0861  04                 const type 4
0862  14                 string size (20)
0863  6F6E4B657955705F+  "onKeyUp_"
086B  4D454E555F43414E+  "MENU_CAN"
0873  43454C00           "CEL\0"
                         const [43]: "onKeyUp_MENU_CANCEL"
0877  01                 const type 3
0878  36E553D8           const [44]: (-665590474)
087C  04                 const type 4
087D  15                 string size (21)
087E  6F6E4B6579446F77+  "onKeyDow"
0886  6E5F4D454E555F43+  "n_MENU_C"
088E  4C49434B00         "LICK\0"
                         const [45]: "onKeyDown_MENU_CLICK"
0893  01                 const type 3
0894  CA2F0AE4           const [46]: (-469094454)
0898  04                 const type 4
0899  13                 string size (19)
089A  6F6E4B657955705F+  "onKeyUp_"
08A2  4D454E555F434C49+  "MENU_CLI"
08AA  434B00             "CK\0"
                         const [47]: "onKeyUp_MENU_CLICK"
08AD  01                 const type 3
08AE  7ECD7B36           const [48]: (914083198)
08B2  04                 const type 4
08B3  1B                 string size (27)
08B4  6F6E4B6579446F77+  "onKeyDow"
08BC  6E5F4D454E555F52+  "n_MENU_R"
08C4  494748545F434C49+  "IGHT_CLI"
08CC  434B00             "CK\0"
                         const [49]: "onKeyDown_MENU_RIGHT_CLICK"
08CF  01                 const type 3
08D0  BF0F930A           const [50]: (177409983)
08D4  04                 const type 4
08D5  19                 string size (25)
08D6  6F6E4B657955705F+  "onKeyUp_"
08DE  4D454E555F524947+  "MENU_RIG"
08E6  48545F434C49434B+  "HT_CLICK"
08EE  00                 "\0"
                         const [51]: "onKeyUp_MENU_RIGHT_CLICK"
08EF  01                 const type 3
08F0  7031763A           const [52]: (980824432)
08F4  04                 const type 4
08F5  17                 string size (23)
08F6  6F6E4B6579446F77+  "onKeyDow"
08FE  6E5F4D454E555F4D+  "n_MENU_M"
0906  4F5553455F5A00     "OUSE_Z\0"
                         const [53]: "onKeyDown_MENU_MOUSE_Z"
090D  01                 const type 3
090E  A9D3EA56           const [54]: (1458230185)
0912  04                 const type 4
0913  15                 string size (21)
0914  6F6E4B657955705F+  "onKeyUp_"
091C  4D454E555F4D4F55+  "MENU_MOU"
0924  53455F5A00         "SE_Z\0"
                         const [55]: "onKeyUp_MENU_MOUSE_Z"
0929  01                 const type 3
092A  0D7C651E           const [56]: (509967373)
092E  04                 const type 4
092F  12                 string size (18)
0930  6F6E4B6579446F77+  "onKeyDow"
0938  6E5F4D454E555F55+  "n_MENU_U"
0940  5000               "P\0"
                         const [57]: "onKeyDown_MENU_UP"
0942  01                 const type 3
0943  7A9C6F39           const [58]: (963615866)
0947  04                 const type 4
0948  10                 string size (16)
0949  6F6E4B657955705F+  "onKeyUp_"
0951  4D454E555F555000   "MENU_UP\0"
                         const [59]: "onKeyUp_MENU_UP"
0959  01                 const type 3
095A  E5866AEF           const [60]: (-278231323)
095E  04                 const type 4
095F  14                 string size (20)
0960  6F6E4B6579446F77+  "onKeyDow"
0968  6E5F4D454E555F44+  "n_MENU_D"
0970  4F574E00           "OWN\0"
                         const [61]: "onKeyDown_MENU_DOWN"
0974  01                 const type 3
0975  F3CF4B3C           const [62]: (1011601395)
0979  04                 const type 4
097A  12                 string size (18)
097B  6F6E4B657955705F+  "onKeyUp_"
0983  4D454E555F444F57+  "MENU_DOW"
098B  4E00               "N\0"
                         const [63]: "onKeyUp_MENU_DOWN"
098D  01                 const type 3
098E  B51FFAF0           const [64]: (-252043339)
0992  04                 const type 4
0993  14                 string size (20)
0994  6F6E4B6579446F77+  "onKeyDow"
099C  6E5F4D454E555F4C+  "n_MENU_L"
09A4  45465400           "EFT\0"
                         const [65]: "onKeyDown_MENU_LEFT"
09A8  01                 const type 3
09A9  470452E7           const [66]: (-414055353)
09AD  04                 const type 4
09AE  12                 string size (18)
09AF  6F6E4B657955705F+  "onKeyUp_"
09B7  4D454E555F4C4546+  "MENU_LEF"
09BF  5400               "T\0"
                         const [67]: "onKeyUp_MENU_LEFT"
09C1  01                 const type 3
09C2  D6A01D3D           const [68]: (1025351894)
09C6  04                 const type 4
09C7  15                 string size (21)
09C8  6F6E4B6579446F77+  "onKeyDow"
09D0  6E5F4D454E555F52+  "n_MENU_R"
09D8  4947485400         "IGHT\0"
                         const [69]: "onKeyDown_MENU_RIGHT"
09DD  01                 const type 3
09DE  9307B9D9           const [70]: (-642185325)
09E2  04                 const type 4
09E3  13                 string size (19)
09E4  6F6E4B657955705F+  "onKeyUp_"
09EC  4D454E555F524947+  "MENU_RIG"
09F4  485400             "HT\0"
                         const [71]: "onKeyUp_MENU_RIGHT"
09F7  01                 const type 3
09F8  E3895483           const [72]: (-2091611677)
09FC  04                 const type 4
09FD  11                 string size (17)
09FE  6F6E4B6579446F77+  "onKeyDow"
0A06  6E5F4D454E555F58+  "n_MENU_X"
0A0E  00                 "\0"
                         const [73]: "onKeyDown_MENU_X"
0A0F  01                 const type 3
0A10  08563498           const [74]: (-1741400568)
0A14  04                 const type 4
0A15  0F                 string size (15)
0A16  6F6E4B657955705F+  "onKeyUp_"
0A1E  4D454E555F5800     "MENU_X\0"
                         const [75]: "onKeyUp_MENU_X"
0A25  01                 const type 3
0A26  4CAFCEAF           const [76]: (-1345409204)
0A2A  04                 const type 4
0A2B  11                 string size (17)
0A2C  6F6E4B6579446F77+  "onKeyDow"
0A34  6E5F4D454E555F59+  "n_MENU_Y"
0A3C  00                 "\0"
                         const [77]: "onKeyDown_MENU_Y"
0A3D  01                 const type 3
0A3E  D38D3D58           const [78]: (1480429011)
0A42  04                 const type 4
0A43  0F                 string size (15)
0A44  6F6E4B657955705F+  "onKeyUp_"
0A4C  4D454E555F5900     "MENU_Y\0"
                         const [79]: "onKeyUp_MENU_Y"
0A53  01                 const type 3
0A54  03024A0C           const [80]: (206176771)
0A58  04                 const type 4
0A59  17                 string size (23)
0A5A  6F6E4B6579446F77+  "onKeyDow"
0A62  6E5F4D454E555F52+  "n_MENU_R"
0A6A  494748545F5900     "IGHT_Y\0"
                         const [81]: "onKeyDown_MENU_RIGHT_Y"
0A71  01                 const type 3
0A72  1D629389           const [82]: (-1986829795)
0A76  04                 const type 4
0A77  15                 string size (21)
0A78  6F6E4B657955705F+  "onKeyUp_"
0A80  4D454E555F524947+  "MENU_RIG"
0A88  48545F5900         "HT_Y\0"
                         const [83]: "onKeyUp_MENU_RIGHT_Y"
0A8D  01                 const type 3
0A8E  BAA3B200           const [84]: (11707322)
0A92  04                 const type 4
0A93  1D                 string size (29)
0A94  6F6E4B6579446F77+  "onKeyDow"
0A9C  6E5F544F47474C45+  "n_TOGGLE"
0AA4  5F434841545F5749+  "_CHAT_WI"
0AAC  4E444F5700         "NDOW\0"
                         const [85]: "onKeyDown_TOGGLE_CHAT_WINDOW"
0AB1  01                 const type 3
0AB2  4140715C           const [86]: (1550925889)
0AB6  04                 const type 4
0AB7  21                 string size (33)
0AB8  6F6E4B6579446F77+  "onKeyDow"
0AC0  6E5F544F47474C45+  "n_TOGGLE"
0AC8  5F434841545F5749+  "_CHAT_WI"
0AD0  4E444F575F414C54+  "NDOW_ALT"
0AD8  00                 "\0"
                         const [87]: "onKeyDown_TOGGLE_CHAT_WINDOW_ALT"
0AD9  01                 const type 3
0ADA  A9ACF2D1           const [88]: (-772625239)
0ADE  04                 const type 4
0ADF  19                 string size (25)
0AE0  6F6E4B6579446F77+  "onKeyDow"
0AE8  6E5F53484F575F4C+  "n_SHOW_L"
0AF0  4556454C5F4D4150+  "EVEL_MAP"
0AF8  00                 "\0"
                         const [89]: "onKeyDown_SHOW_LEVEL_MAP"
0AF9  01                 const type 3
0AFA  6F8018F6           const [90]: (-166166417)
0AFE  04                 const type 4
0AFF  18                 string size (24)
0B00  6F6E4B6579446F77+  "onKeyDow"
0B08  6E5F4D454E555F47+  "n_MENU_G"
0B10  454E455249433100   "ENERIC1\0"
                         const [91]: "onKeyDown_MENU_GENERIC1"
0B18  01                 const type 3
0B19  407CADAA           const [92]: (-1431471040)
0B1D  04                 const type 4
0B1E  16                 string size (22)
0B1F  6F6E4B657955705F+  "onKeyUp_"
0B27  4D454E555F47454E+  "MENU_GEN"
0B2F  455249433100       "ERIC1\0"
                         const [93]: "onKeyUp_MENU_GENERIC1"
0B35  01                 const type 3
0B36  9E4D489C           const [94]: (-1672983138)
0B3A  04                 const type 4
0B3B  14                 string size (20)
0B3C  4F6E47616D657061+  "OnGamepa"
0B44  645472616E736974+  "dTransit"
0B4C  696F6E00           "ion\0"
                         const [95]: "OnGamepadTransition"
0B50  01                 const type 3
0B51  33F6E498           const [96]: (-1729825229)
                         * functions:
0B55  3F                 sizep (63)
                         
0B56                     ** function [0] definition (level 2)
                         ** start of function **
0B56  00                 string size (0)
                         source name: (none)
0B57  54                 line defined (84)
0B58  57                 last line defined (87)
0B59  00                 nups (0)
0B5A  02                 numparams (2)
0B5B  00                 is_vararg (0)
0B5C  07                 maxstacksize (7)
                         * code:
0B5D  0D                 sizecode (13)
0B5E  9D000000           [01] getglobal  2   0        ; mMovie
0B62  A4404001           [02] self       2   2   257  ; 471456102
0B66  12010000           [03] move       4   0      
0B6A  59810000           [04] loadk      5   2        ; "_x"
0B6E  8EC1C000           [05] gettable   6   1   259  ; "x"
0B72  A2408002           [06] call       2   5   1  
0B76  9D000000           [07] getglobal  2   0        ; mMovie
0B7A  A4404001           [08] self       2   2   257  ; 471456102
0B7E  12010000           [09] move       4   0      
0B82  59010100           [10] loadk      5   4        ; "_y"
0B86  8E41C100           [11] gettable   6   1   261  ; "y"
0B8A  A2408002           [12] call       2   5   1  
0B8E  1E008000           [13] return     0   1      
                         * constants:
0B92  06                 sizek (6)
0B93  04                 const type 4
0B94  07                 string size (7)
0B95  6D4D6F76696500     "mMovie\0"
                         const [0]: "mMovie"
0B9C  01                 const type 3
0B9D  66D9191C           const [1]: (471456102)
0BA1  04                 const type 4
0BA2  03                 string size (3)
0BA3  5F7800             "_x\0"
                         const [2]: "_x"
0BA6  04                 const type 4
0BA7  02                 string size (2)
0BA8  7800               "x\0"
                         const [3]: "x"
0BAA  04                 const type 4
0BAB  03                 string size (3)
0BAC  5F7900             "_y\0"
                         const [4]: "_y"
0BAF  04                 const type 4
0BB0  02                 string size (2)
0BB1  7900               "y\0"
                         const [5]: "y"
                         * functions:
0BB3  00                 sizep (0)
                         * lines:
0BB4  0D                 sizelineinfo (13)
                         [pc] (line)
0BB5  55                 [01] (85)
0BB6  00                 [02] (85)
0BB7  00                 [03] (85)
0BB8  00                 [04] (85)
0BB9  55                 [05] (85)
0BBA  00                 [06] (85)
0BBB  00                 [07] (86)
0BBC  00                 [08] (86)
0BBD  55                 [09] (86)
0BBE  00                 [10] (86)
0BBF  00                 [11] (86)
0BC0  00                 [12] (86)
0BC1  55                 [13] (87)
                         * locals:
0BE9  00                 sizelocvars (0)
                         * upvalues:
0BEA  00                 sizeupvalues (0)
                         ** end of function **

                         
0BEB                     ** function [1] definition (level 2)
                         ** start of function **
0BEB  00                 string size (0)
                         source name: (none)
0BEC  5A                 line defined (90)
0BED  67                 last line defined (103)
0BEE  00                 nups (0)
0BEF  00                 numparams (0)
0BF0  00                 is_vararg (0)
0BF1  06                 maxstacksize (6)
                         * code:
0BF2  24                 sizecode (36)
0BF3  1D000000           [01] getglobal  0   0        ; 1074689893
0BF7  5D400000           [02] getglobal  1   1        ; gRegion
0BFB  22800001           [03] call       0   2   2  
0BFF  18400000           [04] test       0       1    ; to [6] if false
0C03  1AC00680           [05] jmp        28           ; to [34]
0C07  1D400000           [06] getglobal  0   1        ; gRegion
0C0B  24804000           [07] self       0   0   258  ; 65205951
0C0F  22800001           [08] call       0   2   2  
0C13  5D000000           [09] getglobal  1   0        ; 1074689893
0C17  92000000           [10] move       2   0      
0C1B  62800001           [11] call       1   2   2  
0C1F  58400000           [12] test       1       1    ; to [14] if false
0C23  1AC00480           [13] jmp        20           ; to [34]
0C27  5D000000           [14] getglobal  1   0        ; 1074689893
0C2B  A4C04000           [15] self       2   0   259  ; -564624675
0C2F  A2000001           [16] call       2   2   0  
0C33  62800000           [17] call       1   0   2  
0C37  58400000           [18] test       1       1    ; to [20] if false
0C3B  1A400380           [19] jmp        14           ; to [34]
0C3F  5D000100           [20] getglobal  1   4        ; gGameRules
0C43  9D000000           [21] getglobal  2   0        ; 1074689893
0C47  D2008000           [22] move       3   1      
0C4B  A2800001           [23] call       2   2   2  
0C4F  98400000           [24] test       2       1    ; to [26] if false
0C53  1AC00180           [25] jmp        8            ; to [34]
0C57  A4C04000           [26] self       2   0   259  ; -564624675
0C5B  A2800001           [27] call       2   2   2  
0C5F  A4404101           [28] self       2   2   261  ; 1653689631
0C63  A2800001           [29] call       2   2   2  
0C67  E480C100           [30] self       3   1   262  ; 811734991
0C6B  52010001           [31] move       5   2      
0C6F  C7008001           [32] tailcall   3   3   0  
0C73  DE000000           [33] return     3   0      
0C77  C6008001           [34] loadnil    3   3      
0C7B  DE000001           [35] return     3   2      
0C7F  1E008000           [36] return     0   1      
                         * constants:
0C83  07                 sizek (7)
0C84  01                 const type 3
0C85  65770E40           const [0]: (1074689893)
0C89  04                 const type 4
0C8A  08                 string size (8)
0C8B  67526567696F6E00   "gRegion\0"
                         const [1]: "gRegion"
0C93  01                 const type 3
0C94  BFF6E203           const [2]: (65205951)
0C98  01                 const type 3
0C99  DD8258DE           const [3]: (-564624675)
0C9D  04                 const type 4
0C9E  0B                 string size (11)
0C9F  6747616D6552756C+  "gGameRul"
0CA7  657300             "es\0"
                         const [4]: "gGameRules"
0CAA  01                 const type 3
0CAB  1F4D9162           const [5]: (1653689631)
0CAF  01                 const type 3
0CB0  CF176230           const [6]: (811734991)
                         * functions:
0CB4  00                 sizep (0)
                         * lines:
0CB5  24                 sizelineinfo (36)
                         [pc] (line)
0CB6  5B                 [01] (91)
0CB7  00                 [02] (91)
0CB8  00                 [03] (91)
0CB9  00                 [04] (91)
0CBA  5B                 [05] (91)
0CBB  00                 [06] (92)
0CBC  00                 [07] (92)
0CBD  00                 [08] (92)
0CBE  5B                 [09] (93)
0CBF  00                 [10] (93)
0CC0  00                 [11] (93)
0CC1  00                 [12] (93)
0CC2  5B                 [13] (93)
0CC3  00                 [14] (93)
0CC4  00                 [15] (93)
0CC5  00                 [16] (93)
0CC6  5B                 [17] (93)
0CC7  00                 [18] (93)
0CC8  00                 [19] (93)
0CC9  00                 [20] (94)
0CCA  5C                 [21] (95)
0CCB  00                 [22] (95)
0CCC  00                 [23] (95)
0CCD  00                 [24] (95)
0CCE  5C                 [25] (95)
0CCF  00                 [26] (96)
0CD0  00                 [27] (96)
0CD1  00                 [28] (96)
0CD2  5C                 [29] (96)
0CD3  00                 [30] (97)
0CD4  00                 [31] (97)
0CD5  00                 [32] (97)
0CD6  5D                 [33] (97)
0CD7  00                 [34] (102)
0CD8  00                 [35] (102)
0CD9  00                 [36] (103)
                         * locals:
0D46  00                 sizelocvars (0)
                         * upvalues:
0D47  00                 sizeupvalues (0)
                         ** end of function **

                         
0D48                     ** function [2] definition (level 2)
                         ** start of function **
0D48  00                 string size (0)
                         source name: (none)
0D49  69                 line defined (105)
0D4A  6D                 last line defined (109)
0D4B  00                 nups (0)
0D4C  02                 numparams (2)
0D4D  00                 is_vararg (0)
0D4E  06                 maxstacksize (6)
                         * code:
0D4F  0D                 sizecode (13)
0D50  9D000000           [01] getglobal  2   0        ; 1074689893
0D54  DD400000           [02] getglobal  3   1        ; gRegion
0D58  A2800001           [03] call       2   2   2  
0D5C  98400000           [04] test       2       1    ; to [6] if false
0D60  1A800180           [05] jmp        7            ; to [13]
0D64  9D400000           [06] getglobal  2   1        ; gRegion
0D68  A4804001           [07] self       2   2   258  ; 925677844
0D6C  A2800001           [08] call       2   2   2  
0D70  A4C04001           [09] self       2   2   259  ; 48913146
0D74  12010000           [10] move       4   0      
0D78  52018000           [11] move       5   1      
0D7C  A2400002           [12] call       2   4   1  
0D80  1E008000           [13] return     0   1      
                         * constants:
0D84  04                 sizek (4)
0D85  01                 const type 3
0D86  65770E40           const [0]: (1074689893)
0D8A  04                 const type 4
0D8B  08                 string size (8)
0D8C  67526567696F6E00   "gRegion\0"
                         const [1]: "gRegion"
0D94  01                 const type 3
0D95  14B92C37           const [2]: (925677844)
0D99  01                 const type 3
0D9A  FA5AEA02           const [3]: (48913146)
                         * functions:
0D9E  00                 sizep (0)
                         * lines:
0D9F  0D                 sizelineinfo (13)
                         [pc] (line)
0DA0  6A                 [01] (106)
0DA1  00                 [02] (106)
0DA2  00                 [03] (106)
0DA3  00                 [04] (106)
0DA4  6A                 [05] (106)
0DA5  00                 [06] (107)
0DA6  00                 [07] (107)
0DA7  00                 [08] (107)
0DA8  6A                 [09] (107)
0DA9  00                 [10] (107)
0DAA  00                 [11] (107)
0DAB  00                 [12] (107)
0DAC  6A                 [13] (109)
                         * locals:
0DD4  00                 sizelocvars (0)
                         * upvalues:
0DD5  00                 sizeupvalues (0)
                         ** end of function **

                         
0DD6                     ** function [3] definition (level 2)
                         ** start of function **
0DD6  00                 string size (0)
                         source name: (none)
0DD7  6F                 line defined (111)
0DD8  72                 last line defined (114)
0DD9  01                 nups (1)
0DDA  01                 numparams (1)
0DDB  00                 is_vararg (0)
0DDC  06                 maxstacksize (6)
                         * code:
0DDD  09                 sizecode (9)
0DDE  53000000           [1] getupval   1   0      
0DE2  4C000080           [2] settable   1   256 0    ; "IsVisible"
0DE6  5D400000           [3] getglobal  1   1        ; mMovie
0DEA  6480C000           [4] self       1   1   258  ; 471456102
0DEE  D9C00000           [5] loadk      3   3        ; "Reticle"
0DF2  19010100           [6] loadk      4   4        ; "_visible"
0DF6  52010000           [7] move       5   0      
0DFA  62408002           [8] call       1   5   1  
0DFE  1E008000           [9] return     0   1      
                         * constants:
0E02  05                 sizek (5)
0E03  04                 const type 4
0E04  0A                 string size (10)
0E05  497356697369626C+  "IsVisibl"
0E0D  6500               "e\0"
                         const [0]: "IsVisible"
0E0F  04                 const type 4
0E10  07                 string size (7)
0E11  6D4D6F76696500     "mMovie\0"
                         const [1]: "mMovie"
0E18  01                 const type 3
0E19  66D9191C           const [2]: (471456102)
0E1D  04                 const type 4
0E1E  08                 string size (8)
0E1F  52657469636C6500   "Reticle\0"
                         const [3]: "Reticle"
0E27  04                 const type 4
0E28  09                 string size (9)
0E29  5F76697369626C65+  "_visible"
0E31  00                 "\0"
                         const [4]: "_visible"
                         * functions:
0E32  00                 sizep (0)
                         * lines:
0E33  09                 sizelineinfo (9)
                         [pc] (line)
0E34  70                 [1] (112)
0E35  00                 [2] (112)
0E36  00                 [3] (113)
0E37  00                 [4] (113)
0E38  70                 [5] (113)
0E39  00                 [6] (113)
0E3A  00                 [7] (113)
0E3B  00                 [8] (113)
0E3C  71                 [9] (114)
                         * locals:
0E58  00                 sizelocvars (0)
                         * upvalues:
0E59  00                 sizeupvalues (0)
                         ** end of function **

                         
0E5A                     ** function [4] definition (level 2)
                         ** start of function **
0E5A  00                 string size (0)
                         source name: (none)
0E5B  74                 line defined (116)
0E5C  7C                 last line defined (124)
0E5D  03                 nups (3)
0E5E  00                 numparams (0)
0E5F  00                 is_vararg (0)
0E60  05                 maxstacksize (5)
                         * code:
0E61  2E                 sizecode (46)
0E62  13000000           [01] getupval   0   0      
0E66  0E004000           [02] gettable   0   0   256  ; 1332474568
0E6A  5D400000           [03] getglobal  1   1        ; mMovie
0E6E  8B800000           [04] newtable   2   0   2    ; array=0, hash=2
0E72  D3008000           [05] getupval   3   1      
0E76  CEC0C001           [06] gettable   3   3   259  ; "X"
0E7A  8CC00081           [07] settable   2   258 3    ; "x"
0E7E  D3008000           [08] getupval   3   1      
0E82  CE40C101           [09] gettable   3   3   261  ; "Y"
0E86  8CC00082           [10] settable   2   260 3    ; "y"
0E8A  22808001           [11] call       0   3   2  
0E8E  5D800100           [12] getglobal  1   6        ; Engine
0E92  4EC0C100           [13] gettable   1   1   263  ; -1802437008
0E96  62808000           [14] call       1   1   2  
0E9A  58000000           [15] test       1       0    ; to [17] if true
0E9E  1A000380           [16] jmp        13           ; to [30]
0EA2  53000001           [17] getupval   1   2      
0EA6  9D400000           [18] getglobal  2   1        ; mMovie
0EAA  A4004201           [19] self       2   2   264  ; -203345184
0EAE  A2800001           [20] call       2   2   2  
0EB2  CE804000           [21] gettable   3   0   258  ; "x"
0EB6  84C00001           [22] mul        2   2   3  
0EBA  DD400000           [23] getglobal  3   1        ; mMovie
0EBE  E440C201           [24] self       3   3   265  ; 1754893949
0EC2  E2800001           [25] call       3   2   2  
0EC6  0E014100           [26] gettable   4   0   260  ; "y"
0ECA  C4008101           [27] mul        3   3   4  
0ECE  62408001           [28] call       1   3   1  
0ED2  1AC00280           [29] jmp        12           ; to [42]
0ED6  53000001           [30] getupval   1   2      
0EDA  9D400000           [31] getglobal  2   1        ; mMovie
0EDE  A4804201           [32] self       2   2   266  ; -174729759
0EE2  A2800001           [33] call       2   2   2  
0EE6  CE804000           [34] gettable   3   0   258  ; "x"
0EEA  84C00001           [35] mul        2   2   3  
0EEE  DD400000           [36] getglobal  3   1        ; mMovie
0EF2  E4C0C201           [37] self       3   3   267  ; -301556379
0EF6  E2800001           [38] call       3   2   2  
0EFA  0E014100           [39] gettable   4   0   260  ; "y"
0EFE  C4008101           [40] mul        3   3   4  
0F02  62408001           [41] call       1   3   1  
0F06  5D400000           [42] getglobal  1   1        ; mMovie
0F0A  6400C300           [43] self       1   1   268  ; -1021004755
0F0E  D7000000           [44] loadbool   3   0   0    ; false
0F12  62408001           [45] call       1   3   1  
0F16  1E008000           [46] return     0   1      
                         * constants:
0F1A  0D                 sizek (13)
0F1B  01                 const type 3
0F1C  C8F26B4F           const [0]: (1332474568)
0F20  04                 const type 4
0F21  07                 string size (7)
0F22  6D4D6F76696500     "mMovie\0"
                         const [1]: "mMovie"
0F29  04                 const type 4
0F2A  02                 string size (2)
0F2B  7800               "x\0"
                         const [2]: "x"
0F2D  04                 const type 4
0F2E  02                 string size (2)
0F2F  5800               "X\0"
                         const [3]: "X"
0F31  04                 const type 4
0F32  02                 string size (2)
0F33  7900               "y\0"
                         const [4]: "y"
0F35  04                 const type 4
0F36  02                 string size (2)
0F37  5900               "Y\0"
                         const [5]: "Y"
0F39  04                 const type 4
0F3A  07                 string size (7)
0F3B  456E67696E6500     "Engine\0"
                         const [6]: "Engine"
0F42  01                 const type 3
0F43  70FE9094           const [7]: (-1802437008)
0F47  01                 const type 3
0F48  E032E1F3           const [8]: (-203345184)
0F4C  01                 const type 3
0F4D  7D8E9968           const [9]: (1754893949)
0F51  01                 const type 3
0F52  E1D595F5           const [10]: (-174729759)
0F56  01                 const type 3
0F57  659D06EE           const [11]: (-301556379)
0F5B  01                 const type 3
0F5C  2DB424C3           const [12]: (-1021004755)
                         * functions:
0F60  00                 sizep (0)
                         * lines:
0F61  2E                 sizelineinfo (46)
                         [pc] (line)
0F62  75                 [01] (117)
0F63  00                 [02] (117)
0F64  00                 [03] (117)
0F65  00                 [04] (117)
0F66  75                 [05] (117)
0F67  00                 [06] (117)
0F68  00                 [07] (117)
0F69  00                 [08] (117)
0F6A  75                 [09] (117)
0F6B  00                 [10] (117)
0F6C  00                 [11] (117)
0F6D  00                 [12] (118)
0F6E  75                 [13] (118)
0F6F  00                 [14] (118)
0F70  00                 [15] (118)
0F71  00                 [16] (118)
0F72  75                 [17] (119)
0F73  00                 [18] (119)
0F74  00                 [19] (119)
0F75  00                 [20] (119)
0F76  75                 [21] (119)
0F77  00                 [22] (119)
0F78  00                 [23] (119)
0F79  00                 [24] (119)
0F7A  75                 [25] (119)
0F7B  00                 [26] (119)
0F7C  00                 [27] (119)
0F7D  00                 [28] (119)
0F7E  75                 [29] (119)
0F7F  00                 [30] (121)
0F80  00                 [31] (121)
0F81  00                 [32] (121)
0F82  75                 [33] (121)
0F83  00                 [34] (121)
0F84  00                 [35] (121)
0F85  00                 [36] (121)
0F86  75                 [37] (121)
0F87  00                 [38] (121)
0F88  00                 [39] (121)
0F89  00                 [40] (121)
0F8A  75                 [41] (121)
0F8B  00                 [42] (123)
0F8C  00                 [43] (123)
0F8D  00                 [44] (123)
0F8E  76                 [45] (123)
0F8F  00                 [46] (124)
                         * locals:
101A  00                 sizelocvars (0)
                         * upvalues:
101B  00                 sizeupvalues (0)
                         ** end of function **

                         
101C                     ** function [5] definition (level 2)
                         ** start of function **
101C  00                 string size (0)
                         source name: (none)
101E  01                 line defined (129)
101F  83                 last line defined (131)
1020  01                 nups (1)
1021  01                 numparams (0)
1022  00                 is_vararg (0)
1023  00                 maxstacksize (2)
                         * code:
1025  03                 sizecode (3)
1026  0B000000           [1] newtable   0   0   0    ; array=0, hash=0
fail op	8
102A  08000000           [2] setupval   0   0      
102E  1E008000           [3] return     0   1      
                         * constants:
1032  00                 sizek (0)
                         * functions:
1033  00                 sizep (0)
                         * lines:
1034  03                 sizelineinfo (3)
                         [pc] (line)
1035  82                 [1] (-126)
1036  00                 [2] (-126)
1037  00                 [3] (-125)
                         * locals:
1041  00                 sizelocvars (0)
                         * upvalues:
1042  00                 sizeupvalues (0)
                         ** end of function **

                         
1043                     ** function [6] definition (level 2)
                         ** start of function **
1043  00                 string size (0)
                         source name: (none)
1045  01                 line defined (133)
1046  9E                 last line defined (158)
1047  01                 nups (2)
1048  02                 numparams (3)
1049  03                 is_vararg (0)
104A  00                 maxstacksize (7)
                         * code:
104C  1B                 sizecode (27)
104D  E400C000           [01] self       3   1   256  ; -1625438872
1051  5D410000           [02] getglobal  5   1        ; buddyTrackFx
1055  E2808001           [03] call       3   3   2  
1059  13010000           [04] getupval   4   0      
105D  18010000           [05] test       4       0    ; to [7] if true
1061  1AC00480           [06] jmp        20           ; to [27]
1065  24814000           [07] self       4   0   258  ; 1800191191
1069  92018000           [08] move       6   1      
106D  22818001           [09] call       4   3   2  
1071  18410000           [10] test       4       1    ; to [12] if false
1075  1A800380           [11] jmp        15           ; to [27]
1079  1DC10000           [12] getglobal  4   3        ; 1074689893
107D  52018001           [13] move       5   3      
1081  22810001           [14] call       4   2   2  
1085  18410000           [15] test       4       1    ; to [17] if false
1089  1A000280           [16] jmp        9            ; to [26]
108D  13018000           [17] getupval   4   1      
1091  0E810002           [18] gettable   4   4   2  
1095  18410000           [19] test       4       1    ; to [21] if false
1099  1A000180           [20] jmp        5            ; to [26]
109D  2401C101           [21] self       4   3   260  ; 1542701132
10A1  99410100           [22] loadk      6   5        ; 0
10A5  22418001           [23] call       4   3   1  
10A9  13018000           [24] getupval   4   1      
10AD  0C814101           [25] settable   4   2   262  ; 0
10B1  1E008000           [26] return     0   1      
10B5  1E008000           [27] return     0   1      
                         * constants:
10B9  07                 sizek (7)
10BA  01                 const type 3
10BB  68C51D9F           const [0]: (-1625438872)
10BF  04                 const type 4
10C0  0D                 string size (13)
10C1  6275646479547261+  "buddyTra"
10C9  636B467800         "ckFx\0"
                         const [1]: "buddyTrackFx"
10CE  01                 const type 3
10CF  D7BC4C6B           const [2]: (1800191191)
10D3  01                 const type 3
10D4  65770E40           const [3]: (1074689893)
10D8  01                 const type 3
10D9  4CC0F35B           const [4]: (1542701132)
10DD  03                 const type 3
10DE  0000003F           const [5]: (0)
10E2  03                 const type 3
10E3  0000803F           const [6]: (0)
                         * functions:
10E7  00                 sizep (0)
                         * lines:
10E8  1B                 sizelineinfo (27)
                         [pc] (line)
10E9  87                 [01] (-121)
10EA  00                 [02] (-121)
10EB  00                 [03] (-121)
10EC  00                 [04] (-118)
10ED  87                 [05] (-118)
10EE  00                 [06] (-118)
10EF  00                 [07] (-118)
10F0  00                 [08] (-118)
10F1  87                 [09] (-118)
10F2  00                 [10] (-118)
10F3  00                 [11] (-118)
10F4  00                 [12] (-117)
10F5  8A                 [13] (-117)
10F6  00                 [14] (-117)
10F7  00                 [15] (-117)
10F8  00                 [16] (-117)
10F9  8A                 [17] (-117)
10FA  00                 [18] (-117)
10FB  00                 [19] (-117)
10FC  00                 [20] (-117)
10FD  8A                 [21] (-116)
10FE  00                 [22] (-116)
10FF  00                 [23] (-116)
1100  00                 [24] (-115)
1101  8A                 [25] (-115)
1102  00                 [26] (-113)
1103  00                 [27] (-98)
                         * locals:
1155  00                 sizelocvars (0)
                         * upvalues:
1156  00                 sizeupvalues (0)
                         ** end of function **

                         
1157                     ** function [7] definition (level 2)
                         ** start of function **
1157  00                 string size (0)
                         source name: (none)
1159  01                 line defined (161)
115A  BB                 last line defined (187)
115B  01                 nups (2)
115C  02                 numparams (1)
115D  01                 is_vararg (0)
115E  00                 maxstacksize (12)
                         * code:
1160  36                 sizecode (54)
1161  5D000000           [01] getglobal  1   0        ; 1074689893
1165  9D400000           [02] getglobal  2   1        ; gRegion
1169  62800001           [03] call       1   2   2  
116D  58400000           [04] test       1       1    ; to [6] if false
1171  1A000680           [05] jmp        25           ; to [31]
1175  5D400000           [06] getglobal  1   1        ; gRegion
1179  6480C000           [07] self       1   1   258  ; 1224466847
117D  62800001           [08] call       1   2   2  
1181  99C00000           [09] loadk      2   3        ; 0
1185  CA008000           [10] len        3   1      
1189  19C10000           [11] loadk      4   3        ; 0
118D  90000480           [12] forprep    2   17       ; to [30]
1191  8E418100           [13] gettable   6   1   5  
1195  A4014103           [14] self       6   6   260  ; -2135866365
1199  A2810001           [15] call       6   2   2  
119D  DD010000           [16] getglobal  7   0        ; 1074689893
11A1  12020003           [17] move       8   6      
11A5  E2810001           [18] call       7   2   2  
11A9  D8410000           [19] test       7       1    ; to [21] if false
11AD  1A000280           [20] jmp        9            ; to [30]
fail op	35
11B1  63000003           [21] close      1  
11B5  1A800180           [22] jmp        7            ; to [30]
11B9  D3010000           [23] getupval   7   0      
11BD  12020000           [24] move       8   0      
11C1  52020003           [25] move       9   6      
11C5  8E428100           [26] gettable   10  1   5  
11C9  A4424105           [27] self       10  10  261  ; 1808941484
11CD  A2020001           [28] call       10  2   0  
11D1  E2410000           [29] call       7   0   1  
11D5  9440FB7F           [30] forloop    2   -18      ; to [13] if loop
11D9  E4814100           [31] self       7   0   262  ; -214694299
11DD  5DC20100           [32] getglobal  9   7        ; Engine
11E1  4E02C204           [33] gettable   9   9   264  ; "PM_AIM"
11E5  E2818001           [34] call       7   3   2  
11E9  D8010000           [35] test       7       0    ; to [37] if true
11ED  1A400180           [36] jmp        6            ; to [43]
11F1  D3018000           [37] getupval   7   1      
11F5  1D420200           [38] getglobal  8   9        ; 1289681407
11F9  22828000           [39] call       8   1   2  
11FD  CD018203           [40] sub        7   7   8  
fail op	8
1201  C8018000           [41] setupval   7   1      
1205  1A000180           [42] jmp        5            ; to [48]
1209  D3018000           [43] getupval   7   1      
120D  1D420200           [44] getglobal  8   9        ; 1289681407
1211  22828000           [45] call       8   1   2  
1215  C3018203           [46] add        7   7   8  
fail op	8
1219  C8018000           [47] setupval   7   1      
121D  DD810200           [48] getglobal  7   10       ; 1668611480
1221  13028000           [49] getupval   8   1      
1225  59C20200           [50] loadk      9   11       ; 0
1229  99C20000           [51] loadk      10  3        ; 0
122D  E2810002           [52] call       7   4   2  
fail op	8
1231  C8018000           [53] setupval   7   1      
1235  1E008000           [54] return     0   1      
                         * constants:
1239  0C                 sizek (12)
123A  01                 const type 3
123B  65770E40           const [0]: (1074689893)
123F  04                 const type 4
1240  08                 string size (8)
1241  67526567696F6E00   "gRegion\0"
                         const [1]: "gRegion"
1249  01                 const type 3
124A  9FE1FB48           const [2]: (1224466847)
124E  03                 const type 3
124F  0000803F           const [3]: (0)
1253  01                 const type 3
1254  0344B180           const [4]: (-2135866365)
1258  01                 const type 3
1259  AC41D26B           const [5]: (1808941484)
125D  01                 const type 3
125E  650634F3           const [6]: (-214694299)
1262  04                 const type 4
1263  07                 string size (7)
1264  456E67696E6500     "Engine\0"
                         const [7]: "Engine"
126B  04                 const type 4
126C  07                 string size (7)
126D  504D5F41494D00     "PM_AIM\0"
                         const [8]: "PM_AIM"
1274  01                 const type 3
1275  FFF9DE4C           const [9]: (1289681407)
1279  01                 const type 3
127A  98FD7463           const [10]: (1668611480)
127E  03                 const type 3
127F  00000000           const [11]: (0)
                         * functions:
1283  00                 sizep (0)
                         * lines:
1284  36                 sizelineinfo (54)
                         [pc] (line)
1285  A2                 [01] (-94)
1286  00                 [02] (-94)
1287  00                 [03] (-94)
1288  00                 [04] (-94)
1289  A2                 [05] (-94)
128A  00                 [06] (-93)
128B  00                 [07] (-93)
128C  00                 [08] (-93)
128D  A2                 [09] (-92)
128E  00                 [10] (-92)
128F  00                 [11] (-92)
1290  00                 [12] (-92)
1291  A2                 [13] (-91)
1292  00                 [14] (-91)
1293  00                 [15] (-91)
1294  00                 [16] (-90)
1295  A2                 [17] (-90)
1296  00                 [18] (-90)
1297  00                 [19] (-90)
1298  00                 [20] (-90)
1299  A3                 [21] (-90)
129A  00                 [22] (-90)
129B  00                 [23] (-89)
129C  00                 [24] (-89)
129D  A3                 [25] (-89)
129E  00                 [26] (-89)
129F  00                 [27] (-89)
12A0  00                 [28] (-89)
12A1  A3                 [29] (-89)
12A2  00                 [30] (-92)
12A3  00                 [31] (-82)
12A4  00                 [32] (-82)
12A5  A4                 [33] (-82)
12A6  00                 [34] (-82)
12A7  00                 [35] (-82)
12A8  00                 [36] (-82)
12A9  A4                 [37] (-81)
12AA  00                 [38] (-81)
12AB  00                 [39] (-81)
12AC  00                 [40] (-81)
12AD  A4                 [41] (-81)
12AE  00                 [42] (-81)
12AF  00                 [43] (-79)
12B0  00                 [44] (-79)
12B1  A4                 [45] (-79)
12B2  00                 [46] (-79)
12B3  00                 [47] (-79)
12B4  00                 [48] (-70)
12B5  A5                 [49] (-70)
12B6  00                 [50] (-70)
12B7  00                 [51] (-70)
12B8  00                 [52] (-70)
12B9  A5                 [53] (-70)
12BA  00                 [54] (-69)
                         * locals:
135D  00                 sizelocvars (0)
                         * upvalues:
135E  00                 sizeupvalues (0)
                         ** end of function **

                         
135F                     ** function [8] definition (level 2)
                         ** start of function **
135F  00                 string size (0)
                         source name: (none)
1361  01                 line defined (189)
1362  C5                 last line defined (197)
1363  01                 nups (2)
1364  02                 numparams (0)
1365  00                 is_vararg (0)
1366  00                 maxstacksize (6)
                         * code:
1368  17                 sizecode (23)
1369  13000000           [01] getupval   0   0      
136D  18400000           [02] test       0       1    ; to [4] if false
1371  1AC00280           [03] jmp        12           ; to [16]
1375  13008000           [04] getupval   0   1      
1379  1C004000           [05] div        0   0   256  ; 0
137D  53008000           [06] getupval   1   1      
1381  4440C000           [07] mul        1   1   257  ; -51
1385  03400000           [08] add        0   0   1  
1389  5D800000           [09] getglobal  1   2        ; mMovie
138D  64C0C000           [10] self       1   1   259  ; 471456102
1391  D9000100           [11] loadk      3   4        ; "MiniMapContainer"
1395  19410100           [12] loadk      4   5        ; "_x"
1399  52010000           [13] move       5   0      
139D  62408002           [14] call       1   5   1  
13A1  1A800180           [15] jmp        7            ; to [23]
13A5  5D800000           [16] getglobal  1   2        ; mMovie
13A9  64C0C000           [17] self       1   1   259  ; 471456102
13AD  D9000100           [18] loadk      3   4        ; "MiniMapContainer"
13B1  19410100           [19] loadk      4   5        ; "_x"
13B5  53018000           [20] getupval   5   1      
13B9  5C01C002           [21] div        5   5   256  ; 0
13BD  62408002           [22] call       1   5   1  
13C1  1E008000           [23] return     0   1      
                         * constants:
13C5  06                 sizek (6)
13C6  03                 const type 3
13C7  00000040           const [0]: (0)
13CB  03                 const type 3
13CC  CDCC4C3E           const [1]: (-51)
13D0  04                 const type 4
13D1  07                 string size (7)
13D2  6D4D6F76696500     "mMovie\0"
                         const [2]: "mMovie"
13D9  01                 const type 3
13DA  66D9191C           const [3]: (471456102)
13DE  04                 const type 4
13DF  11                 string size (17)
13E0  4D696E694D617043+  "MiniMapC"
13E8  6F6E7461696E6572+  "ontainer"
13F0  00                 "\0"
                         const [4]: "MiniMapContainer"
13F1  04                 const type 4
13F2  03                 string size (3)
13F3  5F7800             "_x\0"
                         const [5]: "_x"
                         * functions:
13F6  00                 sizep (0)
                         * lines:
13F7  17                 sizelineinfo (23)
                         [pc] (line)
13F8  BE                 [01] (-66)
13F9  00                 [02] (-66)
13FA  00                 [03] (-66)
13FB  00                 [04] (-65)
13FC  BE                 [05] (-65)
13FD  00                 [06] (-64)
13FE  00                 [07] (-64)
13FF  00                 [08] (-64)
1400  BE                 [09] (-63)
1401  00                 [10] (-63)
1402  00                 [11] (-63)
1403  00                 [12] (-63)
1404  BF                 [13] (-63)
1405  00                 [14] (-63)
1406  00                 [15] (-63)
1407  00                 [16] (-61)
1408  BF                 [17] (-61)
1409  00                 [18] (-61)
140A  00                 [19] (-61)
140B  00                 [20] (-61)
140C  C0                 [21] (-61)
140D  00                 [22] (-61)
140E  00                 [23] (-59)
                         * locals:
1454  00                 sizelocvars (0)
                         * upvalues:
1455  00                 sizeupvalues (0)
                         ** end of function **

                         
1456                     ** function [9] definition (level 2)
                         ** start of function **
1456  00                 string size (0)
                         source name: (none)
1458  01                 line defined (199)
1459  D0                 last line defined (208)
145A  01                 nups (4)
145B  04                 numparams (1)
145C  01                 is_vararg (0)
145D  00                 maxstacksize (8)
                         * code:
145F  32                 sizecode (50)
1460  53008000           [01] getupval   1   1      
1464  4E00C000           [02] gettable   1   1   256  ; -1407588540
1468  9D400000           [03] getglobal  2   1        ; mMovie
146C  D9800000           [04] loadk      3   2        ; "MiniMapContainer.MiniMapMarkers.PlayerArrow"
1470  1DC10000           [05] getglobal  4   3        ; playerPulseFx
1474  59010100           [06] loadk      5   4        ; 0
1478  99010100           [07] loadk      6   4        ; 0
147C  DD410100           [08] getglobal  7   5        ; gBackgroundRegion
1480  62808003           [09] call       1   7   2  
fail op	8
1484  48000000           [10] setupval   1   0      
1488  5D800100           [11] getglobal  1   6        ; 1074689893
148C  93000000           [12] getupval   2   0      
1490  62800001           [13] call       1   2   2  
1494  58400000           [14] test       1       1    ; to [16] if false
1498  1AC00480           [15] jmp        20           ; to [36]
149C  5D800100           [16] getglobal  1   6        ; 1074689893
14A0  93000000           [17] getupval   2   0      
14A4  8EC04101           [18] gettable   2   2   263  ; "mInstance"
14A8  62800001           [19] call       1   2   2  
14AC  58400000           [20] test       1       1    ; to [22] if false
14B0  1A400380           [21] jmp        14           ; to [36]
14B4  5D000200           [22] getglobal  1   8        ; -174740002
14B8  9D400000           [23] getglobal  2   1        ; mMovie
14BC  A4404201           [24] self       2   2   265  ; 1803241227
14C0  19810000           [25] loadk      4   2        ; "MiniMapContainer.MiniMapMarkers.PlayerArrow"
14C4  59810200           [26] loadk      5   10       ; "_rotation"
14C8  A2000002           [27] call       2   4   0  
14CC  62800000           [28] call       1   0   2  
14D0  5CC0C200           [29] div        1   1   267  ; 0
14D4  93000000           [30] getupval   2   0      
14D8  8EC04101           [31] gettable   2   2   263  ; "mInstance"
14DC  A4004301           [32] self       2   2   268  ; -1227233148
14E0  12018000           [33] move       4   1      
14E4  52018000           [34] move       5   1      
14E8  A2400002           [35] call       2   4   1  
14EC  18000000           [36] test       0       0    ; to [38] if true
14F0  1AC00280           [37] jmp        12           ; to [50]
14F4  9D000200           [38] getglobal  2   8        ; -174740002
14F8  D2000000           [39] move       3   0      
14FC  A2800001           [40] call       2   2   2  
fail op	21
1500  15800082           [41] concat     0   260 2  
1504  1A800180           [42] jmp        7            ; to [50]
1508  93000001           [43] getupval   2   2      
150C  A4404301           [44] self       2   2   269  ; 1632191879
1510  19810300           [45] loadk      4   14       ; -51
1514  53018001           [46] getupval   5   3      
1518  97010000           [47] loadbool   6   0   0    ; false
151C  CDC14300           [48] sub        7   0   271  ; 0
1520  A2400003           [49] call       2   6   1  
1524  1E008000           [50] return     0   1      
                         * constants:
1528  10                 sizek (16)
1529  01                 const type 3
152A  44E719AC           const [0]: (-1407588540)
152E  04                 const type 4
152F  07                 string size (7)
1530  6D4D6F76696500     "mMovie\0"
                         const [1]: "mMovie"
1537  04                 const type 4
1538  2C                 string size (44)
1539  4D696E694D617043+  "MiniMapC"
1541  6F6E7461696E6572+  "ontainer"
1549  2E4D696E694D6170+  ".MiniMap"
1551  4D61726B6572732E+  "Markers."
1559  506C617965724172+  "PlayerAr"
1561  726F7700           "row\0"
                         const [2]: "MiniMapContainer.MiniMapMarkers.PlayerArrow"
1565  04                 const type 4
1566  0E                 string size (14)
1567  706C617965725075+  "playerPu"
156F  6C7365467800       "lseFx\0"
                         const [3]: "playerPulseFx"
1575  03                 const type 3
1576  00000000           const [4]: (0)
157A  04                 const type 4
157B  12                 string size (18)
157C  674261636B67726F+  "gBackgro"
1584  756E64526567696F+  "undRegio"
158C  6E00               "n\0"
                         const [5]: "gBackgroundRegion"
158E  01                 const type 3
158F  65770E40           const [6]: (1074689893)
1593  04                 const type 4
1594  0A                 string size (10)
1595  6D496E7374616E63+  "mInstanc"
159D  6500               "e\0"
                         const [7]: "mInstance"
159F  01                 const type 3
15A0  DEAD95F5           const [8]: (-174740002)
15A4  01                 const type 3
15A5  0B477B6B           const [9]: (1803241227)
15A9  04                 const type 4
15AA  0A                 string size (10)
15AB  5F726F746174696F+  "_rotatio"
15B3  6E00               "n\0"
                         const [10]: "_rotation"
15B5  03                 const type 3
15B6  00003443           const [11]: (0)
15BA  01                 const type 3
15BB  84E8D9B6           const [12]: (-1227233148)
15BF  01                 const type 3
15C0  87454961           const [13]: (1632191879)
15C4  03                 const type 3
15C5  CDCC4C3F           const [14]: (-51)
15C9  03                 const type 3
15CA  0000803F           const [15]: (0)
                         * functions:
15CE  00                 sizep (0)
                         * lines:
15CF  32                 sizelineinfo (50)
                         [pc] (line)
15D0  C8                 [01] (-56)
15D1  00                 [02] (-56)
15D2  00                 [03] (-56)
15D3  00                 [04] (-56)
15D4  C8                 [05] (-56)
15D5  00                 [06] (-56)
15D6  00                 [07] (-56)
15D7  00                 [08] (-56)
15D8  C8                 [09] (-56)
15D9  00                 [10] (-56)
15DA  00                 [11] (-55)
15DB  00                 [12] (-55)
15DC  C8                 [13] (-55)
15DD  00                 [14] (-55)
15DE  00                 [15] (-55)
15DF  00                 [16] (-55)
15E0  C8                 [17] (-55)
15E1  00                 [18] (-55)
15E2  00                 [19] (-55)
15E3  00                 [20] (-55)
15E4  C8                 [21] (-55)
15E5  00                 [22] (-54)
15E6  00                 [23] (-54)
15E7  00                 [24] (-54)
15E8  C8                 [25] (-54)
15E9  00                 [26] (-54)
15EA  00                 [27] (-54)
15EB  00                 [28] (-54)
15EC  C8                 [29] (-54)
15ED  00                 [30] (-53)
15EE  00                 [31] (-53)
15EF  00                 [32] (-53)
15F0  C8                 [33] (-53)
15F1  00                 [34] (-53)
15F2  00                 [35] (-53)
15F3  00                 [36] (-51)
15F4  C8                 [37] (-51)
15F5  00                 [38] (-51)
15F6  00                 [39] (-51)
15F7  00                 [40] (-51)
15F8  C9                 [41] (-51)
15F9  00                 [42] (-51)
15FA  00                 [43] (-50)
15FB  00                 [44] (-50)
15FC  C9                 [45] (-50)
15FD  00                 [46] (-50)
15FE  00                 [47] (-50)
15FF  00                 [48] (-50)
1600  C9                 [49] (-50)
1601  00                 [50] (-48)
                         * locals:
1698  00                 sizelocvars (0)
                         * upvalues:
1699  00                 sizeupvalues (0)
                         ** end of function **

                         
169A                     ** function [10] definition (level 2)
                         ** start of function **
169A  00                 string size (0)
                         source name: (none)
169C  01                 line defined (210)
169D  D7                 last line defined (215)
169E  01                 nups (3)
169F  03                 numparams (0)
16A0  00                 is_vararg (0)
16A1  00                 maxstacksize (2)
                         * code:
16A3  09                 sizecode (9)
16A4  17000000           [1] loadbool   0   0   0    ; false
fail op	8
16A8  08000000           [2] setupval   0   0      
16AC  13008000           [3] getupval   0   1      
16B0  18000000           [4] test       0       0    ; to [6] if true
16B4  1A800080           [5] jmp        3            ; to [9]
16B8  13000001           [6] getupval   0   2      
16BC  59000000           [7] loadk      1   0        ; 0
16C0  22400001           [8] call       0   2   1  
16C4  1E008000           [9] return     0   1      
                         * constants:
16C8  01                 sizek (1)
16C9  03                 const type 3
16CA  0000803F           const [0]: (0)
                         * functions:
16CE  00                 sizep (0)
                         * lines:
16CF  09                 sizelineinfo (9)
                         [pc] (line)
16D0  D3                 [1] (-45)
16D1  00                 [2] (-45)
16D2  00                 [3] (-44)
16D3  00                 [4] (-44)
16D4  D3                 [5] (-44)
16D5  00                 [6] (-43)
16D6  00                 [7] (-43)
16D7  00                 [8] (-43)
16D8  D4                 [9] (-41)
                         * locals:
16F4  00                 sizelocvars (0)
                         * upvalues:
16F5  00                 sizeupvalues (0)
                         ** end of function **

                         
16F6                     ** function [11] definition (level 2)
                         ** start of function **
16F6  00                 string size (0)
                         source name: (none)
16F8  01                 line defined (217)
16F9  E9                 last line defined (233)
16FA  01                 nups (8)
16FB  08                 numparams (0)
16FC  00                 is_vararg (0)
16FD  00                 maxstacksize (9)
                         * code:
16FF  45                 sizecode (69)
1700  17000000           [01] loadbool   0   0   0    ; false
fail op	8
1704  08000000           [02] setupval   0   0      
1708  17000000           [03] loadbool   0   0   0    ; false
fail op	8
170C  08008000           [04] setupval   0   1      
1710  1D000000           [05] getglobal  0   0        ; 1074689893
1714  53000001           [06] getupval   1   2      
1718  22800001           [07] call       0   2   2  
171C  18400000           [08] test       0       1    ; to [10] if false
1720  1A400880           [09] jmp        34           ; to [44]
1724  13000001           [10] getupval   0   2      
1728  24404000           [11] self       0   0   257  ; 381755188
172C  97008000           [12] loadbool   2   1   0    ; true
1730  22408001           [13] call       0   3   1  
1734  13000001           [14] getupval   0   2      
1738  24804000           [15] self       0   0   258  ; -1170214139
173C  93008001           [16] getupval   2   3      
fail op	35
1740  63C04001           [17] close      1  
1744  1A000080           [18] jmp        1            ; to [20]
1748  97400000           [19] loadbool   2   0   1    ; false, to [21]
174C  97008000           [20] loadbool   2   1   0    ; true
1750  22408001           [21] call       0   3   1  
1754  13000001           [22] getupval   0   2      
1758  24004100           [23] self       0   0   260  ; 785791211
175C  93008001           [24] getupval   2   3      
fail op	35
1760  63C04001           [25] close      1  
1764  1A000080           [26] jmp        1            ; to [28]
1768  97400000           [27] loadbool   2   0   1    ; false, to [29]
176C  97008000           [28] loadbool   2   1   0    ; true
1770  22408001           [29] call       0   3   1  
1774  13000002           [30] getupval   0   4      
1778  18000000           [31] test       0       0    ; to [33] if true
177C  1A800280           [32] jmp        11           ; to [44]
1780  13000001           [33] getupval   0   2      
1784  24404100           [34] self       0   0   261  ; -1695159988
1788  93000002           [35] getupval   2   4      
178C  8E804101           [36] gettable   2   2   262  ; "mCurrentCoords"
1790  8EC04101           [37] gettable   2   2   263  ; "x"
1794  D3000002           [38] getupval   3   4      
1798  CE80C101           [39] gettable   3   3   262  ; "mCurrentCoords"
179C  CE00C201           [40] gettable   3   3   264  ; "y"
17A0  13018002           [41] getupval   4   5      
17A4  0E414202           [42] gettable   4   4   265  ; "mCurVal"
17A8  22408002           [43] call       0   5   1  
17AC  1D800200           [44] getglobal  0   10       ; _T
17B0  0CC0C085           [45] settable   0   267 259  ; "OverlayMapVisible" 1
17B4  17008000           [46] loadbool   0   1   0    ; true
fail op	8
17B8  08000003           [47] setupval   0   6      
17BC  1D000300           [48] getglobal  0   12       ; mMovie
17C0  24404300           [49] self       0   0   269  ; 298914335
17C4  99800300           [50] loadk      2   14       ; "_root"
17C8  22408001           [51] call       0   3   1  
17CC  1DC00300           [52] getglobal  0   15       ; 1390508688
17D0  5D000300           [53] getglobal  1   12       ; mMovie
17D4  99800300           [54] loadk      2   14       ; "_root"
17D8  DD000400           [55] getglobal  3   16       ; UISys
17DC  CE40C401           [56] gettable   3   3   273  ; "FlashInstance_EASE_OUT"
17E0  0B010001           [57] newtable   4   2   0    ; array=2, hash=0
17E4  59810400           [58] loadk      5   18       ; "_alpha"
17E8  99C10400           [59] loadk      6   19       ; "_z"
17EC  1B410001           [60] setlist    4   2   1    ; index 1 to 2
17F0  4B010001           [61] newtable   5   2   0    ; array=2, hash=0
17F4  99010500           [62] loadk      6   20       ; 0
17F8  D9410500           [63] loadk      7   21       ; 0
17FC  5B410001           [64] setlist    5   2   1    ; index 1 to 2
1800  99810500           [65] loadk      6   22       ; -51
1804  D9410500           [66] loadk      7   21       ; 0
1808  13028003           [67] getupval   8   7      
180C  22408004           [68] call       0   9   1  
1810  1E008000           [69] return     0   1      
                         * constants:
1814  17                 sizek (23)
1815  01                 const type 3
1816  65770E40           const [0]: (1074689893)
181A  01                 const type 3
181B  341FC116           const [1]: (381755188)
181F  01                 const type 3
1820  05F33FBA           const [2]: (-1170214139)
1824  01                 const type 3
1825  01000000           const [3]: (1)
1829  01                 const type 3
182A  EB38D62E           const [4]: (785791211)
182E  01                 const type 3
182F  4CE9F59A           const [5]: (-1695159988)
1833  04                 const type 4
1834  0F                 string size (15)
1835  6D43757272656E74+  "mCurrent"
183D  436F6F72647300     "Coords\0"
                         const [6]: "mCurrentCoords"
1844  04                 const type 4
1845  02                 string size (2)
1846  7800               "x\0"
                         const [7]: "x"
1848  04                 const type 4
1849  02                 string size (2)
184A  7900               "y\0"
                         const [8]: "y"
184C  04                 const type 4
184D  08                 string size (8)
184E  6D43757256616C00   "mCurVal\0"
                         const [9]: "mCurVal"
1856  04                 const type 4
1857  03                 string size (3)
1858  5F5400             "_T\0"
                         const [10]: "_T"
185B  04                 const type 4
185C  12                 string size (18)
185D  4F7665726C61794D+  "OverlayM"
1865  617056697369626C+  "apVisibl"
186D  6500               "e\0"
                         const [11]: "OverlayMapVisible"
186F  04                 const type 4
1870  07                 string size (7)
1871  6D4D6F76696500     "mMovie\0"
                         const [12]: "mMovie"
1878  01                 const type 3
1879  1F12D111           const [13]: (298914335)
187D  04                 const type 4
187E  06                 string size (6)
187F  5F726F6F7400       "_root\0"
                         const [14]: "_root"
1885  01                 const type 3
1886  907AE152           const [15]: (1390508688)
188A  04                 const type 4
188B  06                 string size (6)
188C  554953797300       "UISys\0"
                         const [16]: "UISys"
1892  04                 const type 4
1893  17                 string size (23)
1894  466C617368496E73+  "FlashIns"
189C  74616E63655F4541+  "tance_EA"
18A4  53455F4F555400     "SE_OUT\0"
                         const [17]: "FlashInstance_EASE_OUT"
18AB  04                 const type 4
18AC  07                 string size (7)
18AD  5F616C70686100     "_alpha\0"
                         const [18]: "_alpha"
18B4  04                 const type 4
18B5  03                 string size (3)
18B6  5F7A00             "_z\0"
                         const [19]: "_z"
18B9  03                 const type 3
18BA  0000C842           const [20]: (0)
18BE  03                 const type 3
18BF  00000000           const [21]: (0)
18C3  03                 const type 3
18C4  CDCC4C3E           const [22]: (-51)
                         * functions:
18C8  00                 sizep (0)
                         * lines:
18C9  45                 sizelineinfo (69)
                         [pc] (line)
18CA  DA                 [01] (-38)
18CB  00                 [02] (-38)
18CC  00                 [03] (-37)
18CD  00                 [04] (-37)
18CE  DA                 [05] (-36)
18CF  00                 [06] (-36)
18D0  00                 [07] (-36)
18D1  00                 [08] (-36)
18D2  DB                 [09] (-36)
18D3  00                 [10] (-35)
18D4  00                 [11] (-35)
18D5  00                 [12] (-35)
18D6  DB                 [13] (-35)
18D7  00                 [14] (-34)
18D8  00                 [15] (-34)
18D9  00                 [16] (-34)
18DA  DC                 [17] (-34)
18DB  00                 [18] (-34)
18DC  00                 [19] (-34)
18DD  00                 [20] (-34)
18DE  DC                 [21] (-34)
18DF  00                 [22] (-33)
18E0  00                 [23] (-33)
18E1  00                 [24] (-33)
18E2  DC                 [25] (-33)
18E3  00                 [26] (-33)
18E4  00                 [27] (-33)
18E5  00                 [28] (-33)
18E6  DC                 [29] (-33)
18E7  00                 [30] (-32)
18E8  00                 [31] (-32)
18E9  00                 [32] (-32)
18EA  DC                 [33] (-31)
18EB  00                 [34] (-31)
18EC  00                 [35] (-31)
18ED  00                 [36] (-31)
18EE  DD                 [37] (-31)
18EF  00                 [38] (-31)
18F0  00                 [39] (-31)
18F1  00                 [40] (-31)
18F2  DD                 [41] (-31)
18F3  00                 [42] (-31)
18F4  00                 [43] (-31)
18F5  00                 [44] (-27)
18F6  DD                 [45] (-27)
18F7  00                 [46] (-26)
18F8  00                 [47] (-26)
18F9  00                 [48] (-25)
18FA  DD                 [49] (-25)
18FB  00                 [50] (-25)
18FC  00                 [51] (-25)
18FD  00                 [52] (-24)
18FE  DE                 [53] (-24)
18FF  00                 [54] (-24)
1900  00                 [55] (-24)
1901  00                 [56] (-24)
1902  DE                 [57] (-24)
1903  00                 [58] (-24)
1904  00                 [59] (-24)
1905  00                 [60] (-24)
1906  DE                 [61] (-24)
1907  00                 [62] (-24)
1908  00                 [63] (-24)
1909  00                 [64] (-24)
190A  DE                 [65] (-24)
190B  00                 [66] (-24)
190C  00                 [67] (-24)
190D  00                 [68] (-24)
190E  DE                 [69] (-23)
                         * locals:
19DE  00                 sizelocvars (0)
                         * upvalues:
19DF  00                 sizeupvalues (0)
                         ** end of function **

                         
19E0                     ** function [12] definition (level 2)
                         ** start of function **
19E0  00                 string size (0)
                         source name: (none)
19E2  01                 line defined (236)
19E3  F3                 last line defined (243)
19E4  01                 nups (3)
19E5  03                 numparams (0)
19E6  00                 is_vararg (0)
19E7  00                 maxstacksize (3)
                         * code:
19E9  19                 sizecode (25)
19EA  1D000000           [01] getglobal  0   0        ; gPlayerProfileMgr
19EE  24404000           [02] self       0   0   257  ; 569342746
19F2  99800000           [03] loadk      2   2        ; 0
19F6  22808001           [04] call       0   3   2  
19FA  5DC00000           [05] getglobal  1   3        ; 1074689893
19FE  92000000           [06] move       2   0      
1A02  62800001           [07] call       1   2   2  
1A06  58400000           [08] test       1       1    ; to [10] if false
1A0A  1A800380           [09] jmp        15           ; to [25]
1A0E  64004100           [10] self       1   0   260  ; 1055613230
1A12  62800001           [11] call       1   2   2  
1A16  6440C100           [12] self       1   1   261  ; 702851969
1A1A  62800001           [13] call       1   2   2  
fail op	8
1A1E  48000000           [14] setupval   1   0      
1A22  64004100           [15] self       1   0   260  ; 1055613230
1A26  62800001           [16] call       1   2   2  
1A2A  6480C100           [17] self       1   1   262  ; -346287772
1A2E  62800001           [18] call       1   2   2  
fail op	8
1A32  48008000           [19] setupval   1   1      
1A36  64004100           [20] self       1   0   260  ; 1055613230
1A3A  62800001           [21] call       1   2   2  
1A3E  64C0C100           [22] self       1   1   263  ; 1205922610
1A42  62800001           [23] call       1   2   2  
fail op	8
1A46  48000001           [24] setupval   1   2      
1A4A  1E008000           [25] return     0   1      
                         * constants:
1A4E  08                 sizek (8)
1A4F  04                 const type 4
1A50  12                 string size (18)
1A51  67506C6179657250+  "gPlayerP"
1A59  726F66696C654D67+  "rofileMg"
1A61  7200               "r\0"
                         const [0]: "gPlayerProfileMgr"
1A63  01                 const type 3
1A64  1A7BEF21           const [1]: (569342746)
1A68  03                 const type 3
1A69  00000000           const [2]: (0)
1A6D  01                 const type 3
1A6E  65770E40           const [3]: (1074689893)
1A72  01                 const type 3
1A73  2E61EB3E           const [4]: (1055613230)
1A77  01                 const type 3
1A78  81ABE429           const [5]: (702851969)
1A7C  01                 const type 3
1A7D  64115CEB           const [6]: (-346287772)
1A81  01                 const type 3
1A82  32EBE047           const [7]: (1205922610)
                         * functions:
1A86  00                 sizep (0)
                         * lines:
1A87  19                 sizelineinfo (25)
                         [pc] (line)
1A88  ED                 [01] (-19)
1A89  00                 [02] (-19)
1A8A  00                 [03] (-19)
1A8B  00                 [04] (-19)
1A8C  ED                 [05] (-18)
1A8D  00                 [06] (-18)
1A8E  00                 [07] (-18)
1A8F  00                 [08] (-18)
1A90  ED                 [09] (-18)
1A91  00                 [10] (-17)
1A92  00                 [11] (-17)
1A93  00                 [12] (-17)
1A94  ED                 [13] (-17)
1A95  00                 [14] (-17)
1A96  00                 [15] (-16)
1A97  00                 [16] (-16)
1A98  EE                 [17] (-16)
1A99  00                 [18] (-16)
1A9A  00                 [19] (-16)
1A9B  00                 [20] (-15)
1A9C  EE                 [21] (-15)
1A9D  00                 [22] (-15)
1A9E  00                 [23] (-15)
1A9F  00                 [24] (-15)
1AA0  EE                 [25] (-13)
                         * locals:
1AEC  00                 sizelocvars (0)
                         * upvalues:
1AED  00                 sizeupvalues (0)
                         ** end of function **

                         
1AEE                     ** function [13] definition (level 2)
                         ** start of function **
1AEE  00                 string size (0)
                         source name: (none)
1AF0  01                 line defined (245)
1AF1  F7                 last line defined (247)
1AF2  01                 nups (1)
1AF3  01                 numparams (0)
1AF4  00                 is_vararg (0)
1AF5  00                 maxstacksize (2)
                         * code:
1AF7  03                 sizecode (3)
1AF8  13000000           [1] getupval   0   0      
1AFC  22408000           [2] call       0   1   1  
1B00  1E008000           [3] return     0   1      
                         * constants:
1B04  00                 sizek (0)
                         * functions:
1B05  00                 sizep (0)
                         * lines:
1B06  03                 sizelineinfo (3)
                         [pc] (line)
1B07  F6                 [1] (-10)
1B08  00                 [2] (-10)
1B09  00                 [3] (-9)
                         * locals:
1B13  00                 sizelocvars (0)
                         * upvalues:
1B14  00                 sizeupvalues (0)
                         ** end of function **

                         
1B15                     ** function [14] definition (level 2)
                         ** start of function **
1B15  00                 string size (0)
                         source name: (none)
1B17  01                 line defined (249)
1B18  81                 last line defined (257)
1B19  02                 nups (5)
1B1A  05                 numparams (0)
1B1B  00                 is_vararg (0)
1B1C  00                 maxstacksize (5)
                         * code:
1B1E  27                 sizecode (39)
1B1F  13000000           [01] getupval   0   0      
1B23  53008000           [02] getupval   1   1      
1B27  4E40C000           [03] gettable   1   1   257  ; -1250011425
1B2B  93000001           [04] getupval   2   2      
1B2F  9C804001           [05] div        2   2   258  ; 0
1B33  62800001           [06] call       1   2   2  
1B37  0C400080           [07] settable   0   256 1    ; "X"
1B3B  13000000           [08] getupval   0   0      
1B3F  53008000           [09] getupval   1   1      
1B43  4E40C000           [10] gettable   1   1   257  ; -1250011425
1B47  93008001           [11] getupval   2   3      
1B4B  9C804001           [12] div        2   2   258  ; 0
1B4F  62800001           [13] call       1   2   2  
1B53  0C408081           [14] settable   0   259 1    ; "Y"
1B57  1D000100           [15] getglobal  0   4        ; mMovie
1B5B  24404100           [16] self       0   0   261  ; 471456102
1B5F  99800100           [17] loadk      2   6        ; "Reticle"
1B63  D9C00100           [18] loadk      3   7        ; "_x"
1B67  13010000           [19] getupval   4   0      
1B6B  0E014002           [20] gettable   4   4   256  ; "X"
1B6F  22408002           [21] call       0   5   1  
1B73  1D000100           [22] getglobal  0   4        ; mMovie
1B77  24404100           [23] self       0   0   261  ; 471456102
1B7B  99800100           [24] loadk      2   6        ; "Reticle"
1B7F  D9000200           [25] loadk      3   8        ; "_y"
1B83  13010000           [26] getupval   4   0      
1B87  0EC14002           [27] gettable   4   4   259  ; "Y"
1B8B  22408002           [28] call       0   5   1  
1B8F  1D000100           [29] getglobal  0   4        ; mMovie
1B93  24404100           [30] self       0   0   261  ; 471456102
1B97  99800100           [31] loadk      2   6        ; "Reticle"
1B9B  D9400200           [32] loadk      3   9        ; "_visible"
1B9F  13010002           [33] getupval   4   4      
1BA3  18010000           [34] test       4       0    ; to [36] if true
1BA7  1A400080           [35] jmp        2            ; to [38]
1BAB  13010000           [36] getupval   4   0      
1BAF  0E814202           [37] gettable   4   4   266  ; "IsVisible"
1BB3  22408002           [38] call       0   5   1  
1BB7  1E008000           [39] return     0   1      
                         * constants:
1BBB  0B                 sizek (11)
1BBC  04                 const type 4
1BBD  02                 string size (2)
1BBE  5800               "X\0"
                         const [0]: "X"
1BC0  01                 const type 3
1BC1  DF567EB5           const [1]: (-1250011425)
1BC5  03                 const type 3
1BC6  00000040           const [2]: (0)
1BCA  04                 const type 4
1BCB  02                 string size (2)
1BCC  5900               "Y\0"
                         const [3]: "Y"
1BCE  04                 const type 4
1BCF  07                 string size (7)
1BD0  6D4D6F76696500     "mMovie\0"
                         const [4]: "mMovie"
1BD7  01                 const type 3
1BD8  66D9191C           const [5]: (471456102)
1BDC  04                 const type 4
1BDD  08                 string size (8)
1BDE  52657469636C6500   "Reticle\0"
                         const [6]: "Reticle"
1BE6  04                 const type 4
1BE7  03                 string size (3)
1BE8  5F7800             "_x\0"
                         const [7]: "_x"
1BEB  04                 const type 4
1BEC  03                 string size (3)
1BED  5F7900             "_y\0"
                         const [8]: "_y"
1BF0  04                 const type 4
1BF1  09                 string size (9)
1BF2  5F76697369626C65+  "_visible"
1BFA  00                 "\0"
                         const [9]: "_visible"
1BFB  04                 const type 4
1BFC  0A                 string size (10)
1BFD  497356697369626C+  "IsVisibl"
1C05  6500               "e\0"
                         const [10]: "IsVisible"
                         * functions:
1C07  00                 sizep (0)
                         * lines:
1C08  27                 sizelineinfo (39)
                         [pc] (line)
1C09  FA                 [01] (-6)
1C0A  00                 [02] (-6)
1C0B  00                 [03] (-6)
1C0C  00                 [04] (-6)
1C0D  FA                 [05] (-6)
1C0E  00                 [06] (-6)
1C0F  00                 [07] (-6)
1C10  00                 [08] (-5)
1C11  FA                 [09] (-5)
1C12  00                 [10] (-5)
1C13  00                 [11] (-5)
1C14  00                 [12] (-5)
1C15  FA                 [13] (-5)
1C16  00                 [14] (-5)
1C17  00                 [15] (-3)
1C18  00                 [16] (-3)
1C19  FA                 [17] (-3)
1C1A  00                 [18] (-3)
1C1B  00                 [19] (-3)
1C1C  00                 [20] (-3)
1C1D  FA                 [21] (-3)
1C1E  00                 [22] (-2)
1C1F  00                 [23] (-2)
1C20  00                 [24] (-2)
1C21  FA                 [25] (-2)
1C22  00                 [26] (-2)
1C23  00                 [27] (-2)
1C24  00                 [28] (-2)
1C25  FB                 [29] (0)
1C26  00                 [30] (0)
1C27  00                 [31] (0)
1C28  00                 [32] (0)
1C29  FB                 [33] (0)
1C2A  00                 [34] (0)
1C2B  00                 [35] (0)
1C2C  00                 [36] (0)
1C2D  FB                 [37] (0)
1C2E  00                 [38] (0)
1C2F  00                 [39] (1)
                         * locals:
1CA5  00                 sizelocvars (0)
                         * upvalues:
1CA6  00                 sizeupvalues (0)
                         ** end of function **

                         
1CA7                     ** function [15] definition (level 2)
                         ** start of function **
1CA7  00                 string size (0)
                         source name: (none)
1CA9  02                 line defined (259)
1CAA  9B                 last line defined (283)
1CAB  02                 nups (14)
1CAC  0E                 numparams (0)
1CAD  00                 is_vararg (0)
1CAE  00                 maxstacksize (11)
                         * code:
1CB0  77                 sizecode (119)
1CB1  13000000           [001] getupval   0   0      
1CB5  24004000           [002] self       0   0   256  ; 1604846893
1CB9  22800001           [003] call       0   2   2  
1CBD  4BC00000           [004] newtable   1   0   3    ; array=0, hash=3
1CC1  A4804000           [005] self       2   0   258  ; -1041221760
1CC5  A2800001           [006] call       2   2   2  
1CC9  4C808080           [007] settable   1   257 2    ; "x"
1CCD  A4004100           [008] self       2   0   260  ; 403340413
1CD1  A2800001           [009] call       2   2   2  
1CD5  4C808081           [010] settable   1   259 2    ; "y"
1CD9  A4804100           [011] self       2   0   262  ; -516890392
1CDD  A2800001           [012] call       2   2   2  
1CE1  4C808082           [013] settable   1   261 2    ; "z"
fail op	8
1CE5  48008000           [014] setupval   1   1      
1CE9  4BC00000           [015] newtable   1   0   3    ; array=0, hash=3
1CED  A4C04100           [016] self       2   0   263  ; -1097721332
1CF1  A2800001           [017] call       2   2   2  
1CF5  4C808080           [018] settable   1   257 2    ; "x"
1CF9  A4004200           [019] self       2   0   264  ; -1195195648
1CFD  A2800001           [020] call       2   2   2  
1D01  4C808081           [021] settable   1   259 2    ; "y"
1D05  A4404200           [022] self       2   0   265  ; -935249689
1D09  A2800001           [023] call       2   2   2  
1D0D  4C808082           [024] settable   1   261 2    ; "z"
fail op	8
1D11  48000001           [025] setupval   1   2      
1D15  4BC00000           [026] newtable   1   0   3    ; array=0, hash=3
1D19  93000001           [027] getupval   2   2      
1D1D  8E404001           [028] gettable   2   2   257  ; "x"
1D21  D3008000           [029] getupval   3   1      
1D25  CE40C001           [030] gettable   3   3   257  ; "x"
1D29  8DC00001           [031] sub        2   2   3  
1D2D  4C808080           [032] settable   1   257 2    ; "x"
1D31  93000001           [033] getupval   2   2      
1D35  8EC04001           [034] gettable   2   2   259  ; "y"
1D39  D3008000           [035] getupval   3   1      
1D3D  CEC0C001           [036] gettable   3   3   259  ; "y"
1D41  8DC00001           [037] sub        2   2   3  
1D45  4C808081           [038] settable   1   259 2    ; "y"
1D49  93000001           [039] getupval   2   2      
1D4D  8E404101           [040] gettable   2   2   261  ; "z"
1D51  D3008000           [041] getupval   3   1      
1D55  CE40C101           [042] gettable   3   3   261  ; "z"
1D59  8DC00001           [043] sub        2   2   3  
1D5D  4C808082           [044] settable   1   261 2    ; "z"
fail op	8
1D61  48008001           [045] setupval   1   3      
1D65  5D800200           [046] getglobal  1   10       ; mMovie
1D69  64C0C200           [047] self       1   1   267  ; -174729759
1D6D  62800001           [048] call       1   2   2  
1D71  9D800200           [049] getglobal  2   10       ; mMovie
1D75  A4004301           [050] self       2   2   268  ; -301556379
1D79  A2800001           [051] call       2   2   2  
1D7D  5C808000           [052] div        1   1   2  
1D81  93000002           [053] getupval   2   4      
1D85  D3008002           [054] getupval   3   5      
1D89  9CC00001           [055] div        2   2   3  
1D8D  5C808000           [056] div        1   1   2  
1D91  93000000           [057] getupval   2   0      
1D95  A4404301           [058] self       2   2   269  ; 676586031
1D99  A2800001           [059] call       2   2   2  
1D9D  D3000001           [060] getupval   3   2      
1DA1  CE40C101           [061] gettable   3   3   261  ; "z"
1DA5  13018000           [062] getupval   4   1      
1DA9  0E414102           [063] gettable   4   4   261  ; "z"
1DAD  CD008101           [064] sub        3   3   4  
1DB1  84C00001           [065] mul        2   2   3  
1DB5  D3008002           [066] getupval   3   5      
1DB9  9CC00001           [067] div        2   2   3  
1DBD  9C800087           [068] div        2   270 2    ; 0
1DC1  DDC00300           [069] getglobal  3   15       ; math
1DC5  CE00C401           [070] gettable   3   3   272  ; 1710846250
1DC9  19810300           [071] loadk      4   14       ; 0
1DCD  52018000           [072] move       5   1      
1DD1  E2808001           [073] call       3   3   2  
1DD5  9CC00001           [074] div        2   2   3  
1DD9  D3008003           [075] getupval   3   7      
1DDD  DCC00087           [076] div        3   270 3    ; 0
1DE1  84C00001           [077] mul        2   2   3  
fail op	8
1DE5  88000003           [078] setupval   2   6      
1DE9  93000004           [079] getupval   2   8      
1DED  A4404401           [080] self       2   2   273  ; 94873265
1DF1  13010003           [081] getupval   4   6      
1DF5  A2408001           [082] call       2   3   1  
1DF9  93008004           [083] getupval   2   9      
1DFD  A2408000           [084] call       2   1   1  
1E01  93000005           [085] getupval   2   10     
1E05  98400000           [086] test       2       1    ; to [88] if false
1E09  1AC00480           [087] jmp        20           ; to [108]
1E0D  93000000           [088] getupval   2   0      
1E11  A4804401           [089] self       2   2   274  ; -2080524010
1E15  A2800001           [090] call       2   2   2  
1E19  98400000           [091] test       2       1    ; to [93] if false
1E1D  1A800380           [092] jmp        15           ; to [108]
1E21  9DC00400           [093] getglobal  2   19       ; 1390508688
1E25  DD800200           [094] getglobal  3   10       ; mMovie
1E29  19010500           [095] loadk      4   20       ; "MapHint"
1E2D  5D410500           [096] getglobal  5   21       ; UISys
1E31  4E81C502           [097] gettable   5   5   278  ; "FlashInstance_SMOOTH_STEP"
1E35  8B018000           [098] newtable   6   1   0    ; array=1, hash=0
1E39  D9C10500           [099] loadk      7   23       ; "_alpha"
1E3D  9B418000           [100] setlist    6   1   1    ; index 1 to 1
1E41  CB018000           [101] newtable   7   1   0    ; array=1, hash=0
1E45  19020600           [102] loadk      8   24       ; 0
1E49  DB418000           [103] setlist    7   1   1    ; index 1 to 1
1E4D  19420600           [104] loadk      8   25       ; -102
1E51  59420600           [105] loadk      9   25       ; -102
1E55  A5020000           [106] closure    10  0      
1E59  A2408004           [107] call       2   9   1  
1E5D  93000005           [108] getupval   2   10     
1E61  98000000           [109] test       2       0    ; to [111] if true
1E65  1AC00180           [110] jmp        8            ; to [119]
1E69  93000006           [111] getupval   2   12     
1E6D  A4804601           [112] self       2   2   282  ; 1632191879
1E71  1DC10600           [113] getglobal  4   27       ; playerPulseInterval
1E75  53018006           [114] getupval   5   13     
1E79  97018000           [115] loadbool   6   1   0    ; true
1E7D  D9810300           [116] loadk      7   14       ; 0
1E81  A2800003           [117] call       2   6   2  
fail op	8
1E85  88008005           [118] setupval   2   11     
1E89  1E008000           [119] return     0   1      
                         * constants:
1E8D  1C                 sizek (28)
1E8E  01                 const type 3
1E8F  2D05A85F           const [0]: (1604846893)
1E93  04                 const type 4
1E94  02                 string size (2)
1E95  7800               "x\0"
                         const [1]: "x"
1E97  01                 const type 3
1E98  8037F0C1           const [2]: (-1041221760)
1E9C  04                 const type 4
1E9D  02                 string size (2)
1E9E  7900               "y\0"
                         const [3]: "y"
1EA0  01                 const type 3
1EA1  7D7C0A18           const [4]: (403340413)
1EA5  04                 const type 4
1EA6  02                 string size (2)
1EA7  7A00               "z\0"
                         const [5]: "z"
1EA9  01                 const type 3
1EAA  E8E030E1           const [6]: (-516890392)
1EAE  01                 const type 3
1EAF  0C1A92BE           const [7]: (-1097721332)
1EB3  01                 const type 3
1EB4  00C3C2B8           const [8]: (-1195195648)
1EB8  01                 const type 3
1EB9  E73841C8           const [9]: (-935249689)
1EBD  04                 const type 4
1EBE  07                 string size (7)
1EBF  6D4D6F76696500     "mMovie\0"
                         const [10]: "mMovie"
1EC6  01                 const type 3
1EC7  E1D595F5           const [11]: (-174729759)
1ECB  01                 const type 3
1ECC  659D06EE           const [12]: (-301556379)
1ED0  01                 const type 3
1ED1  2FE25328           const [13]: (676586031)
1ED5  03                 const type 3
1ED6  0000803F           const [14]: (0)
1EDA  04                 const type 4
1EDB  05                 string size (5)
1EDC  6D61746800         "math\0"
                         const [15]: "math"
1EE1  01                 const type 3
1EE2  2A71F965           const [16]: (1710846250)
1EE6  01                 const type 3
1EE7  B1A6A705           const [17]: (94873265)
1EEB  01                 const type 3
1EEC  16B9FD83           const [18]: (-2080524010)
1EF0  01                 const type 3
1EF1  907AE152           const [19]: (1390508688)
1EF5  04                 const type 4
1EF6  08                 string size (8)
1EF7  4D617048696E7400   "MapHint\0"
                         const [20]: "MapHint"
1EFF  04                 const type 4
1F00  06                 string size (6)
1F01  554953797300       "UISys\0"
                         const [21]: "UISys"
1F07  04                 const type 4
1F08  1A                 string size (26)
1F09  466C617368496E73+  "FlashIns"
1F11  74616E63655F534D+  "tance_SM"
1F19  4F4F54485F535445+  "OOTH_STE"
1F21  5000               "P\0"
                         const [22]: "FlashInstance_SMOOTH_STEP"
1F23  04                 const type 4
1F24  07                 string size (7)
1F25  5F616C70686100     "_alpha\0"
                         const [23]: "_alpha"
1F2C  03                 const type 3
1F2D  00008C42           const [24]: (0)
1F31  03                 const type 3
1F32  9A99993E           const [25]: (-102)
1F36  01                 const type 3
1F37  87454961           const [26]: (1632191879)
1F3B  04                 const type 4
1F3C  14                 string size (20)
1F3D  706C617965725075+  "playerPu"
1F45  6C7365496E746572+  "lseInter"
1F4D  76616C00           "val\0"
                         const [27]: "playerPulseInterval"
                         * functions:
1F51  01                 sizep (1)
                         
1F52                     ** function [0] definition (level 3)
                         ** start of function **
1F52  00                 string size (0)
                         source name: (none)
1F54  02                 line defined (275)
1F55  95                 last line defined (277)
1F56  02                 nups (0)
1F57  00                 numparams (0)
1F58  00                 is_vararg (0)
1F59  00                 maxstacksize (8)
                         * code:
1F5B  0F                 sizecode (15)
1F5C  1D000000           [01] getglobal  0   0        ; 1390508688
1F60  5D400000           [02] getglobal  1   1        ; mMovie
1F64  99800000           [03] loadk      2   2        ; "MapHint"
1F68  DDC00000           [04] getglobal  3   3        ; UISys
1F6C  CE00C101           [05] gettable   3   3   260  ; "FlashInstance_SMOOTH_STEP"
1F70  0B018000           [06] newtable   4   1   0    ; array=1, hash=0
1F74  59410100           [07] loadk      5   5        ; "_alpha"
1F78  1B418000           [08] setlist    4   1   1    ; index 1 to 1
1F7C  4B018000           [09] newtable   5   1   0    ; array=1, hash=0
1F80  99810100           [10] loadk      6   6        ; 0
1F84  5B418000           [11] setlist    5   1   1    ; index 1 to 1
1F88  99C10100           [12] loadk      6   7        ; -102
1F8C  D9010200           [13] loadk      7   8        ; 0
1F90  22400004           [14] call       0   8   1  
1F94  1E008000           [15] return     0   1      
                         * constants:
1F98  09                 sizek (9)
1F99  01                 const type 3
1F9A  907AE152           const [0]: (1390508688)
1F9E  04                 const type 4
1F9F  07                 string size (7)
1FA0  6D4D6F76696500     "mMovie\0"
                         const [1]: "mMovie"
1FA7  04                 const type 4
1FA8  08                 string size (8)
1FA9  4D617048696E7400   "MapHint\0"
                         const [2]: "MapHint"
1FB1  04                 const type 4
1FB2  06                 string size (6)
1FB3  554953797300       "UISys\0"
                         const [3]: "UISys"
1FB9  04                 const type 4
1FBA  1A                 string size (26)
1FBB  466C617368496E73+  "FlashIns"
1FC3  74616E63655F534D+  "tance_SM"
1FCB  4F4F54485F535445+  "OOTH_STE"
1FD3  5000               "P\0"
                         const [4]: "FlashInstance_SMOOTH_STEP"
1FD5  04                 const type 4
1FD6  07                 string size (7)
1FD7  5F616C70686100     "_alpha\0"
                         const [5]: "_alpha"
1FDE  03                 const type 3
1FDF  00000000           const [6]: (0)
1FE3  03                 const type 3
1FE4  9A99993E           const [7]: (-102)
1FE8  03                 const type 3
1FE9  00004040           const [8]: (0)
                         * functions:
1FED  00                 sizep (0)
                         * lines:
1FEE  0F                 sizelineinfo (15)
                         [pc] (line)
1FEF  14                 [01] (20)
1FF0  01                 [02] (20)
1FF1  00                 [03] (20)
1FF2  00                 [04] (20)
1FF3  14                 [05] (20)
1FF4  01                 [06] (20)
1FF5  00                 [07] (20)
1FF6  00                 [08] (20)
1FF7  14                 [09] (20)
1FF8  01                 [10] (20)
1FF9  00                 [11] (20)
1FFA  00                 [12] (20)
1FFB  14                 [13] (20)
1FFC  01                 [14] (20)
1FFD  00                 [15] (21)
                         * locals:
202B  00                 sizelocvars (0)
                         * upvalues:
202C  00                 sizeupvalues (0)
                         ** end of function **

                         * lines:
202D  77                 sizelineinfo (119)
                         [pc] (line)
202E  04                 [001] (4)
202F  01                 [002] (4)
2030  00                 [003] (4)
2031  00                 [004] (5)
2032  04                 [005] (5)
2033  01                 [006] (5)
2034  00                 [007] (5)
2035  00                 [008] (5)
2036  04                 [009] (5)
2037  01                 [010] (5)
2038  00                 [011] (5)
2039  00                 [012] (5)
203A  05                 [013] (5)
203B  01                 [014] (5)
203C  00                 [015] (6)
203D  00                 [016] (6)
203E  05                 [017] (6)
203F  01                 [018] (6)
2040  00                 [019] (6)
2041  00                 [020] (6)
2042  05                 [021] (6)
2043  01                 [022] (6)
2044  00                 [023] (6)
2045  00                 [024] (6)
2046  05                 [025] (6)
2047  01                 [026] (7)
2048  00                 [027] (7)
2049  00                 [028] (7)
204A  05                 [029] (7)
204B  01                 [030] (7)
204C  00                 [031] (7)
204D  00                 [032] (7)
204E  05                 [033] (8)
204F  01                 [034] (8)
2050  00                 [035] (8)
2051  00                 [036] (8)
2052  05                 [037] (8)
2053  01                 [038] (8)
2054  00                 [039] (9)
2055  00                 [040] (9)
2056  05                 [041] (9)
2057  01                 [042] (9)
2058  00                 [043] (9)
2059  00                 [044] (9)
205A  05                 [045] (9)
205B  01                 [046] (11)
205C  00                 [047] (11)
205D  00                 [048] (11)
205E  05                 [049] (11)
205F  01                 [050] (11)
2060  00                 [051] (11)
2061  00                 [052] (11)
2062  05                 [053] (11)
2063  01                 [054] (11)
2064  00                 [055] (11)
2065  00                 [056] (11)
2066  06                 [057] (12)
2067  01                 [058] (12)
2068  00                 [059] (12)
2069  00                 [060] (12)
206A  06                 [061] (12)
206B  01                 [062] (12)
206C  00                 [063] (12)
206D  00                 [064] (12)
206E  06                 [065] (12)
206F  01                 [066] (12)
2070  00                 [067] (12)
2071  00                 [068] (12)
2072  06                 [069] (12)
2073  01                 [070] (12)
2074  00                 [071] (12)
2075  00                 [072] (12)
2076  06                 [073] (12)
2077  01                 [074] (12)
2078  00                 [075] (12)
2079  00                 [076] (12)
207A  06                 [077] (12)
207B  01                 [078] (12)
207C  00                 [079] (14)
207D  00                 [080] (14)
207E  06                 [081] (14)
207F  01                 [082] (14)
2080  00                 [083] (15)
2081  00                 [084] (15)
2082  06                 [085] (17)
2083  01                 [086] (17)
2084  00                 [087] (17)
2085  00                 [088] (17)
2086  06                 [089] (17)
2087  01                 [090] (17)
2088  00                 [091] (17)
2089  00                 [092] (17)
208A  06                 [093] (18)
208B  01                 [094] (18)
208C  00                 [095] (18)
208D  00                 [096] (18)
208E  06                 [097] (18)
208F  01                 [098] (18)
2090  00                 [099] (18)
2091  00                 [100] (18)
2092  07                 [101] (18)
2093  01                 [102] (18)
2094  00                 [103] (18)
2095  00                 [104] (18)
2096  07                 [105] (18)
2097  01                 [106] (21)
2098  00                 [107] (18)
2099  00                 [108] (24)
209A  07                 [109] (24)
209B  01                 [110] (24)
209C  00                 [111] (25)
209D  00                 [112] (25)
209E  07                 [113] (25)
209F  01                 [114] (25)
20A0  00                 [115] (25)
20A1  00                 [116] (25)
20A2  07                 [117] (25)
20A3  01                 [118] (25)
20A4  00                 [119] (27)
                         * locals:
220A  00                 sizelocvars (0)
                         * upvalues:
220B  00                 sizeupvalues (0)
                         ** end of function **

                         
220C                     ** function [16] definition (level 2)
                         ** start of function **
220C  00                 string size (0)
                         source name: (none)
220E  02                 line defined (285)
220F  D8                 last line defined (344)
2210  02                 nups (14)
2211  0E                 numparams (0)
2212  00                 is_vararg (0)
2213  00                 maxstacksize (23)
                         * code:
2216  02                 sizecode (284)
2217  13000000           [001] getupval   0   0      
221B  18000000           [002] test       0       0    ; to [4] if true
221F  1AC04580           [003] jmp        280          ; to [284]
2223  1D000000           [004] getglobal  0   0        ; 1074689893
2227  53008000           [005] getupval   1   1      
222B  22800001           [006] call       0   2   2  
222F  18400000           [007] test       0       1    ; to [9] if false
2233  1A804480           [008] jmp        275          ; to [284]
2237  13008000           [009] getupval   0   1      
223B  24404000           [010] self       0   0   257  ; 676586031
223F  22800001           [011] call       0   2   2  
2243  53000001           [012] getupval   1   2      
2247  93008001           [013] getupval   2   3      
224B  D3000002           [014] getupval   3   4      
fail op	35
224F  63C00001           [015] close      1  
2253  1A000080           [016] jmp        1            ; to [18]
2257  57008000           [017] loadbool   1   1   0    ; true
225B  93008001           [018] getupval   2   3      
225F  8E804001           [019] gettable   2   2   258  ; "x"
2263  D3008002           [020] getupval   3   5      
2267  CE80C001           [021] gettable   3   3   258  ; "x"
226B  8DC00001           [022] sub        2   2   3  
226F  D3000003           [023] getupval   3   6      
2273  CE80C001           [024] gettable   3   3   258  ; "x"
2277  13018002           [025] getupval   4   5      
227B  0E814002           [026] gettable   4   4   258  ; "x"
227F  CD008101           [027] sub        3   3   4  
2283  9CC00001           [028] div        2   2   3  
2287  D3008001           [029] getupval   3   3      
228B  CEC0C001           [030] gettable   3   3   259  ; "z"
228F  13018002           [031] getupval   4   5      
2293  0EC14002           [032] gettable   4   4   259  ; "z"
2297  CD008101           [033] sub        3   3   4  
229B  13010003           [034] getupval   4   6      
229F  0EC14002           [035] gettable   4   4   259  ; "z"
22A3  53018002           [036] getupval   5   5      
22A7  4EC1C002           [037] gettable   5   5   259  ; "z"
22AB  0D410102           [038] sub        4   4   5  
22AF  DC008101           [039] div        3   3   4  
22B3  13018003           [040] getupval   4   7      
22B7  0E814002           [041] gettable   4   4   258  ; "x"
22BB  04010002           [042] mul        4   4   0  
22BF  53018003           [043] getupval   5   7      
22C3  4EC1C002           [044] gettable   5   5   259  ; "z"
22C7  44018002           [045] mul        5   5   0  
22CB  9C01C102           [046] div        6   5   260  ; 0
22CF  D3010004           [047] getupval   7   8      
22D3  9CC10103           [048] div        6   6   7  
22D7  D3010004           [049] getupval   7   8      
22DB  C4C10103           [050] mul        7   6   7  
22DF  13028004           [051] getupval   8   9      
22E3  04020203           [052] mul        8   6   8  
22E7  5D420100           [053] getglobal  9   5        ; mMovie
22EB  6482C104           [054] self       9   9   262  ; -174729759
22EF  62820001           [055] call       9   2   2  
22F3  9D420100           [056] getglobal  10  5        ; mMovie
22F7  A4C24105           [057] self       10  10  263  ; -301556379
22FB  A2820001           [058] call       10  2   2  
22FF  5C828204           [059] div        9   9   10 
2303  93028004           [060] getupval   10  9      
2307  D3020004           [061] getupval   11  8      
230B  9CC20205           [062] div        10  10  11 
230F  5C828204           [063] div        9   9   10 
fail op	21
2313  1500C204           [064] concat     0   9   264
2317  1A400080           [065] jmp        2            ; to [68]
231B  DC418203           [066] div        7   7   9  
231F  1A000080           [067] jmp        1            ; to [69]
2323  04420204           [068] mul        8   8   9  
2327  93020005           [069] getupval   10  10     
232B  8E424205           [070] gettable   10  10  265  ; "IsVisible"
232F  98420000           [071] test       10      1    ; to [73] if false
2333  1A800980           [072] jmp        39           ; to [112]
2337  93028005           [073] getupval   10  11     
233B  8E824205           [074] gettable   10  10  266  ; "mCurVal"
233F  D3020000           [075] getupval   11  0      
2343  CEC2C205           [076] gettable   11  11  267  ; "mMin"
fail op	0
2347  00030002           [077] move       12  4      
234B  4D830084           [078] sub        13  264 2    ; 0
234F  04430306           [079] mul        12  12  13 
2353  53030006           [080] getupval   13  12     
2357  5C430305           [081] div        13  10  13 
235B  5C430304           [082] div        13  8   13 
235F  03430306           [083] add        12  12  13 
2363  CC020381           [084] settable   11  258 12   ; "x"
2367  D3020000           [085] getupval   11  0      
236B  CE02C305           [086] gettable   11  11  268  ; "mMax"
236F  04830002           [087] mul        12  4   2  
2373  53030006           [088] getupval   13  12     
2377  5C430305           [089] div        13  10  13 
237B  5C430304           [090] div        13  8   13 
237F  0D430306           [091] sub        12  12  13 
2383  CC020381           [092] settable   11  258 12   ; "x"
2387  D3020000           [093] getupval   11  0      
238B  CEC2C205           [094] gettable   11  11  267  ; "mMin"
fail op	0
238F  00038002           [095] move       12  5      
2393  04C30006           [096] mul        12  12  3  
2397  53030006           [097] getupval   13  12     
239B  5C430305           [098] div        13  10  13 
239F  5C438303           [099] div        13  7   13 
23A3  03430306           [100] add        12  12  13 
23A7  CC028386           [101] settable   11  269 12   ; "y"
23AB  D3020000           [102] getupval   11  0      
23AF  CE02C305           [103] gettable   11  11  268  ; "mMax"
23B3  0DC30084           [104] sub        12  264 3    ; 0
23B7  04038302           [105] mul        12  5   12 
23BB  53030006           [106] getupval   13  12     
23BF  5C430305           [107] div        13  10  13 
23C3  5C438303           [108] div        13  7   13 
23C7  0D430306           [109] sub        12  12  13 
23CB  CC028386           [110] settable   11  269 12   ; "y"
23CF  1AC00680           [111] jmp        28           ; to [140]
23D3  D3020000           [112] getupval   11  0      
23D7  CEC2C205           [113] gettable   11  11  267  ; "mMin"
fail op	0
23DB  00030002           [114] move       12  4      
23DF  4D830084           [115] sub        13  264 2    ; 0
23E3  04430306           [116] mul        12  12  13 
23E7  5D830300           [117] getglobal  13  14       ; controllerPanMarginDecrease
23EB  03430306           [118] add        12  12  13 
23EF  CC020381           [119] settable   11  258 12   ; "x"
23F3  D3020000           [120] getupval   11  0      
23F7  CE02C305           [121] gettable   11  11  268  ; "mMax"
23FB  04830002           [122] mul        12  4   2  
23FF  5D830300           [123] getglobal  13  14       ; controllerPanMarginDecrease
2403  0D430306           [124] sub        12  12  13 
2407  CC020381           [125] settable   11  258 12   ; "x"
240B  D3020000           [126] getupval   11  0      
240F  CEC2C205           [127] gettable   11  11  267  ; "mMin"
fail op	0
2413  00038002           [128] move       12  5      
2417  04C30006           [129] mul        12  12  3  
241B  5D830300           [130] getglobal  13  14       ; controllerPanMarginDecrease
241F  03430306           [131] add        12  12  13 
2423  CC028386           [132] settable   11  269 12   ; "y"
2427  D3020000           [133] getupval   11  0      
242B  CE02C305           [134] gettable   11  11  268  ; "mMax"
242F  0DC30084           [135] sub        12  264 3    ; 0
2433  04038302           [136] mul        12  5   12 
2437  5D830300           [137] getglobal  13  14       ; controllerPanMarginDecrease
243B  0D430306           [138] sub        12  12  13 
243F  CC028386           [139] settable   11  269 12   ; "y"
2443  D3020000           [140] getupval   11  0      
2447  CEC2C205           [141] gettable   11  11  267  ; "mMin"
244B  CE82C005           [142] gettable   11  11  258  ; "x"
244F  13030000           [143] getupval   12  0      
2453  0E034306           [144] gettable   12  12  268  ; "mMax"
2457  0E834006           [145] gettable   12  12  258  ; "x"
fail op	21
245B  15C00206           [146] concat     0   12  11 
245F  1AC00280           [147] jmp        12           ; to [160]
2463  D3020000           [148] getupval   11  0      
2467  CEC2C205           [149] gettable   11  11  267  ; "mMin"
246B  CE82C005           [150] gettable   11  11  258  ; "x"
246F  13030000           [151] getupval   12  0      
2473  0EC34206           [152] gettable   12  12  267  ; "mMin"
2477  53030000           [153] getupval   13  0      
247B  4E03C306           [154] gettable   13  13  268  ; "mMax"
247F  4E83C006           [155] gettable   13  13  258  ; "x"
2483  0C430381           [156] settable   12  258 13   ; "x"
2487  13030000           [157] getupval   12  0      
248B  0E034306           [158] gettable   12  12  268  ; "mMax"
248F  0CC30281           [159] settable   12  258 11   ; "x"
2493  13030000           [160] getupval   12  0      
2497  0EC34206           [161] gettable   12  12  267  ; "mMin"
249B  0E434306           [162] gettable   12  12  269  ; "y"
249F  53030000           [163] getupval   13  0      
24A3  4E03C306           [164] gettable   13  13  268  ; "mMax"
24A7  4E43C306           [165] gettable   13  13  269  ; "y"
fail op	21
24AB  15008306           [166] concat     0   13  12 
24AF  1AC00280           [167] jmp        12           ; to [180]
24B3  13030000           [168] getupval   12  0      
24B7  0EC34206           [169] gettable   12  12  267  ; "mMin"
24BB  0E434306           [170] gettable   12  12  269  ; "y"
24BF  53030000           [171] getupval   13  0      
24C3  4EC3C206           [172] gettable   13  13  267  ; "mMin"
24C7  93030000           [173] getupval   14  0      
24CB  8E034307           [174] gettable   14  14  268  ; "mMax"
24CF  8E434307           [175] gettable   14  14  269  ; "y"
24D3  4C838386           [176] settable   13  269 14   ; "y"
24D7  53030000           [177] getupval   13  0      
24DB  4E03C306           [178] gettable   13  13  268  ; "mMax"
24DF  4C038386           [179] settable   13  269 12   ; "y"
24E3  53030000           [180] getupval   13  0      
24E7  4EC3C306           [181] gettable   13  13  271  ; "mScrollRange"
24EB  93030000           [182] getupval   14  0      
24EF  8EC34207           [183] gettable   14  14  267  ; "mMin"
24F3  8E834007           [184] gettable   14  14  258  ; "x"
24F7  D3030000           [185] getupval   15  0      
24FB  CE03C307           [186] gettable   15  15  268  ; "mMax"
24FF  CE83C007           [187] gettable   15  15  258  ; "x"
2503  8DC30307           [188] sub        14  14  15 
2507  4C830381           [189] settable   13  258 14   ; "x"
250B  53030000           [190] getupval   13  0      
250F  4EC3C306           [191] gettable   13  13  271  ; "mScrollRange"
2513  93030000           [192] getupval   14  0      
2517  8EC34207           [193] gettable   14  14  267  ; "mMin"
251B  8E434307           [194] gettable   14  14  269  ; "y"
251F  D3030000           [195] getupval   15  0      
2523  CE03C307           [196] gettable   15  15  268  ; "mMax"
2527  CE43C307           [197] gettable   15  15  269  ; "y"
252B  8DC30307           [198] sub        14  14  15 
252F  4C838386           [199] settable   13  269 14   ; "y"
2533  53030000           [200] getupval   13  0      
2537  4E03C306           [201] gettable   13  13  268  ; "mMax"
253B  4E43C306           [202] gettable   13  13  269  ; "y"
253F  93030000           [203] getupval   14  0      
2543  8EC34207           [204] gettable   14  14  267  ; "mMin"
2547  8E434307           [205] gettable   14  14  269  ; "y"
254B  4D838306           [206] sub        13  13  14 
254F  93030000           [207] getupval   14  0      
2553  8E034307           [208] gettable   14  14  268  ; "mMax"
2557  8E834007           [209] gettable   14  14  258  ; "x"
255B  D3030000           [210] getupval   15  0      
255F  CEC3C207           [211] gettable   15  15  267  ; "mMin"
2563  CE83C007           [212] gettable   15  15  258  ; "x"
2567  8DC30307           [213] sub        14  14  15 
256B  DD030400           [214] getglobal  15  16       ; 1668611480
256F  13048006           [215] getupval   16  13     
2573  0E444408           [216] gettable   16  16  273  ; -132701534
fail op	35
2577  2380C406           [217] close      0  
257B  1A000080           [218] jmp        1            ; to [220]
257F  57440000           [219] loadbool   17  0   1    ; false, to [221]
2583  57048000           [220] loadbool   17  1   0    ; true
2587  93040000           [221] getupval   18  0      
258B  8EC44409           [222] gettable   18  18  275  ; "mCurrentCoords"
258F  8E444309           [223] gettable   18  18  269  ; "y"
2593  D3040000           [224] getupval   19  0      
2597  CEC4C209           [225] gettable   19  19  267  ; "mMin"
259B  CE44C309           [226] gettable   19  19  269  ; "y"
259F  8DC40409           [227] sub        18  18  19 
25A3  9C440309           [228] div        18  18  13 
25A7  8D840484           [229] sub        18  264 18   ; 0
25AB  D9040200           [230] loadk      19  8        ; 0
25AF  22840002           [231] call       16  4   2  
25B3  53040000           [232] getupval   17  0      
25B7  4E04C508           [233] gettable   17  17  276  ; "mLeeway"
25BB  4E44C308           [234] gettable   17  17  269  ; "y"
25BF  4D440489           [235] sub        17  274 17   ; 0
25C3  93040000           [236] getupval   18  0      
25C7  8E044509           [237] gettable   18  18  276  ; "mLeeway"
25CB  8E444309           [238] gettable   18  18  269  ; "y"
25CF  83840484           [239] add        18  264 18   ; 0
25D3  E2830002           [240] call       15  4   2  
25D7  1D040400           [241] getglobal  16  16       ; 1668611480
25DB  53048006           [242] getupval   17  13     
25DF  4E44C408           [243] gettable   17  17  273  ; -132701534
fail op	35
25E3  23804407           [244] close      0  
25E7  1A000080           [245] jmp        1            ; to [247]
25EB  97440000           [246] loadbool   18  0   1    ; false, to [248]
25EF  97048000           [247] loadbool   18  1   0    ; true
25F3  D3040000           [248] getupval   19  0      
25F7  CEC4C409           [249] gettable   19  19  275  ; "mCurrentCoords"
25FB  CE84C009           [250] gettable   19  19  258  ; "x"
25FF  13050000           [251] getupval   20  0      
2603  0EC5420A           [252] gettable   20  20  267  ; "mMin"
2607  0E85400A           [253] gettable   20  20  258  ; "x"
260B  CD048509           [254] sub        19  19  20 
260F  DC848309           [255] div        19  19  14 
2613  CDC40484           [256] sub        19  264 19   ; 0
2617  19050200           [257] loadk      20  8        ; 0
261B  62840002           [258] call       17  4   2  
261F  93040000           [259] getupval   18  0      
2623  8E044509           [260] gettable   18  18  276  ; "mLeeway"
2627  8E844009           [261] gettable   18  18  258  ; "x"
262B  8D840489           [262] sub        18  274 18   ; 0
262F  D3040000           [263] getupval   19  0      
2633  CE04C509           [264] gettable   19  19  276  ; "mLeeway"
2637  CE84C009           [265] gettable   19  19  258  ; "x"
263B  C3C40484           [266] add        19  264 19   ; 0
263F  22840002           [267] call       16  4   2  
2643  53040000           [268] getupval   17  0      
2647  6444C508           [269] self       17  17  277  ; -834239131
264B  D9840000           [270] loadk      19  2        ; "x"
264F  12050008           [271] move       20  16     
2653  4605800A           [272] loadnil    21  21     
2657  92058000           [273] move       22  1      
265B  62440003           [274] call       17  6   1  
265F  53040000           [275] getupval   17  0      
2663  6444C508           [276] self       17  17  277  ; -834239131
2667  D9440300           [277] loadk      19  13       ; "y"
266B  12058007           [278] move       20  15     
266F  4605800A           [279] loadnil    21  21     
2673  92058000           [280] move       22  1      
2677  62440003           [281] call       17  6   1  
267B  57040000           [282] loadbool   17  0   0    ; false
fail op	8
267F  48040001           [283] setupval   17  2      
2683  1E008000           [284] return     0   1      
                         * constants:
2687  16                 sizek (22)
2688  01                 const type 3
2689  65770E40           const [0]: (1074689893)
268D  01                 const type 3
268E  2FE25328           const [1]: (676586031)
2692  04                 const type 4
2693  02                 string size (2)
2694  7800               "x\0"
                         const [2]: "x"
2696  04                 const type 4
2697  02                 string size (2)
2698  7A00               "z\0"
                         const [3]: "z"
269A  03                 const type 3
269B  00000040           const [4]: (0)
269F  04                 const type 4
26A0  07                 string size (7)
26A1  6D4D6F76696500     "mMovie\0"
                         const [5]: "mMovie"
26A8  01                 const type 3
26A9  E1D595F5           const [6]: (-174729759)
26AD  01                 const type 3
26AE  659D06EE           const [7]: (-301556379)
26B2  03                 const type 3
26B3  0000803F           const [8]: (0)
26B7  04                 const type 4
26B8  0A                 string size (10)
26B9  497356697369626C+  "IsVisibl"
26C1  6500               "e\0"
                         const [9]: "IsVisible"
26C3  04                 const type 4
26C4  08                 string size (8)
26C5  6D43757256616C00   "mCurVal\0"
                         const [10]: "mCurVal"
26CD  04                 const type 4
26CE  05                 string size (5)
26CF  6D4D696E00         "mMin\0"
                         const [11]: "mMin"
26D4  04                 const type 4
26D5  05                 string size (5)
26D6  6D4D617800         "mMax\0"
                         const [12]: "mMax"
26DB  04                 const type 4
26DC  02                 string size (2)
26DD  7900               "y\0"
                         const [13]: "y"
26DF  04                 const type 4
26E0  1C                 string size (28)
26E1  636F6E74726F6C6C+  "controll"
26E9  657250616E4D6172+  "erPanMar"
26F1  67696E4465637265+  "ginDecre"
26F9  61736500           "ase\0"
                         const [14]: "controllerPanMarginDecrease"
26FD  04                 const type 4
26FE  0D                 string size (13)
26FF  6D5363726F6C6C52+  "mScrollR"
2707  616E676500         "ange\0"
                         const [15]: "mScrollRange"
270C  01                 const type 3
270D  98FD7463           const [16]: (1668611480)
2711  01                 const type 3
2712  A22217F8           const [17]: (-132701534)
2716  03                 const type 3
2717  00000000           const [18]: (0)
271B  04                 const type 4
271C  0F                 string size (15)
271D  6D43757272656E74+  "mCurrent"
2725  436F6F72647300     "Coords\0"
                         const [19]: "mCurrentCoords"
272C  04                 const type 4
272D  08                 string size (8)
272E  6D4C656577617900   "mLeeway\0"
                         const [20]: "mLeeway"
2736  01                 const type 3
2737  658546CE           const [21]: (-834239131)
                         * functions:
273B  00                 sizep (0)
                         * lines:
273D  02                 sizelineinfo (284)
                         [pc] (line)
273E  1E                 [001] (30)
273F  01                 [002] (30)
2740  00                 [003] (30)
2741  00                 [004] (30)
2742  1E                 [005] (30)
2743  01                 [006] (30)
2744  00                 [007] (30)
2745  00                 [008] (30)
2746  1E                 [009] (31)
2747  01                 [010] (31)
2748  00                 [011] (31)
2749  00                 [012] (32)
274A  1E                 [013] (34)
274B  01                 [014] (34)
274C  00                 [015] (34)
274D  00                 [016] (34)
274E  1E                 [017] (35)
274F  01                 [018] (38)
2750  00                 [019] (38)
2751  00                 [020] (38)
2752  1E                 [021] (38)
2753  01                 [022] (38)
2754  00                 [023] (38)
2755  00                 [024] (38)
2756  1E                 [025] (38)
2757  01                 [026] (38)
2758  00                 [027] (38)
2759  00                 [028] (38)
275A  1E                 [029] (39)
275B  01                 [030] (39)
275C  00                 [031] (39)
275D  00                 [032] (39)
275E  1F                 [033] (39)
275F  01                 [034] (39)
2760  00                 [035] (39)
2761  00                 [036] (39)
2762  1F                 [037] (39)
2763  01                 [038] (39)
2764  00                 [039] (39)
2765  00                 [040] (40)
2766  1F                 [041] (40)
2767  01                 [042] (40)
2768  00                 [043] (41)
2769  00                 [044] (41)
276A  20                 [045] (41)
276B  01                 [046] (42)
276C  00                 [047] (42)
276D  00                 [048] (42)
276E  22                 [049] (43)
276F  01                 [050] (43)
2770  00                 [051] (44)
2771  00                 [052] (44)
2772  22                 [053] (45)
2773  01                 [054] (45)
2774  00                 [055] (45)
2775  00                 [056] (45)
2776  22                 [057] (45)
2777  01                 [058] (45)
2778  00                 [059] (45)
2779  00                 [060] (45)
277A  22                 [061] (45)
277B  01                 [062] (45)
277C  00                 [063] (45)
277D  00                 [064] (46)
277E  23                 [065] (46)
277F  01                 [066] (47)
2780  00                 [067] (47)
2781  00                 [068] (49)
2782  26                 [069] (52)
2783  01                 [070] (52)
2784  00                 [071] (52)
2785  00                 [072] (52)
2786  26                 [073] (53)
2787  01                 [074] (53)
2788  00                 [075] (54)
2789  00                 [076] (54)
278A  26                 [077] (54)
278B  01                 [078] (54)
278C  00                 [079] (54)
278D  00                 [080] (54)
278E  26                 [081] (54)
278F  01                 [082] (54)
2790  00                 [083] (54)
2791  00                 [084] (54)
2792  26                 [085] (55)
2793  01                 [086] (55)
2794  00                 [087] (55)
2795  00                 [088] (55)
2796  26                 [089] (55)
2797  01                 [090] (55)
2798  00                 [091] (55)
2799  00                 [092] (55)
279A  26                 [093] (56)
279B  01                 [094] (56)
279C  00                 [095] (56)
279D  00                 [096] (56)
279E  26                 [097] (56)
279F  01                 [098] (56)
27A0  00                 [099] (56)
27A1  00                 [100] (56)
27A2  26                 [101] (56)
27A3  01                 [102] (57)
27A4  00                 [103] (57)
27A5  00                 [104] (57)
27A6  26                 [105] (57)
27A7  01                 [106] (57)
27A8  00                 [107] (57)
27A9  00                 [108] (57)
27AA  26                 [109] (57)
27AB  01                 [110] (57)
27AC  00                 [111] (57)
27AD  00                 [112] (59)
27AE  27                 [113] (59)
27AF  01                 [114] (59)
27B0  00                 [115] (59)
27B1  00                 [116] (59)
27B2  27                 [117] (59)
27B3  01                 [118] (59)
27B4  00                 [119] (59)
27B5  00                 [120] (60)
27B6  27                 [121] (60)
27B7  01                 [122] (60)
27B8  00                 [123] (60)
27B9  00                 [124] (60)
27BA  27                 [125] (60)
27BB  01                 [126] (61)
27BC  00                 [127] (61)
27BD  00                 [128] (61)
27BE  27                 [129] (61)
27BF  01                 [130] (61)
27C0  00                 [131] (61)
27C1  00                 [132] (61)
27C2  27                 [133] (62)
27C3  01                 [134] (62)
27C4  00                 [135] (62)
27C5  00                 [136] (62)
27C6  27                 [137] (62)
27C7  01                 [138] (62)
27C8  00                 [139] (62)
27C9  00                 [140] (65)
27CA  27                 [141] (65)
27CB  01                 [142] (65)
27CC  00                 [143] (65)
27CD  00                 [144] (65)
27CE  27                 [145] (65)
27CF  01                 [146] (65)
27D0  00                 [147] (65)
27D1  00                 [148] (66)
27D2  27                 [149] (66)
27D3  01                 [150] (66)
27D4  00                 [151] (67)
27D5  00                 [152] (67)
27D6  27                 [153] (67)
27D7  01                 [154] (67)
27D8  00                 [155] (67)
27D9  00                 [156] (67)
27DA  28                 [157] (68)
27DB  01                 [158] (68)
27DC  00                 [159] (68)
27DD  00                 [160] (70)
27DE  28                 [161] (70)
27DF  01                 [162] (70)
27E0  00                 [163] (70)
27E1  00                 [164] (70)
27E2  28                 [165] (70)
27E3  01                 [166] (70)
27E4  00                 [167] (70)
27E5  00                 [168] (71)
27E6  29                 [169] (71)
27E7  01                 [170] (71)
27E8  00                 [171] (72)
27E9  00                 [172] (72)
27EA  29                 [173] (72)
27EB  01                 [174] (72)
27EC  00                 [175] (72)
27ED  00                 [176] (72)
27EE  29                 [177] (73)
27EF  01                 [178] (73)
27F0  00                 [179] (73)
27F1  00                 [180] (76)
27F2  2A                 [181] (76)
27F3  01                 [182] (76)
27F4  00                 [183] (76)
27F5  00                 [184] (76)
27F6  2A                 [185] (76)
27F7  01                 [186] (76)
27F8  00                 [187] (76)
27F9  00                 [188] (76)
27FA  2A                 [189] (76)
27FB  01                 [190] (77)
27FC  00                 [191] (77)
27FD  00                 [192] (77)
27FE  2B                 [193] (77)
27FF  01                 [194] (77)
2800  00                 [195] (77)
2801  00                 [196] (77)
2802  2B                 [197] (77)
2803  01                 [198] (77)
2804  00                 [199] (77)
2805  00                 [200] (79)
2806  2C                 [201] (79)
2807  01                 [202] (79)
2808  00                 [203] (79)
2809  00                 [204] (79)
280A  2C                 [205] (79)
280B  01                 [206] (79)
280C  00                 [207] (80)
280D  00                 [208] (80)
280E  2D                 [209] (80)
280F  01                 [210] (80)
2810  00                 [211] (80)
2811  00                 [212] (80)
2812  2D                 [213] (80)
2813  01                 [214] (82)
2814  00                 [215] (82)
2815  00                 [216] (82)
2816  2D                 [217] (82)
2817  01                 [218] (82)
2818  00                 [219] (82)
2819  00                 [220] (82)
281A  2D                 [221] (82)
281B  01                 [222] (82)
281C  00                 [223] (82)
281D  00                 [224] (82)
281E  2D                 [225] (82)
281F  01                 [226] (82)
2820  00                 [227] (82)
2821  00                 [228] (82)
2822  2D                 [229] (82)
2823  01                 [230] (82)
2824  00                 [231] (82)
2825  00                 [232] (82)
2826  2D                 [233] (82)
2827  01                 [234] (82)
2828  00                 [235] (82)
2829  00                 [236] (82)
282A  2D                 [237] (82)
282B  01                 [238] (82)
282C  00                 [239] (82)
282D  00                 [240] (82)
282E  2D                 [241] (83)
282F  01                 [242] (83)
2830  00                 [243] (83)
2831  00                 [244] (83)
2832  2D                 [245] (83)
2833  01                 [246] (83)
2834  00                 [247] (83)
2835  00                 [248] (83)
2836  2D                 [249] (83)
2837  01                 [250] (83)
2838  00                 [251] (83)
2839  00                 [252] (83)
283A  2E                 [253] (83)
283B  01                 [254] (83)
283C  00                 [255] (83)
283D  00                 [256] (83)
283E  2E                 [257] (83)
283F  01                 [258] (83)
2840  00                 [259] (83)
2841  00                 [260] (83)
2842  2F                 [261] (83)
2843  01                 [262] (83)
2844  00                 [263] (83)
2845  00                 [264] (83)
2846  2F                 [265] (83)
2847  01                 [266] (83)
2848  00                 [267] (83)
2849  00                 [268] (84)
284A  31                 [269] (84)
284B  01                 [270] (84)
284C  00                 [271] (84)
284D  00                 [272] (84)
284E  34                 [273] (84)
284F  01                 [274] (84)
2850  00                 [275] (85)
2851  00                 [276] (85)
2852  34                 [277] (85)
2853  01                 [278] (85)
2854  00                 [279] (85)
2855  00                 [280] (85)
2856  34                 [281] (85)
2857  01                 [282] (86)
2858  00                 [283] (86)
2859  00                 [284] (88)
                         * locals:
2BAE  00                 sizelocvars (0)
                         * upvalues:
2BAF  00                 sizeupvalues (0)
                         ** end of function **

                         
2BB0                     ** function [17] definition (level 2)
                         ** start of function **
2BB0  00                 string size (0)
                         source name: (none)
2BB2  02                 line defined (346)
2BB3  E4                 last line defined (356)
2BB4  02                 nups (6)
2BB5  06                 numparams (2)
2BB6  02                 is_vararg (0)
2BB7  00                 maxstacksize (9)
                         * code:
2BB9  23                 sizecode (35)
2BBA  93000000           [01] getupval   2   0      
2BBE  8E004001           [02] gettable   2   2   256  ; "mCurVal"
2BC2  D3008000           [03] getupval   3   1      
2BC6  E440C001           [04] self       3   3   257  ; 676586031
2BCA  E2800001           [05] call       3   2   2  
2BCE  C4808001           [06] mul        3   3   2  
2BD2  13010001           [07] getupval   4   2      
2BD6  24814002           [08] self       4   4   258  ; 1839670529
2BDA  22810001           [09] call       4   2   2  
2BDE  4EC14002           [10] gettable   5   4   259  ; "x"
2BE2  93018001           [11] getupval   6   3      
2BE6  9C014103           [12] div        6   6   260  ; 0
2BEA  8D810100           [13] sub        6   0   6  
2BEE  D3010002           [14] getupval   7   4      
2BF2  CE41C103           [15] gettable   7   7   261  ; "mCurrentCoords"
2BF6  CEC1C003           [16] gettable   7   7   259  ; "x"
2BFA  C4818003           [17] mul        7   7   2  
2BFE  8DC10103           [18] sub        6   6   7  
2C02  9CC10003           [19] div        6   6   3  
2C06  43818102           [20] add        5   5   6  
2C0A  8E814102           [21] gettable   6   4   262  ; "z"
2C0E  D3018002           [22] getupval   7   5      
2C12  DC01C103           [23] div        7   7   260  ; 0
2C16  CDC18100           [24] sub        7   1   7  
2C1A  13020002           [25] getupval   8   4      
2C1E  0E424104           [26] gettable   8   8   261  ; "mCurrentCoords"
2C22  0EC24104           [27] gettable   8   8   263  ; "y"
2C26  04820004           [28] mul        8   8   2  
2C2A  CD018203           [29] sub        7   7   8  
2C2E  DCC18003           [30] div        7   7   3  
2C32  8DC10103           [31] sub        6   6   7  
2C36  D2018002           [32] move       7   5      
2C3A  12020003           [33] move       8   6      
2C3E  DE018001           [34] return     7   3      
2C42  1E008000           [35] return     0   1      
                         * constants:
2C46  08                 sizek (8)
2C47  04                 const type 4
2C48  08                 string size (8)
2C49  6D43757256616C00   "mCurVal\0"
                         const [0]: "mCurVal"
2C51  01                 const type 3
2C52  2FE25328           const [1]: (676586031)
2C56  01                 const type 3
2C57  0125A76D           const [2]: (1839670529)
2C5B  04                 const type 4
2C5C  02                 string size (2)
2C5D  7800               "x\0"
                         const [3]: "x"
2C5F  03                 const type 3
2C60  00000040           const [4]: (0)
2C64  04                 const type 4
2C65  0F                 string size (15)
2C66  6D43757272656E74+  "mCurrent"
2C6E  436F6F72647300     "Coords\0"
                         const [5]: "mCurrentCoords"
2C75  04                 const type 4
2C76  02                 string size (2)
2C77  7A00               "z\0"
                         const [6]: "z"
2C79  04                 const type 4
2C7A  02                 string size (2)
2C7B  7900               "y\0"
                         const [7]: "y"
                         * functions:
2C7D  00                 sizep (0)
                         * lines:
2C7E  23                 sizelineinfo (35)
                         [pc] (line)
2C7F  5B                 [01] (91)
2C80  01                 [02] (91)
2C81  00                 [03] (92)
2C82  00                 [04] (92)
2C83  5B                 [05] (92)
2C84  01                 [06] (92)
2C85  00                 [07] (94)
2C86  00                 [08] (94)
2C87  5C                 [09] (94)
2C88  01                 [10] (96)
2C89  00                 [11] (96)
2C8A  00                 [12] (96)
2C8B  5C                 [13] (96)
2C8C  01                 [14] (96)
2C8D  00                 [15] (96)
2C8E  00                 [16] (96)
2C8F  5C                 [17] (96)
2C90  01                 [18] (96)
2C91  00                 [19] (96)
2C92  00                 [20] (96)
2C93  5C                 [21] (97)
2C94  01                 [22] (97)
2C95  00                 [23] (97)
2C96  00                 [24] (97)
2C97  5E                 [25] (97)
2C98  01                 [26] (97)
2C99  00                 [27] (97)
2C9A  00                 [28] (97)
2C9B  5E                 [29] (97)
2C9C  01                 [30] (97)
2C9D  00                 [31] (97)
2C9E  00                 [32] (99)
2C9F  5E                 [33] (99)
2CA0  01                 [34] (99)
2CA1  00                 [35] (100)
                         * locals:
2D0B  00                 sizelocvars (0)
                         * upvalues:
2D0C  00                 sizeupvalues (0)
                         ** end of function **

                         
2D0D                     ** function [18] definition (level 2)
                         ** start of function **
2D0D  00                 string size (0)
                         source name: (none)
2D0F  02                 line defined (358)
2D10  90                 last line defined (400)
2D11  03                 nups (12)
2D12  0C                 numparams (0)
2D13  00                 is_vararg (0)
2D14  00                 maxstacksize (6)
                         * code:
2D16  5D                 sizecode (93)
2D17  1D000000           [01] getglobal  0   0        ; 1074689893
2D1B  5D400000           [02] getglobal  1   1        ; gRegion
2D1F  22800001           [03] call       0   2   2  
2D23  18400000           [04] test       0       1    ; to [6] if false
2D27  1A000680           [05] jmp        25           ; to [31]
2D2B  1D400000           [06] getglobal  0   1        ; gRegion
2D2F  24804000           [07] self       0   0   258  ; -1280573509
2D33  22800001           [08] call       0   2   2  
2D37  5D000000           [09] getglobal  1   0        ; 1074689893
2D3B  92000000           [10] move       2   0      
2D3F  62800001           [11] call       1   2   2  
2D43  58400000           [12] test       1       1    ; to [14] if false
2D47  1A000480           [13] jmp        17           ; to [31]
2D4B  5D000000           [14] getglobal  1   0        ; 1074689893
2D4F  8EC04000           [15] gettable   2   0   259  ; 0
2D53  62800001           [16] call       1   2   2  
2D57  58400000           [17] test       1       1    ; to [19] if false
2D5B  1AC00280           [18] jmp        12           ; to [31]
2D5F  4EC04000           [19] gettable   1   0   259  ; 0
2D63  6400C100           [20] self       1   1   260  ; -2135866365
2D67  62800001           [21] call       1   2   2  
fail op	8
2D6B  48000000           [22] setupval   1   0      
2D6F  53000000           [23] getupval   1   0      
2D73  6440C100           [24] self       1   1   261  ; -564624675
2D77  62800001           [25] call       1   2   2  
fail op	8
2D7B  48008000           [26] setupval   1   1      
2D7F  53008000           [27] getupval   1   1      
2D83  6480C100           [28] self       1   1   262  ; -1704783487
2D87  62800001           [29] call       1   2   2  
fail op	8
2D8B  48000001           [30] setupval   1   2      
2D8F  5D000000           [31] getglobal  1   0        ; 1074689893
2D93  93000000           [32] getupval   2   0      
2D97  62800001           [33] call       1   2   2  
2D9B  58000000           [34] test       1       0    ; to [36] if true
2D9F  1A400180           [35] jmp        6            ; to [42]
2DA3  5DC00100           [36] getglobal  1   7        ; -1817107093
2DA7  99000200           [37] loadk      2   8        ; "ERROR: No avatar found!"
2DAB  62400001           [38] call       1   2   1  
2DAF  5D400200           [39] getglobal  1   9        ; 317968122
2DB3  97000000           [40] loadbool   2   0   0    ; false
2DB7  62400001           [41] call       1   2   1  
2DBB  5D800200           [42] getglobal  1   10       ; gGameRules
2DBF  9D000000           [43] getglobal  2   0        ; 1074689893
2DC3  D2008000           [44] move       3   1      
2DC7  A2800001           [45] call       2   2   2  
2DCB  98400000           [46] test       2       1    ; to [48] if false
2DCF  1A400180           [47] jmp        6            ; to [54]
2DD3  A4C0C200           [48] self       2   1   267  ; 2081656303
2DD7  A2800001           [49] call       2   2   2  
fail op	8
2DDB  88008001           [50] setupval   2   3      
2DDF  A400C300           [51] self       2   1   268  ; -60115649
2DE3  A2800001           [52] call       2   2   2  
fail op	8
2DE7  88000002           [53] setupval   2   4      
2DEB  93008002           [54] getupval   2   5      
2DEF  A2408000           [55] call       2   1   1  
2DF3  9D000000           [56] getglobal  2   0        ; 1074689893
2DF7  DD400300           [57] getglobal  3   13       ; gPlayerProfileMgr
2DFB  E480C301           [58] self       3   3   270  ; 569342746
2DFF  59C10300           [59] loadk      5   15       ; 0
2E03  E2008001           [60] call       3   3   0  
2E07  A2800000           [61] call       2   0   2  
2E0B  98400000           [62] test       2       1    ; to [64] if false
2E0F  1A400280           [63] jmp        10           ; to [74]
2E13  9D000400           [64] getglobal  2   16       ; -1799570112
2E17  DD400300           [65] getglobal  3   13       ; gPlayerProfileMgr
2E1B  E480C301           [66] self       3   3   270  ; 569342746
2E1F  59C10300           [67] loadk      5   15       ; 0
2E23  E2808001           [68] call       3   3   2  
2E27  E440C401           [69] self       3   3   273  ; 1699680402
2E2B  E2800001           [70] call       3   2   2  
2E2F  19810400           [71] loadk      4   18       ; "OnProfileSaved"
2E33  A2408001           [72] call       2   3   1  
2E37  1A800080           [73] jmp        3            ; to [77]
2E3B  9DC00100           [74] getglobal  2   7        ; -1817107093
2E3F  D9C00400           [75] loadk      3   19       ; "InitOnValidAvatarPlayer: no playerProfile"
2E43  A2400001           [76] call       2   2   1  
2E47  93000003           [77] getupval   2   6      
2E4B  A2408000           [78] call       2   1   1  
2E4F  93000000           [79] getupval   2   0      
2E53  A4404101           [80] self       2   2   261  ; -564624675
2E57  A2800001           [81] call       2   2   2  
2E5B  A4004501           [82] self       2   2   276  ; -278808677
2E5F  A2800001           [83] call       2   2   2  
fail op	8
2E63  88008003           [84] setupval   2   7      
2E67  93000004           [85] getupval   2   8      
2E6B  A2408000           [86] call       2   1   1  
2E6F  93008004           [87] getupval   2   9      
2E73  A2408000           [88] call       2   1   1  
2E77  93000005           [89] getupval   2   10     
2E7B  A2408000           [90] call       2   1   1  
2E7F  97008000           [91] loadbool   2   1   0    ; true
fail op	8
2E83  88008005           [92] setupval   2   11     
2E87  1E008000           [93] return     0   1      
                         * constants:
2E8B  15                 sizek (21)
2E8C  01                 const type 3
2E8D  65770E40           const [0]: (1074689893)
2E91  04                 const type 4
2E92  08                 string size (8)
2E93  67526567696F6E00   "gRegion\0"
                         const [1]: "gRegion"
2E9B  01                 const type 3
2E9C  BBFFABB3           const [2]: (-1280573509)
2EA0  03                 const type 3
2EA1  0000803F           const [3]: (0)
2EA5  01                 const type 3
2EA6  0344B180           const [4]: (-2135866365)
2EAA  01                 const type 3
2EAB  DD8258DE           const [5]: (-564624675)
2EAF  01                 const type 3
2EB0  8111639A           const [6]: (-1704783487)
2EB4  01                 const type 3
2EB5  6B25B193           const [7]: (-1817107093)
2EB9  04                 const type 4
2EBA  18                 string size (24)
2EBB  4552524F523A204E+  "ERROR: N"
2EC3  6F20617661746172+  "o avatar"
2ECB  20666F756E642100   " found!\0"
                         const [8]: "ERROR: No avatar found!"
2ED3  01                 const type 3
2ED4  FACEF312           const [9]: (317968122)
2ED8  04                 const type 4
2ED9  0B                 string size (11)
2EDA  6747616D6552756C+  "gGameRul"
2EE2  657300             "es\0"
                         const [10]: "gGameRules"
2EE5  01                 const type 3
2EE6  EF8D137C           const [11]: (2081656303)
2EEA  01                 const type 3
2EEB  3FB56AFC           const [12]: (-60115649)
2EEF  04                 const type 4
2EF0  12                 string size (18)
2EF1  67506C6179657250+  "gPlayerP"
2EF9  726F66696C654D67+  "rofileMg"
2F01  7200               "r\0"
                         const [13]: "gPlayerProfileMgr"
2F03  01                 const type 3
2F04  1A7BEF21           const [14]: (569342746)
2F08  03                 const type 3
2F09  00000000           const [15]: (0)
2F0D  01                 const type 3
2F0E  40BDBC94           const [16]: (-1799570112)
2F12  01                 const type 3
2F13  92104F65           const [17]: (1699680402)
2F17  04                 const type 4
2F18  0F                 string size (15)
2F19  4F6E50726F66696C+  "OnProfil"
2F21  65536176656400     "eSaved\0"
                         const [18]: "OnProfileSaved"
2F28  04                 const type 4
2F29  2A                 string size (42)
2F2A  496E69744F6E5661+  "InitOnVa"
2F32  6C69644176617461+  "lidAvata"
2F3A  72506C617965723A+  "rPlayer:"
2F42  206E6F20706C6179+  " no play"
2F4A  657250726F66696C+  "erProfil"
2F52  6500               "e\0"
                         const [19]: "InitOnValidAvatarPlayer: no playerProfile"
2F54  01                 const type 3
2F55  9BB761EF           const [20]: (-278808677)
                         * functions:
2F59  00                 sizep (0)
                         * lines:
2F5A  5D                 sizelineinfo (93)
                         [pc] (line)
2F5B  68                 [01] (104)
2F5C  01                 [02] (104)
2F5D  00                 [03] (104)
2F5E  00                 [04] (104)
2F5F  68                 [05] (104)
2F60  01                 [06] (105)
2F61  00                 [07] (105)
2F62  00                 [08] (105)
2F63  68                 [09] (106)
2F64  01                 [10] (106)
2F65  00                 [11] (106)
2F66  00                 [12] (106)
2F67  68                 [13] (106)
2F68  01                 [14] (106)
2F69  00                 [15] (106)
2F6A  00                 [16] (106)
2F6B  68                 [17] (106)
2F6C  01                 [18] (106)
2F6D  00                 [19] (107)
2F6E  00                 [20] (107)
2F6F  69                 [21] (107)
2F70  01                 [22] (107)
2F71  00                 [23] (108)
2F72  00                 [24] (108)
2F73  69                 [25] (108)
2F74  01                 [26] (108)
2F75  00                 [27] (109)
2F76  00                 [28] (109)
2F77  69                 [29] (109)
2F78  01                 [30] (109)
2F79  00                 [31] (113)
2F7A  00                 [32] (113)
2F7B  6A                 [33] (113)
2F7C  01                 [34] (113)
2F7D  00                 [35] (113)
2F7E  00                 [36] (114)
2F7F  6A                 [37] (114)
2F80  01                 [38] (114)
2F81  00                 [39] (115)
2F82  00                 [40] (115)
2F83  6A                 [41] (115)
2F84  01                 [42] (118)
2F85  00                 [43] (119)
2F86  00                 [44] (119)
2F87  6A                 [45] (119)
2F88  01                 [46] (119)
2F89  00                 [47] (119)
2F8A  00                 [48] (120)
2F8B  6A                 [49] (120)
2F8C  01                 [50] (120)
2F8D  00                 [51] (121)
2F8E  00                 [52] (121)
2F8F  6A                 [53] (121)
2F90  01                 [54] (124)
2F91  00                 [55] (124)
2F92  00                 [56] (127)
2F93  6A                 [57] (127)
2F94  01                 [58] (127)
2F95  00                 [59] (127)
2F96  00                 [60] (127)
2F97  6A                 [61] (127)
2F98  01                 [62] (127)
2F99  00                 [63] (127)
2F9A  00                 [64] (-128)
2F9B  6A                 [65] (-128)
2F9C  01                 [66] (-128)
2F9D  00                 [67] (-128)
2F9E  00                 [68] (-128)
2F9F  6A                 [69] (-128)
2FA0  01                 [70] (-128)
2FA1  00                 [71] (-128)
2FA2  00                 [72] (-128)
2FA3  6B                 [73] (-128)
2FA4  01                 [74] (-126)
2FA5  00                 [75] (-126)
2FA6  00                 [76] (-126)
2FA7  6B                 [77] (-123)
2FA8  01                 [78] (-123)
2FA9  00                 [79] (-121)
2FAA  00                 [80] (-121)
2FAB  6B                 [81] (-121)
2FAC  01                 [82] (-121)
2FAD  00                 [83] (-121)
2FAE  00                 [84] (-121)
2FAF  6B                 [85] (-119)
2FB0  01                 [86] (-119)
2FB1  00                 [87] (-117)
2FB2  00                 [88] (-117)
2FB3  6C                 [89] (-115)
2FB4  01                 [90] (-115)
2FB5  00                 [91] (-113)
2FB6  00                 [92] (-113)
2FB7  6C                 [93] (-112)
                         * locals:
30CF  00                 sizelocvars (0)
                         * upvalues:
30D0  00                 sizeupvalues (0)
                         ** end of function **

                         
30D1                     ** function [19] definition (level 2)
                         ** start of function **
30D1  00                 string size (0)
                         source name: (none)
30D3  03                 line defined (402)
30D4  97                 last line defined (407)
30D5  03                 nups (1)
30D6  01                 numparams (0)
30D7  00                 is_vararg (0)
30D8  00                 maxstacksize (7)
                         * code:
30DA  11                 sizecode (17)
30DB  13000000           [01] getupval   0   0      
30DF  0E004000           [02] gettable   0   0   256  ; -363423447
30E3  5D400000           [03] getglobal  1   1        ; mMovie
30E7  22C00001           [04] call       0   2   3  
30EB  9D400000           [05] getglobal  2   1        ; mMovie
30EF  A4804001           [06] self       2   2   258  ; 471456102
30F3  19C10000           [07] loadk      4   3        ; "Blurer"
30F7  59010100           [08] loadk      5   4        ; "_width"
30FB  92010000           [09] move       6   0      
30FF  A2408002           [10] call       2   5   1  
3103  9D400000           [11] getglobal  2   1        ; mMovie
3107  A4804001           [12] self       2   2   258  ; 471456102
310B  19C10000           [13] loadk      4   3        ; "Blurer"
310F  59410100           [14] loadk      5   5        ; "_height"
3113  92018000           [15] move       6   1      
3117  A2408002           [16] call       2   5   1  
311B  1E008000           [17] return     0   1      
                         * constants:
311F  06                 sizek (6)
3120  01                 const type 3
3121  299956EA           const [0]: (-363423447)
3125  04                 const type 4
3126  07                 string size (7)
3127  6D4D6F76696500     "mMovie\0"
                         const [1]: "mMovie"
312E  01                 const type 3
312F  66D9191C           const [2]: (471456102)
3133  04                 const type 4
3134  07                 string size (7)
3135  426C7572657200     "Blurer\0"
                         const [3]: "Blurer"
313C  04                 const type 4
313D  07                 string size (7)
313E  5F776964746800     "_width\0"
                         const [4]: "_width"
3145  04                 const type 4
3146  08                 string size (8)
3147  5F68656967687400   "_height\0"
                         const [5]: "_height"
                         * functions:
314F  00                 sizep (0)
                         * lines:
3150  11                 sizelineinfo (17)
                         [pc] (line)
3151  93                 [01] (-109)
3152  01                 [02] (-109)
3153  00                 [03] (-109)
3154  00                 [04] (-109)
3155  93                 [05] (-107)
3156  01                 [06] (-107)
3157  00                 [07] (-107)
3158  00                 [08] (-107)
3159  93                 [09] (-107)
315A  01                 [10] (-107)
315B  00                 [11] (-106)
315C  00                 [12] (-106)
315D  93                 [13] (-106)
315E  01                 [14] (-106)
315F  00                 [15] (-106)
3160  00                 [16] (-106)
3161  95                 [17] (-105)
                         * locals:
3195  00                 sizelocvars (0)
                         * upvalues:
3196  00                 sizeupvalues (0)
                         ** end of function **

                         
3197                     ** function [20] definition (level 2)
                         ** start of function **
3197  00                 string size (0)
                         source name: (none)
3199  03                 line defined (409)
319A  C2                 last line defined (450)
319B  03                 nups (10)
319C  0A                 numparams (0)
319D  00                 is_vararg (0)
319E  00                 maxstacksize (8)
                         * code:
31A1  01                 sizecode (158)
31A2  1D000000           [001] getglobal  0   0        ; 849075268
31A6  59400000           [002] loadk      1   1        ; "Lotus.Interface.Libs.TimerMgr"
31AA  22800001           [003] call       0   2   2  
31AE  4E804000           [004] gettable   1   0   258  ; -1029178688
31B2  62808000           [005] call       1   1   2  
fail op	8
31B6  48000000           [006] setupval   1   0      
31BA  53000001           [007] getupval   1   2      
31BE  4EC0C000           [008] gettable   1   1   259  ; 1191123516
31C2  9D000100           [009] getglobal  2   4        ; mMovie
31C6  62800001           [010] call       1   2   2  
fail op	8
31CA  48008000           [011] setupval   1   1      
31CE  53008000           [012] getupval   1   1      
31D2  6440C100           [013] self       1   1   261  ; -1716902634
31D6  DD000100           [014] getglobal  3   4        ; mMovie
31DA  19810100           [015] loadk      4   6        ; "TimeOfDay"
31DE  4B010001           [016] newtable   5   2   0    ; array=2, hash=0
31E2  93018000           [017] getupval   6   1      
31E6  8EC14103           [018] gettable   6   6   263  ; "ANCHOR_V_BOTTOM"
31EA  D3018000           [019] getupval   7   1      
31EE  CE01C203           [020] gettable   7   7   264  ; "ANCHOR_H_RIGHT"
31F2  5B410001           [021] setlist    5   2   1    ; index 1 to 2
31F6  62408002           [022] call       1   5   1  
31FA  53008000           [023] getupval   1   1      
31FE  6440C100           [024] self       1   1   261  ; -1716902634
3202  DD000100           [025] getglobal  3   4        ; mMovie
3206  19410200           [026] loadk      4   9        ; "MapHint"
320A  4B018000           [027] newtable   5   1   0    ; array=1, hash=0
320E  93018000           [028] getupval   6   1      
3212  8EC14103           [029] gettable   6   6   263  ; "ANCHOR_V_BOTTOM"
3216  5B418000           [030] setlist    5   1   1    ; index 1 to 1
321A  62408002           [031] call       1   5   1  
321E  53008000           [032] getupval   1   1      
3222  6480C200           [033] self       1   1   266  ; -1938777623
3226  DD000100           [034] getglobal  3   4        ; mMovie
322A  E4C0C201           [035] self       3   3   267  ; -174729759
322E  E2800001           [036] call       3   2   2  
3232  1D010100           [037] getglobal  4   4        ; mMovie
3236  24014302           [038] self       4   4   268  ; -301556379
323A  22010001           [039] call       4   2   0  
323E  62400000           [040] call       1   0   1  
3242  5D000100           [041] getglobal  1   4        ; mMovie
3246  6440C300           [042] self       1   1   269  ; -203345184
324A  62800001           [043] call       1   2   2  
fail op	8
324E  48008001           [044] setupval   1   3      
3252  5D000100           [045] getglobal  1   4        ; mMovie
3256  6480C300           [046] self       1   1   270  ; 1754893949
325A  62800001           [047] call       1   2   2  
fail op	8
325E  48000002           [048] setupval   1   4      
3262  5D000100           [049] getglobal  1   4        ; mMovie
3266  64C0C300           [050] self       1   1   271  ; -630242850
326A  D7008000           [051] loadbool   3   1   0    ; true
326E  62408001           [052] call       1   3   1  
3272  5D000100           [053] getglobal  1   4        ; mMovie
3276  6400C400           [054] self       1   1   272  ; 471456102
327A  D9400400           [055] loadk      3   17       ; "_root"
327E  19810400           [056] loadk      4   18       ; "_alpha"
3282  59C10400           [057] loadk      5   19       ; 0
3286  62408002           [058] call       1   5   1  
328A  5D000100           [059] getglobal  1   4        ; mMovie
328E  6400C400           [060] self       1   1   272  ; 471456102
3292  D9400400           [061] loadk      3   17       ; "_root"
3296  19010500           [062] loadk      4   20       ; "_z"
329A  59410500           [063] loadk      5   21       ; 0
329E  62408002           [064] call       1   5   1  
32A2  5D000100           [065] getglobal  1   4        ; mMovie
32A6  6400C400           [066] self       1   1   272  ; 471456102
32AA  D9800500           [067] loadk      3   22       ; "Reticle"
32AE  19C10500           [068] loadk      4   23       ; "_visible"
32B2  57010000           [069] loadbool   5   0   0    ; false
32B6  62408002           [070] call       1   5   1  
32BA  5D000100           [071] getglobal  1   4        ; mMovie
32BE  6400C400           [072] self       1   1   272  ; 471456102
32C2  D9800100           [073] loadk      3   6        ; "TimeOfDay"
32C6  19810400           [074] loadk      4   18       ; "_alpha"
32CA  59C10400           [075] loadk      5   19       ; 0
32CE  62408002           [076] call       1   5   1  
32D2  5D000100           [077] getglobal  1   4        ; mMovie
32D6  6400C400           [078] self       1   1   272  ; 471456102
32DA  D9000600           [079] loadk      3   24       ; "Blurer"
32DE  19810400           [080] loadk      4   18       ; "_alpha"
32E2  59C10400           [081] loadk      5   19       ; 0
32E6  62408002           [082] call       1   5   1  
32EA  53008002           [083] getupval   1   5      
32EE  62408000           [084] call       1   1   1  
32F2  53000003           [085] getupval   1   6      
32F6  4E40C600           [086] gettable   1   1   281  ; -1434426343
32FA  62808000           [087] call       1   1   2  
32FE  9D800600           [088] getglobal  2   26       ; 1074689893
3302  DDC00600           [089] getglobal  3   27       ; mapDayNightSky
3306  CE408001           [090] gettable   3   3   1  
330A  A2800001           [091] call       2   2   2  
330E  98400000           [092] test       2       1    ; to [94] if false
3312  1AC00580           [093] jmp        24           ; to [118]
3316  9D000100           [094] getglobal  2   4        ; mMovie
331A  A4004701           [095] self       2   2   284  ; 643307062
331E  19410700           [096] loadk      4   29       ; "TimeOfDay.DayNight"
3322  5DC10600           [097] getglobal  5   27       ; mapDayNightSky
3326  4E418002           [098] gettable   5   5   1  
332A  A2400002           [099] call       2   4   1  
332E  9D000100           [100] getglobal  2   4        ; mMovie
3332  A4004701           [101] self       2   2   284  ; 643307062
3336  19810700           [102] loadk      4   30       ; "TimeOfDay.DayNightcycler"
333A  5DC10700           [103] getglobal  5   31       ; mapDayNightCycler
333E  4E418002           [104] gettable   5   5   1  
3342  A2400002           [105] call       2   4   1  
3346  9D000100           [106] getglobal  2   4        ; mMovie
334A  A4004401           [107] self       2   2   272  ; 471456102
334E  19010800           [108] loadk      4   32       ; "TimeOfDay.Label"
3352  59C10500           [109] loadk      5   23       ; "_visible"
3356  9D410800           [110] getglobal  6   33       ; showMaplabels
335A  8E410003           [111] gettable   6   6   1  
335E  A2408002           [112] call       2   5   1  
fail op	35
3362  2380C800           [113] close      0  
3366  1A800080           [114] jmp        3            ; to [118]
336A  93000003           [115] getupval   2   6      
336E  8EC04801           [116] gettable   2   2   291  ; "ORB_VALLIS_NODE_TAG"
fail op	8
3372  88008003           [117] setupval   2   7      
3376  9D000100           [118] getglobal  2   4        ; mMovie
337A  A4004401           [119] self       2   2   272  ; 471456102
337E  19010900           [120] loadk      4   36       ; "MiniMapContainer.MiniMapMarkers.Marker1"
3382  59810400           [121] loadk      5   18       ; "_alpha"
3386  99C10400           [122] loadk      6   19       ; 0
338A  A2408002           [123] call       2   5   1  
338E  9D000100           [124] getglobal  2   4        ; mMovie
3392  A4004401           [125] self       2   2   272  ; 471456102
3396  19410200           [126] loadk      4   9        ; "MapHint"
339A  59810400           [127] loadk      5   18       ; "_alpha"
339E  99C10400           [128] loadk      6   19       ; 0
33A2  A2408002           [129] call       2   5   1  
33A6  9D000100           [130] getglobal  2   4        ; mMovie
33AA  A4404901           [131] self       2   2   293  ; 386043535
33AE  19810900           [132] loadk      4   38       ; "MapHint.text"
33B2  59C10900           [133] loadk      5   39       ; "/Lotus/Language/Menu/AdvancedMapHint"
33B6  A2400002           [134] call       2   4   1  
33BA  9D000A00           [135] getglobal  2   40       ; -1939558487
33BE  DD000100           [136] getglobal  3   4        ; mMovie
33C2  19410A00           [137] loadk      4   41       ; "MiniMapContainer.MiniMapMarkers.PlayerArrow.swapDepths"
33C6  59810A00           [138] loadk      5   42       ; 0
33CA  A2400002           [139] call       2   4   1  
33CE  9D800600           [140] getglobal  2   26       ; 1074689893
33D2  DDC00A00           [141] getglobal  3   43       ; gGameRules
33D6  A2800001           [142] call       2   2   2  
33DA  98400000           [143] test       2       1    ; to [145] if false
33DE  1AC00180           [144] jmp        8            ; to [153]
33E2  9DC00A00           [145] getglobal  2   43       ; gGameRules
33E6  A4004B01           [146] self       2   2   300  ; -1201441975
33EA  A2800001           [147] call       2   2   2  
33EE  8E404B01           [148] gettable   2   2   301  ; "missionType"
33F2  DD800B00           [149] getglobal  3   46       ; Lotus_Game
33F6  CEC0CB01           [150] gettable   3   3   303  ; "MT_LANDSCAPE"
fail op	35
33FA  63C00001           [151] close      1  
33FE  1A000080           [152] jmp        1            ; to [154]
3402  97400000           [153] loadbool   2   0   1    ; false, to [155]
3406  97008000           [154] loadbool   2   1   0    ; true
fail op	8
340A  88000004           [155] setupval   2   8      
340E  97008000           [156] loadbool   2   1   0    ; true
fail op	8
3412  88008004           [157] setupval   2   9      
3416  1E008000           [158] return     0   1      
                         * constants:
341A  30                 sizek (48)
341B  01                 const type 3
341C  44DC9B32           const [0]: (849075268)
3420  04                 const type 4
3421  1E                 string size (30)
3422  4C6F7475732E496E+  "Lotus.In"
342A  746572666163652E+  "terface."
3432  4C6962732E54696D+  "Libs.Tim"
343A  65724D677200       "erMgr\0"
                         const [1]: "Lotus.Interface.Libs.TimerMgr"
3440  01                 const type 3
3441  C0FAA7C2           const [2]: (-1029178688)
3445  01                 const type 3
3446  3C1AFF46           const [3]: (1191123516)
344A  04                 const type 4
344B  07                 string size (7)
344C  6D4D6F76696500     "mMovie\0"
                         const [4]: "mMovie"
3453  01                 const type 3
3454  1625AA99           const [5]: (-1716902634)
3458  04                 const type 4
3459  0A                 string size (10)
345A  54696D654F664461+  "TimeOfDa"
3462  7900               "y\0"
                         const [6]: "TimeOfDay"
3464  04                 const type 4
3465  10                 string size (16)
3466  414E43484F525F56+  "ANCHOR_V"
346E  5F424F54544F4D00   "_BOTTOM\0"
                         const [7]: "ANCHOR_V_BOTTOM"
3476  04                 const type 4
3477  0F                 string size (15)
3478  414E43484F525F48+  "ANCHOR_H"
3480  5F524947485400     "_RIGHT\0"
                         const [8]: "ANCHOR_H_RIGHT"
3487  04                 const type 4
3488  08                 string size (8)
3489  4D617048696E7400   "MapHint\0"
                         const [9]: "MapHint"
3491  01                 const type 3
3492  E999708C           const [10]: (-1938777623)
3496  01                 const type 3
3497  E1D595F5           const [11]: (-174729759)
349B  01                 const type 3
349C  659D06EE           const [12]: (-301556379)
34A0  01                 const type 3
34A1  E032E1F3           const [13]: (-203345184)
34A5  01                 const type 3
34A6  7D8E9968           const [14]: (1754893949)
34AA  01                 const type 3
34AB  DE416FDA           const [15]: (-630242850)
34AF  01                 const type 3
34B0  66D9191C           const [16]: (471456102)
34B4  04                 const type 4
34B5  06                 string size (6)
34B6  5F726F6F7400       "_root\0"
                         const [17]: "_root"
34BC  04                 const type 4
34BD  07                 string size (7)
34BE  5F616C70686100     "_alpha\0"
                         const [18]: "_alpha"
34C5  03                 const type 3
34C6  00000000           const [19]: (0)
34CA  04                 const type 4
34CB  03                 string size (3)
34CC  5F7A00             "_z\0"
                         const [20]: "_z"
34CF  03                 const type 3
34D0  00606AC6           const [21]: (0)
34D4  04                 const type 4
34D5  08                 string size (8)
34D6  52657469636C6500   "Reticle\0"
                         const [22]: "Reticle"
34DE  04                 const type 4
34DF  09                 string size (9)
34E0  5F76697369626C65+  "_visible"
34E8  00                 "\0"
                         const [23]: "_visible"
34E9  04                 const type 4
34EA  07                 string size (7)
34EB  426C7572657200     "Blurer\0"
                         const [24]: "Blurer"
34F2  01                 const type 3
34F3  196480AA           const [25]: (-1434426343)
34F7  01                 const type 3
34F8  65770E40           const [26]: (1074689893)
34FC  04                 const type 4
34FD  0F                 string size (15)
34FE  6D61704461794E69+  "mapDayNi"
3506  676874536B7900     "ghtSky\0"
                         const [27]: "mapDayNightSky"
350D  01                 const type 3
350E  36165826           const [28]: (643307062)
3512  04                 const type 4
3513  13                 string size (19)
3514  54696D654F664461+  "TimeOfDa"
351C  792E4461794E6967+  "y.DayNig"
3524  687400             "ht\0"
                         const [29]: "TimeOfDay.DayNight"
3527  04                 const type 4
3528  19                 string size (25)
3529  54696D654F664461+  "TimeOfDa"
3531  792E4461794E6967+  "y.DayNig"
3539  68746379636C6572+  "htcycler"
3541  00                 "\0"
                         const [30]: "TimeOfDay.DayNightcycler"
3542  04                 const type 4
3543  12                 string size (18)
3544  6D61704461794E69+  "mapDayNi"
354C  6768744379636C65+  "ghtCycle"
3554  7200               "r\0"
                         const [31]: "mapDayNightCycler"
3556  04                 const type 4
3557  10                 string size (16)
3558  54696D654F664461+  "TimeOfDa"
3560  792E4C6162656C00   "y.Label\0"
                         const [32]: "TimeOfDay.Label"
3568  04                 const type 4
3569  0E                 string size (14)
356A  73686F774D61706C+  "showMapl"
3572  6162656C7300       "abels\0"
                         const [33]: "showMaplabels"
3578  03                 const type 3
3579  00004040           const [34]: (0)
357D  04                 const type 4
357E  14                 string size (20)
357F  4F52425F56414C4C+  "ORB_VALL"
3587  49535F4E4F44455F+  "IS_NODE_"
358F  54414700           "TAG\0"
                         const [35]: "ORB_VALLIS_NODE_TAG"
3593  04                 const type 4
3594  28                 string size (40)
3595  4D696E694D617043+  "MiniMapC"
359D  6F6E7461696E6572+  "ontainer"
35A5  2E4D696E694D6170+  ".MiniMap"
35AD  4D61726B6572732E+  "Markers."
35B5  4D61726B65723100   "Marker1\0"
                         const [36]: "MiniMapContainer.MiniMapMarkers.Marker1"
35BD  01                 const type 3
35BE  8F8E0217           const [37]: (386043535)
35C2  04                 const type 4
35C3  0D                 string size (13)
35C4  4D617048696E742E+  "MapHint."
35CC  7465787400         "text\0"
                         const [38]: "MapHint.text"
35D1  04                 const type 4
35D2  25                 string size (37)
35D3  2F4C6F7475732F4C+  "/Lotus/L"
35DB  616E67756167652F+  "anguage/"
35E3  4D656E752F416476+  "Menu/Adv"
35EB  616E6365644D6170+  "ancedMap"
35F3  48696E7400         "Hint\0"
                         const [39]: "/Lotus/Language/Menu/AdvancedMapHint"
35F8  01                 const type 3
35F9  A9AF648C           const [40]: (-1939558487)
35FD  04                 const type 4
35FE  37                 string size (55)
35FF  4D696E694D617043+  "MiniMapC"
3607  6F6E7461696E6572+  "ontainer"
360F  2E4D696E694D6170+  ".MiniMap"
3617  4D61726B6572732E+  "Markers."
361F  506C617965724172+  "PlayerAr"
3627  726F772E73776170+  "row.swap"
362F  44657074687300     "Depths\0"
                         const [41]: "MiniMapContainer.MiniMapMarkers.PlayerArrow.swapDepths"
3636  03                 const type 3
3637  00409C45           const [42]: (0)
363B  04                 const type 4
363C  0B                 string size (11)
363D  6747616D6552756C+  "gGameRul"
3645  657300             "es\0"
                         const [43]: "gGameRules"
3648  01                 const type 3
3649  497363B8           const [44]: (-1201441975)
364D  04                 const type 4
364E  0C                 string size (12)
364F  6D697373696F6E54+  "missionT"
3657  79706500           "ype\0"
                         const [45]: "missionType"
365B  04                 const type 4
365C  0B                 string size (11)
365D  4C6F7475735F4761+  "Lotus_Ga"
3665  6D6500             "me\0"
                         const [46]: "Lotus_Game"
3668  04                 const type 4
3669  0D                 string size (13)
366A  4D545F4C414E4453+  "MT_LANDS"
3672  4341504500         "CAPE\0"
                         const [47]: "MT_LANDSCAPE"
                         * functions:
3677  00                 sizep (0)
                         * lines:
3679  01                 sizelineinfo (158)
                         [pc] (line)
367A  9A                 [001] (-102)
367B  01                 [002] (-102)
367C  00                 [003] (-102)
367D  00                 [004] (-101)
367E  9A                 [005] (-101)
367F  01                 [006] (-101)
3680  00                 [007] (-99)
3681  00                 [008] (-99)
3682  9A                 [009] (-99)
3683  01                 [010] (-99)
3684  00                 [011] (-99)
3685  00                 [012] (-98)
3686  9B                 [013] (-98)
3687  01                 [014] (-98)
3688  00                 [015] (-98)
3689  00                 [016] (-98)
368A  9B                 [017] (-98)
368B  01                 [018] (-98)
368C  00                 [019] (-98)
368D  00                 [020] (-98)
368E  9B                 [021] (-98)
368F  01                 [022] (-98)
3690  00                 [023] (-97)
3691  00                 [024] (-97)
3692  9D                 [025] (-97)
3693  01                 [026] (-97)
3694  00                 [027] (-97)
3695  00                 [028] (-97)
3696  9D                 [029] (-97)
3697  01                 [030] (-97)
3698  00                 [031] (-97)
3699  00                 [032] (-96)
369A  9D                 [033] (-96)
369B  01                 [034] (-96)
369C  00                 [035] (-96)
369D  00                 [036] (-96)
369E  9D                 [037] (-96)
369F  01                 [038] (-96)
36A0  00                 [039] (-96)
36A1  00                 [040] (-96)
36A2  9D                 [041] (-94)
36A3  01                 [042] (-94)
36A4  00                 [043] (-94)
36A5  00                 [044] (-94)
36A6  9E                 [045] (-93)
36A7  01                 [046] (-93)
36A8  00                 [047] (-93)
36A9  00                 [048] (-93)
36AA  9E                 [049] (-92)
36AB  01                 [050] (-92)
36AC  00                 [051] (-92)
36AD  00                 [052] (-92)
36AE  9E                 [053] (-90)
36AF  01                 [054] (-90)
36B0  00                 [055] (-90)
36B1  00                 [056] (-90)
36B2  9E                 [057] (-90)
36B3  01                 [058] (-90)
36B4  00                 [059] (-89)
36B5  00                 [060] (-89)
36B6  9E                 [061] (-89)
36B7  01                 [062] (-89)
36B8  00                 [063] (-89)
36B9  00                 [064] (-89)
36BA  9E                 [065] (-87)
36BB  01                 [066] (-87)
36BC  00                 [067] (-87)
36BD  00                 [068] (-87)
36BE  9E                 [069] (-87)
36BF  01                 [070] (-87)
36C0  00                 [071] (-85)
36C1  00                 [072] (-85)
36C2  9E                 [073] (-85)
36C3  01                 [074] (-85)
36C4  00                 [075] (-85)
36C5  00                 [076] (-85)
36C6  9E                 [077] (-84)
36C7  01                 [078] (-84)
36C8  00                 [079] (-84)
36C9  00                 [080] (-84)
36CA  9E                 [081] (-84)
36CB  01                 [082] (-84)
36CC  00                 [083] (-83)
36CD  00                 [084] (-83)
36CE  9E                 [085] (-81)
36CF  01                 [086] (-81)
36D0  00                 [087] (-81)
36D1  00                 [088] (-80)
36D2  9F                 [089] (-80)
36D3  01                 [090] (-80)
36D4  00                 [091] (-80)
36D5  00                 [092] (-80)
36D6  9F                 [093] (-80)
36D7  01                 [094] (-79)
36D8  00                 [095] (-79)
36D9  00                 [096] (-79)
36DA  9F                 [097] (-79)
36DB  01                 [098] (-79)
36DC  00                 [099] (-79)
36DD  00                 [100] (-78)
36DE  9F                 [101] (-78)
36DF  01                 [102] (-78)
36E0  00                 [103] (-78)
36E1  00                 [104] (-78)
36E2  9F                 [105] (-78)
36E3  01                 [106] (-77)
36E4  00                 [107] (-77)
36E5  00                 [108] (-77)
36E6  9F                 [109] (-77)
36E7  01                 [110] (-77)
36E8  00                 [111] (-77)
36E9  00                 [112] (-77)
36EA  9F                 [113] (-75)
36EB  01                 [114] (-75)
36EC  00                 [115] (-74)
36ED  00                 [116] (-74)
36EE  9F                 [117] (-74)
36EF  01                 [118] (-70)
36F0  00                 [119] (-70)
36F1  00                 [120] (-70)
36F2  9F                 [121] (-70)
36F3  01                 [122] (-70)
36F4  00                 [123] (-70)
36F5  00                 [124] (-69)
36F6  A0                 [125] (-69)
36F7  01                 [126] (-69)
36F8  00                 [127] (-69)
36F9  00                 [128] (-69)
36FA  A0                 [129] (-69)
36FB  01                 [130] (-68)
36FC  00                 [131] (-68)
36FD  00                 [132] (-68)
36FE  A0                 [133] (-68)
36FF  01                 [134] (-68)
3700  00                 [135] (-67)
3701  00                 [136] (-67)
3702  A0                 [137] (-67)
3703  01                 [138] (-67)
3704  00                 [139] (-67)
3705  00                 [140] (-65)
3706  A0                 [141] (-65)
3707  01                 [142] (-65)
3708  00                 [143] (-65)
3709  00                 [144] (-65)
370A  A0                 [145] (-65)
370B  01                 [146] (-65)
370C  00                 [147] (-65)
370D  00                 [148] (-65)
370E  A0                 [149] (-65)
370F  01                 [150] (-65)
3710  00                 [151] (-65)
3711  00                 [152] (-65)
3712  A0                 [153] (-65)
3713  01                 [154] (-65)
3714  00                 [155] (-65)
3715  00                 [156] (-63)
3716  A0                 [157] (-63)
3717  01                 [158] (-62)
                         * locals:
38F2  00                 sizelocvars (0)
                         * upvalues:
38F3  00                 sizeupvalues (0)
                         ** end of function **

                         
38F4                     ** function [21] definition (level 2)
                         ** start of function **
38F4  00                 string size (0)
                         source name: (none)
38F6  03                 line defined (452)
38F7  E5                 last line defined (485)
38F8  03                 nups (9)
38F9  09                 numparams (1)
38FA  01                 is_vararg (0)
38FB  00                 maxstacksize (11)
                         * code:
38FD  53                 sizecode (83)
38FE  57008000           [01] loadbool   1   1   0    ; true
fail op	8
3902  48000000           [02] setupval   1   0      
3906  5D000000           [03] getglobal  1   0        ; _T
390A  4C80C080           [04] settable   1   257 258  ; "gToolTip" nil
390E  5D000000           [05] getglobal  1   0        ; _T
3912  4C00C181           [06] settable   1   259 260  ; "OverlayMapVisible" 0
3916  53008000           [07] getupval   1   1      
391A  62408000           [08] call       1   1   1  
391E  53000001           [09] getupval   1   2      
3922  58000000           [10] test       1       0    ; to [12] if true
3926  1AC00080           [11] jmp        4            ; to [16]
392A  5D400100           [12] getglobal  1   5        ; mMovie
392E  6480C100           [13] self       1   1   262  ; -630242850
3932  D7008000           [14] loadbool   3   1   0    ; true
3936  62408001           [15] call       1   3   1  
393A  57000000           [16] loadbool   1   0   0    ; false
fail op	8
393E  48000001           [17] setupval   1   2      
3942  53008001           [18] getupval   1   3      
fail op	35
3946  6380C000           [19] close      1  
394A  1A000280           [20] jmp        9            ; to [30]
394E  5DC00100           [21] getglobal  1   7        ; gGameRules
3952  6400C200           [22] self       1   1   264  ; -2029400442
3956  62800001           [23] call       1   2   2  
395A  A440C200           [24] self       2   1   265  ; 471456102
395E  19810200           [25] loadk      4   10       ; "_root"
3962  59C10200           [26] loadk      5   11       ; "_visible"
3966  93018001           [27] getupval   6   3      
396A  A2808002           [28] call       2   5   2  
fail op	8
396E  88008001           [29] setupval   2   3      
3972  9D000300           [30] getglobal  2   12       ; 1074689893
3976  D3000002           [31] getupval   3   4      
397A  A2800001           [32] call       2   2   2  
397E  98400000           [33] test       2       1    ; to [35] if false
3982  1AC00280           [34] jmp        12           ; to [47]
3986  93000002           [35] getupval   2   4      
398A  A4404301           [36] self       2   2   269  ; 381755188
398E  17010000           [37] loadbool   4   0   0    ; false
3992  A2408001           [38] call       2   3   1  
3996  93000002           [39] getupval   2   4      
399A  A4804301           [40] self       2   2   270  ; -1170214139
399E  17010000           [41] loadbool   4   0   0    ; false
39A2  A2408001           [42] call       2   3   1  
39A6  93000002           [43] getupval   2   4      
39AA  A4C04301           [44] self       2   2   271  ; 785791211
39AE  17010000           [45] loadbool   4   0   0    ; false
39B2  A2408001           [46] call       2   3   1  
39B6  97008000           [47] loadbool   2   1   0    ; true
fail op	8
39BA  88008002           [48] setupval   2   5      
39BE  97000000           [49] loadbool   2   0   0    ; false
fail op	8
39C2  88000003           [50] setupval   2   6      
39C6  9D000300           [51] getglobal  2   12       ; 1074689893
39CA  D3008003           [52] getupval   3   7      
39CE  A2800001           [53] call       2   2   2  
39D2  98400000           [54] test       2       1    ; to [56] if false
39D6  1AC00080           [55] jmp        4            ; to [60]
39DA  93008003           [56] getupval   2   7      
39DE  A4004401           [57] self       2   2   272  ; 236355120
39E2  17018000           [58] loadbool   4   1   0    ; true
39E6  A2408001           [59] call       2   3   1  
39EA  9D400100           [60] getglobal  2   5        ; mMovie
39EE  A4404401           [61] self       2   2   273  ; 298914335
39F2  19810200           [62] loadk      4   10       ; "_root"
39F6  A2408001           [63] call       2   3   1  
39FA  9D800400           [64] getglobal  2   18       ; 1390508688
39FE  DD400100           [65] getglobal  3   5        ; mMovie
3A02  19810200           [66] loadk      4   10       ; "_root"
3A06  5DC10400           [67] getglobal  5   19       ; UISys
3A0A  4E01C502           [68] gettable   5   5   276  ; "FlashInstance_EASE_OUT"
3A0E  8B010001           [69] newtable   6   2   0    ; array=2, hash=0
3A12  D9410500           [70] loadk      7   21       ; "_alpha"
3A16  19820500           [71] loadk      8   22       ; "_z"
3A1A  9B410001           [72] setlist    6   2   1    ; index 1 to 2
3A1E  CB010001           [73] newtable   7   2   0    ; array=2, hash=0
3A22  19C20500           [74] loadk      8   23       ; 0
3A26  59020600           [75] loadk      9   24       ; 0
3A2A  DB410001           [76] setlist    7   2   1    ; index 1 to 2
3A2E  19420600           [77] loadk      8   25       ; 51
3A32  59C20500           [78] loadk      9   23       ; 0
3A36  A5020000           [79] closure    10  0      
3A3A  13000004           [80] getupval   0   8      
3A3E  12000000           [81] move       0   0      
3A42  A2408004           [82] call       2   9   1  
3A46  1E008000           [83] return     0   1      
                         * constants:
3A4A  1A                 sizek (26)
3A4B  04                 const type 4
3A4C  03                 string size (3)
3A4D  5F5400             "_T\0"
                         const [0]: "_T"
3A50  04                 const type 4
3A51  09                 string size (9)
3A52  67546F6F6C546970+  "gToolTip"
3A5A  00                 "\0"
                         const [1]: "gToolTip"
3A5B  00                 const type 0
                         const [2]: nil
3A5C  04                 const type 4
3A5D  12                 string size (18)
3A5E  4F7665726C61794D+  "OverlayM"
3A66  617056697369626C+  "apVisibl"
3A6E  6500               "e\0"
                         const [3]: "OverlayMapVisible"
3A70  01                 const type 3
3A71  00000000           const [4]: (0)
3A75  04                 const type 4
3A76  07                 string size (7)
3A77  6D4D6F76696500     "mMovie\0"
                         const [5]: "mMovie"
3A7E  01                 const type 3
3A7F  DE416FDA           const [6]: (-630242850)
3A83  04                 const type 4
3A84  0B                 string size (11)
3A85  6747616D6552756C+  "gGameRul"
3A8D  657300             "es\0"
                         const [7]: "gGameRules"
3A90  01                 const type 3
3A91  86CE0987           const [8]: (-2029400442)
3A95  01                 const type 3
3A96  66D9191C           const [9]: (471456102)
3A9A  04                 const type 4
3A9B  06                 string size (6)
3A9C  5F726F6F7400       "_root\0"
                         const [10]: "_root"
3AA2  04                 const type 4
3AA3  09                 string size (9)
3AA4  5F76697369626C65+  "_visible"
3AAC  00                 "\0"
                         const [11]: "_visible"
3AAD  01                 const type 3
3AAE  65770E40           const [12]: (1074689893)
3AB2  01                 const type 3
3AB3  341FC116           const [13]: (381755188)
3AB7  01                 const type 3
3AB8  05F33FBA           const [14]: (-1170214139)
3ABC  01                 const type 3
3ABD  EB38D62E           const [15]: (785791211)
3AC1  01                 const type 3
3AC2  307E160E           const [16]: (236355120)
3AC6  01                 const type 3
3AC7  1F12D111           const [17]: (298914335)
3ACB  01                 const type 3
3ACC  907AE152           const [18]: (1390508688)
3AD0  04                 const type 4
3AD1  06                 string size (6)
3AD2  554953797300       "UISys\0"
                         const [19]: "UISys"
3AD8  04                 const type 4
3AD9  17                 string size (23)
3ADA  466C617368496E73+  "FlashIns"
3AE2  74616E63655F4541+  "tance_EA"
3AEA  53455F4F555400     "SE_OUT\0"
                         const [20]: "FlashInstance_EASE_OUT"
3AF1  04                 const type 4
3AF2  07                 string size (7)
3AF3  5F616C70686100     "_alpha\0"
                         const [21]: "_alpha"
3AFA  04                 const type 4
3AFB  03                 string size (3)
3AFC  5F7A00             "_z\0"
                         const [22]: "_z"
3AFF  03                 const type 3
3B00  00000000           const [23]: (0)
3B04  03                 const type 3
3B05  00606AC6           const [24]: (0)
3B09  03                 const type 3
3B0A  3333B33E           const [25]: (51)
                         * functions:
3B0E  01                 sizep (1)
                         
3B0F                     ** function [0] definition (level 3)
                         ** start of function **
3B0F  00                 string size (0)
                         source name: (none)
3B11  03                 line defined (482)
3B12  E4                 last line defined (484)
3B13  03                 nups (2)
3B14  02                 numparams (0)
3B15  00                 is_vararg (0)
3B16  00                 maxstacksize (2)
                         * code:
3B18  03                 sizecode (3)
3B19  13008000           [1] getupval   0   1      
fail op	8
3B1D  08000000           [2] setupval   0   0      
3B21  1E008000           [3] return     0   1      
                         * constants:
3B25  00                 sizek (0)
                         * functions:
3B26  00                 sizep (0)
                         * lines:
3B27  03                 sizelineinfo (3)
                         [pc] (line)
3B28  E3                 [1] (-29)
3B29  01                 [2] (-29)
3B2A  00                 [3] (-28)
                         * locals:
3B34  00                 sizelocvars (0)
                         * upvalues:
3B35  00                 sizeupvalues (0)
                         ** end of function **

                         * lines:
3B36  53                 sizelineinfo (83)
                         [pc] (line)
3B37  C5                 [01] (-59)
3B38  01                 [02] (-59)
3B39  00                 [03] (-58)
3B3A  00                 [04] (-58)
3B3B  C5                 [05] (-57)
3B3C  01                 [06] (-57)
3B3D  00                 [07] (-55)
3B3E  00                 [08] (-55)
3B3F  C6                 [09] (-53)
3B40  01                 [10] (-53)
3B41  00                 [11] (-53)
3B42  00                 [12] (-52)
3B43  C6                 [13] (-52)
3B44  01                 [14] (-52)
3B45  00                 [15] (-52)
3B46  00                 [16] (-49)
3B47  C7                 [17] (-49)
3B48  01                 [18] (-47)
3B49  00                 [19] (-47)
3B4A  00                 [20] (-47)
3B4B  C7                 [21] (-46)
3B4C  01                 [22] (-46)
3B4D  00                 [23] (-46)
3B4E  00                 [24] (-45)
3B4F  C9                 [25] (-45)
3B50  01                 [26] (-45)
3B51  00                 [27] (-45)
3B52  00                 [28] (-45)
3B53  C9                 [29] (-45)
3B54  01                 [30] (-42)
3B55  00                 [31] (-42)
3B56  00                 [32] (-42)
3B57  CB                 [33] (-42)
3B58  01                 [34] (-42)
3B59  00                 [35] (-41)
3B5A  00                 [36] (-41)
3B5B  CB                 [37] (-41)
3B5C  01                 [38] (-41)
3B5D  00                 [39] (-40)
3B5E  00                 [40] (-40)
3B5F  CB                 [41] (-40)
3B60  01                 [42] (-40)
3B61  00                 [43] (-39)
3B62  00                 [44] (-39)
3B63  CC                 [45] (-39)
3B64  01                 [46] (-39)
3B65  00                 [47] (-37)
3B66  00                 [48] (-37)
3B67  CC                 [49] (-36)
3B68  01                 [50] (-36)
3B69  00                 [51] (-35)
3B6A  00                 [52] (-35)
3B6B  CC                 [53] (-35)
3B6C  01                 [54] (-35)
3B6D  00                 [55] (-35)
3B6E  00                 [56] (-34)
3B6F  CC                 [57] (-34)
3B70  01                 [58] (-34)
3B71  00                 [59] (-34)
3B72  00                 [60] (-32)
3B73  CF                 [61] (-32)
3B74  01                 [62] (-32)
3B75  00                 [63] (-32)
3B76  00                 [64] (-31)
3B77  CF                 [65] (-31)
3B78  01                 [66] (-31)
3B79  00                 [67] (-31)
3B7A  00                 [68] (-31)
3B7B  D1                 [69] (-31)
3B7C  01                 [70] (-31)
3B7D  00                 [71] (-31)
3B7E  00                 [72] (-31)
3B7F  D1                 [73] (-31)
3B80  01                 [74] (-31)
3B81  00                 [75] (-31)
3B82  00                 [76] (-31)
3B83  D1                 [77] (-31)
3B84  01                 [78] (-31)
3B85  00                 [79] (-28)
3B86  00                 [80] (-28)
3B87  D2                 [81] (-28)
3B88  01                 [82] (-31)
3B89  00                 [83] (-27)
                         * locals:
3C83  00                 sizelocvars (0)
                         * upvalues:
3C84  00                 sizeupvalues (0)
                         ** end of function **

                         
3C85                     ** function [22] definition (level 2)
                         ** start of function **
3C85  00                 string size (0)
                         source name: (none)
3C87  03                 line defined (487)
3C88  E9                 last line defined (489)
3C89  03                 nups (1)
3C8A  01                 numparams (0)
3C8B  00                 is_vararg (0)
3C8C  00                 maxstacksize (2)
                         * code:
3C8E  04                 sizecode (4)
3C8F  13000000           [1] getupval   0   0      
3C93  57008000           [2] loadbool   1   1   0    ; true
3C97  22400001           [3] call       0   2   1  
3C9B  1E008000           [4] return     0   1      
                         * constants:
3C9F  00                 sizek (0)
                         * functions:
3CA0  00                 sizep (0)
                         * lines:
3CA1  04                 sizelineinfo (4)
                         [pc] (line)
3CA2  E8                 [1] (-24)
3CA3  01                 [2] (-24)
3CA4  00                 [3] (-24)
3CA5  00                 [4] (-23)
                         * locals:
3CB2  00                 sizelocvars (0)
                         * upvalues:
3CB3  00                 sizeupvalues (0)
                         ** end of function **

                         
3CB4                     ** function [23] definition (level 2)
                         ** start of function **
3CB4  00                 string size (0)
                         source name: (none)
3CB6  03                 line defined (491)
3CB7  ED                 last line defined (493)
3CB8  03                 nups (2)
3CB9  02                 numparams (0)
3CBA  00                 is_vararg (0)
3CBB  00                 maxstacksize (2)
                         * code:
3CBD  08                 sizecode (8)
3CBE  13000000           [1] getupval   0   0      
3CC2  53008000           [2] getupval   1   1      
fail op	35
3CC6  6300C000           [3] close      1  
3CCA  1A000080           [4] jmp        1            ; to [6]
3CCE  57400000           [5] loadbool   1   0   1    ; false, to [7]
3CD2  57008000           [6] loadbool   1   1   0    ; true
3CD6  22400001           [7] call       0   2   1  
3CDA  1E008000           [8] return     0   1      
                         * constants:
3CDE  01                 sizek (1)
3CDF  01                 const type 3
3CE0  01000000           const [0]: (1)
                         * functions:
3CE4  00                 sizep (0)
                         * lines:
3CE5  08                 sizelineinfo (8)
                         [pc] (line)
3CE6  EC                 [1] (-20)
3CE7  01                 [2] (-20)
3CE8  00                 [3] (-20)
3CE9  00                 [4] (-20)
3CEA  EC                 [5] (-20)
3CEB  01                 [6] (-20)
3CEC  00                 [7] (-20)
3CED  00                 [8] (-19)
                         * locals:
3D06  00                 sizelocvars (0)
                         * upvalues:
3D07  00                 sizeupvalues (0)
                         ** end of function **

                         
3D08                     ** function [24] definition (level 2)
                         ** start of function **
3D08  00                 string size (0)
                         source name: (none)
3D0A  03                 line defined (495)
3D0B  F5                 last line defined (501)
3D0C  03                 nups (3)
3D0D  03                 numparams (0)
3D0E  00                 is_vararg (0)
3D0F  00                 maxstacksize (2)
                         * code:
3D11  0A                 sizecode (10)
3D12  13000000           [01] getupval   0   0      
3D16  18000000           [02] test       0       0    ; to [4] if true
3D1A  1AC00080           [03] jmp        4            ; to [8]
3D1E  13008000           [04] getupval   0   1      
3D22  57008000           [05] loadbool   1   1   0    ; true
3D26  22400001           [06] call       0   2   1  
3D2A  1A400080           [07] jmp        2            ; to [10]
3D2E  13000001           [08] getupval   0   2      
3D32  22408000           [09] call       0   1   1  
3D36  1E008000           [10] return     0   1      
                         * constants:
3D3A  00                 sizek (0)
                         * functions:
3D3B  00                 sizep (0)
                         * lines:
3D3C  0A                 sizelineinfo (10)
                         [pc] (line)
3D3D  F0                 [01] (-16)
3D3E  01                 [02] (-16)
3D3F  00                 [03] (-16)
3D40  00                 [04] (-15)
3D41  F0                 [05] (-15)
3D42  01                 [06] (-15)
3D43  00                 [07] (-15)
3D44  00                 [08] (-13)
3D45  F0                 [09] (-13)
3D46  01                 [10] (-11)
                         * locals:
3D65  00                 sizelocvars (0)
                         * upvalues:
3D66  00                 sizeupvalues (0)
                         ** end of function **

                         
3D67                     ** function [25] definition (level 2)
                         ** start of function **
3D67  00                 string size (0)
                         source name: (none)
3D69  03                 line defined (503)
3D6A  84                 last line defined (516)
3D6B  04                 nups (3)
3D6C  03                 numparams (0)
3D6D  00                 is_vararg (0)
3D6E  00                 maxstacksize (6)
                         * code:
3D70  3A                 sizecode (58)
3D71  0B000000           [01] newtable   0   0   0    ; array=0, hash=0
3D75  53000000           [02] getupval   1   0      
3D79  58400000           [03] test       1       1    ; to [5] if false
3D7D  1A800980           [04] jmp        39           ; to [44]
3D81  53008000           [05] getupval   1   1      
3D85  58000000           [06] test       1       0    ; to [8] if true
3D89  1AC00880           [07] jmp        36           ; to [44]
3D8D  5D000000           [08] getglobal  1   0        ; Engine
3D91  4E40C000           [09] gettable   1   1   257  ; -1802437008
3D95  62808000           [10] call       1   1   2  
3D99  58000000           [11] test       1       0    ; to [13] if true
3D9D  1A000580           [12] jmp        21           ; to [34]
3DA1  5D800000           [13] getglobal  1   2        ; table
3DA5  4EC0C000           [14] gettable   1   1   259  ; -431682403
3DA9  92000000           [15] move       2   0      
3DAD  CB800000           [16] newtable   3   0   2    ; array=0, hash=2
3DB1  CC404182           [17] settable   3   260 261  ; "Label" "/Lotus/Language/Menu/Pan"
3DB5  CCC04183           [18] settable   3   262 263  ; "CallOut" "MENU_X"
3DB9  62408001           [19] call       1   3   1  
3DBD  5D800000           [20] getglobal  1   2        ; table
3DC1  4EC0C000           [21] gettable   1   1   259  ; -431682403
3DC5  92000000           [22] move       2   0      
3DC9  CB800000           [23] newtable   3   0   2    ; array=0, hash=2
3DCD  CC004282           [24] settable   3   260 264  ; "Label" "/Lotus/Language/Menu/Zoom"
3DD1  CC404283           [25] settable   3   262 265  ; "CallOut" "MENU_RIGHT_X"
3DD5  62408001           [26] call       1   3   1  
3DD9  5D800000           [27] getglobal  1   2        ; table
3DDD  4EC0C000           [28] gettable   1   1   259  ; -431682403
3DE1  92000000           [29] move       2   0      
3DE5  CB800000           [30] newtable   3   0   2    ; array=0, hash=2
3DE9  CC804282           [31] settable   3   260 266  ; "Label" "/Lotus/Language/Menu/MapMarkerWaypoint"
3DED  CCC04283           [32] settable   3   262 267  ; "CallOut" "MENU_GENERIC1"
3DF1  62408001           [33] call       1   3   1  
3DF5  5D800000           [34] getglobal  1   2        ; table
3DF9  4EC0C000           [35] gettable   1   1   259  ; -431682403
3DFD  92000000           [36] move       2   0      
3E01  CBC00000           [37] newtable   3   0   3    ; array=0, hash=3
3E05  CC004382           [38] settable   3   260 268  ; "Label" "/Lotus/Language/Menu/Exit"
3E09  25010000           [39] closure    4   0      
3E0D  13000001           [40] getupval   0   2      
3E11  CC008186           [41] settable   3   269 4    ; "CallBack"
3E15  CC804383           [42] settable   3   262 270  ; "CallOut" "MENU_CANCEL"
3E19  62408001           [43] call       1   3   1  
3E1D  5DC00300           [44] getglobal  1   15       ; 1074689893
3E21  9D000400           [45] getglobal  2   16       ; _T
3E25  8E404401           [46] gettable   2   2   273  ; "SetButtons"
3E29  62800001           [47] call       1   2   2  
3E2D  58400000           [48] test       1       1    ; to [50] if false
3E31  1AC00180           [49] jmp        8            ; to [58]
3E35  5D000400           [50] getglobal  1   16       ; _T
3E39  4E80C400           [51] gettable   1   1   274  ; -270549122
3E3D  9DC00400           [52] getglobal  2   19       ; mMovie
3E41  D2000000           [53] move       3   0      
3E45  1D010500           [54] getglobal  4   20       ; 1802065273
3E49  59410500           [55] loadk      5   21       ; 0
3E4D  22010001           [56] call       4   2   0  
3E51  62400000           [57] call       1   0   1  
3E55  1E008000           [58] return     0   1      
                         * constants:
3E59  16                 sizek (22)
3E5A  04                 const type 4
3E5B  07                 string size (7)
3E5C  456E67696E6500     "Engine\0"
                         const [0]: "Engine"
3E63  01                 const type 3
3E64  70FE9094           const [1]: (-1802437008)
3E68  04                 const type 4
3E69  06                 string size (6)
3E6A  7461626C6500       "table\0"
                         const [2]: "table"
3E70  01                 const type 3
3E71  9D0C45E6           const [3]: (-431682403)
3E75  04                 const type 4
3E76  06                 string size (6)
3E77  4C6162656C00       "Label\0"
                         const [4]: "Label"
3E7D  04                 const type 4
3E7E  19                 string size (25)
3E7F  2F4C6F7475732F4C+  "/Lotus/L"
3E87  616E67756167652F+  "anguage/"
3E8F  4D656E752F50616E+  "Menu/Pan"
3E97  00                 "\0"
                         const [5]: "/Lotus/Language/Menu/Pan"
3E98  04                 const type 4
3E99  08                 string size (8)
3E9A  43616C6C4F757400   "CallOut\0"
                         const [6]: "CallOut"
3EA2  04                 const type 4
3EA3  07                 string size (7)
3EA4  4D454E555F5800     "MENU_X\0"
                         const [7]: "MENU_X"
3EAB  04                 const type 4
3EAC  1A                 string size (26)
3EAD  2F4C6F7475732F4C+  "/Lotus/L"
3EB5  616E67756167652F+  "anguage/"
3EBD  4D656E752F5A6F6F+  "Menu/Zoo"
3EC5  6D00               "m\0"
                         const [8]: "/Lotus/Language/Menu/Zoom"
3EC7  04                 const type 4
3EC8  0D                 string size (13)
3EC9  4D454E555F524947+  "MENU_RIG"
3ED1  48545F5800         "HT_X\0"
                         const [9]: "MENU_RIGHT_X"
3ED6  04                 const type 4
3ED7  27                 string size (39)
3ED8  2F4C6F7475732F4C+  "/Lotus/L"
3EE0  616E67756167652F+  "anguage/"
3EE8  4D656E752F4D6170+  "Menu/Map"
3EF0  4D61726B65725761+  "MarkerWa"
3EF8  79706F696E7400     "ypoint\0"
                         const [10]: "/Lotus/Language/Menu/MapMarkerWaypoint"
3EFF  04                 const type 4
3F00  0E                 string size (14)
3F01  4D454E555F47454E+  "MENU_GEN"
3F09  455249433100       "ERIC1\0"
                         const [11]: "MENU_GENERIC1"
3F0F  04                 const type 4
3F10  1A                 string size (26)
3F11  2F4C6F7475732F4C+  "/Lotus/L"
3F19  616E67756167652F+  "anguage/"
3F21  4D656E752F457869+  "Menu/Exi"
3F29  7400               "t\0"
                         const [12]: "/Lotus/Language/Menu/Exit"
3F2B  04                 const type 4
3F2C  09                 string size (9)
3F2D  43616C6C4261636B+  "CallBack"
3F35  00                 "\0"
                         const [13]: "CallBack"
3F36  04                 const type 4
3F37  0C                 string size (12)
3F38  4D454E555F43414E+  "MENU_CAN"
3F40  43454C00           "CEL\0"
                         const [14]: "MENU_CANCEL"
3F44  01                 const type 3
3F45  65770E40           const [15]: (1074689893)
3F49  04                 const type 4
3F4A  03                 string size (3)
3F4B  5F5400             "_T\0"
                         const [16]: "_T"
3F4E  04                 const type 4
3F4F  0B                 string size (11)
3F50  536574427574746F+  "SetButto"
3F58  6E7300             "ns\0"
                         const [17]: "SetButtons"
3F5B  01                 const type 3
3F5C  7EBFDFEF           const [18]: (-270549122)
3F60  04                 const type 4
3F61  07                 string size (7)
3F62  6D4D6F76696500     "mMovie\0"
                         const [19]: "mMovie"
3F69  01                 const type 3
3F6A  7955696B           const [20]: (1802065273)
3F6E  03                 const type 3
3F6F  0000803F           const [21]: (0)
                         * functions:
3F73  01                 sizep (1)
                         
3F74                     ** function [0] definition (level 3)
                         ** start of function **
3F74  00                 string size (0)
                         source name: (none)
3F76  03                 line defined (511)
3F77  FF                 last line defined (511)
3F78  03                 nups (1)
3F79  01                 numparams (0)
3F7A  00                 is_vararg (0)
3F7B  00                 maxstacksize (2)
                         * code:
3F7D  04                 sizecode (4)
3F7E  13000000           [1] getupval   0   0      
3F82  57008000           [2] loadbool   1   1   0    ; true
3F86  22400001           [3] call       0   2   1  
3F8A  1E008000           [4] return     0   1      
                         * constants:
3F8E  00                 sizek (0)
                         * functions:
3F8F  00                 sizep (0)
                         * lines:
3F90  04                 sizelineinfo (4)
                         [pc] (line)
3F91  FF                 [1] (-1)
3F92  01                 [2] (-1)
3F93  00                 [3] (-1)
3F94  00                 [4] (-1)
                         * locals:
3FA1  00                 sizelocvars (0)
                         * upvalues:
3FA2  00                 sizeupvalues (0)
                         ** end of function **

                         * lines:
3FA3  3A                 sizelineinfo (58)
                         [pc] (line)
3FA4  F8                 [01] (-8)
3FA5  01                 [02] (-7)
3FA6  00                 [03] (-7)
3FA7  00                 [04] (-7)
3FA8  F9                 [05] (-7)
3FA9  01                 [06] (-7)
3FAA  00                 [07] (-7)
3FAB  00                 [08] (-6)
3FAC  F9                 [09] (-6)
3FAD  01                 [10] (-6)
3FAE  00                 [11] (-6)
3FAF  00                 [12] (-6)
3FB0  F9                 [13] (-5)
3FB1  01                 [14] (-5)
3FB2  00                 [15] (-5)
3FB3  00                 [16] (-5)
3FB4  F9                 [17] (-5)
3FB5  01                 [18] (-5)
3FB6  00                 [19] (-5)
3FB7  00                 [20] (-4)
3FB8  F9                 [21] (-4)
3FB9  01                 [22] (-4)
3FBA  00                 [23] (-4)
3FBB  00                 [24] (-4)
3FBC  F9                 [25] (-4)
3FBD  01                 [26] (-4)
3FBE  00                 [27] (-3)
3FBF  00                 [28] (-3)
3FC0  FA                 [29] (-3)
3FC1  01                 [30] (-3)
3FC2  00                 [31] (-3)
3FC3  00                 [32] (-3)
3FC4  FA                 [33] (-3)
3FC5  01                 [34] (-1)
3FC6  00                 [35] (-1)
3FC7  00                 [36] (-1)
3FC8  FA                 [37] (-1)
3FC9  01                 [38] (-1)
3FCA  00                 [39] (-1)
3FCB  00                 [40] (-1)
3FCC  FA                 [41] (-1)
3FCD  01                 [42] (-1)
3FCE  00                 [43] (-1)
3FCF  00                 [44] (1)
3FD0  FA                 [45] (1)
3FD1  01                 [46] (1)
3FD2  00                 [47] (1)
3FD3  00                 [48] (1)
3FD4  FB                 [49] (1)
3FD5  01                 [50] (2)
3FD6  00                 [51] (2)
3FD7  00                 [52] (2)
3FD8  FB                 [53] (2)
3FD9  01                 [54] (2)
3FDA  00                 [55] (2)
3FDB  00                 [56] (2)
3FDC  FB                 [57] (2)
3FDD  01                 [58] (4)
                         * locals:
408C  00                 sizelocvars (0)
                         * upvalues:
408D  00                 sizeupvalues (0)
                         ** end of function **

                         
408E                     ** function [26] definition (level 2)
                         ** start of function **
408E  00                 string size (0)
                         source name: (none)
4090  04                 line defined (518)
4091  B2                 last line defined (562)
4092  04                 nups (14)
4093  0E                 numparams (0)
4094  00                 is_vararg (0)
4095  00                 maxstacksize (14)
                         * code:
4098  01                 sizecode (178)
4099  1D000000           [001] getglobal  0   0        ; mMovie
409D  24404000           [002] self       0   0   257  ; -630242850
40A1  93000000           [003] getupval   2   0      
fail op	9
40A5  89000001           [004] settable   2   2   0  
40A9  22408001           [005] call       0   3   1  
40AD  13008000           [006] getupval   0   1      
40B1  22408000           [007] call       0   1   1  
40B5  13000000           [008] getupval   0   0      
40B9  18000000           [009] test       0       0    ; to [11] if true
40BD  1A801980           [010] jmp        103          ; to [114]
40C1  1D800000           [011] getglobal  0   2        ; -1817107093
40C5  59C00000           [012] loadk      1   3        ; "Map opened in advanced mode"
40C9  22400001           [013] call       0   2   1  
40CD  1D000100           [014] getglobal  0   4        ; 1074689893
40D1  5D400100           [015] getglobal  1   5        ; gRegion
40D5  22800001           [016] call       0   2   2  
40D9  18400000           [017] test       0       1    ; to [19] if false
40DD  1A800280           [018] jmp        11           ; to [30]
40E1  1D400100           [019] getglobal  0   5        ; gRegion
40E5  24804100           [020] self       0   0   262  ; 925677844
40E9  22800001           [021] call       0   2   2  
40ED  5D000100           [022] getglobal  1   4        ; 1074689893
40F1  92000000           [023] move       2   0      
40F5  62800001           [024] call       1   2   2  
40F9  58400000           [025] test       1       1    ; to [27] if false
40FD  1A800080           [026] jmp        3            ; to [30]
4101  64C04100           [027] self       1   0   263  ; -2130054110
4105  62800001           [028] call       1   2   2  
fail op	8
4109  48000001           [029] setupval   1   2      
410D  53000001           [030] getupval   1   2      
4111  6400C200           [031] self       1   1   264  ; 236355120
4115  D7000000           [032] loadbool   3   0   0    ; false
4119  62408001           [033] call       1   3   1  
411D  5D400200           [034] getglobal  1   9        ; Engine
4121  4E80C200           [035] gettable   1   1   266  ; -1802437008
4125  62808000           [036] call       1   1   2  
4129  9D000000           [037] getglobal  2   0        ; mMovie
412D  A4C04201           [038] self       2   2   267  ; -1021004755
fail op	9
4131  09018000           [039] settable   4   1   0  
4135  A2408001           [040] call       2   3   1  
4139  93008001           [041] getupval   2   3      
413D  D2008000           [042] move       3   1      
4141  A2400001           [043] call       2   2   1  
4145  9D000100           [044] getglobal  2   4        ; 1074689893
4149  DD000300           [045] getglobal  3   12       ; _T
414D  CE40C301           [046] gettable   3   3   269  ; "ShowButtonBarCursor"
4151  A2800001           [047] call       2   2   2  
4155  98400000           [048] test       2       1    ; to [50] if false
4159  1AC00080           [049] jmp        4            ; to [54]
415D  9D000300           [050] getglobal  2   12       ; _T
4161  8E804301           [051] gettable   2   2   270  ; 618780820
fail op	9
4165  C9008000           [052] settable   3   1   0  
4169  A2400001           [053] call       2   2   1  
416D  9D000100           [054] getglobal  2   4        ; 1074689893
4171  D3000002           [055] getupval   3   4      
4175  A2800001           [056] call       2   2   2  
4179  98400000           [057] test       2       1    ; to [59] if false
417D  1A400080           [058] jmp        2            ; to [61]
4181  93008002           [059] getupval   2   5      
4185  A2408000           [060] call       2   1   1  
4189  9DC00300           [061] getglobal  2   15       ; 849075268
418D  D9000400           [062] loadk      3   16       ; "EE.Interface.Components.DragScroll"
4191  A2800001           [063] call       2   2   2  
4195  CE404401           [064] gettable   3   2   273  ; 1191123516
4199  1D010000           [065] getglobal  4   0        ; mMovie
419D  59810400           [066] loadk      5   18       ; "Board"
41A1  99C10400           [067] loadk      6   19       ; 0
41A5  D9C10400           [068] loadk      7   19       ; 0
41A9  19020500           [069] loadk      8   20       ; 0
41AD  59020500           [070] loadk      9   20       ; 0
41B1  E2808003           [071] call       3   7   2  
fail op	8
41B5  C8000003           [072] setupval   3   6      
41B9  D3008003           [073] getupval   3   7      
41BD  E2408000           [074] call       3   1   1  
41C1  D3000004           [075] getupval   3   8      
fail op	35
41C5  2340C501           [076] close      0  
41C9  1A000480           [077] jmp        17           ; to [95]
41CD  DD800500           [078] getglobal  3   22       ; gGameRules
41D1  E4C0C501           [079] self       3   3   279  ; -2029400442
41D5  E2800001           [080] call       3   2   2  
41D9  2401C601           [081] self       4   3   280  ; 1803241227
41DD  99410600           [082] loadk      6   25       ; "_root"
41E1  D9810600           [083] loadk      7   26       ; "_visible"
41E5  22810002           [084] call       4   4   2  
fail op	35
41E9  63C04602           [085] close      1  
41ED  1A000080           [086] jmp        1            ; to [88]
41F1  17410000           [087] loadbool   4   0   1    ; false, to [89]
41F5  17018000           [088] loadbool   4   1   0    ; true
fail op	8
41F9  08010004           [089] setupval   4   8      
41FD  2401C701           [090] self       4   3   284  ; 471456102
4201  99410600           [091] loadk      6   25       ; "_root"
4205  D9810600           [092] loadk      7   26       ; "_visible"
4209  17020000           [093] loadbool   8   0   0    ; false
420D  22418002           [094] call       4   5   1  
4211  1D010000           [095] getglobal  4   0        ; mMovie
4215  24414702           [096] self       4   4   285  ; 298914335
4219  99810700           [097] loadk      6   30       ; "MapHint"
421D  22418001           [098] call       4   3   1  
4221  1DC10700           [099] getglobal  4   31       ; 1390508688
4225  5D010000           [100] getglobal  5   0        ; mMovie
4229  99810700           [101] loadk      6   30       ; "MapHint"
422D  DD010800           [102] getglobal  7   32       ; UISys
4231  CE41C803           [103] gettable   7   7   289  ; "FlashInstance_SMOOTH_STEP"
4235  0B028000           [104] newtable   8   1   0    ; array=1, hash=0
4239  59820800           [105] loadk      9   34       ; "_alpha"
423D  1B428000           [106] setlist    8   1   1    ; index 1 to 1
4241  4B028000           [107] newtable   9   1   0    ; array=1, hash=0
4245  99C20800           [108] loadk      10  35       ; 0
4249  5B428000           [109] setlist    9   1   1    ; index 1 to 1
424D  99020900           [110] loadk      10  36       ; -102
4251  22418003           [111] call       4   7   1  
4255  13018004           [112] getupval   4   9      
4259  22418000           [113] call       4   1   1  
425D  1D010000           [114] getglobal  4   0        ; mMovie
4261  24014702           [115] self       4   4   284  ; 471456102
4265  99410900           [116] loadk      6   37       ; "Reticle"
4269  D9810600           [117] loadk      7   26       ; "_visible"
426D  13020000           [118] getupval   8   0      
4271  18020000           [119] test       8       0    ; to [121] if true
4275  1A400080           [120] jmp        2            ; to [123]
4279  13020005           [121] getupval   8   10     
427D  0E824904           [122] gettable   8   8   294  ; "IsVisible"
4281  22418002           [123] call       4   5   1  
4285  13010000           [124] getupval   4   0      
4289  18410000           [125] test       4       1    ; to [127] if false
428D  1A400380           [126] jmp        14           ; to [141]
4291  13010006           [127] getupval   4   12     
4295  18010000           [128] test       4       0    ; to [130] if true
4299  1A800280           [129] jmp        11           ; to [141]
429D  1D010100           [130] getglobal  4   4        ; 1074689893
42A1  53010002           [131] getupval   5   4      
42A5  22810001           [132] call       4   2   2  
42A9  18410000           [133] test       4       1    ; to [135] if false
42AD  1AC00080           [134] jmp        4            ; to [139]
42B1  13010002           [135] getupval   4   4      
42B5  24C14902           [136] self       4   4   295  ; -2080524010
42B9  22810001           [137] call       4   2   2  
42BD  1A400080           [138] jmp        2            ; to [141]
42C1  17410000           [139] loadbool   4   0   1    ; false, to [141]
42C5  17018000           [140] loadbool   4   1   0    ; true
fail op	8
42C9  08018005           [141] setupval   4   11     
42CD  1DC10700           [142] getglobal  4   31       ; 1390508688
42D1  5D010000           [143] getglobal  5   0        ; mMovie
42D5  99010A00           [144] loadk      6   40       ; "TimeOfDay"
42D9  DD010800           [145] getglobal  7   32       ; UISys
42DD  CE41C803           [146] gettable   7   7   289  ; "FlashInstance_SMOOTH_STEP"
42E1  0B028000           [147] newtable   8   1   0    ; array=1, hash=0
42E5  59820800           [148] loadk      9   34       ; "_alpha"
42E9  1B428000           [149] setlist    8   1   1    ; index 1 to 1
42ED  4B020000           [150] newtable   9   0   0    ; array=0, hash=0
42F1  93028006           [151] getupval   10  13     
42F5  8E424A05           [152] gettable   10  10  297  ; -132701534
42F9  D3028005           [153] getupval   11  11     
42FD  19830A00           [154] loadk      12  42       ; 0
4301  59C30800           [155] loadk      13  35       ; 0
4305  A2020002           [156] call       10  4   0  
4309  5B420000           [157] setlist    9   0   1    ; index 1 to top
430D  99020900           [158] loadk      10  36       ; -102
4311  22418003           [159] call       4   7   1  
4315  1DC10700           [160] getglobal  4   31       ; 1390508688
4319  5D010000           [161] getglobal  5   0        ; mMovie
431D  99C10A00           [162] loadk      6   43       ; "Blurer"
4321  DD010800           [163] getglobal  7   32       ; UISys
4325  CE41C803           [164] gettable   7   7   289  ; "FlashInstance_SMOOTH_STEP"
4329  0B028000           [165] newtable   8   1   0    ; array=1, hash=0
432D  59820800           [166] loadk      9   34       ; "_alpha"
4331  1B428000           [167] setlist    8   1   1    ; index 1 to 1
4335  4B020000           [168] newtable   9   0   0    ; array=0, hash=0
4339  93028006           [169] getupval   10  13     
433D  8E424A05           [170] gettable   10  10  297  ; -132701534
4341  D3020000           [171] getupval   11  0      
4345  19830A00           [172] loadk      12  42       ; 0
4349  59C30800           [173] loadk      13  35       ; 0
434D  A2020002           [174] call       10  4   0  
4351  5B420000           [175] setlist    9   0   1    ; index 1 to top
4355  99020900           [176] loadk      10  36       ; -102
4359  22418003           [177] call       4   7   1  
435D  1E008000           [178] return     0   1      
                         * constants:
4361  2C                 sizek (44)
4362  04                 const type 4
4363  07                 string size (7)
4364  6D4D6F76696500     "mMovie\0"
                         const [0]: "mMovie"
436B  01                 const type 3
436C  DE416FDA           const [1]: (-630242850)
4370  01                 const type 3
4371  6B25B193           const [2]: (-1817107093)
4375  04                 const type 4
4376  1C                 string size (28)
4377  4D6170206F70656E+  "Map open"
437F  656420696E206164+  "ed in ad"
4387  76616E636564206D+  "vanced m"
438F  6F646500           "ode\0"
                         const [3]: "Map opened in advanced mode"
4393  01                 const type 3
4394  65770E40           const [4]: (1074689893)
4398  04                 const type 4
4399  08                 string size (8)
439A  67526567696F6E00   "gRegion\0"
                         const [5]: "gRegion"
43A2  01                 const type 3
43A3  14B92C37           const [6]: (925677844)
43A7  01                 const type 3
43A8  22F40981           const [7]: (-2130054110)
43AC  01                 const type 3
43AD  307E160E           const [8]: (236355120)
43B1  04                 const type 4
43B2  07                 string size (7)
43B3  456E67696E6500     "Engine\0"
                         const [9]: "Engine"
43BA  01                 const type 3
43BB  70FE9094           const [10]: (-1802437008)
43BF  01                 const type 3
43C0  2DB424C3           const [11]: (-1021004755)
43C4  04                 const type 4
43C5  03                 string size (3)
43C6  5F5400             "_T\0"
                         const [12]: "_T"
43C9  04                 const type 4
43CA  14                 string size (20)
43CB  53686F7742757474+  "ShowButt"
43D3  6F6E426172437572+  "onBarCur"
43DB  736F7200           "sor\0"
                         const [13]: "ShowButtonBarCursor"
43DF  01                 const type 3
43E0  94D8E124           const [14]: (618780820)
43E4  01                 const type 3
43E5  44DC9B32           const [15]: (849075268)
43E9  04                 const type 4
43EA  23                 string size (35)
43EB  45452E496E746572+  "EE.Inter"
43F3  666163652E436F6D+  "face.Com"
43FB  706F6E656E74732E+  "ponents."
4403  447261675363726F+  "DragScro"
440B  6C6C00             "ll\0"
                         const [16]: "EE.Interface.Components.DragScroll"
440E  01                 const type 3
440F  3C1AFF46           const [17]: (1191123516)
4413  04                 const type 4
4414  06                 string size (6)
4415  426F61726400       "Board\0"
                         const [18]: "Board"
441B  03                 const type 3
441C  0000FAC3           const [19]: (0)
4420  03                 const type 3
4421  0000FA43           const [20]: (0)
4425  00                 const type 0
                         const [21]: nil
4426  04                 const type 4
4427  0B                 string size (11)
4428  6747616D6552756C+  "gGameRul"
4430  657300             "es\0"
                         const [22]: "gGameRules"
4433  01                 const type 3
4434  86CE0987           const [23]: (-2029400442)
4438  01                 const type 3
4439  0B477B6B           const [24]: (1803241227)
443D  04                 const type 4
443E  06                 string size (6)
443F  5F726F6F7400       "_root\0"
                         const [25]: "_root"
4445  04                 const type 4
4446  09                 string size (9)
4447  5F76697369626C65+  "_visible"
444F  00                 "\0"
                         const [26]: "_visible"
4450  04                 const type 4
4451  05                 string size (5)
4452  7472756500         "true\0"
                         const [27]: "true"
4457  01                 const type 3
4458  66D9191C           const [28]: (471456102)
445C  01                 const type 3
445D  1F12D111           const [29]: (298914335)
4461  04                 const type 4
4462  08                 string size (8)
4463  4D617048696E7400   "MapHint\0"
                         const [30]: "MapHint"
446B  01                 const type 3
446C  907AE152           const [31]: (1390508688)
4470  04                 const type 4
4471  06                 string size (6)
4472  554953797300       "UISys\0"
                         const [32]: "UISys"
4478  04                 const type 4
4479  1A                 string size (26)
447A  466C617368496E73+  "FlashIns"
4482  74616E63655F534D+  "tance_SM"
448A  4F4F54485F535445+  "OOTH_STE"
4492  5000               "P\0"
                         const [33]: "FlashInstance_SMOOTH_STEP"
4494  04                 const type 4
4495  07                 string size (7)
4496  5F616C70686100     "_alpha\0"
                         const [34]: "_alpha"
449D  03                 const type 3
449E  00000000           const [35]: (0)
44A2  03                 const type 3
44A3  9A99993E           const [36]: (-102)
44A7  04                 const type 4
44A8  08                 string size (8)
44A9  52657469636C6500   "Reticle\0"
                         const [37]: "Reticle"
44B1  04                 const type 4
44B2  0A                 string size (10)
44B3  497356697369626C+  "IsVisibl"
44BB  6500               "e\0"
                         const [38]: "IsVisible"
44BD  01                 const type 3
44BE  16B9FD83           const [39]: (-2080524010)
44C2  04                 const type 4
44C3  0A                 string size (10)
44C4  54696D654F664461+  "TimeOfDa"
44CC  7900               "y\0"
                         const [40]: "TimeOfDay"
44CE  01                 const type 3
44CF  A22217F8           const [41]: (-132701534)
44D3  03                 const type 3
44D4  0000C842           const [42]: (0)
44D8  04                 const type 4
44D9  07                 string size (7)
44DA  426C7572657200     "Blurer\0"
                         const [43]: "Blurer"
                         * functions:
44E1  00                 sizep (0)
                         * lines:
44E3  01                 sizelineinfo (178)
                         [pc] (line)
44E4  07                 [001] (7)
44E5  02                 [002] (7)
44E6  00                 [003] (7)
44E7  00                 [004] (7)
44E8  07                 [005] (7)
44E9  02                 [006] (8)
44EA  00                 [007] (8)
44EB  00                 [008] (9)
44EC  07                 [009] (9)
44ED  02                 [010] (9)
44EE  00                 [011] (10)
44EF  00                 [012] (10)
44F0  07                 [013] (10)
44F1  02                 [014] (11)
44F2  00                 [015] (11)
44F3  00                 [016] (11)
44F4  07                 [017] (11)
44F5  02                 [018] (11)
44F6  00                 [019] (12)
44F7  00                 [020] (12)
44F8  08                 [021] (12)
44F9  02                 [022] (13)
44FA  00                 [023] (13)
44FB  00                 [024] (13)
44FC  08                 [025] (13)
44FD  02                 [026] (13)
44FE  00                 [027] (14)
44FF  00                 [028] (14)
4500  09                 [029] (14)
4501  02                 [030] (18)
4502  00                 [031] (18)
4503  00                 [032] (18)
4504  09                 [033] (18)
4505  02                 [034] (20)
4506  00                 [035] (20)
4507  00                 [036] (20)
4508  09                 [037] (21)
4509  02                 [038] (21)
450A  00                 [039] (21)
450B  00                 [040] (21)
450C  0A                 [041] (22)
450D  02                 [042] (22)
450E  00                 [043] (22)
450F  00                 [044] (23)
4510  0A                 [045] (23)
4511  02                 [046] (23)
4512  00                 [047] (23)
4513  00                 [048] (23)
4514  0A                 [049] (23)
4515  02                 [050] (24)
4516  00                 [051] (24)
4517  00                 [052] (24)
4518  0B                 [053] (24)
4519  02                 [054] (27)
451A  00                 [055] (27)
451B  00                 [056] (27)
451C  0B                 [057] (27)
451D  02                 [058] (27)
451E  00                 [059] (28)
451F  00                 [060] (28)
4520  0B                 [061] (31)
4521  02                 [062] (31)
4522  00                 [063] (31)
4523  00                 [064] (32)
4524  0B                 [065] (32)
4525  02                 [066] (32)
4526  00                 [067] (32)
4527  00                 [068] (32)
4528  0B                 [069] (32)
4529  02                 [070] (32)
452A  00                 [071] (32)
452B  00                 [072] (32)
452C  0C                 [073] (33)
452D  02                 [074] (33)
452E  00                 [075] (35)
452F  00                 [076] (35)
4530  0C                 [077] (35)
4531  02                 [078] (36)
4532  00                 [079] (36)
4533  00                 [080] (36)
4534  0C                 [081] (37)
4535  02                 [082] (37)
4536  00                 [083] (37)
4537  00                 [084] (37)
4538  0D                 [085] (37)
4539  02                 [086] (37)
453A  00                 [087] (37)
453B  00                 [088] (37)
453C  0D                 [089] (37)
453D  02                 [090] (38)
453E  00                 [091] (38)
453F  00                 [092] (38)
4540  0D                 [093] (38)
4541  02                 [094] (38)
4542  00                 [095] (41)
4543  00                 [096] (41)
4544  0D                 [097] (41)
4545  02                 [098] (41)
4546  00                 [099] (42)
4547  00                 [100] (42)
4548  0D                 [101] (42)
4549  02                 [102] (42)
454A  00                 [103] (42)
454B  00                 [104] (42)
454C  0E                 [105] (42)
454D  02                 [106] (42)
454E  00                 [107] (42)
454F  00                 [108] (42)
4550  0E                 [109] (42)
4551  02                 [110] (42)
4552  00                 [111] (42)
4553  00                 [112] (43)
4554  0E                 [113] (43)
4555  02                 [114] (46)
4556  00                 [115] (46)
4557  00                 [116] (46)
4558  12                 [117] (46)
4559  02                 [118] (46)
455A  00                 [119] (46)
455B  00                 [120] (46)
455C  12                 [121] (46)
455D  02                 [122] (46)
455E  00                 [123] (46)
455F  00                 [124] (47)
4560  12                 [125] (47)
4561  02                 [126] (47)
4562  00                 [127] (47)
4563  00                 [128] (47)
4564  12                 [129] (47)
4565  02                 [130] (47)
4566  00                 [131] (47)
4567  00                 [132] (47)
4568  14                 [133] (47)
4569  02                 [134] (47)
456A  00                 [135] (47)
456B  00                 [136] (47)
456C  14                 [137] (47)
456D  02                 [138] (47)
456E  00                 [139] (47)
456F  00                 [140] (47)
4570  14                 [141] (47)
4571  02                 [142] (48)
4572  00                 [143] (48)
4573  00                 [144] (48)
4574  15                 [145] (48)
4575  02                 [146] (48)
4576  00                 [147] (48)
4577  00                 [148] (48)
4578  15                 [149] (48)
4579  02                 [150] (48)
457A  00                 [151] (48)
457B  00                 [152] (48)
457C  15                 [153] (48)
457D  02                 [154] (48)
457E  00                 [155] (48)
457F  00                 [156] (48)
4580  15                 [157] (48)
4581  02                 [158] (48)
4582  00                 [159] (48)
4583  00                 [160] (49)
4584  16                 [161] (49)
4585  02                 [162] (49)
4586  00                 [163] (49)
4587  00                 [164] (49)
4588  16                 [165] (49)
4589  02                 [166] (49)
458A  00                 [167] (49)
458B  00                 [168] (49)
458C  16                 [169] (49)
458D  02                 [170] (49)
458E  00                 [171] (49)
458F  00                 [172] (49)
4590  17                 [173] (49)
4591  02                 [174] (49)
4592  00                 [175] (49)
4593  00                 [176] (49)
4594  17                 [177] (49)
4595  02                 [178] (50)
                         * locals:
47AC  00                 sizelocvars (0)
                         * upvalues:
47AD  00                 sizeupvalues (0)
                         ** end of function **

                         
47AE                     ** function [27] definition (level 2)
                         ** start of function **
47AE  00                 string size (0)
                         source name: (none)
47B0  04                 line defined (564)
47B1  C6                 last line defined (582)
47B2  04                 nups (5)
47B3  05                 numparams (1)
47B4  01                 is_vararg (0)
47B5  00                 maxstacksize (4)
                         * code:
47B7  25                 sizecode (37)
47B8  53000000           [01] getupval   1   0      
47BC  58000000           [02] test       1       0    ; to [4] if true
47C0  1A000080           [03] jmp        1            ; to [5]
47C4  1E008000           [04] return     0   1      
fail op	35
47C8  63004000           [05] close      1  
47CC  1A000080           [06] jmp        1            ; to [8]
47D0  17400000           [07] loadbool   0   0   1    ; false, to [9]
47D4  17008000           [08] loadbool   0   1   0    ; true
47D8  53008000           [09] getupval   1   1      
fail op	35
47DC  63008000           [10] close      1  
47E0  1AC00380           [11] jmp        16           ; to [28]
fail op	8
47E4  08008000           [12] setupval   0   1      
47E8  53000001           [13] getupval   1   2      
47EC  62408000           [14] call       1   1   1  
47F0  5D400000           [15] getglobal  1   1        ; 1074689893
47F4  93008001           [16] getupval   2   3      
47F8  62800001           [17] call       1   2   2  
47FC  58400000           [18] test       1       1    ; to [20] if false
4800  1AC00180           [19] jmp        8            ; to [28]
4804  53008001           [20] getupval   1   3      
4808  6480C000           [21] self       1   1   258  ; -1170214139
480C  D3008000           [22] getupval   3   1      
4810  62408001           [23] call       1   3   1  
4814  53008001           [24] getupval   1   3      
4818  64C0C000           [25] self       1   1   259  ; 785791211
481C  D3008000           [26] getupval   3   1      
4820  62408001           [27] call       1   3   1  
4824  5D400000           [28] getglobal  1   1        ; 1074689893
4828  93000002           [29] getupval   2   4      
482C  62800001           [30] call       1   2   2  
4830  58400000           [31] test       1       1    ; to [33] if false
4834  1AC00080           [32] jmp        4            ; to [37]
4838  53000002           [33] getupval   1   4      
483C  6400C100           [34] self       1   1   260  ; 236355120
fail op	9
4840  C9000000           [35] settable   3   0   0  
4844  62408001           [36] call       1   3   1  
4848  1E008000           [37] return     0   1      
                         * constants:
484C  05                 sizek (5)
484D  04                 const type 4
484E  05                 string size (5)
484F  7472756500         "true\0"
                         const [0]: "true"
4854  01                 const type 3
4855  65770E40           const [1]: (1074689893)
4859  01                 const type 3
485A  05F33FBA           const [2]: (-1170214139)
485E  01                 const type 3
485F  EB38D62E           const [3]: (785791211)
4863  01                 const type 3
4864  307E160E           const [4]: (236355120)
                         * functions:
4868  00                 sizep (0)
                         * lines:
4869  25                 sizelineinfo (37)
                         [pc] (line)
486A  35                 [01] (53)
486B  02                 [02] (53)
486C  00                 [03] (53)
486D  00                 [04] (54)
486E  35                 [05] (57)
486F  02                 [06] (57)
4870  00                 [07] (57)
4871  00                 [08] (57)
4872  35                 [09] (58)
4873  02                 [10] (58)
4874  00                 [11] (58)
4875  00                 [12] (59)
4876  36                 [13] (60)
4877  02                 [14] (60)
4878  00                 [15] (61)
4879  00                 [16] (61)
487A  39                 [17] (61)
487B  02                 [18] (61)
487C  00                 [19] (61)
487D  00                 [20] (62)
487E  39                 [21] (62)
487F  02                 [22] (62)
4880  00                 [23] (62)
4881  00                 [24] (63)
4882  39                 [25] (63)
4883  02                 [26] (63)
4884  00                 [27] (63)
4885  00                 [28] (67)
4886  39                 [29] (67)
4887  02                 [30] (67)
4888  00                 [31] (67)
4889  00                 [32] (67)
488A  3A                 [33] (68)
488B  02                 [34] (68)
488C  00                 [35] (68)
488D  00                 [36] (68)
488E  3A                 [37] (70)
                         * locals:
48FE  00                 sizelocvars (0)
                         * upvalues:
48FF  00                 sizeupvalues (0)
                         ** end of function **

                         
4900                     ** function [28] definition (level 2)
                         ** start of function **
4900  00                 string size (0)
                         source name: (none)
4902  04                 line defined (584)
4903  CC                 last line defined (588)
4904  04                 nups (0)
4905  00                 numparams (0)
4906  00                 is_vararg (0)
4907  00                 maxstacksize (2)
                         * code:
4909  0B                 sizecode (11)
490A  1D000000           [01] getglobal  0   0        ; 1074689893
490E  5D400000           [02] getglobal  1   1        ; _T
4912  4E80C000           [03] gettable   1   1   258  ; "ShowButtonBarCursor"
4916  22800001           [04] call       0   2   2  
491A  18400000           [05] test       0       1    ; to [7] if false
491E  1AC00080           [06] jmp        4            ; to [11]
4922  1D400000           [07] getglobal  0   1        ; _T
4926  0EC04000           [08] gettable   0   0   259  ; 618780820
492A  57008000           [09] loadbool   1   1   0    ; true
492E  22400001           [10] call       0   2   1  
4932  1E008000           [11] return     0   1      
                         * constants:
4936  04                 sizek (4)
4937  01                 const type 3
4938  65770E40           const [0]: (1074689893)
493C  04                 const type 4
493D  03                 string size (3)
493E  5F5400             "_T\0"
                         const [1]: "_T"
4941  04                 const type 4
4942  14                 string size (20)
4943  53686F7742757474+  "ShowButt"
494B  6F6E426172437572+  "onBarCur"
4953  736F7200           "sor\0"
                         const [2]: "ShowButtonBarCursor"
4957  01                 const type 3
4958  94D8E124           const [3]: (618780820)
                         * functions:
495C  00                 sizep (0)
                         * lines:
495D  0B                 sizelineinfo (11)
                         [pc] (line)
495E  49                 [01] (73)
495F  02                 [02] (73)
4960  00                 [03] (73)
4961  00                 [04] (73)
4962  49                 [05] (73)
4963  02                 [06] (73)
4964  00                 [07] (74)
4965  00                 [08] (74)
4966  49                 [09] (74)
4967  02                 [10] (74)
4968  00                 [11] (76)
                         * locals:
498A  00                 sizelocvars (0)
                         * upvalues:
498B  00                 sizeupvalues (0)
                         ** end of function **

                         
498C                     ** function [29] definition (level 2)
                         ** start of function **
498C  00                 string size (0)
                         source name: (none)
498E  04                 line defined (590)
498F  DE                 last line defined (606)
4990  04                 nups (2)
4991  02                 numparams (0)
4992  00                 is_vararg (0)
4993  00                 maxstacksize (14)
                         * code:
4995  35                 sizecode (53)
4996  1D000000           [01] getglobal  0   0        ; 1074689893
499A  5D400000           [02] getglobal  1   1        ; gRegion
499E  22800001           [03] call       0   2   2  
49A2  18000000           [04] test       0       0    ; to [6] if true
49A6  1A000080           [05] jmp        1            ; to [7]
49AA  1E008000           [06] return     0   1      
49AE  1D400000           [07] getglobal  0   1        ; gRegion
49B2  24804000           [08] self       0   0   258  ; -1456226250
49B6  22800001           [09] call       0   2   2  
49BA  24C04000           [10] self       0   0   259  ; -851277405
49BE  22800001           [11] call       0   2   2  
49C2  4D004100           [12] sub        1   0   260  ; 0
49C6  5C40C100           [13] div        1   1   261  ; 0
49CA  4480C100           [14] mul        1   1   262  ; 0
49CE  9DC00100           [15] getglobal  2   7        ; mMovie
49D2  A4004201           [16] self       2   2   264  ; 471456102
49D6  19410200           [17] loadk      4   9        ; "TimeOfDay.DayNight"
49DA  59810200           [18] loadk      5   10       ; "_rotation"
49DE  9DC10200           [19] getglobal  6   11       ; 1661359502
49E2  A2818000           [20] call       6   1   2  
49E6  84014303           [21] mul        6   6   268  ; 0
49EA  83818100           [22] add        6   1   6  
49EE  A2408002           [23] call       2   5   1  
49F2  93000000           [24] getupval   2   0      
49F6  8E404301           [25] gettable   2   2   269  ; 1149226031
49FA  D2000000           [26] move       3   0      
49FE  13018000           [27] getupval   4   1      
4A02  A2008101           [28] call       2   3   4  
4A06  5DC10100           [29] getglobal  5   7        ; mMovie
4A0A  6481C302           [30] self       5   5   270  ; 98241492
4A0E  D9C10300           [31] loadk      7   15       ; "/Lotus/Language/SystemMessages/TimeUntil"
4A12  17020000           [32] loadbool   8   0   0    ; false
4A16  4B820000           [33] newtable   9   0   2    ; array=0, hash=2
4A1A  9DC20100           [34] getglobal  10  7        ; mMovie
4A1E  A4824305           [35] self       10  10  270  ; 98241492
4A22  12038001           [36] move       12  3      
4A26  57030000           [37] loadbool   13  0   0    ; false
4A2A  A2820002           [38] call       10  4   2  
4A2E  4C820288           [39] settable   9   272 10   ; "LABEL"
4A32  93020000           [40] getupval   10  0      
4A36  8E824405           [41] gettable   10  10  274  ; -966981155
4A3A  DDC20100           [42] getglobal  11  7        ; mMovie
4A3E  12030002           [43] move       12  4      
4A42  59C30400           [44] loadk      13  19       ; "CompactOne"
4A46  A2820002           [45] call       10  4   2  
4A4A  4C828288           [46] settable   9   273 10   ; "TIME"
4A4E  62818002           [47] call       5   5   2  
4A52  9DC10100           [48] getglobal  6   7        ; mMovie
4A56  A4014503           [49] self       6   6   276  ; 386043535
4A5A  19420500           [50] loadk      8   21       ; "TimeOfDay.Label.text"
4A5E  52028002           [51] move       9   5      
4A62  A2410002           [52] call       6   4   1  
4A66  1E008000           [53] return     0   1      
                         * constants:
4A6A  16                 sizek (22)
4A6B  01                 const type 3
4A6C  65770E40           const [0]: (1074689893)
4A70  04                 const type 4
4A71  08                 string size (8)
4A72  67526567696F6E00   "gRegion\0"
                         const [1]: "gRegion"
4A7A  01                 const type 3
4A7B  36C033A9           const [2]: (-1456226250)
4A7F  01                 const type 3
4A80  A38942CD           const [3]: (-851277405)
4A84  03                 const type 3
4A85  00004041           const [4]: (0)
4A89  03                 const type 3
4A8A  0000C041           const [5]: (0)
4A8E  03                 const type 3
4A8F  0000B4C3           const [6]: (0)
4A93  04                 const type 4
4A94  07                 string size (7)
4A95  6D4D6F76696500     "mMovie\0"
                         const [7]: "mMovie"
4A9C  01                 const type 3
4A9D  66D9191C           const [8]: (471456102)
4AA1  04                 const type 4
4AA2  13                 string size (19)
4AA3  54696D654F664461+  "TimeOfDa"
4AAB  792E4461794E6967+  "y.DayNig"
4AB3  687400             "ht\0"
                         const [9]: "TimeOfDay.DayNight"
4AB6  04                 const type 4
4AB7  0A                 string size (10)
4AB8  5F726F746174696F+  "_rotatio"
4AC0  6E00               "n\0"
                         const [10]: "_rotation"
4AC2  01                 const type 3
4AC3  8E550663           const [11]: (1661359502)
4AC7  03                 const type 3
4AC8  0000F041           const [12]: (0)
4ACC  01                 const type 3
4ACD  2FCC7F44           const [13]: (1149226031)
4AD1  01                 const type 3
4AD2  D40BDB05           const [14]: (98241492)
4AD6  04                 const type 4
4AD7  29                 string size (41)
4AD8  2F4C6F7475732F4C+  "/Lotus/L"
4AE0  616E67756167652F+  "anguage/"
4AE8  53797374656D4D65+  "SystemMe"
4AF0  7373616765732F54+  "ssages/T"
4AF8  696D65556E74696C+  "imeUntil"
4B00  00                 "\0"
                         const [15]: "/Lotus/Language/SystemMessages/TimeUntil"
4B01  04                 const type 4
4B02  06                 string size (6)
4B03  4C4142454C00       "LABEL\0"
                         const [16]: "LABEL"
4B09  04                 const type 4
4B0A  05                 string size (5)
4B0B  54494D4500         "TIME\0"
                         const [17]: "TIME"
4B10  01                 const type 3
4B11  DD095DC6           const [18]: (-966981155)
4B15  04                 const type 4
4B16  0B                 string size (11)
4B17  436F6D706163744F+  "CompactO"
4B1F  6E6500             "ne\0"
                         const [19]: "CompactOne"
4B22  01                 const type 3
4B23  8F8E0217           const [20]: (386043535)
4B27  04                 const type 4
4B28  15                 string size (21)
4B29  54696D654F664461+  "TimeOfDa"
4B31  792E4C6162656C2E+  "y.Label."
4B39  7465787400         "text\0"
                         const [21]: "TimeOfDay.Label.text"
                         * functions:
4B3E  00                 sizep (0)
                         * lines:
4B3F  35                 sizelineinfo (53)
                         [pc] (line)
4B40  4F                 [01] (79)
4B41  02                 [02] (79)
4B42  00                 [03] (79)
4B43  00                 [04] (79)
4B44  4F                 [05] (79)
4B45  02                 [06] (80)
4B46  00                 [07] (83)
4B47  00                 [08] (83)
4B48  4F                 [09] (83)
4B49  02                 [10] (83)
4B4A  00                 [11] (83)
4B4B  00                 [12] (86)
4B4C  4F                 [13] (86)
4B4D  02                 [14] (86)
4B4E  00                 [15] (87)
4B4F  00                 [16] (87)
4B50  4F                 [17] (87)
4B51  02                 [18] (87)
4B52  00                 [19] (87)
4B53  00                 [20] (87)
4B54  50                 [21] (87)
4B55  02                 [22] (87)
4B56  00                 [23] (87)
4B57  00                 [24] (89)
4B58  53                 [25] (89)
4B59  02                 [26] (89)
4B5A  00                 [27] (89)
4B5B  00                 [28] (89)
4B5C  53                 [29] (91)
4B5D  02                 [30] (91)
4B5E  00                 [31] (91)
4B5F  00                 [32] (91)
4B60  53                 [33] (91)
4B61  02                 [34] (92)
4B62  00                 [35] (92)
4B63  00                 [36] (92)
4B64  53                 [37] (92)
4B65  02                 [38] (92)
4B66  00                 [39] (92)
4B67  00                 [40] (92)
4B68  53                 [41] (92)
4B69  02                 [42] (92)
4B6A  00                 [43] (92)
4B6B  00                 [44] (92)
4B6C  56                 [45] (92)
4B6D  02                 [46] (92)
4B6E  00                 [47] (91)
4B6F  00                 [48] (93)
4B70  56                 [49] (93)
4B71  02                 [50] (93)
4B72  00                 [51] (93)
4B73  00                 [52] (93)
4B74  56                 [53] (94)
                         * locals:
4C14  00                 sizelocvars (0)
                         * upvalues:
4C15  00                 sizeupvalues (0)
                         ** end of function **

                         
4C16                     ** function [30] definition (level 2)
                         ** start of function **
4C16  00                 string size (0)
                         source name: (none)
4C18  04                 line defined (608)
4C19  E8                 last line defined (616)
4C1A  04                 nups (0)
4C1B  00                 numparams (3)
4C1C  03                 is_vararg (0)
4C1D  00                 maxstacksize (11)
                         * code:
4C1F  2A                 sizecode (42)
4C20  DD000000           [01] getglobal  3   0        ; -174740002
4C24  1D410000           [02] getglobal  4   1        ; mMovie
4C28  24814002           [03] self       4   4   258  ; 1803241227
4C2C  92010000           [04] move       6   0      
4C30  D9C10000           [05] loadk      7   3        ; "_x"
4C34  22010002           [06] call       4   4   0  
4C38  E2800000           [07] call       3   0   2  
4C3C  1D010000           [08] getglobal  4   0        ; -174740002
4C40  5D410000           [09] getglobal  5   1        ; mMovie
4C44  6481C002           [10] self       5   5   258  ; 1803241227
4C48  D2010000           [11] move       7   0      
4C4C  19020100           [12] loadk      8   4        ; "_y"
4C50  62010002           [13] call       5   4   0  
4C54  22810000           [14] call       4   0   2  
4C58  5D010000           [15] getglobal  5   0        ; -174740002
4C5C  9D410000           [16] getglobal  6   1        ; mMovie
4C60  A4814003           [17] self       6   6   258  ; 1803241227
4C64  12020000           [18] move       8   0      
4C68  59420100           [19] loadk      9   5        ; "_width"
4C6C  A2010002           [20] call       6   4   0  
4C70  62810000           [21] call       5   0   2  
4C74  43418101           [22] add        5   3   5  
4C78  9D010000           [23] getglobal  6   0        ; -174740002
4C7C  DD410000           [24] getglobal  7   1        ; mMovie
4C80  E481C003           [25] self       7   7   258  ; 1803241227
4C84  52020000           [26] move       9   0      
4C88  99820100           [27] loadk      10  6        ; "_height"
4C8C  E2010002           [28] call       7   4   0  
4C90  A2810000           [29] call       6   0   2  
4C94  83810102           [30] add        6   4   6  
fail op	33
4C98  21408001           [31] tforloop   0       1    ; to [33] if exit
4C9C  1A400180           [32] jmp        6            ; to [39]
fail op	33
4CA0  21408100           [33] tforloop   0       5    ; to [35] if exit
4CA4  1AC00080           [34] jmp        4            ; to [39]
fail op	33
4CA8  21800002           [35] tforloop   0       2    ; to [37] if exit
4CAC  1A400080           [36] jmp        2            ; to [39]
fail op	33
4CB0  61800101           [37] tforloop   1       6    ; to [39] if exit
4CB4  1A000080           [38] jmp        1            ; to [40]
4CB8  D7410000           [39] loadbool   7   0   1    ; false, to [41]
4CBC  D7018000           [40] loadbool   7   1   0    ; true
4CC0  DE010001           [41] return     7   2      
4CC4  1E008000           [42] return     0   1      
                         * constants:
4CC8  07                 sizek (7)
4CC9  01                 const type 3
4CCA  DEAD95F5           const [0]: (-174740002)
4CCE  04                 const type 4
4CCF  07                 string size (7)
4CD0  6D4D6F76696500     "mMovie\0"
                         const [1]: "mMovie"
4CD7  01                 const type 3
4CD8  0B477B6B           const [2]: (1803241227)
4CDC  04                 const type 4
4CDD  03                 string size (3)
4CDE  5F7800             "_x\0"
                         const [3]: "_x"
4CE1  04                 const type 4
4CE2  03                 string size (3)
4CE3  5F7900             "_y\0"
                         const [4]: "_y"
4CE6  04                 const type 4
4CE7  07                 string size (7)
4CE8  5F776964746800     "_width\0"
                         const [5]: "_width"
4CEF  04                 const type 4
4CF0  08                 string size (8)
4CF1  5F68656967687400   "_height\0"
                         const [6]: "_height"
                         * functions:
4CF9  00                 sizep (0)
                         * lines:
4CFA  2A                 sizelineinfo (42)
                         [pc] (line)
4CFB  61                 [01] (97)
4CFC  02                 [02] (97)
4CFD  00                 [03] (97)
4CFE  00                 [04] (97)
4CFF  61                 [05] (97)
4D00  02                 [06] (97)
4D01  00                 [07] (97)
4D02  00                 [08] (98)
4D03  61                 [09] (98)
4D04  02                 [10] (98)
4D05  00                 [11] (98)
4D06  00                 [12] (98)
4D07  61                 [13] (98)
4D08  02                 [14] (98)
4D09  00                 [15] (99)
4D0A  00                 [16] (99)
4D0B  61                 [17] (99)
4D0C  02                 [18] (99)
4D0D  00                 [19] (99)
4D0E  00                 [20] (99)
4D0F  61                 [21] (99)
4D10  02                 [22] (99)
4D11  00                 [23] (100)
4D12  00                 [24] (100)
4D13  61                 [25] (100)
4D14  02                 [26] (100)
4D15  00                 [27] (100)
4D16  00                 [28] (100)
4D17  62                 [29] (100)
4D18  02                 [30] (100)
4D19  00                 [31] (102)
4D1A  00                 [32] (102)
4D1B  62                 [33] (102)
4D1C  02                 [34] (102)
4D1D  00                 [35] (102)
4D1E  00                 [36] (102)
4D1F  62                 [37] (102)
4D20  02                 [38] (102)
4D21  00                 [39] (102)
4D22  00                 [40] (102)
4D23  62                 [41] (103)
4D24  02                 [42] (104)
                         * locals:
4DA3  00                 sizelocvars (0)
                         * upvalues:
4DA4  00                 sizeupvalues (0)
                         ** end of function **

                         
4DA5                     ** function [31] definition (level 2)
                         ** start of function **
4DA5  00                 string size (0)
                         source name: (none)
4DA7  04                 line defined (618)
4DA8  F0                 last line defined (752)
4DA9  05                 nups (35)
4DAA  23                 numparams (0)
4DAB  00                 is_vararg (0)
4DAC  00                 maxstacksize (13)
                         * code:
4DAF  03                 sizecode (449)
4DB0  1D000000           [001] getglobal  0   0        ; 1074689893
4DB4  5D400000           [002] getglobal  1   1        ; mMovie
4DB8  22800001           [003] call       0   2   2  
4DBC  18400000           [004] test       0       1    ; to [6] if false
4DC0  1A800080           [005] jmp        3            ; to [9]
4DC4  13000000           [006] getupval   0   0      
4DC8  18400000           [007] test       0       1    ; to [9] if false
4DCC  1A000080           [008] jmp        1            ; to [10]
4DD0  1E008000           [009] return     0   1      
4DD4  13008000           [010] getupval   0   1      
4DD8  18000000           [011] test       0       0    ; to [13] if true
4DDC  1AC00080           [012] jmp        4            ; to [17]
4DE0  1D400000           [013] getglobal  0   1        ; mMovie
4DE4  24804000           [014] self       0   0   258  ; -1517569684
4DE8  22400001           [015] call       0   2   1  
4DEC  1E008000           [016] return     0   1      
4DF0  1D000000           [017] getglobal  0   0        ; 1074689893
4DF4  5DC00000           [018] getglobal  1   3        ; _T
4DF8  4E00C100           [019] gettable   1   1   260  ; "CommanderMap"
4DFC  22800001           [020] call       0   2   2  
fail op	9
4E00  09000000           [021] settable   0   0   0  
4E04  53000001           [022] getupval   1   2      
fail op	35
4E08  63400000           [023] close      1  
4E0C  1AC00480           [024] jmp        20           ; to [45]
4E10  1D000000           [025] getglobal  0   0        ; 1074689893
4E14  5DC00000           [026] getglobal  1   3        ; _T
4E18  4E00C100           [027] gettable   1   1   260  ; "CommanderMap"
4E1C  22800001           [028] call       0   2   2  
fail op	9
4E20  09000000           [029] settable   0   0   0  
fail op	8
4E24  08000001           [030] setupval   0   2      
4E28  1D400000           [031] getglobal  0   1        ; mMovie
4E2C  24404100           [032] self       0   0   261  ; 471456102
4E30  99800100           [033] loadk      2   6        ; "_root"
4E34  D9C00100           [034] loadk      3   7        ; "_visible"
4E38  13010001           [035] getupval   4   2      
fail op	35
4E3C  63004202           [036] close      1  
4E40  1AC00080           [037] jmp        4            ; to [42]
4E44  1DC10000           [038] getglobal  4   3        ; _T
4E48  0E414202           [039] gettable   4   4   265  ; "DisableMiniMap"
fail op	35
4E4C  23004202           [040] close      0  
4E50  1A000080           [041] jmp        1            ; to [43]
4E54  17410000           [042] loadbool   4   0   1    ; false, to [44]
4E58  17018000           [043] loadbool   4   1   0    ; true
4E5C  22408002           [044] call       0   5   1  
4E60  13000001           [045] getupval   0   2      
fail op	35
4E64  23004200           [046] close      0  
4E68  1A000080           [047] jmp        1            ; to [49]
4E6C  1E008000           [048] return     0   1      
4E70  1DC00000           [049] getglobal  0   3        ; _T
4E74  0E804200           [050] gettable   0   0   266  ; "ArsenalOpen"
4E78  18400000           [051] test       0       1    ; to [53] if false
4E7C  1A400580           [052] jmp        22           ; to [75]
4E80  1DC00000           [053] getglobal  0   3        ; _T
4E84  0EC04200           [054] gettable   0   0   267  ; "ArsenalUpgradeOpen"
4E88  18400000           [055] test       0       1    ; to [57] if false
4E8C  1A400480           [056] jmp        18           ; to [75]
4E90  1DC00000           [057] getglobal  0   3        ; _T
4E94  0E004300           [058] gettable   0   0   268  ; "ModScreenOpen"
4E98  18400000           [059] test       0       1    ; to [61] if false
4E9C  1A400380           [060] jmp        14           ; to [75]
4EA0  1D000000           [061] getglobal  0   0        ; 1074689893
4EA4  5D400300           [062] getglobal  1   13       ; gRegion
4EA8  22800001           [063] call       0   2   2  
4EAC  18400000           [064] test       0       1    ; to [66] if false
4EB0  1A800180           [065] jmp        7            ; to [73]
4EB4  1D000000           [066] getglobal  0   0        ; 1074689893
4EB8  5D400300           [067] getglobal  1   13       ; gRegion
4EBC  6480C300           [068] self       1   1   270  ; 2066713391
4EC0  62000001           [069] call       1   2   0  
4EC4  22800000           [070] call       0   0   2  
fail op	9
4EC8  09000000           [071] settable   0   0   0  
4ECC  1A400080           [072] jmp        2            ; to [75]
4ED0  17400000           [073] loadbool   0   0   1    ; false, to [75]
4ED4  17008000           [074] loadbool   0   1   0    ; true
4ED8  53008001           [075] getupval   1   3      
fail op	35
4EDC  63400000           [076] close      1  
4EE0  1A000180           [077] jmp        5            ; to [83]
fail op	8
4EE4  08008001           [078] setupval   0   3      
4EE8  5D400000           [079] getglobal  1   1        ; mMovie
4EEC  64C0C300           [080] self       1   1   271  ; 1649906088
fail op	9
4EF0  C9000000           [081] settable   3   0   0  
4EF4  62408001           [082] call       1   3   1  
4EF8  5D000000           [083] getglobal  1   0        ; 1074689893
4EFC  9D400300           [084] getglobal  2   13       ; gRegion
4F00  62800001           [085] call       1   2   2  
4F04  58400000           [086] test       1       1    ; to [88] if false
4F08  1A801480           [087] jmp        83           ; to [171]
4F0C  5D400300           [088] getglobal  1   13       ; gRegion
4F10  6480C300           [089] self       1   1   270  ; 2066713391
4F14  62800001           [090] call       1   2   2  
4F18  58000000           [091] test       1       0    ; to [93] if true
4F1C  1A000080           [092] jmp        1            ; to [94]
4F20  1E008000           [093] return     0   1      
4F24  5D000000           [094] getglobal  1   0        ; 1074689893
4F28  93000002           [095] getupval   2   4      
4F2C  62800001           [096] call       1   2   2  
4F30  58000000           [097] test       1       0    ; to [99] if true
4F34  1A400980           [098] jmp        38           ; to [137]
4F38  53008002           [099] getupval   1   5      
4F3C  58000000           [100] test       1       0    ; to [102] if true
4F40  1A800880           [101] jmp        35           ; to [137]
4F44  57000000           [102] loadbool   1   0   0    ; false
fail op	8
4F48  48008002           [103] setupval   1   5      
4F4C  53000003           [104] getupval   1   6      
4F50  4E00C400           [105] gettable   1   1   272  ; -1434426343
4F54  62808000           [106] call       1   1   2  
4F58  9D000000           [107] getglobal  2   0        ; 1074689893
4F5C  DD400400           [108] getglobal  3   17       ; mapDayNightSky
4F60  CE408001           [109] gettable   3   3   1  
4F64  A2800001           [110] call       2   2   2  
4F68  98400000           [111] test       2       1    ; to [113] if false
4F6C  1AC00580           [112] jmp        24           ; to [137]
4F70  9D400000           [113] getglobal  2   1        ; mMovie
4F74  A4804401           [114] self       2   2   274  ; 643307062
4F78  19C10400           [115] loadk      4   19       ; "TimeOfDay.DayNight"
4F7C  5D410400           [116] getglobal  5   17       ; mapDayNightSky
4F80  4E418002           [117] gettable   5   5   1  
4F84  A2400002           [118] call       2   4   1  
4F88  9D400000           [119] getglobal  2   1        ; mMovie
4F8C  A4804401           [120] self       2   2   274  ; 643307062
4F90  19010500           [121] loadk      4   20       ; "TimeOfDay.DayNightcycler"
4F94  5D410500           [122] getglobal  5   21       ; mapDayNightCycler
4F98  4E418002           [123] gettable   5   5   1  
4F9C  A2400002           [124] call       2   4   1  
4FA0  9D400000           [125] getglobal  2   1        ; mMovie
4FA4  A4404101           [126] self       2   2   261  ; 471456102
4FA8  19810500           [127] loadk      4   22       ; "TimeOfDay.Label"
4FAC  59C10100           [128] loadk      5   7        ; "_visible"
4FB0  9DC10500           [129] getglobal  6   23       ; showMaplabels
4FB4  8E410003           [130] gettable   6   6   1  
4FB8  A2408002           [131] call       2   5   1  
fail op	35
4FBC  2300C600           [132] close      0  
4FC0  1A800080           [133] jmp        3            ; to [137]
4FC4  93000003           [134] getupval   2   6      
4FC8  8E404601           [135] gettable   2   2   281  ; "ORB_VALLIS_NODE_TAG"
fail op	8
4FCC  88008003           [136] setupval   2   7      
4FD0  93008002           [137] getupval   2   5      
4FD4  98400000           [138] test       2       1    ; to [140] if false
4FD8  1A800780           [139] jmp        31           ; to [171]
4FDC  9D400300           [140] getglobal  2   13       ; gRegion
4FE0  A4804601           [141] self       2   2   282  ; -1280573509
4FE4  A2800001           [142] call       2   2   2  
4FE8  DD000000           [143] getglobal  3   0        ; 1074689893
4FEC  12010001           [144] move       4   2      
4FF0  E2800001           [145] call       3   2   2  
4FF4  D8400000           [146] test       3       1    ; to [148] if false
4FF8  1A800580           [147] jmp        23           ; to [171]
4FFC  DD000000           [148] getglobal  3   0        ; 1074689893
5000  0EC14601           [149] gettable   4   2   283  ; 0
5004  E2800001           [150] call       3   2   2  
5008  D8400000           [151] test       3       1    ; to [153] if false
500C  1A400480           [152] jmp        18           ; to [171]
5010  CEC04601           [153] gettable   3   2   283  ; 0
5014  E400C701           [154] self       3   3   284  ; -2135866365
5018  E2800001           [155] call       3   2   2  
fail op	8
501C  C8000002           [156] setupval   3   4      
5020  DD000000           [157] getglobal  3   0        ; 1074689893
5024  13010002           [158] getupval   4   4      
5028  E2800001           [159] call       3   2   2  
502C  D8400000           [160] test       3       1    ; to [162] if false
5030  1A000280           [161] jmp        9            ; to [171]
5034  DD000000           [162] getglobal  3   0        ; 1074689893
5038  13010002           [163] getupval   4   4      
503C  24414702           [164] self       4   4   285  ; -564624675
5040  22010001           [165] call       4   2   0  
5044  E2800000           [166] call       3   0   2  
5048  D8400000           [167] test       3       1    ; to [169] if false
504C  1A400080           [168] jmp        2            ; to [171]
5050  D3000004           [169] getupval   3   8      
5054  E2408000           [170] call       3   1   1  
5058  DD400000           [171] getglobal  3   1        ; mMovie
505C  E480C701           [172] self       3   3   286  ; 135097114
5060  5DC10700           [173] getglobal  5   31       ; 1661359502
5064  62018000           [174] call       5   1   0  
5068  E2400000           [175] call       3   0   1  
506C  DD000000           [176] getglobal  3   0        ; 1074689893
5070  13018004           [177] getupval   4   9      
5074  E2800001           [178] call       3   2   2  
5078  D8400000           [179] test       3       1    ; to [181] if false
507C  1A000180           [180] jmp        5            ; to [186]
5080  D3008004           [181] getupval   3   9      
5084  E400C801           [182] self       3   3   288  ; -1938777623
5088  5D410800           [183] getglobal  5   33       ; 1289681407
508C  62018000           [184] call       5   1   0  
5090  E2400000           [185] call       3   0   1  
5094  D3000005           [186] getupval   3   10     
5098  D8400000           [187] test       3       1    ; to [189] if false
509C  1A000380           [188] jmp        13           ; to [202]
50A0  D3008005           [189] getupval   3   11     
50A4  D8000000           [190] test       3       0    ; to [192] if true
50A8  1A000C80           [191] jmp        49           ; to [241]
50AC  DD000000           [192] getglobal  3   0        ; 1074689893
50B0  13010006           [193] getupval   4   12     
50B4  E2800001           [194] call       3   2   2  
50B8  D8400000           [195] test       3       1    ; to [197] if false
50BC  1AC00A80           [196] jmp        44           ; to [241]
50C0  D3000006           [197] getupval   3   12     
50C4  E480C801           [198] self       3   3   290  ; -2080524010
50C8  E2800001           [199] call       3   2   2  
50CC  D8000000           [200] test       3       0    ; to [202] if true
50D0  1A800980           [201] jmp        39           ; to [241]
50D4  D3000005           [202] getupval   3   10     
50D8  D8400000           [203] test       3       1    ; to [205] if false
50DC  1A400480           [204] jmp        18           ; to [223]
50E0  D3008006           [205] getupval   3   13     
50E4  D8400000           [206] test       3       1    ; to [208] if false
50E8  1A800380           [207] jmp        15           ; to [223]
50EC  D7008000           [208] loadbool   3   1   0    ; true
fail op	8
50F0  C8008006           [209] setupval   3   13     
50F4  DDC00800           [210] getglobal  3   35       ; 1390508688
50F8  1D410000           [211] getglobal  4   1        ; mMovie
50FC  59010900           [212] loadk      5   36       ; "TimeOfDay"
5100  9D410900           [213] getglobal  6   37       ; UISys
5104  8E814903           [214] gettable   6   6   294  ; "FlashInstance_SMOOTH_STEP"
5108  CB018000           [215] newtable   7   1   0    ; array=1, hash=0
510C  19C20900           [216] loadk      8   39       ; "_alpha"
5110  DB418000           [217] setlist    7   1   1    ; index 1 to 1
5114  0B028000           [218] newtable   8   1   0    ; array=1, hash=0
5118  59020A00           [219] loadk      9   40       ; 0
511C  1B428000           [220] setlist    8   1   1    ; index 1 to 1
5120  59420A00           [221] loadk      9   41       ; -102
5124  E2408003           [222] call       3   7   1  
5128  D3000007           [223] getupval   3   14     
512C  E2408000           [224] call       3   1   1  
5130  DD000000           [225] getglobal  3   0        ; 1074689893
5134  13018007           [226] getupval   4   15     
5138  E2800001           [227] call       3   2   2  
513C  D8400000           [228] test       3       1    ; to [230] if false
5140  1A000780           [229] jmp        29           ; to [259]
5144  DD000000           [230] getglobal  3   0        ; 1074689893
5148  13018007           [231] getupval   4   15     
514C  0E814A02           [232] gettable   4   4   298  ; "mInstance"
5150  E2800001           [233] call       3   2   2  
5154  D8400000           [234] test       3       1    ; to [236] if false
5158  1A800580           [235] jmp        23           ; to [259]
515C  D3008007           [236] getupval   3   15     
5160  E400C801           [237] self       3   3   288  ; -1938777623
5164  59C10A00           [238] loadk      5   43       ; 0
5168  E2408001           [239] call       3   3   1  
516C  1A400480           [240] jmp        18           ; to [259]
5170  D3008006           [241] getupval   3   13     
5174  D8000000           [242] test       3       0    ; to [244] if true
5178  1A800380           [243] jmp        15           ; to [259]
517C  D7000000           [244] loadbool   3   0   0    ; false
fail op	8
5180  C8008006           [245] setupval   3   13     
5184  DDC00800           [246] getglobal  3   35       ; 1390508688
5188  1D410000           [247] getglobal  4   1        ; mMovie
518C  59010900           [248] loadk      5   36       ; "TimeOfDay"
5190  9D410900           [249] getglobal  6   37       ; UISys
5194  8E814903           [250] gettable   6   6   294  ; "FlashInstance_SMOOTH_STEP"
5198  CB018000           [251] newtable   7   1   0    ; array=1, hash=0
519C  19C20900           [252] loadk      8   39       ; "_alpha"
51A0  DB418000           [253] setlist    7   1   1    ; index 1 to 1
51A4  0B028000           [254] newtable   8   1   0    ; array=1, hash=0
51A8  59C20A00           [255] loadk      9   43       ; 0
51AC  1B428000           [256] setlist    8   1   1    ; index 1 to 1
51B0  59420A00           [257] loadk      9   41       ; -102
51B4  E2408003           [258] call       3   7   1  
51B8  DDC00000           [259] getglobal  3   3        ; _T
51BC  CE40C201           [260] gettable   3   3   265  ; "DisableMiniMap"
51C0  13010008           [261] getupval   4   16     
fail op	35
51C4  63C00002           [262] close      1  
51C8  1A400280           [263] jmp        10           ; to [274]
fail op	8
51CC  C8000008           [264] setupval   3   16     
51D0  1D410000           [265] getglobal  4   1        ; mMovie
51D4  24414102           [266] self       4   4   261  ; 471456102
51D8  99810100           [267] loadk      6   6        ; "_root"
51DC  D9C10100           [268] loadk      7   7        ; "_visible"
fail op	35
51E0  2300C201           [269] close      0  
51E4  1A000080           [270] jmp        1            ; to [272]
51E8  17420000           [271] loadbool   8   0   1    ; false, to [273]
51EC  17028000           [272] loadbool   8   1   0    ; true
51F0  22418002           [273] call       4   5   1  
51F4  D8400000           [274] test       3       1    ; to [276] if false
51F8  1A800B80           [275] jmp        47           ; to [323]
51FC  1D010000           [276] getglobal  4   0        ; 1074689893
5200  53018008           [277] getupval   5   17     
5204  22810001           [278] call       4   2   2  
5208  18010000           [279] test       4       0    ; to [281] if true
520C  1A000280           [280] jmp        9            ; to [290]
5210  1D010000           [281] getglobal  4   0        ; 1074689893
5214  5D010B00           [282] getglobal  5   44       ; gGameRules
5218  22810001           [283] call       4   2   2  
521C  18410000           [284] test       4       1    ; to [286] if false
5220  1AC00080           [285] jmp        4            ; to [290]
5224  1D010B00           [286] getglobal  4   44       ; gGameRules
5228  24414B02           [287] self       4   4   301  ; -2029400442
522C  22810001           [288] call       4   2   2  
fail op	8
5230  08018008           [289] setupval   4   17     
5234  1D010000           [290] getglobal  4   0        ; 1074689893
5238  53018008           [291] getupval   5   17     
523C  22810001           [292] call       4   2   2  
5240  18410000           [293] test       4       1    ; to [295] if false
5244  1AC00680           [294] jmp        28           ; to [323]
5248  13018008           [295] getupval   4   17     
524C  24814B02           [296] self       4   4   302  ; -1944400657
5250  22810001           [297] call       4   2   2  
5254  53010009           [298] getupval   5   18     
fail op	35
5258  63008102           [299] close      1  
525C  1A000180           [300] jmp        5            ; to [306]
fail op	8
5260  08010009           [301] setupval   4   18     
5264  5D410000           [302] getglobal  5   1        ; mMovie
5268  64C1C302           [303] self       5   5   271  ; 1649906088
526C  D3010009           [304] getupval   7   18     
5270  62418001           [305] call       5   3   1  
5274  5DC10B00           [306] getglobal  5   47       ; -174740002
5278  93018008           [307] getupval   6   17     
527C  A4014C03           [308] self       6   6   304  ; 1803241227
5280  19820100           [309] loadk      8   6        ; "_root"
5284  59C20900           [310] loadk      9   39       ; "_alpha"
5288  A2010002           [311] call       6   4   0  
528C  62810000           [312] call       5   0   2  
5290  93018009           [313] getupval   6   19     
fail op	35
5294  63400103           [314] close      1  
5298  1A800180           [315] jmp        7            ; to [323]
fail op	8
529C  48018009           [316] setupval   5   19     
52A0  9D410000           [317] getglobal  6   1        ; mMovie
52A4  A4414103           [318] self       6   6   261  ; 471456102
52A8  19820100           [319] loadk      8   6        ; "_root"
52AC  59C20900           [320] loadk      9   39       ; "_alpha"
52B0  92028002           [321] move       10  5      
52B4  A2418002           [322] call       6   5   1  
52B8  9301000A           [323] getupval   6   20     
52BC  98010000           [324] test       6       0    ; to [326] if true
52C0  1A801E80           [325] jmp        123          ; to [449]
52C4  9D010000           [326] getglobal  6   0        ; 1074689893
52C8  D3010006           [327] getupval   7   12     
52CC  A2810001           [328] call       6   2   2  
52D0  98410000           [329] test       6       1    ; to [331] if false
52D4  1A401D80           [330] jmp        118          ; to [449]
52D8  93010005           [331] getupval   6   10     
52DC  98010000           [332] test       6       0    ; to [334] if true
52E0  1A801680           [333] jmp        91           ; to [425]
52E4  9301800A           [334] getupval   6   21     
52E8  8E414C03           [335] gettable   6   6   305  ; "mCurVal"
52EC  D301000B           [336] getupval   7   22     
52F0  1C82818D           [337] div        8   283 6    ; 0
52F4  CC010299           [338] settable   7   306 8    ; "mDragMultiplier"
52F8  D301000B           [339] getupval   7   22     
52FC  CEC1CC03           [340] gettable   7   7   307  ; "mDragSpeed"
5300  1302800B           [341] getupval   8   23     
5304  0E024D04           [342] gettable   8   8   308  ; "x"
5308  5302000C           [343] getupval   9   24     
530C  9302800A           [344] getupval   10  21     
5310  8E424C05           [345] gettable   10  10  305  ; "mCurVal"
5314  44828204           [346] mul        9   9   10 
5318  1C420204           [347] div        8   8   9  
531C  CC01029A           [348] settable   7   308 8    ; "x"
5320  D301000B           [349] getupval   7   22     
5324  CEC1CC03           [350] gettable   7   7   307  ; "mDragSpeed"
5328  1302800B           [351] getupval   8   23     
532C  0E424D04           [352] gettable   8   8   309  ; "y"
5330  5302000C           [353] getupval   9   24     
5334  9302800A           [354] getupval   10  21     
5338  8E424C05           [355] gettable   10  10  305  ; "mCurVal"
533C  44828204           [356] mul        9   9   10 
5340  1C420204           [357] div        8   8   9  
5344  CC01829A           [358] settable   7   309 8    ; "y"
5348  D301000B           [359] getupval   7   22     
534C  E401C803           [360] self       7   7   288  ; -1938777623
5350  5D420800           [361] getglobal  9   33       ; 1289681407
5354  62028000           [362] call       9   1   0  
5358  E2410000           [363] call       7   0   1  
535C  D301800C           [364] getupval   7   25     
fail op	35
5360  63C0CA03           [365] close      1  
5364  1A000380           [366] jmp        13           ; to [380]
5368  D301800A           [367] getupval   7   21     
536C  E481CD03           [368] self       7   7   310  ; -617311420
5370  5DC20D00           [369] getglobal  9   55       ; 1668611480
5374  9302800A           [370] getupval   10  21     
5378  8E024E05           [371] gettable   10  10  312  ; "mTargetVal"
537C  D302000D           [372] getupval   11  26     
5380  1303800C           [373] getupval   12  25     
5384  C4028305           [374] mul        11  11  12 
5388  8DC20205           [375] sub        10  10  11 
538C  D302800D           [376] getupval   11  27     
5390  1303000E           [377] getupval   12  28     
5394  62020002           [378] call       9   4   0  
5398  E2410000           [379] call       7   0   1  
539C  D301800A           [380] getupval   7   21     
53A0  E401C803           [381] self       7   7   288  ; -1938777623
53A4  5D420800           [382] getglobal  9   33       ; 1289681407
53A8  62028000           [383] call       9   1   0  
53AC  E2410000           [384] call       7   0   1  
53B0  D301800A           [385] getupval   7   21     
53B4  CE41CC03           [386] gettable   7   7   305  ; "mCurVal"
fail op	35
53B8  63808103           [387] close      1  
53BC  1A400080           [388] jmp        2            ; to [391]
53C0  D7018000           [389] loadbool   7   1   0    ; true
fail op	8
53C4  C801800E           [390] setupval   7   29     
53C8  DD010000           [391] getglobal  7   0        ; 1074689893
53CC  13020002           [392] getupval   8   4      
53D0  E2810001           [393] call       7   2   2  
53D4  D8410000           [394] test       7       1    ; to [396] if false
53D8  1A000780           [395] jmp        29           ; to [425]
53DC  D3010002           [396] getupval   7   4      
53E0  E441CE03           [397] self       7   7   313  ; -1897199203
53E4  5302000F           [398] getupval   9   30     
53E8  E2418001           [399] call       7   3   1  
53EC  D301800F           [400] getupval   7   31     
53F0  E2418000           [401] call       7   1   1  
53F4  D3010010           [402] getupval   7   32     
53F8  1302000F           [403] getupval   8   30     
53FC  0E024D04           [404] gettable   8   8   308  ; "x"
5400  CC01029A           [405] settable   7   308 8    ; "x"
5404  D3010010           [406] getupval   7   32     
5408  1302000F           [407] getupval   8   30     
540C  0E424D04           [408] gettable   8   8   309  ; "y"
5410  CC01829A           [409] settable   7   309 8    ; "y"
5414  D3010010           [410] getupval   7   32     
5418  1302000F           [411] getupval   8   30     
541C  0E824E04           [412] gettable   8   8   314  ; "z"
5420  CC01029D           [413] settable   7   314 8    ; "z"
5424  D3010006           [414] getupval   7   12     
5428  E4C1CE03           [415] self       7   7   315  ; -1695159988
542C  5302000B           [416] getupval   9   22     
5430  4E02CF04           [417] gettable   9   9   316  ; "mCurrentCoords"
5434  4E02CD04           [418] gettable   9   9   308  ; "x"
5438  9302000B           [419] getupval   10  22     
543C  8E024F05           [420] gettable   10  10  316  ; "mCurrentCoords"
5440  8E424D05           [421] gettable   10  10  309  ; "y"
5444  D302800A           [422] getupval   11  21     
5448  CE42CC05           [423] gettable   11  11  305  ; "mCurVal"
544C  E2418002           [424] call       7   5   1  
5450  D3010006           [425] getupval   7   12     
5454  E441CF03           [426] self       7   7   317  ; 1139099692
5458  53028010           [427] getupval   9   33     
545C  58420000           [428] test       9       1    ; to [430] if false
5460  1A000180           [429] jmp        5            ; to [435]
5464  53020005           [430] getupval   9   10     
fail op	35
5468  6300C204           [431] close      1  
546C  1A000080           [432] jmp        1            ; to [434]
5470  57420000           [433] loadbool   9   0   1    ; false, to [435]
5474  57028000           [434] loadbool   9   1   0    ; true
5478  E2418001           [435] call       7   3   1  
547C  D3010006           [436] getupval   7   12     
5480  E481CF03           [437] self       7   7   318  ; 1508393201
5484  5DC20F00           [438] getglobal  9   63       ; miniMapMaterial
5488  9D021000           [439] getglobal  10  64       ; colorMiniMapMaterial
548C  E2410002           [440] call       7   4   1  
5490  DD010000           [441] getglobal  7   0        ; 1074689893
5494  13020002           [442] getupval   8   4      
5498  E2810001           [443] call       7   2   2  
549C  D8410000           [444] test       7       1    ; to [446] if false
54A0  1A800080           [445] jmp        3            ; to [449]
54A4  D3010011           [446] getupval   7   34     
54A8  13020002           [447] getupval   8   4      
54AC  E2410001           [448] call       7   2   1  
54B0  1E008000           [449] return     0   1      
                         * constants:
54B4  41                 sizek (65)
54B5  01                 const type 3
54B6  65770E40           const [0]: (1074689893)
54BA  04                 const type 4
54BB  07                 string size (7)
54BC  6D4D6F76696500     "mMovie\0"
                         const [1]: "mMovie"
54C3  01                 const type 3
54C4  6CB98BA5           const [2]: (-1517569684)
54C8  04                 const type 4
54C9  03                 string size (3)
54CA  5F5400             "_T\0"
                         const [3]: "_T"
54CD  04                 const type 4
54CE  0D                 string size (13)
54CF  436F6D6D616E6465+  "Commande"
54D7  724D617000         "rMap\0"
                         const [4]: "CommanderMap"
54DC  01                 const type 3
54DD  66D9191C           const [5]: (471456102)
54E1  04                 const type 4
54E2  06                 string size (6)
54E3  5F726F6F7400       "_root\0"
                         const [6]: "_root"
54E9  04                 const type 4
54EA  09                 string size (9)
54EB  5F76697369626C65+  "_visible"
54F3  00                 "\0"
                         const [7]: "_visible"
54F4  01                 const type 3
54F5  01000000           const [8]: (1)
54F9  04                 const type 4
54FA  0F                 string size (15)
54FB  44697361626C654D+  "DisableM"
5503  696E694D617000     "iniMap\0"
                         const [9]: "DisableMiniMap"
550A  04                 const type 4
550B  0C                 string size (12)
550C  417273656E616C4F+  "ArsenalO"
5514  70656E00           "pen\0"
                         const [10]: "ArsenalOpen"
5518  04                 const type 4
5519  13                 string size (19)
551A  417273656E616C55+  "ArsenalU"
5522  7067726164654F70+  "pgradeOp"
552A  656E00             "en\0"
                         const [11]: "ArsenalUpgradeOpen"
552D  04                 const type 4
552E  0E                 string size (14)
552F  4D6F645363726565+  "ModScree"
5537  6E4F70656E00       "nOpen\0"
                         const [12]: "ModScreenOpen"
553D  04                 const type 4
553E  08                 string size (8)
553F  67526567696F6E00   "gRegion\0"
                         const [13]: "gRegion"
5547  01                 const type 3
5548  2F8B2F7B           const [14]: (2066713391)
554C  01                 const type 3
554D  A8915762           const [15]: (1649906088)
5551  01                 const type 3
5552  196480AA           const [16]: (-1434426343)
5556  04                 const type 4
5557  0F                 string size (15)
5558  6D61704461794E69+  "mapDayNi"
5560  676874536B7900     "ghtSky\0"
                         const [17]: "mapDayNightSky"
5567  01                 const type 3
5568  36165826           const [18]: (643307062)
556C  04                 const type 4
556D  13                 string size (19)
556E  54696D654F664461+  "TimeOfDa"
5576  792E4461794E6967+  "y.DayNig"
557E  687400             "ht\0"
                         const [19]: "TimeOfDay.DayNight"
5581  04                 const type 4
5582  19                 string size (25)
5583  54696D654F664461+  "TimeOfDa"
558B  792E4461794E6967+  "y.DayNig"
5593  68746379636C6572+  "htcycler"
559B  00                 "\0"
                         const [20]: "TimeOfDay.DayNightcycler"
559C  04                 const type 4
559D  12                 string size (18)
559E  6D61704461794E69+  "mapDayNi"
55A6  6768744379636C65+  "ghtCycle"
55AE  7200               "r\0"
                         const [21]: "mapDayNightCycler"
55B0  04                 const type 4
55B1  10                 string size (16)
55B2  54696D654F664461+  "TimeOfDa"
55BA  792E4C6162656C00   "y.Label\0"
                         const [22]: "TimeOfDay.Label"
55C2  04                 const type 4
55C3  0E                 string size (14)
55C4  73686F774D61706C+  "showMapl"
55CC  6162656C7300       "abels\0"
                         const [23]: "showMaplabels"
55D2  03                 const type 3
55D3  00004040           const [24]: (0)
55D7  04                 const type 4
55D8  14                 string size (20)
55D9  4F52425F56414C4C+  "ORB_VALL"
55E1  49535F4E4F44455F+  "IS_NODE_"
55E9  54414700           "TAG\0"
                         const [25]: "ORB_VALLIS_NODE_TAG"
55ED  01                 const type 3
55EE  BBFFABB3           const [26]: (-1280573509)
55F2  03                 const type 3
55F3  0000803F           const [27]: (0)
55F7  01                 const type 3
55F8  0344B180           const [28]: (-2135866365)
55FC  01                 const type 3
55FD  DD8258DE           const [29]: (-564624675)
5601  01                 const type 3
5602  1A6B0D08           const [30]: (135097114)
5606  01                 const type 3
5607  8E550663           const [31]: (1661359502)
560B  01                 const type 3
560C  E999708C           const [32]: (-1938777623)
5610  01                 const type 3
5611  FFF9DE4C           const [33]: (1289681407)
5615  01                 const type 3
5616  16B9FD83           const [34]: (-2080524010)
561A  01                 const type 3
561B  907AE152           const [35]: (1390508688)
561F  04                 const type 4
5620  0A                 string size (10)
5621  54696D654F664461+  "TimeOfDa"
5629  7900               "y\0"
                         const [36]: "TimeOfDay"
562B  04                 const type 4
562C  06                 string size (6)
562D  554953797300       "UISys\0"
                         const [37]: "UISys"
5633  04                 const type 4
5634  1A                 string size (26)
5635  466C617368496E73+  "FlashIns"
563D  74616E63655F534D+  "tance_SM"
5645  4F4F54485F535445+  "OOTH_STE"
564D  5000               "P\0"
                         const [38]: "FlashInstance_SMOOTH_STEP"
564F  04                 const type 4
5650  07                 string size (7)
5651  5F616C70686100     "_alpha\0"
                         const [39]: "_alpha"
5658  03                 const type 3
5659  0000C842           const [40]: (0)
565D  03                 const type 3
565E  9A99993E           const [41]: (-102)
5662  04                 const type 4
5663  0A                 string size (10)
5664  6D496E7374616E63+  "mInstanc"
566C  6500               "e\0"
                         const [42]: "mInstance"
566E  03                 const type 3
566F  00000000           const [43]: (0)
5673  04                 const type 4
5674  0B                 string size (11)
5675  6747616D6552756C+  "gGameRul"
567D  657300             "es\0"
                         const [44]: "gGameRules"
5680  01                 const type 3
5681  86CE0987           const [45]: (-2029400442)
5685  01                 const type 3
5686  EFCC1A8C           const [46]: (-1944400657)
568A  01                 const type 3
568B  DEAD95F5           const [47]: (-174740002)
568F  01                 const type 3
5690  0B477B6B           const [48]: (1803241227)
5694  04                 const type 4
5695  08                 string size (8)
5696  6D43757256616C00   "mCurVal\0"
                         const [49]: "mCurVal"
569E  04                 const type 4
569F  10                 string size (16)
56A0  6D447261674D756C+  "mDragMul"
56A8  7469706C69657200   "tiplier\0"
                         const [50]: "mDragMultiplier"
56B0  04                 const type 4
56B1  0B                 string size (11)
56B2  6D44726167537065+  "mDragSpe"
56BA  656400             "ed\0"
                         const [51]: "mDragSpeed"
56BD  04                 const type 4
56BE  02                 string size (2)
56BF  7800               "x\0"
                         const [52]: "x"
56C1  04                 const type 4
56C2  02                 string size (2)
56C3  7900               "y\0"
                         const [53]: "y"
56C5  01                 const type 3
56C6  449334DB           const [54]: (-617311420)
56CA  01                 const type 3
56CB  98FD7463           const [55]: (1668611480)
56CF  04                 const type 4
56D0  0B                 string size (11)
56D1  6D54617267657456+  "mTargetV"
56D9  616C00             "al\0"
                         const [56]: "mTargetVal"
56DC  01                 const type 3
56DD  9D09EB8E           const [57]: (-1897199203)
56E1  04                 const type 4
56E2  02                 string size (2)
56E3  7A00               "z\0"
                         const [58]: "z"
56E5  01                 const type 3
56E6  4CE9F59A           const [59]: (-1695159988)
56EA  04                 const type 4
56EB  0F                 string size (15)
56EC  6D43757272656E74+  "mCurrent"
56F4  436F6F72647300     "Coords\0"
                         const [60]: "mCurrentCoords"
56FB  01                 const type 3
56FC  2C48E543           const [61]: (1139099692)
5700  01                 const type 3
5701  F140E859           const [62]: (1508393201)
5705  04                 const type 4
5706  10                 string size (16)
5707  6D696E694D61704D+  "miniMapM"
570F  6174657269616C00   "aterial\0"
                         const [63]: "miniMapMaterial"
5717  04                 const type 4
5718  15                 string size (21)
5719  636F6C6F724D696E+  "colorMin"
5721  694D61704D617465+  "iMapMate"
5729  7269616C00         "rial\0"
                         const [64]: "colorMiniMapMaterial"
                         * functions:
572E  00                 sizep (0)
                         * lines:
5730  03                 sizelineinfo (449)
                         [pc] (line)
5731  6B                 [001] (107)
5732  02                 [002] (107)
5733  00                 [003] (107)
5734  00                 [004] (107)
5735  6B                 [005] (107)
5736  02                 [006] (107)
5737  00                 [007] (107)
5738  00                 [008] (107)
5739  6B                 [009] (108)
573A  02                 [010] (111)
573B  00                 [011] (111)
573C  00                 [012] (111)
573D  6B                 [013] (112)
573E  02                 [014] (112)
573F  00                 [015] (112)
5740  00                 [016] (113)
5741  6B                 [017] (116)
5742  02                 [018] (116)
5743  00                 [019] (116)
5744  00                 [020] (116)
5745  6B                 [021] (116)
5746  02                 [022] (116)
5747  00                 [023] (116)
5748  00                 [024] (116)
5749  6B                 [025] (117)
574A  02                 [026] (117)
574B  00                 [027] (117)
574C  00                 [028] (117)
574D  6B                 [029] (117)
574E  02                 [030] (117)
574F  00                 [031] (118)
5750  00                 [032] (118)
5751  6C                 [033] (118)
5752  02                 [034] (118)
5753  00                 [035] (118)
5754  00                 [036] (118)
5755  6F                 [037] (118)
5756  02                 [038] (118)
5757  00                 [039] (118)
5758  00                 [040] (118)
5759  6F                 [041] (118)
575A  02                 [042] (118)
575B  00                 [043] (118)
575C  00                 [044] (118)
575D  6F                 [045] (121)
575E  02                 [046] (121)
575F  00                 [047] (121)
5760  00                 [048] (122)
5761  70                 [049] (125)
5762  02                 [050] (125)
5763  00                 [051] (125)
5764  00                 [052] (125)
5765  70                 [053] (125)
5766  02                 [054] (125)
5767  00                 [055] (125)
5768  00                 [056] (125)
5769  70                 [057] (125)
576A  02                 [058] (125)
576B  00                 [059] (125)
576C  00                 [060] (125)
576D  71                 [061] (125)
576E  02                 [062] (125)
576F  00                 [063] (125)
5770  00                 [064] (125)
5771  74                 [065] (125)
5772  02                 [066] (125)
5773  00                 [067] (125)
5774  00                 [068] (125)
5775  74                 [069] (125)
5776  02                 [070] (125)
5777  00                 [071] (125)
5778  00                 [072] (125)
5779  74                 [073] (125)
577A  02                 [074] (125)
577B  00                 [075] (126)
577C  00                 [076] (126)
577D  74                 [077] (126)
577E  02                 [078] (127)
577F  00                 [079] (-128)
5780  00                 [080] (-128)
5781  74                 [081] (-128)
5782  02                 [082] (-128)
5783  00                 [083] (-125)
5784  00                 [084] (-125)
5785  74                 [085] (-125)
5786  02                 [086] (-125)
5787  00                 [087] (-125)
5788  00                 [088] (-124)
5789  74                 [089] (-124)
578A  02                 [090] (-124)
578B  00                 [091] (-124)
578C  00                 [092] (-124)
578D  74                 [093] (-123)
578E  02                 [094] (-120)
578F  00                 [095] (-120)
5790  00                 [096] (-120)
5791  75                 [097] (-120)
5792  02                 [098] (-120)
5793  00                 [099] (-120)
5794  00                 [100] (-120)
5795  75                 [101] (-120)
5796  02                 [102] (-119)
5797  00                 [103] (-119)
5798  00                 [104] (-118)
5799  75                 [105] (-118)
579A  02                 [106] (-118)
579B  00                 [107] (-117)
579C  00                 [108] (-117)
579D  75                 [109] (-117)
579E  02                 [110] (-117)
579F  00                 [111] (-117)
57A0  00                 [112] (-117)
57A1  75                 [113] (-116)
57A2  02                 [114] (-116)
57A3  00                 [115] (-116)
57A4  00                 [116] (-116)
57A5  75                 [117] (-116)
57A6  02                 [118] (-116)
57A7  00                 [119] (-115)
57A8  00                 [120] (-115)
57A9  76                 [121] (-115)
57AA  02                 [122] (-115)
57AB  00                 [123] (-115)
57AC  00                 [124] (-115)
57AD  76                 [125] (-114)
57AE  02                 [126] (-114)
57AF  00                 [127] (-114)
57B0  00                 [128] (-114)
57B1  76                 [129] (-114)
57B2  02                 [130] (-114)
57B3  00                 [131] (-114)
57B4  00                 [132] (-112)
57B5  76                 [133] (-112)
57B6  02                 [134] (-111)
57B7  00                 [135] (-111)
57B8  00                 [136] (-111)
57B9  76                 [137] (-106)
57BA  02                 [138] (-106)
57BB  00                 [139] (-106)
57BC  00                 [140] (-105)
57BD  76                 [141] (-105)
57BE  02                 [142] (-105)
57BF  00                 [143] (-104)
57C0  00                 [144] (-104)
57C1  76                 [145] (-104)
57C2  02                 [146] (-104)
57C3  00                 [147] (-104)
57C4  00                 [148] (-104)
57C5  76                 [149] (-104)
57C6  02                 [150] (-104)
57C7  00                 [151] (-104)
57C8  00                 [152] (-104)
57C9  76                 [153] (-103)
57CA  02                 [154] (-103)
57CB  00                 [155] (-103)
57CC  00                 [156] (-103)
57CD  76                 [157] (-102)
57CE  02                 [158] (-102)
57CF  00                 [159] (-102)
57D0  00                 [160] (-102)
57D1  76                 [161] (-102)
57D2  02                 [162] (-101)
57D3  00                 [163] (-101)
57D4  00                 [164] (-101)
57D5  76                 [165] (-101)
57D6  02                 [166] (-101)
57D7  00                 [167] (-101)
57D8  00                 [168] (-101)
57D9  76                 [169] (-100)
57DA  02                 [170] (-100)
57DB  00                 [171] (-93)
57DC  00                 [172] (-93)
57DD  76                 [173] (-93)
57DE  02                 [174] (-93)
57DF  00                 [175] (-93)
57E0  00                 [176] (-91)
57E1  79                 [177] (-91)
57E2  02                 [178] (-91)
57E3  00                 [179] (-91)
57E4  00                 [180] (-91)
57E5  79                 [181] (-90)
57E6  02                 [182] (-90)
57E7  00                 [183] (-90)
57E8  00                 [184] (-90)
57E9  79                 [185] (-90)
57EA  02                 [186] (-87)
57EB  00                 [187] (-87)
57EC  00                 [188] (-87)
57ED  7A                 [189] (-87)
57EE  02                 [190] (-87)
57EF  00                 [191] (-87)
57F0  00                 [192] (-87)
57F1  7D                 [193] (-87)
57F2  02                 [194] (-87)
57F3  00                 [195] (-87)
57F4  00                 [196] (-87)
57F5  7D                 [197] (-87)
57F6  02                 [198] (-87)
57F7  00                 [199] (-87)
57F8  00                 [200] (-87)
57F9  7D                 [201] (-87)
57FA  02                 [202] (-86)
57FB  00                 [203] (-86)
57FC  00                 [204] (-86)
57FD  7D                 [205] (-86)
57FE  02                 [206] (-86)
57FF  00                 [207] (-86)
5800  00                 [208] (-85)
5801  7D                 [209] (-85)
5802  02                 [210] (-84)
5803  00                 [211] (-84)
5804  00                 [212] (-84)
5805  7D                 [213] (-84)
5806  02                 [214] (-84)
5807  00                 [215] (-84)
5808  00                 [216] (-84)
5809  7D                 [217] (-84)
580A  02                 [218] (-84)
580B  00                 [219] (-84)
580C  00                 [220] (-84)
580D  7D                 [221] (-84)
580E  02                 [222] (-84)
580F  00                 [223] (-82)
5810  00                 [224] (-82)
5811  7D                 [225] (-81)
5812  02                 [226] (-81)
5813  00                 [227] (-81)
5814  00                 [228] (-81)
5815  7D                 [229] (-81)
5816  02                 [230] (-81)
5817  00                 [231] (-81)
5818  00                 [232] (-81)
5819  7D                 [233] (-81)
581A  02                 [234] (-81)
581B  00                 [235] (-81)
581C  00                 [236] (-80)
581D  7D                 [237] (-80)
581E  02                 [238] (-80)
581F  00                 [239] (-80)
5820  00                 [240] (-79)
5821  7D                 [241] (-78)
5822  02                 [242] (-78)
5823  00                 [243] (-78)
5824  00                 [244] (-77)
5825  7D                 [245] (-77)
5826  02                 [246] (-76)
5827  00                 [247] (-76)
5828  00                 [248] (-76)
5829  7D                 [249] (-76)
582A  02                 [250] (-76)
582B  00                 [251] (-76)
582C  00                 [252] (-76)
582D  7D                 [253] (-76)
582E  02                 [254] (-76)
582F  00                 [255] (-76)
5830  00                 [256] (-76)
5831  7D                 [257] (-76)
5832  02                 [258] (-76)
5833  00                 [259] (-73)
5834  00                 [260] (-73)
5835  7D                 [261] (-72)
5836  02                 [262] (-72)
5837  00                 [263] (-72)
5838  00                 [264] (-71)
5839  7D                 [265] (-70)
583A  02                 [266] (-70)
583B  00                 [267] (-70)
583C  00                 [268] (-70)
583D  7D                 [269] (-70)
583E  02                 [270] (-70)
583F  00                 [271] (-70)
5840  00                 [272] (-70)
5841  7D                 [273] (-70)
5842  02                 [274] (-68)
5843  00                 [275] (-68)
5844  00                 [276] (-67)
5845  7D                 [277] (-67)
5846  02                 [278] (-67)
5847  00                 [279] (-67)
5848  00                 [280] (-67)
5849  7D                 [281] (-67)
584A  02                 [282] (-67)
584B  00                 [283] (-67)
584C  00                 [284] (-67)
584D  7D                 [285] (-67)
584E  02                 [286] (-66)
584F  00                 [287] (-66)
5850  00                 [288] (-66)
5851  7D                 [289] (-66)
5852  02                 [290] (-63)
5853  00                 [291] (-63)
5854  00                 [292] (-63)
5855  7D                 [293] (-63)
5856  02                 [294] (-63)
5857  00                 [295] (-62)
5858  00                 [296] (-62)
5859  7E                 [297] (-62)
585A  02                 [298] (-61)
585B  00                 [299] (-61)
585C  00                 [300] (-61)
585D  7E                 [301] (-60)
585E  02                 [302] (-59)
585F  00                 [303] (-59)
5860  00                 [304] (-59)
5861  7E                 [305] (-59)
5862  02                 [306] (-56)
5863  00                 [307] (-56)
5864  00                 [308] (-56)
5865  7F                 [309] (-56)
5866  02                 [310] (-56)
5867  00                 [311] (-56)
5868  00                 [312] (-56)
5869  80                 [313] (-55)
586A  02                 [314] (-55)
586B  00                 [315] (-55)
586C  00                 [316] (-54)
586D  80                 [317] (-53)
586E  02                 [318] (-53)
586F  00                 [319] (-53)
5870  00                 [320] (-53)
5871  80                 [321] (-53)
5872  02                 [322] (-53)
5873  00                 [323] (-48)
5874  00                 [324] (-48)
5875  80                 [325] (-48)
5876  02                 [326] (-48)
5877  00                 [327] (-48)
5878  00                 [328] (-48)
5879  83                 [329] (-48)
587A  02                 [330] (-48)
587B  00                 [331] (-47)
587C  00                 [332] (-47)
587D  83                 [333] (-47)
587E  02                 [334] (-46)
587F  00                 [335] (-46)
5880  00                 [336] (-45)
5881  83                 [337] (-45)
5882  02                 [338] (-45)
5883  00                 [339] (-44)
5884  00                 [340] (-44)
5885  83                 [341] (-44)
5886  02                 [342] (-44)
5887  00                 [343] (-44)
5888  00                 [344] (-44)
5889  83                 [345] (-44)
588A  02                 [346] (-44)
588B  00                 [347] (-44)
588C  00                 [348] (-44)
588D  84                 [349] (-43)
588E  02                 [350] (-43)
588F  00                 [351] (-43)
5890  00                 [352] (-43)
5891  84                 [353] (-43)
5892  02                 [354] (-43)
5893  00                 [355] (-43)
5894  00                 [356] (-43)
5895  84                 [357] (-43)
5896  02                 [358] (-43)
5897  00                 [359] (-42)
5898  00                 [360] (-42)
5899  84                 [361] (-42)
589A  02                 [362] (-42)
589B  00                 [363] (-42)
589C  00                 [364] (-41)
589D  84                 [365] (-41)
589E  02                 [366] (-41)
589F  00                 [367] (-40)
58A0  00                 [368] (-40)
58A1  85                 [369] (-40)
58A2  02                 [370] (-40)
58A3  00                 [371] (-40)
58A4  00                 [372] (-40)
58A5  88                 [373] (-40)
58A6  02                 [374] (-40)
58A7  00                 [375] (-40)
58A8  00                 [376] (-40)
58A9  88                 [377] (-40)
58AA  02                 [378] (-40)
58AB  00                 [379] (-40)
58AC  00                 [380] (-38)
58AD  88                 [381] (-38)
58AE  02                 [382] (-38)
58AF  00                 [383] (-38)
58B0  00                 [384] (-38)
58B1  88                 [385] (-37)
58B2  02                 [386] (-37)
58B3  00                 [387] (-37)
58B4  00                 [388] (-37)
58B5  88                 [389] (-36)
58B6  02                 [390] (-36)
58B7  00                 [391] (-33)
58B8  00                 [392] (-33)
58B9  88                 [393] (-33)
58BA  02                 [394] (-33)
58BB  00                 [395] (-33)
58BC  00                 [396] (-32)
58BD  88                 [397] (-32)
58BE  02                 [398] (-32)
58BF  00                 [399] (-32)
58C0  00                 [400] (-31)
58C1  88                 [401] (-31)
58C2  02                 [402] (-30)
58C3  00                 [403] (-30)
58C4  00                 [404] (-30)
58C5  89                 [405] (-30)
58C6  02                 [406] (-29)
58C7  00                 [407] (-29)
58C8  00                 [408] (-29)
58C9  89                 [409] (-29)
58CA  02                 [410] (-28)
58CB  00                 [411] (-28)
58CC  00                 [412] (-28)
58CD  8A                 [413] (-28)
58CE  02                 [414] (-27)
58CF  00                 [415] (-27)
58D0  00                 [416] (-27)
58D1  8A                 [417] (-27)
58D2  02                 [418] (-27)
58D3  00                 [419] (-27)
58D4  00                 [420] (-27)
58D5  8A                 [421] (-27)
58D6  02                 [422] (-27)
58D7  00                 [423] (-27)
58D8  00                 [424] (-27)
58D9  8B                 [425] (-24)
58DA  02                 [426] (-24)
58DB  00                 [427] (-24)
58DC  00                 [428] (-24)
58DD  8B                 [429] (-24)
58DE  02                 [430] (-24)
58DF  00                 [431] (-24)
58E0  00                 [432] (-24)
58E1  8B                 [433] (-24)
58E2  02                 [434] (-24)
58E3  00                 [435] (-24)
58E4  00                 [436] (-23)
58E5  8B                 [437] (-23)
58E6  02                 [438] (-23)
58E7  00                 [439] (-23)
58E8  00                 [440] (-23)
58E9  8B                 [441] (-20)
58EA  02                 [442] (-20)
58EB  00                 [443] (-20)
58EC  00                 [444] (-20)
58ED  8B                 [445] (-20)
58EE  02                 [446] (-19)
58EF  00                 [447] (-19)
58F0  00                 [448] (-19)
58F1  8C                 [449] (-16)
                         * locals:
5E35  00                 sizelocvars (0)
                         * upvalues:
5E36  00                 sizeupvalues (0)
                         ** end of function **

                         
5E37                     ** function [32] definition (level 2)
                         ** start of function **
5E37  00                 string size (0)
                         source name: (none)
5E39  05                 line defined (754)
5E3A  FA                 last line defined (762)
5E3B  05                 nups (3)
5E3C  03                 numparams (4)
5E3D  04                 is_vararg (0)
5E3E  00                 maxstacksize (8)
                         * code:
5E40  0F                 sizecode (15)
5E41  13010000           [01] getupval   4   0      
5E45  22418000           [02] call       4   1   1  
5E49  1D010000           [03] getglobal  4   0        ; 1074689893
5E4D  53018000           [04] getupval   5   1      
5E51  22810001           [05] call       4   2   2  
5E55  18410000           [06] test       4       1    ; to [8] if false
5E59  1A000180           [07] jmp        5            ; to [13]
5E5D  13018000           [08] getupval   4   1      
5E61  24414002           [09] self       4   4   257  ; -1938777623
5E65  92010000           [10] move       6   0      
5E69  D2018000           [11] move       7   1      
5E6D  22410002           [12] call       4   4   1  
5E71  13010001           [13] getupval   4   2      
5E75  22418000           [14] call       4   1   1  
5E79  1E008000           [15] return     0   1      
                         * constants:
5E7D  02                 sizek (2)
5E7E  01                 const type 3
5E7F  65770E40           const [0]: (1074689893)
5E83  01                 const type 3
5E84  E999708C           const [1]: (-1938777623)
                         * functions:
5E88  00                 sizep (0)
                         * lines:
5E89  0F                 sizelineinfo (15)
                         [pc] (line)
5E8A  F3                 [01] (-13)
5E8B  02                 [02] (-13)
5E8C  00                 [03] (-11)
5E8D  00                 [04] (-11)
5E8E  F3                 [05] (-11)
5E8F  02                 [06] (-11)
5E90  00                 [07] (-11)
5E91  00                 [08] (-10)
5E92  F5                 [09] (-10)
5E93  02                 [10] (-10)
5E94  00                 [11] (-10)
5E95  00                 [12] (-10)
5E96  F5                 [13] (-7)
5E97  02                 [14] (-7)
5E98  00                 [15] (-6)
                         * locals:
5EC6  00                 sizelocvars (0)
                         * upvalues:
5EC7  00                 sizeupvalues (0)
                         ** end of function **

                         
5EC8                     ** function [33] definition (level 2)
                         ** start of function **
5EC8  00                 string size (0)
                         source name: (none)
5ECA  05                 line defined (764)
5ECB  93                 last line defined (787)
5ECC  06                 nups (8)
5ECD  08                 numparams (2)
5ECE  02                 is_vararg (0)
5ECF  00                 maxstacksize (12)
                         * code:
5ED1  64                 sizecode (100)
5ED2  9D000000           [001] getglobal  2   0        ; 1074689893
5ED6  D3000000           [002] getupval   3   0      
5EDA  A2800001           [003] call       2   2   2  
5EDE  98400000           [004] test       2       1    ; to [6] if false
5EE2  1A800080           [005] jmp        3            ; to [9]
5EE6  93000000           [006] getupval   2   0      
5EEA  A4404001           [007] self       2   2   257  ; -2080524010
5EEE  A2800001           [008] call       2   2   2  
5EF2  98400000           [009] test       2       1    ; to [11] if false
5EF6  1A801580           [010] jmp        87           ; to [98]
5EFA  D3000000           [011] getupval   3   0      
5EFE  E480C001           [012] self       3   3   258  ; 676586031
5F02  E2800001           [013] call       3   2   2  
5F06  13018000           [014] getupval   4   1      
5F0A  0EC14002           [015] gettable   4   4   259  ; "mCurVal"
5F0E  C4008101           [016] mul        3   3   4  
5F12  13018000           [017] getupval   4   1      
5F16  0EC14002           [018] gettable   4   4   259  ; "mCurVal"
5F1A  5D010100           [019] getglobal  5   4        ; 572299008
5F1E  62818000           [020] call       5   1   2  
5F22  9D010000           [021] getglobal  6   0        ; 1074689893
5F26  D3010001           [022] getupval   7   2      
5F2A  A2810001           [023] call       6   2   2  
5F2E  98410000           [024] test       6       1    ; to [26] if false
5F32  1AC00080           [025] jmp        4            ; to [30]
5F36  93010001           [026] getupval   6   2      
5F3A  A4414103           [027] self       6   6   261  ; 1839670529
5F3E  A2810001           [028] call       6   2   2  
5F42  52010003           [029] move       5   6      
5F46  93018001           [030] getupval   6   3      
5F4A  8E814103           [031] gettable   6   6   262  ; "x"
5F4E  CE81C102           [032] gettable   7   5   262  ; "x"
5F52  8DC10103           [033] sub        6   6   7  
5F56  84818101           [034] mul        6   3   6  
5F5A  D3010002           [035] getupval   7   4      
5F5E  DCC1C103           [036] div        7   7   263  ; 0
5F62  83C10103           [037] add        6   6   7  
5F66  D3018002           [038] getupval   7   5      
5F6A  CE01C203           [039] gettable   7   7   264  ; "mCurrentCoords"
5F6E  CE81C103           [040] gettable   7   7   262  ; "x"
5F72  C4018103           [041] mul        7   7   4  
5F76  83C10103           [042] add        6   6   7  
fail op	0
5F7A  C0018001           [043] move       7   3      
5F7E  13020003           [044] getupval   8   6      
5F82  0E424204           [045] gettable   8   8   265  ; "z"
5F86  4E42C202           [046] gettable   9   5   265  ; "z"
5F8A  0D420204           [047] sub        8   8   9  
5F8E  C4018203           [048] mul        7   7   8  
5F92  13028003           [049] getupval   8   7      
5F96  1CC24104           [050] div        8   8   263  ; 0
5F9A  C3018203           [051] add        7   7   8  
5F9E  13028002           [052] getupval   8   5      
5FA2  0E024204           [053] gettable   8   8   264  ; "mCurrentCoords"
5FA6  0E824204           [054] gettable   8   8   266  ; "y"
5FAA  04020104           [055] mul        8   8   4  
5FAE  C3018203           [056] add        7   7   8  
5FB2  13020003           [057] getupval   8   6      
5FB6  0E824104           [058] gettable   8   8   262  ; "x"
5FBA  4E82C102           [059] gettable   9   5   262  ; "x"
5FBE  0D420204           [060] sub        8   8   9  
5FC2  04028201           [061] mul        8   3   8  
5FC6  53020002           [062] getupval   9   4      
5FCA  5CC2C104           [063] div        9   9   263  ; 0
5FCE  03420204           [064] add        8   8   9  
5FD2  53028002           [065] getupval   9   5      
5FD6  4E02C204           [066] gettable   9   9   264  ; "mCurrentCoords"
5FDA  4E82C104           [067] gettable   9   9   262  ; "x"
5FDE  44028104           [068] mul        9   9   4  
5FE2  03420204           [069] add        8   8   9  
fail op	0
5FE6  40028001           [070] move       9   3      
5FEA  93028001           [071] getupval   10  3      
5FEE  8E424205           [072] gettable   10  10  265  ; "z"
5FF2  CE42C202           [073] gettable   11  5   265  ; "z"
5FF6  8DC20205           [074] sub        10  10  11 
5FFA  44828204           [075] mul        9   9   10 
5FFE  93028003           [076] getupval   10  7      
6002  9CC24105           [077] div        10  10  263  ; 0
6006  43828204           [078] add        9   9   10 
600A  93028002           [079] getupval   10  5      
600E  8E024205           [080] gettable   10  10  264  ; "mCurrentCoords"
6012  8E824205           [081] gettable   10  10  266  ; "y"
6016  84020105           [082] mul        10  10  4  
601A  43828204           [083] add        9   9   10 
fail op	21
601E  55800100           [084] concat     1   0   6  
6022  1A400180           [085] jmp        6            ; to [92]
fail op	21
6026  55000004           [086] concat     1   8   0  
602A  1AC00080           [087] jmp        4            ; to [92]
fail op	21
602E  55C08100           [088] concat     1   1   7  
6032  1A400080           [089] jmp        2            ; to [92]
fail op	21
6036  15408004           [090] concat     0   9   1  
603A  1A800080           [091] jmp        3            ; to [95]
603E  97020000           [092] loadbool   10  0   0    ; false
6042  9E020001           [093] return     10  2      
6046  1A000180           [094] jmp        5            ; to [100]
604A  97028000           [095] loadbool   10  1   0    ; true
604E  9E020001           [096] return     10  2      
6052  1A400080           [097] jmp        2            ; to [100]
6056  97020000           [098] loadbool   10  0   0    ; false
605A  9E020001           [099] return     10  2      
605E  1E008000           [100] return     0   1      
                         * constants:
6062  0B                 sizek (11)
6063  01                 const type 3
6064  65770E40           const [0]: (1074689893)
6068  01                 const type 3
6069  16B9FD83           const [1]: (-2080524010)
606D  01                 const type 3
606E  2FE25328           const [2]: (676586031)
6072  04                 const type 4
6073  08                 string size (8)
6074  6D43757256616C00   "mCurVal\0"
                         const [3]: "mCurVal"
607C  01                 const type 3
607D  00971C22           const [4]: (572299008)
6081  01                 const type 3
6082  0125A76D           const [5]: (1839670529)
6086  04                 const type 4
6087  02                 string size (2)
6088  7800               "x\0"
                         const [6]: "x"
608A  03                 const type 3
608B  00000040           const [7]: (0)
608F  04                 const type 4
6090  0F                 string size (15)
6091  6D43757272656E74+  "mCurrent"
6099  436F6F72647300     "Coords\0"
                         const [8]: "mCurrentCoords"
60A0  04                 const type 4
60A1  02                 string size (2)
60A2  7A00               "z\0"
                         const [9]: "z"
60A4  04                 const type 4
60A5  02                 string size (2)
60A6  7900               "y\0"
                         const [10]: "y"
                         * functions:
60A8  00                 sizep (0)
                         * lines:
60A9  64                 sizelineinfo (100)
                         [pc] (line)
60AA  FD                 [001] (-3)
60AB  02                 [002] (-3)
60AC  00                 [003] (-3)
60AD  00                 [004] (-3)
60AE  FD                 [005] (-3)
60AF  02                 [006] (-3)
60B0  00                 [007] (-3)
60B1  00                 [008] (-3)
60B2  FD                 [009] (-2)
60B3  02                 [010] (-2)
60B4  00                 [011] (-1)
60B5  00                 [012] (-1)
60B6  FD                 [013] (-1)
60B7  02                 [014] (-1)
60B8  00                 [015] (-1)
60B9  00                 [016] (-1)
60BA  FD                 [017] (0)
60BB  02                 [018] (0)
60BC  00                 [019] (1)
60BD  00                 [020] (1)
60BE  FD                 [021] (2)
60BF  02                 [022] (2)
60C0  00                 [023] (2)
60C1  00                 [024] (2)
60C2  FD                 [025] (2)
60C3  02                 [026] (3)
60C4  00                 [027] (3)
60C5  00                 [028] (3)
60C6  FD                 [029] (3)
60C7  02                 [030] (5)
60C8  00                 [031] (5)
60C9  00                 [032] (5)
60CA  FE                 [033] (5)
60CB  02                 [034] (5)
60CC  00                 [035] (5)
60CD  00                 [036] (5)
60CE  FE                 [037] (5)
60CF  02                 [038] (5)
60D0  00                 [039] (5)
60D1  00                 [040] (5)
60D2  FF                 [041] (5)
60D3  02                 [042] (5)
60D4  00                 [043] (6)
60D5  00                 [044] (6)
60D6  FF                 [045] (6)
60D7  02                 [046] (6)
60D8  00                 [047] (6)
60D9  00                 [048] (6)
60DA  FF                 [049] (6)
60DB  02                 [050] (6)
60DC  00                 [051] (6)
60DD  00                 [052] (6)
60DE  FF                 [053] (6)
60DF  02                 [054] (6)
60E0  00                 [055] (6)
60E1  00                 [056] (6)
60E2  FF                 [057] (7)
60E3  02                 [058] (7)
60E4  00                 [059] (7)
60E5  00                 [060] (7)
60E6  FF                 [061] (7)
60E7  02                 [062] (7)
60E8  00                 [063] (7)
60E9  00                 [064] (7)
60EA  00                 [065] (7)
60EB  03                 [066] (7)
60EC  00                 [067] (7)
60ED  00                 [068] (7)
60EE  00                 [069] (7)
60EF  03                 [070] (8)
60F0  00                 [071] (8)
60F1  00                 [072] (8)
60F2  01                 [073] (8)
60F3  03                 [074] (8)
60F4  00                 [075] (8)
60F5  00                 [076] (8)
60F6  01                 [077] (8)
60F7  03                 [078] (8)
60F8  00                 [079] (8)
60F9  00                 [080] (8)
60FA  02                 [081] (8)
60FB  03                 [082] (8)
60FC  00                 [083] (8)
60FD  00                 [084] (10)
60FE  02                 [085] (10)
60FF  03                 [086] (10)
6100  00                 [087] (10)
6101  00                 [088] (10)
6102  02                 [089] (10)
6103  03                 [090] (10)
6104  00                 [091] (10)
6105  00                 [092] (11)
6106  02                 [093] (11)
6107  03                 [094] (11)
6108  00                 [095] (13)
6109  00                 [096] (13)
610A  02                 [097] (14)
610B  03                 [098] (17)
610C  00                 [099] (17)
610D  00                 [100] (19)
                         * locals:
623A  00                 sizelocvars (0)
                         * upvalues:
623B  00                 sizeupvalues (0)
                         ** end of function **

                         
623C                     ** function [34] definition (level 2)
                         ** start of function **
623C  00                 string size (0)
                         source name: (none)
623E  06                 line defined (789)
623F  99                 last line defined (793)
6240  06                 nups (2)
6241  02                 numparams (0)
6242  00                 is_vararg (0)
6243  00                 maxstacksize (2)
                         * code:
6245  07                 sizecode (7)
6246  13000000           [1] getupval   0   0      
624A  18400000           [2] test       0       1    ; to [4] if false
624E  1A800080           [3] jmp        3            ; to [7]
6252  13008000           [4] getupval   0   1      
6256  57008000           [5] loadbool   1   1   0    ; true
625A  22400001           [6] call       0   2   1  
625E  1E008000           [7] return     0   1      
                         * constants:
6262  00                 sizek (0)
                         * functions:
6263  00                 sizep (0)
                         * lines:
6264  07                 sizelineinfo (7)
                         [pc] (line)
6265  16                 [1] (22)
6266  03                 [2] (22)
6267  00                 [3] (22)
6268  00                 [4] (23)
6269  16                 [5] (23)
626A  03                 [6] (23)
626B  00                 [7] (25)
                         * locals:
6281  00                 sizelocvars (0)
                         * upvalues:
6282  00                 sizeupvalues (0)
                         ** end of function **

                         
6283                     ** function [35] definition (level 2)
                         ** start of function **
6283  00                 string size (0)
                         source name: (none)
6285  06                 line defined (795)
6286  9E                 last line defined (798)
6287  06                 nups (1)
6288  01                 numparams (0)
6289  00                 is_vararg (0)
628A  00                 maxstacksize (2)
                         * code:
628C  06                 sizecode (6)
628D  13000000           [1] getupval   0   0      
6291  24004000           [2] self       0   0   256  ; 988735170
6295  22400001           [3] call       0   2   1  
6299  17008000           [4] loadbool   0   1   0    ; true
629D  1E000001           [5] return     0   2      
62A1  1E008000           [6] return     0   1      
                         * constants:
62A5  01                 sizek (1)
62A6  01                 const type 3
62A7  C2E6EE3A           const [0]: (988735170)
                         * functions:
62AB  00                 sizep (0)
                         * lines:
62AC  06                 sizelineinfo (6)
                         [pc] (line)
62AD  1C                 [1] (28)
62AE  03                 [2] (28)
62AF  00                 [3] (28)
62B0  00                 [4] (29)
62B1  1C                 [5] (29)
62B2  03                 [6] (30)
                         * locals:
62C5  00                 sizelocvars (0)
                         * upvalues:
62C6  00                 sizeupvalues (0)
                         ** end of function **

                         
62C7                     ** function [36] definition (level 2)
                         ** start of function **
62C7  00                 string size (0)
                         source name: (none)
62C9  06                 line defined (800)
62CA  A3                 last line defined (803)
62CB  06                 nups (1)
62CC  01                 numparams (0)
62CD  00                 is_vararg (0)
62CE  00                 maxstacksize (2)
                         * code:
62D0  06                 sizecode (6)
62D1  13000000           [1] getupval   0   0      
62D5  24004000           [2] self       0   0   256  ; -647790006
62D9  22400001           [3] call       0   2   1  
62DD  17008000           [4] loadbool   0   1   0    ; true
62E1  1E000001           [5] return     0   2      
62E5  1E008000           [6] return     0   1      
                         * constants:
62E9  01                 sizek (1)
62EA  01                 const type 3
62EB  4A8263D9           const [0]: (-647790006)
                         * functions:
62EF  00                 sizep (0)
                         * lines:
62F0  06                 sizelineinfo (6)
                         [pc] (line)
62F1  21                 [1] (33)
62F2  03                 [2] (33)
62F3  00                 [3] (33)
62F4  00                 [4] (34)
62F5  21                 [5] (34)
62F6  03                 [6] (35)
                         * locals:
6309  00                 sizelocvars (0)
                         * upvalues:
630A  00                 sizeupvalues (0)
                         ** end of function **

                         
630B                     ** function [37] definition (level 2)
                         ** start of function **
630B  00                 string size (0)
                         source name: (none)
630D  06                 line defined (805)
630E  A8                 last line defined (808)
630F  06                 nups (1)
6310  01                 numparams (0)
6311  00                 is_vararg (0)
6312  00                 maxstacksize (2)
                         * code:
6314  05                 sizecode (5)
6315  17008000           [1] loadbool   0   1   0    ; true
fail op	8
6319  08000000           [2] setupval   0   0      
631D  17008000           [3] loadbool   0   1   0    ; true
6321  1E000001           [4] return     0   2      
6325  1E008000           [5] return     0   1      
                         * constants:
6329  00                 sizek (0)
                         * functions:
632A  00                 sizep (0)
                         * lines:
632B  05                 sizelineinfo (5)
                         [pc] (line)
632C  26                 [1] (38)
632D  03                 [2] (38)
632E  00                 [3] (39)
632F  00                 [4] (39)
6330  26                 [5] (40)
                         * locals:
6340  00                 sizelocvars (0)
                         * upvalues:
6341  00                 sizeupvalues (0)
                         ** end of function **

                         
6342                     ** function [38] definition (level 2)
                         ** start of function **
6342  00                 string size (0)
                         source name: (none)
6344  06                 line defined (810)
6345  C2                 last line defined (834)
6346  06                 nups (6)
6347  06                 numparams (0)
6348  00                 is_vararg (0)
6349  00                 maxstacksize (13)
                         * code:
634B  4D                 sizecode (77)
634C  13000000           [01] getupval   0   0      
6350  18000000           [02] test       0       0    ; to [4] if true
6354  1A801180           [03] jmp        71           ; to [75]
6358  17000000           [04] loadbool   0   0   0    ; false
fail op	8
635C  08000000           [05] setupval   0   0      
6360  1D000000           [06] getglobal  0   0        ; -174740002
6364  5D400000           [07] getglobal  1   1        ; mMovie
6368  6480C000           [08] self       1   1   258  ; 1803241227
636C  D9C00000           [09] loadk      3   3        ; "_xmouse"
6370  62008001           [10] call       1   3   0  
6374  22800000           [11] call       0   0   2  
6378  5D000000           [12] getglobal  1   0        ; -174740002
637C  9D400000           [13] getglobal  2   1        ; mMovie
6380  A4804001           [14] self       2   2   258  ; 1803241227
6384  19010100           [15] loadk      4   4        ; "_ymouse"
6388  A2008001           [16] call       2   3   0  
638C  62800000           [17] call       1   0   2  
fail op	35
6390  23404100           [18] close      0  
6394  1A800080           [19] jmp        3            ; to [23]
fail op	35
6398  2340C100           [20] close      0  
639C  1A000080           [21] jmp        1            ; to [23]
63A0  1E008000           [22] return     0   1      
63A4  93008000           [23] getupval   2   1      
63A8  D2000000           [24] move       3   0      
63AC  12018000           [25] move       4   1      
63B0  A2808001           [26] call       2   3   2  
63B4  98000000           [27] test       2       0    ; to [29] if true
63B8  1A000580           [28] jmp        21           ; to [50]
63BC  9D800100           [29] getglobal  2   6        ; 1074689893
63C0  D3000001           [30] getupval   3   2      
63C4  A2800001           [31] call       2   2   2  
63C8  98400000           [32] test       2       1    ; to [34] if false
63CC  1AC00380           [33] jmp        16           ; to [50]
63D0  93008001           [34] getupval   2   3      
63D4  8C008083           [35] settable   2   263 0    ; "x"
63D8  93008001           [36] getupval   2   3      
63DC  8C400084           [37] settable   2   264 1    ; "y"
63E0  93000002           [38] getupval   2   4      
63E4  D3008001           [39] getupval   3   3      
63E8  CEC0C101           [40] gettable   3   3   263  ; "x"
63EC  13018001           [41] getupval   4   3      
63F0  0E014202           [42] gettable   4   4   264  ; "y"
63F4  A2C08001           [43] call       2   3   3  
63F8  13010001           [44] getupval   4   2      
63FC  24414202           [45] self       4   4   265  ; 972714073
6400  92010001           [46] move       6   2      
6404  D2018001           [47] move       7   3      
6408  22410002           [48] call       4   4   1  
640C  1A000680           [49] jmp        25           ; to [75]
6410  1D410000           [50] getglobal  4   1        ; mMovie
6414  24814202           [51] self       4   4   266  ; 386043535
6418  99C10200           [52] loadk      6   11       ; "MapHint.text"
641C  D9010300           [53] loadk      7   12       ; "/Lotus/Language/Menu/MapMarkerDisabledZone"
6420  22410002           [54] call       4   4   1  
6424  13018002           [55] getupval   4   5      
6428  0E414302           [56] gettable   4   4   269  ; 630793108
642C  5D810300           [57] getglobal  5   14       ; _G
6430  4EC1C302           [58] gettable   5   5   271  ; "UISound_Error"
6434  22410001           [59] call       4   2   1  
6438  1D010400           [60] getglobal  4   16       ; 1390508688
643C  5D410000           [61] getglobal  5   1        ; mMovie
6440  99410400           [62] loadk      6   17       ; "MapHint"
6444  DD810400           [63] getglobal  7   18       ; UISys
6448  CEC1C403           [64] gettable   7   7   275  ; "FlashInstance_SMOOTH_STEP"
644C  0B028000           [65] newtable   8   1   0    ; array=1, hash=0
6450  59020500           [66] loadk      9   20       ; "_alpha"
6454  1B428000           [67] setlist    8   1   1    ; index 1 to 1
6458  4B028000           [68] newtable   9   1   0    ; array=1, hash=0
645C  99420500           [69] loadk      10  21       ; 0
6460  5B428000           [70] setlist    9   1   1    ; index 1 to 1
6464  99820500           [71] loadk      10  22       ; -102
6468  D9C20500           [72] loadk      11  23       ; 0
646C  25030000           [73] closure    12  0      
6470  22418004           [74] call       4   9   1  
6474  17018000           [75] loadbool   4   1   0    ; true
6478  1E010001           [76] return     4   2      
647C  1E008000           [77] return     0   1      
                         * constants:
6480  18                 sizek (24)
6481  01                 const type 3
6482  DEAD95F5           const [0]: (-174740002)
6486  04                 const type 4
6487  07                 string size (7)
6488  6D4D6F76696500     "mMovie\0"
                         const [1]: "mMovie"
648F  01                 const type 3
6490  0B477B6B           const [2]: (1803241227)
6494  04                 const type 4
6495  08                 string size (8)
6496  5F786D6F75736500   "_xmouse\0"
                         const [3]: "_xmouse"
649E  04                 const type 4
649F  08                 string size (8)
64A0  5F796D6F75736500   "_ymouse\0"
                         const [4]: "_ymouse"
64A8  03                 const type 3
64A9  00007AC4           const [5]: (0)
64AD  01                 const type 3
64AE  65770E40           const [6]: (1074689893)
64B2  04                 const type 4
64B3  02                 string size (2)
64B4  7800               "x\0"
                         const [7]: "x"
64B6  04                 const type 4
64B7  02                 string size (2)
64B8  7900               "y\0"
                         const [8]: "y"
64BA  01                 const type 3
64BB  5970FA39           const [9]: (972714073)
64BF  01                 const type 3
64C0  8F8E0217           const [10]: (386043535)
64C4  04                 const type 4
64C5  0D                 string size (13)
64C6  4D617048696E742E+  "MapHint."
64CE  7465787400         "text\0"
                         const [11]: "MapHint.text"
64D3  04                 const type 4
64D4  2B                 string size (43)
64D5  2F4C6F7475732F4C+  "/Lotus/L"
64DD  616E67756167652F+  "anguage/"
64E5  4D656E752F4D6170+  "Menu/Map"
64ED  4D61726B65724469+  "MarkerDi"
64F5  7361626C65645A6F+  "sabledZo"
64FD  6E6500             "ne\0"
                         const [12]: "/Lotus/Language/Menu/MapMarkerDisabledZone"
6500  01                 const type 3
6501  94239925           const [13]: (630793108)
6505  04                 const type 4
6506  03                 string size (3)
6507  5F4700             "_G\0"
                         const [14]: "_G"
650A  04                 const type 4
650B  0E                 string size (14)
650C  5549536F756E645F+  "UISound_"
6514  4572726F7200       "Error\0"
                         const [15]: "UISound_Error"
651A  01                 const type 3
651B  907AE152           const [16]: (1390508688)
651F  04                 const type 4
6520  08                 string size (8)
6521  4D617048696E7400   "MapHint\0"
                         const [17]: "MapHint"
6529  04                 const type 4
652A  06                 string size (6)
652B  554953797300       "UISys\0"
                         const [18]: "UISys"
6531  04                 const type 4
6532  1A                 string size (26)
6533  466C617368496E73+  "FlashIns"
653B  74616E63655F534D+  "tance_SM"
6543  4F4F54485F535445+  "OOTH_STE"
654B  5000               "P\0"
                         const [19]: "FlashInstance_SMOOTH_STEP"
654D  04                 const type 4
654E  07                 string size (7)
654F  5F616C70686100     "_alpha\0"
                         const [20]: "_alpha"
6556  03                 const type 3
6557  00008C42           const [21]: (0)
655B  03                 const type 3
655C  9A99193E           const [22]: (-102)
6560  03                 const type 3
6561  00000000           const [23]: (0)
                         * functions:
6565  01                 sizep (1)
                         
6566                     ** function [0] definition (level 3)
                         ** start of function **
6566  00                 string size (0)
                         source name: (none)
6568  06                 line defined (828)
6569  BE                 last line defined (830)
656A  06                 nups (0)
656B  00                 numparams (0)
656C  00                 is_vararg (0)
656D  00                 maxstacksize (8)
                         * code:
656F  0F                 sizecode (15)
6570  1D000000           [01] getglobal  0   0        ; 1390508688
6574  5D400000           [02] getglobal  1   1        ; mMovie
6578  99800000           [03] loadk      2   2        ; "MapHint"
657C  DDC00000           [04] getglobal  3   3        ; UISys
6580  CE00C101           [05] gettable   3   3   260  ; "FlashInstance_SMOOTH_STEP"
6584  0B018000           [06] newtable   4   1   0    ; array=1, hash=0
6588  59410100           [07] loadk      5   5        ; "_alpha"
658C  1B418000           [08] setlist    4   1   1    ; index 1 to 1
6590  4B018000           [09] newtable   5   1   0    ; array=1, hash=0
6594  99810100           [10] loadk      6   6        ; 0
6598  5B418000           [11] setlist    5   1   1    ; index 1 to 1
659C  99C10100           [12] loadk      6   7        ; -102
65A0  D9010200           [13] loadk      7   8        ; 0
65A4  22400004           [14] call       0   8   1  
65A8  1E008000           [15] return     0   1      
                         * constants:
65AC  09                 sizek (9)
65AD  01                 const type 3
65AE  907AE152           const [0]: (1390508688)
65B2  04                 const type 4
65B3  07                 string size (7)
65B4  6D4D6F76696500     "mMovie\0"
                         const [1]: "mMovie"
65BB  04                 const type 4
65BC  08                 string size (8)
65BD  4D617048696E7400   "MapHint\0"
                         const [2]: "MapHint"
65C5  04                 const type 4
65C6  06                 string size (6)
65C7  554953797300       "UISys\0"
                         const [3]: "UISys"
65CD  04                 const type 4
65CE  1A                 string size (26)
65CF  466C617368496E73+  "FlashIns"
65D7  74616E63655F534D+  "tance_SM"
65DF  4F4F54485F535445+  "OOTH_STE"
65E7  5000               "P\0"
                         const [4]: "FlashInstance_SMOOTH_STEP"
65E9  04                 const type 4
65EA  07                 string size (7)
65EB  5F616C70686100     "_alpha\0"
                         const [5]: "_alpha"
65F2  03                 const type 3
65F3  00000000           const [6]: (0)
65F7  03                 const type 3
65F8  9A99193E           const [7]: (-102)
65FC  03                 const type 3
65FD  00000040           const [8]: (0)
                         * functions:
6601  00                 sizep (0)
                         * lines:
6602  0F                 sizelineinfo (15)
                         [pc] (line)
6603  3D                 [01] (61)
6604  03                 [02] (61)
6605  00                 [03] (61)
6606  00                 [04] (61)
6607  3D                 [05] (61)
6608  03                 [06] (61)
6609  00                 [07] (61)
660A  00                 [08] (61)
660B  3D                 [09] (61)
660C  03                 [10] (61)
660D  00                 [11] (61)
660E  00                 [12] (61)
660F  3D                 [13] (61)
6610  03                 [14] (61)
6611  00                 [15] (62)
                         * locals:
663F  00                 sizelocvars (0)
                         * upvalues:
6640  00                 sizeupvalues (0)
                         ** end of function **

                         * lines:
6641  4D                 sizelineinfo (77)
                         [pc] (line)
6642  2B                 [01] (43)
6643  03                 [02] (43)
6644  00                 [03] (43)
6645  00                 [04] (44)
6646  2B                 [05] (44)
6647  03                 [06] (45)
6648  00                 [07] (45)
6649  00                 [08] (45)
664A  2B                 [09] (45)
664B  03                 [10] (45)
664C  00                 [11] (45)
664D  00                 [12] (46)
664E  2C                 [13] (46)
664F  03                 [14] (46)
6650  00                 [15] (46)
6651  00                 [16] (46)
6652  2C                 [17] (46)
6653  03                 [18] (48)
6654  00                 [19] (48)
6655  00                 [20] (48)
6656  2D                 [21] (48)
6657  03                 [22] (49)
6658  00                 [23] (51)
6659  00                 [24] (51)
665A  2D                 [25] (51)
665B  03                 [26] (51)
665C  00                 [27] (51)
665D  00                 [28] (51)
665E  2D                 [29] (51)
665F  03                 [30] (51)
6660  00                 [31] (51)
6661  00                 [32] (51)
6662  2D                 [33] (51)
6663  03                 [34] (52)
6664  00                 [35] (52)
6665  00                 [36] (53)
6666  2D                 [37] (53)
6667  03                 [38] (54)
6668  00                 [39] (54)
6669  00                 [40] (54)
666A  2D                 [41] (54)
666B  03                 [42] (54)
666C  00                 [43] (54)
666D  00                 [44] (55)
666E  2E                 [45] (55)
666F  03                 [46] (55)
6670  00                 [47] (55)
6671  00                 [48] (55)
6672  2E                 [49] (55)
6673  03                 [50] (57)
6674  00                 [51] (57)
6675  00                 [52] (57)
6676  2E                 [53] (57)
6677  03                 [54] (57)
6678  00                 [55] (58)
6679  00                 [56] (58)
667A  2E                 [57] (58)
667B  03                 [58] (58)
667C  00                 [59] (58)
667D  00                 [60] (59)
667E  2E                 [61] (59)
667F  03                 [62] (59)
6680  00                 [63] (59)
6681  00                 [64] (59)
6682  2E                 [65] (59)
6683  03                 [66] (59)
6684  00                 [67] (59)
6685  00                 [68] (59)
6686  30                 [69] (59)
6687  03                 [70] (59)
6688  00                 [71] (59)
6689  00                 [72] (59)
668A  30                 [73] (62)
668B  03                 [74] (59)
668C  00                 [75] (65)
668D  00                 [76] (65)
668E  30                 [77] (66)
                         * locals:
6776  00                 sizelocvars (0)
                         * upvalues:
6777  00                 sizeupvalues (0)
                         ** end of function **

                         
6778                     ** function [39] definition (level 2)
                         ** start of function **
6778  00                 string size (0)
                         source name: (none)
677A  06                 line defined (836)
677B  CC                 last line defined (844)
677C  06                 nups (2)
677D  02                 numparams (2)
677E  02                 is_vararg (0)
677F  00                 maxstacksize (4)
                         * code:
6781  13                 sizecode (19)
6782  9D000000           [01] getglobal  2   0        ; -174740002
6786  D2008000           [02] move       3   1      
678A  A2800001           [03] call       2   2   2  
fail op	21
678E  15808080           [04] concat     0   257 2  
6792  1A800080           [05] jmp        3            ; to [9]
6796  93000000           [06] getupval   2   0      
679A  4E804001           [07] gettable   1   2   258  ; "INCREMENT"
679E  1A800180           [08] jmp        7            ; to [16]
67A2  9D000000           [09] getglobal  2   0        ; -174740002
67A6  D2008000           [10] move       3   1      
67AA  A2800001           [11] call       2   2   2  
fail op	21
67AE  15404001           [12] concat     0   2   257
67B2  1A400080           [13] jmp        2            ; to [16]
67B6  93000000           [14] getupval   2   0      
67BA  4EC04001           [15] gettable   1   2   259  ; "DECREMENT"
fail op	8
67BE  48008000           [16] setupval   1   1      
67C2  97008000           [17] loadbool   2   1   0    ; true
67C6  9E000001           [18] return     2   2      
67CA  1E008000           [19] return     0   1      
                         * constants:
67CE  04                 sizek (4)
67CF  01                 const type 3
67D0  DEAD95F5           const [0]: (-174740002)
67D4  03                 const type 3
67D5  00000000           const [1]: (0)
67D9  04                 const type 4
67DA  0A                 string size (10)
67DB  494E4352454D454E+  "INCREMEN"
67E3  5400               "T\0"
                         const [2]: "INCREMENT"
67E5  04                 const type 4
67E6  0A                 string size (10)
67E7  44454352454D454E+  "DECREMEN"
67EF  5400               "T\0"
                         const [3]: "DECREMENT"
                         * functions:
67F1  00                 sizep (0)
                         * lines:
67F2  13                 sizelineinfo (19)
                         [pc] (line)
67F3  45                 [01] (69)
67F4  03                 [02] (69)
67F5  00                 [03] (69)
67F6  00                 [04] (69)
67F7  45                 [05] (69)
67F8  03                 [06] (70)
67F9  00                 [07] (70)
67FA  00                 [08] (70)
67FB  45                 [09] (71)
67FC  03                 [10] (71)
67FD  00                 [11] (71)
67FE  00                 [12] (71)
67FF  45                 [13] (71)
6800  03                 [14] (72)
6801  00                 [15] (72)
6802  00                 [16] (74)
6803  45                 [17] (75)
6804  03                 [18] (75)
6805  00                 [19] (76)
                         * locals:
683F  00                 sizelocvars (0)
                         * upvalues:
6840  00                 sizeupvalues (0)
                         ** end of function **

                         
6841                     ** function [40] definition (level 2)
                         ** start of function **
6841  00                 string size (0)
                         source name: (none)
6843  06                 line defined (846)
6844  D1                 last line defined (849)
6845  06                 nups (1)
6846  01                 numparams (2)
6847  02                 is_vararg (0)
6848  00                 maxstacksize (3)
                         * code:
684A  05                 sizecode (5)
684B  99000000           [1] loadk      2   0        ; 0
fail op	8
684F  88000000           [2] setupval   2   0      
6853  97008000           [3] loadbool   2   1   0    ; true
6857  9E000001           [4] return     2   2      
685B  1E008000           [5] return     0   1      
                         * constants:
685F  01                 sizek (1)
6860  03                 const type 3
6861  00000000           const [0]: (0)
                         * functions:
6865  00                 sizep (0)
                         * lines:
6866  05                 sizelineinfo (5)
                         [pc] (line)
6867  4F                 [1] (79)
6868  03                 [2] (79)
6869  00                 [3] (80)
686A  00                 [4] (80)
686B  4F                 [5] (81)
                         * locals:
687B  00                 sizelocvars (0)
                         * upvalues:
687C  00                 sizeupvalues (0)
                         ** end of function **

                         
687D                     ** function [41] definition (level 2)
                         ** start of function **
687D  00                 string size (0)
                         source name: (none)
687F  06                 line defined (851)
6880  D6                 last line defined (854)
6881  06                 nups (2)
6882  02                 numparams (1)
6883  01                 is_vararg (0)
6884  00                 maxstacksize (7)
                         * code:
6886  12                 sizecode (18)
6887  5D000000           [01] getglobal  1   0        ; math
688B  4E40C000           [02] gettable   1   1   257  ; -113279800
688F  92000000           [03] move       2   0      
6893  62800001           [04] call       1   2   2  
6897  9D800000           [05] getglobal  2   2        ; controllerDeadZone
fail op	33
689B  61808000           [06] tforloop   1       2    ; to [8] if exit
689F  1A000080           [07] jmp        1            ; to [9]
68A3  57400000           [08] loadbool   1   0   1    ; false, to [10]
68A7  57008000           [09] loadbool   1   1   0    ; true
68AB  93000000           [10] getupval   2   0      
68AF  D3008000           [11] getupval   3   1      
68B3  CE00C101           [12] gettable   3   3   260  ; -132701534
68B7  12018000           [13] move       4   1      
68BB  59410100           [14] loadk      5   5        ; 0
fail op	0
68BF  80010000           [15] move       6   0      
68C3  E2800002           [16] call       3   4   2  
68C7  8CC08081           [17] settable   2   259 3    ; "y"
68CB  1E008000           [18] return     0   1      
                         * constants:
68CF  06                 sizek (6)
68D0  04                 const type 4
68D1  05                 string size (5)
68D2  6D61746800         "math\0"
                         const [0]: "math"
68D7  01                 const type 3
68D8  C87C3FF9           const [1]: (-113279800)
68DC  04                 const type 4
68DD  13                 string size (19)
68DE  636F6E74726F6C6C+  "controll"
68E6  6572446561645A6F+  "erDeadZo"
68EE  6E6500             "ne\0"
                         const [2]: "controllerDeadZone"
68F1  04                 const type 4
68F2  02                 string size (2)
68F3  7900               "y\0"
                         const [3]: "y"
68F5  01                 const type 3
68F6  A22217F8           const [4]: (-132701534)
68FA  03                 const type 3
68FB  00000000           const [5]: (0)
                         * functions:
68FF  00                 sizep (0)
                         * lines:
6900  12                 sizelineinfo (18)
                         [pc] (line)
6901  54                 [01] (84)
6902  03                 [02] (84)
6903  00                 [03] (84)
6904  00                 [04] (84)
6905  54                 [05] (84)
6906  03                 [06] (84)
6907  00                 [07] (84)
6908  00                 [08] (84)
6909  54                 [09] (84)
690A  03                 [10] (85)
690B  00                 [11] (85)
690C  00                 [12] (85)
690D  54                 [13] (85)
690E  03                 [14] (85)
690F  00                 [15] (85)
6910  00                 [16] (85)
6911  54                 [17] (85)
6912  03                 [18] (86)
                         * locals:
6949  00                 sizelocvars (0)
                         * upvalues:
694A  00                 sizeupvalues (0)
                         ** end of function **

                         
694B                     ** function [42] definition (level 2)
                         ** start of function **
694B  00                 string size (0)
                         source name: (none)
694D  06                 line defined (856)
694E  DB                 last line defined (859)
694F  06                 nups (2)
6950  02                 numparams (1)
6951  01                 is_vararg (0)
6952  00                 maxstacksize (7)
                         * code:
6954  12                 sizecode (18)
6955  5D000000           [01] getglobal  1   0        ; math
6959  4E40C000           [02] gettable   1   1   257  ; -113279800
695D  92000000           [03] move       2   0      
6961  62800001           [04] call       1   2   2  
6965  9D800000           [05] getglobal  2   2        ; controllerDeadZone
fail op	33
6969  61808000           [06] tforloop   1       2    ; to [8] if exit
696D  1A000080           [07] jmp        1            ; to [9]
6971  57400000           [08] loadbool   1   0   1    ; false, to [10]
6975  57008000           [09] loadbool   1   1   0    ; true
6979  93000000           [10] getupval   2   0      
697D  D3008000           [11] getupval   3   1      
6981  CE00C101           [12] gettable   3   3   260  ; -132701534
6985  12018000           [13] move       4   1      
6989  59410100           [14] loadk      5   5        ; 0
698D  92010000           [15] move       6   0      
6991  E2800002           [16] call       3   4   2  
6995  8CC08081           [17] settable   2   259 3    ; "x"
6999  1E008000           [18] return     0   1      
                         * constants:
699D  06                 sizek (6)
699E  04                 const type 4
699F  05                 string size (5)
69A0  6D61746800         "math\0"
                         const [0]: "math"
69A5  01                 const type 3
69A6  C87C3FF9           const [1]: (-113279800)
69AA  04                 const type 4
69AB  13                 string size (19)
69AC  636F6E74726F6C6C+  "controll"
69B4  6572446561645A6F+  "erDeadZo"
69BC  6E6500             "ne\0"
                         const [2]: "controllerDeadZone"
69BF  04                 const type 4
69C0  02                 string size (2)
69C1  7800               "x\0"
                         const [3]: "x"
69C3  01                 const type 3
69C4  A22217F8           const [4]: (-132701534)
69C8  03                 const type 3
69C9  00000000           const [5]: (0)
                         * functions:
69CD  00                 sizep (0)
                         * lines:
69CE  12                 sizelineinfo (18)
                         [pc] (line)
69CF  59                 [01] (89)
69D0  03                 [02] (89)
69D1  00                 [03] (89)
69D2  00                 [04] (89)
69D3  59                 [05] (89)
69D4  03                 [06] (89)
69D5  00                 [07] (89)
69D6  00                 [08] (89)
69D7  59                 [09] (89)
69D8  03                 [10] (90)
69D9  00                 [11] (90)
69DA  00                 [12] (90)
69DB  59                 [13] (90)
69DC  03                 [14] (90)
69DD  00                 [15] (90)
69DE  00                 [16] (90)
69DF  59                 [17] (90)
69E0  03                 [18] (91)
                         * locals:
6A17  00                 sizelocvars (0)
                         * upvalues:
6A18  00                 sizeupvalues (0)
                         ** end of function **

                         
6A19                     ** function [43] definition (level 2)
                         ** start of function **
6A19  00                 string size (0)
                         source name: (none)
6A1B  06                 line defined (861)
6A1C  E0                 last line defined (864)
6A1D  06                 nups (1)
6A1E  01                 numparams (0)
6A1F  00                 is_vararg (0)
6A20  00                 maxstacksize (2)
                         * code:
6A22  06                 sizecode (6)
6A23  13000000           [1] getupval   0   0      
6A27  59000000           [2] loadk      1   0        ; 0
6A2B  22400001           [3] call       0   2   1  
6A2F  17008000           [4] loadbool   0   1   0    ; true
6A33  1E000001           [5] return     0   2      
6A37  1E008000           [6] return     0   1      
                         * constants:
6A3B  01                 sizek (1)
6A3C  03                 const type 3
6A3D  0000803F           const [0]: (0)
                         * functions:
6A41  00                 sizep (0)
                         * lines:
6A42  06                 sizelineinfo (6)
                         [pc] (line)
6A43  5E                 [1] (94)
6A44  03                 [2] (94)
6A45  00                 [3] (94)
6A46  00                 [4] (95)
6A47  5E                 [5] (95)
6A48  03                 [6] (96)
                         * locals:
6A5B  00                 sizelocvars (0)
                         * upvalues:
6A5C  00                 sizeupvalues (0)
                         ** end of function **

                         
6A5D                     ** function [44] definition (level 2)
                         ** start of function **
6A5D  00                 string size (0)
                         source name: (none)
6A5F  06                 line defined (866)
6A60  E7                 last line defined (871)
6A61  06                 nups (2)
6A62  02                 numparams (0)
6A63  00                 is_vararg (0)
6A64  00                 maxstacksize (2)
                         * code:
6A66  0A                 sizecode (10)
6A67  13000000           [01] getupval   0   0      
6A6B  0E004000           [02] gettable   0   0   256  ; "y"
fail op	21
6A6F  15404000           [03] concat     0   0   257
6A73  1A800080           [04] jmp        3            ; to [8]
6A77  13008000           [05] getupval   0   1      
6A7B  59400000           [06] loadk      1   1        ; 0
6A7F  22400001           [07] call       0   2   1  
6A83  17008000           [08] loadbool   0   1   0    ; true
6A87  1E000001           [09] return     0   2      
6A8B  1E008000           [10] return     0   1      
                         * constants:
6A8F  02                 sizek (2)
6A90  04                 const type 4
6A91  02                 string size (2)
6A92  7900               "y\0"
                         const [0]: "y"
6A94  03                 const type 3
6A95  00000000           const [1]: (0)
                         * functions:
6A99  00                 sizep (0)
                         * lines:
6A9A  0A                 sizelineinfo (10)
                         [pc] (line)
6A9B  63                 [01] (99)
6A9C  03                 [02] (99)
6A9D  00                 [03] (99)
6A9E  00                 [04] (99)
6A9F  63                 [05] (100)
6AA0  03                 [06] (100)
6AA1  00                 [07] (100)
6AA2  00                 [08] (102)
6AA3  63                 [09] (102)
6AA4  03                 [10] (103)
                         * locals:
6AC3  00                 sizelocvars (0)
                         * upvalues:
6AC4  00                 sizeupvalues (0)
                         ** end of function **

                         
6AC5                     ** function [45] definition (level 2)
                         ** start of function **
6AC5  00                 string size (0)
                         source name: (none)
6AC7  06                 line defined (873)
6AC8  EC                 last line defined (876)
6AC9  06                 nups (1)
6ACA  01                 numparams (0)
6ACB  00                 is_vararg (0)
6ACC  00                 maxstacksize (2)
                         * code:
6ACE  06                 sizecode (6)
6ACF  13000000           [1] getupval   0   0      
6AD3  59000000           [2] loadk      1   0        ; 0
6AD7  22400001           [3] call       0   2   1  
6ADB  17008000           [4] loadbool   0   1   0    ; true
6ADF  1E000001           [5] return     0   2      
6AE3  1E008000           [6] return     0   1      
                         * constants:
6AE7  01                 sizek (1)
6AE8  03                 const type 3
6AE9  000080BF           const [0]: (0)
                         * functions:
6AED  00                 sizep (0)
                         * lines:
6AEE  06                 sizelineinfo (6)
                         [pc] (line)
6AEF  6A                 [1] (106)
6AF0  03                 [2] (106)
6AF1  00                 [3] (106)
6AF2  00                 [4] (107)
6AF3  6A                 [5] (107)
6AF4  03                 [6] (108)
                         * locals:
6B07  00                 sizelocvars (0)
                         * upvalues:
6B08  00                 sizeupvalues (0)
                         ** end of function **

                         
6B09                     ** function [46] definition (level 2)
                         ** start of function **
6B09  00                 string size (0)
                         source name: (none)
6B0B  06                 line defined (878)
6B0C  F3                 last line defined (883)
6B0D  06                 nups (2)
6B0E  02                 numparams (0)
6B0F  00                 is_vararg (0)
6B10  00                 maxstacksize (2)
                         * code:
6B12  0A                 sizecode (10)
6B13  13000000           [01] getupval   0   0      
6B17  0E004000           [02] gettable   0   0   256  ; "y"
fail op	21
6B1B  15008080           [03] concat     0   257 0  
6B1F  1A800080           [04] jmp        3            ; to [8]
6B23  13008000           [05] getupval   0   1      
6B27  59400000           [06] loadk      1   1        ; 0
6B2B  22400001           [07] call       0   2   1  
6B2F  17008000           [08] loadbool   0   1   0    ; true
6B33  1E000001           [09] return     0   2      
6B37  1E008000           [10] return     0   1      
                         * constants:
6B3B  02                 sizek (2)
6B3C  04                 const type 4
6B3D  02                 string size (2)
6B3E  7900               "y\0"
                         const [0]: "y"
6B40  03                 const type 3
6B41  00000000           const [1]: (0)
                         * functions:
6B45  00                 sizep (0)
                         * lines:
6B46  0A                 sizelineinfo (10)
                         [pc] (line)
6B47  6F                 [01] (111)
6B48  03                 [02] (111)
6B49  00                 [03] (111)
6B4A  00                 [04] (111)
6B4B  6F                 [05] (112)
6B4C  03                 [06] (112)
6B4D  00                 [07] (112)
6B4E  00                 [08] (114)
6B4F  6F                 [09] (114)
6B50  03                 [10] (115)
                         * locals:
6B6F  00                 sizelocvars (0)
                         * upvalues:
6B70  00                 sizeupvalues (0)
                         ** end of function **

                         
6B71                     ** function [47] definition (level 2)
                         ** start of function **
6B71  00                 string size (0)
                         source name: (none)
6B73  06                 line defined (885)
6B74  F8                 last line defined (888)
6B75  06                 nups (1)
6B76  01                 numparams (0)
6B77  00                 is_vararg (0)
6B78  00                 maxstacksize (2)
                         * code:
6B7A  06                 sizecode (6)
6B7B  13000000           [1] getupval   0   0      
6B7F  59000000           [2] loadk      1   0        ; 0
6B83  22400001           [3] call       0   2   1  
6B87  17008000           [4] loadbool   0   1   0    ; true
6B8B  1E000001           [5] return     0   2      
6B8F  1E008000           [6] return     0   1      
                         * constants:
6B93  01                 sizek (1)
6B94  03                 const type 3
6B95  000080BF           const [0]: (0)
                         * functions:
6B99  00                 sizep (0)
                         * lines:
6B9A  06                 sizelineinfo (6)
                         [pc] (line)
6B9B  76                 [1] (118)
6B9C  03                 [2] (118)
6B9D  00                 [3] (118)
6B9E  00                 [4] (119)
6B9F  76                 [5] (119)
6BA0  03                 [6] (120)
                         * locals:
6BB3  00                 sizelocvars (0)
                         * upvalues:
6BB4  00                 sizeupvalues (0)
                         ** end of function **

                         
6BB5                     ** function [48] definition (level 2)
                         ** start of function **
6BB5  00                 string size (0)
                         source name: (none)
6BB7  06                 line defined (890)
6BB8  FF                 last line defined (895)
6BB9  06                 nups (2)
6BBA  02                 numparams (0)
6BBB  00                 is_vararg (0)
6BBC  00                 maxstacksize (2)
                         * code:
6BBE  0A                 sizecode (10)
6BBF  13000000           [01] getupval   0   0      
6BC3  0E004000           [02] gettable   0   0   256  ; "x"
fail op	21
6BC7  15404000           [03] concat     0   0   257
6BCB  1A800080           [04] jmp        3            ; to [8]
6BCF  13008000           [05] getupval   0   1      
6BD3  59400000           [06] loadk      1   1        ; 0
6BD7  22400001           [07] call       0   2   1  
6BDB  17008000           [08] loadbool   0   1   0    ; true
6BDF  1E000001           [09] return     0   2      
6BE3  1E008000           [10] return     0   1      
                         * constants:
6BE7  02                 sizek (2)
6BE8  04                 const type 4
6BE9  02                 string size (2)
6BEA  7800               "x\0"
                         const [0]: "x"
6BEC  03                 const type 3
6BED  00000000           const [1]: (0)
                         * functions:
6BF1  00                 sizep (0)
                         * lines:
6BF2  0A                 sizelineinfo (10)
                         [pc] (line)
6BF3  7B                 [01] (123)
6BF4  03                 [02] (123)
6BF5  00                 [03] (123)
6BF6  00                 [04] (123)
6BF7  7B                 [05] (124)
6BF8  03                 [06] (124)
6BF9  00                 [07] (124)
6BFA  00                 [08] (126)
6BFB  7B                 [09] (126)
6BFC  03                 [10] (127)
                         * locals:
6C1B  00                 sizelocvars (0)
                         * upvalues:
6C1C  00                 sizeupvalues (0)
                         ** end of function **

                         
6C1D                     ** function [49] definition (level 2)
                         ** start of function **
6C1D  00                 string size (0)
                         source name: (none)
6C1F  07                 line defined (897)
6C20  84                 last line defined (900)
6C21  07                 nups (1)
6C22  01                 numparams (0)
6C23  00                 is_vararg (0)
6C24  00                 maxstacksize (2)
                         * code:
6C26  06                 sizecode (6)
6C27  13000000           [1] getupval   0   0      
6C2B  59000000           [2] loadk      1   0        ; 0
6C2F  22400001           [3] call       0   2   1  
6C33  17008000           [4] loadbool   0   1   0    ; true
6C37  1E000001           [5] return     0   2      
6C3B  1E008000           [6] return     0   1      
                         * constants:
6C3F  01                 sizek (1)
6C40  03                 const type 3
6C41  0000803F           const [0]: (0)
                         * functions:
6C45  00                 sizep (0)
                         * lines:
6C46  06                 sizelineinfo (6)
                         [pc] (line)
6C47  82                 [1] (-126)
6C48  03                 [2] (-126)
6C49  00                 [3] (-126)
6C4A  00                 [4] (-125)
6C4B  82                 [5] (-125)
6C4C  03                 [6] (-124)
                         * locals:
6C5F  00                 sizelocvars (0)
                         * upvalues:
6C60  00                 sizeupvalues (0)
                         ** end of function **

                         
6C61                     ** function [50] definition (level 2)
                         ** start of function **
6C61  00                 string size (0)
                         source name: (none)
6C63  07                 line defined (902)
6C64  8B                 last line defined (907)
6C65  07                 nups (2)
6C66  02                 numparams (0)
6C67  00                 is_vararg (0)
6C68  00                 maxstacksize (2)
                         * code:
6C6A  0A                 sizecode (10)
6C6B  13000000           [01] getupval   0   0      
6C6F  0E004000           [02] gettable   0   0   256  ; "x"
fail op	21
6C73  15008080           [03] concat     0   257 0  
6C77  1A800080           [04] jmp        3            ; to [8]
6C7B  13008000           [05] getupval   0   1      
6C7F  59400000           [06] loadk      1   1        ; 0
6C83  22400001           [07] call       0   2   1  
6C87  17008000           [08] loadbool   0   1   0    ; true
6C8B  1E000001           [09] return     0   2      
6C8F  1E008000           [10] return     0   1      
                         * constants:
6C93  02                 sizek (2)
6C94  04                 const type 4
6C95  02                 string size (2)
6C96  7800               "x\0"
                         const [0]: "x"
6C98  03                 const type 3
6C99  00000000           const [1]: (0)
                         * functions:
6C9D  00                 sizep (0)
                         * lines:
6C9E  0A                 sizelineinfo (10)
                         [pc] (line)
6C9F  87                 [01] (-121)
6CA0  03                 [02] (-121)
6CA1  00                 [03] (-121)
6CA2  00                 [04] (-121)
6CA3  87                 [05] (-120)
6CA4  03                 [06] (-120)
6CA5  00                 [07] (-120)
6CA6  00                 [08] (-118)
6CA7  87                 [09] (-118)
6CA8  03                 [10] (-117)
                         * locals:
6CC7  00                 sizelocvars (0)
                         * upvalues:
6CC8  00                 sizeupvalues (0)
                         ** end of function **

                         
6CC9                     ** function [51] definition (level 2)
                         ** start of function **
6CC9  00                 string size (0)
                         source name: (none)
6CCB  07                 line defined (909)
6CCC  93                 last line defined (915)
6CCD  07                 nups (2)
6CCE  02                 numparams (2)
6CCF  02                 is_vararg (0)
6CD0  00                 maxstacksize (5)
                         * code:
6CD2  0E                 sizecode (14)
6CD3  93000000           [01] getupval   2   0      
6CD7  98000000           [02] test       2       0    ; to [4] if true
6CDB  1A000080           [03] jmp        1            ; to [5]
6CDF  1E008000           [04] return     0   1      
6CE3  93008000           [05] getupval   2   1      
6CE7  DD000000           [06] getglobal  3   0        ; -174740002
6CEB  12018000           [07] move       4   1      
6CEF  E2800001           [08] call       3   2   2  
6CF3  1D410000           [09] getglobal  4   1        ; controllerPanSpeed
6CF7  C4008101           [10] mul        3   3   4  
6CFB  A2400001           [11] call       2   2   1  
6CFF  97008000           [12] loadbool   2   1   0    ; true
6D03  9E000001           [13] return     2   2      
6D07  1E008000           [14] return     0   1      
                         * constants:
6D0B  02                 sizek (2)
6D0C  01                 const type 3
6D0D  DEAD95F5           const [0]: (-174740002)
6D11  04                 const type 4
6D12  13                 string size (19)
6D13  636F6E74726F6C6C+  "controll"
6D1B  657250616E537065+  "erPanSpe"
6D23  656400             "ed\0"
                         const [1]: "controllerPanSpeed"
                         * functions:
6D26  00                 sizep (0)
                         * lines:
6D27  0E                 sizelineinfo (14)
                         [pc] (line)
6D28  8E                 [01] (-114)
6D29  03                 [02] (-114)
6D2A  00                 [03] (-114)
6D2B  00                 [04] (-113)
6D2C  8E                 [05] (-111)
6D2D  03                 [06] (-111)
6D2E  00                 [07] (-111)
6D2F  00                 [08] (-111)
6D30  8E                 [09] (-111)
6D31  03                 [10] (-111)
6D32  00                 [11] (-111)
6D33  00                 [12] (-110)
6D34  8F                 [13] (-110)
6D35  03                 [14] (-109)
                         * locals:
6D60  00                 sizelocvars (0)
                         * upvalues:
6D61  00                 sizeupvalues (0)
                         ** end of function **

                         
6D62                     ** function [52] definition (level 2)
                         ** start of function **
6D62  00                 string size (0)
                         source name: (none)
6D64  07                 line defined (917)
6D65  9B                 last line defined (923)
6D66  07                 nups (2)
6D67  02                 numparams (2)
6D68  02                 is_vararg (0)
6D69  00                 maxstacksize (4)
                         * code:
6D6B  0A                 sizecode (10)
6D6C  93000000           [01] getupval   2   0      
6D70  98000000           [02] test       2       0    ; to [4] if true
6D74  1A000080           [03] jmp        1            ; to [5]
6D78  1E008000           [04] return     0   1      
6D7C  93008000           [05] getupval   2   1      
6D80  D9000000           [06] loadk      3   0        ; 0
6D84  A2400001           [07] call       2   2   1  
6D88  97008000           [08] loadbool   2   1   0    ; true
6D8C  9E000001           [09] return     2   2      
6D90  1E008000           [10] return     0   1      
                         * constants:
6D94  01                 sizek (1)
6D95  03                 const type 3
6D96  00000000           const [0]: (0)
                         * functions:
6D9A  00                 sizep (0)
                         * lines:
6D9B  0A                 sizelineinfo (10)
                         [pc] (line)
6D9C  96                 [01] (-106)
6D9D  03                 [02] (-106)
6D9E  00                 [03] (-106)
6D9F  00                 [04] (-105)
6DA0  96                 [05] (-103)
6DA1  03                 [06] (-103)
6DA2  00                 [07] (-103)
6DA3  00                 [08] (-102)
6DA4  96                 [09] (-102)
6DA5  03                 [10] (-101)
                         * locals:
6DC4  00                 sizelocvars (0)
                         * upvalues:
6DC5  00                 sizeupvalues (0)
                         ** end of function **

                         
6DC6                     ** function [53] definition (level 2)
                         ** start of function **
6DC6  00                 string size (0)
                         source name: (none)
6DC8  07                 line defined (925)
6DC9  A3                 last line defined (931)
6DCA  07                 nups (2)
6DCB  02                 numparams (2)
6DCC  02                 is_vararg (0)
6DCD  00                 maxstacksize (5)
                         * code:
6DCF  0E                 sizecode (14)
6DD0  93000000           [01] getupval   2   0      
6DD4  98000000           [02] test       2       0    ; to [4] if true
6DD8  1A000080           [03] jmp        1            ; to [5]
6DDC  1E008000           [04] return     0   1      
6DE0  93008000           [05] getupval   2   1      
6DE4  DD000000           [06] getglobal  3   0        ; -174740002
6DE8  12018000           [07] move       4   1      
6DEC  E2800001           [08] call       3   2   2  
6DF0  1D410000           [09] getglobal  4   1        ; controllerPanSpeed
6DF4  C4008101           [10] mul        3   3   4  
6DF8  A2400001           [11] call       2   2   1  
6DFC  97008000           [12] loadbool   2   1   0    ; true
6E00  9E000001           [13] return     2   2      
6E04  1E008000           [14] return     0   1      
                         * constants:
6E08  02                 sizek (2)
6E09  01                 const type 3
6E0A  DEAD95F5           const [0]: (-174740002)
6E0E  04                 const type 4
6E0F  13                 string size (19)
6E10  636F6E74726F6C6C+  "controll"
6E18  657250616E537065+  "erPanSpe"
6E20  656400             "ed\0"
                         const [1]: "controllerPanSpeed"
                         * functions:
6E23  00                 sizep (0)
                         * lines:
6E24  0E                 sizelineinfo (14)
                         [pc] (line)
6E25  9E                 [01] (-98)
6E26  03                 [02] (-98)
6E27  00                 [03] (-98)
6E28  00                 [04] (-97)
6E29  9E                 [05] (-95)
6E2A  03                 [06] (-95)
6E2B  00                 [07] (-95)
6E2C  00                 [08] (-95)
6E2D  9E                 [09] (-95)
6E2E  03                 [10] (-95)
6E2F  00                 [11] (-95)
6E30  00                 [12] (-94)
6E31  9F                 [13] (-94)
6E32  03                 [14] (-93)
                         * locals:
6E5D  00                 sizelocvars (0)
                         * upvalues:
6E5E  00                 sizeupvalues (0)
                         ** end of function **

                         
6E5F                     ** function [54] definition (level 2)
                         ** start of function **
6E5F  00                 string size (0)
                         source name: (none)
6E61  07                 line defined (933)
6E62  AB                 last line defined (939)
6E63  07                 nups (2)
6E64  02                 numparams (2)
6E65  02                 is_vararg (0)
6E66  00                 maxstacksize (4)
                         * code:
6E68  0A                 sizecode (10)
6E69  93000000           [01] getupval   2   0      
6E6D  98000000           [02] test       2       0    ; to [4] if true
6E71  1A000080           [03] jmp        1            ; to [5]
6E75  1E008000           [04] return     0   1      
6E79  93008000           [05] getupval   2   1      
6E7D  D9000000           [06] loadk      3   0        ; 0
6E81  A2400001           [07] call       2   2   1  
6E85  97008000           [08] loadbool   2   1   0    ; true
6E89  9E000001           [09] return     2   2      
6E8D  1E008000           [10] return     0   1      
                         * constants:
6E91  01                 sizek (1)
6E92  03                 const type 3
6E93  00000000           const [0]: (0)
                         * functions:
6E97  00                 sizep (0)
                         * lines:
6E98  0A                 sizelineinfo (10)
                         [pc] (line)
6E99  A6                 [01] (-90)
6E9A  03                 [02] (-90)
6E9B  00                 [03] (-90)
6E9C  00                 [04] (-89)
6E9D  A6                 [05] (-87)
6E9E  03                 [06] (-87)
6E9F  00                 [07] (-87)
6EA0  00                 [08] (-86)
6EA1  A6                 [09] (-86)
6EA2  03                 [10] (-85)
                         * locals:
6EC1  00                 sizelocvars (0)
                         * upvalues:
6EC2  00                 sizeupvalues (0)
                         ** end of function **

                         
6EC3                     ** function [55] definition (level 2)
                         ** start of function **
6EC3  00                 string size (0)
                         source name: (none)
6EC5  07                 line defined (941)
6EC6  B3                 last line defined (947)
6EC7  07                 nups (2)
6EC8  02                 numparams (2)
6EC9  02                 is_vararg (0)
6ECA  00                 maxstacksize (4)
                         * code:
6ECC  0D                 sizecode (13)
6ECD  93000000           [01] getupval   2   0      
6ED1  98000000           [02] test       2       0    ; to [4] if true
6ED5  1A000080           [03] jmp        1            ; to [5]
6ED9  1E008000           [04] return     0   1      
6EDD  9D000000           [05] getglobal  2   0        ; -174740002
6EE1  D2008000           [06] move       3   1      
6EE5  A2800001           [07] call       2   2   2  
fail op	0
6EE9  80000001           [08] move       2   2      
6EED  84404001           [09] mul        2   2   257  ; -51
fail op	8
6EF1  88008000           [10] setupval   2   1      
6EF5  97008000           [11] loadbool   2   1   0    ; true
6EF9  9E000001           [12] return     2   2      
6EFD  1E008000           [13] return     0   1      
                         * constants:
6F01  02                 sizek (2)
6F02  01                 const type 3
6F03  DEAD95F5           const [0]: (-174740002)
6F07  03                 const type 3
6F08  CDCCCC3E           const [1]: (-51)
                         * functions:
6F0C  00                 sizep (0)
                         * lines:
6F0D  0D                 sizelineinfo (13)
                         [pc] (line)
6F0E  AE                 [01] (-82)
6F0F  03                 [02] (-82)
6F10  00                 [03] (-82)
6F11  00                 [04] (-81)
6F12  AE                 [05] (-79)
6F13  03                 [06] (-79)
6F14  00                 [07] (-79)
6F15  00                 [08] (-79)
6F16  AE                 [09] (-79)
6F17  03                 [10] (-79)
6F18  00                 [11] (-78)
6F19  00                 [12] (-78)
6F1A  AF                 [13] (-77)
                         * locals:
6F42  00                 sizelocvars (0)
                         * upvalues:
6F43  00                 sizeupvalues (0)
                         ** end of function **

                         
6F44                     ** function [56] definition (level 2)
                         ** start of function **
6F44  00                 string size (0)
                         source name: (none)
6F46  07                 line defined (949)
6F47  BB                 last line defined (955)
6F48  07                 nups (2)
6F49  02                 numparams (2)
6F4A  02                 is_vararg (0)
6F4B  00                 maxstacksize (3)
                         * code:
6F4D  09                 sizecode (9)
6F4E  93000000           [1] getupval   2   0      
6F52  98000000           [2] test       2       0    ; to [4] if true
6F56  1A000080           [3] jmp        1            ; to [5]
6F5A  1E008000           [4] return     0   1      
6F5E  99000000           [5] loadk      2   0        ; 0
fail op	8
6F62  88008000           [6] setupval   2   1      
6F66  97008000           [7] loadbool   2   1   0    ; true
6F6A  9E000001           [8] return     2   2      
6F6E  1E008000           [9] return     0   1      
                         * constants:
6F72  01                 sizek (1)
6F73  03                 const type 3
6F74  00000000           const [0]: (0)
                         * functions:
6F78  00                 sizep (0)
                         * lines:
6F79  09                 sizelineinfo (9)
                         [pc] (line)
6F7A  B6                 [1] (-74)
6F7B  03                 [2] (-74)
6F7C  00                 [3] (-74)
6F7D  00                 [4] (-73)
6F7E  B6                 [5] (-71)
6F7F  03                 [6] (-71)
6F80  00                 [7] (-70)
6F81  00                 [8] (-70)
6F82  B6                 [9] (-69)
                         * locals:
6F9E  00                 sizelocvars (0)
                         * upvalues:
6F9F  00                 sizeupvalues (0)
                         ** end of function **

                         
6FA0                     ** function [57] definition (level 2)
                         ** start of function **
6FA0  00                 string size (0)
                         source name: (none)
6FA2  07                 line defined (957)
6FA3  C0                 last line defined (960)
6FA4  07                 nups (2)
6FA5  02                 numparams (0)
6FA6  00                 is_vararg (0)
6FA7  00                 maxstacksize (2)
                         * code:
6FA9  07                 sizecode (7)
6FAA  13000000           [1] getupval   0   0      
6FAE  59000000           [2] loadk      1   0        ; 0
6FB2  22400001           [3] call       0   2   1  
6FB6  13008000           [4] getupval   0   1      
6FBA  59000000           [5] loadk      1   0        ; 0
6FBE  22400001           [6] call       0   2   1  
6FC2  1E008000           [7] return     0   1      
                         * constants:
6FC6  01                 sizek (1)
6FC7  03                 const type 3
6FC8  00000000           const [0]: (0)
                         * functions:
6FCC  00                 sizep (0)
                         * lines:
6FCD  07                 sizelineinfo (7)
                         [pc] (line)
6FCE  BE                 [1] (-66)
6FCF  03                 [2] (-66)
6FD0  00                 [3] (-66)
6FD1  00                 [4] (-65)
6FD2  BE                 [5] (-65)
6FD3  03                 [6] (-65)
6FD4  00                 [7] (-64)
                         * locals:
6FEA  00                 sizelocvars (0)
                         * upvalues:
6FEB  00                 sizeupvalues (0)
                         ** end of function **

                         
6FEC                     ** function [58] definition (level 2)
                         ** start of function **
6FEC  00                 string size (0)
                         source name: (none)
6FEE  07                 line defined (962)
6FEF  C5                 last line defined (965)
6FF0  07                 nups (2)
6FF1  02                 numparams (0)
6FF2  00                 is_vararg (0)
6FF3  00                 maxstacksize (2)
                         * code:
6FF5  07                 sizecode (7)
6FF6  13000000           [1] getupval   0   0      
6FFA  59000000           [2] loadk      1   0        ; 0
6FFE  22400001           [3] call       0   2   1  
7002  13008000           [4] getupval   0   1      
7006  59000000           [5] loadk      1   0        ; 0
700A  22400001           [6] call       0   2   1  
700E  1E008000           [7] return     0   1      
                         * constants:
7012  01                 sizek (1)
7013  03                 const type 3
7014  00000000           const [0]: (0)
                         * functions:
7018  00                 sizep (0)
                         * lines:
7019  07                 sizelineinfo (7)
                         [pc] (line)
701A  C3                 [1] (-61)
701B  03                 [2] (-61)
701C  00                 [3] (-61)
701D  00                 [4] (-60)
701E  C3                 [5] (-60)
701F  03                 [6] (-60)
7020  00                 [7] (-59)
                         * locals:
7036  00                 sizelocvars (0)
                         * upvalues:
7037  00                 sizeupvalues (0)
                         ** end of function **

                         
7038                     ** function [59] definition (level 2)
                         ** start of function **
7038  00                 string size (0)
                         source name: (none)
703A  07                 line defined (967)
703B  CA                 last line defined (970)
703C  07                 nups (1)
703D  01                 numparams (0)
703E  00                 is_vararg (0)
703F  00                 maxstacksize (2)
                         * code:
7041  06                 sizecode (6)
7042  13000000           [1] getupval   0   0      
7046  57008000           [2] loadbool   1   1   0    ; true
704A  22400001           [3] call       0   2   1  
704E  17008000           [4] loadbool   0   1   0    ; true
7052  1E000001           [5] return     0   2      
7056  1E008000           [6] return     0   1      
                         * constants:
705A  00                 sizek (0)
                         * functions:
705B  00                 sizep (0)
                         * lines:
705C  06                 sizelineinfo (6)
                         [pc] (line)
705D  C8                 [1] (-56)
705E  03                 [2] (-56)
705F  00                 [3] (-56)
7060  00                 [4] (-55)
7061  C8                 [5] (-55)
7062  03                 [6] (-54)
                         * locals:
7075  00                 sizelocvars (0)
                         * upvalues:
7076  00                 sizeupvalues (0)
                         ** end of function **

                         
7077                     ** function [60] definition (level 2)
                         ** start of function **
7077  00                 string size (0)
                         source name: (none)
7079  07                 line defined (972)
707A  CF                 last line defined (975)
707B  07                 nups (1)
707C  01                 numparams (0)
707D  00                 is_vararg (0)
707E  00                 maxstacksize (2)
                         * code:
7080  05                 sizecode (5)
7081  17008000           [1] loadbool   0   1   0    ; true
fail op	8
7085  08000000           [2] setupval   0   0      
7089  17008000           [3] loadbool   0   1   0    ; true
708D  1E000001           [4] return     0   2      
7091  1E008000           [5] return     0   1      
                         * constants:
7095  00                 sizek (0)
                         * functions:
7096  00                 sizep (0)
                         * lines:
7097  05                 sizelineinfo (5)
                         [pc] (line)
7098  CD                 [1] (-51)
7099  03                 [2] (-51)
709A  00                 [3] (-50)
709B  00                 [4] (-50)
709C  CD                 [5] (-49)
                         * locals:
70AC  00                 sizelocvars (0)
                         * upvalues:
70AD  00                 sizeupvalues (0)
                         ** end of function **

                         
70AE                     ** function [61] definition (level 2)
                         ** start of function **
70AE  00                 string size (0)
                         source name: (none)
70B0  07                 line defined (977)
70B1  E9                 last line defined (1001)
70B2  07                 nups (7)
70B3  07                 numparams (0)
70B4  00                 is_vararg (0)
70B5  00                 maxstacksize (13)
                         * code:
70B7  4E                 sizecode (78)
70B8  13000000           [01] getupval   0   0      
70BC  18000000           [02] test       0       0    ; to [4] if true
70C0  1AC01180           [03] jmp        72           ; to [76]
70C4  17000000           [04] loadbool   0   0   0    ; false
fail op	8
70C8  08000000           [05] setupval   0   0      
70CC  13008000           [06] getupval   0   1      
70D0  18000000           [07] test       0       0    ; to [9] if true
70D4  1A000080           [08] jmp        1            ; to [10]
70D8  1E008000           [09] return     0   1      
70DC  1D000000           [10] getglobal  0   0        ; -174740002
70E0  5D400000           [11] getglobal  1   1        ; mMovie
70E4  6480C000           [12] self       1   1   258  ; 1803241227
70E8  D9C00000           [13] loadk      3   3        ; "Reticle"
70EC  19010100           [14] loadk      4   4        ; "_x"
70F0  62000002           [15] call       1   4   0  
70F4  22800000           [16] call       0   0   2  
70F8  5D000000           [17] getglobal  1   0        ; -174740002
70FC  9D400000           [18] getglobal  2   1        ; mMovie
7100  A4804001           [19] self       2   2   258  ; 1803241227
7104  19C10000           [20] loadk      4   3        ; "Reticle"
7108  59410100           [21] loadk      5   5        ; "_y"
710C  A2000002           [22] call       2   4   0  
7110  62800000           [23] call       1   0   2  
7114  93000001           [24] getupval   2   2      
7118  D2000000           [25] move       3   0      
711C  12018000           [26] move       4   1      
7120  A2808001           [27] call       2   3   2  
7124  98000000           [28] test       2       0    ; to [30] if true
7128  1A000580           [29] jmp        21           ; to [51]
712C  9D800100           [30] getglobal  2   6        ; 1074689893
7130  D3008001           [31] getupval   3   3      
7134  A2800001           [32] call       2   2   2  
7138  98400000           [33] test       2       1    ; to [35] if false
713C  1AC00380           [34] jmp        16           ; to [51]
7140  93000002           [35] getupval   2   4      
7144  8C008083           [36] settable   2   263 0    ; "x"
7148  93000002           [37] getupval   2   4      
714C  8C400084           [38] settable   2   264 1    ; "y"
7150  93008002           [39] getupval   2   5      
7154  D3000002           [40] getupval   3   4      
7158  CEC0C101           [41] gettable   3   3   263  ; "x"
715C  13010002           [42] getupval   4   4      
7160  0E014202           [43] gettable   4   4   264  ; "y"
7164  A2C08001           [44] call       2   3   3  
7168  13018001           [45] getupval   4   3      
716C  24414202           [46] self       4   4   265  ; 972714073
7170  92010001           [47] move       6   2      
7174  D2018001           [48] move       7   3      
7178  22410002           [49] call       4   4   1  
717C  1A000680           [50] jmp        25           ; to [76]
7180  1D410000           [51] getglobal  4   1        ; mMovie
7184  24814202           [52] self       4   4   266  ; 386043535
7188  99C10200           [53] loadk      6   11       ; "MapHint.text"
718C  D9010300           [54] loadk      7   12       ; "/Lotus/Language/Menu/MapMarkerDisabledZone"
7190  22410002           [55] call       4   4   1  
7194  13010003           [56] getupval   4   6      
7198  0E414302           [57] gettable   4   4   269  ; 630793108
719C  5D810300           [58] getglobal  5   14       ; _G
71A0  4EC1C302           [59] gettable   5   5   271  ; "UISound_Error"
71A4  22410001           [60] call       4   2   1  
71A8  1D010400           [61] getglobal  4   16       ; 1390508688
71AC  5D410000           [62] getglobal  5   1        ; mMovie
71B0  99410400           [63] loadk      6   17       ; "MapHint"
71B4  DD810400           [64] getglobal  7   18       ; UISys
71B8  CEC1C403           [65] gettable   7   7   275  ; "FlashInstance_SMOOTH_STEP"
71BC  0B028000           [66] newtable   8   1   0    ; array=1, hash=0
71C0  59020500           [67] loadk      9   20       ; "_alpha"
71C4  1B428000           [68] setlist    8   1   1    ; index 1 to 1
71C8  4B028000           [69] newtable   9   1   0    ; array=1, hash=0
71CC  99420500           [70] loadk      10  21       ; 0
71D0  5B428000           [71] setlist    9   1   1    ; index 1 to 1
71D4  99820500           [72] loadk      10  22       ; -102
71D8  D9C20500           [73] loadk      11  23       ; 0
71DC  25030000           [74] closure    12  0      
71E0  22418004           [75] call       4   9   1  
71E4  17018000           [76] loadbool   4   1   0    ; true
71E8  1E010001           [77] return     4   2      
71EC  1E008000           [78] return     0   1      
                         * constants:
71F0  18                 sizek (24)
71F1  01                 const type 3
71F2  DEAD95F5           const [0]: (-174740002)
71F6  04                 const type 4
71F7  07                 string size (7)
71F8  6D4D6F76696500     "mMovie\0"
                         const [1]: "mMovie"
71FF  01                 const type 3
7200  0B477B6B           const [2]: (1803241227)
7204  04                 const type 4
7205  08                 string size (8)
7206  52657469636C6500   "Reticle\0"
                         const [3]: "Reticle"
720E  04                 const type 4
720F  03                 string size (3)
7210  5F7800             "_x\0"
                         const [4]: "_x"
7213  04                 const type 4
7214  03                 string size (3)
7215  5F7900             "_y\0"
                         const [5]: "_y"
7218  01                 const type 3
7219  65770E40           const [6]: (1074689893)
721D  04                 const type 4
721E  02                 string size (2)
721F  7800               "x\0"
                         const [7]: "x"
7221  04                 const type 4
7222  02                 string size (2)
7223  7900               "y\0"
                         const [8]: "y"
7225  01                 const type 3
7226  5970FA39           const [9]: (972714073)
722A  01                 const type 3
722B  8F8E0217           const [10]: (386043535)
722F  04                 const type 4
7230  0D                 string size (13)
7231  4D617048696E742E+  "MapHint."
7239  7465787400         "text\0"
                         const [11]: "MapHint.text"
723E  04                 const type 4
723F  2B                 string size (43)
7240  2F4C6F7475732F4C+  "/Lotus/L"
7248  616E67756167652F+  "anguage/"
7250  4D656E752F4D6170+  "Menu/Map"
7258  4D61726B65724469+  "MarkerDi"
7260  7361626C65645A6F+  "sabledZo"
7268  6E6500             "ne\0"
                         const [12]: "/Lotus/Language/Menu/MapMarkerDisabledZone"
726B  01                 const type 3
726C  94239925           const [13]: (630793108)
7270  04                 const type 4
7271  03                 string size (3)
7272  5F4700             "_G\0"
                         const [14]: "_G"
7275  04                 const type 4
7276  0E                 string size (14)
7277  5549536F756E645F+  "UISound_"
727F  4572726F7200       "Error\0"
                         const [15]: "UISound_Error"
7285  01                 const type 3
7286  907AE152           const [16]: (1390508688)
728A  04                 const type 4
728B  08                 string size (8)
728C  4D617048696E7400   "MapHint\0"
                         const [17]: "MapHint"
7294  04                 const type 4
7295  06                 string size (6)
7296  554953797300       "UISys\0"
                         const [18]: "UISys"
729C  04                 const type 4
729D  1A                 string size (26)
729E  466C617368496E73+  "FlashIns"
72A6  74616E63655F534D+  "tance_SM"
72AE  4F4F54485F535445+  "OOTH_STE"
72B6  5000               "P\0"
                         const [19]: "FlashInstance_SMOOTH_STEP"
72B8  04                 const type 4
72B9  07                 string size (7)
72BA  5F616C70686100     "_alpha\0"
                         const [20]: "_alpha"
72C1  03                 const type 3
72C2  00008C42           const [21]: (0)
72C6  03                 const type 3
72C7  9A99193E           const [22]: (-102)
72CB  03                 const type 3
72CC  00000000           const [23]: (0)
                         * functions:
72D0  01                 sizep (1)
                         
72D1                     ** function [0] definition (level 3)
                         ** start of function **
72D1  00                 string size (0)
                         source name: (none)
72D3  07                 line defined (995)
72D4  E5                 last line defined (997)
72D5  07                 nups (0)
72D6  00                 numparams (0)
72D7  00                 is_vararg (0)
72D8  00                 maxstacksize (8)
                         * code:
72DA  0F                 sizecode (15)
72DB  1D000000           [01] getglobal  0   0        ; 1390508688
72DF  5D400000           [02] getglobal  1   1        ; mMovie
72E3  99800000           [03] loadk      2   2        ; "MapHint"
72E7  DDC00000           [04] getglobal  3   3        ; UISys
72EB  CE00C101           [05] gettable   3   3   260  ; "FlashInstance_SMOOTH_STEP"
72EF  0B018000           [06] newtable   4   1   0    ; array=1, hash=0
72F3  59410100           [07] loadk      5   5        ; "_alpha"
72F7  1B418000           [08] setlist    4   1   1    ; index 1 to 1
72FB  4B018000           [09] newtable   5   1   0    ; array=1, hash=0
72FF  99810100           [10] loadk      6   6        ; 0
7303  5B418000           [11] setlist    5   1   1    ; index 1 to 1
7307  99C10100           [12] loadk      6   7        ; -102
730B  D9010200           [13] loadk      7   8        ; 0
730F  22400004           [14] call       0   8   1  
7313  1E008000           [15] return     0   1      
                         * constants:
7317  09                 sizek (9)
7318  01                 const type 3
7319  907AE152           const [0]: (1390508688)
731D  04                 const type 4
731E  07                 string size (7)
731F  6D4D6F76696500     "mMovie\0"
                         const [1]: "mMovie"
7326  04                 const type 4
7327  08                 string size (8)
7328  4D617048696E7400   "MapHint\0"
                         const [2]: "MapHint"
7330  04                 const type 4
7331  06                 string size (6)
7332  554953797300       "UISys\0"
                         const [3]: "UISys"
7338  04                 const type 4
7339  1A                 string size (26)
733A  466C617368496E73+  "FlashIns"
7342  74616E63655F534D+  "tance_SM"
734A  4F4F54485F535445+  "OOTH_STE"
7352  5000               "P\0"
                         const [4]: "FlashInstance_SMOOTH_STEP"
7354  04                 const type 4
7355  07                 string size (7)
7356  5F616C70686100     "_alpha\0"
                         const [5]: "_alpha"
735D  03                 const type 3
735E  00000000           const [6]: (0)
7362  03                 const type 3
7363  9A99193E           const [7]: (-102)
7367  03                 const type 3
7368  00000040           const [8]: (0)
                         * functions:
736C  00                 sizep (0)
                         * lines:
736D  0F                 sizelineinfo (15)
                         [pc] (line)
736E  E4                 [01] (-28)
736F  03                 [02] (-28)
7370  00                 [03] (-28)
7371  00                 [04] (-28)
7372  E4                 [05] (-28)
7373  03                 [06] (-28)
7374  00                 [07] (-28)
7375  00                 [08] (-28)
7376  E4                 [09] (-28)
7377  03                 [10] (-28)
7378  00                 [11] (-28)
7379  00                 [12] (-28)
737A  E4                 [13] (-28)
737B  03                 [14] (-28)
737C  00                 [15] (-27)
                         * locals:
73AA  00                 sizelocvars (0)
                         * upvalues:
73AB  00                 sizeupvalues (0)
                         ** end of function **

                         * lines:
73AC  4E                 sizelineinfo (78)
                         [pc] (line)
73AD  D2                 [01] (-46)
73AE  03                 [02] (-46)
73AF  00                 [03] (-46)
73B0  00                 [04] (-45)
73B1  D2                 [05] (-45)
73B2  03                 [06] (-44)
73B3  00                 [07] (-44)
73B4  00                 [08] (-44)
73B5  D2                 [09] (-43)
73B6  03                 [10] (-41)
73B7  00                 [11] (-41)
73B8  00                 [12] (-41)
73B9  D3                 [13] (-41)
73BA  03                 [14] (-41)
73BB  00                 [15] (-41)
73BC  00                 [16] (-41)
73BD  D3                 [17] (-40)
73BE  03                 [18] (-40)
73BF  00                 [19] (-40)
73C0  00                 [20] (-40)
73C1  D4                 [21] (-40)
73C2  03                 [22] (-40)
73C3  00                 [23] (-40)
73C4  00                 [24] (-38)
73C5  D4                 [25] (-38)
73C6  03                 [26] (-38)
73C7  00                 [27] (-38)
73C8  00                 [28] (-38)
73C9  D4                 [29] (-38)
73CA  03                 [30] (-38)
73CB  00                 [31] (-38)
73CC  00                 [32] (-38)
73CD  D5                 [33] (-38)
73CE  03                 [34] (-38)
73CF  00                 [35] (-37)
73D0  00                 [36] (-37)
73D1  D7                 [37] (-36)
73D2  03                 [38] (-36)
73D3  00                 [39] (-35)
73D4  00                 [40] (-35)
73D5  D7                 [41] (-35)
73D6  03                 [42] (-35)
73D7  00                 [43] (-35)
73D8  00                 [44] (-35)
73D9  D7                 [45] (-34)
73DA  03                 [46] (-34)
73DB  00                 [47] (-34)
73DC  00                 [48] (-34)
73DD  D7                 [49] (-34)
73DE  03                 [50] (-34)
73DF  00                 [51] (-32)
73E0  00                 [52] (-32)
73E1  D7                 [53] (-32)
73E2  03                 [54] (-32)
73E3  00                 [55] (-32)
73E4  00                 [56] (-31)
73E5  D7                 [57] (-31)
73E6  03                 [58] (-31)
73E7  00                 [59] (-31)
73E8  00                 [60] (-31)
73E9  D7                 [61] (-30)
73EA  03                 [62] (-30)
73EB  00                 [63] (-30)
73EC  00                 [64] (-30)
73ED  D8                 [65] (-30)
73EE  03                 [66] (-30)
73EF  00                 [67] (-30)
73F0  00                 [68] (-30)
73F1  D8                 [69] (-30)
73F2  03                 [70] (-30)
73F3  00                 [71] (-30)
73F4  00                 [72] (-30)
73F5  D8                 [73] (-30)
73F6  03                 [74] (-27)
73F7  00                 [75] (-30)
73F8  00                 [76] (-24)
73F9  D8                 [77] (-24)
73FA  03                 [78] (-23)
                         * locals:
74E5  00                 sizelocvars (0)
                         * upvalues:
74E6  00                 sizeupvalues (0)
                         ** end of function **

                         
74E7                     ** function [62] definition (level 2)
                         ** start of function **
74E7  00                 string size (0)
                         source name: (none)
74E9  07                 line defined (1003)
74EA  F5                 last line defined (1013)
74EB  07                 nups (3)
74EC  03                 numparams (1)
74ED  01                 is_vararg (0)
74EE  00                 maxstacksize (4)
                         * code:
74F0  1B                 sizecode (27)
fail op	35
74F1  63004000           [01] close      1  
74F5  1A000080           [02] jmp        1            ; to [4]
74F9  17400000           [03] loadbool   0   0   1    ; false, to [5]
74FD  17008000           [04] loadbool   0   1   0    ; true
7501  53000000           [05] getupval   1   0      
7505  58000000           [06] test       1       0    ; to [8] if true
7509  1A800480           [07] jmp        19           ; to [27]
750D  5D400000           [08] getglobal  1   1        ; mMovie
7511  6480C000           [09] self       1   1   258  ; -1021004755
7515  D2000000           [10] move       3   0      
7519  62408001           [11] call       1   3   1  
751D  53008000           [12] getupval   1   1      
fail op	9
7521  89000000           [13] settable   2   0   0  
7525  62400001           [14] call       1   2   1  
7529  5DC00000           [15] getglobal  1   3        ; 1074689893
752D  9D000100           [16] getglobal  2   4        ; _T
7531  8E404101           [17] gettable   2   2   261  ; "ShowButtonBarCursor"
7535  62800001           [18] call       1   2   2  
7539  58400000           [19] test       1       1    ; to [21] if false
753D  1AC00080           [20] jmp        4            ; to [25]
7541  5D000100           [21] getglobal  1   4        ; _T
7545  4E80C100           [22] gettable   1   1   262  ; 618780820
7549  92000000           [23] move       2   0      
754D  62400001           [24] call       1   2   1  
7551  53000001           [25] getupval   1   2      
7555  62408000           [26] call       1   1   1  
7559  1E008000           [27] return     0   1      
                         * constants:
755D  07                 sizek (7)
755E  04                 const type 4
755F  05                 string size (5)
7560  7472756500         "true\0"
                         const [0]: "true"
7565  04                 const type 4
7566  07                 string size (7)
7567  6D4D6F76696500     "mMovie\0"
                         const [1]: "mMovie"
756E  01                 const type 3
756F  2DB424C3           const [2]: (-1021004755)
7573  01                 const type 3
7574  65770E40           const [3]: (1074689893)
7578  04                 const type 4
7579  03                 string size (3)
757A  5F5400             "_T\0"
                         const [4]: "_T"
757D  04                 const type 4
757E  14                 string size (20)
757F  53686F7742757474+  "ShowButt"
7587  6F6E426172437572+  "onBarCur"
758F  736F7200           "sor\0"
                         const [5]: "ShowButtonBarCursor"
7593  01                 const type 3
7594  94D8E124           const [6]: (618780820)
                         * functions:
7598  00                 sizep (0)
                         * lines:
7599  1B                 sizelineinfo (27)
                         [pc] (line)
759A  EC                 [01] (-20)
759B  03                 [02] (-20)
759C  00                 [03] (-20)
759D  00                 [04] (-20)
759E  EC                 [05] (-19)
759F  03                 [06] (-19)
75A0  00                 [07] (-19)
75A1  00                 [08] (-18)
75A2  EC                 [09] (-18)
75A3  03                 [10] (-18)
75A4  00                 [11] (-18)
75A5  00                 [12] (-17)
75A6  EC                 [13] (-17)
75A7  03                 [14] (-17)
75A8  00                 [15] (-16)
75A9  00                 [16] (-16)
75AA  ED                 [17] (-16)
75AB  03                 [18] (-16)
75AC  00                 [19] (-16)
75AD  00                 [20] (-16)
75AE  ED                 [21] (-15)
75AF  03                 [22] (-15)
75B0  00                 [23] (-15)
75B1  00                 [24] (-15)
75B2  ED                 [25] (-13)
75B3  03                 [26] (-13)
75B4  00                 [27] (-11)
                         * locals:
7606  00                 sizelocvars (0)
                         * upvalues:
7607  00                 sizeupvalues (0)
                         ** end of function **

                         * lines:
7609  03                 sizelineinfo (437)
                         [pc] (line)
760A  0E                 [001] (14)
760B  00                 [002] (14)
760C  00                 [003] (14)
760D  00                 [004] (15)
760E  0E                 [005] (15)
760F  00                 [006] (15)
7610  00                 [007] (17)
7611  00                 [008] (17)
7612  0E                 [009] (17)
7613  00                 [010] (18)
7614  00                 [011] (20)
7615  00                 [012] (21)
7616  0F                 [013] (22)
7617  00                 [014] (23)
7618  00                 [015] (25)
7619  00                 [016] (29)
761A  0F                 [017] (30)
761B  00                 [018] (31)
761C  00                 [019] (34)
761D  00                 [020] (36)
761E  0F                 [021] (37)
761F  00                 [022] (38)
7620  00                 [023] (40)
7621  00                 [024] (42)
7622  11                 [025] (43)
7623  00                 [026] (45)
7624  00                 [027] (46)
7625  00                 [028] (47)
7626  11                 [029] (48)
7627  00                 [030] (49)
7628  00                 [031] (50)
7629  00                 [032] (51)
762A  11                 [033] (56)
762B  00                 [034] (56)
762C  00                 [035] (56)
762D  00                 [036] (57)
762E  12                 [037] (58)
762F  00                 [038] (58)
7630  00                 [039] (58)
7631  00                 [040] (58)
7632  14                 [041] (59)
7633  00                 [042] (60)
7634  00                 [043] (61)
7635  00                 [044] (62)
7636  15                 [045] (62)
7637  00                 [046] (62)
7638  00                 [047] (63)
7639  00                 [048] (64)
763A  16                 [049] (71)
763B  00                 [050] (71)
763C  00                 [051] (72)
763D  00                 [052] (72)
763E  17                 [053] (74)
763F  00                 [054] (74)
7640  00                 [055] (74)
7641  00                 [056] (74)
7642  19                 [057] (74)
7643  00                 [058] (74)
7644  00                 [059] (74)
7645  00                 [060] (75)
7646  1D                 [061] (77)
7647  00                 [062] (78)
7648  00                 [063] (80)
7649  00                 [064] (87)
764A  1E                 [065] (103)
764B  00                 [066] (109)
764C  00                 [067] (114)
764D  00                 [068] (114)
764E  1F                 [069] (124)
764F  00                 [070] (124)
7650  00                 [071] (124)
7651  00                 [072] (124)
7652  22                 [073] (127)
7653  00                 [074] (-125)
7654  00                 [075] (-125)
7655  00                 [076] (-125)
7656  24                 [077] (-127)
7657  00                 [078] (-98)
7658  00                 [079] (-98)
7659  00                 [080] (-98)
765A  25                 [081] (-69)
765B  00                 [082] (-69)
765C  00                 [083] (-69)
765D  00                 [084] (-59)
765E  26                 [085] (-59)
765F  00                 [086] (-59)
7660  00                 [087] (-48)
7661  00                 [088] (-48)
7662  28                 [089] (-48)
7663  00                 [090] (-48)
7664  00                 [091] (-48)
7665  00                 [092] (-41)
7666  2A                 [093] (-41)
7667  00                 [094] (-41)
7668  00                 [095] (-41)
7669  00                 [096] (-23)
766A  2B                 [097] (-23)
766B  00                 [098] (-23)
766C  00                 [099] (-23)
766D  00                 [100] (-23)
766E  2D                 [101] (-23)
766F  00                 [102] (-23)
7670  00                 [103] (-23)
7671  00                 [104] (-23)
7672  2E                 [105] (-13)
7673  00                 [106] (-13)
7674  00                 [107] (-13)
7675  00                 [108] (-13)
7676  2F                 [109] (-9)
7677  00                 [110] (-9)
7678  00                 [111] (-9)
7679  00                 [112] (-11)
767A  30                 [113] (1)
767B  00                 [114] (1)
767C  00                 [115] (1)
767D  00                 [116] (1)
767E  31                 [117] (1)
767F  00                 [118] (1)
7680  00                 [119] (27)
7681  00                 [120] (27)
7682  32                 [121] (27)
7683  00                 [122] (27)
7684  00                 [123] (27)
7685  00                 [124] (27)
7686  33                 [125] (27)
7687  00                 [126] (27)
7688  00                 [127] (27)
7689  00                 [128] (27)
768A  38                 [129] (27)
768B  00                 [130] (27)
768C  00                 [131] (27)
768D  00                 [132] (27)
768E  38                 [133] (27)
768F  00                 [134] (88)
7690  00                 [135] (88)
7691  00                 [136] (88)
7692  38                 [137] (88)
7693  00                 [138] (88)
7694  00                 [139] (88)
7695  00                 [140] (88)
7696  39                 [141] (88)
7697  00                 [142] (88)
7698  00                 [143] (88)
7699  00                 [144] (88)
769A  3A                 [145] (88)
769B  00                 [146] (88)
769C  00                 [147] (88)
769D  00                 [148] (88)
769E  3A                 [149] (100)
769F  00                 [150] (100)
76A0  00                 [151] (100)
76A1  00                 [152] (100)
76A2  3A                 [153] (100)
76A3  00                 [154] (100)
76A4  00                 [155] (100)
76A5  00                 [156] (-112)
76A6  3A                 [157] (-112)
76A7  00                 [158] (-112)
76A8  00                 [159] (-112)
76A9  00                 [160] (-112)
76AA  3B                 [161] (-112)
76AB  00                 [162] (-112)
76AC  00                 [163] (-112)
76AD  00                 [164] (-112)
76AE  3C                 [165] (-112)
76AF  00                 [166] (-112)
76B0  00                 [167] (-112)
76B1  00                 [168] (-112)
76B2  3D                 [169] (-105)
76B3  00                 [170] (-105)
76B4  00                 [171] (-62)
76B5  00                 [172] (-62)
76B6  3E                 [173] (-62)
76B7  00                 [174] (-62)
76B8  00                 [175] (-62)
76B9  00                 [176] (-62)
76BA  3E                 [177] (-62)
76BB  00                 [178] (-62)
76BC  00                 [179] (-62)
76BD  00                 [180] (-62)
76BE  3E                 [181] (-62)
76BF  00                 [182] (-62)
76C0  00                 [183] (-103)
76C1  00                 [184] (-27)
76C2  3F                 [185] (-27)
76C3  00                 [186] (-27)
76C4  00                 [187] (-27)
76C5  00                 [188] (-27)
76C6  40                 [189] (-27)
76C7  00                 [190] (-27)
76C8  00                 [191] (-27)
76C9  00                 [192] (-27)
76CA  47                 [193] (-27)
76CB  00                 [194] (-23)
76CC  00                 [195] (-23)
76CD  00                 [196] (-23)
76CE  47                 [197] (-25)
76CF  00                 [198] (-19)
76D0  00                 [199] (-19)
76D1  00                 [200] (-19)
76D2  48                 [201] (-19)
76D3  00                 [202] (-21)
76D4  00                 [203] (-11)
76D5  00                 [204] (-11)
76D6  48                 [205] (-11)
76D7  00                 [206] (-11)
76D8  00                 [207] (-11)
76D9  00                 [208] (-17)
76DA  4A                 [209] (4)
76DB  00                 [210] (4)
76DC  00                 [211] (4)
76DD  00                 [212] (4)
76DE  4A                 [213] (50)
76DF  00                 [214] (50)
76E0  00                 [215] (50)
76E1  00                 [216] (50)
76E2  4A                 [217] (50)
76E3  00                 [218] (50)
76E4  00                 [219] (50)
76E5  00                 [220] (50)
76E6  4A                 [221] (50)
76E7  00                 [222] (50)
76E8  00                 [223] (50)
76E9  00                 [224] (50)
76EA  4A                 [225] (50)
76EB  00                 [226] (50)
76EC  00                 [227] (50)
76ED  00                 [228] (70)
76EE  4A                 [229] (70)
76EF  00                 [230] (70)
76F0  00                 [231] (70)
76F1  00                 [232] (70)
76F2  4A                 [233] (70)
76F3  00                 [234] (70)
76F4  00                 [235] (52)
76F5  00                 [236] (76)
76F6  4B                 [237] (76)
76F7  00                 [238] (72)
76F8  00                 [239] (94)
76F9  00                 [240] (94)
76FA  4D                 [241] (94)
76FB  00                 [242] (104)
76FC  00                 [243] (-16)
76FD  00                 [244] (-16)
76FE  4E                 [245] (-16)
76FF  00                 [246] (-16)
7700  00                 [247] (-16)
7701  00                 [248] (-16)
7702  50                 [249] (-16)
7703  00                 [250] (-16)
7704  00                 [251] (-16)
7705  00                 [252] (-16)
7706  57                 [253] (-16)
7707  00                 [254] (-16)
7708  00                 [255] (-16)
7709  00                 [256] (-16)
770A  67                 [257] (-16)
770B  00                 [258] (-16)
770C  00                 [259] (-16)
770D  00                 [260] (-16)
770E  6D                 [261] (-16)
770F  00                 [262] (-16)
7710  00                 [263] (-16)
7711  00                 [264] (-16)
7712  72                 [265] (-16)
7713  00                 [266] (-16)
7714  00                 [267] (-16)
7715  00                 [268] (-16)
7716  72                 [269] (-16)
7717  00                 [270] (-16)
7718  00                 [271] (-16)
7719  00                 [272] (-16)
771A  7C                 [273] (-16)
771B  00                 [274] (-16)
771C  00                 [275] (-16)
771D  00                 [276] (-16)
771E  7C                 [277] (-16)
771F  00                 [278] (-16)
7720  00                 [279] (-16)
7721  00                 [280] (106)
7722  7C                 [281] (-6)
7723  00                 [282] (-6)
7724  00                 [283] (-6)
7725  00                 [284] (-6)
7726  7C                 [285] (-6)
7727  00                 [286] (-14)
7728  00                 [287] (19)
7729  00                 [288] (19)
772A  7F                 [289] (19)
772B  00                 [290] (19)
772C  00                 [291] (19)
772D  00                 [292] (19)
772E  83                 [293] (19)
772F  00                 [294] (19)
7730  00                 [295] (19)
7731  00                 [296] (25)
7732  83                 [297] (25)
7733  00                 [298] (25)
7734  00                 [299] (25)
7735  00                 [300] (21)
7736  83                 [301] (30)
7737  00                 [302] (30)
7738  00                 [303] (30)
7739  00                 [304] (27)
773A  81                 [305] (35)
773B  00                 [306] (35)
773C  00                 [307] (35)
773D  00                 [308] (32)
773E  9E                 [309] (40)
773F  00                 [310] (40)
7740  00                 [311] (40)
7741  00                 [312] (37)
7742  9E                 [313] (66)
7743  00                 [314] (66)
7744  00                 [315] (66)
7745  00                 [316] (66)
7746  9E                 [317] (66)
7747  00                 [318] (66)
7748  00                 [319] (66)
7749  00                 [320] (66)
774A  BB                 [321] (42)
774B  00                 [322] (76)
774C  00                 [323] (76)
774D  00                 [324] (76)
774E  BB                 [325] (76)
774F  00                 [326] (68)
7750  00                 [327] (81)
7751  00                 [328] (81)
7752  BB                 [329] (81)
7753  00                 [330] (78)
7754  00                 [331] (86)
7755  00                 [332] (86)
7756  C5                 [333] (86)
7757  00                 [334] (91)
7758  00                 [335] (91)
7759  00                 [336] (91)
775A  C5                 [337] (96)
775B  00                 [338] (96)
775C  00                 [339] (96)
775D  00                 [340] (93)
775E  C5                 [341] (103)
775F  00                 [342] (103)
7760  00                 [343] (103)
7761  00                 [344] (103)
7762  D0                 [345] (98)
7763  00                 [346] (108)
7764  00                 [347] (108)
7765  00                 [348] (108)
7766  D0                 [349] (105)
7767  00                 [350] (115)
7768  00                 [351] (115)
7769  00                 [352] (115)
776A  D0                 [353] (115)
776B  00                 [354] (110)
776C  00                 [355] (120)
776D  00                 [356] (120)
776E  D0                 [357] (120)
776F  00                 [358] (117)
7770  00                 [359] (127)
7771  00                 [360] (127)
7772  D0                 [361] (127)
7773  00                 [362] (127)
7774  00                 [363] (122)
7775  00                 [364] (-124)
7776  D7                 [365] (-124)
7777  00                 [366] (-124)
7778  00                 [367] (-127)
7779  00                 [368] (-117)
777A  D7                 [369] (-117)
777B  00                 [370] (-117)
777C  00                 [371] (-117)
777D  00                 [372] (-122)
777E  D7                 [373] (-109)
777F  00                 [374] (-109)
7780  00                 [375] (-109)
7781  00                 [376] (-109)
7782  D7                 [377] (-115)
7783  00                 [378] (-101)
7784  00                 [379] (-101)
7785  00                 [380] (-101)
7786  E9                 [381] (-101)
7787  00                 [382] (-107)
7788  00                 [383] (-93)
7789  00                 [384] (-93)
778A  E9                 [385] (-93)
778B  00                 [386] (-93)
778C  00                 [387] (-99)
778D  00                 [388] (-85)
778E  E9                 [389] (-85)
778F  00                 [390] (-85)
7790  00                 [391] (-85)
7791  00                 [392] (-91)
7792  E9                 [393] (-77)
7793  00                 [394] (-77)
7794  00                 [395] (-77)
7795  00                 [396] (-77)
7796  E9                 [397] (-83)
7797  00                 [398] (-69)
7798  00                 [399] (-69)
7799  00                 [400] (-69)
779A  E9                 [401] (-69)
779B  00                 [402] (-75)
779C  00                 [403] (-64)
779D  00                 [404] (-64)
779E  E9                 [405] (-64)
779F  00                 [406] (-64)
77A0  00                 [407] (-67)
77A1  00                 [408] (-59)
77A2  E9                 [409] (-59)
77A3  00                 [410] (-59)
77A4  00                 [411] (-59)
77A5  00                 [412] (-62)
77A6  E9                 [413] (-54)
77A7  00                 [414] (-54)
77A8  00                 [415] (-54)
77A9  00                 [416] (-57)
77AA  F3                 [417] (-49)
77AB  00                 [418] (-49)
77AC  00                 [419] (-49)
77AD  00                 [420] (-52)
77AE  F3                 [421] (-23)
77AF  00                 [422] (-23)
77B0  00                 [423] (-23)
77B1  00                 [424] (-23)
77B2  F3                 [425] (-23)
77B3  00                 [426] (-23)
77B4  00                 [427] (-23)
77B5  00                 [428] (-23)
77B6  F3                 [429] (-23)
77B7  00                 [430] (-47)
77B8  00                 [431] (-11)
77B9  00                 [432] (-11)
77BA  F7                 [433] (-11)
77BB  00                 [434] (-11)
77BC  00                 [435] (-11)
77BD  00                 [436] (-21)
77BE  F7                 [437] (-11)
                         * locals:
7CDE  00                 sizelocvars (0)
                         * upvalues:
7CDF  00                 sizeupvalues (0)
                         ** end of function **

7CE0                     ** end of chunk **
