1	C:\wlua_dump\path\Lotus\InterfaceProgress.lua
Pos   Hex Data           Description or Code
------------------------------------------------------------------------
0000                     ** source chunk: C:\wlua_dump\path\Lotus\InterfaceProgress.lua
                         ** global header start **
0000  7F                 header signature: ""
0001  00                 version (major:minor hex digits)
0002  00                 format (0=official)
0003  00                 endianness (1=little endian)
0004  00                 size of int (bytes)
0005  00                 size of size_t (bytes)
0006  02                 size of Instruction (bytes)
0007  40                 size of number (bytes)
0008  C2                 integral (1=integral)
4194
                         * number type: single
                         * x86 standard (32-bit, little endian, doubles)
                         ** global header end **
EE.Interface.AnchorMgr
EE.Interface.Utilities
Lotus.Interface.LotusUtilities
Lotus.Scripts.LisetCustomizationsUtilities
-
BankLeft
BankRight
BankUp
BankDown
Brake
/Lotus/Objects/Tenno/Ships/Liset/SquadLiset
/Lotus/Interface/EndOfMatch.swf
/Lotus/Levels/Episodes/UserSubmission9HopperC.level
PlayerCamera
onViewportSizeChanged
Initialize
Shutdown
Update
onKeyDown_MENU_SELECT
onKeyUp_MENU_SELECT
onKeyDown_MENU_CLICK
onKeyUp_MENU_CLICK
onKeyDown_MENU_UP
onKeyDown_MENU_UP_FROM_ANALOG
onKeyUp_MENU_UP
onKeyUp_MENU_UP_FROM_ANALOG
onKeyDown_MENU_DOWN
onKeyDown_MENU_DOWN_FROM_ANALOG
onKeyUp_MENU_DOWN
onKeyUp_MENU_DOWN_FROM_ANALOG
onKeyDown_MENU_LEFT
onKeyDown_MENU_LEFT_FROM_ANALOG
onKeyUp_MENU_LEFT
onKeyUp_MENU_LEFT_FROM_ANALOG
onKeyDown_MENU_RIGHT
onKeyDown_MENU_RIGHT_FROM_ANALOG
onKeyUp_MENU_RIGHT
onKeyUp_MENU_RIGHT_FROM_ANALOG
onKeyDown_MOTION_YAW
onKeyDown_MOTION_PITCH
mMovie
Banner
_width
_height
Lotus.Interface.Libs.TimerMgr
mMovie
Progress.Bar
_x
_width
mMovie
Tip.Content
textHeight
Tip.Author
_y
UISys
FlashInstance_LINEAR
_alpha
mMovie
_x
_y
ShowTip()
gameTips
gFlashMgr
HUD.UseAlternateHud
_G
DisableLoadingDiorama
math
desc

mMovie
author
string
- 
/Lotus/Language/DesignCouncilTips/DC_Councillor
NAME
Tip.Content
text
Tip.Author
_alpha
_T
LoadScreenLevelOverride
math
gGameConfig
_G
gSelectedNodeName
region
PlayerCamera1
flyToEarthLevel
flyToMarsLevel
flyFromPlanetLevel
_G
questInfo
gSelectedNodeName
activeQuest
string
KEY_TAG
stage
mMainMission
mKey
LoadingTutorial
gPendingMission
quest

QuestNodeNames
name
HUB_TAG
baseNodeName
_G
gLoadedShipSkinsFromDiorama
-
mMovie
Tip
ANCHOR_V_TOP
ANCHOR_H_LEFT
Progress
ANCHOR_V_BOTTOM
ANCHOR_H_CENTRE
GenericMessage
ANCHOR_V_CENTRE
Progress.Bar.Fill
_width

Engine
WarframeLogoCY
WarframeLogoChina
WarframeLogo
_visible
Progress.Player1.Name
text
Progress.Player
.ProfileImage
defaultProfileTexture
playerAvatarMaterial
_alpha
_x
.Name
Name
verticalAlignment
bottom
.Progress.Fill
progressMaterial
AlphaTestThreshold
gPlayerProfileMgr
gFlashMgr
HUD.UseAlternateHud
Server.FastLoad
DisableLoadingDiorama
gClient
PlayingMiniGame
wyrmius
/Lotus/Characters/Pets/Wyrm/Wyrm_skel.fbx
mesh
anchor
scale
stalker
StalkerMode
TempStalker
gMatchingService
Lotus.Interface.Libs.DioramaLoader
Loading progress level 
cjson
loadout
ShipType
ShipCustomizations
SkinFlavourItem
UISys
ShipMeshOverride
mSyncAvatars
Player
gBackgroundRegion
Ship
Origin
Rot
Offset
Thrust
Visible
_T
UsedLisetCustomizations
Normal
LowerName
_root
FlashInstance_LINEAR
Banner
bootTexture
bannerMaterial
Tip.Content
Tip.Author
gPromotedToHost
GenericMessage.text
/Multiplayer/HostMigration_JoiningSession
mapSoundMusic
MapSoundInst
BootGlitch
math
hiddenMovie
mMovie
_G
gLoadedShipSkinsFromDiorama
gRegion
_T
LoadingScreenTransOut
DisableLoadingDiorama
gBackgroundRegion
Player
table
LowerName
EMPTY_SYMBOL
InFlight
Visible
math
string
userName
LowerName
isLocal
shipInputX
shipInputY
shipInputBrake
Ship
Rot
Origin
Offset
Thrust
gClient
x
y
z
heading
pitch
bank
gMatchingService
name
cjson
loadout
ProfileImage

defaultProfileTexture
mMovie
.ProfileImage
gClient
mMovie
gRegion
math
PlayerCamera
gBackgroundRegion
Ship
_root
UISys
FlashInstance_EASE_IN_OUT_BACK
LisetSequencer
Task.text
gGameRules
gLotusAttractModeGameRulesType
_T
BackgroundMovie
MENU_SUIT_AVATAR_PROGRESS
Progress.Bar.Fill
FlashInstance_EASE_OUT
_width
userName
HIDDEN_PLAYER_NAME
table
gPlayerProfileMgr
Name
Data
Progress.Player
_x
Engine
multiline
.Name
text
...
_alpha
progress
.Progress.Fill
AlphaTestThreshold
LowerName
gMatchingService
isLocal
string
name
cjson
loadout
Visible
UsedLisetCustomizations
Normal
ShipType
ShipCustomizations
SkinFlavourItem
_G
gLoadedShipSkinsFromDiorama
Loader
ShipIndex
ThingsLoaded
gCmdLine
IsMenuSuitAvatarShowing

Starting Vignette close animation...
dioramaFadeTime
fadeTime
LoadingScreenTransOut
Progress
_visible
Progress.Player1.Progress.gotoAndStop
Loading
math
math
                         
0001                     ** function [0] definition (level 1)
                         ** start of function **
0001  00                 string size (0)
                         source name: (none)
0002  00                 line defined (0)
0003  00                 last line defined (0)
0004  00                 nups (0)
0005  00                 numparams (0)
0006  02                 is_vararg (2)
0007  40                 maxstacksize (64)
                         * code:
0009  02                 sizecode (322)
000A  19000000           [001] loadk      0   0        ; 0
000E  4B008001           [002] newtable   1   3   0    ; array=3, hash=0
0012  9D400000           [003] getglobal  2   1        ; 1892953090
0016  D9800000           [004] loadk      3   2        ; 0
001A  12010000           [005] move       4   0      
001E  A2808001           [006] call       2   3   2  
0022  DD400000           [007] getglobal  3   1        ; 1892953090
0026  19810000           [008] loadk      4   2        ; 0
002A  52010000           [009] move       5   0      
002E  E2808001           [010] call       3   3   2  
0032  1D410000           [011] getglobal  4   1        ; 1892953090
0036  59810000           [012] loadk      5   2        ; 0
003A  92010000           [013] move       6   0      
003E  22818001           [014] call       4   3   2  
0042  5D410000           [015] getglobal  5   1        ; 1892953090
0046  99810000           [016] loadk      6   2        ; 0
004A  D2010000           [017] move       7   0      
004E  62018001           [018] call       5   3   0  
0052  5B400000           [019] setlist    1   0   1    ; index 1 to top
0056  8B008001           [020] newtable   2   3   0    ; array=3, hash=0
005A  DD400000           [021] getglobal  3   1        ; 1892953090
005E  19810000           [022] loadk      4   2        ; 0
0062  52010000           [023] move       5   0      
0066  E2808001           [024] call       3   3   2  
006A  1D410000           [025] getglobal  4   1        ; 1892953090
006E  59810000           [026] loadk      5   2        ; 0
0072  92010000           [027] move       6   0      
0076  22818001           [028] call       4   3   2  
007A  5D410000           [029] getglobal  5   1        ; 1892953090
007E  99810000           [030] loadk      6   2        ; 0
0082  D2010000           [031] move       7   0      
0086  62818001           [032] call       5   3   2  
008A  9D410000           [033] getglobal  6   1        ; 1892953090
008E  D9810000           [034] loadk      7   2        ; 0
0092  12020000           [035] move       8   0      
0096  A2018001           [036] call       6   3   0  
009A  9B400000           [037] setlist    2   0   1    ; index 1 to top
009E  CB008001           [038] newtable   3   3   0    ; array=3, hash=0
00A2  1D410000           [039] getglobal  4   1        ; 1892953090
00A6  59810000           [040] loadk      5   2        ; 0
00AA  92010000           [041] move       6   0      
00AE  22818001           [042] call       4   3   2  
00B2  5D410000           [043] getglobal  5   1        ; 1892953090
00B6  99810000           [044] loadk      6   2        ; 0
00BA  D2010000           [045] move       7   0      
00BE  62818001           [046] call       5   3   2  
00C2  9D410000           [047] getglobal  6   1        ; 1892953090
00C6  D9810000           [048] loadk      7   2        ; 0
00CA  12020000           [049] move       8   0      
00CE  A2818001           [050] call       6   3   2  
00D2  DD410000           [051] getglobal  7   1        ; 1892953090
00D6  19820000           [052] loadk      8   2        ; 0
00DA  52020000           [053] move       9   0      
00DE  E2018001           [054] call       7   3   0  
00E2  DB400000           [055] setlist    3   0   1    ; index 1 to top
00E6  1DC10000           [056] getglobal  4   3        ; 849075268
00EA  59010100           [057] loadk      5   4        ; "EE.Interface.AnchorMgr"
00EE  22810001           [058] call       4   2   2  
00F2  5DC10000           [059] getglobal  5   3        ; 849075268
00F6  99410100           [060] loadk      6   5        ; "EE.Interface.Utilities"
00FA  62810001           [061] call       5   2   2  
00FE  9DC10000           [062] getglobal  6   3        ; 849075268
0102  D9810100           [063] loadk      7   6        ; "Lotus.Interface.LotusUtilities"
0106  A2810001           [064] call       6   2   2  
010A  DDC10000           [065] getglobal  7   3        ; 849075268
010E  19C20100           [066] loadk      8   7        ; "Lotus.Scripts.LisetCustomizationsUtilities"
0112  E2810001           [067] call       7   2   2  
0116  06028004           [068] loadnil    8   9      
011A  99020200           [069] loadk      10  8        ; "-"
011E  D9420200           [070] loadk      11  9        ; 0
0122  17030000           [071] loadbool   12  0   0    ; false
0126  59830200           [072] loadk      13  10       ; -18
012A  99C30200           [073] loadk      14  11       ; 0
012E  D7030000           [074] loadbool   15  0   0    ; false
0132  19440200           [075] loadk      16  9        ; 0
0136  59840000           [076] loadk      17  2        ; 0
013A  99840000           [077] loadk      18  2        ; 0
013E  C604000A           [078] loadnil    19  20     
0142  57050000           [079] loadbool   21  0   0    ; false
0146  99050300           [080] loadk      22  12       ; 0
014A  D7050000           [081] loadbool   23  0   0    ; false
014E  0606000C           [082] loadnil    24  24     
0152  57060000           [083] loadbool   25  0   0    ; false
0156  97060000           [084] loadbool   26  0   0    ; false
015A  D7060000           [085] loadbool   27  0   0    ; false
015E  17070000           [086] loadbool   28  0   0    ; false
0162  57070000           [087] loadbool   29  0   0    ; false
0166  97070000           [088] loadbool   30  0   0    ; false
016A  D7070000           [089] loadbool   31  0   0    ; false
016E  19480300           [090] loadk      32  13       ; -51
0172  4B080000           [091] newtable   33  0   0    ; array=0, hash=0
0176  86080011           [092] loadnil    34  34     
017A  D9880300           [093] loadk      35  14       ; 0
017E  19C90300           [094] loadk      36  15       ; 10
0182  5D090400           [095] getglobal  37  16       ; -332969190
0186  99490400           [096] loadk      38  17       ; "BankLeft"
018A  62890001           [097] call       37  2   2  
018E  9D090400           [098] getglobal  38  16       ; -332969190
0192  D9890400           [099] loadk      39  18       ; "BankRight"
0196  A2890001           [100] call       38  2   2  
019A  DD090400           [101] getglobal  39  16       ; -332969190
019E  19CA0400           [102] loadk      40  19       ; "BankUp"
01A2  E2890001           [103] call       39  2   2  
01A6  1D0A0400           [104] getglobal  40  16       ; -332969190
01AA  590A0500           [105] loadk      41  20       ; "BankDown"
01AE  228A0001           [106] call       40  2   2  
01B2  5D0A0400           [107] getglobal  41  16       ; -332969190
01B6  994A0500           [108] loadk      42  21       ; "Brake"
01BA  628A0001           [109] call       41  2   2  
01BE  998A0000           [110] loadk      42  2        ; 0
01C2  CB0A0000           [111] newtable   43  0   0    ; array=0, hash=0
01C6  0B0B0000           [112] newtable   44  0   0    ; array=0, hash=0
01CA  5D8B0500           [113] getglobal  45  22       ; 738251817
01CE  99CB0500           [114] loadk      46  23       ; "/Lotus/Objects/Tenno/Ships/Liset/SquadLiset"
01D2  628B0001           [115] call       45  2   2  
01D6  9D8B0500           [116] getglobal  46  22       ; 738251817
01DA  D90B0600           [117] loadk      47  24       ; "/Lotus/Interface/EndOfMatch.swf"
01DE  A28B0001           [118] call       46  2   2  
01E2  DD8B0500           [119] getglobal  47  22       ; 738251817
01E6  194C0600           [120] loadk      48  25       ; "/Lotus/Levels/Episodes/UserSubmission9HopperC.level"
01EA  E28B0001           [121] call       47  2   2  
01EE  198C0600           [122] loadk      48  26       ; "PlayerCamera"
01F2  650C0000           [123] closure    49  0      
01F6  12008002           [124] move       0   5      
01FA  A54C0000           [125] closure    50  1      
01FE  12008004           [126] move       0   9      
0202  E58C0000           [127] closure    51  2      
0206  12008002           [128] move       0   5      
020A  25CD0000           [129] closure    52  3      
020E  12000019           [130] move       0   50     
0212  12008004           [131] move       0   9      
0216  650D0100           [132] closure    53  4      
021A  12000004           [133] move       0   8      
021E  12008019           [134] move       0   51     
0222  1200001A           [135] move       0   52     
0226  60CD0600           [136] setglobal  53  27       ; onViewportSizeChanged
022A  600D0700           [137] setglobal  53  28       ; 982516775
022E  654D0100           [138] closure    53  5      
0232  12008008           [139] move       0   17     
0236  12000009           [140] move       0   18     
023A  A58D0100           [141] closure    54  6      
023E  1200001A           [142] move       0   52     
0242  E5CD0100           [143] closure    55  7      
0246  12000003           [144] move       0   6      
024A  12000018           [145] move       0   48     
024E  250E0200           [146] closure    56  8      
0252  12000003           [147] move       0   6      
0256  654E0200           [148] closure    57  9      
025A  12000005           [149] move       0   10     
025E  12000019           [150] move       0   50     
0262  12000004           [151] move       0   8      
0266  12000002           [152] move       0   4      
026A  12000012           [153] move       0   36     
026E  12008019           [154] move       0   51     
0272  12008011           [155] move       0   35     
0276  1200800A           [156] move       0   21     
027A  12008017           [157] move       0   47     
027E  12000017           [158] move       0   46     
0282  12008009           [159] move       0   19     
0286  12008002           [160] move       0   5      
028A  1200801B           [161] move       0   55     
028E  1200000A           [162] move       0   20     
0292  12008010           [163] move       0   33     
0296  12000011           [164] move       0   34     
029A  12008018           [165] move       0   49     
029E  1200001C           [166] move       0   56     
02A2  1200001B           [167] move       0   54     
02A6  604E0700           [168] setglobal  57  29       ; Initialize
02AA  608E0700           [169] setglobal  57  30       ; 1650753590
02AE  658E0200           [170] closure    57  10     
02B2  1200000A           [171] move       0   20     
02B6  12008009           [172] move       0   19     
02BA  60CE0700           [173] setglobal  57  31       ; Shutdown
02BE  600E0800           [174] setglobal  57  32       ; 1012367267
02C2  4B0E0000           [175] newtable   57  0   0    ; array=0, hash=0
02C6  A5CE0200           [176] closure    58  11     
02CA  1200801C           [177] move       0   57     
02CE  12008016           [178] move       0   45     
02D2  12008010           [179] move       0   33     
02D6  12008003           [180] move       0   7      
02DA  E50E0300           [181] closure    59  12     
02DE  254F0300           [182] closure    60  13     
02E2  1200800D           [183] move       0   27     
02E6  1200000E           [184] move       0   28     
02EA  1200800E           [185] move       0   29     
02EE  1200000F           [186] move       0   30     
02F2  1200800F           [187] move       0   31     
02F6  12008010           [188] move       0   33     
02FA  1200000C           [189] move       0   24     
02FE  12008000           [190] move       0   1      
0302  12000001           [191] move       0   2      
0306  12008001           [192] move       0   3      
030A  12008012           [193] move       0   37     
030E  12000013           [194] move       0   38     
0312  12008013           [195] move       0   39     
0316  12000014           [196] move       0   40     
031A  12008014           [197] move       0   41     
031E  658F0300           [198] closure    61  14     
0322  A5CF0300           [199] closure    62  15     
0326  1200801E           [200] move       0   61     
032A  E50F0400           [201] closure    63  16     
032E  12008010           [202] move       0   33     
0332  1200001E           [203] move       0   60     
0336  12008004           [204] move       0   9      
033A  1200800A           [205] move       0   21     
033E  12008018           [206] move       0   49     
0342  1200000C           [207] move       0   24     
0346  12008002           [208] move       0   5      
034A  1200800B           [209] move       0   23     
034E  1200800C           [210] move       0   25     
0352  1200000D           [211] move       0   26     
0356  12000005           [212] move       0   10     
035A  12000012           [213] move       0   36     
035E  12000003           [214] move       0   6      
0362  12008011           [215] move       0   35     
0366  1200001D           [216] move       0   58     
036A  1200801E           [217] move       0   61     
036E  12000008           [218] move       0   16     
0372  1200001F           [219] move       0   62     
0376  12008015           [220] move       0   43     
037A  12000016           [221] move       0   44     
037E  12008007           [222] move       0   15     
0382  1200000B           [223] move       0   22     
0386  12000015           [224] move       0   42     
038A  12000007           [225] move       0   14     
038E  12000006           [226] move       0   12     
0392  12008009           [227] move       0   19     
0396  E04F0800           [228] setglobal  63  33       ; Update
039A  E08F0800           [229] setglobal  63  34       ; -1938777623
039E  E54F0400           [230] closure    63  17     
03A2  1200800F           [231] move       0   31     
03A6  E0CF0800           [232] setglobal  63  35       ; onKeyDown_MENU_SELECT
03AA  E00F0900           [233] setglobal  63  36       ; -287499569
03AE  E58F0400           [234] closure    63  18     
03B2  1200800F           [235] move       0   31     
03B6  E04F0900           [236] setglobal  63  37       ; onKeyUp_MENU_SELECT
03BA  E08F0900           [237] setglobal  63  38       ; 1215563932
03BE  E5CF0400           [238] closure    63  19     
03C2  1200800F           [239] move       0   31     
03C6  E0CF0900           [240] setglobal  63  39       ; onKeyDown_MENU_CLICK
03CA  E00F0A00           [241] setglobal  63  40       ; -469094454
03CE  E50F0500           [242] closure    63  20     
03D2  1200800F           [243] move       0   31     
03D6  E04F0A00           [244] setglobal  63  41       ; onKeyUp_MENU_CLICK
03DA  E08F0A00           [245] setglobal  63  42       ; 914083198
03DE  E54F0500           [246] closure    63  21     
03E2  1200000F           [247] move       0   30     
03E6  E0CF0A00           [248] setglobal  63  43       ; onKeyDown_MENU_UP
03EA  E00F0B00           [249] setglobal  63  44       ; 963615866
03EE  E58F0500           [250] closure    63  22     
03F2  1200000F           [251] move       0   30     
03F6  E04F0B00           [252] setglobal  63  45       ; onKeyDown_MENU_UP_FROM_ANALOG
03FA  E08F0B00           [253] setglobal  63  46       ; 133137248
03FE  E5CF0500           [254] closure    63  23     
0402  1200000F           [255] move       0   30     
0406  E0CF0B00           [256] setglobal  63  47       ; onKeyUp_MENU_UP
040A  E00F0C00           [257] setglobal  63  48       ; -278231323
040E  E50F0600           [258] closure    63  24     
0412  1200000F           [259] move       0   30     
0416  E04F0C00           [260] setglobal  63  49       ; onKeyUp_MENU_UP_FROM_ANALOG
041A  E08F0C00           [261] setglobal  63  50       ; -1632054746
041E  E54F0600           [262] closure    63  25     
0422  1200800E           [263] move       0   29     
0426  E0CF0C00           [264] setglobal  63  51       ; onKeyDown_MENU_DOWN
042A  E00F0D00           [265] setglobal  63  52       ; 1011601395
042E  E58F0600           [266] closure    63  26     
0432  1200800E           [267] move       0   29     
0436  E04F0D00           [268] setglobal  63  53       ; onKeyDown_MENU_DOWN_FROM_ANALOG
043A  E08F0D00           [269] setglobal  63  54       ; 1118028515
043E  E5CF0600           [270] closure    63  27     
0442  1200800E           [271] move       0   29     
0446  E0CF0D00           [272] setglobal  63  55       ; onKeyUp_MENU_DOWN
044A  E00F0E00           [273] setglobal  63  56       ; -252043339
044E  E50F0700           [274] closure    63  28     
0452  1200800E           [275] move       0   29     
0456  E04F0E00           [276] setglobal  63  57       ; onKeyUp_MENU_DOWN_FROM_ANALOG
045A  E08F0E00           [277] setglobal  63  58       ; 689024498
045E  E54F0700           [278] closure    63  29     
0462  1200000E           [279] move       0   28     
0466  E0CF0E00           [280] setglobal  63  59       ; onKeyDown_MENU_LEFT
046A  E00F0F00           [281] setglobal  63  60       ; -414055353
046E  E58F0700           [282] closure    63  30     
0472  1200000E           [283] move       0   28     
0476  E04F0F00           [284] setglobal  63  61       ; onKeyDown_MENU_LEFT_FROM_ANALOG
047A  E08F0F00           [285] setglobal  63  62       ; 2124621137
047E  E5CF0700           [286] closure    63  31     
0482  1200000E           [287] move       0   28     
0486  E0CF0F00           [288] setglobal  63  63       ; onKeyUp_MENU_LEFT
048A  E00F1000           [289] setglobal  63  64       ; 1025351894
048E  E50F0800           [290] closure    63  32     
0492  1200000E           [291] move       0   28     
0496  E04F1000           [292] setglobal  63  65       ; onKeyUp_MENU_LEFT_FROM_ANALOG
049A  E08F1000           [293] setglobal  63  66       ; -2090026234
049E  E54F0800           [294] closure    63  33     
04A2  1200800D           [295] move       0   27     
04A6  E0CF1000           [296] setglobal  63  67       ; onKeyDown_MENU_RIGHT
04AA  E00F1100           [297] setglobal  63  68       ; -642185325
04AE  E58F0800           [298] closure    63  34     
04B2  1200800D           [299] move       0   27     
04B6  E04F1100           [300] setglobal  63  69       ; onKeyDown_MENU_RIGHT_FROM_ANALOG
04BA  E08F1100           [301] setglobal  63  70       ; -2136329722
04BE  E5CF0800           [302] closure    63  35     
04C2  1200800D           [303] move       0   27     
04C6  E0CF1100           [304] setglobal  63  71       ; onKeyUp_MENU_RIGHT
04CA  E00F1200           [305] setglobal  63  72       ; -2091611677
04CE  E50F0900           [306] closure    63  36     
04D2  1200800D           [307] move       0   27     
04D6  E04F1200           [308] setglobal  63  73       ; onKeyUp_MENU_RIGHT_FROM_ANALOG
04DA  E08F1200           [309] setglobal  63  74       ; 147711887
04DE  E54F0900           [310] closure    63  37     
04E2  12000010           [311] move       0   32     
04E6  1200800D           [312] move       0   27     
04EA  1200000E           [313] move       0   28     
04EE  E0CF1200           [314] setglobal  63  75       ; onKeyDown_MOTION_YAW
04F2  E00F1300           [315] setglobal  63  76       ; 514711165
04F6  E58F0900           [316] closure    63  38     
04FA  12000010           [317] move       0   32     
04FE  1200000F           [318] move       0   30     
0502  1200800E           [319] move       0   29     
0506  E04F1300           [320] setglobal  63  77       ; onKeyDown_MOTION_PITCH
050A  E08F1300           [321] setglobal  63  78       ; -769003897
050E  1E008000           [322] return     0   1      
                         * constants:
0512  4F                 sizek (79)
0513  03                 const type 3
0514  0000803E           const [0]: (0)
0518  01                 const type 3
0519  022CD470           const [1]: (1892953090)
051D  03                 const type 3
051E  00000000           const [2]: (0)
0522  01                 const type 3
0523  44DC9B32           const [3]: (849075268)
0527  04                 const type 4
0528  17                 string size (23)
0529  45452E496E746572+  "EE.Inter"
0531  666163652E416E63+  "face.Anc"
0539  686F724D677200     "horMgr\0"
                         const [4]: "EE.Interface.AnchorMgr"
0540  04                 const type 4
0541  17                 string size (23)
0542  45452E496E746572+  "EE.Inter"
054A  666163652E557469+  "face.Uti"
0552  6C697469657300     "lities\0"
                         const [5]: "EE.Interface.Utilities"
0559  04                 const type 4
055A  1F                 string size (31)
055B  4C6F7475732E496E+  "Lotus.In"
0563  746572666163652E+  "terface."
056B  4C6F747573557469+  "LotusUti"
0573  6C697469657300     "lities\0"
                         const [6]: "Lotus.Interface.LotusUtilities"
057A  04                 const type 4
057B  2B                 string size (43)
057C  4C6F7475732E5363+  "Lotus.Sc"
0584  72697074732E4C69+  "ripts.Li"
058C  736574437573746F+  "setCusto"
0594  6D697A6174696F6E+  "mization"
059C  735574696C697469+  "sUtiliti"
05A4  657300             "es\0"
                         const [7]: "Lotus.Scripts.LisetCustomizationsUtilities"
05A7  04                 const type 4
05A8  02                 string size (2)
05A9  2D00               "-\0"
                         const [8]: "-"
05AB  03                 const type 3
05AC  000080BF           const [9]: (0)
05B0  03                 const type 3
05B1  EE69843F           const [10]: (-18)
05B5  03                 const type 3
05B6  0000803F           const [11]: (0)
05BA  03                 const type 3
05BB  00008040           const [12]: (0)
05BF  03                 const type 3
05C0  CDCCCC3D           const [13]: (-51)
05C4  03                 const type 3
05C5  00000041           const [14]: (0)
05C9  03                 const type 3
05CA  0AD7233C           const [15]: (10)
05CE  01                 const type 3
05CF  1A4B27EC           const [16]: (-332969190)
05D3  04                 const type 4
05D4  09                 string size (9)
05D5  42616E6B4C656674+  "BankLeft"
05DD  00                 "\0"
                         const [17]: "BankLeft"
05DE  04                 const type 4
05DF  0A                 string size (10)
05E0  42616E6B52696768+  "BankRigh"
05E8  7400               "t\0"
                         const [18]: "BankRight"
05EA  04                 const type 4
05EB  07                 string size (7)
05EC  42616E6B557000     "BankUp\0"
                         const [19]: "BankUp"
05F3  04                 const type 4
05F4  09                 string size (9)
05F5  42616E6B446F776E+  "BankDown"
05FD  00                 "\0"
                         const [20]: "BankDown"
05FE  04                 const type 4
05FF  06                 string size (6)
0600  4272616B6500       "Brake\0"
                         const [21]: "Brake"
0606  01                 const type 3
0607  29D4002C           const [22]: (738251817)
060B  04                 const type 4
060C  2C                 string size (44)
060D  2F4C6F7475732F4F+  "/Lotus/O"
0615  626A656374732F54+  "bjects/T"
061D  656E6E6F2F536869+  "enno/Shi"
0625  70732F4C69736574+  "ps/Liset"
062D  2F53717561644C69+  "/SquadLi"
0635  73657400           "set\0"
                         const [23]: "/Lotus/Objects/Tenno/Ships/Liset/SquadLiset"
0639  04                 const type 4
063A  20                 string size (32)
063B  2F4C6F7475732F49+  "/Lotus/I"
0643  6E74657266616365+  "nterface"
064B  2F456E644F664D61+  "/EndOfMa"
0653  7463682E73776600   "tch.swf\0"
                         const [24]: "/Lotus/Interface/EndOfMatch.swf"
065B  04                 const type 4
065C  34                 string size (52)
065D  2F4C6F7475732F4C+  "/Lotus/L"
0665  6576656C732F4570+  "evels/Ep"
066D  69736F6465732F55+  "isodes/U"
0675  7365725375626D69+  "serSubmi"
067D  7373696F6E39486F+  "ssion9Ho"
0685  70706572432E6C65+  "pperC.le"
068D  76656C00           "vel\0"
                         const [25]: "/Lotus/Levels/Episodes/UserSubmission9HopperC.level"
0691  04                 const type 4
0692  0D                 string size (13)
0693  506C617965724361+  "PlayerCa"
069B  6D65726100         "mera\0"
                         const [26]: "PlayerCamera"
06A0  04                 const type 4
06A1  16                 string size (22)
06A2  6F6E56696577706F+  "onViewpo"
06AA  727453697A654368+  "rtSizeCh"
06B2  616E67656400       "anged\0"
                         const [27]: "onViewportSizeChanged"
06B8  01                 const type 3
06B9  2704903A           const [28]: (982516775)
06BD  04                 const type 4
06BE  0B                 string size (11)
06BF  496E697469616C69+  "Initiali"
06C7  7A6500             "ze\0"
                         const [29]: "Initialize"
06CA  01                 const type 3
06CB  36806462           const [30]: (1650753590)
06CF  04                 const type 4
06D0  09                 string size (9)
06D1  53687574646F776E+  "Shutdown"
06D9  00                 "\0"
                         const [31]: "Shutdown"
06DA  01                 const type 3
06DB  A37F573C           const [32]: (1012367267)
06DF  04                 const type 4
06E0  07                 string size (7)
06E1  55706461746500     "Update\0"
                         const [33]: "Update"
06E8  01                 const type 3
06E9  E999708C           const [34]: (-1938777623)
06ED  04                 const type 4
06EE  16                 string size (22)
06EF  6F6E4B6579446F77+  "onKeyDow"
06F7  6E5F4D454E555F53+  "n_MENU_S"
06FF  454C45435400       "ELECT\0"
                         const [35]: "onKeyDown_MENU_SELECT"
0705  01                 const type 3
0706  CF1ADDEE           const [36]: (-287499569)
070A  04                 const type 4
070B  14                 string size (20)
070C  6F6E4B657955705F+  "onKeyUp_"
0714  4D454E555F53454C+  "MENU_SEL"
071C  45435400           "ECT\0"
                         const [37]: "onKeyUp_MENU_SELECT"
0720  01                 const type 3
0721  9C087448           const [38]: (1215563932)
0725  04                 const type 4
0726  15                 string size (21)
0727  6F6E4B6579446F77+  "onKeyDow"
072F  6E5F4D454E555F43+  "n_MENU_C"
0737  4C49434B00         "LICK\0"
                         const [39]: "onKeyDown_MENU_CLICK"
073C  01                 const type 3
073D  CA2F0AE4           const [40]: (-469094454)
0741  04                 const type 4
0742  13                 string size (19)
0743  6F6E4B657955705F+  "onKeyUp_"
074B  4D454E555F434C49+  "MENU_CLI"
0753  434B00             "CK\0"
                         const [41]: "onKeyUp_MENU_CLICK"
0756  01                 const type 3
0757  7ECD7B36           const [42]: (914083198)
075B  04                 const type 4
075C  12                 string size (18)
075D  6F6E4B6579446F77+  "onKeyDow"
0765  6E5F4D454E555F55+  "n_MENU_U"
076D  5000               "P\0"
                         const [43]: "onKeyDown_MENU_UP"
076F  01                 const type 3
0770  7A9C6F39           const [44]: (963615866)
0774  04                 const type 4
0775  1E                 string size (30)
0776  6F6E4B6579446F77+  "onKeyDow"
077E  6E5F4D454E555F55+  "n_MENU_U"
0786  505F46524F4D5F41+  "P_FROM_A"
078E  4E414C4F4700       "NALOG\0"
                         const [45]: "onKeyDown_MENU_UP_FROM_ANALOG"
0794  01                 const type 3
0795  6083EF07           const [46]: (133137248)
0799  04                 const type 4
079A  10                 string size (16)
079B  6F6E4B657955705F+  "onKeyUp_"
07A3  4D454E555F555000   "MENU_UP\0"
                         const [47]: "onKeyUp_MENU_UP"
07AB  01                 const type 3
07AC  E5866AEF           const [48]: (-278231323)
07B0  04                 const type 4
07B1  1C                 string size (28)
07B2  6F6E4B657955705F+  "onKeyUp_"
07BA  4D454E555F55505F+  "MENU_UP_"
07C2  46524F4D5F414E41+  "FROM_ANA"
07CA  4C4F4700           "LOG\0"
                         const [49]: "onKeyUp_MENU_UP_FROM_ANALOG"
07CE  01                 const type 3
07CF  26D2B89E           const [50]: (-1632054746)
07D3  04                 const type 4
07D4  14                 string size (20)
07D5  6F6E4B6579446F77+  "onKeyDow"
07DD  6E5F4D454E555F44+  "n_MENU_D"
07E5  4F574E00           "OWN\0"
                         const [51]: "onKeyDown_MENU_DOWN"
07E9  01                 const type 3
07EA  F3CF4B3C           const [52]: (1011601395)
07EE  04                 const type 4
07EF  20                 string size (32)
07F0  6F6E4B6579446F77+  "onKeyDow"
07F8  6E5F4D454E555F44+  "n_MENU_D"
0800  4F574E5F46524F4D+  "OWN_FROM"
0808  5F414E414C4F4700   "_ANALOG\0"
                         const [53]: "onKeyDown_MENU_DOWN_FROM_ANALOG"
0810  01                 const type 3
0811  E3C2A342           const [54]: (1118028515)
0815  04                 const type 4
0816  12                 string size (18)
0817  6F6E4B657955705F+  "onKeyUp_"
081F  4D454E555F444F57+  "MENU_DOW"
0827  4E00               "N\0"
                         const [55]: "onKeyUp_MENU_DOWN"
0829  01                 const type 3
082A  B51FFAF0           const [56]: (-252043339)
082E  04                 const type 4
082F  1E                 string size (30)
0830  6F6E4B657955705F+  "onKeyUp_"
0838  4D454E555F444F57+  "MENU_DOW"
0840  4E5F46524F4D5F41+  "N_FROM_A"
0848  4E414C4F4700       "NALOG\0"
                         const [57]: "onKeyUp_MENU_DOWN_FROM_ANALOG"
084E  01                 const type 3
084F  F2AD1129           const [58]: (689024498)
0853  04                 const type 4
0854  14                 string size (20)
0855  6F6E4B6579446F77+  "onKeyDow"
085D  6E5F4D454E555F4C+  "n_MENU_L"
0865  45465400           "EFT\0"
                         const [59]: "onKeyDown_MENU_LEFT"
0869  01                 const type 3
086A  470452E7           const [60]: (-414055353)
086E  04                 const type 4
086F  20                 string size (32)
0870  6F6E4B6579446F77+  "onKeyDow"
0878  6E5F4D454E555F4C+  "n_MENU_L"
0880  4546545F46524F4D+  "EFT_FROM"
0888  5F414E414C4F4700   "_ANALOG\0"
                         const [61]: "onKeyDown_MENU_LEFT_FROM_ANALOG"
0890  01                 const type 3
0891  5125A37E           const [62]: (2124621137)
0895  04                 const type 4
0896  12                 string size (18)
0897  6F6E4B657955705F+  "onKeyUp_"
089F  4D454E555F4C4546+  "MENU_LEF"
08A7  5400               "T\0"
                         const [63]: "onKeyUp_MENU_LEFT"
08A9  01                 const type 3
08AA  D6A01D3D           const [64]: (1025351894)
08AE  04                 const type 4
08AF  1E                 string size (30)
08B0  6F6E4B657955705F+  "onKeyUp_"
08B8  4D454E555F4C4546+  "MENU_LEF"
08C0  545F46524F4D5F41+  "T_FROM_A"
08C8  4E414C4F4700       "NALOG\0"
                         const [65]: "onKeyUp_MENU_LEFT_FROM_ANALOG"
08CE  01                 const type 3
08CF  06BB6C83           const [66]: (-2090026234)
08D3  04                 const type 4
08D4  15                 string size (21)
08D5  6F6E4B6579446F77+  "onKeyDow"
08DD  6E5F4D454E555F52+  "n_MENU_R"
08E5  4947485400         "IGHT\0"
                         const [67]: "onKeyDown_MENU_RIGHT"
08EA  01                 const type 3
08EB  9307B9D9           const [68]: (-642185325)
08EF  04                 const type 4
08F0  21                 string size (33)
08F1  6F6E4B6579446F77+  "onKeyDow"
08F9  6E5F4D454E555F52+  "n_MENU_R"
0901  494748545F46524F+  "IGHT_FRO"
0909  4D5F414E414C4F47+  "M_ANALOG"
0911  00                 "\0"
                         const [69]: "onKeyDown_MENU_RIGHT_FROM_ANALOG"
0912  01                 const type 3
0913  0632AA80           const [70]: (-2136329722)
0917  04                 const type 4
0918  13                 string size (19)
0919  6F6E4B657955705F+  "onKeyUp_"
0921  4D454E555F524947+  "MENU_RIG"
0929  485400             "HT\0"
                         const [71]: "onKeyUp_MENU_RIGHT"
092C  01                 const type 3
092D  E3895483           const [72]: (-2091611677)
0931  04                 const type 4
0932  1F                 string size (31)
0933  6F6E4B657955705F+  "onKeyUp_"
093B  4D454E555F524947+  "MENU_RIG"
0943  48545F46524F4D5F+  "HT_FROM_"
094B  414E414C4F4700     "ANALOG\0"
                         const [73]: "onKeyUp_MENU_RIGHT_FROM_ANALOG"
0952  01                 const type 3
0953  8FE7CD08           const [74]: (147711887)
0957  04                 const type 4
0958  15                 string size (21)
0959  6F6E4B6579446F77+  "onKeyDow"
0961  6E5F4D4F54494F4E+  "n_MOTION"
0969  5F59415700         "_YAW\0"
                         const [75]: "onKeyDown_MOTION_YAW"
096E  01                 const type 3
096F  7DDEAD1E           const [76]: (514711165)
0973  04                 const type 4
0974  17                 string size (23)
0975  6F6E4B6579446F77+  "onKeyDow"
097D  6E5F4D4F54494F4E+  "n_MOTION"
0985  5F504954434800     "_PITCH\0"
                         const [77]: "onKeyDown_MOTION_PITCH"
098C  01                 const type 3
098D  87EE29D2           const [78]: (-769003897)
                         * functions:
0991  27                 sizep (39)
                         
0992                     ** function [0] definition (level 2)
                         ** start of function **
0992  00                 string size (0)
                         source name: (none)
0993  5F                 line defined (95)
0994  64                 last line defined (100)
0995  01                 nups (1)
0996  00                 numparams (0)
0997  00                 is_vararg (0)
0998  07                 maxstacksize (7)
                         * code:
0999  11                 sizecode (17)
099A  13000000           [01] getupval   0   0      
099E  0E004000           [02] gettable   0   0   256  ; -363423447
09A2  5D400000           [03] getglobal  1   1        ; mMovie
09A6  22C00001           [04] call       0   2   3  
09AA  9D400000           [05] getglobal  2   1        ; mMovie
09AE  A4804001           [06] self       2   2   258  ; 471456102
09B2  19C10000           [07] loadk      4   3        ; "Banner"
09B6  59010100           [08] loadk      5   4        ; "_width"
09BA  92010000           [09] move       6   0      
09BE  A2408002           [10] call       2   5   1  
09C2  9D400000           [11] getglobal  2   1        ; mMovie
09C6  A4804001           [12] self       2   2   258  ; 471456102
09CA  19C10000           [13] loadk      4   3        ; "Banner"
09CE  59410100           [14] loadk      5   5        ; "_height"
09D2  92018000           [15] move       6   1      
09D6  A2408002           [16] call       2   5   1  
09DA  1E008000           [17] return     0   1      
                         * constants:
09DE  06                 sizek (6)
09DF  01                 const type 3
09E0  299956EA           const [0]: (-363423447)
09E4  04                 const type 4
09E5  07                 string size (7)
09E6  6D4D6F76696500     "mMovie\0"
                         const [1]: "mMovie"
09ED  01                 const type 3
09EE  66D9191C           const [2]: (471456102)
09F2  04                 const type 4
09F3  07                 string size (7)
09F4  42616E6E657200     "Banner\0"
                         const [3]: "Banner"
09FB  04                 const type 4
09FC  07                 string size (7)
09FD  5F776964746800     "_width\0"
                         const [4]: "_width"
0A04  04                 const type 4
0A05  08                 string size (8)
0A06  5F68656967687400   "_height\0"
                         const [5]: "_height"
                         * functions:
0A0E  00                 sizep (0)
                         * lines:
0A0F  11                 sizelineinfo (17)
                         [pc] (line)
0A10  60                 [01] (96)
0A11  00                 [02] (96)
0A12  00                 [03] (96)
0A13  00                 [04] (96)
0A14  60                 [05] (98)
0A15  00                 [06] (98)
0A16  00                 [07] (98)
0A17  00                 [08] (98)
0A18  60                 [09] (98)
0A19  00                 [10] (98)
0A1A  00                 [11] (99)
0A1B  00                 [12] (99)
0A1C  60                 [13] (99)
0A1D  00                 [14] (99)
0A1E  00                 [15] (99)
0A1F  00                 [16] (99)
0A20  62                 [17] (100)
                         * locals:
0A54  00                 sizelocvars (0)
                         * upvalues:
0A55  00                 sizeupvalues (0)
                         ** end of function **

                         
0A56                     ** function [1] definition (level 2)
                         ** start of function **
0A56  00                 string size (0)
                         source name: (none)
0A57  66                 line defined (102)
0A58  6B                 last line defined (107)
0A59  01                 nups (1)
0A5A  00                 numparams (0)
0A5B  00                 is_vararg (0)
0A5C  02                 maxstacksize (2)
                         * code:
0A5D  0A                 sizecode (10)
0A5E  13000000           [01] getupval   0   0      
fail op	35
0A62  23004000           [02] close      0  
0A66  1A400180           [03] jmp        6            ; to [10]
0A6A  1D400000           [04] getglobal  0   1        ; 849075268
0A6E  59800000           [05] loadk      1   2        ; "Lotus.Interface.Libs.TimerMgr"
0A72  22800001           [06] call       0   2   2  
0A76  4EC04000           [07] gettable   1   0   259  ; -1029178688
0A7A  62808000           [08] call       1   1   2  
fail op	8
0A7E  48000000           [09] setupval   1   0      
0A82  1E008000           [10] return     0   1      
                         * constants:
0A86  04                 sizek (4)
0A87  00                 const type 0
                         const [0]: nil
0A88  01                 const type 3
0A89  44DC9B32           const [1]: (849075268)
0A8D  04                 const type 4
0A8E  1E                 string size (30)
0A8F  4C6F7475732E496E+  "Lotus.In"
0A97  746572666163652E+  "terface."
0A9F  4C6962732E54696D+  "Libs.Tim"
0AA7  65724D677200       "erMgr\0"
                         const [2]: "Lotus.Interface.Libs.TimerMgr"
0AAD  01                 const type 3
0AAE  C0FAA7C2           const [3]: (-1029178688)
                         * functions:
0AB2  00                 sizep (0)
                         * lines:
0AB3  0A                 sizelineinfo (10)
                         [pc] (line)
0AB4  67                 [01] (103)
0AB5  00                 [02] (103)
0AB6  00                 [03] (103)
0AB7  00                 [04] (104)
0AB8  67                 [05] (104)
0AB9  00                 [06] (104)
0ABA  00                 [07] (105)
0ABB  00                 [08] (105)
0ABC  67                 [09] (105)
0ABD  00                 [10] (107)
                         * locals:
0ADC  00                 sizelocvars (0)
                         * upvalues:
0ADD  00                 sizeupvalues (0)
                         ** end of function **

                         
0ADE                     ** function [2] definition (level 2)
                         ** start of function **
0ADE  00                 string size (0)
                         source name: (none)
0ADF  6D                 line defined (109)
0AE0  72                 last line defined (114)
0AE1  01                 nups (1)
0AE2  00                 numparams (0)
0AE3  00                 is_vararg (0)
0AE4  07                 maxstacksize (7)
                         * code:
0AE5  11                 sizecode (17)
0AE6  13000000           [01] getupval   0   0      
0AEA  0E004000           [02] gettable   0   0   256  ; -363423447
0AEE  5D400000           [03] getglobal  1   1        ; mMovie
0AF2  22C00001           [04] call       0   2   3  
0AF6  9D400000           [05] getglobal  2   1        ; mMovie
0AFA  A4804001           [06] self       2   2   258  ; 471456102
0AFE  19C10000           [07] loadk      4   3        ; "Progress.Bar"
0B02  59010100           [08] loadk      5   4        ; "_x"
0B06  84414100           [09] mul        6   0   261  ; 102
0B0A  A2408002           [10] call       2   5   1  
0B0E  9D400000           [11] getglobal  2   1        ; mMovie
0B12  A4804001           [12] self       2   2   258  ; 471456102
0B16  19C10000           [13] loadk      4   3        ; "Progress.Bar"
0B1A  59810100           [14] loadk      5   6        ; "_width"
0B1E  84C14100           [15] mul        6   0   263  ; 102
0B22  A2408002           [16] call       2   5   1  
0B26  1E008000           [17] return     0   1      
                         * constants:
0B2A  08                 sizek (8)
0B2B  01                 const type 3
0B2C  299956EA           const [0]: (-363423447)
0B30  04                 const type 4
0B31  07                 string size (7)
0B32  6D4D6F76696500     "mMovie\0"
                         const [1]: "mMovie"
0B39  01                 const type 3
0B3A  66D9191C           const [2]: (471456102)
0B3E  04                 const type 4
0B3F  0D                 string size (13)
0B40  50726F6772657373+  "Progress"
0B48  2E42617200         ".Bar\0"
                         const [3]: "Progress.Bar"
0B4D  04                 const type 4
0B4E  03                 string size (3)
0B4F  5F7800             "_x\0"
                         const [4]: "_x"
0B52  03                 const type 3
0B53  6666E6BE           const [5]: (102)
0B57  04                 const type 4
0B58  07                 string size (7)
0B59  5F776964746800     "_width\0"
                         const [6]: "_width"
0B60  03                 const type 3
0B61  6666663F           const [7]: (102)
                         * functions:
0B65  00                 sizep (0)
                         * lines:
0B66  11                 sizelineinfo (17)
                         [pc] (line)
0B67  6E                 [01] (110)
0B68  00                 [02] (110)
0B69  00                 [03] (110)
0B6A  00                 [04] (110)
0B6B  6E                 [05] (112)
0B6C  00                 [06] (112)
0B6D  00                 [07] (112)
0B6E  00                 [08] (112)
0B6F  6E                 [09] (112)
0B70  00                 [10] (112)
0B71  00                 [11] (113)
0B72  00                 [12] (113)
0B73  6E                 [13] (113)
0B74  00                 [14] (113)
0B75  00                 [15] (113)
0B76  00                 [16] (113)
0B77  70                 [17] (114)
                         * locals:
0BAB  00                 sizelocvars (0)
                         * upvalues:
0BAC  00                 sizeupvalues (0)
                         ** end of function **

                         
0BAD                     ** function [3] definition (level 2)
                         ** start of function **
0BAD  00                 string size (0)
                         source name: (none)
0BAE  74                 line defined (116)
0BAF  7E                 last line defined (126)
0BB0  02                 nups (2)
0BB1  00                 numparams (0)
0BB2  00                 is_vararg (0)
0BB3  04                 maxstacksize (4)
                         * code:
0BB4  08                 sizecode (8)
0BB5  13000000           [1] getupval   0   0      
0BB9  22408000           [2] call       0   1   1  
0BBD  13008000           [3] getupval   0   1      
0BC1  24004000           [4] self       0   0   256  ; 1632191879
0BC5  99400000           [5] loadk      2   1        ; 10
0BC9  E5000000           [6] closure    3   0      
0BCD  22400002           [7] call       0   4   1  
0BD1  1E008000           [8] return     0   1      
                         * constants:
0BD5  02                 sizek (2)
0BD6  01                 const type 3
0BD7  87454961           const [0]: (1632191879)
0BDB  03                 const type 3
0BDC  0AD7233C           const [1]: (10)
                         * functions:
0BE0  01                 sizep (1)
                         
0BE1                     ** function [0] definition (level 3)
                         ** start of function **
0BE1  00                 string size (0)
                         source name: (none)
0BE2  78                 line defined (120)
0BE3  7D                 last line defined (125)
0BE4  00                 nups (0)
0BE5  00                 numparams (0)
0BE6  00                 is_vararg (0)
0BE7  08                 maxstacksize (8)
                         * code:
0BE8  1B                 sizecode (27)
0BE9  1D000000           [01] getglobal  0   0        ; -174740002
0BED  5D400000           [02] getglobal  1   1        ; mMovie
0BF1  6480C000           [03] self       1   1   258  ; 1803241227
0BF5  D9C00000           [04] loadk      3   3        ; "Tip.Content"
0BF9  19010100           [05] loadk      4   4        ; "textHeight"
0BFD  62000002           [06] call       1   4   0  
0C01  22800000           [07] call       0   0   2  
0C05  5D400000           [08] getglobal  1   1        ; mMovie
0C09  6440C100           [09] self       1   1   261  ; 471456102
0C0D  D9800100           [10] loadk      3   6        ; "Tip.Author"
0C11  19C10100           [11] loadk      4   7        ; "_y"
0C15  52010000           [12] move       5   0      
0C19  62408002           [13] call       1   5   1  
0C1D  5D000200           [14] getglobal  1   8        ; 1390508688
0C21  9D400000           [15] getglobal  2   1        ; mMovie
0C25  D9800100           [16] loadk      3   6        ; "Tip.Author"
0C29  1D410200           [17] getglobal  4   9        ; UISys
0C2D  0E814202           [18] gettable   4   4   266  ; "FlashInstance_LINEAR"
0C31  4B018000           [19] newtable   5   1   0    ; array=1, hash=0
0C35  99C10200           [20] loadk      6   11       ; "_alpha"
0C39  5B418000           [21] setlist    5   1   1    ; index 1 to 1
0C3D  8B018000           [22] newtable   6   1   0    ; array=1, hash=0
0C41  D9010300           [23] loadk      7   12       ; 0
0C45  9B418000           [24] setlist    6   1   1    ; index 1 to 1
0C49  D9410300           [25] loadk      7   13       ; -51
0C4D  62408003           [26] call       1   7   1  
0C51  1E008000           [27] return     0   1      
                         * constants:
0C55  0E                 sizek (14)
0C56  01                 const type 3
0C57  DEAD95F5           const [0]: (-174740002)
0C5B  04                 const type 4
0C5C  07                 string size (7)
0C5D  6D4D6F76696500     "mMovie\0"
                         const [1]: "mMovie"
0C64  01                 const type 3
0C65  0B477B6B           const [2]: (1803241227)
0C69  04                 const type 4
0C6A  0C                 string size (12)
0C6B  5469702E436F6E74+  "Tip.Cont"
0C73  656E7400           "ent\0"
                         const [3]: "Tip.Content"
0C77  04                 const type 4
0C78  0B                 string size (11)
0C79  7465787448656967+  "textHeig"
0C81  687400             "ht\0"
                         const [4]: "textHeight"
0C84  01                 const type 3
0C85  66D9191C           const [5]: (471456102)
0C89  04                 const type 4
0C8A  0B                 string size (11)
0C8B  5469702E41757468+  "Tip.Auth"
0C93  6F7200             "or\0"
                         const [6]: "Tip.Author"
0C96  04                 const type 4
0C97  03                 string size (3)
0C98  5F7900             "_y\0"
                         const [7]: "_y"
0C9B  01                 const type 3
0C9C  907AE152           const [8]: (1390508688)
0CA0  04                 const type 4
0CA1  06                 string size (6)
0CA2  554953797300       "UISys\0"
                         const [9]: "UISys"
0CA8  04                 const type 4
0CA9  15                 string size (21)
0CAA  466C617368496E73+  "FlashIns"
0CB2  74616E63655F4C49+  "tance_LI"
0CBA  4E45415200         "NEAR\0"
                         const [10]: "FlashInstance_LINEAR"
0CBF  04                 const type 4
0CC0  07                 string size (7)
0CC1  5F616C70686100     "_alpha\0"
                         const [11]: "_alpha"
0CC8  03                 const type 3
0CC9  0000C842           const [12]: (0)
0CCD  03                 const type 3
0CCE  CDCCCC3D           const [13]: (-51)
                         * functions:
0CD2  00                 sizep (0)
                         * lines:
0CD3  1B                 sizelineinfo (27)
                         [pc] (line)
0CD4  79                 [01] (121)
0CD5  00                 [02] (121)
0CD6  00                 [03] (121)
0CD7  00                 [04] (121)
0CD8  79                 [05] (121)
0CD9  00                 [06] (121)
0CDA  00                 [07] (121)
0CDB  00                 [08] (122)
0CDC  79                 [09] (122)
0CDD  00                 [10] (122)
0CDE  00                 [11] (122)
0CDF  00                 [12] (122)
0CE0  79                 [13] (122)
0CE1  00                 [14] (124)
0CE2  00                 [15] (124)
0CE3  00                 [16] (124)
0CE4  79                 [17] (124)
0CE5  00                 [18] (124)
0CE6  00                 [19] (124)
0CE7  00                 [20] (124)
0CE8  79                 [21] (124)
0CE9  00                 [22] (124)
0CEA  00                 [23] (124)
0CEB  00                 [24] (124)
0CEC  79                 [25] (124)
0CED  00                 [26] (124)
0CEE  00                 [27] (125)
                         * locals:
0D40  00                 sizelocvars (0)
                         * upvalues:
0D41  00                 sizeupvalues (0)
                         ** end of function **

                         * lines:
0D42  08                 sizelineinfo (8)
                         [pc] (line)
0D43  75                 [1] (117)
0D44  00                 [2] (117)
0D45  00                 [3] (119)
0D46  00                 [4] (119)
0D47  75                 [5] (119)
0D48  00                 [6] (125)
0D49  00                 [7] (119)
0D4A  00                 [8] (126)
                         * locals:
0D63  00                 sizelocvars (0)
                         * upvalues:
0D64  00                 sizeupvalues (0)
                         ** end of function **

                         
0D65                     ** function [4] definition (level 2)
                         ** start of function **
0D65  00                 string size (0)
                         source name: (none)
0D67  01                 line defined (128)
0D68  86                 last line defined (134)
0D69  01                 nups (3)
0D6A  03                 numparams (4)
0D6B  04                 is_vararg (0)
0D6C  00                 maxstacksize (8)
                         * code:
0D6E  0F                 sizecode (15)
0D6F  1D010000           [01] getglobal  4   0        ; 1074689893
0D73  53010000           [02] getupval   5   0      
0D77  22810001           [03] call       4   2   2  
0D7B  18410000           [04] test       4       1    ; to [6] if false
0D7F  1A000180           [05] jmp        5            ; to [11]
0D83  13010000           [06] getupval   4   0      
0D87  24414002           [07] self       4   4   257  ; -1938777623
0D8B  92010000           [08] move       6   0      
0D8F  D2018000           [09] move       7   1      
0D93  22410002           [10] call       4   4   1  
0D97  13018000           [11] getupval   4   1      
0D9B  22418000           [12] call       4   1   1  
0D9F  13010001           [13] getupval   4   2      
0DA3  22418000           [14] call       4   1   1  
0DA7  1E008000           [15] return     0   1      
                         * constants:
0DAB  02                 sizek (2)
0DAC  01                 const type 3
0DAD  65770E40           const [0]: (1074689893)
0DB1  01                 const type 3
0DB2  E999708C           const [1]: (-1938777623)
                         * functions:
0DB6  00                 sizep (0)
                         * lines:
0DB7  0F                 sizelineinfo (15)
                         [pc] (line)
0DB8  81                 [01] (-127)
0DB9  00                 [02] (-127)
0DBA  00                 [03] (-127)
0DBB  00                 [04] (-127)
0DBC  81                 [05] (-127)
0DBD  00                 [06] (-126)
0DBE  00                 [07] (-126)
0DBF  00                 [08] (-126)
0DC0  81                 [09] (-126)
0DC1  00                 [10] (-126)
0DC2  00                 [11] (-124)
0DC3  00                 [12] (-124)
0DC4  81                 [13] (-123)
0DC5  00                 [14] (-123)
0DC6  00                 [15] (-122)
                         * locals:
0DF4  00                 sizelocvars (0)
                         * upvalues:
0DF5  00                 sizeupvalues (0)
                         ** end of function **

                         
0DF6                     ** function [5] definition (level 2)
                         ** start of function **
0DF6  00                 string size (0)
                         source name: (none)
0DF8  01                 line defined (136)
0DF9  97                 last line defined (151)
0DFA  01                 nups (2)
0DFB  02                 numparams (3)
0DFC  03                 is_vararg (0)
0DFD  00                 maxstacksize (10)
                         * code:
0DFF  2D                 sizecode (45)
fail op	35
0E00  2300C000           [01] close      0  
0E04  1A000080           [02] jmp        1            ; to [4]
0E08  59400000           [03] loadk      1   1        ; 0
fail op	35
0E0C  23004001           [04] close      0  
0E10  1A000080           [05] jmp        1            ; to [7]
0E14  99400000           [06] loadk      2   1        ; 0
0E18  DD800000           [07] getglobal  3   2        ; mMovie
0E1C  E4C0C001           [08] self       3   3   259  ; 1803241227
0E20  52010000           [09] move       5   0      
0E24  99010100           [10] loadk      6   4        ; "_x"
0E28  E2800002           [11] call       3   4   2  
0E2C  1D810000           [12] getglobal  4   2        ; mMovie
0E30  24C14002           [13] self       4   4   259  ; 1803241227
0E34  92010000           [14] move       6   0      
0E38  D9410100           [15] loadk      7   5        ; "_y"
0E3C  22810002           [16] call       4   4   2  
0E40  53010000           [17] getupval   5   0      
0E44  43418002           [18] add        5   5   1  
0E48  9D810100           [19] getglobal  6   6        ; -174740002
0E4C  D2018001           [20] move       7   3      
0E50  A2810001           [21] call       6   2   2  
fail op	21
0E54  15400103           [22] concat     0   6   5  
0E58  1A800180           [23] jmp        7            ; to [31]
0E5C  5D810000           [24] getglobal  5   2        ; mMovie
0E60  64C1C102           [25] self       5   5   263  ; 471456102
0E64  D2010000           [26] move       7   0      
0E68  19020100           [27] loadk      8   4        ; "_x"
0E6C  53020000           [28] getupval   9   0      
0E70  43428004           [29] add        9   9   1  
0E74  62418002           [30] call       5   5   1  
0E78  53018000           [31] getupval   5   1      
0E7C  43818002           [32] add        5   5   2  
0E80  9D810100           [33] getglobal  6   6        ; -174740002
0E84  D2010002           [34] move       7   4      
0E88  A2810001           [35] call       6   2   2  
fail op	21
0E8C  15400103           [36] concat     0   6   5  
0E90  1A800180           [37] jmp        7            ; to [45]
0E94  5D810000           [38] getglobal  5   2        ; mMovie
0E98  64C1C102           [39] self       5   5   263  ; 471456102
0E9C  D2010000           [40] move       7   0      
0EA0  19420100           [41] loadk      8   5        ; "_y"
0EA4  53028000           [42] getupval   9   1      
0EA8  43828004           [43] add        9   9   2  
0EAC  62418002           [44] call       5   5   1  
0EB0  1E008000           [45] return     0   1      
                         * constants:
0EB4  08                 sizek (8)
0EB5  00                 const type 0
                         const [0]: nil
0EB6  03                 const type 3
0EB7  00000000           const [1]: (0)
0EBB  04                 const type 4
0EBC  07                 string size (7)
0EBD  6D4D6F76696500     "mMovie\0"
                         const [2]: "mMovie"
0EC4  01                 const type 3
0EC5  0B477B6B           const [3]: (1803241227)
0EC9  04                 const type 4
0ECA  03                 string size (3)
0ECB  5F7800             "_x\0"
                         const [4]: "_x"
0ECE  04                 const type 4
0ECF  03                 string size (3)
0ED0  5F7900             "_y\0"
                         const [5]: "_y"
0ED3  01                 const type 3
0ED4  DEAD95F5           const [6]: (-174740002)
0ED8  01                 const type 3
0ED9  66D9191C           const [7]: (471456102)
                         * functions:
0EDD  00                 sizep (0)
                         * lines:
0EDE  2D                 sizelineinfo (45)
                         [pc] (line)
0EDF  89                 [01] (-119)
0EE0  00                 [02] (-119)
0EE1  00                 [03] (-118)
0EE2  00                 [04] (-116)
0EE3  89                 [05] (-116)
0EE4  00                 [06] (-115)
0EE5  00                 [07] (-113)
0EE6  00                 [08] (-113)
0EE7  8A                 [09] (-113)
0EE8  00                 [10] (-113)
0EE9  00                 [11] (-113)
0EEA  00                 [12] (-112)
0EEB  8C                 [13] (-112)
0EEC  00                 [14] (-112)
0EED  00                 [15] (-112)
0EEE  00                 [16] (-112)
0EEF  8C                 [17] (-111)
0EF0  00                 [18] (-111)
0EF1  00                 [19] (-111)
0EF2  00                 [20] (-111)
0EF3  8D                 [21] (-111)
0EF4  00                 [22] (-111)
0EF5  00                 [23] (-111)
0EF6  00                 [24] (-110)
0EF7  8F                 [25] (-110)
0EF8  00                 [26] (-110)
0EF9  00                 [27] (-110)
0EFA  00                 [28] (-110)
0EFB  8F                 [29] (-110)
0EFC  00                 [30] (-110)
0EFD  00                 [31] (-108)
0EFE  00                 [32] (-108)
0EFF  8F                 [33] (-108)
0F00  00                 [34] (-108)
0F01  00                 [35] (-108)
0F02  00                 [36] (-108)
0F03  8F                 [37] (-108)
0F04  00                 [38] (-107)
0F05  00                 [39] (-107)
0F06  00                 [40] (-107)
0F07  8F                 [41] (-107)
0F08  00                 [42] (-107)
0F09  00                 [43] (-107)
0F0A  00                 [44] (-107)
0F0B  90                 [45] (-105)
                         * locals:
0F93  00                 sizelocvars (0)
                         * upvalues:
0F94  00                 sizeupvalues (0)
                         ** end of function **

                         
0F95                     ** function [6] definition (level 2)
                         ** start of function **
0F95  00                 string size (0)
                         source name: (none)
0F97  01                 line defined (153)
0F98  D9                 last line defined (217)
0F99  01                 nups (1)
0F9A  01                 numparams (0)
0F9B  00                 is_vararg (0)
0F9C  00                 maxstacksize (13)
                         * code:
0F9E  6A                 sizecode (106)
0F9F  1D000000           [001] getglobal  0   0        ; -1817107093
0FA3  59400000           [002] loadk      1   1        ; "ShowTip()"
0FA7  22400001           [003] call       0   2   1  
0FAB  1D800000           [004] getglobal  0   2        ; 1074689893
0FAF  5DC00000           [005] getglobal  1   3        ; gameTips
0FB3  22800001           [006] call       0   2   2  
0FB7  18400000           [007] test       0       1    ; to [9] if false
0FBB  1A400280           [008] jmp        10           ; to [19]
0FBF  1D000100           [009] getglobal  0   4        ; gFlashMgr
0FC3  24404100           [010] self       0   0   261  ; 277467219
0FC7  99800100           [011] loadk      2   6        ; "HUD.UseAlternateHud"
0FCB  22808001           [012] call       0   3   2  
0FCF  18400000           [013] test       0       1    ; to [15] if false
0FD3  1AC00080           [014] jmp        4            ; to [19]
0FD7  1DC00100           [015] getglobal  0   7        ; _G
0FDB  0E004200           [016] gettable   0   0   264  ; "DisableLoadingDiorama"
0FDF  18000000           [017] test       0       0    ; to [19] if true
0FE3  1A000080           [018] jmp        1            ; to [20]
0FE7  1E008000           [019] return     0   1      
0FEB  1DC00000           [020] getglobal  0   3        ; gameTips
0FEF  24404200           [021] self       0   0   265  ; -151141502
0FF3  22800001           [022] call       0   2   2  
fail op	21
0FF7  15000085           [023] concat     0   266 0  
0FFB  1A001480           [024] jmp        81           ; to [106]
0FFF  5DC00200           [025] getglobal  1   11       ; math
1003  4E00C300           [026] gettable   1   1   268  ; -2040962569
1007  99400300           [027] loadk      2   13       ; 0
100B  D2000000           [028] move       3   0      
100F  62808001           [029] call       1   3   2  
1013  4D40C300           [030] sub        1   1   269  ; 0
1017  92008000           [031] move       2   1      
101B  DDC00000           [032] getglobal  3   3        ; gameTips
101F  E480C301           [033] self       3   3   270  ; 998824416
1023  52018000           [034] move       5   1      
1027  E2808001           [035] call       3   3   2  
102B  0EC1C301           [036] gettable   4   3   271  ; "desc"
102F  24014402           [037] self       4   4   272  ; 1590141906
1033  22810001           [038] call       4   2   2  
1037  6441C401           [039] self       5   3   273  ; 1742482449
103B  62810001           [040] call       5   2   2  
fail op	35
103F  6380C402           [041] close      1  
1043  1AC0FF7F           [042] jmp        0            ; to [43]
fail op	35
1047  63C04402           [043] close      1  
104B  1A800D80           [044] jmp        55           ; to [100]
104F  9D010500           [045] getglobal  6   20       ; mMovie
1053  A4414503           [046] self       6   6   277  ; 98241492
1057  0E82C501           [047] gettable   8   3   278  ; "author"
105B  24024404           [048] self       8   8   272  ; 1590141906
105F  22820001           [049] call       8   2   2  
1063  57028000           [050] loadbool   9   1   0    ; true
1067  A2810002           [051] call       6   4   2  
106B  DDC10500           [052] getglobal  7   23       ; string
106F  CE01C603           [053] gettable   7   7   280  ; 1671193642
1073  12020003           [054] move       8   6      
1077  E2810001           [055] call       7   2   2  
107B  92018003           [056] move       6   7      
107F  DDC10500           [057] getglobal  7   23       ; string
1083  CE41C603           [058] gettable   7   7   281  ; 2071470131
1087  12020003           [059] move       8   6      
108B  59820200           [060] loadk      9   10       ; 0
108F  99820600           [061] loadk      10  26       ; 0
1093  E2810002           [062] call       7   4   2  
1097  92018003           [063] move       6   7      
109B  D9C10600           [064] loadk      7   27       ; "- "
109F  1D020500           [065] getglobal  8   20       ; mMovie
10A3  24424504           [066] self       8   8   277  ; 98241492
10A7  99020700           [067] loadk      10  28       ; "/Lotus/Language/DesignCouncilTips/DC_Councillor"
10AB  D7028000           [068] loadbool   11  1   0    ; true
10AF  0B430000           [069] newtable   12  0   1    ; array=0, hash=1
10B3  0C83818E           [070] settable   12  285 6    ; "NAME"
10B7  22828002           [071] call       8   5   2  
10BB  82018203           [072] concat     6   7   8  
10BF  DD010500           [073] getglobal  7   20       ; mMovie
10C3  E441C503           [074] self       7   7   277  ; 98241492
10C7  52020002           [075] move       9   4      
10CB  97028000           [076] loadbool   10  1   0    ; true
10CF  E2810002           [077] call       7   4   2  
10D3  12018003           [078] move       4   7      
10D7  DD010500           [079] getglobal  7   20       ; mMovie
10DB  E481C703           [080] self       7   7   286  ; -693657623
10DF  59C20700           [081] loadk      9   31       ; "Tip.Content"
10E3  99020800           [082] loadk      10  32       ; "text"
10E7  D2020002           [083] move       11  4      
10EB  E2418002           [084] call       7   5   1  
10EF  DD010500           [085] getglobal  7   20       ; mMovie
10F3  E481C703           [086] self       7   7   286  ; -693657623
10F7  59420800           [087] loadk      9   33       ; "Tip.Author"
10FB  99020800           [088] loadk      10  32       ; "text"
10FF  D2020003           [089] move       11  6      
1103  E2418002           [090] call       7   5   1  
1107  DD010500           [091] getglobal  7   20       ; mMovie
110B  E481C803           [092] self       7   7   290  ; 471456102
110F  59420800           [093] loadk      9   33       ; "Tip.Author"
1113  99C20800           [094] loadk      10  35       ; "_alpha"
1117  D9820200           [095] loadk      11  10       ; 0
111B  E2418002           [096] call       7   5   1  
111F  D3010000           [097] getupval   7   0      
1123  E2418000           [098] call       7   1   1  
1127  1A400180           [099] jmp        6            ; to [106]
112B  4340C300           [100] add        1   1   269  ; 0
fail op	33
112F  21400000           [101] tforloop   0       1    ; to [103] if exit
1133  1A000080           [102] jmp        1            ; to [104]
1137  59800200           [103] loadk      1   10       ; 0
fail op	35
113B  23808000           [104] close      0  
113F  1A40ED7F           [105] jmp        -74          ; to [32]
1143  1E008000           [106] return     0   1      
                         * constants:
1147  24                 sizek (36)
1148  01                 const type 3
1149  6B25B193           const [0]: (-1817107093)
114D  04                 const type 4
114E  0A                 string size (10)
114F  53686F7754697028+  "ShowTip("
1157  2900               ")\0"
                         const [1]: "ShowTip()"
1159  01                 const type 3
115A  65770E40           const [2]: (1074689893)
115E  04                 const type 4
115F  09                 string size (9)
1160  67616D6554697073+  "gameTips"
1168  00                 "\0"
                         const [3]: "gameTips"
1169  04                 const type 4
116A  0A                 string size (10)
116B  67466C6173684D67+  "gFlashMg"
1173  7200               "r\0"
                         const [4]: "gFlashMgr"
1175  01                 const type 3
1176  53D08910           const [5]: (277467219)
117A  04                 const type 4
117B  14                 string size (20)
117C  4855442E55736541+  "HUD.UseA"
1184  6C7465726E617465+  "lternate"
118C  48756400           "Hud\0"
                         const [6]: "HUD.UseAlternateHud"
1190  04                 const type 4
1191  03                 string size (3)
1192  5F4700             "_G\0"
                         const [7]: "_G"
1195  04                 const type 4
1196  16                 string size (22)
1197  44697361626C654C+  "DisableL"
119F  6F6164696E674469+  "oadingDi"
11A7  6F72616D6100       "orama\0"
                         const [8]: "DisableLoadingDiorama"
11AD  01                 const type 3
11AE  82C3FDF6           const [9]: (-151141502)
11B2  03                 const type 3
11B3  00000000           const [10]: (0)
11B7  04                 const type 4
11B8  05                 string size (5)
11B9  6D61746800         "math\0"
                         const [11]: "math"
11BE  01                 const type 3
11BF  F7615986           const [12]: (-2040962569)
11C3  03                 const type 3
11C4  0000803F           const [13]: (0)
11C8  01                 const type 3
11C9  E0D9883B           const [14]: (998824416)
11CD  04                 const type 4
11CE  05                 string size (5)
11CF  6465736300         "desc\0"
                         const [15]: "desc"
11D4  01                 const type 3
11D5  D2A3C75E           const [16]: (1590141906)
11D9  01                 const type 3
11DA  112CDC67           const [17]: (1742482449)
11DE  04                 const type 4
11DF  01                 string size (0)
                         const [18]: ""
11E1  00                 const type 0
                         const [19]: nil
11E2  04                 const type 4
11E3  07                 string size (7)
11E4  6D4D6F76696500     "mMovie\0"
                         const [20]: "mMovie"
11EB  01                 const type 3
11EC  D40BDB05           const [21]: (98241492)
11F0  04                 const type 4
11F1  07                 string size (7)
11F2  617574686F7200     "author\0"
                         const [22]: "author"
11F9  04                 const type 4
11FA  07                 string size (7)
11FB  737472696E6700     "string\0"
                         const [23]: "string"
1202  01                 const type 3
1203  2A649C63           const [24]: (1671193642)
1207  01                 const type 3
1208  3320787B           const [25]: (2071470131)
120C  03                 const type 3
120D  00000040           const [26]: (0)
1211  04                 const type 4
1212  03                 string size (3)
1213  2D2000             "- \0"
                         const [27]: "- "
1216  04                 const type 4
1217  30                 string size (48)
1218  2F4C6F7475732F4C+  "/Lotus/L"
1220  616E67756167652F+  "anguage/"
1228  44657369676E436F+  "DesignCo"
1230  756E63696C546970+  "uncilTip"
1238  732F44435F436F75+  "s/DC_Cou"
1240  6E63696C6C6F7200   "ncillor\0"
                         const [28]: "/Lotus/Language/DesignCouncilTips/DC_Councillor"
1248  04                 const type 4
1249  05                 string size (5)
124A  4E414D4500         "NAME\0"
                         const [29]: "NAME"
124F  01                 const type 3
1250  E99FA7D6           const [30]: (-693657623)
1254  04                 const type 4
1255  0C                 string size (12)
1256  5469702E436F6E74+  "Tip.Cont"
125E  656E7400           "ent\0"
                         const [31]: "Tip.Content"
1262  04                 const type 4
1263  05                 string size (5)
1264  7465787400         "text\0"
                         const [32]: "text"
1269  04                 const type 4
126A  0B                 string size (11)
126B  5469702E41757468+  "Tip.Auth"
1273  6F7200             "or\0"
                         const [33]: "Tip.Author"
1276  01                 const type 3
1277  66D9191C           const [34]: (471456102)
127B  04                 const type 4
127C  07                 string size (7)
127D  5F616C70686100     "_alpha\0"
                         const [35]: "_alpha"
                         * functions:
1284  00                 sizep (0)
                         * lines:
1285  6A                 sizelineinfo (106)
                         [pc] (line)
1286  9A                 [001] (-102)
1287  00                 [002] (-102)
1288  00                 [003] (-102)
1289  00                 [004] (-101)
128A  9A                 [005] (-101)
128B  00                 [006] (-101)
128C  00                 [007] (-101)
128D  00                 [008] (-101)
128E  9A                 [009] (-101)
128F  00                 [010] (-101)
1290  00                 [011] (-101)
1291  00                 [012] (-101)
1292  9B                 [013] (-101)
1293  00                 [014] (-101)
1294  00                 [015] (-101)
1295  00                 [016] (-101)
1296  9B                 [017] (-101)
1297  00                 [018] (-101)
1298  00                 [019] (-100)
1299  00                 [020] (-98)
129A  9B                 [021] (-98)
129B  00                 [022] (-98)
129C  00                 [023] (-97)
129D  00                 [024] (-97)
129E  9B                 [025] (-96)
129F  00                 [026] (-96)
12A0  00                 [027] (-96)
12A1  00                 [028] (-96)
12A2  9B                 [029] (-96)
12A3  00                 [030] (-96)
12A4  00                 [031] (-95)
12A5  00                 [032] (-92)
12A6  9B                 [033] (-92)
12A7  00                 [034] (-92)
12A8  00                 [035] (-92)
12A9  00                 [036] (-91)
12AA  9B                 [037] (-91)
12AB  00                 [038] (-91)
12AC  00                 [039] (-89)
12AD  00                 [040] (-89)
12AE  9B                 [041] (-88)
12AF  00                 [042] (-88)
12B0  00                 [043] (-63)
12B1  00                 [044] (-63)
12B2  9B                 [045] (-62)
12B3  00                 [046] (-62)
12B4  00                 [047] (-62)
12B5  00                 [048] (-62)
12B6  9B                 [049] (-62)
12B7  00                 [050] (-62)
12B8  00                 [051] (-62)
12B9  00                 [052] (-61)
12BA  9B                 [053] (-61)
12BB  00                 [054] (-61)
12BC  00                 [055] (-61)
12BD  00                 [056] (-61)
12BE  9B                 [057] (-60)
12BF  00                 [058] (-60)
12C0  00                 [059] (-60)
12C1  00                 [060] (-60)
12C2  9B                 [061] (-60)
12C3  00                 [062] (-60)
12C4  00                 [063] (-60)
12C5  00                 [064] (-59)
12C6  9B                 [065] (-59)
12C7  00                 [066] (-59)
12C8  00                 [067] (-59)
12C9  00                 [068] (-59)
12CA  9B                 [069] (-59)
12CB  00                 [070] (-59)
12CC  00                 [071] (-59)
12CD  00                 [072] (-59)
12CE  9C                 [073] (-57)
12CF  00                 [074] (-57)
12D0  00                 [075] (-57)
12D1  00                 [076] (-57)
12D2  9E                 [077] (-57)
12D3  00                 [078] (-57)
12D4  00                 [079] (-55)
12D5  00                 [080] (-55)
12D6  9E                 [081] (-55)
12D7  00                 [082] (-55)
12D8  00                 [083] (-55)
12D9  00                 [084] (-55)
12DA  9E                 [085] (-54)
12DB  00                 [086] (-54)
12DC  00                 [087] (-54)
12DD  00                 [088] (-54)
12DE  9F                 [089] (-54)
12DF  00                 [090] (-54)
12E0  00                 [091] (-52)
12E1  00                 [092] (-52)
12E2  9F                 [093] (-52)
12E3  00                 [094] (-52)
12E4  00                 [095] (-52)
12E5  00                 [096] (-52)
12E6  A0                 [097] (-50)
12E7  00                 [098] (-50)
12E8  00                 [099] (-49)
12E9  00                 [100] (-45)
12EA  A0                 [101] (-44)
12EB  00                 [102] (-44)
12EC  00                 [103] (-43)
12ED  00                 [104] (-41)
12EE  A0                 [105] (-41)
12EF  00                 [106] (-39)
                         * locals:
142E  00                 sizelocvars (0)
                         * upvalues:
142F  00                 sizeupvalues (0)
                         ** end of function **

                         
1430                     ** function [7] definition (level 2)
                         ** start of function **
1430  00                 string size (0)
                         source name: (none)
1432  01                 line defined (219)
1433  81                 last line defined (257)
1434  02                 nups (2)
1435  02                 numparams (0)
1436  00                 is_vararg (0)
1437  00                 maxstacksize (9)
                         * code:
1439  45                 sizecode (69)
143A  1D000000           [01] getglobal  0   0        ; _T
143E  0E404000           [02] gettable   0   0   257  ; "LoadScreenLevelOverride"
1442  18000000           [03] test       0       0    ; to [5] if true
1446  1A000180           [04] jmp        5            ; to [10]
144A  1D000000           [05] getglobal  0   0        ; _T
144E  0E404000           [06] gettable   0   0   257  ; "LoadScreenLevelOverride"
1452  5D000000           [07] getglobal  1   0        ; _T
1456  4C80C080           [08] settable   1   257 258  ; "LoadScreenLevelOverride" nil
145A  1E000001           [09] return     0   2      
145E  57008000           [10] loadbool   1   1   0    ; true
1462  9DC00000           [11] getglobal  2   3        ; math
1466  8E004101           [12] gettable   2   2   260  ; -2040962569
146A  A2808000           [13] call       2   1   2  
fail op	21
146E  15404101           [14] concat     0   2   261
1472  1A000080           [15] jmp        1            ; to [17]
1476  57000000           [16] loadbool   1   0   0    ; false
147A  9D800100           [17] getglobal  2   6        ; gGameConfig
147E  A4C04101           [18] self       2   2   263  ; 1690615710
1482  A2800001           [19] call       2   2   2  
1486  DD000200           [20] getglobal  3   8        ; _G
148A  CE40C201           [21] gettable   3   3   265  ; "gSelectedNodeName"
148E  D8000000           [22] test       3       0    ; to [24] if true
1492  1A400780           [23] jmp        30           ; to [54]
1496  13010000           [24] getupval   4   0      
149A  0E814202           [25] gettable   4   4   266  ; -1153782542
149E  22818000           [26] call       4   1   2  
14A2  5DC10200           [27] getglobal  5   11       ; 1074689893
14A6  92010002           [28] move       6   4      
14AA  62810001           [29] call       5   2   2  
14AE  58410000           [30] test       5       1    ; to [32] if false
14B2  1A400580           [31] jmp        22           ; to [54]
14B6  64014302           [32] self       5   4   268  ; -551469855
14BA  DD410300           [33] getglobal  7   13       ; -332969190
14BE  12028001           [34] move       8   3      
14C2  E2010001           [35] call       7   2   0  
14C6  62810000           [36] call       5   0   2  
14CA  8E81C302           [37] gettable   6   5   270  ; "region"
fail op	35
14CE  23C04303           [38] close      0  
14D2  1A400280           [39] jmp        10           ; to [50]
14D6  DDC10000           [40] getglobal  7   3        ; math
14DA  CE01C103           [41] gettable   7   7   260  ; -2040962569
14DE  E2818000           [42] call       7   1   2  
fail op	21
14E2  15C08182           [43] concat     0   261 7  
14E6  1A400080           [44] jmp        2            ; to [47]
14EA  D9010400           [45] loadk      7   16       ; "PlayerCamera1"
fail op	8
14EE  C8018000           [46] setupval   7   1      
14F2  DD410400           [47] getglobal  7   17       ; flyToEarthLevel
14F6  DE010001           [48] return     7   2      
14FA  1AC00080           [49] jmp        4            ; to [54]
fail op	35
14FE  23804403           [50] close      0  
1502  1A400080           [51] jmp        2            ; to [54]
1506  DDC10400           [52] getglobal  7   19       ; flyToMarsLevel
150A  DE010001           [53] return     7   2      
150E  58000000           [54] test       1       0    ; to [56] if true
1512  1A000180           [55] jmp        5            ; to [61]
1516  DDC10200           [56] getglobal  7   11       ; 1074689893
151A  1D020500           [57] getglobal  8   20       ; flyFromPlanetLevel
151E  E2810001           [58] call       7   2   2  
1522  D8010000           [59] test       7       0    ; to [61] if true
1526  1A000180           [60] jmp        5            ; to [66]
152A  DDC10200           [61] getglobal  7   11       ; 1074689893
152E  12020001           [62] move       8   2      
1532  E2810001           [63] call       7   2   2  
1536  D8010000           [64] test       7       0    ; to [66] if true
153A  1A400080           [65] jmp        2            ; to [68]
153E  DD010500           [66] getglobal  7   20       ; flyFromPlanetLevel
1542  DE010001           [67] return     7   2      
1546  9E000001           [68] return     2   2      
154A  1E008000           [69] return     0   1      
                         * constants:
154E  15                 sizek (21)
154F  04                 const type 4
1550  03                 string size (3)
1551  5F5400             "_T\0"
                         const [0]: "_T"
1554  04                 const type 4
1555  18                 string size (24)
1556  4C6F616453637265+  "LoadScre"
155E  656E4C6576656C4F+  "enLevelO"
1566  7665727269646500   "verride\0"
                         const [1]: "LoadScreenLevelOverride"
156E  00                 const type 0
                         const [2]: nil
156F  04                 const type 4
1570  05                 string size (5)
1571  6D61746800         "math\0"
                         const [3]: "math"
1576  01                 const type 3
1577  F7615986           const [4]: (-2040962569)
157B  03                 const type 3
157C  0000003F           const [5]: (0)
1580  04                 const type 4
1581  0C                 string size (12)
1582  6747616D65436F6E+  "gGameCon"
158A  66696700           "fig\0"
                         const [6]: "gGameConfig"
158E  01                 const type 3
158F  9EBFC464           const [7]: (1690615710)
1593  04                 const type 4
1594  03                 string size (3)
1595  5F4700             "_G\0"
                         const [8]: "_G"
1598  04                 const type 4
1599  12                 string size (18)
159A  6753656C65637465+  "gSelecte"
15A2  644E6F64654E616D+  "dNodeNam"
15AA  6500               "e\0"
                         const [9]: "gSelectedNodeName"
15AC  01                 const type 3
15AD  F2AC3ABB           const [10]: (-1153782542)
15B1  01                 const type 3
15B2  65770E40           const [11]: (1074689893)
15B6  01                 const type 3
15B7  E13C21DF           const [12]: (-551469855)
15BB  01                 const type 3
15BC  1A4B27EC           const [13]: (-332969190)
15C0  04                 const type 4
15C1  07                 string size (7)
15C2  726567696F6E00     "region\0"
                         const [14]: "region"
15C9  03                 const type 3
15CA  00000040           const [15]: (0)
15CE  04                 const type 4
15CF  0E                 string size (14)
15D0  506C617965724361+  "PlayerCa"
15D8  6D6572613100       "mera1\0"
                         const [16]: "PlayerCamera1"
15DE  04                 const type 4
15DF  10                 string size (16)
15E0  666C79546F456172+  "flyToEar"
15E8  74684C6576656C00   "thLevel\0"
                         const [17]: "flyToEarthLevel"
15F0  03                 const type 3
15F1  00004040           const [18]: (0)
15F5  04                 const type 4
15F6  0F                 string size (15)
15F7  666C79546F4D6172+  "flyToMar"
15FF  734C6576656C00     "sLevel\0"
                         const [19]: "flyToMarsLevel"
1606  04                 const type 4
1607  13                 string size (19)
1608  666C7946726F6D50+  "flyFromP"
1610  6C616E65744C6576+  "lanetLev"
1618  656C00             "el\0"
                         const [20]: "flyFromPlanetLevel"
                         * functions:
161B  00                 sizep (0)
                         * lines:
161C  45                 sizelineinfo (69)
                         [pc] (line)
161D  DC                 [01] (-36)
161E  00                 [02] (-36)
161F  00                 [03] (-36)
1620  00                 [04] (-36)
1621  DC                 [05] (-35)
1622  00                 [06] (-35)
1623  00                 [07] (-34)
1624  00                 [08] (-34)
1625  DC                 [09] (-33)
1626  00                 [10] (-29)
1627  00                 [11] (-28)
1628  00                 [12] (-28)
1629  DC                 [13] (-28)
162A  00                 [14] (-28)
162B  00                 [15] (-28)
162C  00                 [16] (-27)
162D  DD                 [17] (-24)
162E  00                 [18] (-24)
162F  00                 [19] (-24)
1630  00                 [20] (-22)
1631  DD                 [21] (-22)
1632  00                 [22] (-21)
1633  00                 [23] (-21)
1634  00                 [24] (-20)
1635  DE                 [25] (-20)
1636  00                 [26] (-20)
1637  00                 [27] (-19)
1638  00                 [28] (-19)
1639  DE                 [29] (-19)
163A  00                 [30] (-19)
163B  00                 [31] (-19)
163C  00                 [32] (-18)
163D  DF                 [33] (-18)
163E  00                 [34] (-18)
163F  00                 [35] (-18)
1640  00                 [36] (-18)
1641  E3                 [37] (-17)
1642  00                 [38] (-15)
1643  00                 [39] (-15)
1644  00                 [40] (-14)
1645  E4                 [41] (-14)
1646  00                 [42] (-14)
1647  00                 [43] (-14)
1648  00                 [44] (-14)
1649  E4                 [45] (-13)
164A  00                 [46] (-13)
164B  00                 [47] (-10)
164C  00                 [48] (-10)
164D  E4                 [49] (-10)
164E  00                 [50] (-9)
164F  00                 [51] (-9)
1650  00                 [52] (-8)
1651  E4                 [53] (-8)
1652  00                 [54] (-3)
1653  00                 [55] (-3)
1654  00                 [56] (-3)
1655  E4                 [57] (-3)
1656  00                 [58] (-3)
1657  00                 [59] (-3)
1658  00                 [60] (-3)
1659  E5                 [61] (-3)
165A  00                 [62] (-3)
165B  00                 [63] (-3)
165C  00                 [64] (-3)
165D  E8                 [65] (-3)
165E  00                 [66] (-2)
165F  00                 [67] (-2)
1660  00                 [68] (0)
1661  E8                 [69] (1)
                         * locals:
1731  00                 sizelocvars (0)
                         * upvalues:
1732  00                 sizeupvalues (0)
                         ** end of function **

                         
1733                     ** function [8] definition (level 2)
                         ** start of function **
1733  00                 string size (0)
                         source name: (none)
1735  02                 line defined (261)
1736  B3                 last line defined (307)
1737  02                 nups (1)
1738  01                 numparams (0)
1739  00                 is_vararg (0)
173A  00                 maxstacksize (15)
                         * code:
173C  6E                 sizecode (110)
173D  1D000000           [001] getglobal  0   0        ; _G
1741  0E404000           [002] gettable   0   0   257  ; "questInfo"
1745  5D000000           [003] getglobal  1   0        ; _G
1749  4E80C000           [004] gettable   1   1   258  ; "gSelectedNodeName"
fail op	35
174D  63C04000           [005] close      1  
1751  1A800980           [006] jmp        39           ; to [46]
fail op	35
1755  63C0C000           [007] close      1  
1759  1A000980           [008] jmp        37           ; to [46]
175D  9D000100           [009] getglobal  2   4        ; 1074689893
1761  CE404100           [010] gettable   3   0   261  ; "activeQuest"
1765  A2800001           [011] call       2   2   2  
1769  98400000           [012] test       2       1    ; to [14] if false
176D  1AC00780           [013] jmp        32           ; to [46]
1771  9D800100           [014] getglobal  2   6        ; string
1775  8EC04101           [015] gettable   2   2   263  ; -565905820
1779  D2008000           [016] move       3   1      
177D  13010000           [017] getupval   4   0      
1781  0E014202           [018] gettable   4   4   264  ; "KEY_TAG"
1785  A2808001           [019] call       2   3   2  
fail op	35
1789  63C04001           [020] close      1  
178D  1AC00580           [021] jmp        24           ; to [46]
1791  DD800100           [022] getglobal  3   6        ; string
1795  CE40C201           [023] gettable   3   3   265  ; 2071470131
1799  12018000           [024] move       4   1      
179D  59810200           [025] loadk      5   10       ; 0
17A1  8D814201           [026] sub        6   2   266  ; 0
17A5  E2800002           [027] call       3   4   2  
17A9  1DC10200           [028] getglobal  4   11       ; 2083004503
17AD  52018001           [029] move       5   3      
17B1  22810001           [030] call       4   2   2  
17B5  4E414100           [031] gettable   5   0   261  ; "activeQuest"
17B9  6401C302           [032] self       5   5   268  ; 1814066247
17BD  62810001           [033] call       5   2   2  
17C1  8E414300           [034] gettable   6   0   269  ; "stage"
17C5  CA018002           [035] len        7   5      
fail op	33
17C9  21C00103           [036] tforloop   0       7    ; to [38] if exit
17CD  1AC00180           [037] jmp        8            ; to [46]
17D1  8E414300           [038] gettable   6   0   269  ; "stage"
17D5  8E818102           [039] gettable   6   5   6  
17D9  CE814303           [040] gettable   7   6   270  ; "mMainMission"
17DD  CEC1C303           [041] gettable   7   7   271  ; "mKey"
fail op	35
17E1  23C00102           [042] close      0  
17E5  1A400080           [043] jmp        2            ; to [46]
17E9  17028000           [044] loadbool   8   1   0    ; true
17ED  1E020001           [045] return     8   2      
17F1  1D020000           [046] getglobal  8   0        ; _G
17F5  0E024404           [047] gettable   8   8   272  ; "LoadingTutorial"
fail op	35
17F9  63C04004           [048] close      1  
17FD  1AC00080           [049] jmp        4            ; to [54]
1801  1D020000           [050] getglobal  8   0        ; _G
1805  0CC24088           [051] settable   8   272 259  ; "LoadingTutorial" nil
1809  17028000           [052] loadbool   8   1   0    ; true
180D  1E020001           [053] return     8   2      
1811  1D020000           [054] getglobal  8   0        ; _G
1815  0E424404           [055] gettable   8   8   273  ; "gPendingMission"
fail op	35
1819  23C04004           [056] close      0  
181D  1A400080           [057] jmp        2            ; to [60]
1821  17020000           [058] loadbool   8   0   0    ; false
1825  1E020001           [059] return     8   2      
1829  1D020000           [060] getglobal  8   0        ; _G
182D  0E424404           [061] gettable   8   8   273  ; "gPendingMission"
1831  0E824404           [062] gettable   8   8   274  ; "quest"
fail op	35
1835  63C04004           [063] close      1  
1839  1A800180           [064] jmp        7            ; to [72]
183D  1D020000           [065] getglobal  8   0        ; _G
1841  0E424404           [066] gettable   8   8   273  ; "gPendingMission"
1845  0E824404           [067] gettable   8   8   274  ; "quest"
fail op	35
1849  63C04404           [068] close      1  
184D  1A400080           [069] jmp        2            ; to [72]
1851  17028000           [070] loadbool   8   1   0    ; true
1855  1E020001           [071] return     8   2      
1859  1D020000           [072] getglobal  8   0        ; _G
185D  0E024504           [073] gettable   8   8   276  ; "QuestNodeNames"
fail op	35
1861  63C04004           [074] close      1  
1865  1AC00780           [075] jmp        32           ; to [108]
1869  1D420500           [076] getglobal  8   21       ; -1615931716
186D  5D020000           [077] getglobal  9   0        ; _G
1871  4E42C404           [078] gettable   9   9   273  ; "gPendingMission"
1875  4E82C504           [079] gettable   9   9   278  ; "name"
1879  22820001           [080] call       8   2   2  
187D  5D820100           [081] getglobal  9   6        ; string
1881  4EC2C104           [082] gettable   9   9   263  ; -565905820
1885  92020004           [083] move       10  8      
1889  D3020000           [084] getupval   11  0      
188D  CEC2C505           [085] gettable   11  11  279  ; "HUB_TAG"
1891  62828001           [086] call       9   3   2  
fail op	35
1895  63C0C004           [087] close      1  
1899  1A800480           [088] jmp        19           ; to [108]
189D  5D420500           [089] getglobal  9   21       ; -1615931716
18A1  9D020000           [090] getglobal  10  0        ; _G
18A5  8E424405           [091] gettable   10  10  273  ; "gPendingMission"
18A9  8E024605           [092] gettable   10  10  280  ; "baseNodeName"
18AD  62820001           [093] call       9   2   2  
18B1  99820200           [094] loadk      10  10       ; 0
18B5  DD020000           [095] getglobal  11  0        ; _G
18B9  CE02C505           [096] gettable   11  11  276  ; "QuestNodeNames"
18BD  CA028005           [097] len        11  11     
18C1  19830200           [098] loadk      12  10       ; 0
18C5  90820180           [099] forprep    10  7        ; to [107]
18C9  9D030000           [100] getglobal  14  0        ; _G
18CD  8E034507           [101] gettable   14  14  276  ; "QuestNodeNames"
18D1  8E430307           [102] gettable   14  14  13 
fail op	35
18D5  23808304           [103] close      0  
18D9  1A400080           [104] jmp        2            ; to [107]
18DD  97038000           [105] loadbool   14  1   0    ; true
18E1  9E030001           [106] return     14  2      
18E5  94C2FD7F           [107] forloop    10  -8       ; to [100] if loop
18E9  97030000           [108] loadbool   14  0   0    ; false
18ED  9E030001           [109] return     14  2      
18F1  1E008000           [110] return     0   1      
                         * constants:
18F5  19                 sizek (25)
18F6  04                 const type 4
18F7  03                 string size (3)
18F8  5F4700             "_G\0"
                         const [0]: "_G"
18FB  04                 const type 4
18FC  0A                 string size (10)
18FD  7175657374496E66+  "questInf"
1905  6F00               "o\0"
                         const [1]: "questInfo"
1907  04                 const type 4
1908  12                 string size (18)
1909  6753656C65637465+  "gSelecte"
1911  644E6F64654E616D+  "dNodeNam"
1919  6500               "e\0"
                         const [2]: "gSelectedNodeName"
191B  00                 const type 0
                         const [3]: nil
191C  01                 const type 3
191D  65770E40           const [4]: (1074689893)
1921  04                 const type 4
1922  0C                 string size (12)
1923  6163746976655175+  "activeQu"
192B  65737400           "est\0"
                         const [5]: "activeQuest"
192F  04                 const type 4
1930  07                 string size (7)
1931  737472696E6700     "string\0"
                         const [6]: "string"
1938  01                 const type 3
1939  64F644DE           const [7]: (-565905820)
193D  04                 const type 4
193E  08                 string size (8)
193F  4B45595F54414700   "KEY_TAG\0"
                         const [8]: "KEY_TAG"
1947  01                 const type 3
1948  3320787B           const [9]: (2071470131)
194C  03                 const type 3
194D  0000803F           const [10]: (0)
1951  01                 const type 3
1952  5720287C           const [11]: (2083004503)
1956  01                 const type 3
1957  4774206C           const [12]: (1814066247)
195B  04                 const type 4
195C  06                 string size (6)
195D  737461676500       "stage\0"
                         const [13]: "stage"
1963  04                 const type 4
1964  0D                 string size (13)
1965  6D4D61696E4D6973+  "mMainMis"
196D  73696F6E00         "sion\0"
                         const [14]: "mMainMission"
1972  04                 const type 4
1973  05                 string size (5)
1974  6D4B657900         "mKey\0"
                         const [15]: "mKey"
1979  04                 const type 4
197A  10                 string size (16)
197B  4C6F6164696E6754+  "LoadingT"
1983  75746F7269616C00   "utorial\0"
                         const [16]: "LoadingTutorial"
198B  04                 const type 4
198C  10                 string size (16)
198D  6750656E64696E67+  "gPending"
1995  4D697373696F6E00   "Mission\0"
                         const [17]: "gPendingMission"
199D  04                 const type 4
199E  06                 string size (6)
199F  717565737400       "quest\0"
                         const [18]: "quest"
19A5  04                 const type 4
19A6  01                 string size (0)
                         const [19]: ""
19A8  04                 const type 4
19A9  0F                 string size (15)
19AA  51756573744E6F64+  "QuestNod"
19B2  654E616D657300     "eNames\0"
                         const [20]: "QuestNodeNames"
19B9  01                 const type 3
19BA  BCD6AE9F           const [21]: (-1615931716)
19BE  04                 const type 4
19BF  05                 string size (5)
19C0  6E616D6500         "name\0"
                         const [22]: "name"
19C5  04                 const type 4
19C6  08                 string size (8)
19C7  4855425F54414700   "HUB_TAG\0"
                         const [23]: "HUB_TAG"
19CF  04                 const type 4
19D0  0D                 string size (13)
19D1  626173654E6F6465+  "baseNode"
19D9  4E616D6500         "Name\0"
                         const [24]: "baseNodeName"
                         * functions:
19DE  00                 sizep (0)
                         * lines:
19DF  6E                 sizelineinfo (110)
                         [pc] (line)
19E0  07                 [001] (7)
19E1  01                 [002] (7)
19E2  00                 [003] (8)
19E3  00                 [004] (8)
19E4  07                 [005] (9)
19E5  01                 [006] (9)
19E6  00                 [007] (9)
19E7  00                 [008] (9)
19E8  08                 [009] (9)
19E9  01                 [010] (9)
19EA  00                 [011] (9)
19EB  00                 [012] (9)
19EC  08                 [013] (9)
19ED  01                 [014] (10)
19EE  00                 [015] (10)
19EF  00                 [016] (10)
19F0  09                 [017] (10)
19F1  01                 [018] (10)
19F2  00                 [019] (10)
19F3  00                 [020] (11)
19F4  09                 [021] (11)
19F5  01                 [022] (12)
19F6  00                 [023] (12)
19F7  00                 [024] (12)
19F8  09                 [025] (12)
19F9  01                 [026] (12)
19FA  00                 [027] (12)
19FB  00                 [028] (13)
19FC  09                 [029] (13)
19FD  01                 [030] (13)
19FE  00                 [031] (15)
19FF  00                 [032] (15)
1A00  09                 [033] (15)
1A01  01                 [034] (16)
1A02  00                 [035] (16)
1A03  00                 [036] (16)
1A04  09                 [037] (16)
1A05  01                 [038] (17)
1A06  00                 [039] (17)
1A07  00                 [040] (18)
1A08  09                 [041] (18)
1A09  01                 [042] (19)
1A0A  00                 [043] (19)
1A0B  00                 [044] (20)
1A0C  09                 [045] (20)
1A0D  01                 [046] (26)
1A0E  00                 [047] (26)
1A0F  00                 [048] (26)
1A10  09                 [049] (26)
1A11  01                 [050] (27)
1A12  00                 [051] (27)
1A13  00                 [052] (28)
1A14  0A                 [053] (28)
1A15  01                 [054] (31)
1A16  00                 [055] (31)
1A17  00                 [056] (31)
1A18  0A                 [057] (31)
1A19  01                 [058] (32)
1A1A  00                 [059] (32)
1A1B  00                 [060] (35)
1A1C  0A                 [061] (35)
1A1D  01                 [062] (35)
1A1E  00                 [063] (35)
1A1F  00                 [064] (35)
1A20  0A                 [065] (35)
1A21  01                 [066] (35)
1A22  00                 [067] (35)
1A23  00                 [068] (35)
1A24  0A                 [069] (35)
1A25  01                 [070] (36)
1A26  00                 [071] (36)
1A27  00                 [072] (39)
1A28  0A                 [073] (39)
1A29  01                 [074] (39)
1A2A  00                 [075] (39)
1A2B  00                 [076] (40)
1A2C  0B                 [077] (40)
1A2D  01                 [078] (40)
1A2E  00                 [079] (40)
1A2F  00                 [080] (40)
1A30  0B                 [081] (41)
1A31  01                 [082] (41)
1A32  00                 [083] (41)
1A33  00                 [084] (41)
1A34  0C                 [085] (41)
1A35  01                 [086] (41)
1A36  00                 [087] (41)
1A37  00                 [088] (41)
1A38  0C                 [089] (42)
1A39  01                 [090] (42)
1A3A  00                 [091] (42)
1A3B  00                 [092] (42)
1A3C  0C                 [093] (42)
1A3D  01                 [094] (43)
1A3E  00                 [095] (43)
1A3F  00                 [096] (43)
1A40  0C                 [097] (43)
1A41  01                 [098] (43)
1A42  00                 [099] (43)
1A43  00                 [100] (44)
1A44  0C                 [101] (44)
1A45  01                 [102] (44)
1A46  00                 [103] (44)
1A47  00                 [104] (44)
1A48  0C                 [105] (45)
1A49  01                 [106] (45)
1A4A  00                 [107] (43)
1A4B  00                 [108] (50)
1A4C  0D                 [109] (50)
1A4D  01                 [110] (51)
                         * locals:
1B98  00                 sizelocvars (0)
                         * upvalues:
1B99  00                 sizeupvalues (0)
                         ** end of function **

                         
1B9A                     ** function [9] definition (level 2)
                         ** start of function **
1B9A  00                 string size (0)
                         source name: (none)
1B9C  02                 line defined (309)
1B9D  8B                 last line defined (523)
1B9E  04                 nups (19)
1B9F  13                 numparams (0)
1BA0  00                 is_vararg (0)
1BA1  00                 maxstacksize (51)
                         * code:
1BA4  05                 sizecode (660)
1BA5  1D000000           [001] getglobal  0   0        ; _G
1BA9  0E404000           [002] gettable   0   0   257  ; "gLoadedShipSkinsFromDiorama"
fail op	35
1BAD  23804000           [003] close      0  
1BB1  1A800080           [004] jmp        3            ; to [8]
1BB5  1D000000           [005] getglobal  0   0        ; _G
1BB9  4B000000           [006] newtable   1   0   0    ; array=0, hash=0
1BBD  0C408080           [007] settable   0   257 1    ; "gLoadedShipSkinsFromDiorama"
1BC1  19C00000           [008] loadk      0   3        ; "-"
fail op	8
1BC5  08000000           [009] setupval   0   0      
1BC9  13008000           [010] getupval   0   1      
1BCD  22408000           [011] call       0   1   1  
1BD1  13008001           [012] getupval   0   3      
1BD5  0E004100           [013] gettable   0   0   260  ; 1191123516
1BD9  5D400100           [014] getglobal  1   5        ; mMovie
1BDD  22800001           [015] call       0   2   2  
fail op	8
1BE1  08000001           [016] setupval   0   2      
1BE5  13000001           [017] getupval   0   2      
1BE9  24804100           [018] self       0   0   262  ; -1716902634
1BED  9D400100           [019] getglobal  2   5        ; mMovie
1BF1  D9C00100           [020] loadk      3   7        ; "Tip"
1BF5  0B010001           [021] newtable   4   2   0    ; array=2, hash=0
1BF9  53010001           [022] getupval   5   2      
1BFD  4E01C202           [023] gettable   5   5   264  ; "ANCHOR_V_TOP"
1C01  93010001           [024] getupval   6   2      
1C05  8E414203           [025] gettable   6   6   265  ; "ANCHOR_H_LEFT"
1C09  1B410001           [026] setlist    4   2   1    ; index 1 to 2
1C0D  22408002           [027] call       0   5   1  
1C11  13000001           [028] getupval   0   2      
1C15  24804100           [029] self       0   0   262  ; -1716902634
1C19  9D400100           [030] getglobal  2   5        ; mMovie
1C1D  D9800200           [031] loadk      3   10       ; "Progress"
1C21  0B010001           [032] newtable   4   2   0    ; array=2, hash=0
1C25  53010001           [033] getupval   5   2      
1C29  4EC1C202           [034] gettable   5   5   267  ; "ANCHOR_V_BOTTOM"
1C2D  93010001           [035] getupval   6   2      
1C31  8E014303           [036] gettable   6   6   268  ; "ANCHOR_H_CENTRE"
1C35  1B410001           [037] setlist    4   2   1    ; index 1 to 2
1C39  22408002           [038] call       0   5   1  
1C3D  13000001           [039] getupval   0   2      
1C41  24804100           [040] self       0   0   262  ; -1716902634
1C45  9D400100           [041] getglobal  2   5        ; mMovie
1C49  D9400300           [042] loadk      3   13       ; "GenericMessage"
1C4D  0B010001           [043] newtable   4   2   0    ; array=2, hash=0
1C51  53010001           [044] getupval   5   2      
1C55  4E81C302           [045] gettable   5   5   270  ; "ANCHOR_V_CENTRE"
1C59  93010001           [046] getupval   6   2      
1C5D  8E014303           [047] gettable   6   6   268  ; "ANCHOR_H_CENTRE"
1C61  1B410001           [048] setlist    4   2   1    ; index 1 to 2
1C65  22408002           [049] call       0   5   1  
1C69  13000001           [050] getupval   0   2      
1C6D  24C04300           [051] self       0   0   271  ; -1938777623
1C71  9D400100           [052] getglobal  2   5        ; mMovie
1C75  A4004401           [053] self       2   2   272  ; -174729759
1C79  A2800001           [054] call       2   2   2  
1C7D  DD400100           [055] getglobal  3   5        ; mMovie
1C81  E440C401           [056] self       3   3   273  ; -301556379
1C85  E2000001           [057] call       3   2   0  
1C89  22400000           [058] call       0   0   1  
1C8D  1D400100           [059] getglobal  0   5        ; mMovie
1C91  24804400           [060] self       0   0   274  ; 471456102
1C95  99C00400           [061] loadk      2   19       ; "Progress.Bar.Fill"
1C99  D9000500           [062] loadk      3   20       ; "_width"
1C9D  13010002           [063] getupval   4   4      
1CA1  22408002           [064] call       0   5   1  
1CA5  13008002           [065] getupval   0   5      
1CA9  22408000           [066] call       0   1   1  
1CAD  19400500           [067] loadk      0   21       ; ""
1CB1  5D800500           [068] getglobal  1   22       ; -2042208176
1CB5  62808000           [069] call       1   1   2  
1CB9  9DC00500           [070] getglobal  2   23       ; Engine
1CBD  8E004601           [071] gettable   2   2   280  ; -480372885
1CC1  A2808000           [072] call       2   1   2  
1CC5  98000000           [073] test       2       0    ; to [75] if true
1CC9  1A400080           [074] jmp        2            ; to [77]
1CCD  19400600           [075] loadk      0   25       ; "WarframeLogoCY"
1CD1  1A000180           [076] jmp        5            ; to [82]
1CD5  58000000           [077] test       1       0    ; to [79] if true
1CD9  1A400080           [078] jmp        2            ; to [81]
1CDD  19800600           [079] loadk      0   26       ; "WarframeLogoChina"
1CE1  1A000080           [080] jmp        1            ; to [82]
1CE5  19C00600           [081] loadk      0   27       ; "WarframeLogo"
1CE9  CB008001           [082] newtable   3   3   0    ; array=3, hash=0
1CED  19C10600           [083] loadk      4   27       ; "WarframeLogo"
1CF1  59810600           [084] loadk      5   26       ; "WarframeLogoChina"
1CF5  99410600           [085] loadk      6   25       ; "WarframeLogoCY"
1CF9  DB408001           [086] setlist    3   3   1    ; index 1 to 3
1CFD  1D010700           [087] getglobal  4   28       ; 1672515847
1D01  52018001           [088] move       5   3      
1D05  22010101           [089] call       4   2   4  
1D09  1A000280           [090] jmp        9            ; to [100]
fail op	35
1D0D  63000004           [091] close      1  
1D11  1A800180           [092] jmp        7            ; to [100]
1D15  5D420100           [093] getglobal  9   5        ; mMovie
1D19  6442C704           [094] self       9   9   285  ; -2013161817
1D1D  D9820200           [095] loadk      11  10       ; "Progress"
1D21  12030004           [096] move       12  8      
1D25  59830700           [097] loadk      13  30       ; "_visible"
1D29  97030000           [098] loadbool   14  0   0    ; false
1D2D  62420003           [099] call       9   6   1  
1D31  16810000           [100] tforloop   4       2    ; to [102] if exit
1D35  1A00FD7F           [101] jmp        -11          ; to [91]
1D39  5D420100           [102] getglobal  9   5        ; mMovie
1D3D  64C2C704           [103] self       9   9   287  ; -693657623
1D41  D9020800           [104] loadk      11  32       ; "Progress.Player1.Name"
1D45  19430800           [105] loadk      12  33       ; "text"
1D49  59430500           [106] loadk      13  21       ; ""
1D4D  62428002           [107] call       9   5   1  
1D51  59820800           [108] loadk      9   34       ; 0
1D55  93020003           [109] getupval   10  6      
1D59  8D824805           [110] sub        10  10  290  ; 0
1D5D  D9820800           [111] loadk      11  34       ; 0
1D61  50820F80           [112] forprep    9   63       ; to [176]
1D65  5D430100           [113] getglobal  13  5        ; mMovie
1D69  64C3C806           [114] self       13  13  291  ; 1145284071
1D6D  D9030900           [115] loadk      15  36       ; "Progress.Player"
1D71  12040006           [116] move       16  12     
1D75  59440900           [117] loadk      17  37       ; ".ProfileImage"
1D79  C2438407           [118] concat     15  15  17 
1D7D  1D840900           [119] getglobal  16  38       ; defaultProfileTexture
1D81  5DC40900           [120] getglobal  17  39       ; playerAvatarMaterial
1D85  62438002           [121] call       13  5   1  
1D89  5D430100           [122] getglobal  13  5        ; mMovie
1D8D  6483C406           [123] self       13  13  274  ; 471456102
1D91  D9030900           [124] loadk      15  36       ; "Progress.Player"
1D95  12040006           [125] move       16  12     
1D99  C2038407           [126] concat     15  15  16 
1D9D  19040A00           [127] loadk      16  40       ; "_alpha"
1DA1  59440A00           [128] loadk      17  41       ; 0
1DA5  62438002           [129] call       13  5   1  
1DA9  5D430100           [130] getglobal  13  5        ; mMovie
1DAD  6483C406           [131] self       13  13  274  ; 471456102
1DB1  D9030900           [132] loadk      15  36       ; "Progress.Player"
1DB5  12040006           [133] move       16  12     
1DB9  C2038407           [134] concat     15  15  16 
1DBD  19840A00           [135] loadk      16  42       ; "_x"
1DC1  59440A00           [136] loadk      17  41       ; 0
1DC5  62438002           [137] call       13  5   1  
1DC9  5D430100           [138] getglobal  13  5        ; mMovie
1DCD  64C3C706           [139] self       13  13  287  ; -693657623
1DD1  D9030900           [140] loadk      15  36       ; "Progress.Player"
1DD5  12040006           [141] move       16  12     
1DD9  59C40A00           [142] loadk      17  43       ; ".Name"
1DDD  C2438407           [143] concat     15  15  17 
1DE1  19440800           [144] loadk      16  33       ; "text"
1DE5  59440500           [145] loadk      17  21       ; ""
1DE9  62438002           [146] call       13  5   1  
1DED  5D430100           [147] getglobal  13  5        ; mMovie
1DF1  6443C706           [148] self       13  13  285  ; -2013161817
1DF5  D9030900           [149] loadk      15  36       ; "Progress.Player"
1DF9  12040006           [150] move       16  12     
1DFD  C2038407           [151] concat     15  15  16 
1E01  19040B00           [152] loadk      16  44       ; "Name"
1E05  59440B00           [153] loadk      17  45       ; "verticalAlignment"
1E09  99840B00           [154] loadk      18  46       ; "bottom"
1E0D  62430003           [155] call       13  6   1  
1E11  5D430100           [156] getglobal  13  5        ; mMovie
1E15  64C3CB06           [157] self       13  13  303  ; 2115970775
1E19  D9030900           [158] loadk      15  36       ; "Progress.Player"
1E1D  12040006           [159] move       16  12     
1E21  59040C00           [160] loadk      17  48       ; ".Progress.Fill"
1E25  C2438407           [161] concat     15  15  17 
1E29  1D440C00           [162] getglobal  16  49       ; progressMaterial
1E2D  62430002           [163] call       13  4   1  
1E31  5D430100           [164] getglobal  13  5        ; mMovie
1E35  6483CC06           [165] self       13  13  306  ; 808102703
1E39  D9030900           [166] loadk      15  36       ; "Progress.Player"
1E3D  12040006           [167] move       16  12     
1E41  59040C00           [168] loadk      17  48       ; ".Progress.Fill"
1E45  C2438407           [169] concat     15  15  17 
1E49  19C40C00           [170] loadk      16  51       ; "AlphaTestThreshold"
1E4D  59440A00           [171] loadk      17  41       ; 0
1E51  99440A00           [172] loadk      18  41       ; 0
1E55  D9440A00           [173] loadk      19  41       ; 0
1E59  19450A00           [174] loadk      20  41       ; 0
1E5D  62430004           [175] call       13  8   1  
1E61  54C2EF7F           [176] forloop    9   -64      ; to [113] if loop
1E65  5D030D00           [177] getglobal  13  52       ; gPlayerProfileMgr
1E69  6443CD06           [178] self       13  13  309  ; 853032131
1E6D  62830001           [179] call       13  2   2  
fail op	5
1E71  85038006           [180] getglobal  14  6656     ; nil
1E75  1A400480           [181] jmp        18           ; to [200]
1E79  9D830D00           [182] getglobal  14  54       ; gFlashMgr
1E7D  A4C34D07           [183] self       14  14  311  ; 277467219
1E81  19040E00           [184] loadk      16  56       ; "HUD.UseAlternateHud"
1E85  A2838001           [185] call       14  3   2  
1E89  98430000           [186] test       14      1    ; to [188] if false
1E8D  1A400280           [187] jmp        10           ; to [198]
1E91  9D830D00           [188] getglobal  14  54       ; gFlashMgr
1E95  A4C34D07           [189] self       14  14  311  ; 277467219
1E99  19440E00           [190] loadk      16  57       ; "Server.FastLoad"
1E9D  A2838001           [191] call       14  3   2  
1EA1  98430000           [192] test       14      1    ; to [194] if false
1EA5  1AC00080           [193] jmp        4            ; to [198]
1EA9  9D030000           [194] getglobal  14  0        ; _G
1EAD  8E834E07           [195] gettable   14  14  314  ; "DisableLoadingDiorama"
fail op	9
1EB1  89030007           [196] settable   14  14  0  
1EB5  1A400080           [197] jmp        2            ; to [200]
1EB9  97430000           [198] loadbool   14  0   1    ; false, to [200]
1EBD  97038000           [199] loadbool   14  1   0    ; true
fail op	8
1EC1  88038003           [200] setupval   14  7      
1EC5  86030007           [201] loadnil    14  14     
1EC9  DDC30E00           [202] getglobal  15  59       ; gClient
1ECD  E403CF07           [203] self       15  15  316  ; 1690615710
1ED1  E2830001           [204] call       15  2   2  
1ED5  1D040000           [205] getglobal  16  0        ; _G
1ED9  0E444F08           [206] gettable   16  16  317  ; "PlayingMiniGame"
fail op	35
1EDD  63804008           [207] close      1  
1EE1  1AC00680           [208] jmp        28           ; to [237]
1EE5  5D040000           [209] getglobal  17  0        ; _G
1EE9  4C84C09E           [210] settable   17  317 258  ; "PlayingMiniGame" nil
fail op	35
1EED  23804F08           [211] close      0  
1EF1  1A800380           [212] jmp        15           ; to [228]
1EF5  5DC40F00           [213] getglobal  17  63       ; 738251817
1EF9  99041000           [214] loadk      18  64       ; "/Lotus/Characters/Pets/Wyrm/Wyrm_skel.fbx"
1EFD  62840001           [215] call       17  2   2  
1F01  9D441000           [216] getglobal  18  65       ; -895206725
1F05  D2048008           [217] move       19  17     
1F09  A2840001           [218] call       18  2   2  
1F0D  DD841000           [219] getglobal  19  66       ; 2083004503
1F11  12058008           [220] move       20  17     
1F15  E2840001           [221] call       19  2   2  
1F19  0BC50000           [222] newtable   20  0   3    ; array=0, hash=3
1F1D  0CC584A1           [223] settable   20  323 19   ; "mesh"
1F21  0C8504A2           [224] settable   20  324 18   ; "anchor"
1F25  0C85D1A2           [225] settable   20  325 326  ; "scale" 0
1F29  9203000A           [226] move       14  20     
1F2D  1A000280           [227] jmp        9            ; to [237]
fail op	35
1F31  23C05108           [228] close      0  
1F35  1A000180           [229] jmp        5            ; to [235]
1F39  1D050000           [230] getglobal  20  0        ; _G
1F3D  0C05849E           [231] settable   20  317 16   ; "PlayingMiniGame"
1F41  1D050000           [232] getglobal  20  0        ; _G
1F45  0C4552A4           [233] settable   20  328 329  ; "StalkerMode" 1
1F49  1A400080           [234] jmp        2            ; to [237]
1F4D  17050000           [235] loadbool   20  0   0    ; false
fail op	8
1F51  08058003           [236] setupval   20  7      
1F55  1D050000           [237] getglobal  20  0        ; _G
1F59  0E85520A           [238] gettable   20  20  330  ; "TempStalker"
1F5D  18050000           [239] test       20      0    ; to [241] if true
1F61  1AC00680           [240] jmp        28           ; to [269]
1F65  1DC51200           [241] getglobal  20  75       ; 1074689893
1F69  5D051300           [242] getglobal  21  76       ; gMatchingService
1F6D  6445D30A           [243] self       21  21  333  ; -706726330
1F71  62050001           [244] call       21  2   0  
1F75  22850000           [245] call       20  0   2  
1F79  18050000           [246] test       20      0    ; to [248] if true
1F7D  1A000580           [247] jmp        21           ; to [269]
1F81  1DC51200           [248] getglobal  20  75       ; 1074689893
1F85  5D050D00           [249] getglobal  21  52       ; gPlayerProfileMgr
1F89  6485D30A           [250] self       21  21  334  ; 569342746
1F8D  D9450A00           [251] loadk      23  41       ; 0
1F91  62058001           [252] call       21  3   0  
1F95  22850000           [253] call       20  0   2  
1F99  18450000           [254] test       20      1    ; to [256] if false
1F9D  1A000280           [255] jmp        9            ; to [265]
1FA1  1D050D00           [256] getglobal  20  52       ; gPlayerProfileMgr
1FA5  2485530A           [257] self       20  20  334  ; 569342746
1FA9  99450A00           [258] loadk      22  41       ; 0
1FAD  22858001           [259] call       20  3   2  
1FB1  24C5530A           [260] self       20  20  335  ; 1699680402
1FB5  22850001           [261] call       20  2   2  
1FB9  2405540A           [262] self       20  20  336  ; 27229672
1FBD  97050000           [263] loadbool   22  0   0    ; false
1FC1  22458001           [264] call       20  3   1  
1FC5  1D050000           [265] getglobal  20  0        ; _G
1FC9  0C4554A5           [266] settable   20  330 337  ; "TempStalker" 0
1FCD  1D050000           [267] getglobal  20  0        ; _G
1FD1  0C4554A4           [268] settable   20  328 337  ; "StalkerMode" 0
1FD5  1D050000           [269] getglobal  20  0        ; _G
1FD9  0E05520A           [270] gettable   20  20  328  ; "StalkerMode"
1FDD  18050000           [271] test       20      0    ; to [273] if true
1FE1  1AC00480           [272] jmp        20           ; to [293]
1FE5  58430000           [273] test       13      1    ; to [275] if false
1FE9  1A000180           [274] jmp        5            ; to [280]
1FED  1DC50500           [275] getglobal  20  23       ; Engine
1FF1  0E85540A           [276] gettable   20  20  338  ; -985664686
1FF5  57058000           [277] loadbool   21  1   0    ; true
1FF9  22450001           [278] call       20  2   1  
1FFD  1A000380           [279] jmp        13           ; to [293]
2001  D3030004           [280] getupval   15  8      
2005  1D450100           [281] getglobal  20  5        ; mMovie
2009  2485440A           [282] self       20  20  274  ; 471456102
200D  99C50100           [283] loadk      22  7        ; "Tip"
2011  D9850700           [284] loadk      23  30       ; "_visible"
2015  17060000           [285] loadbool   24  0   0    ; false
2019  22458002           [286] call       20  5   1  
201D  1D450100           [287] getglobal  20  5        ; mMovie
2021  2485440A           [288] self       20  20  274  ; 471456102
2025  99850200           [289] loadk      22  10       ; "Progress"
2029  D9850700           [290] loadk      23  30       ; "_visible"
202D  17060000           [291] loadbool   24  0   0    ; false
2031  22458002           [292] call       20  5   1  
2035  1DC51200           [293] getglobal  20  75       ; 1074689893
2039  5D850D00           [294] getglobal  21  54       ; gFlashMgr
203D  22850001           [295] call       20  2   2  
2041  18450000           [296] test       20      1    ; to [298] if false
2045  1AC00280           [297] jmp        12           ; to [310]
2049  1D850D00           [298] getglobal  20  54       ; gFlashMgr
204D  24C5540A           [299] self       20  20  339  ; -872305030
2051  93058004           [300] getupval   22  9      
2055  22858001           [301] call       20  3   2  
2059  18050000           [302] test       20      0    ; to [304] if true
205D  1A400180           [303] jmp        6            ; to [310]
2061  1D450100           [304] getglobal  20  5        ; mMovie
2065  2485440A           [305] self       20  20  274  ; 471456102
2069  99C50100           [306] loadk      22  7        ; "Tip"
206D  D9850700           [307] loadk      23  30       ; "_visible"
2071  17060000           [308] loadbool   24  0   0    ; false
2075  22458002           [309] call       20  5   1  
2079  13058003           [310] getupval   20  7      
207D  18050000           [311] test       20      0    ; to [313] if true
2081  1A003780           [312] jmp        221          ; to [534]
2085  1D051500           [313] getglobal  20  84       ; 849075268
2089  59451500           [314] loadk      21  85       ; "Lotus.Interface.Libs.DioramaLoader"
208D  22850001           [315] call       20  2   2  
2091  4E85550A           [316] gettable   21  20  342  ; -1069406678
2095  9D450100           [317] getglobal  22  5        ; mMovie
2099  62850001           [318] call       21  2   2  
fail op	8
209D  48050005           [319] setupval   21  10     
20A1  53058005           [320] getupval   21  11     
20A5  4EC5D50A           [321] gettable   21  21  343  ; -132701534
20A9  9DC51200           [322] getglobal  22  75       ; 1074689893
20AD  D2058007           [323] move       23  15     
20B1  A2850001           [324] call       22  2   2  
20B5  D3050006           [325] getupval   23  12     
20B9  E2858000           [326] call       23  1   2  
20BD  12068007           [327] move       24  15     
20C1  62850002           [328] call       21  4   2  
20C5  9DC51200           [329] getglobal  22  75       ; 1074689893
20C9  D205800A           [330] move       23  21     
20CD  A2850001           [331] call       22  2   2  
20D1  98450000           [332] test       22      1    ; to [334] if false
20D5  1AC01880           [333] jmp        100          ; to [434]
20D9  9D051600           [334] getglobal  22  88       ; -1817107093
20DD  D9451600           [335] loadk      23  89       ; "Loading progress level "
20E1  2486D60A           [336] self       24  21  346  ; 455421500
20E5  22860001           [337] call       24  2   2  
20E9  C205860B           [338] concat     23  23  24 
20ED  A2450001           [339] call       22  2   1  
20F1  8B050000           [340] newtable   22  0   0    ; array=0, hash=0
20F5  E485D60A           [341] self       23  21  346  ; 455421500
20F9  E2050001           [342] call       23  2   0  
20FD  9B450000           [343] setlist    22  0   1    ; index 1 to top
2101  DDC51200           [344] getglobal  23  75       ; 1074689893
2105  12068007           [345] move       24  15     
2109  E2850001           [346] call       23  2   2  
210D  D8050000           [347] test       23      0    ; to [349] if true
2111  1A801280           [348] jmp        75           ; to [424]
2115  DD051300           [349] getglobal  23  76       ; gMatchingService
2119  E4C5D60B           [350] self       23  23  347  ; -1985412809
211D  E2850001           [351] call       23  2   2  
2121  19860800           [352] loadk      24  34       ; 0
2125  4A06800B           [353] len        25  23     
2129  99860800           [354] loadk      26  34       ; 0
212D  10861080           [355] forprep    24  67       ; to [423]
2131  1D071700           [356] getglobal  28  92       ; cjson
2135  0E47570E           [357] gettable   28  28  349  ; -1976663275
2139  4EC7860B           [358] gettable   29  23  27 
213D  4E87D70E           [359] gettable   29  29  350  ; "loadout"
2141  22870001           [360] call       28  2   2  
2145  5DC71700           [361] getglobal  29  95       ; 469076166
2149  99470A00           [362] loadk      30  41       ; 0
214D  62470001           [363] call       29  2   1  
2151  5DC71200           [364] getglobal  29  75       ; 1074689893
2155  8E07580E           [365] gettable   30  28  352  ; "ShipType"
2159  62870001           [366] call       29  2   2  
215D  58470000           [367] test       29      1    ; to [369] if false
2161  1A800580           [368] jmp        23           ; to [392]
2165  5D070000           [369] getglobal  29  0        ; _G
2169  4E47C00E           [370] gettable   29  29  257  ; "gLoadedShipSkinsFromDiorama"
216D  8E07580E           [371] gettable   30  28  352  ; "ShipType"
2171  4E87870E           [372] gettable   29  29  30 
2175  58470000           [373] test       29      1    ; to [375] if false
2179  1A000480           [374] jmp        17           ; to [392]
217D  5DC70F00           [375] getglobal  29  63       ; 738251817
2181  8E07580E           [376] gettable   30  28  352  ; "ShipType"
2185  62870001           [377] call       29  2   2  
2189  9DC71200           [378] getglobal  30  75       ; 1074689893
218D  D207800E           [379] move       31  29     
2191  A2870001           [380] call       30  2   2  
2195  98470000           [381] test       30      1    ; to [383] if false
2199  1A000280           [382] jmp        9            ; to [392]
219D  8A07000B           [383] len        30  22     
21A1  8387480F           [384] add        30  30  290  ; 0
21A5  E487D60E           [385] self       31  29  346  ; 455421500
21A9  E2870001           [386] call       31  2   2  
21AD  8CC5070F           [387] settable   22  30  31 
21B1  9D070000           [388] getglobal  30  0        ; _G
21B5  8E47400F           [389] gettable   30  30  257  ; "gLoadedShipSkinsFromDiorama"
21B9  CE07580E           [390] gettable   31  28  352  ; "ShipType"
21BD  8C47D20F           [391] settable   30  31  329  ; 1
21C1  9DC71200           [392] getglobal  30  75       ; 1074689893
21C5  CE47580E           [393] gettable   31  28  353  ; "ShipCustomizations"
21C9  A2870001           [394] call       30  2   2  
21CD  98470000           [395] test       30      1    ; to [397] if false
21D1  1A400680           [396] jmp        26           ; to [423]
21D5  9D070000           [397] getglobal  30  0        ; _G
21D9  8E47400F           [398] gettable   30  30  257  ; "gLoadedShipSkinsFromDiorama"
21DD  CE47580E           [399] gettable   31  28  353  ; "ShipCustomizations"
21E1  CE87D80F           [400] gettable   31  31  354  ; "SkinFlavourItem"
21E5  8EC7070F           [401] gettable   30  30  31 
21E9  98470000           [402] test       30      1    ; to [404] if false
21ED  1A800480           [403] jmp        19           ; to [423]
21F1  9DC70F00           [404] getglobal  30  63       ; 738251817
21F5  CE47580E           [405] gettable   31  28  353  ; "ShipCustomizations"
21F9  CE87D80F           [406] gettable   31  31  354  ; "SkinFlavourItem"
21FD  A2870001           [407] call       30  2   2  
2201  DDC71200           [408] getglobal  31  75       ; 1074689893
2205  1208000F           [409] move       32  30     
2209  E2870001           [410] call       31  2   2  
220D  D8470000           [411] test       31      1    ; to [413] if false
2211  1A400280           [412] jmp        10           ; to [423]
2215  CA07000B           [413] len        31  22     
2219  C387C80F           [414] add        31  31  290  ; 0
221D  2488560F           [415] self       32  30  346  ; 455421500
2221  22880001           [416] call       32  2   2  
2225  8C05880F           [417] settable   22  31  32 
2229  DD070000           [418] getglobal  31  0        ; _G
222D  CE47C00F           [419] gettable   31  31  257  ; "gLoadedShipSkinsFromDiorama"
2231  0E48580E           [420] gettable   32  28  353  ; "ShipCustomizations"
2235  0E885810           [421] gettable   32  32  354  ; "SkinFlavourItem"
2239  CC475210           [422] settable   31  32  329  ; 1
223D  14C6EE7F           [423] forloop    24  -68      ; to [356] if loop
2241  DDC71800           [424] getglobal  31  99       ; UISys
2245  CE07D90F           [425] gettable   31  31  356  ; 1151030240
2249  1208000B           [426] move       32  22     
224D  E2870001           [427] call       31  2   2  
fail op	8
2251  C8078006           [428] setupval   31  13     
2255  D3078006           [429] getupval   31  13     
2259  E447D90F           [430] self       31  31  357  ; 1712703828
225D  E2470001           [431] call       31  2   1  
2261  DD070000           [432] getglobal  31  0        ; _G
2265  CC8703B3           [433] settable   31  358 14   ; "ShipMeshOverride"
2269  D3070005           [434] getupval   31  10     
226D  E4C7D90F           [435] self       31  31  359  ; 252425949
2271  5208800A           [436] move       33  21     
2275  E2478001           [437] call       31  3   1  
2279  D3070005           [438] getupval   31  10     
227D  CC4754B4           [439] settable   31  360 337  ; "mSyncAvatars" 0
2281  D3070005           [440] getupval   31  10     
2285  E447DA0F           [441] self       31  31  361  ; 48435800
2289  E2470001           [442] call       31  2   1  
228D  D9870800           [443] loadk      31  34       ; 0
2291  13080003           [444] getupval   32  6      
2295  59880800           [445] loadk      33  34       ; 0
2299  D0C70E80           [446] forprep    31  60       ; to [507]
229D  DDC81200           [447] getglobal  35  75       ; 1074689893
22A1  13090007           [448] getupval   36  14     
22A5  0E890812           [449] gettable   36  36  34 
22A9  E2880001           [450] call       35  2   2  
22AD  D8080000           [451] test       35      0    ; to [453] if true
22B1  1A400D80           [452] jmp        54           ; to [507]
22B5  D3088005           [453] getupval   35  11     
22B9  CE88DA11           [454] gettable   35  35  362  ; -1827748401
22BD  19C91A00           [455] loadk      36  107      ; "Player"
22C1  52090011           [456] move       37  34     
22C5  02490912           [457] concat     36  36  37 
22C9  5D091B00           [458] getglobal  37  108      ; gBackgroundRegion
22CD  E2888001           [459] call       35  3   2  
22D1  1DC91200           [460] getglobal  36  75       ; 1074689893
22D5  52098011           [461] move       37  35     
22D9  22890001           [462] call       36  2   2  
22DD  18490000           [463] test       36      1    ; to [465] if false
22E1  1A400A80           [464] jmp        42           ; to [507]
22E5  13090007           [465] getupval   36  14     
22E9  4B890100           [466] newtable   37  0   6    ; array=0, hash=6
22ED  4CC988B6           [467] settable   37  365 35   ; "Ship"
22F1  A4C9DB11           [468] self       38  35  367  ; 1839670529
22F5  A2890001           [469] call       38  2   2  
22F9  4C8909B7           [470] settable   37  366 38   ; "Origin"
22FD  A449DC11           [471] self       38  35  369  ; -231049143
2301  A2890001           [472] call       38  2   2  
2305  4C8909B8           [473] settable   37  368 38   ; "Rot"
2309  9DC91C00           [474] getglobal  38  115      ; 572299008
230D  A2898000           [475] call       38  1   2  
2311  4C8909B9           [476] settable   37  370 38   ; "Offset"
2315  9DC91C00           [477] getglobal  38  115      ; 572299008
2319  A2898000           [478] call       38  1   2  
231D  4C8909BA           [479] settable   37  372 38   ; "Thrust"
2321  4C49D2BA           [480] settable   37  373 329  ; "Visible" 1
2325  0C490911           [481] settable   36  34  37 
2329  1D891D00           [482] getglobal  36  118      ; _T
232D  0EC95D12           [483] gettable   36  36  375  ; "UsedLisetCustomizations"
fail op	35
2331  63804012           [484] close      1  
2335  1A000580           [485] jmp        21           ; to [507]
2339  1D891D00           [486] getglobal  36  118      ; _T
233D  0EC95D12           [487] gettable   36  36  375  ; "UsedLisetCustomizations"
2341  0E095E12           [488] gettable   36  36  376  ; "Normal"
fail op	35
2345  63804012           [489] close      1  
2349  1AC00380           [490] jmp        16           ; to [507]
234D  19C91A00           [491] loadk      36  107      ; "Player"
2351  52090011           [492] move       37  34     
2355  02490912           [493] concat     36  36  37 
2359  5D491E00           [494] getglobal  37  121      ; 248503575
235D  9D891D00           [495] getglobal  38  118      ; _T
2361  8EC95D13           [496] gettable   38  38  375  ; "UsedLisetCustomizations"
2365  8E095E13           [497] gettable   38  38  376  ; "Normal"
2369  62090101           [498] call       37  2   4  
236D  1A000180           [499] jmp        5            ; to [505]
fail op	35
2371  23008914           [500] close      0  
2375  1A800080           [501] jmp        3            ; to [505]
2379  930A0007           [502] getupval   42  14     
237D  8E8A0815           [503] gettable   42  42  34 
2381  8C0A0ABD           [504] settable   42  378 40   ; "LowerName"
2385  56890000           [505] tforloop   37      2    ; to [507] if exit
2389  1A00FE7F           [506] jmp        -7           ; to [500]
238D  D487F07F           [507] forloop    31  -61      ; to [447] if loop
2391  A50A0000           [508] closure    42  0      
2395  DDCA1E00           [509] getglobal  43  123      ; 1390508688
2399  1D4B0100           [510] getglobal  44  5        ; mMovie
239D  590B1F00           [511] loadk      45  124      ; "_root"
23A1  9DCB1800           [512] getglobal  46  99       ; UISys
23A5  8E4B5F17           [513] gettable   46  46  381  ; "FlashInstance_LINEAR"
23A9  CB0B8000           [514] newtable   47  1   0    ; array=1, hash=0
23AD  120C0015           [515] move       48  42     
23B1  DB4B8000           [516] setlist    47  1   1    ; index 1 to 1
23B5  0B0C8000           [517] newtable   48  1   0    ; array=1, hash=0
23B9  598C0800           [518] loadk      49  34       ; 0
23BD  1B4C8000           [519] setlist    48  1   1    ; index 1 to 1
23C1  598C1F00           [520] loadk      49  126      ; 0
23C5  994C0A00           [521] loadk      50  41       ; 0
23C9  E24A0004           [522] call       43  8   1  
23CD  DD4A0100           [523] getglobal  43  5        ; mMovie
23D1  E4CADF15           [524] self       43  43  383  ; -403402525
23D5  598B0800           [525] loadk      45  34       ; 0
23D9  E24A8001           [526] call       43  3   1  
23DD  DD4A0100           [527] getglobal  43  5        ; mMovie
23E1  E48AC415           [528] self       43  43  274  ; 471456102
23E5  590B2000           [529] loadk      45  128      ; "Banner"
23E9  998B0700           [530] loadk      46  30       ; "_visible"
23ED  D70B0000           [531] loadbool   47  0   0    ; false
23F1  E24A8002           [532] call       43  5   1  
23F5  1A800A80           [533] jmp        43           ; to [577]
23F9  58030000           [534] test       13      0    ; to [536] if true
23FD  1A000380           [535] jmp        13           ; to [549]
2401  DD8A0D00           [536] getglobal  43  54       ; gFlashMgr
2405  E4CACD15           [537] self       43  43  311  ; 277467219
2409  590B0E00           [538] loadk      45  56       ; "HUD.UseAlternateHud"
240D  E28A8001           [539] call       43  3   2  
2411  D80A0000           [540] test       43      0    ; to [542] if true
2415  1A800180           [541] jmp        7            ; to [549]
2419  DD4A0100           [542] getglobal  43  5        ; mMovie
241D  E48AC415           [543] self       43  43  274  ; 471456102
2421  590B2000           [544] loadk      45  128      ; "Banner"
2425  990B0A00           [545] loadk      46  40       ; "_alpha"
2429  D94B0A00           [546] loadk      47  41       ; 0
242D  E24A8002           [547] call       43  5   1  
2431  1AC00680           [548] jmp        28           ; to [577]
2435  DD0A0000           [549] getglobal  43  0        ; _G
2439  CE8ACE15           [550] gettable   43  43  314  ; "DisableLoadingDiorama"
243D  D80A0000           [551] test       43      0    ; to [553] if true
2441  1A800180           [552] jmp        7            ; to [560]
2445  DD4A0100           [553] getglobal  43  5        ; mMovie
2449  E48AC415           [554] self       43  43  274  ; 471456102
244D  590B2000           [555] loadk      45  128      ; "Banner"
2451  990B0A00           [556] loadk      46  40       ; "_alpha"
2455  D94B0A00           [557] loadk      47  41       ; 0
2459  E24A8002           [558] call       43  5   1  
245D  1A000480           [559] jmp        17           ; to [577]
2461  DDCA1200           [560] getglobal  43  75       ; 1074689893
2465  1D4B2000           [561] getglobal  44  129      ; bootTexture
2469  E28A0001           [562] call       43  2   2  
246D  D84A0000           [563] test       43      1    ; to [565] if false
2471  1AC00280           [564] jmp        12           ; to [577]
2475  DD8A1000           [565] getglobal  43  66       ; 2083004503
2479  1D4B2000           [566] getglobal  44  129      ; bootTexture
247D  E28A0001           [567] call       43  2   2  
fail op	8
2481  C80A8007           [568] setupval   43  15     
2485  DD4A0100           [569] getglobal  43  5        ; mMovie
2489  E4CAC815           [570] self       43  43  291  ; 1145284071
248D  590B2000           [571] loadk      45  128      ; "Banner"
2491  930B8007           [572] getupval   46  15     
2495  DD8B2000           [573] getglobal  47  130      ; bannerMaterial
2499  E24A8002           [574] call       43  5   1  
249D  D30A0008           [575] getupval   43  16     
24A1  E24A8000           [576] call       43  1   1  
24A5  DD4A0100           [577] getglobal  43  5        ; mMovie
24A9  E4CAC715           [578] self       43  43  287  ; -693657623
24AD  59CB2000           [579] loadk      45  131      ; "Tip.Content"
24B1  994B0800           [580] loadk      46  33       ; "text"
24B5  D94B0500           [581] loadk      47  21       ; ""
24B9  E24A8002           [582] call       43  5   1  
24BD  DD4A0100           [583] getglobal  43  5        ; mMovie
24C1  E4CAC715           [584] self       43  43  287  ; -693657623
24C5  590B2100           [585] loadk      45  132      ; "Tip.Author"
24C9  994B0800           [586] loadk      46  33       ; "text"
24CD  D94B0500           [587] loadk      47  21       ; ""
24D1  E24A8002           [588] call       43  5   1  
24D5  DD4A2100           [589] getglobal  43  133      ; gPromotedToHost
24D9  D80A0000           [590] test       43      0    ; to [592] if true
24DD  1A400180           [591] jmp        6            ; to [598]
24E1  DD4A0100           [592] getglobal  43  5        ; mMovie
24E5  E48AE115           [593] self       43  43  390  ; 386043535
24E9  59CB2100           [594] loadk      45  135      ; "GenericMessage.text"
24ED  990B2200           [595] loadk      46  136      ; "/Multiplayer/HostMigration_JoiningSession"
24F1  E24A0002           [596] call       43  4   1  
24F5  1E008000           [597] return     0   1      
24F9  DD0A0D00           [598] getglobal  43  52       ; gPlayerProfileMgr
24FD  E48AD315           [599] self       43  43  334  ; 569342746
2501  594B0A00           [600] loadk      45  41       ; 0
2505  E28A8001           [601] call       43  3   2  
2509  58030000           [602] test       13      0    ; to [604] if true
250D  1A000180           [603] jmp        5            ; to [609]
2511  1DCB1200           [604] getglobal  44  75       ; 1074689893
2515  520B8015           [605] move       45  43     
2519  228B0001           [606] call       44  2   2  
251D  180B0000           [607] test       44      0    ; to [609] if true
2521  1A000080           [608] jmp        1            ; to [610]
2525  1E008000           [609] return     0   1      
2529  130B8008           [610] getupval   44  17     
252D  228B8000           [611] call       44  1   2  
2531  184B0000           [612] test       44      1    ; to [614] if false
2535  1A000480           [613] jmp        17           ; to [631]
2539  1DCB1200           [614] getglobal  44  75       ; 1074689893
253D  5D4B2200           [615] getglobal  45  137      ; mapSoundMusic
2541  228B0001           [616] call       44  2   2  
2545  184B0000           [617] test       44      1    ; to [619] if false
2549  1AC00280           [618] jmp        12           ; to [631]
254D  1DCB1200           [619] getglobal  44  75       ; 1074689893
2551  5D0B0000           [620] getglobal  45  0        ; _G
2555  4E8BE216           [621] gettable   45  45  394  ; "MapSoundInst"
2559  228B0001           [622] call       44  2   2  
255D  180B0000           [623] test       44      0    ; to [625] if true
2561  1A400180           [624] jmp        6            ; to [631]
2565  1D0B0000           [625] getglobal  44  0        ; _G
2569  530B8005           [626] getupval   45  11     
256D  4ECBE216           [627] gettable   45  45  395  ; 630793108
2571  9D4B2200           [628] getglobal  46  137      ; mapSoundMusic
2575  628B0001           [629] call       45  2   2  
2579  0C4B0BC5           [630] settable   44  394 45   ; "MapSoundInst"
257D  170B0000           [631] loadbool   44  0   0    ; false
2581  184B0000           [632] test       44      1    ; to [634] if false
2585  1A000280           [633] jmp        9            ; to [643]
2589  5D0B0000           [634] getglobal  45  0        ; _G
258D  4E0BE316           [635] gettable   45  45  396  ; "BootGlitch"
2591  584B0000           [636] test       45      1    ; to [638] if false
2595  1AC00480           [637] jmp        20           ; to [658]
2599  5D4B2300           [638] getglobal  45  141      ; math
259D  4E8BE316           [639] gettable   45  45  398  ; -2040962569
25A1  628B8000           [640] call       45  1   2  
fail op	33
25A5  21C0E316           [641] tforloop   0       399  ; to [643] if exit
25A9  1A800380           [642] jmp        15           ; to [658]
25AD  5D0B0D00           [643] getglobal  45  52       ; gPlayerProfileMgr
25B1  644BCD16           [644] self       45  45  309  ; 853032131
25B5  628B0001           [645] call       45  2   2  
25B9  580B0000           [646] test       45      0    ; to [648] if true
25BD  1A400280           [647] jmp        10           ; to [658]
25C1  5D0B0000           [648] getglobal  45  0        ; _G
25C5  4E0BD216           [649] gettable   45  45  328  ; "StalkerMode"
25C9  584B0000           [650] test       45      1    ; to [652] if false
25CD  1A400180           [651] jmp        6            ; to [658]
25D1  5D8B0D00           [652] getglobal  45  54       ; gFlashMgr
25D5  640BE416           [653] self       45  45  400  ; 38794118
25D9  DD4B2400           [654] getglobal  47  145      ; hiddenMovie
25DD  624B8001           [655] call       45  3   1  
25E1  5D0B0000           [656] getglobal  45  0        ; _G
25E5  4C4B52C6           [657] settable   45  396 329  ; "BootGlitch" 1
25E9  530B0009           [658] getupval   45  18     
25ED  624B8000           [659] call       45  1   1  
25F1  1E008000           [660] return     0   1      
                         * constants:
25F6  01                 sizek (146)
25F7  04                 const type 4
25F8  03                 string size (3)
25F9  5F4700             "_G\0"
                         const [0]: "_G"
25FC  04                 const type 4
25FD  1C                 string size (28)
25FE  674C6F6164656453+  "gLoadedS"
2606  686970536B696E73+  "hipSkins"
260E  46726F6D44696F72+  "FromDior"
2616  616D6100           "ama\0"
                         const [1]: "gLoadedShipSkinsFromDiorama"
261A  00                 const type 0
                         const [2]: nil
261B  04                 const type 4
261C  02                 string size (2)
261D  2D00               "-\0"
                         const [3]: "-"
261F  01                 const type 3
2620  3C1AFF46           const [4]: (1191123516)
2624  04                 const type 4
2625  07                 string size (7)
2626  6D4D6F76696500     "mMovie\0"
                         const [5]: "mMovie"
262D  01                 const type 3
262E  1625AA99           const [6]: (-1716902634)
2632  04                 const type 4
2633  04                 string size (4)
2634  54697000           "Tip\0"
                         const [7]: "Tip"
2638  04                 const type 4
2639  0D                 string size (13)
263A  414E43484F525F56+  "ANCHOR_V"
2642  5F544F5000         "_TOP\0"
                         const [8]: "ANCHOR_V_TOP"
2647  04                 const type 4
2648  0E                 string size (14)
2649  414E43484F525F48+  "ANCHOR_H"
2651  5F4C45465400       "_LEFT\0"
                         const [9]: "ANCHOR_H_LEFT"
2657  04                 const type 4
2658  09                 string size (9)
2659  50726F6772657373+  "Progress"
2661  00                 "\0"
                         const [10]: "Progress"
2662  04                 const type 4
2663  10                 string size (16)
2664  414E43484F525F56+  "ANCHOR_V"
266C  5F424F54544F4D00   "_BOTTOM\0"
                         const [11]: "ANCHOR_V_BOTTOM"
2674  04                 const type 4
2675  10                 string size (16)
2676  414E43484F525F48+  "ANCHOR_H"
267E  5F43454E54524500   "_CENTRE\0"
                         const [12]: "ANCHOR_H_CENTRE"
2686  04                 const type 4
2687  0F                 string size (15)
2688  47656E657269634D+  "GenericM"
2690  65737361676500     "essage\0"
                         const [13]: "GenericMessage"
2697  04                 const type 4
2698  10                 string size (16)
2699  414E43484F525F56+  "ANCHOR_V"
26A1  5F43454E54524500   "_CENTRE\0"
                         const [14]: "ANCHOR_V_CENTRE"
26A9  01                 const type 3
26AA  E999708C           const [15]: (-1938777623)
26AE  01                 const type 3
26AF  E1D595F5           const [16]: (-174729759)
26B3  01                 const type 3
26B4  659D06EE           const [17]: (-301556379)
26B8  01                 const type 3
26B9  66D9191C           const [18]: (471456102)
26BD  04                 const type 4
26BE  12                 string size (18)
26BF  50726F6772657373+  "Progress"
26C7  2E4261722E46696C+  ".Bar.Fil"
26CF  6C00               "l\0"
                         const [19]: "Progress.Bar.Fill"
26D1  04                 const type 4
26D2  07                 string size (7)
26D3  5F776964746800     "_width\0"
                         const [20]: "_width"
26DA  04                 const type 4
26DB  01                 string size (0)
                         const [21]: ""
26DD  01                 const type 3
26DE  50604686           const [22]: (-2042208176)
26E2  04                 const type 4
26E3  07                 string size (7)
26E4  456E67696E6500     "Engine\0"
                         const [23]: "Engine"
26EB  01                 const type 3
26EC  6B175EE3           const [24]: (-480372885)
26F0  04                 const type 4
26F1  0F                 string size (15)
26F2  5761726672616D65+  "Warframe"
26FA  4C6F676F435900     "LogoCY\0"
                         const [25]: "WarframeLogoCY"
2701  04                 const type 4
2702  12                 string size (18)
2703  5761726672616D65+  "Warframe"
270B  4C6F676F4368696E+  "LogoChin"
2713  6100               "a\0"
                         const [26]: "WarframeLogoChina"
2715  04                 const type 4
2716  0D                 string size (13)
2717  5761726672616D65+  "Warframe"
271F  4C6F676F00         "Logo\0"
                         const [27]: "WarframeLogo"
2724  01                 const type 3
2725  0791B063           const [28]: (1672515847)
2729  01                 const type 3
272A  A7960188           const [29]: (-2013161817)
272E  04                 const type 4
272F  09                 string size (9)
2730  5F76697369626C65+  "_visible"
2738  00                 "\0"
                         const [30]: "_visible"
2739  01                 const type 3
273A  E99FA7D6           const [31]: (-693657623)
273E  04                 const type 4
273F  16                 string size (22)
2740  50726F6772657373+  "Progress"
2748  2E506C6179657231+  ".Player1"
2750  2E4E616D6500       ".Name\0"
                         const [32]: "Progress.Player1.Name"
2756  04                 const type 4
2757  05                 string size (5)
2758  7465787400         "text\0"
                         const [33]: "text"
275D  03                 const type 3
275E  0000803F           const [34]: (0)
2762  01                 const type 3
2763  E7A54344           const [35]: (1145284071)
2767  04                 const type 4
2768  10                 string size (16)
2769  50726F6772657373+  "Progress"
2771  2E506C6179657200   ".Player\0"
                         const [36]: "Progress.Player"
2779  04                 const type 4
277A  0E                 string size (14)
277B  2E50726F66696C65+  ".Profile"
2783  496D61676500       "Image\0"
                         const [37]: ".ProfileImage"
2789  04                 const type 4
278A  16                 string size (22)
278B  64656661756C7450+  "defaultP"
2793  726F66696C655465+  "rofileTe"
279B  787475726500       "xture\0"
                         const [38]: "defaultProfileTexture"
27A1  04                 const type 4
27A2  15                 string size (21)
27A3  706C617965724176+  "playerAv"
27AB  617461724D617465+  "atarMate"
27B3  7269616C00         "rial\0"
                         const [39]: "playerAvatarMaterial"
27B8  04                 const type 4
27B9  07                 string size (7)
27BA  5F616C70686100     "_alpha\0"
                         const [40]: "_alpha"
27C1  03                 const type 3
27C2  00000000           const [41]: (0)
27C6  04                 const type 4
27C7  03                 string size (3)
27C8  5F7800             "_x\0"
                         const [42]: "_x"
27CB  04                 const type 4
27CC  06                 string size (6)
27CD  2E4E616D6500       ".Name\0"
                         const [43]: ".Name"
27D3  04                 const type 4
27D4  05                 string size (5)
27D5  4E616D6500         "Name\0"
                         const [44]: "Name"
27DA  04                 const type 4
27DB  12                 string size (18)
27DC  766572746963616C+  "vertical"
27E4  416C69676E6D656E+  "Alignmen"
27EC  7400               "t\0"
                         const [45]: "verticalAlignment"
27EE  04                 const type 4
27EF  07                 string size (7)
27F0  626F74746F6D00     "bottom\0"
                         const [46]: "bottom"
27F7  01                 const type 3
27F8  D7261F7E           const [47]: (2115970775)
27FC  04                 const type 4
27FD  0F                 string size (15)
27FE  2E50726F67726573+  ".Progres"
2806  732E46696C6C00     "s.Fill\0"
                         const [48]: ".Progress.Fill"
280D  04                 const type 4
280E  11                 string size (17)
280F  70726F6772657373+  "progress"
2817  4D6174657269616C+  "Material"
281F  00                 "\0"
                         const [49]: "progressMaterial"
2820  01                 const type 3
2821  2FAB2A30           const [50]: (808102703)
2825  04                 const type 4
2826  13                 string size (19)
2827  416C706861546573+  "AlphaTes"
282F  745468726573686F+  "tThresho"
2837  6C6400             "ld\0"
                         const [51]: "AlphaTestThreshold"
283A  04                 const type 4
283B  12                 string size (18)
283C  67506C6179657250+  "gPlayerP"
2844  726F66696C654D67+  "rofileMg"
284C  7200               "r\0"
                         const [52]: "gPlayerProfileMgr"
284E  01                 const type 3
284F  C33CD832           const [53]: (853032131)
2853  04                 const type 4
2854  0A                 string size (10)
2855  67466C6173684D67+  "gFlashMg"
285D  7200               "r\0"
                         const [54]: "gFlashMgr"
285F  01                 const type 3
2860  53D08910           const [55]: (277467219)
2864  04                 const type 4
2865  14                 string size (20)
2866  4855442E55736541+  "HUD.UseA"
286E  6C7465726E617465+  "lternate"
2876  48756400           "Hud\0"
                         const [56]: "HUD.UseAlternateHud"
287A  04                 const type 4
287B  10                 string size (16)
287C  5365727665722E46+  "Server.F"
2884  6173744C6F616400   "astLoad\0"
                         const [57]: "Server.FastLoad"
288C  04                 const type 4
288D  16                 string size (22)
288E  44697361626C654C+  "DisableL"
2896  6F6164696E674469+  "oadingDi"
289E  6F72616D6100       "orama\0"
                         const [58]: "DisableLoadingDiorama"
28A4  04                 const type 4
28A5  08                 string size (8)
28A6  67436C69656E7400   "gClient\0"
                         const [59]: "gClient"
28AE  01                 const type 3
28AF  9EBFC464           const [60]: (1690615710)
28B3  04                 const type 4
28B4  10                 string size (16)
28B5  506C6179696E674D+  "PlayingM"
28BD  696E6947616D6500   "iniGame\0"
                         const [61]: "PlayingMiniGame"
28C5  04                 const type 4
28C6  08                 string size (8)
28C7  7779726D69757300   "wyrmius\0"
                         const [62]: "wyrmius"
28CF  01                 const type 3
28D0  29D4002C           const [63]: (738251817)
28D4  04                 const type 4
28D5  2A                 string size (42)
28D6  2F4C6F7475732F43+  "/Lotus/C"
28DE  6861726163746572+  "haracter"
28E6  732F506574732F57+  "s/Pets/W"
28EE  79726D2F5779726D+  "yrm/Wyrm"
28F6  5F736B656C2E6662+  "_skel.fb"
28FE  7800               "x\0"
                         const [64]: "/Lotus/Characters/Pets/Wyrm/Wyrm_skel.fbx"
2900  01                 const type 3
2901  BB3AA4CA           const [65]: (-895206725)
2905  01                 const type 3
2906  5720287C           const [66]: (2083004503)
290A  04                 const type 4
290B  05                 string size (5)
290C  6D65736800         "mesh\0"
                         const [67]: "mesh"
2911  04                 const type 4
2912  07                 string size (7)
2913  616E63686F7200     "anchor\0"
                         const [68]: "anchor"
291A  04                 const type 4
291B  06                 string size (6)
291C  7363616C6500       "scale\0"
                         const [69]: "scale"
2922  03                 const type 3
2923  00004041           const [70]: (0)
2927  04                 const type 4
2928  08                 string size (8)
2929  7374616C6B657200   "stalker\0"
                         const [71]: "stalker"
2931  04                 const type 4
2932  0C                 string size (12)
2933  5374616C6B65724D+  "StalkerM"
293B  6F646500           "ode\0"
                         const [72]: "StalkerMode"
293F  01                 const type 3
2940  01000000           const [73]: (1)
2944  04                 const type 4
2945  0C                 string size (12)
2946  54656D705374616C+  "TempStal"
294E  6B657200           "ker\0"
                         const [74]: "TempStalker"
2952  01                 const type 3
2953  65770E40           const [75]: (1074689893)
2957  04                 const type 4
2958  11                 string size (17)
2959  674D61746368696E+  "gMatchin"
2961  6753657276696365+  "gService"
2969  00                 "\0"
                         const [76]: "gMatchingService"
296A  01                 const type 3
296B  4636E0D5           const [77]: (-706726330)
296F  01                 const type 3
2970  1A7BEF21           const [78]: (569342746)
2974  01                 const type 3
2975  92104F65           const [79]: (1699680402)
2979  01                 const type 3
297A  E87D9F01           const [80]: (27229672)
297E  01                 const type 3
297F  00000000           const [81]: (0)
2983  01                 const type 3
2984  52F33FC5           const [82]: (-985664686)
2988  01                 const type 3
2989  7AAE01CC           const [83]: (-872305030)
298D  01                 const type 3
298E  44DC9B32           const [84]: (849075268)
2992  04                 const type 4
2993  23                 string size (35)
2994  4C6F7475732E496E+  "Lotus.In"
299C  746572666163652E+  "terface."
29A4  4C6962732E44696F+  "Libs.Dio"
29AC  72616D614C6F6164+  "ramaLoad"
29B4  657200             "er\0"
                         const [85]: "Lotus.Interface.Libs.DioramaLoader"
29B7  01                 const type 3
29B8  2A2642C0           const [86]: (-1069406678)
29BC  01                 const type 3
29BD  A22217F8           const [87]: (-132701534)
29C1  01                 const type 3
29C2  6B25B193           const [88]: (-1817107093)
29C6  04                 const type 4
29C7  18                 string size (24)
29C8  4C6F6164696E6720+  "Loading "
29D0  70726F6772657373+  "progress"
29D8  206C6576656C2000   " level \0"
                         const [89]: "Loading progress level "
29E0  01                 const type 3
29E1  3C2E251B           const [90]: (455421500)
29E5  01                 const type 3
29E6  3701A989           const [91]: (-1985412809)
29EA  04                 const type 4
29EB  06                 string size (6)
29EC  636A736F6E00       "cjson\0"
                         const [92]: "cjson"
29F2  01                 const type 3
29F3  15832E8A           const [93]: (-1976663275)
29F7  04                 const type 4
29F8  08                 string size (8)
29F9  6C6F61646F757400   "loadout\0"
                         const [94]: "loadout"
2A01  01                 const type 3
2A02  C688F51B           const [95]: (469076166)
2A06  04                 const type 4
2A07  09                 string size (9)
2A08  5368697054797065+  "ShipType"
2A10  00                 "\0"
                         const [96]: "ShipType"
2A11  04                 const type 4
2A12  13                 string size (19)
2A13  5368697043757374+  "ShipCust"
2A1B  6F6D697A6174696F+  "omizatio"
2A23  6E7300             "ns\0"
                         const [97]: "ShipCustomizations"
2A26  04                 const type 4
2A27  10                 string size (16)
2A28  536B696E466C6176+  "SkinFlav"
2A30  6F75724974656D00   "ourItem\0"
                         const [98]: "SkinFlavourItem"
2A38  04                 const type 4
2A39  06                 string size (6)
2A3A  554953797300       "UISys\0"
                         const [99]: "UISys"
2A40  01                 const type 3
2A41  E0539B44           const [100]: (1151030240)
2A45  01                 const type 3
2A46  54C91566           const [101]: (1712703828)
2A4A  04                 const type 4
2A4B  11                 string size (17)
2A4C  536869704D657368+  "ShipMesh"
2A54  4F76657272696465+  "Override"
2A5C  00                 "\0"
                         const [102]: "ShipMeshOverride"
2A5D  01                 const type 3
2A5E  DDB60B0F           const [103]: (252425949)
2A62  04                 const type 4
2A63  0D                 string size (13)
2A64  6D53796E63417661+  "mSyncAva"
2A6C  7461727300         "tars\0"
                         const [104]: "mSyncAvatars"
2A71  01                 const type 3
2A72  5812E302           const [105]: (48435800)
2A76  01                 const type 3
2A77  CFC50E93           const [106]: (-1827748401)
2A7B  04                 const type 4
2A7C  07                 string size (7)
2A7D  506C6179657200     "Player\0"
                         const [107]: "Player"
2A84  04                 const type 4
2A85  12                 string size (18)
2A86  674261636B67726F+  "gBackgro"
2A8E  756E64526567696F+  "undRegio"
2A96  6E00               "n\0"
                         const [108]: "gBackgroundRegion"
2A98  04                 const type 4
2A99  05                 string size (5)
2A9A  5368697000         "Ship\0"
                         const [109]: "Ship"
2A9F  04                 const type 4
2AA0  07                 string size (7)
2AA1  4F726967696E00     "Origin\0"
                         const [110]: "Origin"
2AA8  01                 const type 3
2AA9  0125A76D           const [111]: (1839670529)
2AAD  04                 const type 4
2AAE  04                 string size (4)
2AAF  526F7400           "Rot\0"
                         const [112]: "Rot"
2AB3  01                 const type 3
2AB4  49783AF2           const [113]: (-231049143)
2AB8  04                 const type 4
2AB9  07                 string size (7)
2ABA  4F666673657400     "Offset\0"
                         const [114]: "Offset"
2AC1  01                 const type 3
2AC2  00971C22           const [115]: (572299008)
2AC6  04                 const type 4
2AC7  07                 string size (7)
2AC8  54687275737400     "Thrust\0"
                         const [116]: "Thrust"
2ACF  04                 const type 4
2AD0  08                 string size (8)
2AD1  56697369626C6500   "Visible\0"
                         const [117]: "Visible"
2AD9  04                 const type 4
2ADA  03                 string size (3)
2ADB  5F5400             "_T\0"
                         const [118]: "_T"
2ADE  04                 const type 4
2ADF  18                 string size (24)
2AE0  557365644C697365+  "UsedLise"
2AE8  74437573746F6D69+  "tCustomi"
2AF0  7A6174696F6E7300   "zations\0"
                         const [119]: "UsedLisetCustomizations"
2AF8  04                 const type 4
2AF9  07                 string size (7)
2AFA  4E6F726D616C00     "Normal\0"
                         const [120]: "Normal"
2B01  01                 const type 3
2B02  17DDCF0E           const [121]: (248503575)
2B06  04                 const type 4
2B07  0A                 string size (10)
2B08  4C6F7765724E616D+  "LowerNam"
2B10  6500               "e\0"
                         const [122]: "LowerName"
2B12  01                 const type 3
2B13  907AE152           const [123]: (1390508688)
2B17  04                 const type 4
2B18  06                 string size (6)
2B19  5F726F6F7400       "_root\0"
                         const [124]: "_root"
2B1F  04                 const type 4
2B20  15                 string size (21)
2B21  466C617368496E73+  "FlashIns"
2B29  74616E63655F4C49+  "tance_LI"
2B31  4E45415200         "NEAR\0"
                         const [125]: "FlashInstance_LINEAR"
2B36  03                 const type 3
2B37  0000003F           const [126]: (0)
2B3B  01                 const type 3
2B3C  E390F4E7           const [127]: (-403402525)
2B40  04                 const type 4
2B41  07                 string size (7)
2B42  42616E6E657200     "Banner\0"
                         const [128]: "Banner"
2B49  04                 const type 4
2B4A  0C                 string size (12)
2B4B  626F6F7454657874+  "bootText"
2B53  75726500           "ure\0"
                         const [129]: "bootTexture"
2B57  04                 const type 4
2B58  0F                 string size (15)
2B59  62616E6E65724D61+  "bannerMa"
2B61  74657269616C00     "terial\0"
                         const [130]: "bannerMaterial"
2B68  04                 const type 4
2B69  0C                 string size (12)
2B6A  5469702E436F6E74+  "Tip.Cont"
2B72  656E7400           "ent\0"
                         const [131]: "Tip.Content"
2B76  04                 const type 4
2B77  0B                 string size (11)
2B78  5469702E41757468+  "Tip.Auth"
2B80  6F7200             "or\0"
                         const [132]: "Tip.Author"
2B83  04                 const type 4
2B84  10                 string size (16)
2B85  6750726F6D6F7465+  "gPromote"
2B8D  64546F486F737400   "dToHost\0"
                         const [133]: "gPromotedToHost"
2B95  01                 const type 3
2B96  8F8E0217           const [134]: (386043535)
2B9A  04                 const type 4
2B9B  14                 string size (20)
2B9C  47656E657269634D+  "GenericM"
2BA4  6573736167652E74+  "essage.t"
2BAC  65787400           "ext\0"
                         const [135]: "GenericMessage.text"
2BB0  04                 const type 4
2BB1  2A                 string size (42)
2BB2  2F4D756C7469706C+  "/Multipl"
2BBA  617965722F486F73+  "ayer/Hos"
2BC2  744D696772617469+  "tMigrati"
2BCA  6F6E5F4A6F696E69+  "on_Joini"
2BD2  6E6753657373696F+  "ngSessio"
2BDA  6E00               "n\0"
                         const [136]: "/Multiplayer/HostMigration_JoiningSession"
2BDC  04                 const type 4
2BDD  0E                 string size (14)
2BDE  6D6170536F756E64+  "mapSound"
2BE6  4D7573696300       "Music\0"
                         const [137]: "mapSoundMusic"
2BEC  04                 const type 4
2BED  0D                 string size (13)
2BEE  4D6170536F756E64+  "MapSound"
2BF6  496E737400         "Inst\0"
                         const [138]: "MapSoundInst"
2BFB  01                 const type 3
2BFC  94239925           const [139]: (630793108)
2C00  04                 const type 4
2C01  0B                 string size (11)
2C02  426F6F74476C6974+  "BootGlit"
2C0A  636800             "ch\0"
                         const [140]: "BootGlitch"
2C0D  04                 const type 4
2C0E  05                 string size (5)
2C0F  6D61746800         "math\0"
                         const [141]: "math"
2C14  01                 const type 3
2C15  F7615986           const [142]: (-2040962569)
2C19  03                 const type 3
2C1A  6F12833A           const [143]: (111)
2C1E  01                 const type 3
2C1F  86F34F02           const [144]: (38794118)
2C23  04                 const type 4
2C24  0C                 string size (12)
2C25  68696464656E4D6F+  "hiddenMo"
2C2D  76696500           "vie\0"
                         const [145]: "hiddenMovie"
                         * functions:
2C31  01                 sizep (1)
                         
2C32                     ** function [0] definition (level 3)
                         ** start of function **
2C32  00                 string size (0)
                         source name: (none)
2C34  03                 line defined (478)
2C35  E0                 last line defined (480)
2C36  03                 nups (0)
2C37  00                 numparams (1)
2C38  01                 is_vararg (0)
2C39  00                 maxstacksize (4)
                         * code:
2C3B  05                 sizecode (5)
2C3C  5D000000           [1] getglobal  1   0        ; mMovie
2C40  6440C000           [2] self       1   1   257  ; -403402525
2C44  CD000081           [3] sub        3   258 0    ; 0
2C48  62408001           [4] call       1   3   1  
2C4C  1E008000           [5] return     0   1      
                         * constants:
2C50  03                 sizek (3)
2C51  04                 const type 4
2C52  07                 string size (7)
2C53  6D4D6F76696500     "mMovie\0"
                         const [0]: "mMovie"
2C5A  01                 const type 3
2C5B  E390F4E7           const [1]: (-403402525)
2C5F  03                 const type 3
2C60  0000803F           const [2]: (0)
                         * functions:
2C64  00                 sizep (0)
                         * lines:
2C65  05                 sizelineinfo (5)
                         [pc] (line)
2C66  DF                 [1] (-33)
2C67  01                 [2] (-33)
2C68  00                 [3] (-33)
2C69  00                 [4] (-33)
2C6A  DF                 [5] (-32)
                         * locals:
2C7A  00                 sizelocvars (0)
                         * upvalues:
2C7B  00                 sizeupvalues (0)
                         ** end of function **

                         * lines:
2C7D  05                 sizelineinfo (660)
                         [pc] (line)
2C7E  36                 [001] (54)
2C7F  01                 [002] (54)
2C80  00                 [003] (54)
2C81  00                 [004] (54)
2C82  36                 [005] (55)
2C83  01                 [006] (55)
2C84  00                 [007] (55)
2C85  00                 [008] (58)
2C86  36                 [009] (58)
2C87  01                 [010] (60)
2C88  00                 [011] (60)
2C89  00                 [012] (62)
2C8A  36                 [013] (62)
2C8B  01                 [014] (62)
2C8C  00                 [015] (62)
2C8D  00                 [016] (62)
2C8E  37                 [017] (63)
2C8F  01                 [018] (63)
2C90  00                 [019] (63)
2C91  00                 [020] (63)
2C92  37                 [021] (63)
2C93  01                 [022] (63)
2C94  00                 [023] (63)
2C95  00                 [024] (63)
2C96  37                 [025] (63)
2C97  01                 [026] (63)
2C98  00                 [027] (63)
2C99  00                 [028] (64)
2C9A  3A                 [029] (64)
2C9B  01                 [030] (64)
2C9C  00                 [031] (64)
2C9D  00                 [032] (64)
2C9E  3A                 [033] (64)
2C9F  01                 [034] (64)
2CA0  00                 [035] (64)
2CA1  00                 [036] (64)
2CA2  3C                 [037] (64)
2CA3  01                 [038] (64)
2CA4  00                 [039] (65)
2CA5  00                 [040] (65)
2CA6  3C                 [041] (65)
2CA7  01                 [042] (65)
2CA8  00                 [043] (65)
2CA9  00                 [044] (65)
2CAA  3E                 [045] (65)
2CAB  01                 [046] (65)
2CAC  00                 [047] (65)
2CAD  00                 [048] (65)
2CAE  3E                 [049] (65)
2CAF  01                 [050] (66)
2CB0  00                 [051] (66)
2CB1  00                 [052] (66)
2CB2  3E                 [053] (66)
2CB3  01                 [054] (66)
2CB4  00                 [055] (66)
2CB5  00                 [056] (66)
2CB6  3E                 [057] (66)
2CB7  01                 [058] (66)
2CB8  00                 [059] (68)
2CB9  00                 [060] (68)
2CBA  3E                 [061] (68)
2CBB  01                 [062] (68)
2CBC  00                 [063] (68)
2CBD  00                 [064] (68)
2CBE  3F                 [065] (70)
2CBF  01                 [066] (70)
2CC0  00                 [067] (72)
2CC1  00                 [068] (74)
2CC2  3F                 [069] (74)
2CC3  01                 [070] (75)
2CC4  00                 [071] (75)
2CC5  00                 [072] (75)
2CC6  3F                 [073] (77)
2CC7  01                 [074] (77)
2CC8  00                 [075] (78)
2CC9  00                 [076] (78)
2CCA  3F                 [077] (79)
2CCB  01                 [078] (79)
2CCC  00                 [079] (80)
2CCD  00                 [080] (80)
2CCE  3F                 [081] (82)
2CCF  01                 [082] (85)
2CD0  00                 [083] (85)
2CD1  00                 [084] (85)
2CD2  3F                 [085] (85)
2CD3  01                 [086] (85)
2CD4  00                 [087] (86)
2CD5  00                 [088] (86)
2CD6  3F                 [089] (86)
2CD7  01                 [090] (86)
2CD8  00                 [091] (87)
2CD9  00                 [092] (87)
2CDA  3F                 [093] (88)
2CDB  01                 [094] (88)
2CDC  00                 [095] (88)
2CDD  00                 [096] (88)
2CDE  3F                 [097] (88)
2CDF  01                 [098] (88)
2CE0  00                 [099] (88)
2CE1  00                 [100] (86)
2CE2  3F                 [101] (89)
2CE3  01                 [102] (92)
2CE4  00                 [103] (92)
2CE5  00                 [104] (92)
2CE6  3F                 [105] (92)
2CE7  01                 [106] (92)
2CE8  00                 [107] (92)
2CE9  00                 [108] (94)
2CEA  40                 [109] (94)
2CEB  01                 [110] (94)
2CEC  00                 [111] (94)
2CED  00                 [112] (94)
2CEE  40                 [113] (95)
2CEF  01                 [114] (95)
2CF0  00                 [115] (95)
2CF1  00                 [116] (95)
2CF2  40                 [117] (95)
2CF3  01                 [118] (95)
2CF4  00                 [119] (95)
2CF5  00                 [120] (95)
2CF6  40                 [121] (95)
2CF7  01                 [122] (96)
2CF8  00                 [123] (96)
2CF9  00                 [124] (96)
2CFA  40                 [125] (96)
2CFB  01                 [126] (96)
2CFC  00                 [127] (96)
2CFD  00                 [128] (96)
2CFE  40                 [129] (96)
2CFF  01                 [130] (97)
2D00  00                 [131] (97)
2D01  00                 [132] (97)
2D02  40                 [133] (97)
2D03  01                 [134] (97)
2D04  00                 [135] (97)
2D05  00                 [136] (97)
2D06  40                 [137] (97)
2D07  01                 [138] (98)
2D08  00                 [139] (98)
2D09  00                 [140] (98)
2D0A  40                 [141] (98)
2D0B  01                 [142] (98)
2D0C  00                 [143] (98)
2D0D  00                 [144] (98)
2D0E  40                 [145] (98)
2D0F  01                 [146] (98)
2D10  00                 [147] (99)
2D11  00                 [148] (99)
2D12  40                 [149] (99)
2D13  01                 [150] (99)
2D14  00                 [151] (99)
2D15  00                 [152] (99)
2D16  41                 [153] (99)
2D17  01                 [154] (99)
2D18  00                 [155] (99)
2D19  00                 [156] (101)
2D1A  41                 [157] (101)
2D1B  01                 [158] (101)
2D1C  00                 [159] (101)
2D1D  00                 [160] (101)
2D1E  41                 [161] (101)
2D1F  01                 [162] (101)
2D20  00                 [163] (101)
2D21  00                 [164] (102)
2D22  41                 [165] (102)
2D23  01                 [166] (102)
2D24  00                 [167] (102)
2D25  00                 [168] (102)
2D26  41                 [169] (102)
2D27  01                 [170] (102)
2D28  00                 [171] (102)
2D29  00                 [172] (102)
2D2A  41                 [173] (102)
2D2B  01                 [174] (102)
2D2C  00                 [175] (102)
2D2D  00                 [176] (94)
2D2E  41                 [177] (105)
2D2F  01                 [178] (105)
2D30  00                 [179] (105)
2D31  00                 [180] (106)
2D32  41                 [181] (106)
2D33  01                 [182] (106)
2D34  00                 [183] (106)
2D35  00                 [184] (106)
2D36  41                 [185] (106)
2D37  01                 [186] (106)
2D38  00                 [187] (106)
2D39  00                 [188] (106)
2D3A  41                 [189] (106)
2D3B  01                 [190] (106)
2D3C  00                 [191] (106)
2D3D  00                 [192] (106)
2D3E  41                 [193] (106)
2D3F  01                 [194] (106)
2D40  00                 [195] (106)
2D41  00                 [196] (106)
2D42  42                 [197] (106)
2D43  01                 [198] (106)
2D44  00                 [199] (106)
2D45  00                 [200] (106)
2D46  42                 [201] (109)
2D47  01                 [202] (110)
2D48  00                 [203] (110)
2D49  00                 [204] (110)
2D4A  42                 [205] (111)
2D4B  01                 [206] (111)
2D4C  00                 [207] (113)
2D4D  00                 [208] (113)
2D4E  42                 [209] (114)
2D4F  01                 [210] (114)
2D50  00                 [211] (115)
2D51  00                 [212] (115)
2D52  42                 [213] (116)
2D53  01                 [214] (116)
2D54  00                 [215] (116)
2D55  00                 [216] (117)
2D56  42                 [217] (117)
2D57  01                 [218] (117)
2D58  00                 [219] (118)
2D59  00                 [220] (118)
2D5A  42                 [221] (118)
2D5B  01                 [222] (119)
2D5C  00                 [223] (119)
2D5D  00                 [224] (119)
2D5E  42                 [225] (119)
2D5F  01                 [226] (119)
2D60  00                 [227] (119)
2D61  00                 [228] (120)
2D62  42                 [229] (120)
2D63  01                 [230] (121)
2D64  00                 [231] (121)
2D65  00                 [232] (122)
2D66  44                 [233] (122)
2D67  01                 [234] (122)
2D68  00                 [235] (125)
2D69  00                 [236] (125)
2D6A  44                 [237] (-127)
2D6B  01                 [238] (-127)
2D6C  00                 [239] (-127)
2D6D  00                 [240] (-127)
2D6E  44                 [241] (-127)
2D6F  01                 [242] (-127)
2D70  00                 [243] (-127)
2D71  00                 [244] (-127)
2D72  44                 [245] (-127)
2D73  01                 [246] (-127)
2D74  00                 [247] (-127)
2D75  00                 [248] (-126)
2D76  44                 [249] (-126)
2D77  01                 [250] (-126)
2D78  00                 [251] (-126)
2D79  00                 [252] (-126)
2D7A  44                 [253] (-126)
2D7B  01                 [254] (-126)
2D7C  00                 [255] (-126)
2D7D  00                 [256] (-125)
2D7E  46                 [257] (-125)
2D7F  01                 [258] (-125)
2D80  00                 [259] (-125)
2D81  00                 [260] (-125)
2D82  46                 [261] (-125)
2D83  01                 [262] (-125)
2D84  00                 [263] (-125)
2D85  00                 [264] (-125)
2D86  48                 [265] (-123)
2D87  01                 [266] (-123)
2D88  00                 [267] (-122)
2D89  00                 [268] (-122)
2D8A  4A                 [269] (-119)
2D8B  01                 [270] (-119)
2D8C  00                 [271] (-119)
2D8D  00                 [272] (-119)
2D8E  4A                 [273] (-118)
2D8F  01                 [274] (-118)
2D90  00                 [275] (-117)
2D91  00                 [276] (-117)
2D92  4B                 [277] (-117)
2D93  01                 [278] (-117)
2D94  00                 [279] (-117)
2D95  00                 [280] (-115)
2D96  4B                 [281] (-114)
2D97  01                 [282] (-114)
2D98  00                 [283] (-114)
2D99  00                 [284] (-114)
2D9A  4B                 [285] (-114)
2D9B  01                 [286] (-114)
2D9C  00                 [287] (-113)
2D9D  00                 [288] (-113)
2D9E  4D                 [289] (-113)
2D9F  01                 [290] (-113)
2DA0  00                 [291] (-113)
2DA1  00                 [292] (-113)
2DA2  4D                 [293] (-109)
2DA3  01                 [294] (-109)
2DA4  00                 [295] (-109)
2DA5  00                 [296] (-109)
2DA6  4E                 [297] (-109)
2DA7  01                 [298] (-109)
2DA8  00                 [299] (-109)
2DA9  00                 [300] (-109)
2DAA  4E                 [301] (-109)
2DAB  01                 [302] (-109)
2DAC  00                 [303] (-109)
2DAD  00                 [304] (-106)
2DAE  4F                 [305] (-106)
2DAF  01                 [306] (-106)
2DB0  00                 [307] (-106)
2DB1  00                 [308] (-106)
2DB2  4F                 [309] (-106)
2DB3  01                 [310] (-103)
2DB4  00                 [311] (-103)
2DB5  00                 [312] (-103)
2DB6  50                 [313] (-102)
2DB7  01                 [314] (-102)
2DB8  00                 [315] (-102)
2DB9  00                 [316] (-101)
2DBA  50                 [317] (-101)
2DBB  01                 [318] (-101)
2DBC  00                 [319] (-101)
2DBD  00                 [320] (-99)
2DBE  52                 [321] (-99)
2DBF  01                 [322] (-99)
2DC0  00                 [323] (-99)
2DC1  00                 [324] (-99)
2DC2  55                 [325] (-99)
2DC3  01                 [326] (-99)
2DC4  00                 [327] (-99)
2DC5  00                 [328] (-99)
2DC6  55                 [329] (-94)
2DC7  01                 [330] (-94)
2DC8  00                 [331] (-94)
2DC9  00                 [332] (-94)
2DCA  55                 [333] (-94)
2DCB  01                 [334] (-93)
2DCC  00                 [335] (-93)
2DCD  00                 [336] (-93)
2DCE  55                 [337] (-93)
2DCF  01                 [338] (-93)
2DD0  00                 [339] (-93)
2DD1  00                 [340] (-91)
2DD2  55                 [341] (-91)
2DD3  01                 [342] (-91)
2DD4  00                 [343] (-91)
2DD5  00                 [344] (-90)
2DD6  56                 [345] (-90)
2DD7  01                 [346] (-90)
2DD8  00                 [347] (-90)
2DD9  00                 [348] (-90)
2DDA  56                 [349] (-89)
2DDB  01                 [350] (-89)
2DDC  00                 [351] (-89)
2DDD  00                 [352] (-88)
2DDE  56                 [353] (-88)
2DDF  01                 [354] (-88)
2DE0  00                 [355] (-88)
2DE1  00                 [356] (-87)
2DE2  56                 [357] (-87)
2DE3  01                 [358] (-87)
2DE4  00                 [359] (-87)
2DE5  00                 [360] (-87)
2DE6  57                 [361] (-86)
2DE7  01                 [362] (-86)
2DE8  00                 [363] (-86)
2DE9  00                 [364] (-85)
2DEA  57                 [365] (-85)
2DEB  01                 [366] (-85)
2DEC  00                 [367] (-85)
2DED  00                 [368] (-85)
2DEE  58                 [369] (-85)
2DEF  01                 [370] (-85)
2DF0  00                 [371] (-85)
2DF1  00                 [372] (-85)
2DF2  58                 [373] (-85)
2DF3  01                 [374] (-85)
2DF4  00                 [375] (-84)
2DF5  00                 [376] (-84)
2DF6  58                 [377] (-84)
2DF7  01                 [378] (-83)
2DF8  00                 [379] (-83)
2DF9  00                 [380] (-83)
2DFA  58                 [381] (-83)
2DFB  01                 [382] (-83)
2DFC  00                 [383] (-82)
2DFD  00                 [384] (-82)
2DFE  58                 [385] (-82)
2DFF  01                 [386] (-82)
2E00  00                 [387] (-82)
2E01  00                 [388] (-80)
2E02  58                 [389] (-80)
2E03  01                 [390] (-80)
2E04  00                 [391] (-80)
2E05  00                 [392] (-76)
2E06  58                 [393] (-76)
2E07  01                 [394] (-76)
2E08  00                 [395] (-76)
2E09  00                 [396] (-76)
2E0A  56                 [397] (-75)
2E0B  01                 [398] (-75)
2E0C  00                 [399] (-75)
2E0D  00                 [400] (-75)
2E0E  59                 [401] (-75)
2E0F  01                 [402] (-75)
2E10  00                 [403] (-75)
2E11  00                 [404] (-74)
2E12  5C                 [405] (-74)
2E13  01                 [406] (-74)
2E14  00                 [407] (-74)
2E15  00                 [408] (-73)
2E16  5C                 [409] (-73)
2E17  01                 [410] (-73)
2E18  00                 [411] (-73)
2E19  00                 [412] (-73)
2E1A  5C                 [413] (-72)
2E1B  01                 [414] (-72)
2E1C  00                 [415] (-72)
2E1D  00                 [416] (-72)
2E1E  5C                 [417] (-72)
2E1F  01                 [418] (-71)
2E20  00                 [419] (-71)
2E21  00                 [420] (-71)
2E22  5C                 [421] (-71)
2E23  01                 [422] (-71)
2E24  00                 [423] (-88)
2E25  00                 [424] (-64)
2E26  5C                 [425] (-64)
2E27  01                 [426] (-64)
2E28  00                 [427] (-64)
2E29  00                 [428] (-64)
2E2A  5E                 [429] (-63)
2E2B  01                 [430] (-63)
2E2C  00                 [431] (-63)
2E2D  00                 [432] (-60)
2E2E  5E                 [433] (-60)
2E2F  01                 [434] (-57)
2E30  00                 [435] (-57)
2E31  00                 [436] (-57)
2E32  5E                 [437] (-57)
2E33  01                 [438] (-56)
2E34  00                 [439] (-56)
2E35  00                 [440] (-54)
2E36  5E                 [441] (-54)
2E37  01                 [442] (-54)
2E38  00                 [443] (-52)
2E39  00                 [444] (-52)
2E3A  5E                 [445] (-52)
2E3B  01                 [446] (-52)
2E3C  00                 [447] (-51)
2E3D  00                 [448] (-51)
2E3E  5F                 [449] (-51)
2E3F  01                 [450] (-51)
2E40  00                 [451] (-51)
2E41  00                 [452] (-51)
2E42  5F                 [453] (-50)
2E43  01                 [454] (-50)
2E44  00                 [455] (-50)
2E45  00                 [456] (-50)
2E46  5F                 [457] (-50)
2E47  01                 [458] (-50)
2E48  00                 [459] (-50)
2E49  00                 [460] (-49)
2E4A  5F                 [461] (-49)
2E4B  01                 [462] (-49)
2E4C  00                 [463] (-49)
2E4D  00                 [464] (-49)
2E4E  5F                 [465] (-48)
2E4F  01                 [466] (-48)
2E50  00                 [467] (-48)
2E51  00                 [468] (-48)
2E52  5F                 [469] (-48)
2E53  01                 [470] (-48)
2E54  00                 [471] (-48)
2E55  00                 [472] (-48)
2E56  5F                 [473] (-48)
2E57  01                 [474] (-48)
2E58  00                 [475] (-48)
2E59  00                 [476] (-48)
2E5A  5F                 [477] (-48)
2E5B  01                 [478] (-48)
2E5C  00                 [479] (-48)
2E5D  00                 [480] (-48)
2E5E  5F                 [481] (-48)
2E5F  01                 [482] (-46)
2E60  00                 [483] (-46)
2E61  00                 [484] (-46)
2E62  60                 [485] (-46)
2E63  01                 [486] (-46)
2E64  00                 [487] (-46)
2E65  00                 [488] (-46)
2E66  60                 [489] (-46)
2E67  01                 [490] (-46)
2E68  00                 [491] (-45)
2E69  00                 [492] (-45)
2E6A  60                 [493] (-45)
2E6B  01                 [494] (-44)
2E6C  00                 [495] (-44)
2E6D  00                 [496] (-44)
2E6E  60                 [497] (-44)
2E6F  01                 [498] (-44)
2E70  00                 [499] (-44)
2E71  00                 [500] (-43)
2E72  60                 [501] (-43)
2E73  01                 [502] (-42)
2E74  00                 [503] (-42)
2E75  00                 [504] (-42)
2E76  60                 [505] (-44)
2E77  01                 [506] (-41)
2E78  00                 [507] (-52)
2E79  00                 [508] (-32)
2E7A  60                 [509] (-31)
2E7B  01                 [510] (-31)
2E7C  00                 [511] (-31)
2E7D  00                 [512] (-31)
2E7E  60                 [513] (-31)
2E7F  01                 [514] (-31)
2E80  00                 [515] (-31)
2E81  00                 [516] (-31)
2E82  61                 [517] (-31)
2E83  01                 [518] (-31)
2E84  00                 [519] (-31)
2E85  00                 [520] (-31)
2E86  61                 [521] (-31)
2E87  01                 [522] (-31)
2E88  00                 [523] (-29)
2E89  00                 [524] (-29)
2E8A  61                 [525] (-29)
2E8B  01                 [526] (-29)
2E8C  00                 [527] (-28)
2E8D  00                 [528] (-28)
2E8E  61                 [529] (-28)
2E8F  01                 [530] (-28)
2E90  00                 [531] (-28)
2E91  00                 [532] (-28)
2E92  61                 [533] (-28)
2E93  01                 [534] (-27)
2E94  00                 [535] (-27)
2E95  00                 [536] (-27)
2E96  61                 [537] (-27)
2E97  01                 [538] (-27)
2E98  00                 [539] (-27)
2E99  00                 [540] (-27)
2E9A  61                 [541] (-27)
2E9B  01                 [542] (-26)
2E9C  00                 [543] (-26)
2E9D  00                 [544] (-26)
2E9E  61                 [545] (-26)
2E9F  01                 [546] (-26)
2EA0  00                 [547] (-26)
2EA1  00                 [548] (-26)
2EA2  62                 [549] (-25)
2EA3  01                 [550] (-25)
2EA4  00                 [551] (-25)
2EA5  00                 [552] (-25)
2EA6  62                 [553] (-24)
2EA7  01                 [554] (-24)
2EA8  00                 [555] (-24)
2EA9  00                 [556] (-24)
2EAA  62                 [557] (-24)
2EAB  01                 [558] (-24)
2EAC  00                 [559] (-24)
2EAD  00                 [560] (-23)
2EAE  62                 [561] (-23)
2EAF  01                 [562] (-23)
2EB0  00                 [563] (-23)
2EB1  00                 [564] (-23)
2EB2  62                 [565] (-22)
2EB3  01                 [566] (-22)
2EB4  00                 [567] (-22)
2EB5  00                 [568] (-22)
2EB6  62                 [569] (-21)
2EB7  01                 [570] (-21)
2EB8  00                 [571] (-21)
2EB9  00                 [572] (-21)
2EBA  62                 [573] (-21)
2EBB  01                 [574] (-21)
2EBC  00                 [575] (-19)
2EBD  00                 [576] (-19)
2EBE  62                 [577] (-16)
2EBF  01                 [578] (-16)
2EC0  00                 [579] (-16)
2EC1  00                 [580] (-16)
2EC2  62                 [581] (-16)
2EC3  01                 [582] (-16)
2EC4  00                 [583] (-15)
2EC5  00                 [584] (-15)
2EC6  63                 [585] (-15)
2EC7  01                 [586] (-15)
2EC8  00                 [587] (-15)
2EC9  00                 [588] (-15)
2ECA  63                 [589] (-13)
2ECB  01                 [590] (-13)
2ECC  00                 [591] (-13)
2ECD  00                 [592] (-12)
2ECE  63                 [593] (-12)
2ECF  01                 [594] (-12)
2ED0  00                 [595] (-12)
2ED1  00                 [596] (-12)
2ED2  63                 [597] (-11)
2ED3  01                 [598] (-8)
2ED4  00                 [599] (-8)
2ED5  00                 [600] (-8)
2ED6  63                 [601] (-8)
2ED7  01                 [602] (-6)
2ED8  00                 [603] (-6)
2ED9  00                 [604] (-6)
2EDA  63                 [605] (-6)
2EDB  01                 [606] (-6)
2EDC  00                 [607] (-6)
2EDD  00                 [608] (-6)
2EDE  63                 [609] (-5)
2EDF  01                 [610] (-2)
2EE0  00                 [611] (-2)
2EE1  00                 [612] (-2)
2EE2  63                 [613] (-2)
2EE3  01                 [614] (-1)
2EE4  00                 [615] (-1)
2EE5  00                 [616] (-1)
2EE6  63                 [617] (-1)
2EE7  01                 [618] (-1)
2EE8  00                 [619] (-1)
2EE9  00                 [620] (-1)
2EEA  65                 [621] (-1)
2EEB  01                 [622] (-1)
2EEC  00                 [623] (-1)
2EED  00                 [624] (-1)
2EEE  65                 [625] (0)
2EEF  01                 [626] (0)
2EF0  00                 [627] (0)
2EF1  00                 [628] (0)
2EF2  65                 [629] (0)
2EF3  01                 [630] (0)
2EF4  00                 [631] (4)
2EF5  00                 [632] (5)
2EF6  65                 [633] (5)
2EF7  01                 [634] (5)
2EF8  00                 [635] (5)
2EF9  00                 [636] (5)
2EFA  65                 [637] (5)
2EFB  01                 [638] (5)
2EFC  00                 [639] (5)
2EFD  00                 [640] (5)
2EFE  65                 [641] (5)
2EFF  01                 [642] (5)
2F00  00                 [643] (5)
2F01  00                 [644] (5)
2F02  65                 [645] (5)
2F03  01                 [646] (5)
2F04  00                 [647] (5)
2F05  00                 [648] (5)
2F06  65                 [649] (5)
2F07  01                 [650] (5)
2F08  00                 [651] (5)
2F09  00                 [652] (6)
2F0A  66                 [653] (6)
2F0B  01                 [654] (6)
2F0C  00                 [655] (6)
2F0D  00                 [656] (7)
2F0E  66                 [657] (7)
2F0F  01                 [658] (10)
2F10  00                 [659] (10)
2F11  00                 [660] (11)
                         * locals:
36CE  00                 sizelocvars (0)
                         * upvalues:
36CF  00                 sizeupvalues (0)
                         ** end of function **

                         
36D0                     ** function [10] definition (level 2)
                         ** start of function **
36D0  00                 string size (0)
                         source name: (none)
36D2  04                 line defined (525)
36D3  9E                 last line defined (542)
36D4  04                 nups (2)
36D5  02                 numparams (0)
36D6  00                 is_vararg (0)
36D7  00                 maxstacksize (9)
                         * code:
36D9  26                 sizecode (38)
fail op	8
36DA  08000000           [01] setupval   0   0      
36DE  1D000000           [02] getglobal  0   0        ; _G
36E2  4B000000           [03] newtable   1   0   0    ; array=0, hash=0
36E6  0C408080           [04] settable   0   257 1    ; "gLoadedShipSkinsFromDiorama"
36EA  13008000           [05] getupval   0   1      
36EE  18000000           [06] test       0       0    ; to [8] if true
36F2  1AC00080           [07] jmp        4            ; to [12]
36F6  13008000           [08] getupval   0   1      
36FA  24804000           [09] self       0   0   258  ; 252425949
36FE  86000001           [10] loadnil    2   2      
3702  22408001           [11] call       0   3   1  
3706  1DC00000           [12] getglobal  0   3        ; 1074689893
370A  5D000100           [13] getglobal  1   4        ; gRegion
370E  22800001           [14] call       0   2   2  
3712  18400000           [15] test       0       1    ; to [17] if false
3716  1A000480           [16] jmp        17           ; to [34]
371A  1D000100           [17] getglobal  0   4        ; gRegion
371E  24404100           [18] self       0   0   261  ; -23616965
3722  22800001           [19] call       0   2   2  
3726  5DC00000           [20] getglobal  1   3        ; 1074689893
372A  92000000           [21] move       2   0      
372E  62800001           [22] call       1   2   2  
3732  58400000           [23] test       1       1    ; to [25] if false
3736  1A000280           [24] jmp        9            ; to [34]
373A  59800100           [25] loadk      1   6        ; 0
373E  8A000000           [26] len        2   0      
3742  D9800100           [27] loadk      3   6        ; 0
3746  50C00080           [28] forprep    1   4        ; to [33]
374A  4E010100           [29] gettable   5   0   4  
374E  A4C1C102           [30] self       6   5   263  ; -487914330
3752  17028000           [31] loadbool   8   1   0    ; true
3756  A2418001           [32] call       6   3   1  
375A  5480FE7F           [33] forloop    1   -5       ; to [29] if loop
375E  9D010200           [34] getglobal  6   8        ; _T
3762  8C81C284           [35] settable   6   265 266  ; "LoadingScreenTransOut" nil
3766  9D010000           [36] getglobal  6   0        ; _G
376A  8C01C385           [37] settable   6   267 268  ; "DisableLoadingDiorama" 0
376E  1E008000           [38] return     0   1      
                         * constants:
3772  0D                 sizek (13)
3773  04                 const type 4
3774  03                 string size (3)
3775  5F4700             "_G\0"
                         const [0]: "_G"
3778  04                 const type 4
3779  1C                 string size (28)
377A  674C6F6164656453+  "gLoadedS"
3782  686970536B696E73+  "hipSkins"
378A  46726F6D44696F72+  "FromDior"
3792  616D6100           "ama\0"
                         const [1]: "gLoadedShipSkinsFromDiorama"
3796  01                 const type 3
3797  DDB60B0F           const [2]: (252425949)
379B  01                 const type 3
379C  65770E40           const [3]: (1074689893)
37A0  04                 const type 4
37A1  08                 string size (8)
37A2  67526567696F6E00   "gRegion\0"
                         const [4]: "gRegion"
37AA  01                 const type 3
37AB  3BA297FE           const [5]: (-23616965)
37AF  03                 const type 3
37B0  0000803F           const [6]: (0)
37B4  01                 const type 3
37B5  A604EBE2           const [7]: (-487914330)
37B9  04                 const type 4
37BA  03                 string size (3)
37BB  5F5400             "_T\0"
                         const [8]: "_T"
37BE  04                 const type 4
37BF  16                 string size (22)
37C0  4C6F6164696E6753+  "LoadingS"
37C8  637265656E547261+  "creenTra"
37D0  6E734F757400       "nsOut\0"
                         const [9]: "LoadingScreenTransOut"
37D6  00                 const type 0
                         const [10]: nil
37D7  04                 const type 4
37D8  16                 string size (22)
37D9  44697361626C654C+  "DisableL"
37E1  6F6164696E674469+  "oadingDi"
37E9  6F72616D6100       "orama\0"
                         const [11]: "DisableLoadingDiorama"
37EF  01                 const type 3
37F0  00000000           const [12]: (0)
                         * functions:
37F4  00                 sizep (0)
                         * lines:
37F5  26                 sizelineinfo (38)
                         [pc] (line)
37F6  0E                 [01] (14)
37F7  02                 [02] (15)
37F8  00                 [03] (15)
37F9  00                 [04] (15)
37FA  0F                 [05] (16)
37FB  02                 [06] (16)
37FC  00                 [07] (16)
37FD  00                 [08] (17)
37FE  0F                 [09] (17)
37FF  02                 [10] (17)
3800  00                 [11] (17)
3801  00                 [12] (19)
3802  0F                 [13] (19)
3803  02                 [14] (19)
3804  00                 [15] (19)
3805  00                 [16] (19)
3806  10                 [17] (20)
3807  02                 [18] (20)
3808  00                 [19] (20)
3809  00                 [20] (21)
380A  10                 [21] (21)
380B  02                 [22] (21)
380C  00                 [23] (21)
380D  00                 [24] (21)
380E  10                 [25] (22)
380F  02                 [26] (22)
3810  00                 [27] (22)
3811  00                 [28] (22)
3812  11                 [29] (23)
3813  02                 [30] (24)
3814  00                 [31] (24)
3815  00                 [32] (24)
3816  11                 [33] (22)
3817  02                 [34] (28)
3818  00                 [35] (28)
3819  00                 [36] (29)
381A  11                 [37] (29)
381B  02                 [38] (30)
                         * locals:
388E  00                 sizelocvars (0)
                         * upvalues:
388F  00                 sizeupvalues (0)
                         ** end of function **

                         
3890                     ** function [11] definition (level 2)
                         ** start of function **
3890  00                 string size (0)
                         source name: (none)
3892  04                 line defined (546)
3893  C2                 last line defined (578)
3894  04                 nups (4)
3895  04                 numparams (3)
3896  03                 is_vararg (0)
3897  00                 maxstacksize (14)
                         * code:
3899  5D                 sizecode (93)
389A  DD000000           [01] getglobal  3   0        ; 1074689893
389E  1D410000           [02] getglobal  4   1        ; gBackgroundRegion
38A2  E2800001           [03] call       3   2   2  
38A6  D8400000           [04] test       3       1    ; to [6] if false
38AA  1A401380           [05] jmp        78           ; to [84]
38AE  D3000000           [06] getupval   3   0      
38B2  CE008001           [07] gettable   3   3   0  
fail op	35
38B6  2380C001           [08] close      0  
38BA  1A400480           [09] jmp        18           ; to [28]
38BE  DDC00000           [10] getglobal  3   3        ; -332969190
38C2  19010100           [11] loadk      4   4        ; "Player"
38C6  52010000           [12] move       5   0      
38CA  02410102           [13] concat     4   4   5  
38CE  E2800001           [14] call       3   2   2  
38D2  13010000           [15] getupval   4   0      
38D6  5D410000           [16] getglobal  5   1        ; gBackgroundRegion
38DA  6441C102           [17] self       5   5   261  ; -1485896174
38DE  D2018001           [18] move       7   3      
38E2  62818001           [19] call       5   3   2  
38E6  0C410100           [20] settable   4   0   5  
38EA  13010000           [21] getupval   4   0      
38EE  0E010002           [22] gettable   4   4   0  
fail op	35
38F2  23804002           [23] close      0  
38F6  1A800080           [24] jmp        3            ; to [28]
38FA  13010000           [25] getupval   4   0      
38FE  4B010000           [26] newtable   5   0   0    ; array=0, hash=0
3902  0C410100           [27] settable   4   0   5  
3906  13010000           [28] getupval   4   0      
390A  0E010002           [29] gettable   4   4   0  
390E  18010000           [30] test       4       0    ; to [32] if true
3912  1AC00C80           [31] jmp        52           ; to [84]
3916  4A010002           [32] len        5   4      
391A  99810100           [33] loadk      6   6        ; 0
391E  D9C10100           [34] loadk      7   7        ; 0
3922  50810B80           [35] forprep    5   47       ; to [83]
3926  5D020000           [36] getglobal  9   0        ; 1074689893
392A  8E020202           [37] gettable   10  4   8  
392E  62820001           [38] call       9   2   2  
3932  58020000           [39] test       9       0    ; to [41] if true
3936  1A400180           [40] jmp        6            ; to [47]
393A  5D020200           [41] getglobal  9   8        ; table
393E  4E42C204           [42] gettable   9   9   265  ; -843973282
3942  92020002           [43] move       10  4      
3946  D2020004           [44] move       11  8      
394A  62428001           [45] call       9   3   1  
394E  1AC00880           [46] jmp        36           ; to [83]
3952  4E020202           [47] gettable   9   4   8  
3956  6482C204           [48] self       9   9   266  ; 2109594123
395A  D2028000           [49] move       11  1      
395E  62428001           [50] call       9   3   1  
3962  98000000           [51] test       2       0    ; to [53] if true
3966  1A400780           [52] jmp        30           ; to [83]
396A  4E020202           [53] gettable   9   4   8  
396E  64C2C204           [54] self       9   9   267  ; -1957065004
3972  D3028000           [55] getupval   11  1      
3976  62828001           [56] call       9   3   2  
397A  58020000           [57] test       9       0    ; to [59] if true
397E  1AC00580           [58] jmp        24           ; to [83]
3982  5D020000           [59] getglobal  9   0        ; 1074689893
3986  93020001           [60] getupval   10  2      
398A  8E020005           [61] gettable   10  10  0  
398E  62820001           [62] call       9   2   2  
3992  58420000           [63] test       9       1    ; to [65] if false
3996  1A400480           [64] jmp        18           ; to [83]
399A  5D020000           [65] getglobal  9   0        ; 1074689893
399E  93020001           [66] getupval   10  2      
39A2  8E020005           [67] gettable   10  10  0  
39A6  8E024305           [68] gettable   10  10  268  ; "LowerName"
39AA  62820001           [69] call       9   2   2  
39AE  58420000           [70] test       9       1    ; to [72] if false
39B2  1A800280           [71] jmp        11           ; to [83]
39B6  53028001           [72] getupval   9   3      
39BA  4E42C304           [73] gettable   9   9   269  ; 551772386
39BE  8E020202           [74] gettable   10  4   8  
39C2  DD820300           [75] getglobal  11  14       ; EMPTY_SYMBOL
39C6  1DC30000           [76] getglobal  12  3        ; -332969190
39CA  59C30300           [77] loadk      13  15       ; "InFlight"
39CE  22830001           [78] call       12  2   2  
39D2  53030001           [79] getupval   13  2      
39D6  4E038006           [80] gettable   13  13  0  
39DA  4E03C306           [81] gettable   13  13  268  ; "LowerName"
39DE  62428002           [82] call       9   5   1  
39E2  54C1F37F           [83] forloop    5   -48      ; to [36] if loop
39E6  5D020000           [84] getglobal  9   0        ; 1074689893
39EA  93020001           [85] getupval   10  2      
39EE  8E020005           [86] gettable   10  10  0  
39F2  62820001           [87] call       9   2   2  
39F6  58420000           [88] test       9       1    ; to [90] if false
39FA  1A800080           [89] jmp        3            ; to [93]
39FE  53020001           [90] getupval   9   2      
3A02  4E028004           [91] gettable   9   9   0  
3A06  4C420088           [92] settable   9   272 1    ; "Visible"
3A0A  1E008000           [93] return     0   1      
                         * constants:
3A0E  11                 sizek (17)
3A0F  01                 const type 3
3A10  65770E40           const [0]: (1074689893)
3A14  04                 const type 4
3A15  12                 string size (18)
3A16  674261636B67726F+  "gBackgro"
3A1E  756E64526567696F+  "undRegio"
3A26  6E00               "n\0"
                         const [1]: "gBackgroundRegion"
3A28  00                 const type 0
                         const [2]: nil
3A29  01                 const type 3
3A2A  1A4B27EC           const [3]: (-332969190)
3A2E  04                 const type 4
3A2F  07                 string size (7)
3A30  506C6179657200     "Player\0"
                         const [4]: "Player"
3A37  01                 const type 3
3A38  12066FA7           const [5]: (-1485896174)
3A3C  03                 const type 3
3A3D  0000803F           const [6]: (0)
3A41  03                 const type 3
3A42  000080BF           const [7]: (0)
3A46  04                 const type 4
3A47  06                 string size (6)
3A48  7461626C6500       "table\0"
                         const [8]: "table"
3A4E  01                 const type 3
3A4F  5EFDB1CD           const [9]: (-843973282)
3A53  01                 const type 3
3A54  0BDABD7D           const [10]: (2109594123)
3A58  01                 const type 3
3A59  D48E598B           const [11]: (-1957065004)
3A5D  04                 const type 4
3A5E  0A                 string size (10)
3A5F  4C6F7765724E616D+  "LowerNam"
3A67  6500               "e\0"
                         const [12]: "LowerName"
3A69  01                 const type 3
3A6A  E260E320           const [13]: (551772386)
3A6E  04                 const type 4
3A6F  0D                 string size (13)
3A70  454D5054595F5359+  "EMPTY_SY"
3A78  4D424F4C00         "MBOL\0"
                         const [14]: "EMPTY_SYMBOL"
3A7D  04                 const type 4
3A7E  09                 string size (9)
3A7F  496E466C69676874+  "InFlight"
3A87  00                 "\0"
                         const [15]: "InFlight"
3A88  04                 const type 4
3A89  08                 string size (8)
3A8A  56697369626C6500   "Visible\0"
                         const [16]: "Visible"
                         * functions:
3A92  00                 sizep (0)
                         * lines:
3A93  5D                 sizelineinfo (93)
                         [pc] (line)
3A94  23                 [01] (35)
3A95  02                 [02] (35)
3A96  00                 [03] (35)
3A97  00                 [04] (35)
3A98  23                 [05] (35)
3A99  02                 [06] (37)
3A9A  00                 [07] (37)
3A9B  00                 [08] (37)
3A9C  23                 [09] (37)
3A9D  02                 [10] (38)
3A9E  00                 [11] (38)
3A9F  00                 [12] (38)
3AA0  23                 [13] (38)
3AA1  02                 [14] (38)
3AA2  00                 [15] (39)
3AA3  00                 [16] (39)
3AA4  23                 [17] (39)
3AA5  02                 [18] (39)
3AA6  00                 [19] (39)
3AA7  00                 [20] (39)
3AA8  25                 [21] (41)
3AA9  02                 [22] (41)
3AAA  00                 [23] (41)
3AAB  00                 [24] (41)
3AAC  25                 [25] (42)
3AAD  02                 [26] (42)
3AAE  00                 [27] (42)
3AAF  00                 [28] (46)
3AB0  25                 [29] (46)
3AB1  02                 [30] (47)
3AB2  00                 [31] (47)
3AB3  00                 [32] (48)
3AB4  25                 [33] (48)
3AB5  02                 [34] (48)
3AB6  00                 [35] (48)
3AB7  00                 [36] (49)
3AB8  26                 [37] (49)
3AB9  02                 [38] (49)
3ABA  00                 [39] (49)
3ABB  00                 [40] (49)
3ABC  26                 [41] (50)
3ABD  02                 [42] (50)
3ABE  00                 [43] (50)
3ABF  00                 [44] (50)
3AC0  26                 [45] (50)
3AC1  02                 [46] (50)
3AC2  00                 [47] (52)
3AC3  00                 [48] (52)
3AC4  26                 [49] (52)
3AC5  02                 [50] (52)
3AC6  00                 [51] (53)
3AC7  00                 [52] (53)
3AC8  26                 [53] (53)
3AC9  02                 [54] (53)
3ACA  00                 [55] (53)
3ACB  00                 [56] (53)
3ACC  27                 [57] (53)
3ACD  02                 [58] (53)
3ACE  00                 [59] (54)
3ACF  00                 [60] (54)
3AD0  27                 [61] (54)
3AD1  02                 [62] (54)
3AD2  00                 [63] (54)
3AD3  00                 [64] (54)
3AD4  27                 [65] (54)
3AD5  02                 [66] (54)
3AD6  00                 [67] (54)
3AD7  00                 [68] (54)
3AD8  27                 [69] (54)
3AD9  02                 [70] (54)
3ADA  00                 [71] (54)
3ADB  00                 [72] (55)
3ADC  27                 [73] (55)
3ADD  02                 [74] (55)
3ADE  00                 [75] (55)
3ADF  00                 [76] (55)
3AE0  27                 [77] (55)
3AE1  02                 [78] (55)
3AE2  00                 [79] (55)
3AE3  00                 [80] (55)
3AE4  29                 [81] (55)
3AE5  02                 [82] (55)
3AE6  00                 [83] (48)
3AE7  00                 [84] (63)
3AE8  29                 [85] (63)
3AE9  02                 [86] (63)
3AEA  00                 [87] (63)
3AEB  00                 [88] (63)
3AEC  29                 [89] (63)
3AED  02                 [90] (64)
3AEE  00                 [91] (64)
3AEF  00                 [92] (64)
3AF0  29                 [93] (66)
                         * locals:
3C08  00                 sizelocvars (0)
                         * upvalues:
3C09  00                 sizeupvalues (0)
                         ** end of function **

                         
3C0A                     ** function [12] definition (level 2)
                         ** start of function **
3C0A  00                 string size (0)
                         source name: (none)
3C0C  04                 line defined (580)
3C0D  C9                 last line defined (585)
3C0E  04                 nups (0)
3C0F  00                 numparams (1)
3C10  01                 is_vararg (0)
3C11  00                 maxstacksize (4)
                         * code:
3C13  13                 sizecode (19)
fail op	21
3C14  15004000           [01] concat     0   0   256
3C18  1A400280           [02] jmp        10           ; to [13]
3C1C  5D400000           [03] getglobal  1   1        ; math
3C20  4E80C000           [04] gettable   1   1   258  ; -688728047
3C24  9D400000           [05] getglobal  2   1        ; math
3C28  8EC04001           [06] gettable   2   2   259  ; -113279800
3C2C  D2000000           [07] move       3   0      
3C30  A2800001           [08] call       2   2   2  
3C34  D9000100           [09] loadk      3   4        ; 0
3C38  62808001           [10] call       1   3   2  
3C3C  4440C100           [11] mul        1   1   261  ; 0
3C40  5E000001           [12] return     1   2      
3C44  5D400000           [13] getglobal  1   1        ; math
3C48  4E80C000           [14] gettable   1   1   258  ; -688728047
3C4C  92000000           [15] move       2   0      
3C50  D9000100           [16] loadk      3   4        ; 0
3C54  47008001           [17] tailcall   1   3   0  
3C58  5E000000           [18] return     1   0      
3C5C  1E008000           [19] return     0   1      
                         * constants:
3C60  06                 sizek (6)
3C61  03                 const type 3
3C62  00000000           const [0]: (0)
3C66  04                 const type 4
3C67  05                 string size (5)
3C68  6D61746800         "math\0"
                         const [1]: "math"
3C6D  01                 const type 3
3C6E  11D8F2D6           const [2]: (-688728047)
3C72  01                 const type 3
3C73  C87C3FF9           const [3]: (-113279800)
3C77  03                 const type 3
3C78  0000C03F           const [4]: (0)
3C7C  03                 const type 3
3C7D  000080BF           const [5]: (0)
                         * functions:
3C81  00                 sizep (0)
                         * lines:
3C82  13                 sizelineinfo (19)
                         [pc] (line)
3C83  45                 [01] (69)
3C84  02                 [02] (69)
3C85  00                 [03] (70)
3C86  00                 [04] (70)
3C87  45                 [05] (70)
3C88  02                 [06] (70)
3C89  00                 [07] (70)
3C8A  00                 [08] (70)
3C8B  46                 [09] (70)
3C8C  02                 [10] (70)
3C8D  00                 [11] (70)
3C8E  00                 [12] (70)
3C8F  46                 [13] (72)
3C90  02                 [14] (72)
3C91  00                 [15] (72)
3C92  00                 [16] (72)
3C93  46                 [17] (72)
3C94  02                 [18] (72)
3C95  00                 [19] (73)
                         * locals:
3CCF  00                 sizelocvars (0)
                         * upvalues:
3CD0  00                 sizeupvalues (0)
                         ** end of function **

                         
3CD1                     ** function [13] definition (level 2)
                         ** start of function **
3CD1  00                 string size (0)
                         source name: (none)
3CD3  04                 line defined (587)
3CD4  E4                 last line defined (740)
3CD5  05                 nups (15)
3CD6  0F                 numparams (3)
3CD7  03                 is_vararg (0)
3CD8  00                 maxstacksize (38)
                         * code:
3CDB  03                 sizecode (405)
3CDC  D3000000           [001] getupval   3   0      
3CE0  13018000           [002] getupval   4   1      
3CE4  53010001           [003] getupval   5   2      
3CE8  93018001           [004] getupval   6   3      
3CEC  D3010002           [005] getupval   7   4      
fail op	21
3CF0  15000080           [006] concat     0   256 0  
3CF4  1AC00B80           [007] jmp        48           ; to [56]
3CF8  D7000000           [008] loadbool   3   0   0    ; false
3CFC  17010000           [009] loadbool   4   0   0    ; false
3D00  57010000           [010] loadbool   5   0   0    ; false
3D04  97010000           [011] loadbool   6   0   0    ; false
3D08  D7010000           [012] loadbool   7   0   0    ; false
3D0C  06020004           [013] loadnil    8   8      
3D10  59020000           [014] loadk      9   0        ; 0
3D14  8A028000           [015] len        10  1      
3D18  D9020000           [016] loadk      11  0        ; 0
3D1C  50020380           [017] forprep    9   13       ; to [31]
3D20  5D430000           [018] getglobal  13  1        ; string
3D24  4E83C006           [019] gettable   13  13  258  ; -1110387163
3D28  9DC30000           [020] getglobal  14  3        ; -1615931716
3D2C  CE038300           [021] gettable   15  1   12 
3D30  CE03C107           [022] gettable   15  15  260  ; "userName"
3D34  A2030001           [023] call       14  2   0  
3D38  62830000           [024] call       13  0   2  
3D3C  93038002           [025] getupval   14  5      
3D40  8E030007           [026] gettable   14  14  0  
3D44  8E434107           [027] gettable   14  14  261  ; "LowerName"
fail op	35
3D48  23808306           [028] close      0  
3D4C  1A000080           [029] jmp        1            ; to [31]
3D50  0E028300           [030] gettable   8   1   12 
3D54  5442FC7F           [031] forloop    9   -14      ; to [18] if loop
fail op	35
3D58  63804104           [032] close      1  
3D5C  1A400580           [033] jmp        22           ; to [56]
3D60  8EC34104           [034] gettable   14  8   263  ; "isLocal"
3D64  98430000           [035] test       14      1    ; to [37] if false
3D68  1A800480           [036] jmp        19           ; to [56]
3D6C  8E034204           [037] gettable   14  8   264  ; "shipInputX"
3D70  CE434204           [038] gettable   15  8   265  ; "shipInputY"
fail op	35
3D74  63804207           [039] close      1  
3D78  1A000080           [040] jmp        1            ; to [42]
3D7C  D7400000           [041] loadbool   3   0   1    ; false, to [43]
3D80  D7008000           [042] loadbool   3   1   0    ; true
fail op	35
3D84  63004007           [043] close      1  
3D88  1A000080           [044] jmp        1            ; to [46]
3D8C  17410000           [045] loadbool   4   0   1    ; false, to [47]
3D90  17018000           [046] loadbool   4   1   0    ; true
fail op	35
3D94  6300C007           [047] close      1  
3D98  1A000080           [048] jmp        1            ; to [50]
3D9C  57410000           [049] loadbool   5   0   1    ; false, to [51]
3DA0  57018000           [050] loadbool   5   1   0    ; true
fail op	35
3DA4  6380C207           [051] close      1  
3DA8  1A000080           [052] jmp        1            ; to [54]
3DAC  97410000           [053] loadbool   6   0   1    ; false, to [55]
3DB0  97018000           [054] loadbool   6   1   0    ; true
3DB4  CEC14204           [055] gettable   7   8   267  ; "shipInputBrake"
3DB8  13048002           [056] getupval   16  5      
3DBC  0E040008           [057] gettable   16  16  0  
3DC0  0E044308           [058] gettable   16  16  268  ; "Ship"
3DC4  5D440300           [059] getglobal  17  13       ; 1074689893
3DC8  92040008           [060] move       18  16     
3DCC  62840001           [061] call       17  2   2  
3DD0  58440000           [062] test       17      1    ; to [64] if false
3DD4  1AC00080           [063] jmp        4            ; to [68]
3DD8  64844308           [064] self       17  16  270  ; -1944400657
3DDC  62840001           [065] call       17  2   2  
3DE0  58440000           [066] test       17      1    ; to [68] if false
3DE4  1A000080           [067] jmp        1            ; to [69]
3DE8  1E008000           [068] return     0   1      
3DEC  53048002           [069] getupval   17  5      
3DF0  4E048008           [070] gettable   17  17  0  
3DF4  4EC4C308           [071] gettable   17  17  271  ; "Rot"
3DF8  93048002           [072] getupval   18  5      
3DFC  8E040009           [073] gettable   18  18  0  
3E00  8E044409           [074] gettable   18  18  272  ; "Origin"
3E04  D3048002           [075] getupval   19  5      
3E08  CE048009           [076] gettable   19  19  0  
3E0C  CE44C409           [077] gettable   19  19  273  ; "Offset"
3E10  13058002           [078] getupval   20  5      
3E14  0E05000A           [079] gettable   20  20  0  
3E18  53058002           [080] getupval   21  5      
3E1C  4E05800A           [081] gettable   21  21  0  
3E20  4E85C40A           [082] gettable   21  21  274  ; "Thrust"
3E24  8D850080           [083] sub        22  256 2    ; 0
3E28  4485850A           [084] mul        21  21  22 
3E2C  0C450589           [085] settable   20  274 21   ; "Thrust"
3E30  13058002           [086] getupval   20  5      
3E34  0E05000A           [087] gettable   20  20  0  
3E38  53058002           [088] getupval   21  5      
3E3C  4E05800A           [089] gettable   21  21  0  
3E40  4E85C40A           [090] gettable   21  21  274  ; "Thrust"
3E44  84858009           [091] mul        22  19  2  
3E48  84C5440B           [092] mul        22  22  275  ; 0
3E4C  4D85850A           [093] sub        21  21  22 
3E50  0C450589           [094] settable   20  274 21   ; "Thrust"
3E54  1D050500           [095] getglobal  20  20       ; 572299008
3E58  59050000           [096] loadk      21  0        ; 0
3E5C  99450500           [097] loadk      22  21       ; 0
3E60  D9450500           [098] loadk      23  21       ; 0
3E64  22850002           [099] call       20  4   2  
3E68  5D450300           [100] getglobal  21  13       ; 1074689893
3E6C  93050003           [101] getupval   22  6      
3E70  62850001           [102] call       21  2   2  
3E74  58450000           [103] test       21      1    ; to [105] if false
3E78  1A000380           [104] jmp        13           ; to [118]
3E7C  5D850500           [105] getglobal  21  22       ; -610107473
3E80  9DC50500           [106] getglobal  22  23       ; -1596245111
3E84  D3050003           [107] getupval   23  6      
3E88  E405C60B           [108] self       23  23  280  ; -231049143
3E8C  E2050001           [109] call       23  2   0  
3E90  A2850000           [110] call       22  0   2  
3E94  DDC50500           [111] getglobal  23  23       ; -1596245111
3E98  12068008           [112] move       24  17     
3E9C  E2050001           [113] call       23  2   0  
3EA0  62850000           [114] call       21  0   2  
fail op	21
3EA4  1540C50A           [115] concat     0   21  277
3EA8  1A000080           [116] jmp        1            ; to [118]
3EAC  0485420A           [117] mul        20  20  266  ; 0
3EB0  4485420A           [118] mul        21  20  266  ; 0
3EB4  84454601           [119] mul        22  2   281  ; 0
3EB8  D9450500           [120] loadk      23  21       ; 0
3EBC  19460500           [121] loadk      24  21       ; 0
3EC0  D8000000           [122] test       3       0    ; to [124] if true
3EC4  1A000380           [123] jmp        13           ; to [137]
3EC8  53068002           [124] getupval   25  5      
3ECC  4E06800C           [125] gettable   25  25  0  
3ED0  93068002           [126] getupval   26  5      
3ED4  8E06000D           [127] gettable   26  26  0  
3ED8  8E86440D           [128] gettable   26  26  274  ; "Thrust"
3EDC  DD860600           [129] getglobal  27  26       ; 1287559689
3EE0  1207000A           [130] move       28  20     
3EE4  52078008           [131] move       29  17     
3EE8  E2868001           [132] call       27  3   2  
3EEC  C486850D           [133] mul        27  27  22 
3EF0  83C6060D           [134] add        26  26  27 
3EF4  4C860689           [135] settable   25  274 26   ; "Thrust"
3EF8  D9850200           [136] loadk      23  10       ; 0
3EFC  18010000           [137] test       4       0    ; to [139] if true
3F00  1A000380           [138] jmp        13           ; to [152]
3F04  53068002           [139] getupval   25  5      
3F08  4E06800C           [140] gettable   25  25  0  
3F0C  93068002           [141] getupval   26  5      
3F10  8E06000D           [142] gettable   26  26  0  
3F14  8E86440D           [143] gettable   26  26  274  ; "Thrust"
3F18  DD860600           [144] getglobal  27  26       ; 1287559689
3F1C  1207800A           [145] move       28  21     
3F20  52078008           [146] move       29  17     
3F24  E2868001           [147] call       27  3   2  
3F28  C486850D           [148] mul        27  27  22 
3F2C  83C6060D           [149] add        26  26  27 
3F30  4C860689           [150] settable   25  274 26   ; "Thrust"
3F34  D9050000           [151] loadk      23  0        ; 0
3F38  58010000           [152] test       5       0    ; to [154] if true
3F3C  1A000480           [153] jmp        17           ; to [171]
3F40  53068002           [154] getupval   25  5      
3F44  4E06800C           [155] gettable   25  25  0  
3F48  93068002           [156] getupval   26  5      
3F4C  8E06000D           [157] gettable   26  26  0  
3F50  8E86440D           [158] gettable   26  26  274  ; "Thrust"
3F54  DD860600           [159] getglobal  27  26       ; 1287559689
3F58  1D070500           [160] getglobal  28  20       ; 572299008
3F5C  59470500           [161] loadk      29  21       ; 0
3F60  99070000           [162] loadk      30  0        ; 0
3F64  D9470500           [163] loadk      31  21       ; 0
3F68  22870002           [164] call       28  4   2  
3F6C  52078008           [165] move       29  17     
3F70  E2868001           [166] call       27  3   2  
3F74  C486850D           [167] mul        27  27  22 
3F78  83C6060D           [168] add        26  26  27 
3F7C  4C860689           [169] settable   25  274 26   ; "Thrust"
3F80  19060000           [170] loadk      24  0        ; 0
3F84  98010000           [171] test       6       0    ; to [173] if true
3F88  1A000480           [172] jmp        17           ; to [190]
3F8C  53068002           [173] getupval   25  5      
3F90  4E06800C           [174] gettable   25  25  0  
3F94  93068002           [175] getupval   26  5      
3F98  8E06000D           [176] gettable   26  26  0  
3F9C  8E86440D           [177] gettable   26  26  274  ; "Thrust"
3FA0  DD860600           [178] getglobal  27  26       ; 1287559689
3FA4  1D070500           [179] getglobal  28  20       ; 572299008
3FA8  59470500           [180] loadk      29  21       ; 0
3FAC  99870200           [181] loadk      30  10       ; 0
3FB0  D9470500           [182] loadk      31  21       ; 0
3FB4  22870002           [183] call       28  4   2  
3FB8  52078008           [184] move       29  17     
3FBC  E2868001           [185] call       27  3   2  
3FC0  C486850D           [186] mul        27  27  22 
3FC4  83C6060D           [187] add        26  26  27 
3FC8  4C860689           [188] settable   25  274 26   ; "Thrust"
3FCC  19860200           [189] loadk      24  10       ; 0
3FD0  D8010000           [190] test       7       0    ; to [192] if true
3FD4  1AC00380           [191] jmp        16           ; to [208]
3FD8  53068002           [192] getupval   25  5      
3FDC  4E06800C           [193] gettable   25  25  0  
3FE0  93068002           [194] getupval   26  5      
3FE4  8E06000D           [195] gettable   26  26  0  
3FE8  8E86440D           [196] gettable   26  26  274  ; "Thrust"
3FEC  DD860600           [197] getglobal  27  26       ; 1287559689
3FF0  1D070500           [198] getglobal  28  20       ; 572299008
3FF4  59470500           [199] loadk      29  21       ; 0
3FF8  99470500           [200] loadk      30  21       ; 0
3FFC  D9870200           [201] loadk      31  10       ; 0
4000  22870002           [202] call       28  4   2  
4004  52078008           [203] move       29  17     
4008  E2868001           [204] call       27  3   2  
400C  C486850D           [205] mul        27  27  22 
4010  83C6060D           [206] add        26  26  27 
4014  4C860689           [207] settable   25  274 26   ; "Thrust"
fail op	35
4018  23004000           [208] close      0  
401C  1A400180           [209] jmp        6            ; to [216]
4020  5DC60600           [210] getglobal  25  27       ; gClient
4024  6406C70C           [211] self       25  25  284  ; -637199554
4028  D206800B           [212] move       27  23     
402C  1207000C           [213] move       28  24     
4030  52078003           [214] move       29  7      
4034  62468002           [215] call       25  5   1  
4038  53068002           [216] getupval   25  5      
403C  4E06800C           [217] gettable   25  25  0  
4040  4E86C40C           [218] gettable   25  25  274  ; "Thrust"
4044  4486800C           [219] mul        25  25  2  
4048  4446C70C           [220] mul        25  25  285  ; 0
404C  C3448609           [221] add        19  19  25 
4050  5DC60700           [222] getglobal  25  31       ; 1668611480
4054  8E86C709           [223] gettable   26  19  286  ; "x"
4058  D9060800           [224] loadk      27  32       ; 0
405C  19470800           [225] loadk      28  33       ; 0
4060  62860002           [226] call       25  4   2  
4064  CC44068F           [227] settable   19  286 25   ; "x"
4068  5DC60700           [228] getglobal  25  31       ; 1668611480
406C  8E86C809           [229] gettable   26  19  290  ; "y"
4070  D9060800           [230] loadk      27  32       ; 0
4074  19470800           [231] loadk      28  33       ; 0
4078  62860002           [232] call       25  4   2  
407C  CC440691           [233] settable   19  290 25   ; "y"
4080  5DC60700           [234] getglobal  25  31       ; 1668611480
4084  8EC6C809           [235] gettable   26  19  291  ; "z"
4088  D9060900           [236] loadk      27  36       ; 0
408C  19470900           [237] loadk      28  37       ; 0
4090  62860002           [238] call       25  4   2  
4094  CC448691           [239] settable   19  291 25   ; "z"
4098  53068002           [240] getupval   25  5      
409C  4E06800C           [241] gettable   25  25  0  
40A0  4CC68488           [242] settable   25  273 19   ; "Offset"
40A4  5D860600           [243] getglobal  25  26       ; 1287559689
40A8  A4864908           [244] self       26  16  294  ; -1864124360
40AC  A2860001           [245] call       26  2   2  
40B0  D2068008           [246] move       27  17     
40B4  62868001           [247] call       25  3   2  
40B8  C3448609           [248] add        19  19  25 
40BC  64C64908           [249] self       25  16  295  ; -333955620
40C0  C3C60409           [250] add        27  18  19 
40C4  62468001           [251] call       25  3   1  
40C8  5D860600           [252] getglobal  25  26       ; 1287559689
40CC  93068002           [253] getupval   26  5      
40D0  8E06000D           [254] gettable   26  26  0  
40D4  8E86440D           [255] gettable   26  26  274  ; "Thrust"
40D8  D2068008           [256] move       27  17     
40DC  62868001           [257] call       25  3   2  
40E0  9D060A00           [258] getglobal  26  40       ; 508519041
40E4  CE46CA08           [259] gettable   27  17  297  ; "heading"
40E8  0E87CA08           [260] gettable   28  17  298  ; "pitch"
40EC  4EC7CA08           [261] gettable   29  17  299  ; "bank"
40F0  A2860002           [262] call       26  4   2  
40F4  CE464A0D           [263] gettable   27  26  297  ; "heading"
40F8  0E87C70C           [264] gettable   28  25  286  ; "x"
40FC  04074B0E           [265] mul        28  28  300  ; 0
4100  C306870D           [266] add        27  27  28 
4104  8CC68694           [267] settable   26  297 27   ; "heading"
4108  CEC64A0D           [268] gettable   27  26  299  ; "bank"
410C  0E87C70C           [269] gettable   28  25  286  ; "x"
4110  0407480E           [270] mul        28  28  288  ; 0
4114  C306870D           [271] add        27  27  28 
4118  8CC68695           [272] settable   26  299 27   ; "bank"
411C  CE864A0D           [273] gettable   27  26  298  ; "pitch"
4120  0E87C80C           [274] gettable   28  25  290  ; "y"
4124  04474B0E           [275] mul        28  28  301  ; 0
4128  C306870D           [276] add        27  27  28 
412C  8CC60695           [277] settable   26  298 27   ; "pitch"
4130  E4864B08           [278] self       27  16  302  ; 1352138124
4134  5207000D           [279] move       29  26     
4138  E2468001           [280] call       27  3   1  
413C  D3068003           [281] getupval   27  7      
4140  CE06800D           [282] gettable   27  27  0  
4144  E4C6CB0D           [283] self       27  27  303  ; -617311420
4148  4E87C70C           [284] gettable   29  25  286  ; "x"
414C  E2468001           [285] call       27  3   1  
4150  D3068003           [286] getupval   27  7      
4154  CE06800D           [287] gettable   27  27  0  
4158  E406CC0D           [288] self       27  27  304  ; -1938777623
415C  52070001           [289] move       29  2      
4160  E2468001           [290] call       27  3   1  
4164  D3060004           [291] getupval   27  8      
4168  CE06800D           [292] gettable   27  27  0  
416C  E4C6CB0D           [293] self       27  27  303  ; -617311420
4170  4E87C80C           [294] gettable   29  25  290  ; "y"
4174  E2468001           [295] call       27  3   1  
4178  D3060004           [296] getupval   27  8      
417C  CE06800D           [297] gettable   27  27  0  
4180  E406CC0D           [298] self       27  27  304  ; -1938777623
4184  52070001           [299] move       29  2      
4188  E2468001           [300] call       27  3   1  
418C  D8010000           [301] test       7       0    ; to [303] if true
4190  1A400180           [302] jmp        6            ; to [309]
4194  D3068004           [303] getupval   27  9      
4198  CE06800D           [304] gettable   27  27  0  
419C  E4C6CB0D           [305] self       27  27  303  ; -617311420
41A0  59070000           [306] loadk      29  0        ; 0
41A4  E2468001           [307] call       27  3   1  
41A8  1A000180           [308] jmp        5            ; to [314]
41AC  D3068004           [309] getupval   27  9      
41B0  CE06800D           [310] gettable   27  27  0  
41B4  E4C6CB0D           [311] self       27  27  303  ; -617311420
41B8  59470500           [312] loadk      29  21       ; 0
41BC  E2468001           [313] call       27  3   1  
41C0  D3068004           [314] getupval   27  9      
41C4  CE06800D           [315] gettable   27  27  0  
41C8  E406CC0D           [316] self       27  27  304  ; -1938777623
41CC  52070001           [317] move       29  2      
41D0  E2468001           [318] call       27  3   1  
41D4  D3068003           [319] getupval   27  7      
41D8  CE06800D           [320] gettable   27  27  0  
41DC  E446CC0D           [321] self       27  27  305  ; -991624272
41E0  E2860001           [322] call       27  2   2  
41E4  4CC6068F           [323] settable   25  286 27   ; "x"
41E8  D3060004           [324] getupval   27  8      
41EC  CE06800D           [325] gettable   27  27  0  
41F0  E446CC0D           [326] self       27  27  305  ; -991624272
41F4  E2860001           [327] call       27  2   2  
41F8  4CC60691           [328] settable   25  290 27   ; "y"
41FC  D3068004           [329] getupval   27  9      
4200  CE06800D           [330] gettable   27  27  0  
4204  E446CC0D           [331] self       27  27  305  ; -991624272
4208  E2860001           [332] call       27  2   2  
420C  19C70400           [333] loadk      28  19       ; 0
4210  5DC70700           [334] getglobal  29  31       ; 1668611480
4214  8E87C70C           [335] gettable   30  25  286  ; "x"
4218  8407070F           [336] mul        30  30  28 
421C  D9470500           [337] loadk      31  21       ; 0
4220  19080000           [338] loadk      32  0        ; 0
4224  62870002           [339] call       29  4   2  
4228  9DC70700           [340] getglobal  30  31       ; 1668611480
422C  CE87C70C           [341] gettable   31  25  286  ; "x"
fail op	0
4230  C007800F           [342] move       31  31     
4234  C407870F           [343] mul        31  31  28 
4238  19480500           [344] loadk      32  21       ; 0
423C  59080000           [345] loadk      33  0        ; 0
4240  A2870002           [346] call       30  4   2  
4244  DDC70700           [347] getglobal  31  31       ; 1668611480
4248  0E88C80C           [348] gettable   32  25  290  ; "y"
424C  04080710           [349] mul        32  32  28 
4250  59480500           [350] loadk      33  21       ; 0
4254  99080000           [351] loadk      34  0        ; 0
4258  E2870002           [352] call       31  4   2  
425C  1DC80700           [353] getglobal  32  31       ; 1668611480
4260  4E88C80C           [354] gettable   33  25  290  ; "y"
fail op	0
4264  40088010           [355] move       33  33     
4268  44088710           [356] mul        33  33  28 
426C  99480500           [357] loadk      34  21       ; 0
4270  D9080000           [358] loadk      35  0        ; 0
4274  22880002           [359] call       32  4   2  
4278  64884C08           [360] self       33  16  306  ; -1494042587
427C  D3080005           [361] getupval   35  10     
4280  17098000           [362] loadbool   36  1   0    ; true
4284  59090000           [363] loadk      37  0        ; 0
4288  62488002           [364] call       33  5   1  
428C  64884C08           [365] self       33  16  306  ; -1494042587
4290  D3088005           [366] getupval   35  11     
4294  17098000           [367] loadbool   36  1   0    ; true
4298  59C90C00           [368] loadk      37  51       ; 0
429C  62488002           [369] call       33  5   1  
42A0  64884C08           [370] self       33  16  306  ; -1494042587
42A4  D3080006           [371] getupval   35  12     
42A8  17098000           [372] loadbool   36  1   0    ; true
42AC  59490600           [373] loadk      37  25       ; 0
42B0  62488002           [374] call       33  5   1  
42B4  64884C08           [375] self       33  16  306  ; -1494042587
42B8  D3088006           [376] getupval   35  13     
42BC  17098000           [377] loadbool   36  1   0    ; true
42C0  59490900           [378] loadk      37  37       ; 0
42C4  62488002           [379] call       33  5   1  
42C8  64884C08           [380] self       33  16  306  ; -1494042587
42CC  D3080007           [381] getupval   35  14     
42D0  17098000           [382] loadbool   36  1   0    ; true
42D4  59490700           [383] loadk      37  29       ; 0
42D8  62488002           [384] call       33  5   1  
42DC  64084D08           [385] self       33  16  308  ; -924879488
42E0  D9080000           [386] loadk      35  0        ; 0
42E4  1209800E           [387] move       36  29     
42E8  62480002           [388] call       33  4   1  
42EC  64084D08           [389] self       33  16  308  ; -924879488
42F0  D9C80C00           [390] loadk      35  51       ; 0
42F4  1209000F           [391] move       36  30     
42F8  62480002           [392] call       33  4   1  
42FC  64084D08           [393] self       33  16  308  ; -924879488
4300  D9480600           [394] loadk      35  25       ; 0
4304  1209800F           [395] move       36  31     
4308  62480002           [396] call       33  4   1  
430C  64084D08           [397] self       33  16  308  ; -924879488
4310  D9480900           [398] loadk      35  37       ; 0
4314  12090010           [399] move       36  32     
4318  62480002           [400] call       33  4   1  
431C  64084D08           [401] self       33  16  308  ; -924879488
4320  D9480700           [402] loadk      35  29       ; 0
4324  0449CD0D           [403] mul        36  27  309  ; 102
4328  62480002           [404] call       33  4   1  
432C  1E008000           [405] return     0   1      
                         * constants:
4330  36                 sizek (54)
4331  03                 const type 3
4332  0000803F           const [0]: (0)
4336  04                 const type 4
4337  07                 string size (7)
4338  737472696E6700     "string\0"
                         const [1]: "string"
433F  01                 const type 3
4340  25D6D0BD           const [2]: (-1110387163)
4344  01                 const type 3
4345  BCD6AE9F           const [3]: (-1615931716)
4349  04                 const type 4
434A  09                 string size (9)
434B  757365724E616D65+  "userName"
4353  00                 "\0"
                         const [4]: "userName"
4354  04                 const type 4
4355  0A                 string size (10)
4356  4C6F7765724E616D+  "LowerNam"
435E  6500               "e\0"
                         const [5]: "LowerName"
4360  00                 const type 0
                         const [6]: nil
4361  04                 const type 4
4362  08                 string size (8)
4363  69734C6F63616C00   "isLocal\0"
                         const [7]: "isLocal"
436B  04                 const type 4
436C  0B                 string size (11)
436D  73686970496E7075+  "shipInpu"
4375  745800             "tX\0"
                         const [8]: "shipInputX"
4378  04                 const type 4
4379  0B                 string size (11)
437A  73686970496E7075+  "shipInpu"
4382  745900             "tY\0"
                         const [9]: "shipInputY"
4385  03                 const type 3
4386  000080BF           const [10]: (0)
438A  04                 const type 4
438B  0F                 string size (15)
438C  73686970496E7075+  "shipInpu"
4394  744272616B6500     "tBrake\0"
                         const [11]: "shipInputBrake"
439B  04                 const type 4
439C  05                 string size (5)
439D  5368697000         "Ship\0"
                         const [12]: "Ship"
43A2  01                 const type 3
43A3  65770E40           const [13]: (1074689893)
43A7  01                 const type 3
43A8  EFCC1A8C           const [14]: (-1944400657)
43AC  04                 const type 4
43AD  04                 string size (4)
43AE  526F7400           "Rot\0"
                         const [15]: "Rot"
43B2  04                 const type 4
43B3  07                 string size (7)
43B4  4F726967696E00     "Origin\0"
                         const [16]: "Origin"
43BB  04                 const type 4
43BC  07                 string size (7)
43BD  4F666673657400     "Offset\0"
                         const [17]: "Offset"
43C4  04                 const type 4
43C5  07                 string size (7)
43C6  54687275737400     "Thrust\0"
                         const [18]: "Thrust"
43CD  03                 const type 3
43CE  0000403F           const [19]: (0)
43D2  01                 const type 3
43D3  00971C22           const [20]: (572299008)
43D7  03                 const type 3
43D8  00000000           const [21]: (0)
43DC  01                 const type 3
43DD  AF7FA2DB           const [22]: (-610107473)
43E1  01                 const type 3
43E2  893BDBA0           const [23]: (-1596245111)
43E6  01                 const type 3
43E7  49783AF2           const [24]: (-231049143)
43EB  03                 const type 3
43EC  00004040           const [25]: (0)
43F0  01                 const type 3
43F1  099ABE4C           const [26]: (1287559689)
43F5  04                 const type 4
43F6  08                 string size (8)
43F7  67436C69656E7400   "gClient\0"
                         const [27]: "gClient"
43FF  01                 const type 3
4400  3E1B05DA           const [28]: (-637199554)
4404  03                 const type 3
4405  0000A040           const [29]: (0)
4409  04                 const type 4
440A  02                 string size (2)
440B  7800               "x\0"
                         const [30]: "x"
440D  01                 const type 3
440E  98FD7463           const [31]: (1668611480)
4412  03                 const type 3
4413  0000A0C1           const [32]: (0)
4417  03                 const type 3
4418  0000A041           const [33]: (0)
441C  04                 const type 4
441D  02                 string size (2)
441E  7900               "y\0"
                         const [34]: "y"
4420  04                 const type 4
4421  02                 string size (2)
4422  7A00               "z\0"
                         const [35]: "z"
4424  03                 const type 3
4425  000080C0           const [36]: (0)
4429  03                 const type 3
442A  00008040           const [37]: (0)
442E  01                 const type 3
442F  38B8E390           const [38]: (-1864124360)
4433  01                 const type 3
4434  DC3D18EC           const [39]: (-333955620)
4438  01                 const type 3
4439  81624F1E           const [40]: (508519041)
443D  04                 const type 4
443E  08                 string size (8)
443F  68656164696E6700   "heading\0"
                         const [41]: "heading"
4447  04                 const type 4
4448  06                 string size (6)
4449  706974636800       "pitch\0"
                         const [42]: "pitch"
444F  04                 const type 4
4450  05                 string size (5)
4451  62616E6B00         "bank\0"
                         const [43]: "bank"
4456  03                 const type 3
4457  00002041           const [44]: (0)
445B  03                 const type 3
445C  000020C1           const [45]: (0)
4460  01                 const type 3
4461  8CFD9750           const [46]: (1352138124)
4465  01                 const type 3
4466  449334DB           const [47]: (-617311420)
446A  01                 const type 3
446B  E999708C           const [48]: (-1938777623)
446F  01                 const type 3
4470  B003E5C4           const [49]: (-991624272)
4474  01                 const type 3
4475  25B8F2A6           const [50]: (-1494042587)
4479  03                 const type 3
447A  00000040           const [51]: (0)
447E  01                 const type 3
447F  8075DFC8           const [52]: (-924879488)
4483  03                 const type 3
4484  6666263F           const [53]: (102)
                         * functions:
4488  00                 sizep (0)
                         * lines:
448A  03                 sizelineinfo (405)
                         [pc] (line)
448B  4C                 [001] (76)
448C  02                 [002] (77)
448D  00                 [003] (78)
448E  00                 [004] (79)
448F  4D                 [005] (80)
4490  02                 [006] (82)
4491  00                 [007] (82)
4492  00                 [008] (83)
4493  4E                 [009] (84)
4494  02                 [010] (85)
4495  00                 [011] (86)
4496  00                 [012] (87)
4497  4F                 [013] (88)
4498  02                 [014] (89)
4499  00                 [015] (89)
449A  00                 [016] (89)
449B  50                 [017] (89)
449C  02                 [018] (90)
449D  00                 [019] (90)
449E  00                 [020] (90)
449F  52                 [021] (90)
44A0  02                 [022] (90)
44A1  00                 [023] (90)
44A2  00                 [024] (90)
44A3  52                 [025] (91)
44A4  02                 [026] (91)
44A5  00                 [027] (91)
44A6  00                 [028] (91)
44A7  53                 [029] (91)
44A8  02                 [030] (92)
44A9  00                 [031] (89)
44AA  00                 [032] (96)
44AB  54                 [033] (96)
44AC  02                 [034] (96)
44AD  00                 [035] (96)
44AE  00                 [036] (96)
44AF  55                 [037] (97)
44B0  02                 [038] (98)
44B1  00                 [039] (99)
44B2  00                 [040] (99)
44B3  56                 [041] (99)
44B4  02                 [042] (99)
44B5  00                 [043] (100)
44B6  00                 [044] (100)
44B7  57                 [045] (100)
44B8  02                 [046] (100)
44B9  00                 [047] (101)
44BA  00                 [048] (101)
44BB  58                 [049] (101)
44BC  02                 [050] (101)
44BD  00                 [051] (102)
44BE  00                 [052] (102)
44BF  59                 [053] (102)
44C0  02                 [054] (102)
44C1  00                 [055] (103)
44C2  00                 [056] (107)
44C3  59                 [057] (107)
44C4  02                 [058] (107)
44C5  00                 [059] (108)
44C6  00                 [060] (108)
44C7  59                 [061] (108)
44C8  02                 [062] (108)
44C9  00                 [063] (108)
44CA  00                 [064] (108)
44CB  59                 [065] (108)
44CC  02                 [066] (108)
44CD  00                 [067] (108)
44CE  00                 [068] (109)
44CF  5A                 [069] (112)
44D0  02                 [070] (112)
44D1  00                 [071] (112)
44D2  00                 [072] (113)
44D3  5A                 [073] (113)
44D4  02                 [074] (113)
44D5  00                 [075] (114)
44D6  00                 [076] (114)
44D7  5A                 [077] (114)
44D8  02                 [078] (116)
44D9  00                 [079] (116)
44DA  00                 [080] (116)
44DB  5A                 [081] (116)
44DC  02                 [082] (116)
44DD  00                 [083] (116)
44DE  00                 [084] (116)
44DF  5A                 [085] (116)
44E0  02                 [086] (117)
44E1  00                 [087] (117)
44E2  00                 [088] (117)
44E3  5A                 [089] (117)
44E4  02                 [090] (117)
44E5  00                 [091] (117)
44E6  00                 [092] (117)
44E7  5A                 [093] (117)
44E8  02                 [094] (117)
44E9  00                 [095] (119)
44EA  00                 [096] (119)
44EB  5B                 [097] (119)
44EC  02                 [098] (119)
44ED  00                 [099] (119)
44EE  00                 [100] (121)
44EF  5B                 [101] (121)
44F0  02                 [102] (121)
44F1  00                 [103] (121)
44F2  00                 [104] (121)
44F3  5B                 [105] (122)
44F4  02                 [106] (122)
44F5  00                 [107] (122)
44F6  00                 [108] (122)
44F7  5B                 [109] (122)
44F8  02                 [110] (122)
44F9  00                 [111] (122)
44FA  00                 [112] (122)
44FB  5B                 [113] (122)
44FC  02                 [114] (122)
44FD  00                 [115] (122)
44FE  00                 [116] (122)
44FF  5C                 [117] (123)
4500  02                 [118] (126)
4501  00                 [119] (-128)
4502  00                 [120] (-127)
4503  59                 [121] (-126)
4504  02                 [122] (-124)
4505  00                 [123] (-124)
4506  00                 [124] (-123)
4507  60                 [125] (-123)
4508  02                 [126] (-123)
4509  00                 [127] (-123)
450A  00                 [128] (-123)
450B  60                 [129] (-123)
450C  02                 [130] (-123)
450D  00                 [131] (-123)
450E  00                 [132] (-123)
450F  60                 [133] (-123)
4510  02                 [134] (-123)
4511  00                 [135] (-123)
4512  00                 [136] (-122)
4513  60                 [137] (-119)
4514  02                 [138] (-119)
4515  00                 [139] (-118)
4516  00                 [140] (-118)
4517  60                 [141] (-118)
4518  02                 [142] (-118)
4519  00                 [143] (-118)
451A  00                 [144] (-118)
451B  61                 [145] (-118)
451C  02                 [146] (-118)
451D  00                 [147] (-118)
451E  00                 [148] (-118)
451F  62                 [149] (-118)
4520  02                 [150] (-118)
4521  00                 [151] (-117)
4522  00                 [152] (-114)
4523  63                 [153] (-114)
4524  02                 [154] (-113)
4525  00                 [155] (-113)
4526  00                 [156] (-113)
4527  63                 [157] (-113)
4528  02                 [158] (-113)
4529  00                 [159] (-113)
452A  00                 [160] (-113)
452B  63                 [161] (-113)
452C  02                 [162] (-113)
452D  00                 [163] (-113)
452E  00                 [164] (-113)
452F  63                 [165] (-113)
4530  02                 [166] (-113)
4531  00                 [167] (-113)
4532  00                 [168] (-113)
4533  64                 [169] (-113)
4534  02                 [170] (-112)
4535  00                 [171] (-109)
4536  00                 [172] (-109)
4537  64                 [173] (-108)
4538  02                 [174] (-108)
4539  00                 [175] (-108)
453A  00                 [176] (-108)
453B  64                 [177] (-108)
453C  02                 [178] (-108)
453D  00                 [179] (-108)
453E  00                 [180] (-108)
453F  64                 [181] (-108)
4540  02                 [182] (-108)
4541  00                 [183] (-108)
4542  00                 [184] (-108)
4543  65                 [185] (-108)
4544  02                 [186] (-108)
4545  00                 [187] (-108)
4546  00                 [188] (-108)
4547  65                 [189] (-107)
4548  02                 [190] (-104)
4549  00                 [191] (-104)
454A  00                 [192] (-103)
454B  65                 [193] (-103)
454C  02                 [194] (-103)
454D  00                 [195] (-103)
454E  00                 [196] (-103)
454F  65                 [197] (-103)
4550  02                 [198] (-103)
4551  00                 [199] (-103)
4552  00                 [200] (-103)
4553  66                 [201] (-103)
4554  02                 [202] (-103)
4555  00                 [203] (-103)
4556  00                 [204] (-103)
4557  66                 [205] (-103)
4558  02                 [206] (-103)
4559  00                 [207] (-103)
455A  00                 [208] (-100)
455B  66                 [209] (-100)
455C  02                 [210] (-99)
455D  00                 [211] (-99)
455E  00                 [212] (-99)
455F  66                 [213] (-99)
4560  02                 [214] (-99)
4561  00                 [215] (-99)
4562  00                 [216] (-92)
4563  67                 [217] (-92)
4564  02                 [218] (-92)
4565  00                 [219] (-92)
4566  00                 [220] (-92)
4567  6B                 [221] (-92)
4568  02                 [222] (-91)
4569  00                 [223] (-91)
456A  00                 [224] (-91)
456B  6B                 [225] (-91)
456C  02                 [226] (-91)
456D  00                 [227] (-91)
456E  00                 [228] (-90)
456F  6B                 [229] (-90)
4570  02                 [230] (-90)
4571  00                 [231] (-90)
4572  00                 [232] (-90)
4573  6C                 [233] (-90)
4574  02                 [234] (-89)
4575  00                 [235] (-89)
4576  00                 [236] (-89)
4577  6C                 [237] (-89)
4578  02                 [238] (-89)
4579  00                 [239] (-89)
457A  00                 [240] (-87)
457B  6C                 [241] (-87)
457C  02                 [242] (-87)
457D  00                 [243] (-85)
457E  00                 [244] (-85)
457F  6C                 [245] (-85)
4580  02                 [246] (-85)
4581  00                 [247] (-85)
4582  00                 [248] (-85)
4583  6C                 [249] (-84)
4584  02                 [250] (-84)
4585  00                 [251] (-84)
4586  00                 [252] (-82)
4587  6C                 [253] (-82)
4588  02                 [254] (-82)
4589  00                 [255] (-82)
458A  00                 [256] (-82)
458B  6C                 [257] (-82)
458C  02                 [258] (-81)
458D  00                 [259] (-81)
458E  00                 [260] (-81)
458F  6C                 [261] (-81)
4590  02                 [262] (-81)
4591  00                 [263] (-80)
4592  00                 [264] (-80)
4593  6C                 [265] (-80)
4594  02                 [266] (-80)
4595  00                 [267] (-80)
4596  00                 [268] (-79)
4597  6D                 [269] (-79)
4598  02                 [270] (-79)
4599  00                 [271] (-79)
459A  00                 [272] (-79)
459B  70                 [273] (-78)
459C  02                 [274] (-78)
459D  00                 [275] (-78)
459E  00                 [276] (-78)
459F  70                 [277] (-78)
45A0  02                 [278] (-77)
45A1  00                 [279] (-77)
45A2  00                 [280] (-77)
45A3  70                 [281] (-73)
45A4  02                 [282] (-73)
45A5  00                 [283] (-73)
45A6  00                 [284] (-73)
45A7  71                 [285] (-73)
45A8  02                 [286] (-72)
45A9  00                 [287] (-72)
45AA  00                 [288] (-72)
45AB  71                 [289] (-72)
45AC  02                 [290] (-72)
45AD  00                 [291] (-71)
45AE  00                 [292] (-71)
45AF  71                 [293] (-71)
45B0  02                 [294] (-71)
45B1  00                 [295] (-71)
45B2  00                 [296] (-70)
45B3  72                 [297] (-70)
45B4  02                 [298] (-70)
45B5  00                 [299] (-70)
45B6  00                 [300] (-70)
45B7  72                 [301] (-68)
45B8  02                 [302] (-68)
45B9  00                 [303] (-67)
45BA  00                 [304] (-67)
45BB  72                 [305] (-67)
45BC  02                 [306] (-67)
45BD  00                 [307] (-67)
45BE  00                 [308] (-67)
45BF  74                 [309] (-65)
45C0  02                 [310] (-65)
45C1  00                 [311] (-65)
45C2  00                 [312] (-65)
45C3  74                 [313] (-65)
45C4  02                 [314] (-63)
45C5  00                 [315] (-63)
45C6  00                 [316] (-63)
45C7  74                 [317] (-63)
45C8  02                 [318] (-63)
45C9  00                 [319] (-60)
45CA  00                 [320] (-60)
45CB  74                 [321] (-60)
45CC  02                 [322] (-60)
45CD  00                 [323] (-60)
45CE  00                 [324] (-59)
45CF  74                 [325] (-59)
45D0  02                 [326] (-59)
45D1  00                 [327] (-59)
45D2  00                 [328] (-59)
45D3  74                 [329] (-58)
45D4  02                 [330] (-58)
45D5  00                 [331] (-58)
45D6  00                 [332] (-58)
45D7  74                 [333] (-53)
45D8  02                 [334] (-52)
45D9  00                 [335] (-52)
45DA  00                 [336] (-52)
45DB  74                 [337] (-52)
45DC  02                 [338] (-52)
45DD  00                 [339] (-52)
45DE  00                 [340] (-51)
45DF  75                 [341] (-51)
45E0  02                 [342] (-51)
45E1  00                 [343] (-51)
45E2  00                 [344] (-51)
45E3  75                 [345] (-51)
45E4  02                 [346] (-51)
45E5  00                 [347] (-49)
45E6  00                 [348] (-49)
45E7  75                 [349] (-49)
45E8  02                 [350] (-49)
45E9  00                 [351] (-49)
45EA  00                 [352] (-49)
45EB  75                 [353] (-48)
45EC  02                 [354] (-48)
45ED  00                 [355] (-48)
45EE  00                 [356] (-48)
45EF  75                 [357] (-48)
45F0  02                 [358] (-48)
45F1  00                 [359] (-48)
45F2  00                 [360] (-44)
45F3  75                 [361] (-44)
45F4  02                 [362] (-44)
45F5  00                 [363] (-44)
45F6  00                 [364] (-44)
45F7  75                 [365] (-43)
45F8  02                 [366] (-43)
45F9  00                 [367] (-43)
45FA  00                 [368] (-43)
45FB  75                 [369] (-43)
45FC  02                 [370] (-42)
45FD  00                 [371] (-42)
45FE  00                 [372] (-42)
45FF  75                 [373] (-42)
4600  02                 [374] (-42)
4601  00                 [375] (-41)
4602  00                 [376] (-41)
4603  77                 [377] (-41)
4604  02                 [378] (-41)
4605  00                 [379] (-41)
4606  00                 [380] (-40)
4607  77                 [381] (-40)
4608  02                 [382] (-40)
4609  00                 [383] (-40)
460A  00                 [384] (-40)
460B  77                 [385] (-38)
460C  02                 [386] (-38)
460D  00                 [387] (-38)
460E  00                 [388] (-38)
460F  77                 [389] (-37)
4610  02                 [390] (-37)
4611  00                 [391] (-37)
4612  00                 [392] (-37)
4613  77                 [393] (-36)
4614  02                 [394] (-36)
4615  00                 [395] (-36)
4616  00                 [396] (-36)
4617  79                 [397] (-35)
4618  02                 [398] (-35)
4619  00                 [399] (-35)
461A  00                 [400] (-35)
461B  79                 [401] (-34)
461C  02                 [402] (-34)
461D  00                 [403] (-34)
461E  00                 [404] (-34)
461F  79                 [405] (-28)
                         * locals:
4ADF  00                 sizelocvars (0)
                         * upvalues:
4AE0  00                 sizeupvalues (0)
                         ** end of function **

                         
4AE1                     ** function [14] definition (level 2)
                         ** start of function **
4AE1  00                 string size (0)
                         source name: (none)
4AE3  05                 line defined (742)
4AE4  EF                 last line defined (751)
4AE5  05                 nups (0)
4AE6  00                 numparams (1)
4AE7  01                 is_vararg (0)
4AE8  00                 maxstacksize (8)
                         * code:
4AEA  15                 sizecode (21)
4AEB  5D000000           [01] getglobal  1   0        ; gMatchingService
4AEF  6440C000           [02] self       1   1   257  ; -1985412809
4AF3  62800001           [03] call       1   2   2  
4AF7  99800000           [04] loadk      2   2        ; 0
4AFB  CA008000           [05] len        3   1      
4AFF  19810000           [06] loadk      4   2        ; 0
4B03  90400280           [07] forprep    2   10       ; to [18]
4B07  8E418100           [08] gettable   6   1   5  
4B0B  8EC14003           [09] gettable   6   6   259  ; "name"
fail op	35
4B0F  23000003           [10] close      0  
4B13  1A400180           [11] jmp        6            ; to [18]
4B17  9D010100           [12] getglobal  6   4        ; cjson
4B1B  8E414103           [13] gettable   6   6   261  ; -1976663275
4B1F  CE418100           [14] gettable   7   1   5  
4B23  CE81C103           [15] gettable   7   7   262  ; "loadout"
4B27  A2810001           [16] call       6   2   2  
4B2B  9E010001           [17] return     6   2      
4B2F  9400FD7F           [18] forloop    2   -11      ; to [8] if loop
4B33  C6018003           [19] loadnil    7   7      
4B37  DE010001           [20] return     7   2      
4B3B  1E008000           [21] return     0   1      
                         * constants:
4B3F  07                 sizek (7)
4B40  04                 const type 4
4B41  11                 string size (17)
4B42  674D61746368696E+  "gMatchin"
4B4A  6753657276696365+  "gService"
4B52  00                 "\0"
                         const [0]: "gMatchingService"
4B53  01                 const type 3
4B54  3701A989           const [1]: (-1985412809)
4B58  03                 const type 3
4B59  0000803F           const [2]: (0)
4B5D  04                 const type 4
4B5E  05                 string size (5)
4B5F  6E616D6500         "name\0"
                         const [3]: "name"
4B64  04                 const type 4
4B65  06                 string size (6)
4B66  636A736F6E00       "cjson\0"
                         const [4]: "cjson"
4B6C  01                 const type 3
4B6D  15832E8A           const [5]: (-1976663275)
4B71  04                 const type 4
4B72  08                 string size (8)
4B73  6C6F61646F757400   "loadout\0"
                         const [6]: "loadout"
                         * functions:
4B7B  00                 sizep (0)
                         * lines:
4B7C  15                 sizelineinfo (21)
                         [pc] (line)
4B7D  E7                 [01] (-25)
4B7E  02                 [02] (-25)
4B7F  00                 [03] (-25)
4B80  00                 [04] (-24)
4B81  E7                 [05] (-24)
4B82  02                 [06] (-24)
4B83  00                 [07] (-24)
4B84  00                 [08] (-23)
4B85  E7                 [09] (-23)
4B86  02                 [10] (-23)
4B87  00                 [11] (-23)
4B88  00                 [12] (-22)
4B89  E8                 [13] (-22)
4B8A  02                 [14] (-22)
4B8B  00                 [15] (-22)
4B8C  00                 [16] (-22)
4B8D  E8                 [17] (-21)
4B8E  02                 [18] (-24)
4B8F  00                 [19] (-18)
4B90  00                 [20] (-18)
4B91  E8                 [21] (-17)
                         * locals:
4BD1  00                 sizelocvars (0)
                         * upvalues:
4BD2  00                 sizeupvalues (0)
                         ** end of function **

                         
4BD3                     ** function [15] definition (level 2)
                         ** start of function **
4BD3  00                 string size (0)
                         source name: (none)
4BD5  05                 line defined (753)
4BD6  84                 last line defined (772)
4BD7  06                 nups (1)
4BD8  01                 numparams (2)
4BD9  02                 is_vararg (0)
4BDA  00                 maxstacksize (10)
                         * code:
4BDC  26                 sizecode (38)
4BDD  D3000000           [01] getupval   3   0      
4BE1  12018000           [02] move       4   1      
4BE5  E2800001           [03] call       3   2   2  
fail op	35
4BE9  6300C001           [04] close      1  
4BED  1A800480           [05] jmp        19           ; to [25]
4BF1  0E41C001           [06] gettable   4   3   257  ; "ProfileImage"
4BF5  5D810000           [07] getglobal  5   2        ; 1074689893
4BF9  92010002           [08] move       6   4      
4BFD  62810001           [09] call       5   2   2  
4C01  58410000           [10] test       5       1    ; to [12] if false
4C05  1A000380           [11] jmp        13           ; to [25]
fail op	35
4C09  63C04002           [12] close      1  
4C0D  1A800280           [13] jmp        11           ; to [25]
4C11  5D010100           [14] getglobal  5   4        ; 2083004503
4C15  92010002           [15] move       6   4      
4C19  62810001           [16] call       5   2   2  
4C1D  9D810000           [17] getglobal  6   2        ; 1074689893
4C21  D2018002           [18] move       7   5      
4C25  A2810001           [19] call       6   2   2  
4C29  98410000           [20] test       6       1    ; to [22] if false
4C2D  1A800080           [21] jmp        3            ; to [25]
4C31  A441C102           [22] self       6   5   261  ; -240553170
4C35  A2810001           [23] call       6   2   2  
4C39  92000003           [24] move       2   6      
4C3D  9D810000           [25] getglobal  6   2        ; 1074689893
4C41  D2010001           [26] move       7   2      
4C45  A2810001           [27] call       6   2   2  
4C49  98010000           [28] test       6       0    ; to [30] if true
4C4D  1A000080           [29] jmp        1            ; to [31]
4C51  9D800100           [30] getglobal  2   6        ; defaultProfileTexture
4C55  9DC10100           [31] getglobal  6   7        ; mMovie
4C59  A4014203           [32] self       6   6   264  ; 643307062
4C5D  12020000           [33] move       8   0      
4C61  59420200           [34] loadk      9   9        ; ".ProfileImage"
4C65  02420204           [35] concat     8   8   9  
4C69  52020001           [36] move       9   2      
4C6D  A2410002           [37] call       6   4   1  
4C71  1E008000           [38] return     0   1      
                         * constants:
4C75  0A                 sizek (10)
4C76  00                 const type 0
                         const [0]: nil
4C77  04                 const type 4
4C78  0D                 string size (13)
4C79  50726F66696C6549+  "ProfileI"
4C81  6D61676500         "mage\0"
                         const [1]: "ProfileImage"
4C86  01                 const type 3
4C87  65770E40           const [2]: (1074689893)
4C8B  04                 const type 4
4C8C  01                 string size (0)
                         const [3]: ""
4C8E  01                 const type 3
4C8F  5720287C           const [4]: (2083004503)
4C93  01                 const type 3
4C94  2E73A9F1           const [5]: (-240553170)
4C98  04                 const type 4
4C99  16                 string size (22)
4C9A  64656661756C7450+  "defaultP"
4CA2  726F66696C655465+  "rofileTe"
4CAA  787475726500       "xture\0"
                         const [6]: "defaultProfileTexture"
4CB0  04                 const type 4
4CB1  07                 string size (7)
4CB2  6D4D6F76696500     "mMovie\0"
                         const [7]: "mMovie"
4CB9  01                 const type 3
4CBA  36165826           const [8]: (643307062)
4CBE  04                 const type 4
4CBF  0E                 string size (14)
4CC0  2E50726F66696C65+  ".Profile"
4CC8  496D61676500       "Image\0"
                         const [9]: ".ProfileImage"
                         * functions:
4CCE  00                 sizep (0)
                         * lines:
4CCF  26                 sizelineinfo (38)
                         [pc] (line)
4CD0  F4                 [01] (-12)
4CD1  02                 [02] (-12)
4CD2  00                 [03] (-12)
4CD3  00                 [04] (-11)
4CD4  F4                 [05] (-11)
4CD5  02                 [06] (-10)
4CD6  00                 [07] (-8)
4CD7  00                 [08] (-8)
4CD8  F4                 [09] (-8)
4CD9  02                 [10] (-8)
4CDA  00                 [11] (-8)
4CDB  00                 [12] (-8)
4CDC  F5                 [13] (-8)
4CDD  02                 [14] (-6)
4CDE  00                 [15] (-6)
4CDF  00                 [16] (-6)
4CE0  F5                 [17] (-5)
4CE1  02                 [18] (-5)
4CE2  00                 [19] (-5)
4CE3  00                 [20] (-5)
4CE4  F6                 [21] (-5)
4CE5  02                 [22] (-4)
4CE6  00                 [23] (-4)
4CE7  00                 [24] (-4)
4CE8  F8                 [25] (0)
4CE9  02                 [26] (0)
4CEA  00                 [27] (0)
4CEB  00                 [28] (0)
4CEC  F8                 [29] (0)
4CED  02                 [30] (1)
4CEE  00                 [31] (3)
4CEF  00                 [32] (3)
4CF0  F8                 [33] (3)
4CF1  02                 [34] (3)
4CF2  00                 [35] (3)
4CF3  00                 [36] (3)
4CF4  F8                 [37] (3)
4CF5  02                 [38] (4)
                         * locals:
4D68  00                 sizelocvars (0)
                         * upvalues:
4D69  00                 sizeupvalues (0)
                         ** end of function **

                         
4D6A                     ** function [16] definition (level 2)
                         ** start of function **
4D6A  00                 string size (0)
                         source name: (none)
4D6C  06                 line defined (774)
4D6D  CD                 last line defined (1101)
4D6E  08                 nups (26)
4D6F  1A                 numparams (0)
4D70  00                 is_vararg (0)
4D71  00                 maxstacksize (98)
                         * code:
4D74  07                 sizecode (925)
4D75  1D000000           [001] getglobal  0   0        ; gClient
fail op	35
4D79  63404000           [002] close      1  
4D7D  1A400280           [003] jmp        10           ; to [14]
4D81  1D800000           [004] getglobal  0   2        ; 1074689893
4D85  5DC00000           [005] getglobal  1   3        ; mMovie
4D89  22800001           [006] call       0   2   2  
4D8D  18400000           [007] test       0       1    ; to [9] if false
4D91  1A000180           [008] jmp        5            ; to [14]
4D95  1D800000           [009] getglobal  0   2        ; 1074689893
4D99  5D000100           [010] getglobal  1   4        ; gRegion
4D9D  22800001           [011] call       0   2   2  
4DA1  18000000           [012] test       0       0    ; to [14] if true
4DA5  1A000080           [013] jmp        1            ; to [15]
4DA9  1E008000           [014] return     0   1      
4DAD  1D400100           [015] getglobal  0   5        ; math
4DB1  0E804100           [016] gettable   0   0   262  ; 1710846250
4DB5  59C00100           [017] loadk      1   7        ; -119
4DB9  9D000200           [018] getglobal  2   8        ; 1289681407
4DBD  A2008000           [019] call       2   1   0  
4DC1  22800000           [020] call       0   0   2  
fail op	33
4DC5  21404200           [021] tforloop   0       265  ; to [23] if exit
4DC9  1A000080           [022] jmp        1            ; to [24]
4DCD  19C00100           [023] loadk      0   7        ; -119
4DD1  5D000000           [024] getglobal  1   0        ; gClient
4DD5  6480C200           [025] self       1   1   266  ; -162150132
4DD9  62800001           [026] call       1   2   2  
4DDD  99C00200           [027] loadk      2   11       ; 0
4DE1  D3000000           [028] getupval   3   0      
4DE5  CA008001           [029] len        3   3      
4DE9  19C10200           [030] loadk      4   11       ; 0
4DED  90000180           [031] forprep    2   5        ; to [37]
4DF1  93018000           [032] getupval   6   1      
4DF5  D2018002           [033] move       7   5      
4DF9  12028000           [034] move       8   1      
4DFD  52020000           [035] move       9   0      
4E01  A2410002           [036] call       6   4   1  
4E05  9440FE7F           [037] forloop    2   -6       ; to [32] if loop
4E09  9DC10000           [038] getglobal  6   3        ; mMovie
4E0D  A4014303           [039] self       6   6   268  ; 135097114
4E11  12020000           [040] move       8   0      
4E15  A2418001           [041] call       6   3   1  
4E19  9D810000           [042] getglobal  6   2        ; 1074689893
4E1D  D3010001           [043] getupval   7   2      
4E21  A2810001           [044] call       6   2   2  
4E25  98410000           [045] test       6       1    ; to [47] if false
4E29  1AC00080           [046] jmp        4            ; to [51]
4E2D  93010001           [047] getupval   6   2      
4E31  A4414303           [048] self       6   6   269  ; -1938777623
4E35  12020000           [049] move       8   0      
4E39  A2418001           [050] call       6   3   1  
4E3D  93018001           [051] getupval   6   3      
4E41  98410000           [052] test       6       1    ; to [54] if false
4E45  1A400080           [053] jmp        2            ; to [56]
4E49  93010002           [054] getupval   6   4      
4E4D  A2418000           [055] call       6   1   1  
4E51  93010003           [056] getupval   6   6      
4E55  8E814303           [057] gettable   6   6   270  ; -1827748401
4E59  D9C10300           [058] loadk      7   15       ; "PlayerCamera"
4E5D  1D020400           [059] getglobal  8   16       ; gBackgroundRegion
4E61  A2818001           [060] call       6   3   2  
fail op	8
4E65  88018002           [061] setupval   6   5      
4E69  93018003           [062] getupval   6   7      
4E6D  98010000           [063] test       6       0    ; to [65] if true
4E71  1A001580           [064] jmp        85           ; to [150]
4E75  9D810000           [065] getglobal  6   2        ; 1074689893
4E79  D3018002           [066] getupval   7   5      
4E7D  A2810001           [067] call       6   2   2  
4E81  98010000           [068] test       6       0    ; to [70] if true
4E85  1A800180           [069] jmp        7            ; to [77]
4E89  93010003           [070] getupval   6   6      
4E8D  8E814303           [071] gettable   6   6   270  ; -1827748401
4E91  D9C10300           [072] loadk      7   15       ; "PlayerCamera"
4E95  1D020400           [073] getglobal  8   16       ; gBackgroundRegion
4E99  A2818001           [074] call       6   3   2  
fail op	8
4E9D  88018002           [075] setupval   6   5      
4EA1  1A001280           [076] jmp        73           ; to [150]
4EA5  9D810000           [077] getglobal  6   2        ; 1074689893
4EA9  D3010000           [078] getupval   7   0      
4EAD  CEC1C203           [079] gettable   7   7   267  ; 0
4EB1  A2810001           [080] call       6   2   2  
4EB5  98410000           [081] test       6       1    ; to [83] if false
4EB9  1A801080           [082] jmp        67           ; to [150]
4EBD  93010004           [083] getupval   6   8      
4EC1  98410000           [084] test       6       1    ; to [86] if false
4EC5  1AC00F80           [085] jmp        64           ; to [150]
4EC9  97018000           [086] loadbool   6   1   0    ; true
fail op	8
4ECD  88010004           [087] setupval   6   8      
4ED1  99410400           [088] loadk      6   17       ; 0
4ED5  D9C10200           [089] loadk      7   11       ; 0
4ED9  19820400           [090] loadk      8   18       ; 0
4EDD  59C20400           [091] loadk      9   19       ; 51
4EE1  93028002           [092] getupval   10  5      
4EE5  A4024505           [093] self       10  10  276  ; 1839670529
4EE9  A2820001           [094] call       10  2   2  
4EED  D3028002           [095] getupval   11  5      
4EF1  E442C505           [096] self       11  11  277  ; -231049143
4EF5  E2820001           [097] call       11  2   2  
4EF9  13030000           [098] getupval   12  0      
4EFD  0EC34206           [099] gettable   12  12  267  ; 0
4F01  0E834506           [100] gettable   12  12  278  ; "Ship"
4F05  24034506           [101] self       12  12  276  ; 1839670529
4F09  22830001           [102] call       12  2   2  
4F0D  5DC30500           [103] getglobal  13  23       ; 572299008
4F11  9D030600           [104] getglobal  14  24       ; 2144646525
4F15  D9430600           [105] loadk      15  25       ; 0
4F19  19440200           [106] loadk      16  9        ; 0
4F1D  A2838001           [107] call       14  3   2  
4F21  DD030600           [108] getglobal  15  24       ; 2144646525
4F25  19840600           [109] loadk      16  26       ; 0
4F29  59C40600           [110] loadk      17  27       ; 0
4F2D  E2838001           [111] call       15  3   2  
4F31  19040700           [112] loadk      16  28       ; 0
4F35  62830002           [113] call       13  4   2  
4F39  0D430306           [114] sub        12  12  13 
4F3D  5D430700           [115] getglobal  13  29       ; -304944129
4F41  92030006           [116] move       14  12     
4F45  D3030000           [117] getupval   15  0      
4F49  CEC3C207           [118] gettable   15  15  267  ; 0
4F4D  CE83C507           [119] gettable   15  15  278  ; "Ship"
4F51  E403C507           [120] self       15  15  276  ; 1839670529
4F55  E2030001           [121] call       15  2   0  
4F59  62830000           [122] call       13  0   2  
4F5D  A5030000           [123] closure    14  0      
4F61  13008002           [124] getupval   0   5      
4F65  12000003           [125] move       0   6      
4F69  12000004           [126] move       0   8      
4F6D  12008003           [127] move       0   7      
4F71  12008004           [128] move       0   9      
4F75  12000005           [129] move       0   10     
4F79  12000006           [130] move       0   12     
4F7D  12008005           [131] move       0   11     
4F81  12008006           [132] move       0   13     
4F85  DD830700           [133] getglobal  15  30       ; 1390508688
4F89  1DC40000           [134] getglobal  16  3        ; mMovie
4F8D  59C40700           [135] loadk      17  31       ; "_root"
4F91  9D040800           [136] getglobal  18  32       ; UISys
4F95  8E444809           [137] gettable   18  18  289  ; "FlashInstance_EASE_IN_OUT_BACK"
4F99  CB048000           [138] newtable   19  1   0    ; array=1, hash=0
4F9D  12050007           [139] move       20  14     
4FA1  DB448000           [140] setlist    19  1   1    ; index 1 to 1
4FA5  0B058000           [141] newtable   20  1   0    ; array=1, hash=0
4FA9  59C50200           [142] loadk      21  11       ; 0
4FAD  1B458000           [143] setlist    20  1   1    ; index 1 to 1
4FB1  59850800           [144] loadk      21  34       ; -102
4FB5  99450200           [145] loadk      22  9        ; 0
4FB9  E5450000           [146] closure    23  1      
4FBD  13000004           [147] getupval   0   8      
4FC1  E2438004           [148] call       15  9   1  
4FC5  91010000           [149] close      6  
4FC9  93018004           [150] getupval   6   9      
4FCD  98410000           [151] test       6       1    ; to [153] if false
4FD1  1AC00680           [152] jmp        28           ; to [181]
4FD5  9D010000           [153] getglobal  6   0        ; gClient
4FD9  A4C14803           [154] self       6   6   291  ; 739620187
4FDD  A2810001           [155] call       6   2   2  
4FE1  98010000           [156] test       6       0    ; to [158] if true
4FE5  1A800580           [157] jmp        23           ; to [181]
4FE9  9D810000           [158] getglobal  6   2        ; 1074689893
4FED  DD010400           [159] getglobal  7   16       ; gBackgroundRegion
4FF1  A2810001           [160] call       6   2   2  
4FF5  98410000           [161] test       6       1    ; to [163] if false
4FF9  1A400480           [162] jmp        18           ; to [181]
4FFD  9D010400           [163] getglobal  6   16       ; gBackgroundRegion
5001  A4014903           [164] self       6   6   292  ; -1485896174
5005  1D420900           [165] getglobal  8   37       ; -332969190
5009  59820900           [166] loadk      9   38       ; "LisetSequencer"
500D  22020001           [167] call       8   2   0  
5011  A2810000           [168] call       6   0   2  
5015  DDC10900           [169] getglobal  7   39       ; 1672515847
5019  12020003           [170] move       8   6      
501D  E2010101           [171] call       7   2   4  
5021  1AC00080           [172] jmp        4            ; to [177]
5025  2403CA05           [173] self       12  11  296  ; 766584623
5029  22430001           [174] call       12  2   1  
502D  2443CA05           [175] self       12  11  297  ; -974578778
5031  22430001           [176] call       12  2   1  
5035  D6810000           [177] tforloop   7       2    ; to [179] if exit
5039  1A40FE7F           [178] jmp        -6           ; to [173]
503D  17038000           [179] loadbool   12  1   0    ; true
fail op	8
5041  08038004           [180] setupval   12  9      
5045  1D030000           [181] getglobal  12  0        ; gClient
5049  24834A06           [182] self       12  12  298  ; 1948387007
504D  22830001           [183] call       12  2   2  
5051  53030005           [184] getupval   13  10     
fail op	35
5055  63008306           [185] close      1  
5059  1A400180           [186] jmp        6            ; to [193]
fail op	8
505D  08030005           [187] setupval   12  10     
5061  5DC30000           [188] getglobal  13  3        ; mMovie
5065  64C3CA06           [189] self       13  13  299  ; 386043535
5069  D9030B00           [190] loadk      15  44       ; "Task.text"
506D  12040006           [191] move       16  12     
5071  62430002           [192] call       13  4   1  
5075  5D030000           [193] getglobal  13  0        ; gClient
5079  6443CB06           [194] self       13  13  301  ; -114003937
507D  62830001           [195] call       13  2   2  
5081  9D830000           [196] getglobal  14  2        ; 1074689893
5085  DD830B00           [197] getglobal  15  46       ; gGameRules
5089  A2830001           [198] call       14  2   2  
508D  98430000           [199] test       14      1    ; to [201] if false
5091  1A000180           [200] jmp        5            ; to [206]
5095  9D830B00           [201] getglobal  14  46       ; gGameRules
5099  A4C34B07           [202] self       14  14  303  ; -1957065004
509D  1D040C00           [203] getglobal  16  48       ; gLotusAttractModeGameRulesType
50A1  A2838001           [204] call       14  3   2  
50A5  1A400080           [205] jmp        2            ; to [208]
50A9  97430000           [206] loadbool   14  0   1    ; false, to [208]
50AD  97038000           [207] loadbool   14  1   0    ; true
50B1  98030000           [208] test       14      0    ; to [210] if true
50B5  1A800280           [209] jmp        11           ; to [221]
50B9  DD830000           [210] getglobal  15  2        ; 1074689893
50BD  1D440C00           [211] getglobal  16  49       ; _T
50C1  0E844C08           [212] gettable   16  16  306  ; "BackgroundMovie"
50C5  E2830001           [213] call       15  2   2  
50C9  D8430000           [214] test       15      1    ; to [216] if false
50CD  1A000180           [215] jmp        5            ; to [221]
50D1  C4C3CC06           [216] mul        15  13  307  ; -51
50D5  1D440C00           [217] getglobal  16  49       ; _T
50D9  0E044D08           [218] gettable   16  16  308  ; "MENU_SUIT_AVATAR_PROGRESS"
50DD  04444D08           [219] mul        16  16  309  ; -51
50E1  43038407           [220] add        13  15  16 
50E5  DD030000           [221] getglobal  15  0        ; gClient
50E9  E4C3C807           [222] self       15  15  291  ; 739620187
50ED  E2830001           [223] call       15  2   2  
50F1  D8430000           [224] test       15      1    ; to [226] if false
50F5  1A800080           [225] jmp        3            ; to [229]
fail op	33
50F9  21408385           [226] tforloop   0       13   ; to [228] if exit
50FD  1A000080           [227] jmp        1            ; to [229]
5101  59430200           [228] loadk      13  9        ; 0
5105  DD830D00           [229] getglobal  15  54       ; 1668611480
5109  04C4CD06           [230] mul        16  13  311  ; 0
510D  53048005           [231] getupval   17  11     
5111  99C40D00           [232] loadk      18  55       ; 0
5115  E2830002           [233] call       15  4   2  
5119  13048005           [234] getupval   16  11     
511D  0D048407           [235] sub        16  15  16 
fail op	21
5121  15008485           [236] concat     0   267 16 
5125  1A800380           [237] jmp        15           ; to [253]
fail op	8
5129  C8038005           [238] setupval   15  11     
512D  1D840700           [239] getglobal  16  30       ; 1390508688
5131  5DC40000           [240] getglobal  17  3        ; mMovie
5135  99040E00           [241] loadk      18  56       ; "Progress.Bar.Fill"
5139  DD040800           [242] getglobal  19  32       ; UISys
513D  CE44CE09           [243] gettable   19  19  313  ; "FlashInstance_EASE_OUT"
5141  0B058000           [244] newtable   20  1   0    ; array=1, hash=0
5145  59850E00           [245] loadk      21  58       ; "_width"
5149  1B458000           [246] setlist    20  1   1    ; index 1 to 1
514D  4B058000           [247] newtable   21  1   0    ; array=1, hash=0
5151  93058005           [248] getupval   22  11     
5155  5B458000           [249] setlist    21  1   1    ; index 1 to 1
5159  99C50E00           [250] loadk      22  59       ; -102
515D  D9450200           [251] loadk      23  9        ; 0
5161  22440004           [252] call       16  8   1  
5165  17040000           [253] loadbool   16  0   0    ; false
5169  5D040100           [254] getglobal  17  4        ; gRegion
516D  6404CF08           [255] self       17  17  316  ; -23616965
5171  62840001           [256] call       17  2   2  
5175  9D840000           [257] getglobal  18  2        ; 1074689893
5179  D2048008           [258] move       19  17     
517D  A2840001           [259] call       18  2   2  
5181  98440000           [260] test       18      1    ; to [262] if false
5185  1A000180           [261] jmp        5            ; to [267]
5189  8A048008           [262] len        18  17     
fail op	21
518D  55808484           [263] concat     1   265 18 
5191  1A000080           [264] jmp        1            ; to [266]
5195  17440000           [265] loadbool   16  0   1    ; false, to [267]
5199  17048000           [266] loadbool   16  1   0    ; true
519D  8B040000           [267] newtable   18  0   0    ; array=0, hash=0
51A1  DDC40900           [268] getglobal  19  39       ; 1672515847
51A5  12058000           [269] move       20  1      
51A9  E2040101           [270] call       19  2   4  
51AD  1AC00280           [271] jmp        12           ; to [284]
51B1  1D460F00           [272] getglobal  24  61       ; -1615931716
51B5  4E86CF0B           [273] gettable   25  23  318  ; "userName"
51B9  22860001           [274] call       24  2   2  
51BD  53060006           [275] getupval   25  12     
51C1  4EC6CF0C           [276] gettable   25  25  319  ; "HIDDEN_PLAYER_NAME"
fail op	35
51C5  6340060C           [277] close      1  
51C9  1A000180           [278] jmp        5            ; to [284]
51CD  1D061000           [279] getglobal  24  64       ; table
51D1  0E46500C           [280] gettable   24  24  321  ; -431682403
51D5  52060009           [281] move       25  18     
51D9  9206800B           [282] move       26  23     
51DD  22468001           [283] call       24  3   1  
51E1  D6840000           [284] tforloop   19      2    ; to [286] if exit
51E5  1A40FC7F           [285] jmp        -14          ; to [272]
51E9  0A060009           [286] len        24  18     
fail op	33
51ED  61C0420C           [287] tforloop   1       267  ; to [289] if exit
51F1  1A000080           [288] jmp        1            ; to [290]
51F5  17460000           [289] loadbool   24  0   1    ; false, to [291]
51F9  17068000           [290] loadbool   24  1   0    ; true
51FD  5D861000           [291] getglobal  25  66       ; gPlayerProfileMgr
5201  64C6D00C           [292] self       25  25  323  ; 569342746
5205  D9460200           [293] loadk      27  9        ; 0
5209  62868001           [294] call       25  3   2  
520D  9D860000           [295] getglobal  26  2        ; 1074689893
5211  D206800C           [296] move       27  25     
5215  A2860001           [297] call       26  2   2  
5219  98060000           [298] test       26      0    ; to [300] if true
521D  1A000080           [299] jmp        1            ; to [301]
5221  17068000           [300] loadbool   24  1   0    ; true
5225  18060000           [301] test       24      0    ; to [303] if true
5229  1A400280           [302] jmp        10           ; to [313]
522D  99460400           [303] loadk      26  17       ; 0
5231  D3068006           [304] getupval   27  13     
5235  19C70200           [305] loadk      28  11       ; 0
5239  90C60080           [306] forprep    26  4        ; to [311]
523D  93070007           [307] getupval   30  14     
5241  D207800E           [308] move       31  29     
5245  17080000           [309] loadbool   32  0   0    ; false
5249  A2478001           [310] call       30  3   1  
524D  9486FE7F           [311] forloop    26  -5       ; to [307] if loop
5251  1A806480           [312] jmp        403          ; to [716]
5255  8607000F           [313] loadnil    30  30     
5259  E407D10C           [314] self       31  25  324  ; 340404473
525D  E2870001           [315] call       31  2   2  
5261  0B080000           [316] newtable   32  0   0    ; array=0, hash=0
5265  46088010           [317] loadnil    33  33     
5269  9DC80900           [318] getglobal  34  39       ; 1672515847
526D  D2080009           [319] move       35  18     
5271  A2080101           [320] call       34  2   4  
5275  1A400480           [321] jmp        18           ; to [340]
5279  CE894F13           [322] gettable   39  38  318  ; "userName"
527D  E449D113           [323] self       39  39  325  ; 1590141906
5281  E2890001           [324] call       39  2   2  
5285  52088013           [325] move       33  39     
fail op	35
5289  63C08710           [326] close      1  
528D  1AC00280           [327] jmp        12           ; to [340]
5291  D3098007           [328] getupval   39  15     
5295  120A8010           [329] move       40  33     
5299  E2890001           [330] call       39  2   2  
fail op	35
529D  6340C013           [331] close      1  
52A1  1A800180           [332] jmp        7            ; to [340]
52A5  1D0A1000           [333] getglobal  40  64       ; table
52A9  0E4A5014           [334] gettable   40  40  321  ; -431682403
52AD  520A0010           [335] move       41  32     
52B1  8B8A0000           [336] newtable   42  0   2    ; array=0, hash=2
52B5  8C4A08A3           [337] settable   42  326 33   ; "Name"
52B9  8C8A89A3           [338] settable   42  327 38   ; "Data"
52BD  224A8001           [339] call       40  3   1  
52C1  96880000           [340] tforloop   34      2    ; to [342] if exit
52C5  1AC0FA7F           [341] jmp        -20          ; to [322]
52C9  0A0A0010           [342] len        40  32     
52CD  530A0008           [343] getupval   41  16     
52D1  8A0A0010           [344] len        42  32     
fail op	35
52D5  63808A14           [345] close      1  
52D9  1A801980           [346] jmp        103          ; to [450]
52DD  590A1200           [347] loadk      41  72       ; 0
52E1  8DCA4214           [348] sub        42  40  267  ; 0
52E5  844A0A15           [349] mul        42  42  41 
52E9  844A5215           [350] mul        42  42  329  ; 0
fail op	0
52ED  800A0015           [351] move       42  42     
52F1  D9CA0200           [352] loadk      43  11       ; 0
52F5  130B8006           [353] getupval   44  13     
52F9  0DCB4216           [354] sub        44  44  267  ; 0
52FD  59CB0200           [355] loadk      45  11       ; 0
5301  D08A1680           [356] forprep    43  91       ; to [448]
5305  D98B1200           [357] loadk      47  74       ; "Progress.Player"
5309  120C0017           [358] move       48  46     
530D  82078C17           [359] concat     30  47  48 
fail op	33
5311  21000A17           [360] tforloop   0       40   ; to [362] if exit
5315  1AC01180           [361] jmp        72           ; to [434]
5319  DDCB0000           [362] getglobal  47  3        ; mMovie
531D  E4CBD217           [363] self       47  47  331  ; -2013161817
5321  520C000F           [364] move       49  30     
5325  998C1100           [365] loadk      50  70       ; "Name"
5329  D98C0E00           [366] loadk      51  58       ; "_width"
532D  0D0DD314           [367] sub        52  41  332  ; 0
5331  E24B0003           [368] call       47  6   1  
5335  DDCB0000           [369] getglobal  47  3        ; mMovie
5339  E4CBD217           [370] self       47  47  331  ; -2013161817
533D  520C000F           [371] move       49  30     
5341  998C1100           [372] loadk      50  70       ; "Name"
5345  D94C1300           [373] loadk      51  77       ; "_x"
5349  0D0DD314           [374] sub        52  41  332  ; 0
fail op	0
534D  000D001A           [375] move       52  52     
5351  1C4D441A           [376] div        52  52  273  ; 0
5355  E24B0003           [377] call       47  6   1  
5359  DD8B1300           [378] getglobal  47  78       ; Engine
535D  CECBD317           [379] gettable   47  47  335  ; 328784635
5361  E28B8000           [380] call       47  1   2  
5365  D80B0000           [381] test       47      0    ; to [383] if true
5369  1A000480           [382] jmp        17           ; to [400]
536D  DDCB0000           [383] getglobal  47  3        ; mMovie
5371  E4CBD217           [384] self       47  47  331  ; -2013161817
5375  520C000F           [385] move       49  30     
5379  998C1100           [386] loadk      50  70       ; "Name"
537D  D90C1400           [387] loadk      51  80       ; "multiline"
5381  170D8000           [388] loadbool   52  1   0    ; true
5385  E24B0003           [389] call       47  6   1  
5389  DDCB0000           [390] getglobal  47  3        ; mMovie
538D  E44BD417           [391] self       47  47  337  ; -693657623
5391  520C000F           [392] move       49  30     
5395  998C1400           [393] loadk      50  82       ; ".Name"
5399  428C8C18           [394] concat     49  49  50 
539D  99CC1400           [395] loadk      50  83       ; "text"
53A1  CE8C0B10           [396] gettable   51  32  46 
53A5  CE8CD119           [397] gettable   51  51  326  ; "Name"
53A9  E24B8002           [398] call       47  5   1  
53AD  1A400280           [399] jmp        10           ; to [410]
53B1  D30B0003           [400] getupval   47  6      
53B5  CE0BD517           [401] gettable   47  47  340  ; 336285225
53B9  1DCC0000           [402] getglobal  48  3        ; mMovie
53BD  520C000F           [403] move       49  30     
53C1  998C1400           [404] loadk      50  82       ; ".Name"
53C5  428C8C18           [405] concat     49  49  50 
53C9  8E8C0B10           [406] gettable   50  32  46 
53CD  8E8C5119           [407] gettable   50  50  326  ; "Name"
53D1  D94C1500           [408] loadk      51  85       ; "..."
53D5  E24B8002           [409] call       47  5   1  
53D9  DD8B0700           [410] getglobal  47  30       ; 1390508688
53DD  1DCC0000           [411] getglobal  48  3        ; mMovie
53E1  520C000F           [412] move       49  30     
53E5  9D0C0800           [413] getglobal  50  32       ; UISys
53E9  8E4C4E19           [414] gettable   50  50  313  ; "FlashInstance_EASE_OUT"
53ED  CB0C0001           [415] newtable   51  2   0    ; array=2, hash=0
53F1  198D1500           [416] loadk      52  86       ; "_alpha"
53F5  594D1300           [417] loadk      53  77       ; "_x"
53F9  DB4C0001           [418] setlist    51  2   1    ; index 1 to 2
53FD  0B0D0001           [419] newtable   52  2   0    ; array=2, hash=0
5401  59CD0D00           [420] loadk      53  55       ; 0
5405  8DCD4217           [421] sub        54  46  267  ; 0
5409  844D0A1B           [422] mul        54  54  41 
540D  838D0D15           [423] add        54  42  54 
5411  1B4D0001           [424] setlist    52  2   1    ; index 1 to 2
5415  59CD1500           [425] loadk      53  87       ; 0
5419  994D0200           [426] loadk      54  9        ; 0
541D  E24B0004           [427] call       47  8   1  
5421  D30B8008           [428] getupval   47  17     
5425  120C000F           [429] move       48  30     
5429  4E8C0B10           [430] gettable   49  32  46 
542D  4E8CD118           [431] gettable   49  49  326  ; "Name"
5431  E24B8001           [432] call       47  3   1  
5435  1A400380           [433] jmp        14           ; to [448]
5439  DD8B0700           [434] getglobal  47  30       ; 1390508688
543D  1DCC0000           [435] getglobal  48  3        ; mMovie
5441  520C000F           [436] move       49  30     
5445  9D0C0800           [437] getglobal  50  32       ; UISys
5449  8E4C4E19           [438] gettable   50  50  313  ; "FlashInstance_EASE_OUT"
544D  CB0C8000           [439] newtable   51  1   0    ; array=1, hash=0
5451  198D1500           [440] loadk      52  86       ; "_alpha"
5455  DB4C8000           [441] setlist    51  1   1    ; index 1 to 1
5459  0B0D8000           [442] newtable   52  1   0    ; array=1, hash=0
545D  594D0200           [443] loadk      53  9        ; 0
5461  1B4D8000           [444] setlist    52  1   1    ; index 1 to 1
5465  59CD0E00           [445] loadk      53  59       ; -102
5469  994D0200           [446] loadk      54  9        ; 0
546D  E24B0004           [447] call       47  8   1  
5471  D4CAE87F           [448] forloop    43  -92      ; to [357] if loop
fail op	8
5475  080A0008           [449] setupval   40  16     
5479  D9CB0200           [450] loadk      47  11       ; 0
547D  120C0014           [451] move       48  40     
5481  59CC0200           [452] loadk      49  11       ; 0
5485  D08B0980           [453] forprep    47  39       ; to [493]
5489  D30C0009           [454] getupval   51  18     
548D  CE8C8C19           [455] gettable   51  51  50 
fail op	35
5491  2340C019           [456] close      0  
5495  1A400080           [457] jmp        2            ; to [460]
5499  D30C0009           [458] getupval   51  18     
549D  CC4C4219           [459] settable   51  50  265  ; 0
54A1  D30C0009           [460] getupval   51  18     
54A5  CE8C8C19           [461] gettable   51  51  50 
54A9  0E8D0C10           [462] gettable   52  32  50 
54AD  0ECD511A           [463] gettable   52  52  327  ; "Data"
54B1  0E0D561A           [464] gettable   52  52  344  ; "progress"
fail op	21
54B5  15008D19           [465] concat     0   51  52 
54B9  1A000380           [466] jmp        13           ; to [480]
54BD  D30C0009           [467] getupval   51  18     
54C1  1D4D0100           [468] getglobal  52  5        ; math
54C5  0E8D411A           [469] gettable   52  52  262  ; 1710846250
54C9  530D0009           [470] getupval   53  18     
54CD  4E8D8C1A           [471] gettable   53  53  50 
54D1  9D0D0200           [472] getglobal  54  8        ; 1289681407
54D5  A28D8000           [473] call       54  1   2  
54D9  438D8D1A           [474] add        53  53  54 
54DD  8E8D0C10           [475] gettable   54  32  50 
54E1  8ECD511B           [476] gettable   54  54  327  ; "Data"
54E5  8E0D561B           [477] gettable   54  54  344  ; "progress"
54E9  228D8001           [478] call       52  3   2  
54ED  CC0C0D19           [479] settable   51  50  52 
54F1  DDCC0000           [480] getglobal  51  3        ; mMovie
54F5  E44CD619           [481] self       51  51  345  ; 808102703
54F9  598D1200           [482] loadk      53  74       ; "Progress.Player"
54FD  920D0019           [483] move       54  50     
5501  D98D1600           [484] loadk      55  90       ; ".Progress.Fill"
5505  42CD8D1A           [485] concat     53  53  55 
5509  99CD1600           [486] loadk      54  91       ; "AlphaTestThreshold"
550D  D30D0009           [487] getupval   55  18     
5511  CE8D8C1B           [488] gettable   55  55  50 
5515  194E0200           [489] loadk      56  9        ; 0
5519  594E0200           [490] loadk      57  9        ; 0
551D  994E0200           [491] loadk      58  9        ; 0
5521  E24C0004           [492] call       51  8   1  
5525  D4CBF57F           [493] forloop    47  -40      ; to [454] if loop
5529  D94C0400           [494] loadk      51  17       ; 0
552D  130D0000           [495] getupval   52  0      
5531  0A0D001A           [496] len        52  52     
5535  59CD0200           [497] loadk      53  11       ; 0
5539  D04C2C80           [498] forprep    51  178      ; to [677]
553D  C60D801B           [499] loadnil    55  55     
5541  130E0000           [500] getupval   56  0      
5545  0E8E0D1C           [501] gettable   56  56  54 
5549  0E0E571C           [502] gettable   56  56  348  ; "LowerName"
554D  5D4E1700           [503] getglobal  57  93       ; gMatchingService
5551  648ED71C           [504] self       57  57  350  ; -1985412809
5555  628E0001           [505] call       57  2   2  
5559  99CE0200           [506] loadk      58  11       ; 0
555D  CA0E801C           [507] len        59  57     
5561  19CF0200           [508] loadk      60  11       ; 0
5565  90CE0A80           [509] forprep    58  44       ; to [554]
5569  8E4F8F1C           [510] gettable   62  57  61 
556D  8ECF571F           [511] gettable   62  62  351  ; "isLocal"
5571  984F0000           [512] test       62      1    ; to [514] if false
5575  1AC00980           [513] jmp        40           ; to [554]
5579  9D0F1800           [514] getglobal  62  96       ; string
557D  8E4F581F           [515] gettable   62  62  353  ; -1110387163
5581  CE4F8F1C           [516] gettable   63  57  61 
5585  CE8FD81F           [517] gettable   63  63  354  ; "name"
5589  A28F0001           [518] call       62  2   2  
fail op	35
558D  23000E1F           [519] close      0  
5591  1AC00180           [520] jmp        8            ; to [529]
5595  DDCF1800           [521] getglobal  63  99       ; cjson
5599  CE0FD91F           [522] gettable   63  63  356  ; -1976663275
559D  0E508F1C           [523] gettable   64  57  61 
55A1  0E505920           [524] gettable   64  64  357  ; "loadout"
55A5  E28F0001           [525] call       63  2   2  
55A9  D20D801F           [526] move       55  63     
55AD  1A800680           [527] jmp        27           ; to [555]
55B1  1A000680           [528] jmp        25           ; to [554]
fail op	35
55B5  2340401C           [529] close      0  
55B9  1A800580           [530] jmp        23           ; to [554]
55BD  D70F0000           [531] loadbool   63  0   0    ; false
55C1  19500400           [532] loadk      64  17       ; 0
55C5  53100000           [533] getupval   65  0      
55C9  4A108020           [534] len        65  65     
55CD  99D00200           [535] loadk      66  11       ; 0
55D1  10900180           [536] forprep    64  7        ; to [544]
55D5  13110000           [537] getupval   68  0      
55D9  0ED11022           [538] gettable   68  68  67 
55DD  0E115722           [539] gettable   68  68  348  ; "LowerName"
fail op	35
55E1  23800F22           [540] close      0  
55E5  1A400080           [541] jmp        2            ; to [544]
55E9  D70F8000           [542] loadbool   63  1   0    ; true
55ED  1A000080           [543] jmp        1            ; to [545]
55F1  14D0FD7F           [544] forloop    64  -8       ; to [537] if loop
55F5  D84F0000           [545] test       63      1    ; to [547] if false
55F9  1A800180           [546] jmp        7            ; to [554]
55FD  1DD11800           [547] getglobal  68  99       ; cjson
5601  0E115922           [548] gettable   68  68  356  ; -1976663275
5605  4E518F1C           [549] gettable   69  57  61 
5609  4E51D922           [550] gettable   69  69  357  ; "loadout"
560D  22910001           [551] call       68  2   2  
5611  D20D0022           [552] move       55  68     
5615  120E001F           [553] move       56  62     
5619  948EF47F           [554] forloop    58  -45      ; to [510] if loop
fail op	35
561D  2340C01B           [555] close      0  
5621  1A400880           [556] jmp        34           ; to [591]
5625  13110000           [557] getupval   68  0      
5629  0E910D22           [558] gettable   68  68  54 
562D  0E915922           [559] gettable   68  68  358  ; "Visible"
5631  18110000           [560] test       68      0    ; to [562] if true
5635  1A000780           [561] jmp        29           ; to [591]
5639  13110000           [562] getupval   68  0      
563D  0E910D22           [563] gettable   68  68  54 
5641  0E115722           [564] gettable   68  68  348  ; "LowerName"
fail op	35
5645  63404022           [565] close      1  
5649  1AC00380           [566] jmp        16           ; to [583]
564D  1D510C00           [567] getglobal  68  49       ; _T
5651  0ED15922           [568] gettable   68  68  359  ; "UsedLisetCustomizations"
fail op	35
5655  63404022           [569] close      1  
5659  1AC00280           [570] jmp        12           ; to [583]
565D  1D510C00           [571] getglobal  68  49       ; _T
5661  0ED15922           [572] gettable   68  68  359  ; "UsedLisetCustomizations"
5665  0E115A22           [573] gettable   68  68  360  ; "Normal"
fail op	35
5669  63404022           [574] close      1  
566D  1A800180           [575] jmp        7            ; to [583]
5671  1D510C00           [576] getglobal  68  49       ; _T
5675  0ED15922           [577] gettable   68  68  359  ; "UsedLisetCustomizations"
5679  0E115A22           [578] gettable   68  68  360  ; "Normal"
567D  53110000           [579] getupval   69  0      
5681  4E918D22           [580] gettable   69  69  54 
5685  4E11D722           [581] gettable   69  69  348  ; "LowerName"
5689  0C51C022           [582] settable   68  69  257  ; nil
568D  13110000           [583] getupval   68  0      
5691  0E910D22           [584] gettable   68  68  54 
5695  0C5140AE           [585] settable   68  348 257  ; "LowerName" nil
5699  13110007           [586] getupval   68  14     
569D  5211001B           [587] move       69  54     
56A1  97110000           [588] loadbool   70  0   0    ; false
56A5  22518001           [589] call       68  3   1  
56A9  1A401580           [590] jmp        86           ; to [677]
fail op	35
56AD  6340C01B           [591] close      1  
56B1  1AC01480           [592] jmp        84           ; to [677]
56B5  13110000           [593] getupval   68  0      
56B9  0E910D22           [594] gettable   68  68  54 
56BD  0E915922           [595] gettable   68  68  358  ; "Visible"
56C1  18510000           [596] test       68      1    ; to [598] if false
56C5  1A801380           [597] jmp        79           ; to [677]
56C9  13118009           [598] getupval   68  19     
56CD  0E110E22           [599] gettable   68  68  56 
56D1  18510000           [600] test       68      1    ; to [602] if false
56D5  1A801280           [601] jmp        75           ; to [677]
56D9  0B110000           [602] newtable   68  0   0    ; array=0, hash=0
56DD  46110023           [603] loadnil    69  70     
56E1  DD910000           [604] getglobal  71  2        ; 1074689893
56E5  0E52DA1B           [605] gettable   72  55  361  ; "ShipType"
56E9  E2910001           [606] call       71  2   2  
56ED  D8510000           [607] test       71      1    ; to [609] if false
56F1  1AC00080           [608] jmp        4            ; to [613]
56F5  DD911A00           [609] getglobal  71  106      ; 738251817
56F9  0E52DA1B           [610] gettable   72  55  361  ; "ShipType"
56FD  E2910001           [611] call       71  2   2  
5701  52118023           [612] move       69  71     
5705  DD910000           [613] getglobal  71  2        ; 1074689893
5709  0ED2DA1B           [614] gettable   72  55  363  ; "ShipCustomizations"
570D  E2910001           [615] call       71  2   2  
5711  D8510000           [616] test       71      1    ; to [618] if false
5715  1A400580           [617] jmp        22           ; to [640]
5719  DD911A00           [618] getglobal  71  106      ; 738251817
571D  0ED2DA1B           [619] gettable   72  55  363  ; "ShipCustomizations"
5721  0E125B24           [620] gettable   72  72  364  ; "SkinFlavourItem"
5725  E2910001           [621] call       71  2   2  
5729  92118023           [622] move       70  71     
572D  DD910000           [623] getglobal  71  2        ; 1074689893
5731  12120023           [624] move       72  70     
5735  E2910001           [625] call       71  2   2  
5739  D8510000           [626] test       71      1    ; to [628] if false
573D  1AC00280           [627] jmp        12           ; to [640]
5741  DD511B00           [628] getglobal  71  109      ; _G
5745  CE91DB23           [629] gettable   71  71  366  ; "gLoadedShipSkinsFromDiorama"
5749  0ED2DA1B           [630] gettable   72  55  363  ; "ShipCustomizations"
574D  0E125B24           [631] gettable   72  72  364  ; "SkinFlavourItem"
5751  CE119223           [632] gettable   71  71  72 
5755  D8510000           [633] test       71      1    ; to [635] if false
5759  1A000180           [634] jmp        5            ; to [640]
575D  CA110022           [635] len        71  68     
5761  C3D1C223           [636] add        71  71  267  ; 0
5765  24D25B23           [637] self       72  70  367  ; 455421500
5769  22920001           [638] call       72  2   2  
576D  0C119223           [639] settable   68  71  72 
5771  DD910000           [640] getglobal  71  2        ; 1074689893
5775  12128022           [641] move       72  69     
5779  E2910001           [642] call       71  2   2  
577D  D8510000           [643] test       71      1    ; to [645] if false
5781  1A800280           [644] jmp        11           ; to [656]
5785  DD511B00           [645] getglobal  71  109      ; _G
5789  CE91DB23           [646] gettable   71  71  366  ; "gLoadedShipSkinsFromDiorama"
578D  0E52DA1B           [647] gettable   72  55  361  ; "ShipType"
5791  CE119223           [648] gettable   71  71  72 
5795  D8510000           [649] test       71      1    ; to [651] if false
5799  1A000180           [650] jmp        5            ; to [656]
579D  CA110022           [651] len        71  68     
57A1  C3D1C223           [652] add        71  71  267  ; 0
57A5  24D2DB22           [653] self       72  69  367  ; 455421500
57A9  22920001           [654] call       72  2   2  
57AD  0C119223           [655] settable   68  71  72 
57B1  CA110022           [656] len        71  68     
fail op	21
57B5  15C09184           [657] concat     0   265 71 
57B9  1A800280           [658] jmp        11           ; to [670]
57BD  D3118009           [659] getupval   71  19     
57C1  0BD20000           [660] newtable   72  0   3    ; array=0, hash=3
57C5  5D120800           [661] getglobal  73  32       ; UISys
57C9  4E52DC24           [662] gettable   73  73  369  ; 1151030240
57CD  92120022           [663] move       74  68     
57D1  62920001           [664] call       73  2   2  
57D5  0C5212B8           [665] settable   72  368 73   ; "Loader"
57D9  0C920DB9           [666] settable   72  370 54   ; "ShipIndex"
57DD  0C1291B9           [667] settable   72  371 68   ; "ThingsLoaded"
57E1  CC11121C           [668] settable   71  56  72 
57E5  1A800180           [669] jmp        7            ; to [677]
57E9  D3118009           [670] getupval   71  19     
57ED  0BD20000           [671] newtable   72  0   3    ; array=0, hash=3
57F1  0C5240B8           [672] settable   72  368 257  ; "Loader" nil
57F5  0C920DB9           [673] settable   72  370 54   ; "ShipIndex"
57F9  4B120000           [674] newtable   73  0   0    ; array=0, hash=0
57FD  0C5292B9           [675] settable   72  371 73   ; "ThingsLoaded"
5801  CC11121C           [676] settable   71  56  72 
5805  D40CD37F           [677] forloop    51  -179     ; to [499] if loop
5809  DD111D00           [678] getglobal  71  116      ; 248503575
580D  13128009           [679] getupval   72  19     
5811  E2110101           [680] call       71  2   4  
5815  1AC00780           [681] jmp        32           ; to [714]
5819  1D930000           [682] getglobal  76  2        ; 1074689893
581D  4E13DC25           [683] gettable   77  75  368  ; "Loader"
5821  22930001           [684] call       76  2   2  
5825  18530000           [685] test       76      1    ; to [687] if false
5829  1A000180           [686] jmp        5            ; to [692]
582D  0E13DC25           [687] gettable   76  75  368  ; "Loader"
5831  24535D26           [688] self       76  76  373  ; -1344420604
5835  22930001           [689] call       76  2   2  
5839  18130000           [690] test       76      0    ; to [692] if true
583D  1A400580           [691] jmp        22           ; to [714]
5841  13130000           [692] getupval   76  0      
5845  4E93DC25           [693] gettable   77  75  370  ; "ShipIndex"
5849  0E531326           [694] gettable   76  76  77 
584D  0C9312AE           [695] settable   76  348 74   ; "LowerName"
5851  13138009           [696] getupval   76  19     
5855  0C534025           [697] settable   76  74  257  ; nil
5859  13130007           [698] getupval   76  14     
585D  4E93DC25           [699] gettable   77  75  370  ; "ShipIndex"
5861  97138000           [700] loadbool   78  1   0    ; true
5865  D7138000           [701] loadbool   79  1   0    ; true
5869  22530002           [702] call       76  4   1  
586D  19D30200           [703] loadk      76  11       ; 0
5871  4ED3DC25           [704] gettable   77  75  371  ; "ThingsLoaded"
5875  4A138026           [705] len        77  77     
5879  99D30200           [706] loadk      78  11       ; 0
587D  10130180           [707] forprep    76  5        ; to [713]
5881  1D541B00           [708] getglobal  80  109      ; _G
5885  0E945B28           [709] gettable   80  80  366  ; "gLoadedShipSkinsFromDiorama"
5889  4ED4DC25           [710] gettable   81  75  371  ; "ThingsLoaded"
588D  4ED49328           [711] gettable   81  81  79 
5891  0C94DD28           [712] settable   80  81  374  ; 1
5895  1453FE7F           [713] forloop    76  -6       ; to [708] if loop
5899  D6910000           [714] tforloop   71      2    ; to [716] if exit
589D  1A40F77F           [715] jmp        -34          ; to [682]
58A1  1D940B00           [716] getglobal  80  46       ; gGameRules
58A5  5D940000           [717] getglobal  81  2        ; 1074689893
58A9  92140028           [718] move       82  80     
58AD  62940001           [719] call       81  2   2  
58B1  58140000           [720] test       81      0    ; to [722] if true
58B5  1A000080           [721] jmp        1            ; to [723]
58B9  1E008000           [722] return     0   1      
58BD  5314000A           [723] getupval   81  20     
58C1  58540000           [724] test       81      1    ; to [726] if false
58C5  1A001980           [725] jmp        101          ; to [827]
58C9  5DD41D00           [726] getglobal  81  119      ; gCmdLine
58CD  6414DE28           [727] self       81  81  376  ; 50918173
58D1  62940001           [728] call       81  2   2  
58D5  58540000           [729] test       81      1    ; to [731] if false
58D9  1AC01780           [730] jmp        96           ; to [827]
58DD  5DD40000           [731] getglobal  81  3        ; mMovie
58E1  6454DE28           [732] self       81  81  377  ; 1438910546
58E5  62940001           [733] call       81  2   2  
58E9  58540000           [734] test       81      1    ; to [736] if false
58ED  1A801680           [735] jmp        91           ; to [827]
58F1  5D140000           [736] getglobal  81  0        ; gClient
58F5  6494DE28           [737] self       81  81  378  ; -1110029355
58F9  62940001           [738] call       81  2   2  
58FD  58540000           [739] test       81      1    ; to [741] if false
5901  1A000180           [740] jmp        5            ; to [746]
5905  5D140000           [741] getglobal  81  0        ; gClient
5909  64D4DE28           [742] self       81  81  379  ; -106626290
590D  62940001           [743] call       81  2   2  
5911  58140000           [744] test       81      0    ; to [746] if true
5915  1A001480           [745] jmp        81           ; to [827]
fail op	5
5919  45140008           [746] getglobal  81  8192     ; nil
591D  1A400380           [747] jmp        14           ; to [762]
5921  5D940B00           [748] getglobal  81  46       ; gGameRules
5925  64D4CB28           [749] self       81  81  303  ; -1957065004
5929  DD140C00           [750] getglobal  83  48       ; gLotusAttractModeGameRulesType
592D  62948001           [751] call       81  3   2  
5931  58540000           [752] test       81      1    ; to [754] if false
5935  1AC00180           [753] jmp        8            ; to [762]
5939  5D940B00           [754] getglobal  81  46       ; gGameRules
593D  6414DF28           [755] self       81  81  380  ; 869879031
5941  62940001           [756] call       81  2   2  
5945  9314800A           [757] getupval   82  21     
fail op	35
5949  63809428           [758] close      1  
594D  1A000080           [759] jmp        1            ; to [761]
5951  57540000           [760] loadbool   81  0   1    ; false, to [762]
5955  57148000           [761] loadbool   81  1   0    ; true
5959  58140000           [762] test       81      0    ; to [764] if true
595D  1A800F80           [763] jmp        63           ; to [827]
5961  9D140000           [764] getglobal  82  0        ; gClient
5965  A4545F29           [765] self       82  82  381  ; 922334007
5969  A2940001           [766] call       82  2   2  
596D  98140000           [767] test       82      0    ; to [769] if true
5971  1A400E80           [768] jmp        58           ; to [827]
5975  9D940B00           [769] getglobal  82  46       ; gGameRules
5979  A4D44B29           [770] self       82  82  303  ; -1957065004
597D  1D150C00           [771] getglobal  84  48       ; gLotusAttractModeGameRulesType
5981  A2948001           [772] call       82  3   2  
5985  98140000           [773] test       82      0    ; to [775] if true
5989  1A400380           [774] jmp        14           ; to [789]
598D  9D940000           [775] getglobal  82  2        ; 1074689893
5991  DD540C00           [776] getglobal  83  49       ; _T
5995  CE94CC29           [777] gettable   83  83  306  ; "BackgroundMovie"
5999  A2940001           [778] call       82  2   2  
599D  98540000           [779] test       82      1    ; to [781] if false
59A1  1A400B80           [780] jmp        46           ; to [827]
59A5  9D540C00           [781] getglobal  82  49       ; _T
59A9  8E944C29           [782] gettable   82  82  306  ; "BackgroundMovie"
59AD  A4945F29           [783] self       82  82  382  ; 1167009705
59B1  19D51F00           [784] loadk      84  127      ; "IsMenuSuitAvatarShowing"
59B5  59152000           [785] loadk      85  128      ; ""
59B9  A2940002           [786] call       82  4   2  
59BD  98140000           [787] test       82      0    ; to [789] if true
59C1  1A400980           [788] jmp        38           ; to [827]
59C5  9314000B           [789] getupval   82  22     
fail op	21
59C9  15809484           [790] concat     0   265 82 
59CD  1A800280           [791] jmp        11           ; to [803]
59D1  9D541700           [792] getglobal  82  93       ; gMatchingService
59D5  A4546029           [793] self       82  82  385  ; 535483142
59D9  A2940001           [794] call       82  2   2  
59DD  98540000           [795] test       82      1    ; to [797] if false
59E1  1A400180           [796] jmp        6            ; to [803]
59E5  9314000B           [797] getupval   82  22     
59E9  DD942000           [798] getglobal  83  130      ; 1661359502
59ED  E2948000           [799] call       83  1   2  
59F1  8DD41429           [800] sub        82  82  83 
fail op	8
59F5  8814000B           [801] setupval   82  22     
59F9  1AC00580           [802] jmp        24           ; to [827]
59FD  9DD42000           [803] getglobal  82  131      ; -1817107093
5A01  D9142100           [804] loadk      83  132      ; "Starting Vignette close animation..."
5A05  A2540001           [805] call       82  2   1  
5A09  97148000           [806] loadbool   82  1   0    ; true
fail op	8
5A0D  8814000A           [807] setupval   82  20     
5A11  93148001           [808] getupval   82  3      
5A15  98140000           [809] test       82      0    ; to [811] if true
5A19  1A800080           [810] jmp        3            ; to [814]
5A1D  9D542100           [811] getglobal  82  133      ; dioramaFadeTime
fail op	8
5A21  8814800B           [812] setupval   82  23     
5A25  1A000380           [813] jmp        13           ; to [827]
5A29  97148000           [814] loadbool   82  1   0    ; true
fail op	8
5A2D  8814000C           [815] setupval   82  24     
5A31  9D942100           [816] getglobal  82  134      ; fadeTime
fail op	8
5A35  8814800B           [817] setupval   82  23     
5A39  99D40200           [818] loadk      82  11       ; 0
5A3D  CA148008           [819] len        83  17     
5A41  19D50200           [820] loadk      84  11       ; 0
5A45  90D40080           [821] forprep    82  4        ; to [826]
5A49  8E559508           [822] gettable   86  17  85 
5A4D  E4D5612B           [823] self       87  86  391  ; -487914330
5A51  57168000           [824] loadbool   89  1   0    ; true
5A55  E2558001           [825] call       87  3   1  
5A59  9494FE7F           [826] forloop    82  -5       ; to [822] if loop
5A5D  D315000A           [827] getupval   87  20     
5A61  D8150000           [828] test       87      0    ; to [830] if true
5A65  1AC00B80           [829] jmp        48           ; to [878]
5A69  D315000C           [830] getupval   87  24     
5A6D  D8550000           [831] test       87      1    ; to [833] if false
5A71  1A000B80           [832] jmp        45           ; to [878]
5A75  D315800B           [833] getupval   87  23     
5A79  CD15802B           [834] sub        87  87  0  
fail op	8
5A7D  C815800B           [835] setupval   87  23     
5A81  DD950D00           [836] getglobal  87  54       ; 1668611480
5A85  1316800B           [837] getupval   88  23     
5A89  5D562100           [838] getglobal  89  133      ; dioramaFadeTime
5A8D  1C56162C           [839] div        88  88  89 
5A91  0D169685           [840] sub        88  267 88   ; 0
5A95  59560200           [841] loadk      89  9        ; 0
5A99  99D60200           [842] loadk      90  11       ; 0
5A9D  E2950002           [843] call       87  4   2  
5AA1  1DD60000           [844] getglobal  88  3        ; mMovie
5AA5  2416622C           [845] self       88  88  392  ; -403402525
5AA9  9216802B           [846] move       90  87     
5AAD  22568001           [847] call       88  3   1  
5AB1  1DD60000           [848] getglobal  88  3        ; mMovie
5AB5  2456622C           [849] self       88  88  393  ; 471456102
5AB9  99D60700           [850] loadk      90  31       ; "_root"
5ABD  D9961500           [851] loadk      91  86       ; "_alpha"
5AC1  0DD79585           [852] sub        92  267 87   ; 0
5AC5  04D74D2E           [853] mul        92  92  311  ; 0
5AC9  22568002           [854] call       88  5   1  
5ACD  1316800B           [855] getupval   88  23     
fail op	33
5AD1  2140422C           [856] tforloop   0       265  ; to [858] if exit
5AD5  1AC00480           [857] jmp        20           ; to [878]
5AD9  1316800C           [858] getupval   88  25     
5ADD  18160000           [859] test       88      0    ; to [861] if true
5AE1  1AC00080           [860] jmp        4            ; to [865]
5AE5  1316800C           [861] getupval   88  25     
5AE9  2496622C           [862] self       88  88  394  ; 252425949
5AED  8616002D           [863] loadnil    90  90     
5AF1  22568001           [864] call       88  3   1  
5AF5  17168000           [865] loadbool   88  1   0    ; true
fail op	8
5AF9  0816000C           [866] setupval   88  24     
5AFD  1D962100           [867] getglobal  88  134      ; fadeTime
fail op	8
5B01  0816800B           [868] setupval   88  23     
5B05  19D60200           [869] loadk      88  11       ; 0
5B09  4A168008           [870] len        89  17     
5B0D  99D60200           [871] loadk      90  11       ; 0
5B11  10D60080           [872] forprep    88  4        ; to [877]
5B15  0ED79608           [873] gettable   92  17  91 
5B19  64D7612E           [874] self       93  92  391  ; -487914330
5B1D  D7178000           [875] loadbool   95  1   0    ; true
5B21  62578001           [876] call       93  3   1  
5B25  1496FE7F           [877] forloop    88  -5       ; to [873] if loop
5B29  5317000C           [878] getupval   93  24     
5B2D  58170000           [879] test       93      0    ; to [881] if true
5B31  1AC00A80           [880] jmp        44           ; to [925]
5B35  5D570C00           [881] getglobal  93  49       ; _T
5B39  4C97DDC5           [882] settable   93  395 374  ; "LoadingScreenTransOut" 1
5B3D  18060000           [883] test       24      0    ; to [885] if true
5B41  1A800180           [884] jmp        7            ; to [892]
5B45  5DD70000           [885] getglobal  93  3        ; mMovie
5B49  6457E22E           [886] self       93  93  393  ; 471456102
5B4D  D9172300           [887] loadk      95  140      ; "Progress"
5B51  19582300           [888] loadk      96  141      ; "_visible"
5B55  57180000           [889] loadbool   97  0   0    ; false
5B59  62578002           [890] call       93  5   1  
5B5D  1A000180           [891] jmp        5            ; to [897]
5B61  5D972300           [892] getglobal  93  142      ; -1939558487
5B65  9DD70000           [893] getglobal  94  3        ; mMovie
5B69  D9D72300           [894] loadk      95  143      ; "Progress.Player1.Progress.gotoAndStop"
5B6D  19182400           [895] loadk      96  144      ; 0
5B71  62570002           [896] call       93  4   1  
5B75  5DD70000           [897] getglobal  93  3        ; mMovie
5B79  6457E22E           [898] self       93  93  393  ; 471456102
5B7D  D9572400           [899] loadk      95  145      ; "Loading"
5B81  19582300           [900] loadk      96  141      ; "_visible"
5B85  57180000           [901] loadbool   97  0   0    ; false
5B89  62578002           [902] call       93  5   1  
5B8D  5317800B           [903] getupval   93  23     
5B91  4D17802E           [904] sub        93  93  0  
fail op	8
5B95  4817800B           [905] setupval   93  23     
5B99  5D970D00           [906] getglobal  93  54       ; 1668611480
5B9D  9317800B           [907] getupval   94  23     
5BA1  DD972100           [908] getglobal  95  134      ; fadeTime
5BA5  9CD7172F           [909] div        94  94  95 
5BA9  D9570200           [910] loadk      95  9        ; 0
5BAD  19D80200           [911] loadk      96  11       ; 0
5BB1  62970002           [912] call       93  4   2  
5BB5  9DD70000           [913] getglobal  94  3        ; mMovie
5BB9  A417622F           [914] self       94  94  392  ; -403402525
5BBD  1218802E           [915] move       96  93     
5BC1  A2578001           [916] call       94  3   1  
5BC5  9317800B           [917] getupval   94  23     
fail op	33
5BC9  2140422F           [918] tforloop   0       265  ; to [920] if exit
5BCD  1A000180           [919] jmp        5            ; to [925]
5BD1  9D570C00           [920] getglobal  94  49       ; _T
5BD5  8C57C0C5           [921] settable   94  395 257  ; "LoadingScreenTransOut" nil
5BD9  9DD70000           [922] getglobal  94  3        ; mMovie
5BDD  A497642F           [923] self       94  94  402  ; -1517569684
5BE1  A2570001           [924] call       94  2   1  
5BE5  1E008000           [925] return     0   1      
                         * constants:
5BEA  01                 sizek (147)
5BEB  04                 const type 4
5BEC  08                 string size (8)
5BED  67436C69656E7400   "gClient\0"
                         const [0]: "gClient"
5BF5  00                 const type 0
                         const [1]: nil
5BF6  01                 const type 3
5BF7  65770E40           const [2]: (1074689893)
5BFB  04                 const type 4
5BFC  07                 string size (7)
5BFD  6D4D6F76696500     "mMovie\0"
                         const [3]: "mMovie"
5C04  04                 const type 4
5C05  08                 string size (8)
5C06  67526567696F6E00   "gRegion\0"
                         const [4]: "gRegion"
5C0E  04                 const type 4
5C0F  05                 string size (5)
5C10  6D61746800         "math\0"
                         const [5]: "math"
5C15  01                 const type 3
5C16  2A71F965           const [6]: (1710846250)
5C1A  03                 const type 3
5C1B  8988083D           const [7]: (-119)
5C1F  01                 const type 3
5C20  FFF9DE4C           const [8]: (1289681407)
5C24  03                 const type 3
5C25  00000000           const [9]: (0)
5C29  01                 const type 3
5C2A  0CC955F6           const [10]: (-162150132)
5C2E  03                 const type 3
5C2F  0000803F           const [11]: (0)
5C33  01                 const type 3
5C34  1A6B0D08           const [12]: (135097114)
5C38  01                 const type 3
5C39  E999708C           const [13]: (-1938777623)
5C3D  01                 const type 3
5C3E  CFC50E93           const [14]: (-1827748401)
5C42  04                 const type 4
5C43  0D                 string size (13)
5C44  506C617965724361+  "PlayerCa"
5C4C  6D65726100         "mera\0"
                         const [15]: "PlayerCamera"
5C51  04                 const type 4
5C52  12                 string size (18)
5C53  674261636B67726F+  "gBackgro"
5C5B  756E64526567696F+  "undRegio"
5C63  6E00               "n\0"
                         const [16]: "gBackgroundRegion"
5C65  03                 const type 3
5C66  00000040           const [17]: (0)
5C6A  03                 const type 3
5C6B  0000D040           const [18]: (0)
5C6F  03                 const type 3
5C70  33333340           const [19]: (51)
5C74  01                 const type 3
5C75  0125A76D           const [20]: (1839670529)
5C79  01                 const type 3
5C7A  49783AF2           const [21]: (-231049143)
5C7E  04                 const type 4
5C7F  05                 string size (5)
5C80  5368697000         "Ship\0"
                         const [22]: "Ship"
5C85  01                 const type 3
5C86  00971C22           const [23]: (572299008)
5C8A  01                 const type 3
5C8B  7DB5D47F           const [24]: (2144646525)
5C8F  03                 const type 3
5C90  000040C1           const [25]: (0)
5C94  03                 const type 3
5C95  0000C0C0           const [26]: (0)
5C99  03                 const type 3
5C9A  00004040           const [27]: (0)
5C9E  03                 const type 3
5C9F  0000C841           const [28]: (0)
5CA3  01                 const type 3
5CA4  FFEBD2ED           const [29]: (-304944129)
5CA8  01                 const type 3
5CA9  907AE152           const [30]: (1390508688)
5CAD  04                 const type 4
5CAE  06                 string size (6)
5CAF  5F726F6F7400       "_root\0"
                         const [31]: "_root"
5CB5  04                 const type 4
5CB6  06                 string size (6)
5CB7  554953797300       "UISys\0"
                         const [32]: "UISys"
5CBD  04                 const type 4
5CBE  1F                 string size (31)
5CBF  466C617368496E73+  "FlashIns"
5CC7  74616E63655F4541+  "tance_EA"
5CCF  53455F494E5F4F55+  "SE_IN_OU"
5CD7  545F4241434B00     "T_BACK\0"
                         const [33]: "FlashInstance_EASE_IN_OUT_BACK"
5CDE  03                 const type 3
5CDF  9A990940           const [34]: (-102)
5CE3  01                 const type 3
5CE4  5BB5152C           const [35]: (739620187)
5CE8  01                 const type 3
5CE9  12066FA7           const [36]: (-1485896174)
5CED  01                 const type 3
5CEE  1A4B27EC           const [37]: (-332969190)
5CF2  04                 const type 4
5CF3  0F                 string size (15)
5CF4  4C69736574536571+  "LisetSeq"
5CFC  75656E63657200     "uencer\0"
                         const [38]: "LisetSequencer"
5D03  01                 const type 3
5D04  0791B063           const [39]: (1672515847)
5D08  01                 const type 3
5D09  2F27B12D           const [40]: (766584623)
5D0D  01                 const type 3
5D0E  A61BE9C5           const [41]: (-974578778)
5D12  01                 const type 3
5D13  BF062274           const [42]: (1948387007)
5D17  01                 const type 3
5D18  8F8E0217           const [43]: (386043535)
5D1C  04                 const type 4
5D1D  0A                 string size (10)
5D1E  5461736B2E746578+  "Task.tex"
5D26  7400               "t\0"
                         const [44]: "Task.text"
5D28  01                 const type 3
5D29  1F7034F9           const [45]: (-114003937)
5D2D  04                 const type 4
5D2E  0B                 string size (11)
5D2F  6747616D6552756C+  "gGameRul"
5D37  657300             "es\0"
                         const [46]: "gGameRules"
5D3A  01                 const type 3
5D3B  D48E598B           const [47]: (-1957065004)
5D3F  04                 const type 4
5D40  1F                 string size (31)
5D41  674C6F7475734174+  "gLotusAt"
5D49  74726163744D6F64+  "tractMod"
5D51  6547616D6552756C+  "eGameRul"
5D59  65735479706500     "esType\0"
                         const [48]: "gLotusAttractModeGameRulesType"
5D60  04                 const type 4
5D61  03                 string size (3)
5D62  5F5400             "_T\0"
                         const [49]: "_T"
5D65  04                 const type 4
5D66  10                 string size (16)
5D67  4261636B67726F75+  "Backgrou"
5D6F  6E644D6F76696500   "ndMovie\0"
                         const [50]: "BackgroundMovie"
5D77  03                 const type 3
5D78  CDCC4C3F           const [51]: (-51)
5D7C  04                 const type 4
5D7D  1A                 string size (26)
5D7E  4D454E555F535549+  "MENU_SUI"
5D86  545F415641544152+  "T_AVATAR"
5D8E  5F50524F47524553+  "_PROGRES"
5D96  5300               "S\0"
                         const [52]: "MENU_SUIT_AVATAR_PROGRESS"
5D98  03                 const type 3
5D99  CDCC4C3E           const [53]: (-51)
5D9D  01                 const type 3
5D9E  98FD7463           const [54]: (1668611480)
5DA2  03                 const type 3
5DA3  0000C842           const [55]: (0)
5DA7  04                 const type 4
5DA8  12                 string size (18)
5DA9  50726F6772657373+  "Progress"
5DB1  2E4261722E46696C+  ".Bar.Fil"
5DB9  6C00               "l\0"
                         const [56]: "Progress.Bar.Fill"
5DBB  04                 const type 4
5DBC  17                 string size (23)
5DBD  466C617368496E73+  "FlashIns"
5DC5  74616E63655F4541+  "tance_EA"
5DCD  53455F4F555400     "SE_OUT\0"
                         const [57]: "FlashInstance_EASE_OUT"
5DD4  04                 const type 4
5DD5  07                 string size (7)
5DD6  5F776964746800     "_width\0"
                         const [58]: "_width"
5DDD  03                 const type 3
5DDE  9A99193E           const [59]: (-102)
5DE2  01                 const type 3
5DE3  3BA297FE           const [60]: (-23616965)
5DE7  01                 const type 3
5DE8  BCD6AE9F           const [61]: (-1615931716)
5DEC  04                 const type 4
5DED  09                 string size (9)
5DEE  757365724E616D65+  "userName"
5DF6  00                 "\0"
                         const [62]: "userName"
5DF7  04                 const type 4
5DF8  13                 string size (19)
5DF9  48494444454E5F50+  "HIDDEN_P"
5E01  4C415945525F4E41+  "LAYER_NA"
5E09  4D4500             "ME\0"
                         const [63]: "HIDDEN_PLAYER_NAME"
5E0C  04                 const type 4
5E0D  06                 string size (6)
5E0E  7461626C6500       "table\0"
                         const [64]: "table"
5E14  01                 const type 3
5E15  9D0C45E6           const [65]: (-431682403)
5E19  04                 const type 4
5E1A  12                 string size (18)
5E1B  67506C6179657250+  "gPlayerP"
5E23  726F66696C654D67+  "rofileMg"
5E2B  7200               "r\0"
                         const [66]: "gPlayerProfileMgr"
5E2D  01                 const type 3
5E2E  1A7BEF21           const [67]: (569342746)
5E32  01                 const type 3
5E33  F9284A14           const [68]: (340404473)
5E37  01                 const type 3
5E38  D2A3C75E           const [69]: (1590141906)
5E3C  04                 const type 4
5E3D  05                 string size (5)
5E3E  4E616D6500         "Name\0"
                         const [70]: "Name"
5E43  04                 const type 4
5E44  05                 string size (5)
5E45  4461746100         "Data\0"
                         const [71]: "Data"
5E4A  03                 const type 3
5E4B  00004843           const [72]: (0)
5E4F  03                 const type 3
5E50  0000003F           const [73]: (0)
5E54  04                 const type 4
5E55  10                 string size (16)
5E56  50726F6772657373+  "Progress"
5E5E  2E506C6179657200   ".Player\0"
                         const [74]: "Progress.Player"
5E66  01                 const type 3
5E67  A7960188           const [75]: (-2013161817)
5E6B  03                 const type 3
5E6C  0000C040           const [76]: (0)
5E70  04                 const type 4
5E71  03                 string size (3)
5E72  5F7800             "_x\0"
                         const [77]: "_x"
5E75  04                 const type 4
5E76  07                 string size (7)
5E77  456E67696E6500     "Engine\0"
                         const [78]: "Engine"
5E7E  01                 const type 3
5E7F  FBDA9813           const [79]: (328784635)
5E83  04                 const type 4
5E84  0A                 string size (10)
5E85  6D756C74696C696E+  "multilin"
5E8D  6500               "e\0"
                         const [80]: "multiline"
5E8F  01                 const type 3
5E90  E99FA7D6           const [81]: (-693657623)
5E94  04                 const type 4
5E95  06                 string size (6)
5E96  2E4E616D6500       ".Name\0"
                         const [82]: ".Name"
5E9C  04                 const type 4
5E9D  05                 string size (5)
5E9E  7465787400         "text\0"
                         const [83]: "text"
5EA3  01                 const type 3
5EA4  294E0B14           const [84]: (336285225)
5EA8  04                 const type 4
5EA9  04                 string size (4)
5EAA  2E2E2E00           "...\0"
                         const [85]: "..."
5EAE  04                 const type 4
5EAF  07                 string size (7)
5EB0  5F616C70686100     "_alpha\0"
                         const [86]: "_alpha"
5EB7  03                 const type 3
5EB8  0000803E           const [87]: (0)
5EBC  04                 const type 4
5EBD  09                 string size (9)
5EBE  70726F6772657373+  "progress"
5EC6  00                 "\0"
                         const [88]: "progress"
5EC7  01                 const type 3
5EC8  2FAB2A30           const [89]: (808102703)
5ECC  04                 const type 4
5ECD  0F                 string size (15)
5ECE  2E50726F67726573+  ".Progres"
5ED6  732E46696C6C00     "s.Fill\0"
                         const [90]: ".Progress.Fill"
5EDD  04                 const type 4
5EDE  13                 string size (19)
5EDF  416C706861546573+  "AlphaTes"
5EE7  745468726573686F+  "tThresho"
5EEF  6C6400             "ld\0"
                         const [91]: "AlphaTestThreshold"
5EF2  04                 const type 4
5EF3  0A                 string size (10)
5EF4  4C6F7765724E616D+  "LowerNam"
5EFC  6500               "e\0"
                         const [92]: "LowerName"
5EFE  04                 const type 4
5EFF  11                 string size (17)
5F00  674D61746368696E+  "gMatchin"
5F08  6753657276696365+  "gService"
5F10  00                 "\0"
                         const [93]: "gMatchingService"
5F11  01                 const type 3
5F12  3701A989           const [94]: (-1985412809)
5F16  04                 const type 4
5F17  08                 string size (8)
5F18  69734C6F63616C00   "isLocal\0"
                         const [95]: "isLocal"
5F20  04                 const type 4
5F21  07                 string size (7)
5F22  737472696E6700     "string\0"
                         const [96]: "string"
5F29  01                 const type 3
5F2A  25D6D0BD           const [97]: (-1110387163)
5F2E  04                 const type 4
5F2F  05                 string size (5)
5F30  6E616D6500         "name\0"
                         const [98]: "name"
5F35  04                 const type 4
5F36  06                 string size (6)
5F37  636A736F6E00       "cjson\0"
                         const [99]: "cjson"
5F3D  01                 const type 3
5F3E  15832E8A           const [100]: (-1976663275)
5F42  04                 const type 4
5F43  08                 string size (8)
5F44  6C6F61646F757400   "loadout\0"
                         const [101]: "loadout"
5F4C  04                 const type 4
5F4D  08                 string size (8)
5F4E  56697369626C6500   "Visible\0"
                         const [102]: "Visible"
5F56  04                 const type 4
5F57  18                 string size (24)
5F58  557365644C697365+  "UsedLise"
5F60  74437573746F6D69+  "tCustomi"
5F68  7A6174696F6E7300   "zations\0"
                         const [103]: "UsedLisetCustomizations"
5F70  04                 const type 4
5F71  07                 string size (7)
5F72  4E6F726D616C00     "Normal\0"
                         const [104]: "Normal"
5F79  04                 const type 4
5F7A  09                 string size (9)
5F7B  5368697054797065+  "ShipType"
5F83  00                 "\0"
                         const [105]: "ShipType"
5F84  01                 const type 3
5F85  29D4002C           const [106]: (738251817)
5F89  04                 const type 4
5F8A  13                 string size (19)
5F8B  5368697043757374+  "ShipCust"
5F93  6F6D697A6174696F+  "omizatio"
5F9B  6E7300             "ns\0"
                         const [107]: "ShipCustomizations"
5F9E  04                 const type 4
5F9F  10                 string size (16)
5FA0  536B696E466C6176+  "SkinFlav"
5FA8  6F75724974656D00   "ourItem\0"
                         const [108]: "SkinFlavourItem"
5FB0  04                 const type 4
5FB1  03                 string size (3)
5FB2  5F4700             "_G\0"
                         const [109]: "_G"
5FB5  04                 const type 4
5FB6  1C                 string size (28)
5FB7  674C6F6164656453+  "gLoadedS"
5FBF  686970536B696E73+  "hipSkins"
5FC7  46726F6D44696F72+  "FromDior"
5FCF  616D6100           "ama\0"
                         const [110]: "gLoadedShipSkinsFromDiorama"
5FD3  01                 const type 3
5FD4  3C2E251B           const [111]: (455421500)
5FD8  04                 const type 4
5FD9  07                 string size (7)
5FDA  4C6F6164657200     "Loader\0"
                         const [112]: "Loader"
5FE1  01                 const type 3
5FE2  E0539B44           const [113]: (1151030240)
5FE6  04                 const type 4
5FE7  0A                 string size (10)
5FE8  53686970496E6465+  "ShipInde"
5FF0  7800               "x\0"
                         const [114]: "ShipIndex"
5FF2  04                 const type 4
5FF3  0D                 string size (13)
5FF4  5468696E67734C6F+  "ThingsLo"
5FFC  6164656400         "aded\0"
                         const [115]: "ThingsLoaded"
6001  01                 const type 3
6002  17DDCF0E           const [116]: (248503575)
6006  01                 const type 3
6007  04C5DDAF           const [117]: (-1344420604)
600B  01                 const type 3
600C  01000000           const [118]: (1)
6010  04                 const type 4
6011  09                 string size (9)
6012  67436D644C696E65+  "gCmdLine"
601A  00                 "\0"
                         const [119]: "gCmdLine"
601B  01                 const type 3
601C  1DF30803           const [120]: (50918173)
6020  01                 const type 3
6021  5208C455           const [121]: (1438910546)
6025  01                 const type 3
6026  D54BD6BD           const [122]: (-1110029355)
602A  01                 const type 3
602B  0E03A5F9           const [123]: (-106626290)
602F  01                 const type 3
6030  F74CD933           const [124]: (869879031)
6034  01                 const type 3
6035  37B3F936           const [125]: (922334007)
6039  01                 const type 3
603A  A9278F45           const [126]: (1167009705)
603E  04                 const type 4
603F  18                 string size (24)
6040  49734D656E755375+  "IsMenuSu"
6048  6974417661746172+  "itAvatar"
6050  53686F77696E6700   "Showing\0"
                         const [127]: "IsMenuSuitAvatarShowing"
6058  04                 const type 4
6059  01                 string size (0)
                         const [128]: ""
605B  01                 const type 3
605C  06D3EA1F           const [129]: (535483142)
6060  01                 const type 3
6061  8E550663           const [130]: (1661359502)
6065  01                 const type 3
6066  6B25B193           const [131]: (-1817107093)
606A  04                 const type 4
606B  25                 string size (37)
606C  5374617274696E67+  "Starting"
6074  205669676E657474+  " Vignett"
607C  6520636C6F736520+  "e close "
6084  616E696D6174696F+  "animatio"
608C  6E2E2E2E00         "n...\0"
                         const [132]: "Starting Vignette close animation..."
6091  04                 const type 4
6092  10                 string size (16)
6093  64696F72616D6146+  "dioramaF"
609B  61646554696D6500   "adeTime\0"
                         const [133]: "dioramaFadeTime"
60A3  04                 const type 4
60A4  09                 string size (9)
60A5  6661646554696D65+  "fadeTime"
60AD  00                 "\0"
                         const [134]: "fadeTime"
60AE  01                 const type 3
60AF  A604EBE2           const [135]: (-487914330)
60B3  01                 const type 3
60B4  E390F4E7           const [136]: (-403402525)
60B8  01                 const type 3
60B9  66D9191C           const [137]: (471456102)
60BD  01                 const type 3
60BE  DDB60B0F           const [138]: (252425949)
60C2  04                 const type 4
60C3  16                 string size (22)
60C4  4C6F6164696E6753+  "LoadingS"
60CC  637265656E547261+  "creenTra"
60D4  6E734F757400       "nsOut\0"
                         const [139]: "LoadingScreenTransOut"
60DA  04                 const type 4
60DB  09                 string size (9)
60DC  50726F6772657373+  "Progress"
60E4  00                 "\0"
                         const [140]: "Progress"
60E5  04                 const type 4
60E6  09                 string size (9)
60E7  5F76697369626C65+  "_visible"
60EF  00                 "\0"
                         const [141]: "_visible"
60F0  01                 const type 3
60F1  A9AF648C           const [142]: (-1939558487)
60F5  04                 const type 4
60F6  26                 string size (38)
60F7  50726F6772657373+  "Progress"
60FF  2E506C6179657231+  ".Player1"
6107  2E50726F67726573+  ".Progres"
610F  732E676F746F416E+  "s.gotoAn"
6117  6453746F7000       "dStop\0"
                         const [143]: "Progress.Player1.Progress.gotoAndStop"
611D  03                 const type 3
611E  0000CA42           const [144]: (0)
6122  04                 const type 4
6123  08                 string size (8)
6124  4C6F6164696E6700   "Loading\0"
                         const [145]: "Loading"
612C  01                 const type 3
612D  6CB98BA5           const [146]: (-1517569684)
                         * functions:
6131  02                 sizep (2)
                         
6132                     ** function [0] definition (level 3)
                         ** start of function **
6132  00                 string size (0)
                         source name: (none)
6134  06                 line defined (819)
6135  C0                 last line defined (832)
6136  06                 nups (9)
6137  09                 numparams (1)
6138  01                 is_vararg (0)
6139  00                 maxstacksize (10)
                         * code:
613B  32                 sizecode (50)
613C  59000000           [01] loadk      1   0        ; -51
6140  99400000           [02] loadk      2   1        ; 0
6144  C480C000           [03] mul        3   1   258  ; 0
fail op	21
6148  15C00000           [04] concat     0   0   3  
614C  1A800080           [05] jmp        3            ; to [9]
6150  DC400000           [06] div        3   0   1  
6154  8480C001           [07] mul        2   3   258  ; 0
6158  1A800180           [08] jmp        7            ; to [16]
fail op	21
615C  15400000           [09] concat     0   0   1  
6160  1A000180           [10] jmp        5            ; to [16]
6164  C480C000           [11] mul        3   1   258  ; 0
6168  CDC00000           [12] sub        3   0   3  
616C  DC408001           [13] div        3   3   1  
6170  C480C001           [14] mul        3   3   258  ; 0
6174  8DC08081           [15] sub        2   259 3    ; 0
6178  DD000100           [16] getglobal  3   4        ; 1074689893
617C  13010000           [17] getupval   4   0      
6180  E2800001           [18] call       3   2   2  
6184  D8400000           [19] test       3       1    ; to [21] if false
6188  1A000780           [20] jmp        29           ; to [50]
618C  D3000000           [21] getupval   3   0      
6190  E440C101           [22] self       3   3   261  ; -1350216097
6194  5D810100           [23] getglobal  5   6        ; -1828500651
6198  93018000           [24] getupval   6   1      
619C  D3010001           [25] getupval   7   2      
61A0  12020001           [26] move       8   2      
61A4  62810002           [27] call       5   4   2  
61A8  9D810100           [28] getglobal  6   6        ; -1828500651
61AC  D3018001           [29] getupval   7   3      
61B0  13020002           [30] getupval   8   4      
61B4  52020001           [31] move       9   2      
61B8  A2010002           [32] call       6   4   0  
61BC  E2400000           [33] call       3   0   1  
61C0  D3000000           [34] getupval   3   0      
61C4  E4C0C101           [35] self       3   3   263  ; -333955620
61C8  5D010200           [36] getglobal  5   8        ; -523730508
61CC  93018002           [37] getupval   6   5      
61D0  D3010003           [38] getupval   7   6      
61D4  12020000           [39] move       8   0      
61D8  62010002           [40] call       5   4   0  
61DC  E2400000           [41] call       3   0   1  
61E0  D3000000           [42] getupval   3   0      
61E4  E440C201           [43] self       3   3   265  ; 1352138124
61E8  5D810200           [44] getglobal  5   10       ; -617282374
61EC  93018003           [45] getupval   6   7      
61F0  D3010004           [46] getupval   7   8      
61F4  12020000           [47] move       8   0      
61F8  62010002           [48] call       5   4   0  
61FC  E2400000           [49] call       3   0   1  
6200  1E008000           [50] return     0   1      
                         * constants:
6204  0B                 sizek (11)
6205  03                 const type 3
6206  CDCCCC3E           const [0]: (-51)
620A  03                 const type 3
620B  00000000           const [1]: (0)
620F  03                 const type 3
6210  0000003F           const [2]: (0)
6214  03                 const type 3
6215  0000803F           const [3]: (0)
6219  01                 const type 3
621A  65770E40           const [4]: (1074689893)
621E  01                 const type 3
621F  5F5685AF           const [5]: (-1350216097)
6223  01                 const type 3
6224  554B0393           const [6]: (-1828500651)
6228  01                 const type 3
6229  DC3D18EC           const [7]: (-333955620)
622D  01                 const type 3
622E  B481C8E0           const [8]: (-523730508)
6232  01                 const type 3
6233  8CFD9750           const [9]: (1352138124)
6237  01                 const type 3
6238  BA0435DB           const [10]: (-617282374)
                         * functions:
623C  00                 sizep (0)
                         * lines:
623D  32                 sizelineinfo (50)
                         [pc] (line)
623E  34                 [01] (52)
623F  03                 [02] (53)
6240  00                 [03] (54)
6241  00                 [04] (54)
6242  35                 [05] (54)
6243  03                 [06] (55)
6244  00                 [07] (55)
6245  00                 [08] (55)
6246  36                 [09] (56)
6247  03                 [10] (56)
6248  00                 [11] (57)
6249  00                 [12] (57)
624A  36                 [13] (57)
624B  03                 [14] (57)
624C  00                 [15] (57)
624D  00                 [16] (59)
624E  36                 [17] (59)
624F  03                 [18] (59)
6250  00                 [19] (59)
6251  00                 [20] (59)
6252  37                 [21] (60)
6253  03                 [22] (60)
6254  00                 [23] (60)
6255  00                 [24] (60)
6256  37                 [25] (60)
6257  03                 [26] (60)
6258  00                 [27] (60)
6259  00                 [28] (60)
625A  37                 [29] (60)
625B  03                 [30] (60)
625C  00                 [31] (60)
625D  00                 [32] (60)
625E  38                 [33] (60)
625F  03                 [34] (61)
6260  00                 [35] (61)
6261  00                 [36] (61)
6262  38                 [37] (61)
6263  03                 [38] (61)
6264  00                 [39] (61)
6265  00                 [40] (61)
6266  39                 [41] (61)
6267  03                 [42] (62)
6268  00                 [43] (62)
6269  00                 [44] (62)
626A  39                 [45] (62)
626B  03                 [46] (62)
626C  00                 [47] (62)
626D  00                 [48] (62)
626E  39                 [49] (62)
626F  03                 [50] (64)
                         * locals:
6306  00                 sizelocvars (0)
                         * upvalues:
6307  00                 sizeupvalues (0)
                         ** end of function **

                         
6308                     ** function [1] definition (level 3)
                         ** start of function **
6308  00                 string size (0)
                         source name: (none)
630A  06                 line defined (834)
630B  C4                 last line defined (836)
630C  06                 nups (1)
630D  01                 numparams (0)
630E  00                 is_vararg (0)
630F  00                 maxstacksize (2)
                         * code:
6311  03                 sizecode (3)
6312  17000000           [1] loadbool   0   0   0    ; false
fail op	8
6316  08000000           [2] setupval   0   0      
631A  1E008000           [3] return     0   1      
                         * constants:
631E  00                 sizek (0)
                         * functions:
631F  00                 sizep (0)
                         * lines:
6320  03                 sizelineinfo (3)
                         [pc] (line)
6321  43                 [1] (67)
6322  03                 [2] (67)
6323  00                 [3] (68)
                         * locals:
632D  00                 sizelocvars (0)
                         * upvalues:
632E  00                 sizeupvalues (0)
                         ** end of function **

                         * lines:
6330  07                 sizelineinfo (925)
                         [pc] (line)
6331  07                 [001] (7)
6332  03                 [002] (7)
6333  00                 [003] (7)
6334  00                 [004] (7)
6335  07                 [005] (7)
6336  03                 [006] (7)
6337  00                 [007] (7)
6338  00                 [008] (7)
6339  07                 [009] (7)
633A  03                 [010] (7)
633B  00                 [011] (7)
633C  00                 [012] (7)
633D  07                 [013] (7)
633E  03                 [014] (8)
633F  00                 [015] (11)
6340  00                 [016] (11)
6341  07                 [017] (11)
6342  03                 [018] (11)
6343  00                 [019] (11)
6344  00                 [020] (11)
6345  07                 [021] (12)
6346  03                 [022] (12)
6347  00                 [023] (13)
6348  00                 [024] (16)
6349  07                 [025] (16)
634A  03                 [026] (16)
634B  00                 [027] (18)
634C  00                 [028] (18)
634D  07                 [029] (18)
634E  03                 [030] (18)
634F  00                 [031] (18)
6350  00                 [032] (19)
6351  07                 [033] (19)
6352  03                 [034] (19)
6353  00                 [035] (19)
6354  00                 [036] (19)
6355  07                 [037] (18)
6356  03                 [038] (22)
6357  00                 [039] (22)
6358  00                 [040] (22)
6359  07                 [041] (22)
635A  03                 [042] (24)
635B  00                 [043] (24)
635C  00                 [044] (24)
635D  07                 [045] (24)
635E  03                 [046] (24)
635F  00                 [047] (25)
6360  00                 [048] (25)
6361  07                 [049] (25)
6362  03                 [050] (25)
6363  00                 [051] (28)
6364  00                 [052] (28)
6365  08                 [053] (28)
6366  03                 [054] (29)
6367  00                 [055] (29)
6368  00                 [056] (32)
6369  0B                 [057] (32)
636A  03                 [058] (32)
636B  00                 [059] (32)
636C  00                 [060] (32)
636D  0B                 [061] (32)
636E  03                 [062] (34)
636F  00                 [063] (34)
6370  00                 [064] (34)
6371  0B                 [065] (35)
6372  03                 [066] (35)
6373  00                 [067] (35)
6374  00                 [068] (35)
6375  0B                 [069] (35)
6376  03                 [070] (36)
6377  00                 [071] (36)
6378  00                 [072] (36)
6379  0B                 [073] (36)
637A  03                 [074] (36)
637B  00                 [075] (36)
637C  00                 [076] (36)
637D  0B                 [077] (37)
637E  03                 [078] (37)
637F  00                 [079] (37)
6380  00                 [080] (37)
6381  0C                 [081] (37)
6382  03                 [082] (37)
6383  00                 [083] (37)
6384  00                 [084] (37)
6385  0C                 [085] (37)
6386  03                 [086] (38)
6387  00                 [087] (38)
6388  00                 [088] (40)
6389  0D                 [089] (41)
638A  03                 [090] (42)
638B  00                 [091] (43)
638C  00                 [092] (45)
638D  10                 [093] (45)
638E  03                 [094] (45)
638F  00                 [095] (46)
6390  00                 [096] (46)
6391  10                 [097] (46)
6392  03                 [098] (48)
6393  00                 [099] (48)
6394  00                 [100] (48)
6395  10                 [101] (48)
6396  03                 [102] (48)
6397  00                 [103] (48)
6398  00                 [104] (48)
6399  12                 [105] (48)
639A  03                 [106] (48)
639B  00                 [107] (48)
639C  00                 [108] (48)
639D  12                 [109] (48)
639E  03                 [110] (48)
639F  00                 [111] (48)
63A0  00                 [112] (48)
63A1  12                 [113] (48)
63A2  03                 [114] (48)
63A3  00                 [115] (49)
63A4  00                 [116] (49)
63A5  12                 [117] (49)
63A6  03                 [118] (49)
63A7  00                 [119] (49)
63A8  00                 [120] (49)
63A9  12                 [121] (49)
63AA  03                 [122] (49)
63AB  00                 [123] (64)
63AC  00                 [124] (64)
63AD  13                 [125] (64)
63AE  03                 [126] (64)
63AF  00                 [127] (64)
63B0  00                 [128] (64)
63B1  13                 [129] (64)
63B2  03                 [130] (64)
63B3  00                 [131] (64)
63B4  00                 [132] (64)
63B5  13                 [133] (65)
63B6  03                 [134] (65)
63B7  00                 [135] (65)
63B8  00                 [136] (65)
63B9  13                 [137] (65)
63BA  03                 [138] (65)
63BB  00                 [139] (65)
63BC  00                 [140] (65)
63BD  13                 [141] (65)
63BE  03                 [142] (65)
63BF  00                 [143] (65)
63C0  00                 [144] (65)
63C1  12                 [145] (65)
63C2  03                 [146] (68)
63C3  00                 [147] (68)
63C4  00                 [148] (65)
63C5  16                 [149] (68)
63C6  03                 [150] (72)
63C7  00                 [151] (72)
63C8  00                 [152] (72)
63C9  16                 [153] (72)
63CA  03                 [154] (72)
63CB  00                 [155] (72)
63CC  00                 [156] (72)
63CD  16                 [157] (72)
63CE  03                 [158] (72)
63CF  00                 [159] (72)
63D0  00                 [160] (72)
63D1  16                 [161] (72)
63D2  03                 [162] (72)
63D3  00                 [163] (74)
63D4  00                 [164] (74)
63D5  18                 [165] (74)
63D6  03                 [166] (74)
63D7  00                 [167] (74)
63D8  00                 [168] (74)
63D9  18                 [169] (75)
63DA  03                 [170] (75)
63DB  00                 [171] (75)
63DC  00                 [172] (75)
63DD  18                 [173] (76)
63DE  03                 [174] (76)
63DF  00                 [175] (77)
63E0  00                 [176] (77)
63E1  18                 [177] (75)
63E2  03                 [178] (77)
63E3  00                 [179] (80)
63E4  00                 [180] (80)
63E5  18                 [181] (83)
63E6  03                 [182] (83)
63E7  00                 [183] (83)
63E8  00                 [184] (85)
63E9  19                 [185] (85)
63EA  03                 [186] (85)
63EB  00                 [187] (86)
63EC  00                 [188] (87)
63ED  19                 [189] (87)
63EE  03                 [190] (87)
63EF  00                 [191] (87)
63F0  00                 [192] (87)
63F1  19                 [193] (89)
63F2  03                 [194] (89)
63F3  00                 [195] (89)
63F4  00                 [196] (91)
63F5  19                 [197] (91)
63F6  03                 [198] (91)
63F7  00                 [199] (91)
63F8  00                 [200] (91)
63F9  1C                 [201] (91)
63FA  03                 [202] (91)
63FB  00                 [203] (91)
63FC  00                 [204] (91)
63FD  1C                 [205] (91)
63FE  03                 [206] (91)
63FF  00                 [207] (91)
6400  00                 [208] (92)
6401  1C                 [209] (92)
6402  03                 [210] (92)
6403  00                 [211] (92)
6404  00                 [212] (92)
6405  1D                 [213] (92)
6406  03                 [214] (92)
6407  00                 [215] (92)
6408  00                 [216] (93)
6409  1D                 [217] (93)
640A  03                 [218] (93)
640B  00                 [219] (93)
640C  00                 [220] (93)
640D  20                 [221] (97)
640E  03                 [222] (97)
640F  00                 [223] (97)
6410  00                 [224] (97)
6411  20                 [225] (97)
6412  03                 [226] (97)
6413  00                 [227] (97)
6414  00                 [228] (98)
6415  20                 [229] (101)
6416  03                 [230] (101)
6417  00                 [231] (101)
6418  00                 [232] (101)
6419  20                 [233] (101)
641A  03                 [234] (102)
641B  00                 [235] (102)
641C  00                 [236] (102)
641D  20                 [237] (102)
641E  03                 [238] (103)
641F  00                 [239] (104)
6420  00                 [240] (104)
6421  20                 [241] (104)
6422  03                 [242] (104)
6423  00                 [243] (104)
6424  00                 [244] (104)
6425  22                 [245] (104)
6426  03                 [246] (104)
6427  00                 [247] (104)
6428  00                 [248] (104)
6429  22                 [249] (104)
642A  03                 [250] (104)
642B  00                 [251] (104)
642C  00                 [252] (104)
642D  22                 [253] (108)
642E  03                 [254] (109)
642F  00                 [255] (109)
6430  00                 [256] (109)
6431  23                 [257] (110)
6432  03                 [258] (110)
6433  00                 [259] (110)
6434  00                 [260] (110)
6435  23                 [261] (110)
6436  03                 [262] (111)
6437  00                 [263] (111)
6438  00                 [264] (111)
6439  23                 [265] (111)
643A  03                 [266] (111)
643B  00                 [267] (114)
643C  00                 [268] (115)
643D  23                 [269] (115)
643E  03                 [270] (115)
643F  00                 [271] (115)
6440  00                 [272] (116)
6441  23                 [273] (116)
6442  03                 [274] (116)
6443  00                 [275] (116)
6444  00                 [276] (116)
6445  24                 [277] (116)
6446  03                 [278] (116)
6447  00                 [279] (117)
6448  00                 [280] (117)
6449  24                 [281] (117)
644A  03                 [282] (117)
644B  00                 [283] (117)
644C  00                 [284] (115)
644D  24                 [285] (118)
644E  03                 [286] (120)
644F  00                 [287] (120)
6450  00                 [288] (120)
6451  24                 [289] (120)
6452  03                 [290] (120)
6453  00                 [291] (122)
6454  00                 [292] (122)
6455  24                 [293] (122)
6456  03                 [294] (122)
6457  00                 [295] (123)
6458  00                 [296] (123)
6459  24                 [297] (123)
645A  03                 [298] (123)
645B  00                 [299] (123)
645C  00                 [300] (124)
645D  24                 [301] (127)
645E  03                 [302] (127)
645F  00                 [303] (-128)
6460  00                 [304] (-128)
6461  25                 [305] (-128)
6462  03                 [306] (-128)
6463  00                 [307] (-127)
6464  00                 [308] (-127)
6465  25                 [309] (-127)
6466  03                 [310] (-127)
6467  00                 [311] (-128)
6468  00                 [312] (-126)
6469  25                 [313] (-124)
646A  03                 [314] (-123)
646B  00                 [315] (-123)
646C  00                 [316] (-121)
646D  25                 [317] (-120)
646E  03                 [318] (-119)
646F  00                 [319] (-119)
6470  00                 [320] (-119)
6471  25                 [321] (-119)
6472  03                 [322] (-118)
6473  00                 [323] (-118)
6474  00                 [324] (-118)
6475  25                 [325] (-118)
6476  03                 [326] (-117)
6477  00                 [327] (-117)
6478  00                 [328] (-116)
6479  25                 [329] (-116)
647A  03                 [330] (-116)
647B  00                 [331] (-115)
647C  00                 [332] (-115)
647D  25                 [333] (-114)
647E  03                 [334] (-114)
647F  00                 [335] (-114)
6480  00                 [336] (-114)
6481  25                 [337] (-114)
6482  03                 [338] (-114)
6483  00                 [339] (-114)
6484  00                 [340] (-119)
6485  26                 [341] (-112)
6486  03                 [342] (-109)
6487  00                 [343] (-108)
6488  00                 [344] (-108)
6489  26                 [345] (-108)
648A  03                 [346] (-108)
648B  00                 [347] (-107)
648C  00                 [348] (-106)
648D  28                 [349] (-106)
648E  03                 [350] (-106)
648F  00                 [351] (-106)
6490  00                 [352] (-105)
6491  29                 [353] (-105)
6492  03                 [354] (-105)
6493  00                 [355] (-105)
6494  00                 [356] (-105)
6495  2A                 [357] (-104)
6496  03                 [358] (-104)
6497  00                 [359] (-104)
6498  00                 [360] (-103)
6499  2B                 [361] (-103)
649A  03                 [362] (-102)
649B  00                 [363] (-102)
649C  00                 [364] (-102)
649D  2D                 [365] (-102)
649E  03                 [366] (-102)
649F  00                 [367] (-102)
64A0  00                 [368] (-102)
64A1  2D                 [369] (-101)
64A2  03                 [370] (-101)
64A3  00                 [371] (-101)
64A4  00                 [372] (-101)
64A5  2D                 [373] (-101)
64A6  03                 [374] (-101)
64A7  00                 [375] (-101)
64A8  00                 [376] (-101)
64A9  2E                 [377] (-101)
64AA  03                 [378] (-100)
64AB  00                 [379] (-100)
64AC  00                 [380] (-100)
64AD  2E                 [381] (-100)
64AE  03                 [382] (-100)
64AF  00                 [383] (-99)
64B0  00                 [384] (-99)
64B1  2E                 [385] (-99)
64B2  03                 [386] (-99)
64B3  00                 [387] (-99)
64B4  00                 [388] (-99)
64B5  30                 [389] (-99)
64B6  03                 [390] (-98)
64B7  00                 [391] (-98)
64B8  00                 [392] (-98)
64B9  30                 [393] (-98)
64BA  03                 [394] (-98)
64BB  00                 [395] (-98)
64BC  00                 [396] (-98)
64BD  30                 [397] (-98)
64BE  03                 [398] (-98)
64BF  00                 [399] (-98)
64C0  00                 [400] (-96)
64C1  30                 [401] (-96)
64C2  03                 [402] (-96)
64C3  00                 [403] (-96)
64C4  00                 [404] (-96)
64C5  30                 [405] (-96)
64C6  03                 [406] (-96)
64C7  00                 [407] (-96)
64C8  00                 [408] (-96)
64C9  30                 [409] (-96)
64CA  03                 [410] (-94)
64CB  00                 [411] (-94)
64CC  00                 [412] (-94)
64CD  30                 [413] (-94)
64CE  03                 [414] (-94)
64CF  00                 [415] (-94)
64D0  00                 [416] (-94)
64D1  30                 [417] (-94)
64D2  03                 [418] (-94)
64D3  00                 [419] (-94)
64D4  00                 [420] (-94)
64D5  30                 [421] (-94)
64D6  03                 [422] (-94)
64D7  00                 [423] (-94)
64D8  00                 [424] (-94)
64D9  30                 [425] (-94)
64DA  03                 [426] (-94)
64DB  00                 [427] (-94)
64DC  00                 [428] (-93)
64DD  30                 [429] (-93)
64DE  03                 [430] (-93)
64DF  00                 [431] (-93)
64E0  00                 [432] (-93)
64E1  30                 [433] (-93)
64E2  03                 [434] (-91)
64E3  00                 [435] (-91)
64E4  00                 [436] (-91)
64E5  30                 [437] (-91)
64E6  03                 [438] (-91)
64E7  00                 [439] (-91)
64E8  00                 [440] (-91)
64E9  30                 [441] (-91)
64EA  03                 [442] (-91)
64EB  00                 [443] (-91)
64EC  00                 [444] (-91)
64ED  30                 [445] (-91)
64EE  03                 [446] (-91)
64EF  00                 [447] (-91)
64F0  00                 [448] (-105)
64F1  30                 [449] (-86)
64F2  03                 [450] (-83)
64F3  00                 [451] (-83)
64F4  00                 [452] (-83)
64F5  30                 [453] (-83)
64F6  03                 [454] (-82)
64F7  00                 [455] (-82)
64F8  00                 [456] (-82)
64F9  31                 [457] (-82)
64FA  03                 [458] (-81)
64FB  00                 [459] (-81)
64FC  00                 [460] (-79)
64FD  31                 [461] (-79)
64FE  03                 [462] (-79)
64FF  00                 [463] (-79)
6500  00                 [464] (-79)
6501  31                 [465] (-79)
6502  03                 [466] (-79)
6503  00                 [467] (-78)
6504  00                 [468] (-78)
6505  31                 [469] (-78)
6506  03                 [470] (-78)
6507  00                 [471] (-78)
6508  00                 [472] (-78)
6509  31                 [473] (-78)
650A  03                 [474] (-78)
650B  00                 [475] (-78)
650C  00                 [476] (-78)
650D  31                 [477] (-78)
650E  03                 [478] (-78)
650F  00                 [479] (-78)
6510  00                 [480] (-76)
6511  31                 [481] (-76)
6512  03                 [482] (-76)
6513  00                 [483] (-76)
6514  00                 [484] (-76)
6515  31                 [485] (-76)
6516  03                 [486] (-76)
6517  00                 [487] (-76)
6518  00                 [488] (-76)
6519  40                 [489] (-76)
651A  03                 [490] (-76)
651B  00                 [491] (-76)
651C  00                 [492] (-76)
651D  40                 [493] (-83)
651E  03                 [494] (-72)
651F  00                 [495] (-72)
6520  00                 [496] (-72)
6521  40                 [497] (-72)
6522  03                 [498] (-72)
6523  00                 [499] (-71)
6524  00                 [500] (-70)
6525  40                 [501] (-70)
6526  03                 [502] (-70)
6527  00                 [503] (-69)
6528  00                 [504] (-69)
6529  40                 [505] (-69)
652A  03                 [506] (-68)
652B  00                 [507] (-68)
652C  00                 [508] (-68)
652D  40                 [509] (-68)
652E  03                 [510] (-67)
652F  00                 [511] (-67)
6530  00                 [512] (-67)
6531  40                 [513] (-67)
6532  03                 [514] (-66)
6533  00                 [515] (-66)
6534  00                 [516] (-66)
6535  40                 [517] (-66)
6536  03                 [518] (-66)
6537  00                 [519] (-65)
6538  00                 [520] (-65)
6539  40                 [521] (-64)
653A  03                 [522] (-64)
653B  00                 [523] (-64)
653C  00                 [524] (-64)
653D  40                 [525] (-64)
653E  03                 [526] (-64)
653F  00                 [527] (-63)
6540  00                 [528] (-63)
6541  41                 [529] (-62)
6542  03                 [530] (-62)
6543  00                 [531] (-60)
6544  00                 [532] (-59)
6545  41                 [533] (-59)
6546  03                 [534] (-59)
6547  00                 [535] (-59)
6548  00                 [536] (-59)
6549  41                 [537] (-58)
654A  03                 [538] (-58)
654B  00                 [539] (-58)
654C  00                 [540] (-58)
654D  41                 [541] (-58)
654E  03                 [542] (-57)
654F  00                 [543] (-56)
6550  00                 [544] (-59)
6551  41                 [545] (-52)
6552  03                 [546] (-52)
6553  00                 [547] (-51)
6554  00                 [548] (-51)
6555  41                 [549] (-51)
6556  03                 [550] (-51)
6557  00                 [551] (-51)
6558  00                 [552] (-51)
6559  41                 [553] (-50)
655A  03                 [554] (-68)
655B  00                 [555] (-44)
655C  00                 [556] (-44)
655D  41                 [557] (-44)
655E  03                 [558] (-44)
655F  00                 [559] (-44)
6560  00                 [560] (-44)
6561  41                 [561] (-44)
6562  03                 [562] (-42)
6563  00                 [563] (-42)
6564  00                 [564] (-42)
6565  41                 [565] (-42)
6566  03                 [566] (-42)
6567  00                 [567] (-42)
6568  00                 [568] (-42)
6569  41                 [569] (-42)
656A  03                 [570] (-42)
656B  00                 [571] (-42)
656C  00                 [572] (-42)
656D  41                 [573] (-42)
656E  03                 [574] (-42)
656F  00                 [575] (-42)
6570  00                 [576] (-41)
6571  41                 [577] (-41)
6572  03                 [578] (-41)
6573  00                 [579] (-41)
6574  00                 [580] (-41)
6575  44                 [581] (-41)
6576  03                 [582] (-41)
6577  00                 [583] (-38)
6578  00                 [584] (-38)
6579  44                 [585] (-38)
657A  03                 [586] (-37)
657B  00                 [587] (-37)
657C  00                 [588] (-37)
657D  41                 [589] (-37)
657E  03                 [590] (-37)
657F  00                 [591] (-36)
6580  00                 [592] (-36)
6581  44                 [593] (-36)
6582  03                 [594] (-36)
6583  00                 [595] (-36)
6584  00                 [596] (-36)
6585  48                 [597] (-36)
6586  03                 [598] (-36)
6587  00                 [599] (-36)
6588  00                 [600] (-36)
6589  48                 [601] (-36)
658A  03                 [602] (-34)
658B  00                 [603] (-33)
658C  00                 [604] (-30)
658D  48                 [605] (-30)
658E  03                 [606] (-30)
658F  00                 [607] (-30)
6590  00                 [608] (-30)
6591  48                 [609] (-29)
6592  03                 [610] (-29)
6593  00                 [611] (-29)
6594  00                 [612] (-29)
6595  48                 [613] (-26)
6596  03                 [614] (-26)
6597  00                 [615] (-26)
6598  00                 [616] (-26)
6599  48                 [617] (-26)
659A  03                 [618] (-25)
659B  00                 [619] (-25)
659C  00                 [620] (-25)
659D  48                 [621] (-25)
659E  03                 [622] (-25)
659F  00                 [623] (-24)
65A0  00                 [624] (-24)
65A1  48                 [625] (-24)
65A2  03                 [626] (-24)
65A3  00                 [627] (-24)
65A4  00                 [628] (-24)
65A5  48                 [629] (-24)
65A6  03                 [630] (-24)
65A7  00                 [631] (-24)
65A8  00                 [632] (-24)
65A9  48                 [633] (-24)
65AA  03                 [634] (-24)
65AB  00                 [635] (-23)
65AC  00                 [636] (-23)
65AD  48                 [637] (-23)
65AE  03                 [638] (-23)
65AF  00                 [639] (-23)
65B0  00                 [640] (-19)
65B1  48                 [641] (-19)
65B2  03                 [642] (-19)
65B3  00                 [643] (-19)
65B4  00                 [644] (-19)
65B5  48                 [645] (-19)
65B6  03                 [646] (-19)
65B7  00                 [647] (-19)
65B8  00                 [648] (-19)
65B9  4A                 [649] (-19)
65BA  03                 [650] (-19)
65BB  00                 [651] (-18)
65BC  00                 [652] (-18)
65BD  4A                 [653] (-18)
65BE  03                 [654] (-18)
65BF  00                 [655] (-18)
65C0  00                 [656] (-15)
65C1  4A                 [657] (-15)
65C2  03                 [658] (-15)
65C3  00                 [659] (-14)
65C4  00                 [660] (-14)
65C5  4A                 [661] (-14)
65C6  03                 [662] (-14)
65C7  00                 [663] (-14)
65C8  00                 [664] (-14)
65C9  4A                 [665] (-14)
65CA  03                 [666] (-14)
65CB  00                 [667] (-14)
65CC  00                 [668] (-14)
65CD  4A                 [669] (-14)
65CE  03                 [670] (-12)
65CF  00                 [671] (-12)
65D0  00                 [672] (-12)
65D1  4B                 [673] (-12)
65D2  03                 [674] (-12)
65D3  00                 [675] (-12)
65D4  00                 [676] (-12)
65D5  4B                 [677] (-72)
65D6  03                 [678] (-6)
65D7  00                 [679] (-6)
65D8  00                 [680] (-6)
65D9  4B                 [681] (-6)
65DA  03                 [682] (-5)
65DB  00                 [683] (-5)
65DC  00                 [684] (-5)
65DD  4B                 [685] (-5)
65DE  03                 [686] (-5)
65DF  00                 [687] (-5)
65E0  00                 [688] (-5)
65E1  4C                 [689] (-5)
65E2  03                 [690] (-5)
65E3  00                 [691] (-5)
65E4  00                 [692] (-4)
65E5  4C                 [693] (-4)
65E6  03                 [694] (-4)
65E7  00                 [695] (-4)
65E8  00                 [696] (-3)
65E9  4D                 [697] (-3)
65EA  03                 [698] (-2)
65EB  00                 [699] (-2)
65EC  00                 [700] (-2)
65ED  4D                 [701] (-2)
65EE  03                 [702] (-2)
65EF  00                 [703] (-1)
65F0  00                 [704] (-1)
65F1  4B                 [705] (-1)
65F2  03                 [706] (-1)
65F3  00                 [707] (-1)
65F4  00                 [708] (0)
65F5  4D                 [709] (0)
65F6  03                 [710] (0)
65F7  00                 [711] (0)
65F8  00                 [712] (0)
65F9  50                 [713] (-1)
65FA  03                 [714] (-6)
65FB  00                 [715] (2)
65FC  00                 [716] (6)
65FD  50                 [717] (7)
65FE  03                 [718] (7)
65FF  00                 [719] (7)
6600  00                 [720] (7)
6601  53                 [721] (7)
6602  03                 [722] (8)
6603  00                 [723] (11)
6604  00                 [724] (11)
6605  53                 [725] (11)
6606  03                 [726] (11)
6607  00                 [727] (11)
6608  00                 [728] (11)
6609  53                 [729] (11)
660A  03                 [730] (11)
660B  00                 [731] (11)
660C  00                 [732] (11)
660D  55                 [733] (11)
660E  03                 [734] (11)
660F  00                 [735] (11)
6610  00                 [736] (11)
6611  55                 [737] (11)
6612  03                 [738] (11)
6613  00                 [739] (11)
6614  00                 [740] (11)
6615  55                 [741] (11)
6616  03                 [742] (11)
6617  00                 [743] (11)
6618  00                 [744] (11)
6619  56                 [745] (11)
661A  03                 [746] (12)
661B  00                 [747] (12)
661C  00                 [748] (12)
661D  57                 [749] (12)
661E  03                 [750] (12)
661F  00                 [751] (12)
6620  00                 [752] (12)
6621  57                 [753] (12)
6622  03                 [754] (12)
6623  00                 [755] (12)
6624  00                 [756] (12)
6625  57                 [757] (12)
6626  03                 [758] (12)
6627  00                 [759] (12)
6628  00                 [760] (12)
6629  57                 [761] (12)
662A  03                 [762] (13)
662B  00                 [763] (13)
662C  00                 [764] (13)
662D  57                 [765] (13)
662E  03                 [766] (13)
662F  00                 [767] (13)
6630  00                 [768] (13)
6631  59                 [769] (15)
6632  03                 [770] (15)
6633  00                 [771] (15)
6634  00                 [772] (15)
6635  59                 [773] (15)
6636  03                 [774] (15)
6637  00                 [775] (15)
6638  00                 [776] (15)
6639  59                 [777] (15)
663A  03                 [778] (15)
663B  00                 [779] (15)
663C  00                 [780] (15)
663D  5B                 [781] (15)
663E  03                 [782] (15)
663F  00                 [783] (15)
6640  00                 [784] (15)
6641  5B                 [785] (15)
6642  03                 [786] (15)
6643  00                 [787] (15)
6644  00                 [788] (15)
6645  5B                 [789] (16)
6646  03                 [790] (16)
6647  00                 [791] (16)
6648  00                 [792] (16)
6649  5B                 [793] (16)
664A  03                 [794] (16)
664B  00                 [795] (16)
664C  00                 [796] (16)
664D  5B                 [797] (18)
664E  03                 [798] (18)
664F  00                 [799] (18)
6650  00                 [800] (18)
6651  5B                 [801] (18)
6652  03                 [802] (18)
6653  00                 [803] (20)
6654  00                 [804] (20)
6655  5B                 [805] (20)
6656  03                 [806] (22)
6657  00                 [807] (22)
6658  00                 [808] (24)
6659  5B                 [809] (24)
665A  03                 [810] (24)
665B  00                 [811] (25)
665C  00                 [812] (25)
665D  5B                 [813] (25)
665E  03                 [814] (27)
665F  00                 [815] (27)
6660  00                 [816] (28)
6661  5B                 [817] (28)
6662  03                 [818] (30)
6663  00                 [819] (30)
6664  00                 [820] (30)
6665  5B                 [821] (30)
6666  03                 [822] (31)
6667  00                 [823] (32)
6668  00                 [824] (32)
6669  5B                 [825] (32)
666A  03                 [826] (30)
666B  00                 [827] (39)
666C  00                 [828] (39)
666D  5C                 [829] (39)
666E  03                 [830] (39)
666F  00                 [831] (39)
6670  00                 [832] (39)
6671  5C                 [833] (40)
6672  03                 [834] (40)
6673  00                 [835] (40)
6674  00                 [836] (41)
6675  5C                 [837] (41)
6676  03                 [838] (41)
6677  00                 [839] (41)
6678  00                 [840] (41)
6679  5C                 [841] (41)
667A  03                 [842] (41)
667B  00                 [843] (41)
667C  00                 [844] (42)
667D  5C                 [845] (42)
667E  03                 [846] (42)
667F  00                 [847] (42)
6680  00                 [848] (43)
6681  5C                 [849] (43)
6682  03                 [850] (43)
6683  00                 [851] (43)
6684  00                 [852] (43)
6685  5C                 [853] (43)
6686  03                 [854] (43)
6687  00                 [855] (44)
6688  00                 [856] (44)
6689  5C                 [857] (44)
668A  03                 [858] (45)
668B  00                 [859] (45)
668C  00                 [860] (45)
668D  5D                 [861] (46)
668E  03                 [862] (46)
668F  00                 [863] (46)
6690  00                 [864] (46)
6691  5D                 [865] (49)
6692  03                 [866] (49)
6693  00                 [867] (50)
6694  00                 [868] (50)
6695  5D                 [869] (52)
6696  03                 [870] (52)
6697  00                 [871] (52)
6698  00                 [872] (52)
6699  5D                 [873] (53)
669A  03                 [874] (54)
669B  00                 [875] (54)
669C  00                 [876] (54)
669D  5D                 [877] (52)
669E  03                 [878] (59)
669F  00                 [879] (59)
66A0  00                 [880] (59)
66A1  61                 [881] (60)
66A2  03                 [882] (60)
66A3  00                 [883] (61)
66A4  00                 [884] (61)
66A5  61                 [885] (62)
66A6  03                 [886] (62)
66A7  00                 [887] (62)
66A8  00                 [888] (62)
66A9  61                 [889] (62)
66AA  03                 [890] (62)
66AB  00                 [891] (62)
66AC  00                 [892] (64)
66AD  61                 [893] (64)
66AE  03                 [894] (64)
66AF  00                 [895] (64)
66B0  00                 [896] (64)
66B1  61                 [897] (66)
66B2  03                 [898] (66)
66B3  00                 [899] (66)
66B4  00                 [900] (66)
66B5  61                 [901] (66)
66B6  03                 [902] (66)
66B7  00                 [903] (68)
66B8  00                 [904] (68)
66B9  61                 [905] (68)
66BA  03                 [906] (69)
66BB  00                 [907] (69)
66BC  00                 [908] (69)
66BD  62                 [909] (69)
66BE  03                 [910] (69)
66BF  00                 [911] (69)
66C0  00                 [912] (69)
66C1  65                 [913] (70)
66C2  03                 [914] (70)
66C3  00                 [915] (70)
66C4  00                 [916] (70)
66C5  65                 [917] (72)
66C6  03                 [918] (72)
66C7  00                 [919] (72)
66C8  00                 [920] (73)
66C9  65                 [921] (73)
66CA  03                 [922] (74)
66CB  00                 [923] (74)
66CC  00                 [924] (74)
66CD  65                 [925] (77)
                         * locals:
71A5  00                 sizelocvars (0)
                         * upvalues:
71A6  00                 sizeupvalues (0)
                         ** end of function **

                         
71A7                     ** function [17] definition (level 2)
                         ** start of function **
71A7  00                 string size (0)
                         source name: (none)
71A9  08                 line defined (1103)
71AA  D1                 last line defined (1105)
71AB  08                 nups (1)
71AC  01                 numparams (0)
71AD  00                 is_vararg (0)
71AE  00                 maxstacksize (2)
                         * code:
71B0  03                 sizecode (3)
71B1  17008000           [1] loadbool   0   1   0    ; true
fail op	8
71B5  08000000           [2] setupval   0   0      
71B9  1E008000           [3] return     0   1      
                         * constants:
71BD  00                 sizek (0)
                         * functions:
71BE  00                 sizep (0)
                         * lines:
71BF  03                 sizelineinfo (3)
                         [pc] (line)
71C0  50                 [1] (80)
71C1  04                 [2] (80)
71C2  00                 [3] (81)
                         * locals:
71CC  00                 sizelocvars (0)
                         * upvalues:
71CD  00                 sizeupvalues (0)
                         ** end of function **

                         
71CE                     ** function [18] definition (level 2)
                         ** start of function **
71CE  00                 string size (0)
                         source name: (none)
71D0  08                 line defined (1107)
71D1  D5                 last line defined (1109)
71D2  08                 nups (1)
71D3  01                 numparams (0)
71D4  00                 is_vararg (0)
71D5  00                 maxstacksize (2)
                         * code:
71D7  03                 sizecode (3)
71D8  17000000           [1] loadbool   0   0   0    ; false
fail op	8
71DC  08000000           [2] setupval   0   0      
71E0  1E008000           [3] return     0   1      
                         * constants:
71E4  00                 sizek (0)
                         * functions:
71E5  00                 sizep (0)
                         * lines:
71E6  03                 sizelineinfo (3)
                         [pc] (line)
71E7  54                 [1] (84)
71E8  04                 [2] (84)
71E9  00                 [3] (85)
                         * locals:
71F3  00                 sizelocvars (0)
                         * upvalues:
71F4  00                 sizeupvalues (0)
                         ** end of function **

                         
71F5                     ** function [19] definition (level 2)
                         ** start of function **
71F5  00                 string size (0)
                         source name: (none)
71F7  08                 line defined (1111)
71F8  D9                 last line defined (1113)
71F9  08                 nups (1)
71FA  01                 numparams (0)
71FB  00                 is_vararg (0)
71FC  00                 maxstacksize (2)
                         * code:
71FE  03                 sizecode (3)
71FF  17008000           [1] loadbool   0   1   0    ; true
fail op	8
7203  08000000           [2] setupval   0   0      
7207  1E008000           [3] return     0   1      
                         * constants:
720B  00                 sizek (0)
                         * functions:
720C  00                 sizep (0)
                         * lines:
720D  03                 sizelineinfo (3)
                         [pc] (line)
720E  58                 [1] (88)
720F  04                 [2] (88)
7210  00                 [3] (89)
                         * locals:
721A  00                 sizelocvars (0)
                         * upvalues:
721B  00                 sizeupvalues (0)
                         ** end of function **

                         
721C                     ** function [20] definition (level 2)
                         ** start of function **
721C  00                 string size (0)
                         source name: (none)
721E  08                 line defined (1115)
721F  DD                 last line defined (1117)
7220  08                 nups (1)
7221  01                 numparams (0)
7222  00                 is_vararg (0)
7223  00                 maxstacksize (2)
                         * code:
7225  03                 sizecode (3)
7226  17000000           [1] loadbool   0   0   0    ; false
fail op	8
722A  08000000           [2] setupval   0   0      
722E  1E008000           [3] return     0   1      
                         * constants:
7232  00                 sizek (0)
                         * functions:
7233  00                 sizep (0)
                         * lines:
7234  03                 sizelineinfo (3)
                         [pc] (line)
7235  5C                 [1] (92)
7236  04                 [2] (92)
7237  00                 [3] (93)
                         * locals:
7241  00                 sizelocvars (0)
                         * upvalues:
7242  00                 sizeupvalues (0)
                         ** end of function **

                         
7243                     ** function [21] definition (level 2)
                         ** start of function **
7243  00                 string size (0)
                         source name: (none)
7245  08                 line defined (1119)
7246  E2                 last line defined (1122)
7247  08                 nups (1)
7248  01                 numparams (0)
7249  00                 is_vararg (0)
724A  00                 maxstacksize (2)
                         * code:
724C  05                 sizecode (5)
724D  17008000           [1] loadbool   0   1   0    ; true
fail op	8
7251  08000000           [2] setupval   0   0      
7255  17000000           [3] loadbool   0   0   0    ; false
7259  1E000001           [4] return     0   2      
725D  1E008000           [5] return     0   1      
                         * constants:
7261  00                 sizek (0)
                         * functions:
7262  00                 sizep (0)
                         * lines:
7263  05                 sizelineinfo (5)
                         [pc] (line)
7264  60                 [1] (96)
7265  04                 [2] (96)
7266  00                 [3] (97)
7267  00                 [4] (97)
7268  60                 [5] (98)
                         * locals:
7278  00                 sizelocvars (0)
                         * upvalues:
7279  00                 sizeupvalues (0)
                         ** end of function **

                         
727A                     ** function [22] definition (level 2)
                         ** start of function **
727A  00                 string size (0)
                         source name: (none)
727C  08                 line defined (1124)
727D  E7                 last line defined (1127)
727E  08                 nups (1)
727F  01                 numparams (0)
7280  00                 is_vararg (0)
7281  00                 maxstacksize (2)
                         * code:
7283  05                 sizecode (5)
7284  17008000           [1] loadbool   0   1   0    ; true
fail op	8
7288  08000000           [2] setupval   0   0      
728C  17000000           [3] loadbool   0   0   0    ; false
7290  1E000001           [4] return     0   2      
7294  1E008000           [5] return     0   1      
                         * constants:
7298  00                 sizek (0)
                         * functions:
7299  00                 sizep (0)
                         * lines:
729A  05                 sizelineinfo (5)
                         [pc] (line)
729B  65                 [1] (101)
729C  04                 [2] (101)
729D  00                 [3] (102)
729E  00                 [4] (102)
729F  65                 [5] (103)
                         * locals:
72AF  00                 sizelocvars (0)
                         * upvalues:
72B0  00                 sizeupvalues (0)
                         ** end of function **

                         
72B1                     ** function [23] definition (level 2)
                         ** start of function **
72B1  00                 string size (0)
                         source name: (none)
72B3  08                 line defined (1129)
72B4  EC                 last line defined (1132)
72B5  08                 nups (1)
72B6  01                 numparams (0)
72B7  00                 is_vararg (0)
72B8  00                 maxstacksize (2)
                         * code:
72BA  05                 sizecode (5)
72BB  17000000           [1] loadbool   0   0   0    ; false
fail op	8
72BF  08000000           [2] setupval   0   0      
72C3  17000000           [3] loadbool   0   0   0    ; false
72C7  1E000001           [4] return     0   2      
72CB  1E008000           [5] return     0   1      
                         * constants:
72CF  00                 sizek (0)
                         * functions:
72D0  00                 sizep (0)
                         * lines:
72D1  05                 sizelineinfo (5)
                         [pc] (line)
72D2  6A                 [1] (106)
72D3  04                 [2] (106)
72D4  00                 [3] (107)
72D5  00                 [4] (107)
72D6  6A                 [5] (108)
                         * locals:
72E6  00                 sizelocvars (0)
                         * upvalues:
72E7  00                 sizeupvalues (0)
                         ** end of function **

                         
72E8                     ** function [24] definition (level 2)
                         ** start of function **
72E8  00                 string size (0)
                         source name: (none)
72EA  08                 line defined (1134)
72EB  F1                 last line defined (1137)
72EC  08                 nups (1)
72ED  01                 numparams (0)
72EE  00                 is_vararg (0)
72EF  00                 maxstacksize (2)
                         * code:
72F1  05                 sizecode (5)
72F2  17000000           [1] loadbool   0   0   0    ; false
fail op	8
72F6  08000000           [2] setupval   0   0      
72FA  17000000           [3] loadbool   0   0   0    ; false
72FE  1E000001           [4] return     0   2      
7302  1E008000           [5] return     0   1      
                         * constants:
7306  00                 sizek (0)
                         * functions:
7307  00                 sizep (0)
                         * lines:
7308  05                 sizelineinfo (5)
                         [pc] (line)
7309  6F                 [1] (111)
730A  04                 [2] (111)
730B  00                 [3] (112)
730C  00                 [4] (112)
730D  6F                 [5] (113)
                         * locals:
731D  00                 sizelocvars (0)
                         * upvalues:
731E  00                 sizeupvalues (0)
                         ** end of function **

                         
731F                     ** function [25] definition (level 2)
                         ** start of function **
731F  00                 string size (0)
                         source name: (none)
7321  08                 line defined (1139)
7322  F6                 last line defined (1142)
7323  08                 nups (1)
7324  01                 numparams (0)
7325  00                 is_vararg (0)
7326  00                 maxstacksize (2)
                         * code:
7328  05                 sizecode (5)
7329  17008000           [1] loadbool   0   1   0    ; true
fail op	8
732D  08000000           [2] setupval   0   0      
7331  17000000           [3] loadbool   0   0   0    ; false
7335  1E000001           [4] return     0   2      
7339  1E008000           [5] return     0   1      
                         * constants:
733D  00                 sizek (0)
                         * functions:
733E  00                 sizep (0)
                         * lines:
733F  05                 sizelineinfo (5)
                         [pc] (line)
7340  74                 [1] (116)
7341  04                 [2] (116)
7342  00                 [3] (117)
7343  00                 [4] (117)
7344  74                 [5] (118)
                         * locals:
7354  00                 sizelocvars (0)
                         * upvalues:
7355  00                 sizeupvalues (0)
                         ** end of function **

                         
7356                     ** function [26] definition (level 2)
                         ** start of function **
7356  00                 string size (0)
                         source name: (none)
7358  08                 line defined (1144)
7359  FB                 last line defined (1147)
735A  08                 nups (1)
735B  01                 numparams (0)
735C  00                 is_vararg (0)
735D  00                 maxstacksize (2)
                         * code:
735F  05                 sizecode (5)
7360  17008000           [1] loadbool   0   1   0    ; true
fail op	8
7364  08000000           [2] setupval   0   0      
7368  17000000           [3] loadbool   0   0   0    ; false
736C  1E000001           [4] return     0   2      
7370  1E008000           [5] return     0   1      
                         * constants:
7374  00                 sizek (0)
                         * functions:
7375  00                 sizep (0)
                         * lines:
7376  05                 sizelineinfo (5)
                         [pc] (line)
7377  79                 [1] (121)
7378  04                 [2] (121)
7379  00                 [3] (122)
737A  00                 [4] (122)
737B  79                 [5] (123)
                         * locals:
738B  00                 sizelocvars (0)
                         * upvalues:
738C  00                 sizeupvalues (0)
                         ** end of function **

                         
738D                     ** function [27] definition (level 2)
                         ** start of function **
738D  00                 string size (0)
                         source name: (none)
738F  08                 line defined (1149)
7390  80                 last line defined (1152)
7391  09                 nups (1)
7392  01                 numparams (0)
7393  00                 is_vararg (0)
7394  00                 maxstacksize (2)
                         * code:
7396  05                 sizecode (5)
7397  17000000           [1] loadbool   0   0   0    ; false
fail op	8
739B  08000000           [2] setupval   0   0      
739F  17000000           [3] loadbool   0   0   0    ; false
73A3  1E000001           [4] return     0   2      
73A7  1E008000           [5] return     0   1      
                         * constants:
73AB  00                 sizek (0)
                         * functions:
73AC  00                 sizep (0)
                         * lines:
73AD  05                 sizelineinfo (5)
                         [pc] (line)
73AE  7E                 [1] (126)
73AF  04                 [2] (126)
73B0  00                 [3] (127)
73B1  00                 [4] (127)
73B2  7E                 [5] (-128)
                         * locals:
73C2  00                 sizelocvars (0)
                         * upvalues:
73C3  00                 sizeupvalues (0)
                         ** end of function **

                         
73C4                     ** function [28] definition (level 2)
                         ** start of function **
73C4  00                 string size (0)
                         source name: (none)
73C6  09                 line defined (1154)
73C7  85                 last line defined (1157)
73C8  09                 nups (1)
73C9  01                 numparams (0)
73CA  00                 is_vararg (0)
73CB  00                 maxstacksize (2)
                         * code:
73CD  05                 sizecode (5)
73CE  17000000           [1] loadbool   0   0   0    ; false
fail op	8
73D2  08000000           [2] setupval   0   0      
73D6  17000000           [3] loadbool   0   0   0    ; false
73DA  1E000001           [4] return     0   2      
73DE  1E008000           [5] return     0   1      
                         * constants:
73E2  00                 sizek (0)
                         * functions:
73E3  00                 sizep (0)
                         * lines:
73E4  05                 sizelineinfo (5)
                         [pc] (line)
73E5  83                 [1] (-125)
73E6  04                 [2] (-125)
73E7  00                 [3] (-124)
73E8  00                 [4] (-124)
73E9  83                 [5] (-123)
                         * locals:
73F9  00                 sizelocvars (0)
                         * upvalues:
73FA  00                 sizeupvalues (0)
                         ** end of function **

                         
73FB                     ** function [29] definition (level 2)
                         ** start of function **
73FB  00                 string size (0)
                         source name: (none)
73FD  09                 line defined (1159)
73FE  8A                 last line defined (1162)
73FF  09                 nups (1)
7400  01                 numparams (0)
7401  00                 is_vararg (0)
7402  00                 maxstacksize (2)
                         * code:
7404  05                 sizecode (5)
7405  17008000           [1] loadbool   0   1   0    ; true
fail op	8
7409  08000000           [2] setupval   0   0      
740D  17000000           [3] loadbool   0   0   0    ; false
7411  1E000001           [4] return     0   2      
7415  1E008000           [5] return     0   1      
                         * constants:
7419  00                 sizek (0)
                         * functions:
741A  00                 sizep (0)
                         * lines:
741B  05                 sizelineinfo (5)
                         [pc] (line)
741C  88                 [1] (-120)
741D  04                 [2] (-120)
741E  00                 [3] (-119)
741F  00                 [4] (-119)
7420  88                 [5] (-118)
                         * locals:
7430  00                 sizelocvars (0)
                         * upvalues:
7431  00                 sizeupvalues (0)
                         ** end of function **

                         
7432                     ** function [30] definition (level 2)
                         ** start of function **
7432  00                 string size (0)
                         source name: (none)
7434  09                 line defined (1164)
7435  8F                 last line defined (1167)
7436  09                 nups (1)
7437  01                 numparams (0)
7438  00                 is_vararg (0)
7439  00                 maxstacksize (2)
                         * code:
743B  05                 sizecode (5)
743C  17008000           [1] loadbool   0   1   0    ; true
fail op	8
7440  08000000           [2] setupval   0   0      
7444  17000000           [3] loadbool   0   0   0    ; false
7448  1E000001           [4] return     0   2      
744C  1E008000           [5] return     0   1      
                         * constants:
7450  00                 sizek (0)
                         * functions:
7451  00                 sizep (0)
                         * lines:
7452  05                 sizelineinfo (5)
                         [pc] (line)
7453  8D                 [1] (-115)
7454  04                 [2] (-115)
7455  00                 [3] (-114)
7456  00                 [4] (-114)
7457  8D                 [5] (-113)
                         * locals:
7467  00                 sizelocvars (0)
                         * upvalues:
7468  00                 sizeupvalues (0)
                         ** end of function **

                         
7469                     ** function [31] definition (level 2)
                         ** start of function **
7469  00                 string size (0)
                         source name: (none)
746B  09                 line defined (1169)
746C  94                 last line defined (1172)
746D  09                 nups (1)
746E  01                 numparams (0)
746F  00                 is_vararg (0)
7470  00                 maxstacksize (2)
                         * code:
7472  05                 sizecode (5)
7473  17000000           [1] loadbool   0   0   0    ; false
fail op	8
7477  08000000           [2] setupval   0   0      
747B  17000000           [3] loadbool   0   0   0    ; false
747F  1E000001           [4] return     0   2      
7483  1E008000           [5] return     0   1      
                         * constants:
7487  00                 sizek (0)
                         * functions:
7488  00                 sizep (0)
                         * lines:
7489  05                 sizelineinfo (5)
                         [pc] (line)
748A  92                 [1] (-110)
748B  04                 [2] (-110)
748C  00                 [3] (-109)
748D  00                 [4] (-109)
748E  92                 [5] (-108)
                         * locals:
749E  00                 sizelocvars (0)
                         * upvalues:
749F  00                 sizeupvalues (0)
                         ** end of function **

                         
74A0                     ** function [32] definition (level 2)
                         ** start of function **
74A0  00                 string size (0)
                         source name: (none)
74A2  09                 line defined (1174)
74A3  99                 last line defined (1177)
74A4  09                 nups (1)
74A5  01                 numparams (0)
74A6  00                 is_vararg (0)
74A7  00                 maxstacksize (2)
                         * code:
74A9  05                 sizecode (5)
74AA  17000000           [1] loadbool   0   0   0    ; false
fail op	8
74AE  08000000           [2] setupval   0   0      
74B2  17000000           [3] loadbool   0   0   0    ; false
74B6  1E000001           [4] return     0   2      
74BA  1E008000           [5] return     0   1      
                         * constants:
74BE  00                 sizek (0)
                         * functions:
74BF  00                 sizep (0)
                         * lines:
74C0  05                 sizelineinfo (5)
                         [pc] (line)
74C1  97                 [1] (-105)
74C2  04                 [2] (-105)
74C3  00                 [3] (-104)
74C4  00                 [4] (-104)
74C5  97                 [5] (-103)
                         * locals:
74D5  00                 sizelocvars (0)
                         * upvalues:
74D6  00                 sizeupvalues (0)
                         ** end of function **

                         
74D7                     ** function [33] definition (level 2)
                         ** start of function **
74D7  00                 string size (0)
                         source name: (none)
74D9  09                 line defined (1179)
74DA  9E                 last line defined (1182)
74DB  09                 nups (1)
74DC  01                 numparams (0)
74DD  00                 is_vararg (0)
74DE  00                 maxstacksize (2)
                         * code:
74E0  05                 sizecode (5)
74E1  17008000           [1] loadbool   0   1   0    ; true
fail op	8
74E5  08000000           [2] setupval   0   0      
74E9  17000000           [3] loadbool   0   0   0    ; false
74ED  1E000001           [4] return     0   2      
74F1  1E008000           [5] return     0   1      
                         * constants:
74F5  00                 sizek (0)
                         * functions:
74F6  00                 sizep (0)
                         * lines:
74F7  05                 sizelineinfo (5)
                         [pc] (line)
74F8  9C                 [1] (-100)
74F9  04                 [2] (-100)
74FA  00                 [3] (-99)
74FB  00                 [4] (-99)
74FC  9C                 [5] (-98)
                         * locals:
750C  00                 sizelocvars (0)
                         * upvalues:
750D  00                 sizeupvalues (0)
                         ** end of function **

                         
750E                     ** function [34] definition (level 2)
                         ** start of function **
750E  00                 string size (0)
                         source name: (none)
7510  09                 line defined (1184)
7511  A3                 last line defined (1187)
7512  09                 nups (1)
7513  01                 numparams (0)
7514  00                 is_vararg (0)
7515  00                 maxstacksize (2)
                         * code:
7517  05                 sizecode (5)
7518  17008000           [1] loadbool   0   1   0    ; true
fail op	8
751C  08000000           [2] setupval   0   0      
7520  17000000           [3] loadbool   0   0   0    ; false
7524  1E000001           [4] return     0   2      
7528  1E008000           [5] return     0   1      
                         * constants:
752C  00                 sizek (0)
                         * functions:
752D  00                 sizep (0)
                         * lines:
752E  05                 sizelineinfo (5)
                         [pc] (line)
752F  A1                 [1] (-95)
7530  04                 [2] (-95)
7531  00                 [3] (-94)
7532  00                 [4] (-94)
7533  A1                 [5] (-93)
                         * locals:
7543  00                 sizelocvars (0)
                         * upvalues:
7544  00                 sizeupvalues (0)
                         ** end of function **

                         
7545                     ** function [35] definition (level 2)
                         ** start of function **
7545  00                 string size (0)
                         source name: (none)
7547  09                 line defined (1189)
7548  A8                 last line defined (1192)
7549  09                 nups (1)
754A  01                 numparams (0)
754B  00                 is_vararg (0)
754C  00                 maxstacksize (2)
                         * code:
754E  05                 sizecode (5)
754F  17000000           [1] loadbool   0   0   0    ; false
fail op	8
7553  08000000           [2] setupval   0   0      
7557  17000000           [3] loadbool   0   0   0    ; false
755B  1E000001           [4] return     0   2      
755F  1E008000           [5] return     0   1      
                         * constants:
7563  00                 sizek (0)
                         * functions:
7564  00                 sizep (0)
                         * lines:
7565  05                 sizelineinfo (5)
                         [pc] (line)
7566  A6                 [1] (-90)
7567  04                 [2] (-90)
7568  00                 [3] (-89)
7569  00                 [4] (-89)
756A  A6                 [5] (-88)
                         * locals:
757A  00                 sizelocvars (0)
                         * upvalues:
757B  00                 sizeupvalues (0)
                         ** end of function **

                         
757C                     ** function [36] definition (level 2)
                         ** start of function **
757C  00                 string size (0)
                         source name: (none)
757E  09                 line defined (1194)
757F  AD                 last line defined (1197)
7580  09                 nups (1)
7581  01                 numparams (0)
7582  00                 is_vararg (0)
7583  00                 maxstacksize (2)
                         * code:
7585  05                 sizecode (5)
7586  17000000           [1] loadbool   0   0   0    ; false
fail op	8
758A  08000000           [2] setupval   0   0      
758E  17000000           [3] loadbool   0   0   0    ; false
7592  1E000001           [4] return     0   2      
7596  1E008000           [5] return     0   1      
                         * constants:
759A  00                 sizek (0)
                         * functions:
759B  00                 sizep (0)
                         * lines:
759C  05                 sizelineinfo (5)
                         [pc] (line)
759D  AB                 [1] (-85)
759E  04                 [2] (-85)
759F  00                 [3] (-84)
75A0  00                 [4] (-84)
75A1  AB                 [5] (-83)
                         * locals:
75B1  00                 sizelocvars (0)
                         * upvalues:
75B2  00                 sizeupvalues (0)
                         ** end of function **

                         
75B3                     ** function [37] definition (level 2)
                         ** start of function **
75B3  00                 string size (0)
                         source name: (none)
75B5  09                 line defined (1199)
75B6  B9                 last line defined (1209)
75B7  09                 nups (3)
75B8  03                 numparams (2)
75B9  02                 is_vararg (0)
75BA  00                 maxstacksize (5)
                         * code:
75BC  1A                 sizecode (26)
75BD  9D000000           [01] getglobal  2   0        ; -174740002
75C1  D2008000           [02] move       3   1      
75C5  A2800001           [03] call       2   2   2  
75C9  DD400000           [04] getglobal  3   1        ; math
75CD  CE80C001           [05] gettable   3   3   258  ; -113279800
75D1  12010001           [06] move       4   2      
75D5  E2800001           [07] call       3   2   2  
75D9  13010000           [08] getupval   4   0      
fail op	21
75DD  15C00002           [09] concat     0   4   3  
75E1  1A000380           [10] jmp        13           ; to [24]
75E5  D3000000           [11] getupval   3   0      
fail op	21
75E9  55808001           [12] concat     1   3   2  
75ED  1A000080           [13] jmp        1            ; to [15]
75F1  D7400000           [14] loadbool   3   0   1    ; false, to [16]
75F5  D7008000           [15] loadbool   3   1   0    ; true
fail op	8
75F9  C8008000           [16] setupval   3   1      
75FD  D3000000           [17] getupval   3   0      
fail op	0
7601  C0008001           [18] move       3   3      
fail op	21
7605  55C00001           [19] concat     1   2   3  
7609  1A000080           [20] jmp        1            ; to [22]
760D  D7400000           [21] loadbool   3   0   1    ; false, to [23]
7611  D7008000           [22] loadbool   3   1   0    ; true
fail op	8
7615  C8000001           [23] setupval   3   2      
7619  D7000000           [24] loadbool   3   0   0    ; false
761D  DE000001           [25] return     3   2      
7621  1E008000           [26] return     0   1      
                         * constants:
7625  03                 sizek (3)
7626  01                 const type 3
7627  DEAD95F5           const [0]: (-174740002)
762B  04                 const type 4
762C  05                 string size (5)
762D  6D61746800         "math\0"
                         const [1]: "math"
7632  01                 const type 3
7633  C87C3FF9           const [2]: (-113279800)
                         * functions:
7637  00                 sizep (0)
                         * lines:
7638  1A                 sizelineinfo (26)
                         [pc] (line)
7639  B1                 [01] (-79)
763A  04                 [02] (-79)
763B  00                 [03] (-79)
763C  00                 [04] (-77)
763D  B1                 [05] (-77)
763E  04                 [06] (-77)
763F  00                 [07] (-77)
7640  00                 [08] (-77)
7641  B1                 [09] (-77)
7642  04                 [10] (-77)
7643  00                 [11] (-76)
7644  00                 [12] (-76)
7645  B3                 [13] (-76)
7646  04                 [14] (-76)
7647  00                 [15] (-76)
7648  00                 [16] (-76)
7649  B3                 [17] (-75)
764A  04                 [18] (-75)
764B  00                 [19] (-75)
764C  00                 [20] (-75)
764D  B3                 [21] (-75)
764E  04                 [22] (-75)
764F  00                 [23] (-75)
7650  00                 [24] (-72)
7651  B3                 [25] (-72)
7652  04                 [26] (-71)
                         * locals:
76A1  00                 sizelocvars (0)
                         * upvalues:
76A2  00                 sizeupvalues (0)
                         ** end of function **

                         
76A3                     ** function [38] definition (level 2)
                         ** start of function **
76A3  00                 string size (0)
                         source name: (none)
76A5  09                 line defined (1211)
76A6  C5                 last line defined (1221)
76A7  09                 nups (3)
76A8  03                 numparams (2)
76A9  02                 is_vararg (0)
76AA  00                 maxstacksize (5)
                         * code:
76AC  1A                 sizecode (26)
76AD  9D000000           [01] getglobal  2   0        ; -174740002
76B1  D2008000           [02] move       3   1      
76B5  A2800001           [03] call       2   2   2  
76B9  DD400000           [04] getglobal  3   1        ; math
76BD  CE80C001           [05] gettable   3   3   258  ; -113279800
76C1  12010001           [06] move       4   2      
76C5  E2800001           [07] call       3   2   2  
76C9  13010000           [08] getupval   4   0      
fail op	21
76CD  15C00002           [09] concat     0   4   3  
76D1  1A000380           [10] jmp        13           ; to [24]
76D5  D3000000           [11] getupval   3   0      
fail op	21
76D9  55808001           [12] concat     1   3   2  
76DD  1A000080           [13] jmp        1            ; to [15]
76E1  D7400000           [14] loadbool   3   0   1    ; false, to [16]
76E5  D7008000           [15] loadbool   3   1   0    ; true
fail op	8
76E9  C8008000           [16] setupval   3   1      
76ED  D3000000           [17] getupval   3   0      
fail op	0
76F1  C0008001           [18] move       3   3      
fail op	21
76F5  55C00001           [19] concat     1   2   3  
76F9  1A000080           [20] jmp        1            ; to [22]
76FD  D7400000           [21] loadbool   3   0   1    ; false, to [23]
7701  D7008000           [22] loadbool   3   1   0    ; true
fail op	8
7705  C8000001           [23] setupval   3   2      
7709  D7000000           [24] loadbool   3   0   0    ; false
770D  DE000001           [25] return     3   2      
7711  1E008000           [26] return     0   1      
                         * constants:
7715  03                 sizek (3)
7716  01                 const type 3
7717  DEAD95F5           const [0]: (-174740002)
771B  04                 const type 4
771C  05                 string size (5)
771D  6D61746800         "math\0"
                         const [1]: "math"
7722  01                 const type 3
7723  C87C3FF9           const [2]: (-113279800)
                         * functions:
7727  00                 sizep (0)
                         * lines:
7728  1A                 sizelineinfo (26)
                         [pc] (line)
7729  BD                 [01] (-67)
772A  04                 [02] (-67)
772B  00                 [03] (-67)
772C  00                 [04] (-65)
772D  BD                 [05] (-65)
772E  04                 [06] (-65)
772F  00                 [07] (-65)
7730  00                 [08] (-65)
7731  BD                 [09] (-65)
7732  04                 [10] (-65)
7733  00                 [11] (-64)
7734  00                 [12] (-64)
7735  BF                 [13] (-64)
7736  04                 [14] (-64)
7737  00                 [15] (-64)
7738  00                 [16] (-64)
7739  BF                 [17] (-63)
773A  04                 [18] (-63)
773B  00                 [19] (-63)
773C  00                 [20] (-63)
773D  BF                 [21] (-63)
773E  04                 [22] (-63)
773F  00                 [23] (-63)
7740  00                 [24] (-60)
7741  BF                 [25] (-60)
7742  04                 [26] (-59)
                         * locals:
7791  00                 sizelocvars (0)
                         * upvalues:
7792  00                 sizeupvalues (0)
                         ** end of function **

                         * lines:
7794  02                 sizelineinfo (322)
                         [pc] (line)
7795  14                 [001] (20)
7796  00                 [002] (21)
7797  00                 [003] (21)
7798  00                 [004] (21)
7799  15                 [005] (21)
779A  00                 [006] (21)
779B  00                 [007] (21)
779C  00                 [008] (21)
779D  15                 [009] (21)
779E  00                 [010] (21)
779F  00                 [011] (21)
77A0  00                 [012] (21)
77A1  15                 [013] (21)
77A2  00                 [014] (21)
77A3  00                 [015] (21)
77A4  00                 [016] (21)
77A5  15                 [017] (21)
77A6  00                 [018] (21)
77A7  00                 [019] (21)
77A8  00                 [020] (22)
77A9  15                 [021] (22)
77AA  00                 [022] (22)
77AB  00                 [023] (22)
77AC  00                 [024] (22)
77AD  15                 [025] (22)
77AE  00                 [026] (22)
77AF  00                 [027] (22)
77B0  00                 [028] (22)
77B1  15                 [029] (22)
77B2  00                 [030] (22)
77B3  00                 [031] (22)
77B4  00                 [032] (22)
77B5  15                 [033] (22)
77B6  00                 [034] (22)
77B7  00                 [035] (22)
77B8  00                 [036] (22)
77B9  15                 [037] (22)
77BA  00                 [038] (23)
77BB  00                 [039] (23)
77BC  00                 [040] (23)
77BD  15                 [041] (23)
77BE  00                 [042] (23)
77BF  00                 [043] (23)
77C0  00                 [044] (23)
77C1  15                 [045] (23)
77C2  00                 [046] (23)
77C3  00                 [047] (23)
77C4  00                 [048] (23)
77C5  15                 [049] (23)
77C6  00                 [050] (23)
77C7  00                 [051] (23)
77C8  00                 [052] (23)
77C9  15                 [053] (23)
77CA  00                 [054] (23)
77CB  00                 [055] (23)
77CC  00                 [056] (26)
77CD  15                 [057] (26)
77CE  00                 [058] (26)
77CF  00                 [059] (27)
77D0  00                 [060] (27)
77D1  15                 [061] (27)
77D2  00                 [062] (28)
77D3  00                 [063] (28)
77D4  00                 [064] (28)
77D5  15                 [065] (29)
77D6  00                 [066] (29)
77D7  00                 [067] (29)
77D8  00                 [068] (33)
77D9  15                 [069] (36)
77DA  00                 [070] (37)
77DB  00                 [071] (39)
77DC  00                 [072] (40)
77DD  15                 [073] (41)
77DE  00                 [074] (43)
77DF  00                 [075] (45)
77E0  00                 [076] (47)
77E1  16                 [077] (48)
77E2  00                 [078] (50)
77E3  00                 [079] (53)
77E4  00                 [080] (55)
77E5  16                 [081] (57)
77E6  00                 [082] (58)
77E7  00                 [083] (59)
77E8  00                 [084] (61)
77E9  16                 [085] (63)
77EA  00                 [086] (64)
77EB  00                 [087] (65)
77EC  00                 [088] (66)
77ED  16                 [089] (67)
77EE  00                 [090] (69)
77EF  00                 [091] (71)
77F0  00                 [092] (72)
77F1  16                 [093] (73)
77F2  00                 [094] (74)
77F3  00                 [095] (76)
77F4  00                 [096] (76)
77F5  16                 [097] (76)
77F6  00                 [098] (77)
77F7  00                 [099] (77)
77F8  00                 [100] (77)
77F9  16                 [101] (78)
77FA  00                 [102] (78)
77FB  00                 [103] (78)
77FC  00                 [104] (79)
77FD  16                 [105] (79)
77FE  00                 [106] (79)
77FF  00                 [107] (80)
7800  00                 [108] (80)
7801  16                 [109] (80)
7802  00                 [110] (82)
7803  00                 [111] (83)
7804  00                 [112] (85)
7805  16                 [113] (87)
7806  00                 [114] (87)
7807  00                 [115] (87)
7808  00                 [116] (88)
7809  16                 [117] (88)
780A  00                 [118] (88)
780B  00                 [119] (90)
780C  00                 [120] (90)
780D  16                 [121] (90)
780E  00                 [122] (92)
780F  00                 [123] (100)
7810  00                 [124] (100)
7811  16                 [125] (107)
7812  00                 [126] (107)
7813  00                 [127] (114)
7814  00                 [128] (114)
7815  16                 [129] (126)
7816  00                 [130] (126)
7817  00                 [131] (126)
7818  00                 [132] (-122)
7819  16                 [133] (-122)
781A  00                 [134] (-122)
781B  00                 [135] (-122)
781C  00                 [136] (-122)
781D  16                 [137] (-128)
781E  00                 [138] (-105)
781F  00                 [139] (-105)
7820  00                 [140] (-105)
7821  16                 [141] (-39)
7822  00                 [142] (-39)
7823  00                 [143] (1)
7824  00                 [144] (1)
7825  16                 [145] (1)
7826  00                 [146] (51)
7827  00                 [147] (51)
7828  00                 [148] (11)
7829  17                 [149] (11)
782A  00                 [150] (11)
782B  00                 [151] (11)
782C  00                 [152] (11)
782D  17                 [153] (11)
782E  00                 [154] (11)
782F  00                 [155] (11)
7830  00                 [156] (11)
7831  17                 [157] (11)
7832  00                 [158] (11)
7833  00                 [159] (11)
7834  00                 [160] (11)
7835  17                 [161] (11)
7836  00                 [162] (11)
7837  00                 [163] (11)
7838  00                 [164] (11)
7839  17                 [165] (11)
783A  00                 [166] (11)
783B  00                 [167] (11)
783C  00                 [168] (11)
783D  17                 [169] (53)
783E  00                 [170] (30)
783F  00                 [171] (30)
7840  00                 [172] (30)
7841  17                 [173] (30)
7842  00                 [174] (13)
7843  00                 [175] (32)
7844  00                 [176] (66)
7845  17                 [177] (66)
7846  00                 [178] (66)
7847  00                 [179] (66)
7848  00                 [180] (66)
7849  17                 [181] (73)
784A  00                 [182] (-28)
784B  00                 [183] (-28)
784C  00                 [184] (-28)
784D  17                 [185] (-28)
784E  00                 [186] (-28)
784F  00                 [187] (-28)
7850  00                 [188] (-28)
7851  17                 [189] (-28)
7852  00                 [190] (-28)
7853  00                 [191] (-28)
7854  00                 [192] (-28)
7855  17                 [193] (-28)
7856  00                 [194] (-28)
7857  00                 [195] (-28)
7858  00                 [196] (-28)
7859  17                 [197] (-28)
785A  00                 [198] (-17)
785B  00                 [199] (4)
785C  00                 [200] (4)
785D  17                 [201] (77)
785E  00                 [202] (77)
785F  00                 [203] (77)
7860  00                 [204] (77)
7861  17                 [205] (77)
7862  00                 [206] (77)
7863  00                 [207] (77)
7864  00                 [208] (77)
7865  17                 [209] (77)
7866  00                 [210] (77)
7867  00                 [211] (77)
7868  00                 [212] (77)
7869  17                 [213] (77)
786A  00                 [214] (77)
786B  00                 [215] (77)
786C  00                 [216] (77)
786D  17                 [217] (77)
786E  00                 [218] (77)
786F  00                 [219] (77)
7870  00                 [220] (77)
7871  1A                 [221] (77)
7872  00                 [222] (77)
7873  00                 [223] (77)
7874  00                 [224] (77)
7875  1A                 [225] (77)
7876  00                 [226] (77)
7877  00                 [227] (77)
7878  00                 [228] (77)
7879  1A                 [229] (6)
787A  00                 [230] (81)
787B  00                 [231] (81)
787C  00                 [232] (81)
787D  1B                 [233] (79)
787E  00                 [234] (85)
787F  00                 [235] (85)
7880  00                 [236] (85)
7881  1B                 [237] (83)
7882  00                 [238] (89)
7883  00                 [239] (89)
7884  00                 [240] (89)
7885  1B                 [241] (87)
7886  00                 [242] (93)
7887  00                 [243] (93)
7888  00                 [244] (93)
7889  1C                 [245] (91)
788A  00                 [246] (98)
788B  00                 [247] (98)
788C  00                 [248] (98)
788D  1C                 [249] (95)
788E  00                 [250] (103)
788F  00                 [251] (103)
7890  00                 [252] (103)
7891  1C                 [253] (100)
7892  00                 [254] (108)
7893  00                 [255] (108)
7894  00                 [256] (108)
7895  1D                 [257] (105)
7896  00                 [258] (113)
7897  00                 [259] (113)
7898  00                 [260] (113)
7899  1D                 [261] (110)
789A  00                 [262] (118)
789B  00                 [263] (118)
789C  00                 [264] (118)
789D  1D                 [265] (115)
789E  00                 [266] (123)
789F  00                 [267] (123)
78A0  00                 [268] (123)
78A1  21                 [269] (120)
78A2  00                 [270] (-128)
78A3  00                 [271] (-128)
78A4  00                 [272] (-128)
78A5  24                 [273] (125)
78A6  00                 [274] (-123)
78A7  00                 [275] (-123)
78A8  00                 [276] (-123)
78A9  25                 [277] (-126)
78AA  00                 [278] (-118)
78AB  00                 [279] (-118)
78AC  00                 [280] (-118)
78AD  27                 [281] (-121)
78AE  00                 [282] (-113)
78AF  00                 [283] (-113)
78B0  00                 [284] (-113)
78B1  28                 [285] (-116)
78B2  00                 [286] (-108)
78B3  00                 [287] (-108)
78B4  00                 [288] (-108)
78B5  29                 [289] (-111)
78B6  00                 [290] (-103)
78B7  00                 [291] (-103)
78B8  00                 [292] (-103)
78B9  2B                 [293] (-106)
78BA  00                 [294] (-98)
78BB  00                 [295] (-98)
78BC  00                 [296] (-98)
78BD  2D                 [297] (-101)
78BE  00                 [298] (-93)
78BF  00                 [299] (-93)
78C0  00                 [300] (-93)
78C1  2F                 [301] (-96)
78C2  00                 [302] (-88)
78C3  00                 [303] (-88)
78C4  00                 [304] (-88)
78C5  30                 [305] (-91)
78C6  00                 [306] (-83)
78C7  00                 [307] (-83)
78C8  00                 [308] (-83)
78C9  32                 [309] (-86)
78CA  00                 [310] (-71)
78CB  00                 [311] (-71)
78CC  00                 [312] (-71)
78CD  35                 [313] (-71)
78CE  00                 [314] (-71)
78CF  00                 [315] (-81)
78D0  00                 [316] (-59)
78D1  37                 [317] (-59)
78D2  00                 [318] (-59)
78D3  00                 [319] (-59)
78D4  00                 [320] (-59)
78D5  39                 [321] (-69)
78D6  00                 [322] (-59)
                         * locals:
7C9D  00                 sizelocvars (0)
                         * upvalues:
7C9E  00                 sizeupvalues (0)
                         ** end of function **

7C9F                     ** end of chunk **
