1	C:\wlua_dump\path\Lotus\InterfaceCodexUtilities.lua
Pos   Hex Data           Description or Code
------------------------------------------------------------------------
0000                     ** source chunk: C:\wlua_dump\path\Lotus\InterfaceCodexUtilities.lua
                         ** global header start **
0000  7F                 header signature: ""
0001  00                 version (major:minor hex digits)
0002  00                 format (0=official)
0003  00                 endianness (1=little endian)
0004  00                 size of int (bytes)
0005  00                 size of size_t (bytes)
0006  02                 size of Instruction (bytes)
0007  12                 size of number (bytes)
0008  52                 integral (1=integral)
482
                         * number type: single
                         * x86 standard (32-bit, little endian, doubles)
                         ** global header end **
package
seeall
EE.Interface.Utilities
Lotus.Interface.LotusUtilities
<DT_IMPACT>
<DT_PUNCTURE>
<DT_SLASH>
<DT_FIRE>
<DT_FREEZE>
<DT_ELECTRICITY>
<DT_POISON>
<DT_EXPLOSION>
<DT_RADIATION>
<DT_GAS>
<DT_MAGNETIC>
<DT_VIRAL>
<DT_CORROSIVE>
<DT_RADIANT>
<DT_SENTIENT>
/Lotus/Language/Game/RK_NONE
/Lotus/Language/Game/RK_ARMOR
/Lotus/Language/Game/RK_CLONED_FLESH
/Lotus/Language/Game/RK_MACHINERY
/Lotus/Language/Game/RK_HULKING_ARMOR
/Lotus/Language/Game/RK_SHIELD
/Lotus/Language/Game/RK_FLESH
/Lotus/Language/Game/RK_ROBOTIC
/Lotus/Language/Game/RK_HEAVY_SHIELD
/Lotus/Language/Game/RK_INFESTED_FLESH
/Lotus/Language/Game/RK_INFESTED
/Lotus/Language/Game/RK_INFESTED_ARMOUR
/Lotus/Language/Game/RK_FOSSILIZED
GetEnemyInfoText
GetLocalizedName
GetDropSources
GetDropSourcesString
OnStats
<b>
</b>

%:
<font color="
">
</font>
: 
<br></font>
#999999
#FFFFFF
<font color="
">
/Lotus/Language/Menu/AlertPopup_Faction
 
string
faction
GRINEER
/Lotus/Language/Game/Faction_GrineerUC
CORPUS
/Lotus/Language/Game/Faction_CorpusUC
INFESTATION
/Lotus/Language/Game/Faction_InfestationUC
OROKIN
/Lotus/Language/Game/Faction_OrokinUC
NEUTRAL
/Lotus/Language/Syndicates/Neutral
SENTIENT
/Lotus/Language/Game/Faction_SentientUC
STALKER
/Lotus/Language/Game/Stalker
<br></font>
shortDesc

/Game/AVATAR_HEALTH_MAX
/Game/AVATAR_SHIELD
/Game/AVATAR_ARMOUR
maxHealth
maxShield
armourRating
shieldResistance
armourResistance
healthResistance
gRegion
math
-
+
  <font color="
">  
</font>
regionBits
name
, 
/Lotus/Language/Game/Regions
:
<br>
Label
locName
type
gLotusNpcAvatarType
isLeader
/Lotus/Types/Enemies/Grineer/AIWeek/Avatars/GrineerMeleeStaffAvatarLeader
ENEMY

string
/Lotus/Language/EnemyLeaders/ProsecutorGenericLeaderName
%s+
/Lotus/Language/EnemyLeaders/GenericLeaderName
related
/Lotus/Types/Game/MissionDecks/BaseJobRewards
/Lotus/Types/BoosterPacks/RandomProjection
gMissionRewardItemManifestType
randomizedItems
enemyCacheOverride
regionLocTag
name
string
locTag
???
table
gBaseAvatarType
type
gKeyItemType

reqScans
gLotusDioramaType
gSyndicateType
Label
Found
, 
Group

#999999
#FFFFFF
type
gVoidProjectionItemType
/Lotus/Language/PrimeStore/Codex_PrimeVault
Label
Group
<br>
Found
???
%:
<font color="
">
</font>
: </font>
/Lotus/Language/Menu/Codex_DropSources
</font><br>
/Lotus/Types/Game/BaseCosmeticEnhancer
mScans
type
scans
mMissions
location
gGameData
mTag

name
randomizedItems
enemyCacheOverride
mItemType
gVoidProjectionItemType
mItemCount
                         
0001                     ** function [0] definition (level 1)
                         ** start of function **
0001  00                 string size (0)
                         source name: (none)
0002  00                 line defined (0)
0003  00                 last line defined (0)
0004  00                 nups (0)
0005  00                 numparams (0)
0006  02                 is_vararg (2)
0007  12                 maxstacksize (18)
                         * code:
0008  52                 sizecode (82)
0009  1D000000           [01] getglobal  0   0        ; 954442511
000D  41000001           [02] vararg     1   2      
0011  9D400000           [03] getglobal  2   1        ; package
0015  8E804001           [04] gettable   2   2   258  ; "seeall"
0019  22408001           [05] call       0   3   1  
001D  1DC00000           [06] getglobal  0   3        ; 849075268
0021  59000100           [07] loadk      1   4        ; "EE.Interface.Utilities"
0025  22800001           [08] call       0   2   2  
0029  5DC00000           [09] getglobal  1   3        ; 849075268
002D  99400100           [10] loadk      2   5        ; "Lotus.Interface.LotusUtilities"
0031  62800001           [11] call       1   2   2  
0035  8B008007           [12] newtable   2   15  0    ; array=15, hash=0
0039  D9800100           [13] loadk      3   6        ; "<DT_IMPACT>"
003D  19C10100           [14] loadk      4   7        ; "<DT_PUNCTURE>"
0041  59010200           [15] loadk      5   8        ; "<DT_SLASH>"
0045  99410200           [16] loadk      6   9        ; "<DT_FIRE>"
0049  D9810200           [17] loadk      7   10       ; "<DT_FREEZE>"
004D  19C20200           [18] loadk      8   11       ; "<DT_ELECTRICITY>"
0051  59020300           [19] loadk      9   12       ; "<DT_POISON>"
0055  99420300           [20] loadk      10  13       ; "<DT_EXPLOSION>"
0059  D9820300           [21] loadk      11  14       ; "<DT_RADIATION>"
005D  19C30300           [22] loadk      12  15       ; "<DT_GAS>"
0061  59030400           [23] loadk      13  16       ; "<DT_MAGNETIC>"
0065  99430400           [24] loadk      14  17       ; "<DT_VIRAL>"
0069  D9830400           [25] loadk      15  18       ; "<DT_CORROSIVE>"
006D  19C40400           [26] loadk      16  19       ; "<DT_RADIANT>"
0071  59040500           [27] loadk      17  20       ; "<DT_SENTIENT>"
0075  9B408007           [28] setlist    2   15  1    ; index 1 to 15
0079  CB008006           [29] newtable   3   13  0    ; array=13, hash=0
007D  19410500           [30] loadk      4   21       ; "/Lotus/Language/Game/RK_NONE"
0081  59810500           [31] loadk      5   22       ; "/Lotus/Language/Game/RK_ARMOR"
0085  99C10500           [32] loadk      6   23       ; "/Lotus/Language/Game/RK_CLONED_FLESH"
0089  D9010600           [33] loadk      7   24       ; "/Lotus/Language/Game/RK_MACHINERY"
008D  19420600           [34] loadk      8   25       ; "/Lotus/Language/Game/RK_HULKING_ARMOR"
0091  59820600           [35] loadk      9   26       ; "/Lotus/Language/Game/RK_SHIELD"
0095  99C20600           [36] loadk      10  27       ; "/Lotus/Language/Game/RK_FLESH"
0099  D9020700           [37] loadk      11  28       ; "/Lotus/Language/Game/RK_ROBOTIC"
009D  19430700           [38] loadk      12  29       ; "/Lotus/Language/Game/RK_HEAVY_SHIELD"
00A1  59830700           [39] loadk      13  30       ; "/Lotus/Language/Game/RK_INFESTED_FLESH"
00A5  99C30700           [40] loadk      14  31       ; "/Lotus/Language/Game/RK_INFESTED"
00A9  D9030800           [41] loadk      15  32       ; "/Lotus/Language/Game/RK_INFESTED_ARMOUR"
00AD  19440800           [42] loadk      16  33       ; "/Lotus/Language/Game/RK_FOSSILIZED"
00B1  DB408006           [43] setlist    3   13  1    ; index 1 to 13
00B5  0B010001           [44] newtable   4   2   0    ; array=2, hash=0
00B9  59C10400           [45] loadk      5   19       ; "<DT_RADIANT>"
00BD  99010500           [46] loadk      6   20       ; "<DT_SENTIENT>"
00C1  1B410001           [47] setlist    4   2   1    ; index 1 to 2
00C5  65010000           [48] closure    5   0      
00C9  12000000           [49] move       0   0      
00CD  A5410000           [50] closure    6   1      
00D1  12000002           [51] move       0   4      
00D5  E5810000           [52] closure    7   2      
00D9  12008002           [53] move       0   5      
00DD  12008001           [54] move       0   3      
00E1  12000001           [55] move       0   2      
00E5  12000003           [56] move       0   6      
00E9  12000000           [57] move       0   0      
00ED  12008000           [58] move       0   1      
00F1  E0810800           [59] setglobal  7   34       ; GetEnemyInfoText
00F5  E0C10800           [60] setglobal  7   35       ; -953280542
00F9  E5C10000           [61] closure    7   3      
00FD  25020100           [62] closure    8   4      
0101  65420100           [63] closure    9   5      
0105  12000004           [64] move       0   8      
0109  60020900           [65] setglobal  9   36       ; GetLocalizedName
010D  60420900           [66] setglobal  9   37       ; -202135980
0111  65820100           [67] closure    9   6      
0115  12000004           [68] move       0   8      
0119  12008003           [69] move       0   7      
011D  A5C20100           [70] closure    10  7      
0121  12008004           [71] move       0   9      
0125  A0820900           [72] setglobal  10  38       ; GetDropSources
0129  A0C20900           [73] setglobal  10  39       ; 716424404
012D  A5020200           [74] closure    10  8      
0131  12008004           [75] move       0   9      
0135  12000000           [76] move       0   0      
0139  A0020A00           [77] setglobal  10  40       ; GetDropSourcesString
013D  A0420A00           [78] setglobal  10  41       ; 844950911
0141  A5420200           [79] closure    10  9      
0145  A0820A00           [80] setglobal  10  42       ; OnStats
0149  A0C20A00           [81] setglobal  10  43       ; 192639003
014D  1E008000           [82] return     0   1      
                         * constants:
0151  2C                 sizek (44)
0152  01                 const type 3
0153  0FA3E338           const [0]: (954442511)
0157  04                 const type 4
0158  08                 string size (8)
0159  7061636B61676500   "package\0"
                         const [1]: "package"
0161  04                 const type 4
0162  07                 string size (7)
0163  736565616C6C00     "seeall\0"
                         const [2]: "seeall"
016A  01                 const type 3
016B  44DC9B32           const [3]: (849075268)
016F  04                 const type 4
0170  17                 string size (23)
0171  45452E496E746572+  "EE.Inter"
0179  666163652E557469+  "face.Uti"
0181  6C697469657300     "lities\0"
                         const [4]: "EE.Interface.Utilities"
0188  04                 const type 4
0189  1F                 string size (31)
018A  4C6F7475732E496E+  "Lotus.In"
0192  746572666163652E+  "terface."
019A  4C6F747573557469+  "LotusUti"
01A2  6C697469657300     "lities\0"
                         const [5]: "Lotus.Interface.LotusUtilities"
01A9  04                 const type 4
01AA  0C                 string size (12)
01AB  3C44545F494D5041+  "<DT_IMPA"
01B3  43543E00           "CT>\0"
                         const [6]: "<DT_IMPACT>"
01B7  04                 const type 4
01B8  0E                 string size (14)
01B9  3C44545F50554E43+  "<DT_PUNC"
01C1  545552453E00       "TURE>\0"
                         const [7]: "<DT_PUNCTURE>"
01C7  04                 const type 4
01C8  0B                 string size (11)
01C9  3C44545F534C4153+  "<DT_SLAS"
01D1  483E00             "H>\0"
                         const [8]: "<DT_SLASH>"
01D4  04                 const type 4
01D5  0A                 string size (10)
01D6  3C44545F46495245+  "<DT_FIRE"
01DE  3E00               ">\0"
                         const [9]: "<DT_FIRE>"
01E0  04                 const type 4
01E1  0C                 string size (12)
01E2  3C44545F46524545+  "<DT_FREE"
01EA  5A453E00           "ZE>\0"
                         const [10]: "<DT_FREEZE>"
01EE  04                 const type 4
01EF  11                 string size (17)
01F0  3C44545F454C4543+  "<DT_ELEC"
01F8  545249434954593E+  "TRICITY>"
0200  00                 "\0"
                         const [11]: "<DT_ELECTRICITY>"
0201  04                 const type 4
0202  0C                 string size (12)
0203  3C44545F504F4953+  "<DT_POIS"
020B  4F4E3E00           "ON>\0"
                         const [12]: "<DT_POISON>"
020F  04                 const type 4
0210  0F                 string size (15)
0211  3C44545F4558504C+  "<DT_EXPL"
0219  4F53494F4E3E00     "OSION>\0"
                         const [13]: "<DT_EXPLOSION>"
0220  04                 const type 4
0221  0F                 string size (15)
0222  3C44545F52414449+  "<DT_RADI"
022A  4154494F4E3E00     "ATION>\0"
                         const [14]: "<DT_RADIATION>"
0231  04                 const type 4
0232  09                 string size (9)
0233  3C44545F4741533E+  "<DT_GAS>"
023B  00                 "\0"
                         const [15]: "<DT_GAS>"
023C  04                 const type 4
023D  0E                 string size (14)
023E  3C44545F4D41474E+  "<DT_MAGN"
0246  455449433E00       "ETIC>\0"
                         const [16]: "<DT_MAGNETIC>"
024C  04                 const type 4
024D  0B                 string size (11)
024E  3C44545F56495241+  "<DT_VIRA"
0256  4C3E00             "L>\0"
                         const [17]: "<DT_VIRAL>"
0259  04                 const type 4
025A  0F                 string size (15)
025B  3C44545F434F5252+  "<DT_CORR"
0263  4F534956453E00     "OSIVE>\0"
                         const [18]: "<DT_CORROSIVE>"
026A  04                 const type 4
026B  0D                 string size (13)
026C  3C44545F52414449+  "<DT_RADI"
0274  414E543E00         "ANT>\0"
                         const [19]: "<DT_RADIANT>"
0279  04                 const type 4
027A  0E                 string size (14)
027B  3C44545F53454E54+  "<DT_SENT"
0283  49454E543E00       "IENT>\0"
                         const [20]: "<DT_SENTIENT>"
0289  04                 const type 4
028A  1D                 string size (29)
028B  2F4C6F7475732F4C+  "/Lotus/L"
0293  616E67756167652F+  "anguage/"
029B  47616D652F524B5F+  "Game/RK_"
02A3  4E4F4E4500         "NONE\0"
                         const [21]: "/Lotus/Language/Game/RK_NONE"
02A8  04                 const type 4
02A9  1E                 string size (30)
02AA  2F4C6F7475732F4C+  "/Lotus/L"
02B2  616E67756167652F+  "anguage/"
02BA  47616D652F524B5F+  "Game/RK_"
02C2  41524D4F5200       "ARMOR\0"
                         const [22]: "/Lotus/Language/Game/RK_ARMOR"
02C8  04                 const type 4
02C9  25                 string size (37)
02CA  2F4C6F7475732F4C+  "/Lotus/L"
02D2  616E67756167652F+  "anguage/"
02DA  47616D652F524B5F+  "Game/RK_"
02E2  434C4F4E45445F46+  "CLONED_F"
02EA  4C45534800         "LESH\0"
                         const [23]: "/Lotus/Language/Game/RK_CLONED_FLESH"
02EF  04                 const type 4
02F0  22                 string size (34)
02F1  2F4C6F7475732F4C+  "/Lotus/L"
02F9  616E67756167652F+  "anguage/"
0301  47616D652F524B5F+  "Game/RK_"
0309  4D414348494E4552+  "MACHINER"
0311  5900               "Y\0"
                         const [24]: "/Lotus/Language/Game/RK_MACHINERY"
0313  04                 const type 4
0314  26                 string size (38)
0315  2F4C6F7475732F4C+  "/Lotus/L"
031D  616E67756167652F+  "anguage/"
0325  47616D652F524B5F+  "Game/RK_"
032D  48554C4B494E475F+  "HULKING_"
0335  41524D4F5200       "ARMOR\0"
                         const [25]: "/Lotus/Language/Game/RK_HULKING_ARMOR"
033B  04                 const type 4
033C  1F                 string size (31)
033D  2F4C6F7475732F4C+  "/Lotus/L"
0345  616E67756167652F+  "anguage/"
034D  47616D652F524B5F+  "Game/RK_"
0355  534849454C4400     "SHIELD\0"
                         const [26]: "/Lotus/Language/Game/RK_SHIELD"
035C  04                 const type 4
035D  1E                 string size (30)
035E  2F4C6F7475732F4C+  "/Lotus/L"
0366  616E67756167652F+  "anguage/"
036E  47616D652F524B5F+  "Game/RK_"
0376  464C45534800       "FLESH\0"
                         const [27]: "/Lotus/Language/Game/RK_FLESH"
037C  04                 const type 4
037D  20                 string size (32)
037E  2F4C6F7475732F4C+  "/Lotus/L"
0386  616E67756167652F+  "anguage/"
038E  47616D652F524B5F+  "Game/RK_"
0396  524F424F54494300   "ROBOTIC\0"
                         const [28]: "/Lotus/Language/Game/RK_ROBOTIC"
039E  04                 const type 4
039F  25                 string size (37)
03A0  2F4C6F7475732F4C+  "/Lotus/L"
03A8  616E67756167652F+  "anguage/"
03B0  47616D652F524B5F+  "Game/RK_"
03B8  48454156595F5348+  "HEAVY_SH"
03C0  49454C4400         "IELD\0"
                         const [29]: "/Lotus/Language/Game/RK_HEAVY_SHIELD"
03C5  04                 const type 4
03C6  27                 string size (39)
03C7  2F4C6F7475732F4C+  "/Lotus/L"
03CF  616E67756167652F+  "anguage/"
03D7  47616D652F524B5F+  "Game/RK_"
03DF  494E464553544544+  "INFESTED"
03E7  5F464C45534800     "_FLESH\0"
                         const [30]: "/Lotus/Language/Game/RK_INFESTED_FLESH"
03EE  04                 const type 4
03EF  21                 string size (33)
03F0  2F4C6F7475732F4C+  "/Lotus/L"
03F8  616E67756167652F+  "anguage/"
0400  47616D652F524B5F+  "Game/RK_"
0408  494E464553544544+  "INFESTED"
0410  00                 "\0"
                         const [31]: "/Lotus/Language/Game/RK_INFESTED"
0411  04                 const type 4
0412  28                 string size (40)
0413  2F4C6F7475732F4C+  "/Lotus/L"
041B  616E67756167652F+  "anguage/"
0423  47616D652F524B5F+  "Game/RK_"
042B  494E464553544544+  "INFESTED"
0433  5F41524D4F555200   "_ARMOUR\0"
                         const [32]: "/Lotus/Language/Game/RK_INFESTED_ARMOUR"
043B  04                 const type 4
043C  23                 string size (35)
043D  2F4C6F7475732F4C+  "/Lotus/L"
0445  616E67756167652F+  "anguage/"
044D  47616D652F524B5F+  "Game/RK_"
0455  464F5353494C495A+  "FOSSILIZ"
045D  454400             "ED\0"
                         const [33]: "/Lotus/Language/Game/RK_FOSSILIZED"
0460  04                 const type 4
0461  11                 string size (17)
0462  476574456E656D79+  "GetEnemy"
046A  496E666F54657874+  "InfoText"
0472  00                 "\0"
                         const [34]: "GetEnemyInfoText"
0473  01                 const type 3
0474  E2172EC7           const [35]: (-953280542)
0478  04                 const type 4
0479  11                 string size (17)
047A  4765744C6F63616C+  "GetLocal"
0482  697A65644E616D65+  "izedName"
048A  00                 "\0"
                         const [36]: "GetLocalizedName"
048B  01                 const type 3
048C  54A6F3F3           const [37]: (-202135980)
0490  04                 const type 4
0491  0F                 string size (15)
0492  47657444726F7053+  "GetDropS"
049A  6F757263657300     "ources\0"
                         const [38]: "GetDropSources"
04A1  01                 const type 3
04A2  D4C4B32A           const [39]: (716424404)
04A6  04                 const type 4
04A7  15                 string size (21)
04A8  47657444726F7053+  "GetDropS"
04B0  6F75726365735374+  "ourcesSt"
04B8  72696E6700         "ring\0"
                         const [40]: "GetDropSourcesString"
04BD  01                 const type 3
04BE  7FED5C32           const [41]: (844950911)
04C2  04                 const type 4
04C3  08                 string size (8)
04C4  4F6E537461747300   "OnStats\0"
                         const [42]: "OnStats"
04CC  01                 const type 3
04CD  1B707B0B           const [43]: (192639003)
                         * functions:
04D1  0A                 sizep (10)
                         
04D2                     ** function [0] definition (level 2)
                         ** start of function **
04D2  00                 string size (0)
                         source name: (none)
04D3  2D                 line defined (45)
04D4  45                 last line defined (69)
04D5  01                 nups (1)
04D6  07                 numparams (7)
04D7  00                 is_vararg (0)
04D8  15                 maxstacksize (21)
                         * code:
04D9  3C                 sizecode (60)
04DA  98400000           [01] test       2       1    ; to [3] if false
04DE  1A000080           [02] jmp        1            ; to [4]
04E2  1E008000           [03] return     0   1      
04E6  D9010000           [04] loadk      7   0        ; "<b>"
04EA  19420000           [05] loadk      8   1        ; "</b>"
04EE  98410000           [06] test       6       1    ; to [8] if false
04F2  1A400080           [07] jmp        2            ; to [10]
04F6  D9810000           [08] loadk      7   2        ; ""
04FA  19820000           [09] loadk      8   2        ; ""
fail op	35
04FE  6380C000           [10] close      1  
0502  1A400680           [11] jmp        26           ; to [38]
0506  64C2C000           [12] self       9   1   259  ; 1664893510
050A  D9020100           [13] loadk      11  4        ; "%:"
050E  19830000           [14] loadk      12  2        ; ""
0512  62820002           [15] call       9   4   2  
0516  52008004           [16] move       1   9      
051A  52020000           [17] move       9   0      
051E  99420100           [18] loadk      10  5        ; "<font color=\""
0522  D2028001           [19] move       11  3      
0526  19830100           [20] loadk      12  6        ; "\">"
052A  52038003           [21] move       13  7      
052E  92038000           [22] move       14  1      
0532  D3030000           [23] getupval   15  0      
0536  CEC3C107           [24] gettable   15  15  263  ; -132701534
fail op	35
053A  63804001           [25] close      1  
053E  1A000080           [26] jmp        1            ; to [28]
0542  17440000           [27] loadbool   16  0   1    ; false, to [29]
0546  17048000           [28] loadbool   16  1   0    ; true
054A  52040004           [29] move       17  8      
054E  99040200           [30] loadk      18  8        ; "</font>"
0552  42848408           [31] concat     17  17  18 
0556  99440200           [32] loadk      18  9        ; ": "
055A  D2040004           [33] move       19  8      
055E  19050200           [34] loadk      20  8        ; "</font>"
0562  82040509           [35] concat     18  18  20 
0566  E2830002           [36] call       15  4   2  
056A  02C08304           [37] concat     0   9   15 
056E  58010000           [38] test       5       0    ; to [40] if true
0572  1A400280           [39] jmp        10           ; to [50]
0576  52020000           [40] move       9   0      
057A  99420100           [41] loadk      10  5        ; "<font color=\""
057E  D2020002           [42] move       11  4      
0582  19830100           [43] loadk      12  6        ; "\">"
0586  52038003           [44] move       13  7      
058A  92030001           [45] move       14  2      
058E  D2030004           [46] move       15  8      
0592  19040200           [47] loadk      16  8        ; "</font>"
0596  02008404           [48] concat     0   9   16 
059A  1A000280           [49] jmp        9            ; to [59]
059E  52020000           [50] move       9   0      
05A2  99420100           [51] loadk      10  5        ; "<font color=\""
05A6  D2020002           [52] move       11  4      
05AA  19830100           [53] loadk      12  6        ; "\">"
05AE  52038003           [54] move       13  7      
05B2  92030001           [55] move       14  2      
05B6  D2030004           [56] move       15  8      
05BA  19840200           [57] loadk      16  10       ; "<br></font>"
05BE  02008404           [58] concat     0   9   16 
05C2  1E000001           [59] return     0   2      
05C6  1E008000           [60] return     0   1      
                         * constants:
05CA  0B                 sizek (11)
05CB  04                 const type 4
05CC  04                 string size (4)
05CD  3C623E00           "<b>\0"
                         const [0]: "<b>"
05D1  04                 const type 4
05D2  05                 string size (5)
05D3  3C2F623E00         "</b>\0"
                         const [1]: "</b>"
05D8  04                 const type 4
05D9  01                 string size (0)
                         const [2]: ""
05DB  01                 const type 3
05DC  46423C63           const [3]: (1664893510)
05E0  04                 const type 4
05E1  03                 string size (3)
05E2  253A00             "%:\0"
                         const [4]: "%:"
05E5  04                 const type 4
05E6  0E                 string size (14)
05E7  3C666F6E7420636F+  "<font co"
05EF  6C6F723D2200       "lor=\"\0"
                         const [5]: "<font color=\""
05F5  04                 const type 4
05F6  03                 string size (3)
05F7  223E00             "\">\0"
                         const [6]: "\">"
05FA  01                 const type 3
05FB  A22217F8           const [7]: (-132701534)
05FF  04                 const type 4
0600  08                 string size (8)
0601  3C2F666F6E743E00   "</font>\0"
                         const [8]: "</font>"
0609  04                 const type 4
060A  03                 string size (3)
060B  3A2000             ": \0"
                         const [9]: ": "
060E  04                 const type 4
060F  0C                 string size (12)
0610  3C62723E3C2F666F+  "<br></fo"
0618  6E743E00           "nt>\0"
                         const [10]: "<br></font>"
                         * functions:
061C  00                 sizep (0)
                         * lines:
061D  3C                 sizelineinfo (60)
                         [pc] (line)
061E  2E                 [01] (46)
061F  00                 [02] (46)
0620  00                 [03] (47)
0621  00                 [04] (50)
0622  2E                 [05] (51)
0623  00                 [06] (52)
0624  00                 [07] (52)
0625  00                 [08] (53)
0626  2F                 [09] (54)
0627  00                 [10] (57)
0628  00                 [11] (57)
0629  00                 [12] (58)
062A  32                 [13] (58)
062B  00                 [14] (58)
062C  00                 [15] (58)
062D  00                 [16] (58)
062E  33                 [17] (59)
062F  00                 [18] (59)
0630  00                 [19] (59)
0631  00                 [20] (59)
0632  34                 [21] (59)
0633  00                 [22] (59)
0634  00                 [23] (59)
0635  00                 [24] (59)
0636  34                 [25] (59)
0637  00                 [26] (59)
0638  00                 [27] (59)
0639  00                 [28] (59)
063A  35                 [29] (59)
063B  00                 [30] (59)
063C  00                 [31] (59)
063D  00                 [32] (59)
063E  36                 [33] (59)
063F  00                 [34] (59)
0640  00                 [35] (59)
0641  00                 [36] (59)
0642  39                 [37] (59)
0643  00                 [38] (62)
0644  00                 [39] (62)
0645  00                 [40] (63)
0646  39                 [41] (63)
0647  00                 [42] (63)
0648  00                 [43] (63)
0649  00                 [44] (63)
064A  3A                 [45] (63)
064B  00                 [46] (63)
064C  00                 [47] (63)
064D  00                 [48] (63)
064E  3A                 [49] (63)
064F  00                 [50] (65)
0650  00                 [51] (65)
0651  00                 [52] (65)
0652  3A                 [53] (65)
0653  00                 [54] (65)
0654  00                 [55] (65)
0655  00                 [56] (65)
0656  3A                 [57] (65)
0657  00                 [58] (65)
0658  00                 [59] (68)
0659  00                 [60] (69)
                         * locals:
070E  00                 sizelocvars (0)
                         * upvalues:
070F  00                 sizeupvalues (0)
                         ** end of function **

                         
0710                     ** function [1] definition (level 2)
                         ** start of function **
0710  00                 string size (0)
                         source name: (none)
0711  47                 line defined (71)
0712  53                 last line defined (83)
0713  01                 nups (1)
0714  01                 numparams (1)
0715  00                 is_vararg (0)
0716  07                 maxstacksize (7)
                         * code:
0717  13                 sizecode (19)
0718  53000000           [01] getupval   1   0      
071C  4A008000           [02] len        1   1      
fail op	35
0720  2300C000           [03] close      0  
0724  1A400080           [04] jmp        2            ; to [7]
0728  57000000           [05] loadbool   1   0   0    ; false
072C  5E000001           [06] return     1   2      
0730  5D400000           [07] getglobal  1   1        ; 1672515847
0734  93000000           [08] getupval   2   0      
0738  62000101           [09] call       1   2   4  
073C  1AC00080           [10] jmp        4            ; to [15]
fail op	35
0740  23400100           [11] close      0  
0744  1A400080           [12] jmp        2            ; to [15]
0748  97018000           [13] loadbool   6   1   0    ; true
074C  9E010001           [14] return     6   2      
0750  56800000           [15] tforloop   1       2    ; to [17] if exit
0754  1A40FE7F           [16] jmp        -6           ; to [11]
0758  97010000           [17] loadbool   6   0   0    ; false
075C  9E010001           [18] return     6   2      
0760  1E008000           [19] return     0   1      
                         * constants:
0764  02                 sizek (2)
0765  03                 const type 3
0766  00000000           const [0]: (0)
076A  01                 const type 3
076B  0791B063           const [1]: (1672515847)
                         * functions:
076F  00                 sizep (0)
                         * lines:
0770  13                 sizelineinfo (19)
                         [pc] (line)
0771  48                 [01] (72)
0772  00                 [02] (72)
0773  00                 [03] (72)
0774  00                 [04] (72)
0775  48                 [05] (73)
0776  00                 [06] (73)
0777  00                 [07] (76)
0778  00                 [08] (76)
0779  48                 [09] (76)
077A  00                 [10] (76)
077B  00                 [11] (77)
077C  00                 [12] (77)
077D  48                 [13] (78)
077E  00                 [14] (78)
077F  00                 [15] (76)
0780  00                 [16] (79)
0781  49                 [17] (82)
0782  00                 [18] (82)
0783  00                 [19] (83)
                         * locals:
07BD  00                 sizelocvars (0)
                         * upvalues:
07BE  00                 sizeupvalues (0)
                         ** end of function **

                         
07BF                     ** function [2] definition (level 2)
                         ** start of function **
07BF  00                 string size (0)
                         source name: (none)
07C0  55                 line defined (85)
07C1  FA                 last line defined (250)
07C2  01                 nups (6)
07C3  06                 numparams (4)
07C4  04                 is_vararg (0)
07C5  00                 maxstacksize (53)
                         * code:
07C8  03                 sizecode (475)
fail op	35
07C9  23004001           [001] close      0  
07CD  1A000080           [002] jmp        1            ; to [4]
07D1  99400000           [003] loadk      2   1        ; "#999999"
fail op	35
07D5  2300C001           [004] close      0  
07D9  1A000080           [005] jmp        1            ; to [7]
07DD  D9800000           [006] loadk      3   2        ; "#FFFFFF"
07E1  19C10000           [007] loadk      4   3        ; "<font color=\""
07E5  52010001           [008] move       5   2      
07E9  99010100           [009] loadk      6   4        ; "\">"
07ED  E4414100           [010] self       7   0   261  ; 98241492
07F1  59820100           [011] loadk      9   6        ; "/Lotus/Language/Menu/AlertPopup_Faction"
07F5  97020000           [012] loadbool   10  0   0    ; false
07F9  E2810002           [013] call       7   4   2  
07FD  19C20100           [014] loadk      8   7        ; " "
0801  02010202           [015] concat     4   4   8  
0805  5D010200           [016] getglobal  5   8        ; string
0809  4E41C202           [017] gettable   5   5   265  ; 1671193642
080D  8E81C200           [018] gettable   6   1   266  ; "faction"
0811  A4C14203           [019] self       6   6   267  ; 1590141906
0815  A2010001           [020] call       6   2   0  
0819  62810000           [021] call       5   0   2  
fail op	35
081D  2300C302           [022] close      0  
0821  1A800180           [023] jmp        7            ; to [31]
0825  92010002           [024] move       6   4      
0829  E4414100           [025] self       7   0   261  ; 98241492
082D  59420300           [026] loadk      9   13       ; "/Lotus/Language/Game/Faction_GrineerUC"
0831  97020000           [027] loadbool   10  0   0    ; false
0835  E2810002           [028] call       7   4   2  
0839  02C10103           [029] concat     4   6   7  
083D  1A000D80           [030] jmp        53           ; to [84]
fail op	35
0841  2380C302           [031] close      0  
0845  1A800180           [032] jmp        7            ; to [40]
0849  92010002           [033] move       6   4      
084D  E4414100           [034] self       7   0   261  ; 98241492
0851  59C20300           [035] loadk      9   15       ; "/Lotus/Language/Game/Faction_CorpusUC"
0855  97020000           [036] loadbool   10  0   0    ; false
0859  E2810002           [037] call       7   4   2  
085D  02C10103           [038] concat     4   6   7  
0861  1AC00A80           [039] jmp        44           ; to [84]
fail op	35
0865  2300C402           [040] close      0  
0869  1A800180           [041] jmp        7            ; to [49]
086D  92010002           [042] move       6   4      
0871  E4414100           [043] self       7   0   261  ; 98241492
0875  59420400           [044] loadk      9   17       ; "/Lotus/Language/Game/Faction_InfestationUC"
0879  97020000           [045] loadbool   10  0   0    ; false
087D  E2810002           [046] call       7   4   2  
0881  02C10103           [047] concat     4   6   7  
0885  1A800880           [048] jmp        35           ; to [84]
fail op	35
0889  2380C402           [049] close      0  
088D  1A800180           [050] jmp        7            ; to [58]
0891  92010002           [051] move       6   4      
0895  E4414100           [052] self       7   0   261  ; 98241492
0899  59C20400           [053] loadk      9   19       ; "/Lotus/Language/Game/Faction_OrokinUC"
089D  97020000           [054] loadbool   10  0   0    ; false
08A1  E2810002           [055] call       7   4   2  
08A5  02C10103           [056] concat     4   6   7  
08A9  1A400680           [057] jmp        26           ; to [84]
fail op	35
08AD  2300C502           [058] close      0  
08B1  1A800180           [059] jmp        7            ; to [67]
08B5  92010002           [060] move       6   4      
08B9  E4414100           [061] self       7   0   261  ; 98241492
08BD  59420500           [062] loadk      9   21       ; "/Lotus/Language/Syndicates/Neutral"
08C1  97020000           [063] loadbool   10  0   0    ; false
08C5  E2810002           [064] call       7   4   2  
08C9  02C10103           [065] concat     4   6   7  
08CD  1A000480           [066] jmp        17           ; to [84]
fail op	35
08D1  2380C502           [067] close      0  
08D5  1A800180           [068] jmp        7            ; to [76]
08D9  92010002           [069] move       6   4      
08DD  E4414100           [070] self       7   0   261  ; 98241492
08E1  59C20500           [071] loadk      9   23       ; "/Lotus/Language/Game/Faction_SentientUC"
08E5  97020000           [072] loadbool   10  0   0    ; false
08E9  E2810002           [073] call       7   4   2  
08ED  02C10103           [074] concat     4   6   7  
08F1  1AC00180           [075] jmp        8            ; to [84]
fail op	35
08F5  2300C602           [076] close      0  
08F9  1A400180           [077] jmp        6            ; to [84]
08FD  92010002           [078] move       6   4      
0901  E4414100           [079] self       7   0   261  ; 98241492
0905  59420600           [080] loadk      9   25       ; "/Lotus/Language/Game/Stalker"
0909  97020000           [081] loadbool   10  0   0    ; false
090D  E2810002           [082] call       7   4   2  
0911  02C10103           [083] concat     4   6   7  
0915  92010002           [084] move       6   4      
0919  D9810600           [085] loadk      7   26       ; "<br></font>"
091D  02C10103           [086] concat     4   6   7  
0921  A4414100           [087] self       6   0   261  ; 98241492
0925  0EC2C600           [088] gettable   8   1   283  ; "shortDesc"
0929  24C24204           [089] self       8   8   267  ; 1590141906
092D  22820001           [090] call       8   2   2  
0931  57020000           [091] loadbool   9   0   0    ; false
0935  A2810002           [092] call       6   4   2  
fail op	35
0939  63004703           [093] close      1  
093D  1A800180           [094] jmp        7            ; to [102]
0941  D2010002           [095] move       7   4      
0945  19C20000           [096] loadk      8   3        ; "<font color=\""
0949  52028001           [097] move       9   3      
094D  99020100           [098] loadk      10  4        ; "\">"
0951  D2020003           [099] move       11  6      
0955  19830600           [100] loadk      12  26       ; "<br></font>"
0959  02018303           [101] concat     4   7   12 
095D  D3010000           [102] getupval   7   0      
0961  12020002           [103] move       8   4      
0965  59020700           [104] loadk      9   28       ; ""
0969  99020700           [105] loadk      10  28       ; ""
096D  D2020001           [106] move       11  2      
0971  12038001           [107] move       12  3      
0975  E2810003           [108] call       7   6   2  
0979  12018003           [109] move       4   7      
097D  E4414100           [110] self       7   0   261  ; 98241492
0981  59420700           [111] loadk      9   29       ; "/Game/AVATAR_HEALTH_MAX"
0985  97020000           [112] loadbool   10  0   0    ; false
0989  E2810002           [113] call       7   4   2  
098D  24424100           [114] self       8   0   261  ; 98241492
0991  99820700           [115] loadk      10  30       ; "/Game/AVATAR_SHIELD"
0995  D7020000           [116] loadbool   11  0   0    ; false
0999  22820002           [117] call       8   4   2  
099D  64424100           [118] self       9   0   261  ; 98241492
09A1  D9C20700           [119] loadk      11  31       ; "/Game/AVATAR_ARMOUR"
09A5  17030000           [120] loadbool   12  0   0    ; false
09A9  62820002           [121] call       9   4   2  
09AD  8E02C800           [122] gettable   10  1   288  ; "maxHealth"
09B1  CE42C800           [123] gettable   11  1   289  ; "maxShield"
09B5  0E83C800           [124] gettable   12  1   290  ; "armourRating"
09B9  4B038001           [125] newtable   13  3   0    ; array=3, hash=0
09BD  99030700           [126] loadk      14  28       ; ""
09C1  D9030700           [127] loadk      15  28       ; ""
09C5  19040700           [128] loadk      16  28       ; ""
09C9  5B438001           [129] setlist    13  3   1    ; index 1 to 3
09CD  8EC3C800           [130] gettable   14  1   291  ; "shieldResistance"
09D1  CE03C900           [131] gettable   15  1   292  ; "armourResistance"
09D5  0E44C900           [132] gettable   16  1   293  ; "healthResistance"
fail op	21
09D9  15800393           [133] concat     0   294 14 
09DD  1A800180           [134] jmp        7            ; to [142]
09E1  64444100           [135] self       17  0   261  ; 98241492
09E5  D3048000           [136] getupval   19  1      
09E9  03C54907           [137] add        20  14  295  ; 0
09ED  CE048509           [138] gettable   19  19  20 
09F1  17050000           [139] loadbool   20  0   0    ; false
09F5  62840002           [140] call       17  4   2  
09F9  12028008           [141] move       8   17     
fail op	21
09FD  15C00393           [142] concat     0   294 15 
0A01  1A800180           [143] jmp        7            ; to [151]
0A05  64444100           [144] self       17  0   261  ; 98241492
0A09  D3048000           [145] getupval   19  1      
0A0D  03C5C907           [146] add        20  15  295  ; 0
0A11  CE048509           [147] gettable   19  19  20 
0A15  17050000           [148] loadbool   20  0   0    ; false
0A19  62840002           [149] call       17  4   2  
0A1D  52028008           [150] move       9   17     
fail op	21
0A21  15000493           [151] concat     0   294 16 
0A25  1A800180           [152] jmp        7            ; to [160]
0A29  64444100           [153] self       17  0   261  ; 98241492
0A2D  D3048000           [154] getupval   19  1      
0A31  03C54908           [155] add        20  16  295  ; 0
0A35  CE048509           [156] gettable   19  19  20 
0A39  17050000           [157] loadbool   20  0   0    ; false
0A3D  62840002           [158] call       17  4   2  
0A41  D2018008           [159] move       7   17     
0A45  4B040000           [160] newtable   17  0   0    ; array=0, hash=0
0A49  9D040A00           [161] getglobal  18  40       ; gRegion
0A4D  A4444A09           [162] self       18  18  297  ; 65205951
0A51  A2840001           [163] call       18  2   2  
0A55  DD840A00           [164] getglobal  19  42       ; 1074689893
0A59  12050009           [165] move       20  18     
0A5D  E2840001           [166] call       19  2   2  
0A61  D8440000           [167] test       19      1    ; to [169] if false
0A65  1AC00180           [168] jmp        8            ; to [177]
0A69  E4C44A09           [169] self       19  18  299  ; -1544157541
0A6D  E2840001           [170] call       19  2   2  
0A71  E404CB09           [171] self       19  19  300  ; -1074704953
0A75  52050007           [172] move       21  14     
0A79  92058007           [173] move       22  15     
0A7D  D2050008           [174] move       23  16     
0A81  E2848002           [175] call       19  5   2  
0A85  52048009           [176] move       17  19     
0A89  CB048001           [177] newtable   19  3   0    ; array=3, hash=0
0A8D  12050004           [178] move       20  8      
0A91  52058004           [179] move       21  9      
0A95  92058003           [180] move       22  7      
0A99  DB448001           [181] setlist    19  3   1    ; index 1 to 3
0A9D  0B058001           [182] newtable   20  3   0    ; array=3, hash=0
0AA1  52058005           [183] move       21  11     
0AA5  92050006           [184] move       22  12     
0AA9  D2050005           [185] move       23  10     
0AAD  1B458001           [186] setlist    20  3   1    ; index 1 to 3
0AB1  59C50900           [187] loadk      21  39       ; 0
0AB5  99450B00           [188] loadk      22  45       ; 0
0AB9  D9C50900           [189] loadk      23  39       ; 0
0ABD  50C51B80           [190] forprep    21  112      ; to [303]
0AC1  4E06060A           [191] gettable   25  20  24 
fail op	21
0AC5  15400693           [192] concat     0   294 25 
0AC9  1A001B80           [193] jmp        109          ; to [303]
0ACD  59060700           [194] loadk      25  28       ; ""
0AD1  99060700           [195] loadk      26  28       ; ""
0AD5  D9C60900           [196] loadk      27  39       ; 0
0AD9  13070001           [197] getupval   28  2      
0ADD  0A07000E           [198] len        28  28     
0AE1  59C70900           [199] loadk      29  39       ; 0
0AE5  D0461480           [200] forprep    27  82       ; to [283]
0AE9  D3078001           [201] getupval   31  3      
0AED  13080001           [202] getupval   32  2      
0AF1  0E880710           [203] gettable   32  32  30 
0AF5  E2870001           [204] call       31  2   2  
0AF9  D8470000           [205] test       31      1    ; to [207] if false
0AFD  1AC01280           [206] jmp        76           ; to [283]
0B01  CDC7490C           [207] sub        31  24  295  ; 0
0B05  13080001           [208] getupval   32  2      
0B09  0A080010           [209] len        32  32     
0B0D  C407880F           [210] mul        31  31  32 
0B11  C387870F           [211] add        31  31  30 
0B15  CEC78708           [212] gettable   31  17  31 
fail op	35
0B19  6380C90F           [213] close      1  
0B1D  1AC01080           [214] jmp        68           ; to [283]
0B21  13080002           [215] getupval   32  4      
0B25  0E884B10           [216] gettable   32  32  302  ; 2115597333
0B29  5DC80B00           [217] getglobal  33  47       ; math
0B2D  4E08CC10           [218] gettable   33  33  304  ; -113279800
0B31  9208800F           [219] move       34  31     
0B35  62880001           [220] call       33  2   2  
0B39  4448CC10           [221] mul        33  33  305  ; 0
0B3D  22880001           [222] call       32  2   2  
0B41  53080002           [223] getupval   33  4      
0B45  4E88CC10           [224] gettable   33  33  306  ; -132701534
fail op	21
0B49  55C00793           [225] concat     1   294 31 
0B4D  1A000080           [226] jmp        1            ; to [228]
0B51  97480000           [227] loadbool   34  0   1    ; false, to [229]
0B55  97088000           [228] loadbool   34  1   0    ; true
0B59  D9C80C00           [229] loadk      35  51       ; "-"
0B5D  19090D00           [230] loadk      36  52       ; "+"
0B61  62880002           [231] call       33  4   2  
0B65  9DC80B00           [232] getglobal  34  47       ; math
0B69  8E084C11           [233] gettable   34  34  304  ; -113279800
0B6D  D208800F           [234] move       35  31     
0B71  A2880001           [235] call       34  2   2  
fail op	33
0B75  2180889A           [236] tforloop   0       34   ; to [238] if exit
0B79  1A000180           [237] jmp        5            ; to [243]
0B7D  92088010           [238] move       34  33     
0B81  D2088010           [239] move       35  33     
0B85  12098010           [240] move       36  33     
0B89  42080911           [241] concat     33  34  36 
0B8D  1A000280           [242] jmp        9            ; to [252]
0B91  9DC80B00           [243] getglobal  34  47       ; math
0B95  8E084C11           [244] gettable   34  34  304  ; -113279800
0B99  D208800F           [245] move       35  31     
0B9D  A2880001           [246] call       34  2   2  
fail op	33
0BA1  2180089B           [247] tforloop   0       34   ; to [249] if exit
0BA5  1A800080           [248] jmp        3            ; to [252]
0BA9  92088010           [249] move       34  33     
0BAD  D2088010           [250] move       35  33     
0BB1  42C80811           [251] concat     33  34  35 
fail op	21
0BB5  1580C90F           [252] concat     0   31  294
0BB9  1A800380           [253] jmp        15           ; to [269]
fail op	35
0BBD  6300C70C           [254] close      1  
0BC1  1A800080           [255] jmp        3            ; to [259]
0BC5  9208800C           [256] move       34  25     
0BC9  D9C80100           [257] loadk      35  7        ; " "
0BCD  42C60811           [258] concat     25  34  35 
0BD1  9208800C           [259] move       34  25     
0BD5  E4484100           [260] self       35  0   261  ; 98241492
0BD9  53090001           [261] getupval   37  2      
0BDD  4E898712           [262] gettable   37  37  30 
0BE1  97098000           [263] loadbool   38  1   0    ; true
0BE5  E2880002           [264] call       35  4   2  
0BE9  12098010           [265] move       36  33     
0BED  59C90100           [266] loadk      37  7        ; " "
0BF1  42460911           [267] concat     25  34  37 
0BF5  1A400380           [268] jmp        14           ; to [283]
fail op	35
0BF9  6300470D           [269] close      1  
0BFD  1A800080           [270] jmp        3            ; to [274]
0C01  9208000D           [271] move       34  26     
0C05  D9C80100           [272] loadk      35  7        ; " "
0C09  82C60811           [273] concat     26  34  35 
0C0D  9208000D           [274] move       34  26     
0C11  E4484100           [275] self       35  0   261  ; 98241492
0C15  53090001           [276] getupval   37  2      
0C19  4E898712           [277] gettable   37  37  30 
0C1D  97098000           [278] loadbool   38  1   0    ; true
0C21  E2880002           [279] call       35  4   2  
0C25  12098010           [280] move       36  33     
0C29  59C90100           [281] loadk      37  7        ; " "
0C2D  82460911           [282] concat     26  34  37 
0C31  D406EB7F           [283] forloop    27  -83      ; to [201] if loop
fail op	35
0C35  6300C70C           [284] close      1  
0C39  1A800180           [285] jmp        7            ; to [293]
0C3D  99C80D00           [286] loadk      34  55       ; "  <font color=\""
0C41  D2088001           [287] move       35  3      
0C45  19090100           [288] loadk      36  4        ; "\">"
0C49  5209800C           [289] move       37  25     
0C4D  99890600           [290] loadk      38  26       ; "<br></font>"
0C51  82880911           [291] concat     34  34  38 
0C55  4C83080C           [292] settable   13  24  34 
fail op	35
0C59  6300470D           [293] close      1  
0C5D  1AC00180           [294] jmp        8            ; to [303]
0C61  8E088606           [295] gettable   34  13  24 
0C65  D9C80000           [296] loadk      35  3        ; "<font color=\""
0C69  12098001           [297] move       36  3      
0C6D  59090E00           [298] loadk      37  56       ; "\">  "
0C71  9209000D           [299] move       38  26     
0C75  D9490E00           [300] loadk      39  57       ; "</font>"
0C79  82C80911           [301] concat     34  34  39 
0C7D  4C83080C           [302] settable   13  24  34 
0C81  5485E37F           [303] forloop    21  -113     ; to [191] if loop
0C85  99080700           [304] loadk      34  28       ; ""
0C89  CE88CE00           [305] gettable   35  1   314  ; "regionBits"
fail op	21
0C8D  15C00893           [306] concat     0   294 35 
0C91  1A000780           [307] jmp        29           ; to [337]
0C95  D3088002           [308] getupval   35  5      
0C99  CEC8CE11           [309] gettable   35  35  315  ; -1153782542
0C9D  E2888000           [310] call       35  1   2  
0CA1  2409CF11           [311] self       36  35  316  ; 1527673913
0CA5  22890001           [312] call       36  2   2  
0CA9  59C90900           [313] loadk      37  39       ; 0
0CAD  8A090012           [314] len        38  36     
0CB1  D9C90900           [315] loadk      39  39       ; 0
0CB5  50890480           [316] forprep    37  19       ; to [336]
0CB9  5D4A0F00           [317] getglobal  41  61       ; 1176493102
0CBD  8E8ACE00           [318] gettable   42  1   314  ; "regionBits"
0CC1  CDCA4914           [319] sub        43  40  295  ; 0
0CC5  628A8001           [320] call       41  3   2  
0CC9  580A0000           [321] test       41      0    ; to [323] if true
0CCD  1A000380           [322] jmp        13           ; to [336]
0CD1  644A4100           [323] self       41  0   261  ; 98241492
0CD5  CE0A0A12           [324] gettable   43  36  40 
0CD9  CE8ACF15           [325] gettable   43  43  318  ; "name"
0CDD  170B0000           [326] loadbool   44  0   0    ; false
0CE1  628A0002           [327] call       41  4   2  
fail op	35
0CE5  63004711           [328] close      1  
0CE9  1A800080           [329] jmp        3            ; to [333]
0CED  99CA0F00           [330] loadk      42  63       ; ", "
0CF1  D20A8014           [331] move       43  41     
0CF5  42CA0A15           [332] concat     41  42  43 
0CF9  920A0011           [333] move       42  34     
0CFD  D20A8014           [334] move       43  41     
0D01  82C80A15           [335] concat     34  42  43 
0D05  54C9FA7F           [336] forloop    37  -20      ; to [317] if loop
fail op	21
0D09  15C00293           [337] concat     0   294 11 
0D0D  1AC00980           [338] jmp        40           ; to [379]
fail op	21
0D11  55000393           [339] concat     1   294 12 
0D15  1A000180           [340] jmp        5            ; to [346]
fail op	21
0D19  55800293           [341] concat     1   294 10 
0D1D  1A800080           [342] jmp        3            ; to [346]
fail op	35
0D21  23004711           [343] close      0  
0D25  1A000080           [344] jmp        1            ; to [346]
0D29  974A0000           [345] loadbool   42  0   1    ; false, to [347]
0D2D  970A8000           [346] loadbool   42  1   0    ; true
0D31  D30A0000           [347] getupval   43  0      
0D35  120B0002           [348] move       44  4      
0D39  520B0004           [349] move       45  8      
0D3D  920B8005           [350] move       46  11     
0D41  D20B0001           [351] move       47  2      
0D45  120C0001           [352] move       48  2      
0D49  460C8018           [353] loadnil    49  49     
0D4D  970C8000           [354] loadbool   50  1   0    ; true
0D51  E28A0004           [355] call       43  8   2  
0D55  12018015           [356] move       4   43     
0D59  CECAC906           [357] gettable   43  13  295  ; 0
fail op	35
0D5D  6300C715           [358] close      1  
0D61  1A000280           [359] jmp        9            ; to [369]
0D65  D30A0000           [360] getupval   43  0      
0D69  120B0002           [361] move       44  4      
0D6D  4ECBC906           [362] gettable   45  13  295  ; 0
0D71  990B0700           [363] loadk      46  28       ; ""
0D75  D20B0001           [364] move       47  2      
0D79  120C8001           [365] move       48  3      
fail op	9
0D7D  490C0015           [366] settable   49  42  0  
0D81  E28A8003           [367] call       43  7   2  
0D85  12018015           [368] move       4   43     
0D89  980A0000           [369] test       42      0    ; to [371] if true
0D8D  1AC00180           [370] jmp        8            ; to [379]
0D91  D30A0000           [371] getupval   43  0      
0D95  120B0002           [372] move       44  4      
0D99  590B0700           [373] loadk      45  28       ; ""
0D9D  990B0700           [374] loadk      46  28       ; ""
0DA1  D20B0001           [375] move       47  2      
0DA5  120C8001           [376] move       48  3      
0DA9  E28A0003           [377] call       43  6   2  
0DAD  12018015           [378] move       4   43     
fail op	21
0DB1  15000393           [379] concat     0   294 12 
0DB5  1A400980           [380] jmp        38           ; to [419]
fail op	21
0DB9  55800293           [381] concat     1   294 10 
0DBD  1A800080           [382] jmp        3            ; to [386]
fail op	35
0DC1  23004711           [383] close      0  
0DC5  1A000080           [384] jmp        1            ; to [386]
0DC9  D74A0000           [385] loadbool   43  0   1    ; false, to [387]
0DCD  D70A8000           [386] loadbool   43  1   0    ; true
0DD1  130B0000           [387] getupval   44  0      
0DD5  520B0002           [388] move       45  4      
0DD9  920B8004           [389] move       46  9      
0DDD  D20B0006           [390] move       47  12     
0DE1  120C0001           [391] move       48  2      
0DE5  520C0001           [392] move       49  2      
0DE9  860C0019           [393] loadnil    50  50     
0DED  D70C8000           [394] loadbool   51  1   0    ; true
0DF1  228B0004           [395] call       44  8   2  
0DF5  12010016           [396] move       4   44     
0DF9  0E0BD006           [397] gettable   44  13  320  ; 0
fail op	35
0DFD  63004716           [398] close      1  
0E01  1A000280           [399] jmp        9            ; to [409]
0E05  130B0000           [400] getupval   44  0      
0E09  520B0002           [401] move       45  4      
0E0D  8E0BD006           [402] gettable   46  13  320  ; 0
0E11  D90B0700           [403] loadk      47  28       ; ""
0E15  120C0001           [404] move       48  2      
0E19  520C8001           [405] move       49  3      
fail op	9
0E1D  890C8015           [406] settable   50  43  0  
0E21  228B8003           [407] call       44  7   2  
0E25  12010016           [408] move       4   44     
0E29  D80A0000           [409] test       43      0    ; to [411] if true
0E2D  1AC00180           [410] jmp        8            ; to [419]
0E31  130B0000           [411] getupval   44  0      
0E35  520B0002           [412] move       45  4      
0E39  990B0700           [413] loadk      46  28       ; ""
0E3D  D90B0700           [414] loadk      47  28       ; ""
0E41  120C0001           [415] move       48  2      
0E45  520C8001           [416] move       49  3      
0E49  228B0003           [417] call       44  6   2  
0E4D  12010016           [418] move       4   44     
fail op	21
0E51  15800293           [419] concat     0   294 10 
0E55  1A000680           [420] jmp        25           ; to [446]
0E59  130B0000           [421] getupval   44  0      
0E5D  520B0002           [422] move       45  4      
0E61  920B8003           [423] move       46  7      
0E65  D20B0005           [424] move       47  10     
0E69  120C0001           [425] move       48  2      
0E6D  520C0001           [426] move       49  2      
0E71  860C0019           [427] loadnil    50  50     
0E75  D70C8000           [428] loadbool   51  1   0    ; true
0E79  228B0004           [429] call       44  8   2  
0E7D  12010016           [430] move       4   44     
0E81  0E4BCB06           [431] gettable   44  13  301  ; 0
fail op	35
0E85  63004716           [432] close      1  
0E89  1AC00280           [433] jmp        12           ; to [446]
0E8D  130B0000           [434] getupval   44  0      
0E91  520B0002           [435] move       45  4      
0E95  8E4BCB06           [436] gettable   46  13  301  ; 0
0E99  D90B0700           [437] loadk      47  28       ; ""
0E9D  120C0001           [438] move       48  2      
0EA1  520C8001           [439] move       49  3      
fail op	35
0EA5  63004711           [440] close      1  
0EA9  1A000080           [441] jmp        1            ; to [443]
0EAD  974C0000           [442] loadbool   50  0   1    ; false, to [444]
0EB1  970C8000           [443] loadbool   50  1   0    ; true
0EB5  228B8003           [444] call       44  7   2  
0EB9  12010016           [445] move       4   44     
fail op	35
0EBD  63004711           [446] close      1  
0EC1  1A400680           [447] jmp        26           ; to [474]
0EC5  130B0000           [448] getupval   44  0      
0EC9  520B0002           [449] move       45  4      
0ECD  990B0700           [450] loadk      46  28       ; ""
0ED1  D90B0700           [451] loadk      47  28       ; ""
0ED5  120C0001           [452] move       48  2      
0ED9  520C8001           [453] move       49  3      
0EDD  228B0003           [454] call       44  6   2  
0EE1  12010016           [455] move       4   44     
0EE5  244B4100           [456] self       44  0   261  ; 98241492
0EE9  994B1000           [457] loadk      46  65       ; "/Lotus/Language/Game/Regions"
0EED  D70B0000           [458] loadbool   47  0   0    ; false
0EF1  228B0002           [459] call       44  4   2  
0EF5  598B1000           [460] loadk      45  66       ; ":"
0EF9  024B0B16           [461] concat     44  44  45 
0EFD  530B0000           [462] getupval   45  0      
0F01  920B0002           [463] move       46  4      
0F05  D20B0016           [464] move       47  44     
0F09  19CC1000           [465] loadk      48  67       ; "<br>"
0F0D  520C0011           [466] move       49  34     
0F11  024C0C18           [467] concat     48  48  49 
0F15  520C0001           [468] move       49  2      
0F19  920C8001           [469] move       50  3      
0F1D  D70C8000           [470] loadbool   51  1   0    ; true
0F21  170D8000           [471] loadbool   52  1   0    ; true
0F25  628B0004           [472] call       45  8   2  
0F29  12018016           [473] move       4   45     
0F2D  1E010001           [474] return     4   2      
0F31  1E008000           [475] return     0   1      
                         * constants:
0F35  44                 sizek (68)
0F36  00                 const type 0
                         const [0]: nil
0F37  04                 const type 4
0F38  08                 string size (8)
0F39  2339393939393900   "#999999\0"
                         const [1]: "#999999"
0F41  04                 const type 4
0F42  08                 string size (8)
0F43  2346464646464600   "#FFFFFF\0"
                         const [2]: "#FFFFFF"
0F4B  04                 const type 4
0F4C  0E                 string size (14)
0F4D  3C666F6E7420636F+  "<font co"
0F55  6C6F723D2200       "lor=\"\0"
                         const [3]: "<font color=\""
0F5B  04                 const type 4
0F5C  03                 string size (3)
0F5D  223E00             "\">\0"
                         const [4]: "\">"
0F60  01                 const type 3
0F61  D40BDB05           const [5]: (98241492)
0F65  04                 const type 4
0F66  28                 string size (40)
0F67  2F4C6F7475732F4C+  "/Lotus/L"
0F6F  616E67756167652F+  "anguage/"
0F77  4D656E752F416C65+  "Menu/Ale"
0F7F  7274506F7075705F+  "rtPopup_"
0F87  46616374696F6E00   "Faction\0"
                         const [6]: "/Lotus/Language/Menu/AlertPopup_Faction"
0F8F  04                 const type 4
0F90  02                 string size (2)
0F91  2000               " \0"
                         const [7]: " "
0F93  04                 const type 4
0F94  07                 string size (7)
0F95  737472696E6700     "string\0"
                         const [8]: "string"
0F9C  01                 const type 3
0F9D  2A649C63           const [9]: (1671193642)
0FA1  04                 const type 4
0FA2  08                 string size (8)
0FA3  66616374696F6E00   "faction\0"
                         const [10]: "faction"
0FAB  01                 const type 3
0FAC  D2A3C75E           const [11]: (1590141906)
0FB0  04                 const type 4
0FB1  08                 string size (8)
0FB2  4752494E45455200   "GRINEER\0"
                         const [12]: "GRINEER"
0FBA  04                 const type 4
0FBB  27                 string size (39)
0FBC  2F4C6F7475732F4C+  "/Lotus/L"
0FC4  616E67756167652F+  "anguage/"
0FCC  47616D652F466163+  "Game/Fac"
0FD4  74696F6E5F477269+  "tion_Gri"
0FDC  6E656572554300     "neerUC\0"
                         const [13]: "/Lotus/Language/Game/Faction_GrineerUC"
0FE3  04                 const type 4
0FE4  07                 string size (7)
0FE5  434F5250555300     "CORPUS\0"
                         const [14]: "CORPUS"
0FEC  04                 const type 4
0FED  26                 string size (38)
0FEE  2F4C6F7475732F4C+  "/Lotus/L"
0FF6  616E67756167652F+  "anguage/"
0FFE  47616D652F466163+  "Game/Fac"
1006  74696F6E5F436F72+  "tion_Cor"
100E  707573554300       "pusUC\0"
                         const [15]: "/Lotus/Language/Game/Faction_CorpusUC"
1014  04                 const type 4
1015  0C                 string size (12)
1016  494E464553544154+  "INFESTAT"
101E  494F4E00           "ION\0"
                         const [16]: "INFESTATION"
1022  04                 const type 4
1023  2B                 string size (43)
1024  2F4C6F7475732F4C+  "/Lotus/L"
102C  616E67756167652F+  "anguage/"
1034  47616D652F466163+  "Game/Fac"
103C  74696F6E5F496E66+  "tion_Inf"
1044  6573746174696F6E+  "estation"
104C  554300             "UC\0"
                         const [17]: "/Lotus/Language/Game/Faction_InfestationUC"
104F  04                 const type 4
1050  07                 string size (7)
1051  4F524F4B494E00     "OROKIN\0"
                         const [18]: "OROKIN"
1058  04                 const type 4
1059  26                 string size (38)
105A  2F4C6F7475732F4C+  "/Lotus/L"
1062  616E67756167652F+  "anguage/"
106A  47616D652F466163+  "Game/Fac"
1072  74696F6E5F4F726F+  "tion_Oro"
107A  6B696E554300       "kinUC\0"
                         const [19]: "/Lotus/Language/Game/Faction_OrokinUC"
1080  04                 const type 4
1081  08                 string size (8)
1082  4E45555452414C00   "NEUTRAL\0"
                         const [20]: "NEUTRAL"
108A  04                 const type 4
108B  23                 string size (35)
108C  2F4C6F7475732F4C+  "/Lotus/L"
1094  616E67756167652F+  "anguage/"
109C  53796E6469636174+  "Syndicat"
10A4  65732F4E65757472+  "es/Neutr"
10AC  616C00             "al\0"
                         const [21]: "/Lotus/Language/Syndicates/Neutral"
10AF  04                 const type 4
10B0  09                 string size (9)
10B1  53454E5449454E54+  "SENTIENT"
10B9  00                 "\0"
                         const [22]: "SENTIENT"
10BA  04                 const type 4
10BB  28                 string size (40)
10BC  2F4C6F7475732F4C+  "/Lotus/L"
10C4  616E67756167652F+  "anguage/"
10CC  47616D652F466163+  "Game/Fac"
10D4  74696F6E5F53656E+  "tion_Sen"
10DC  7469656E74554300   "tientUC\0"
                         const [23]: "/Lotus/Language/Game/Faction_SentientUC"
10E4  04                 const type 4
10E5  08                 string size (8)
10E6  5354414C4B455200   "STALKER\0"
                         const [24]: "STALKER"
10EE  04                 const type 4
10EF  1D                 string size (29)
10F0  2F4C6F7475732F4C+  "/Lotus/L"
10F8  616E67756167652F+  "anguage/"
1100  47616D652F537461+  "Game/Sta"
1108  6C6B657200         "lker\0"
                         const [25]: "/Lotus/Language/Game/Stalker"
110D  04                 const type 4
110E  0C                 string size (12)
110F  3C62723E3C2F666F+  "<br></fo"
1117  6E743E00           "nt>\0"
                         const [26]: "<br></font>"
111B  04                 const type 4
111C  0A                 string size (10)
111D  73686F7274446573+  "shortDes"
1125  6300               "c\0"
                         const [27]: "shortDesc"
1127  04                 const type 4
1128  01                 string size (0)
                         const [28]: ""
112A  04                 const type 4
112B  18                 string size (24)
112C  2F47616D652F4156+  "/Game/AV"
1134  415441525F484541+  "ATAR_HEA"
113C  4C54485F4D415800   "LTH_MAX\0"
                         const [29]: "/Game/AVATAR_HEALTH_MAX"
1144  04                 const type 4
1145  14                 string size (20)
1146  2F47616D652F4156+  "/Game/AV"
114E  415441525F534849+  "ATAR_SHI"
1156  454C4400           "ELD\0"
                         const [30]: "/Game/AVATAR_SHIELD"
115A  04                 const type 4
115B  14                 string size (20)
115C  2F47616D652F4156+  "/Game/AV"
1164  415441525F41524D+  "ATAR_ARM"
116C  4F555200           "OUR\0"
                         const [31]: "/Game/AVATAR_ARMOUR"
1170  04                 const type 4
1171  0A                 string size (10)
1172  6D61784865616C74+  "maxHealt"
117A  6800               "h\0"
                         const [32]: "maxHealth"
117C  04                 const type 4
117D  0A                 string size (10)
117E  6D6178536869656C+  "maxShiel"
1186  6400               "d\0"
                         const [33]: "maxShield"
1188  04                 const type 4
1189  0D                 string size (13)
118A  61726D6F75725261+  "armourRa"
1192  74696E6700         "ting\0"
                         const [34]: "armourRating"
1197  04                 const type 4
1198  11                 string size (17)
1199  736869656C645265+  "shieldRe"
11A1  73697374616E6365+  "sistance"
11A9  00                 "\0"
                         const [35]: "shieldResistance"
11AA  04                 const type 4
11AB  11                 string size (17)
11AC  61726D6F75725265+  "armourRe"
11B4  73697374616E6365+  "sistance"
11BC  00                 "\0"
                         const [36]: "armourResistance"
11BD  04                 const type 4
11BE  11                 string size (17)
11BF  6865616C74685265+  "healthRe"
11C7  73697374616E6365+  "sistance"
11CF  00                 "\0"
                         const [37]: "healthResistance"
11D0  03                 const type 3
11D1  00000000           const [38]: (0)
11D5  03                 const type 3
11D6  0000803F           const [39]: (0)
11DA  04                 const type 4
11DB  08                 string size (8)
11DC  67526567696F6E00   "gRegion\0"
                         const [40]: "gRegion"
11E4  01                 const type 3
11E5  BFF6E203           const [41]: (65205951)
11E9  01                 const type 3
11EA  65770E40           const [42]: (1074689893)
11EE  01                 const type 3
11EF  9B06F6A3           const [43]: (-1544157541)
11F3  01                 const type 3
11F4  C74DF1BF           const [44]: (-1074704953)
11F8  03                 const type 3
11F9  00004040           const [45]: (0)
11FD  01                 const type 3
11FE  1574197E           const [46]: (2115597333)
1202  04                 const type 4
1203  05                 string size (5)
1204  6D61746800         "math\0"
                         const [47]: "math"
1209  01                 const type 3
120A  C87C3FF9           const [48]: (-113279800)
120E  03                 const type 3
120F  0000C842           const [49]: (0)
1213  01                 const type 3
1214  A22217F8           const [50]: (-132701534)
1218  04                 const type 4
1219  02                 string size (2)
121A  2D00               "-\0"
                         const [51]: "-"
121C  04                 const type 4
121D  02                 string size (2)
121E  2B00               "+\0"
                         const [52]: "+"
1220  03                 const type 3
1221  0000403F           const [53]: (0)
1225  03                 const type 3
1226  0000003F           const [54]: (0)
122A  04                 const type 4
122B  10                 string size (16)
122C  20203C666F6E7420+  "  <font "
1234  636F6C6F723D2200   "color=\"\0"
                         const [55]: "  <font color=\""
123C  04                 const type 4
123D  05                 string size (5)
123E  223E202000         "\">  \0"
                         const [56]: "\">  "
1243  04                 const type 4
1244  08                 string size (8)
1245  3C2F666F6E743E00   "</font>\0"
                         const [57]: "</font>"
124D  04                 const type 4
124E  0B                 string size (11)
124F  726567696F6E4269+  "regionBi"
1257  747300             "ts\0"
                         const [58]: "regionBits"
125A  01                 const type 3
125B  F2AC3ABB           const [59]: (-1153782542)
125F  01                 const type 3
1260  39740E5B           const [60]: (1527673913)
1264  01                 const type 3
1265  2EDC1F46           const [61]: (1176493102)
1269  04                 const type 4
126A  05                 string size (5)
126B  6E616D6500         "name\0"
                         const [62]: "name"
1270  04                 const type 4
1271  03                 string size (3)
1272  2C2000             ", \0"
                         const [63]: ", "
1275  03                 const type 3
1276  00000040           const [64]: (0)
127A  04                 const type 4
127B  1D                 string size (29)
127C  2F4C6F7475732F4C+  "/Lotus/L"
1284  616E67756167652F+  "anguage/"
128C  47616D652F526567+  "Game/Reg"
1294  696F6E7300         "ions\0"
                         const [65]: "/Lotus/Language/Game/Regions"
1299  04                 const type 4
129A  02                 string size (2)
129B  3A00               ":\0"
                         const [66]: ":"
129D  04                 const type 4
129E  05                 string size (5)
129F  3C62723E00         "<br>\0"
                         const [67]: "<br>"
                         * functions:
12A4  00                 sizep (0)
                         * lines:
12A6  03                 sizelineinfo (475)
                         [pc] (line)
12A7  56                 [001] (86)
12A8  00                 [002] (86)
12A9  00                 [003] (87)
12AA  00                 [004] (89)
12AB  56                 [005] (89)
12AC  00                 [006] (90)
12AD  00                 [007] (93)
12AE  00                 [008] (93)
12AF  57                 [009] (93)
12B0  00                 [010] (93)
12B1  00                 [011] (93)
12B2  00                 [012] (93)
12B3  59                 [013] (93)
12B4  00                 [014] (93)
12B5  00                 [015] (93)
12B6  00                 [016] (95)
12B7  59                 [017] (95)
12B8  00                 [018] (95)
12B9  00                 [019] (95)
12BA  00                 [020] (95)
12BB  5A                 [021] (95)
12BC  00                 [022] (96)
12BD  00                 [023] (96)
12BE  00                 [024] (97)
12BF  5D                 [025] (97)
12C0  00                 [026] (97)
12C1  00                 [027] (97)
12C2  00                 [028] (97)
12C3  5D                 [029] (97)
12C4  00                 [030] (97)
12C5  00                 [031] (98)
12C6  00                 [032] (98)
12C7  5D                 [033] (99)
12C8  00                 [034] (99)
12C9  00                 [035] (99)
12CA  00                 [036] (99)
12CB  5D                 [037] (99)
12CC  00                 [038] (99)
12CD  00                 [039] (99)
12CE  00                 [040] (100)
12CF  5D                 [041] (100)
12D0  00                 [042] (101)
12D1  00                 [043] (101)
12D2  00                 [044] (101)
12D3  5D                 [045] (101)
12D4  00                 [046] (101)
12D5  00                 [047] (101)
12D6  00                 [048] (101)
12D7  5D                 [049] (102)
12D8  00                 [050] (102)
12D9  00                 [051] (103)
12DA  00                 [052] (103)
12DB  5D                 [053] (103)
12DC  00                 [054] (103)
12DD  00                 [055] (103)
12DE  00                 [056] (103)
12DF  5D                 [057] (103)
12E0  00                 [058] (104)
12E1  00                 [059] (104)
12E2  00                 [060] (105)
12E3  5F                 [061] (105)
12E4  00                 [062] (105)
12E5  00                 [063] (105)
12E6  00                 [064] (105)
12E7  5F                 [065] (105)
12E8  00                 [066] (105)
12E9  00                 [067] (106)
12EA  00                 [068] (106)
12EB  5F                 [069] (107)
12EC  00                 [070] (107)
12ED  00                 [071] (107)
12EE  00                 [072] (107)
12EF  5F                 [073] (107)
12F0  00                 [074] (107)
12F1  00                 [075] (107)
12F2  00                 [076] (108)
12F3  5F                 [077] (108)
12F4  00                 [078] (109)
12F5  00                 [079] (109)
12F6  00                 [080] (109)
12F7  5F                 [081] (109)
12F8  00                 [082] (109)
12F9  00                 [083] (109)
12FA  00                 [084] (112)
12FB  60                 [085] (112)
12FC  00                 [086] (112)
12FD  00                 [087] (114)
12FE  00                 [088] (114)
12FF  60                 [089] (114)
1300  00                 [090] (114)
1301  00                 [091] (114)
1302  00                 [092] (114)
1303  61                 [093] (115)
1304  00                 [094] (115)
1305  00                 [095] (116)
1306  00                 [096] (116)
1307  61                 [097] (116)
1308  00                 [098] (116)
1309  00                 [099] (116)
130A  00                 [100] (116)
130B  61                 [101] (116)
130C  00                 [102] (120)
130D  00                 [103] (120)
130E  00                 [104] (120)
130F  61                 [105] (120)
1310  00                 [106] (120)
1311  00                 [107] (120)
1312  00                 [108] (120)
1313  61                 [109] (120)
1314  00                 [110] (123)
1315  00                 [111] (123)
1316  00                 [112] (123)
1317  61                 [113] (123)
1318  00                 [114] (124)
1319  00                 [115] (124)
131A  00                 [116] (124)
131B  61                 [117] (124)
131C  00                 [118] (125)
131D  00                 [119] (125)
131E  00                 [120] (125)
131F  62                 [121] (125)
1320  00                 [122] (127)
1321  00                 [123] (-128)
1322  00                 [124] (-127)
1323  62                 [125] (-124)
1324  00                 [126] (-124)
1325  00                 [127] (-124)
1326  00                 [128] (-124)
1327  63                 [129] (-124)
1328  00                 [130] (-122)
1329  00                 [131] (-121)
132A  00                 [132] (-120)
132B  63                 [133] (-118)
132C  00                 [134] (-118)
132D  00                 [135] (-117)
132E  00                 [136] (-117)
132F  63                 [137] (-117)
1330  00                 [138] (-117)
1331  00                 [139] (-117)
1332  00                 [140] (-117)
1333  63                 [141] (-117)
1334  00                 [142] (-114)
1335  00                 [143] (-114)
1336  00                 [144] (-113)
1337  63                 [145] (-113)
1338  00                 [146] (-113)
1339  00                 [147] (-113)
133A  00                 [148] (-113)
133B  63                 [149] (-113)
133C  00                 [150] (-113)
133D  00                 [151] (-110)
133E  00                 [152] (-110)
133F  63                 [153] (-109)
1340  00                 [154] (-109)
1341  00                 [155] (-109)
1342  00                 [156] (-109)
1343  64                 [157] (-109)
1344  00                 [158] (-109)
1345  00                 [159] (-109)
1346  00                 [160] (-106)
1347  64                 [161] (-105)
1348  00                 [162] (-105)
1349  00                 [163] (-105)
134A  00                 [164] (-104)
134B  65                 [165] (-104)
134C  00                 [166] (-104)
134D  00                 [167] (-104)
134E  00                 [168] (-104)
134F  65                 [169] (-103)
1350  00                 [170] (-103)
1351  00                 [171] (-103)
1352  00                 [172] (-103)
1353  65                 [173] (-103)
1354  00                 [174] (-103)
1355  00                 [175] (-103)
1356  00                 [176] (-103)
1357  65                 [177] (-101)
1358  00                 [178] (-101)
1359  00                 [179] (-101)
135A  00                 [180] (-101)
135B  65                 [181] (-101)
135C  00                 [182] (-100)
135D  00                 [183] (-100)
135E  00                 [184] (-100)
135F  65                 [185] (-100)
1360  00                 [186] (-100)
1361  00                 [187] (-98)
1362  00                 [188] (-98)
1363  65                 [189] (-98)
1364  00                 [190] (-98)
1365  00                 [191] (-97)
1366  00                 [192] (-97)
1367  66                 [193] (-97)
1368  00                 [194] (-96)
1369  00                 [195] (-95)
136A  00                 [196] (-94)
136B  66                 [197] (-94)
136C  00                 [198] (-94)
136D  00                 [199] (-94)
136E  00                 [200] (-94)
136F  67                 [201] (-93)
1370  00                 [202] (-93)
1371  00                 [203] (-93)
1372  00                 [204] (-93)
1373  67                 [205] (-93)
1374  00                 [206] (-93)
1375  00                 [207] (-92)
1376  00                 [208] (-92)
1377  67                 [209] (-92)
1378  00                 [210] (-92)
1379  00                 [211] (-92)
137A  00                 [212] (-92)
137B  67                 [213] (-91)
137C  00                 [214] (-91)
137D  00                 [215] (-90)
137E  00                 [216] (-90)
137F  67                 [217] (-90)
1380  00                 [218] (-90)
1381  00                 [219] (-90)
1382  00                 [220] (-90)
1383  67                 [221] (-90)
1384  00                 [222] (-90)
1385  00                 [223] (-89)
1386  00                 [224] (-89)
1387  67                 [225] (-89)
1388  00                 [226] (-89)
1389  00                 [227] (-89)
138A  00                 [228] (-89)
138B  68                 [229] (-89)
138C  00                 [230] (-89)
138D  00                 [231] (-89)
138E  00                 [232] (-88)
138F  68                 [233] (-88)
1390  00                 [234] (-88)
1391  00                 [235] (-88)
1392  00                 [236] (-88)
1393  69                 [237] (-88)
1394  00                 [238] (-87)
1395  00                 [239] (-87)
1396  00                 [240] (-87)
1397  69                 [241] (-87)
1398  00                 [242] (-87)
1399  00                 [243] (-86)
139A  00                 [244] (-86)
139B  69                 [245] (-86)
139C  00                 [246] (-86)
139D  00                 [247] (-86)
139E  00                 [248] (-86)
139F  69                 [249] (-85)
13A0  00                 [250] (-85)
13A1  00                 [251] (-85)
13A2  00                 [252] (-83)
13A3  69                 [253] (-83)
13A4  00                 [254] (-82)
13A5  00                 [255] (-82)
13A6  00                 [256] (-81)
13A7  69                 [257] (-81)
13A8  00                 [258] (-81)
13A9  00                 [259] (-79)
13AA  00                 [260] (-79)
13AB  69                 [261] (-79)
13AC  00                 [262] (-79)
13AD  00                 [263] (-79)
13AE  00                 [264] (-79)
13AF  6A                 [265] (-79)
13B0  00                 [266] (-79)
13B1  00                 [267] (-79)
13B2  00                 [268] (-79)
13B3  6A                 [269] (-77)
13B4  00                 [270] (-77)
13B5  00                 [271] (-76)
13B6  00                 [272] (-76)
13B7  6B                 [273] (-76)
13B8  00                 [274] (-74)
13B9  00                 [275] (-74)
13BA  00                 [276] (-74)
13BB  6B                 [277] (-74)
13BC  00                 [278] (-74)
13BD  00                 [279] (-74)
13BE  00                 [280] (-74)
13BF  6B                 [281] (-74)
13C0  00                 [282] (-74)
13C1  00                 [283] (-94)
13C2  00                 [284] (-69)
13C3  6B                 [285] (-69)
13C4  00                 [286] (-68)
13C5  00                 [287] (-68)
13C6  00                 [288] (-68)
13C7  6B                 [289] (-68)
13C8  00                 [290] (-68)
13C9  00                 [291] (-68)
13CA  00                 [292] (-68)
13CB  6B                 [293] (-66)
13CC  00                 [294] (-66)
13CD  00                 [295] (-65)
13CE  00                 [296] (-65)
13CF  6B                 [297] (-65)
13D0  00                 [298] (-65)
13D1  00                 [299] (-65)
13D2  00                 [300] (-65)
13D3  6C                 [301] (-65)
13D4  00                 [302] (-65)
13D5  00                 [303] (-98)
13D6  00                 [304] (-60)
13D7  6C                 [305] (-58)
13D8  00                 [306] (-58)
13D9  00                 [307] (-58)
13DA  00                 [308] (-57)
13DB  6D                 [309] (-57)
13DC  00                 [310] (-57)
13DD  00                 [311] (-56)
13DE  00                 [312] (-56)
13DF  6D                 [313] (-55)
13E0  00                 [314] (-55)
13E1  00                 [315] (-55)
13E2  00                 [316] (-55)
13E3  6D                 [317] (-54)
13E4  00                 [318] (-54)
13E5  00                 [319] (-54)
13E6  00                 [320] (-54)
13E7  6D                 [321] (-54)
13E8  00                 [322] (-54)
13E9  00                 [323] (-53)
13EA  00                 [324] (-53)
13EB  6D                 [325] (-53)
13EC  00                 [326] (-53)
13ED  00                 [327] (-53)
13EE  00                 [328] (-52)
13EF  6D                 [329] (-52)
13F0  00                 [330] (-51)
13F1  00                 [331] (-51)
13F2  00                 [332] (-51)
13F3  70                 [333] (-49)
13F4  00                 [334] (-49)
13F5  00                 [335] (-49)
13F6  00                 [336] (-55)
13F7  70                 [337] (-43)
13F8  00                 [338] (-43)
13F9  00                 [339] (-42)
13FA  00                 [340] (-42)
13FB  70                 [341] (-42)
13FC  00                 [342] (-42)
13FD  00                 [343] (-42)
13FE  00                 [344] (-42)
13FF  72                 [345] (-42)
1400  00                 [346] (-42)
1401  00                 [347] (-41)
1402  00                 [348] (-41)
1403  72                 [349] (-41)
1404  00                 [350] (-41)
1405  00                 [351] (-41)
1406  00                 [352] (-41)
1407  72                 [353] (-41)
1408  00                 [354] (-41)
1409  00                 [355] (-41)
140A  00                 [356] (-41)
140B  72                 [357] (-40)
140C  00                 [358] (-40)
140D  00                 [359] (-40)
140E  00                 [360] (-39)
140F  72                 [361] (-39)
1410  00                 [362] (-39)
1411  00                 [363] (-39)
1412  00                 [364] (-39)
1413  72                 [365] (-39)
1414  00                 [366] (-39)
1415  00                 [367] (-39)
1416  00                 [368] (-39)
1417  73                 [369] (-37)
1418  00                 [370] (-37)
1419  00                 [371] (-36)
141A  00                 [372] (-36)
141B  73                 [373] (-36)
141C  00                 [374] (-36)
141D  00                 [375] (-36)
141E  00                 [376] (-36)
141F  74                 [377] (-36)
1420  00                 [378] (-36)
1421  00                 [379] (-32)
1422  00                 [380] (-32)
1423  74                 [381] (-31)
1424  00                 [382] (-31)
1425  00                 [383] (-31)
1426  00                 [384] (-31)
1427  74                 [385] (-31)
1428  00                 [386] (-31)
1429  00                 [387] (-30)
142A  00                 [388] (-30)
142B  74                 [389] (-30)
142C  00                 [390] (-30)
142D  00                 [391] (-30)
142E  00                 [392] (-30)
142F  74                 [393] (-30)
1430  00                 [394] (-30)
1431  00                 [395] (-30)
1432  00                 [396] (-30)
1433  74                 [397] (-29)
1434  00                 [398] (-29)
1435  00                 [399] (-29)
1436  00                 [400] (-28)
1437  74                 [401] (-28)
1438  00                 [402] (-28)
1439  00                 [403] (-28)
143A  00                 [404] (-28)
143B  78                 [405] (-28)
143C  00                 [406] (-28)
143D  00                 [407] (-28)
143E  00                 [408] (-28)
143F  78                 [409] (-26)
1440  00                 [410] (-26)
1441  00                 [411] (-25)
1442  00                 [412] (-25)
1443  78                 [413] (-25)
1444  00                 [414] (-25)
1445  00                 [415] (-25)
1446  00                 [416] (-25)
1447  78                 [417] (-25)
1448  00                 [418] (-25)
1449  00                 [419] (-21)
144A  00                 [420] (-21)
144B  78                 [421] (-20)
144C  00                 [422] (-20)
144D  00                 [423] (-20)
144E  00                 [424] (-20)
144F  78                 [425] (-20)
1450  00                 [426] (-20)
1451  00                 [427] (-20)
1452  00                 [428] (-20)
1453  78                 [429] (-20)
1454  00                 [430] (-20)
1455  00                 [431] (-19)
1456  00                 [432] (-19)
1457  78                 [433] (-19)
1458  00                 [434] (-18)
1459  00                 [435] (-18)
145A  00                 [436] (-18)
145B  7B                 [437] (-18)
145C  00                 [438] (-18)
145D  00                 [439] (-18)
145E  00                 [440] (-18)
145F  7B                 [441] (-18)
1460  00                 [442] (-18)
1461  00                 [443] (-18)
1462  00                 [444] (-18)
1463  7B                 [445] (-18)
1464  00                 [446] (-14)
1465  00                 [447] (-14)
1466  00                 [448] (-13)
1467  7B                 [449] (-13)
1468  00                 [450] (-13)
1469  00                 [451] (-13)
146A  00                 [452] (-13)
146B  7C                 [453] (-13)
146C  00                 [454] (-13)
146D  00                 [455] (-13)
146E  00                 [456] (-11)
146F  7C                 [457] (-11)
1470  00                 [458] (-11)
1471  00                 [459] (-11)
1472  00                 [460] (-11)
1473  7C                 [461] (-11)
1474  00                 [462] (-10)
1475  00                 [463] (-10)
1476  00                 [464] (-10)
1477  7C                 [465] (-10)
1478  00                 [466] (-10)
1479  00                 [467] (-10)
147A  00                 [468] (-10)
147B  7D                 [469] (-10)
147C  00                 [470] (-10)
147D  00                 [471] (-10)
147E  00                 [472] (-10)
147F  7D                 [473] (-10)
1480  00                 [474] (-7)
1481  00                 [475] (-6)
                         * locals:
1A13  00                 sizelocvars (0)
                         * upvalues:
1A14  00                 sizeupvalues (0)
                         ** end of function **

                         
1A15                     ** function [3] definition (level 2)
                         ** start of function **
1A15  00                 string size (0)
                         source name: (none)
1A17  01                 line defined (252)
1A18  FE                 last line defined (254)
1A19  01                 nups (0)
1A1A  00                 numparams (2)
1A1B  02                 is_vararg (0)
1A1C  00                 maxstacksize (4)
                         * code:
1A1E  08                 sizecode (8)
1A1F  8E004000           [1] gettable   2   0   256  ; "Label"
1A23  CE00C000           [2] gettable   3   1   256  ; "Label"
fail op	21
1A27  55C00001           [3] concat     1   2   3  
1A2B  1A000080           [4] jmp        1            ; to [6]
1A2F  97400000           [5] loadbool   2   0   1    ; false, to [7]
1A33  97008000           [6] loadbool   2   1   0    ; true
1A37  9E000001           [7] return     2   2      
1A3B  1E008000           [8] return     0   1      
                         * constants:
1A3F  01                 sizek (1)
1A40  04                 const type 4
1A41  06                 string size (6)
1A42  4C6162656C00       "Label\0"
                         const [0]: "Label"
                         * functions:
1A48  00                 sizep (0)
                         * lines:
1A49  08                 sizelineinfo (8)
                         [pc] (line)
1A4A  FD                 [1] (-3)
1A4B  00                 [2] (-3)
1A4C  00                 [3] (-3)
1A4D  00                 [4] (-3)
1A4E  FD                 [5] (-3)
1A4F  00                 [6] (-3)
1A50  00                 [7] (-3)
1A51  00                 [8] (-2)
                         * locals:
1A6A  00                 sizelocvars (0)
                         * upvalues:
1A6B  00                 sizeupvalues (0)
                         ** end of function **

                         
1A6C                     ** function [4] definition (level 2)
                         ** start of function **
1A6C  00                 string size (0)
                         source name: (none)
1A6E  02                 line defined (256)
1A6F  8D                 last line defined (269)
1A70  02                 nups (0)
1A71  00                 numparams (2)
1A72  02                 is_vararg (0)
1A73  00                 maxstacksize (10)
                         * code:
1A75  2F                 sizecode (47)
1A76  A4004000           [01] self       2   0   256  ; 98241492
1A7A  0E41C000           [02] gettable   4   1   257  ; "locName"
1A7E  24814002           [03] self       4   4   258  ; 1590141906
1A82  22810001           [04] call       4   2   2  
1A86  57018000           [05] loadbool   5   1   0    ; true
1A8A  A2800002           [06] call       2   4   2  
1A8E  CEC0C000           [07] gettable   3   1   259  ; "type"
1A92  E400C101           [08] self       3   3   260  ; -1957065004
1A96  5D410100           [09] getglobal  5   5        ; gLotusNpcAvatarType
1A9A  E2808001           [10] call       3   3   2  
1A9E  D8000000           [11] test       3       0    ; to [13] if true
1AA2  1A000880           [12] jmp        33           ; to [46]
1AA6  CE80C100           [13] gettable   3   1   262  ; "isLeader"
1AAA  D8000000           [14] test       3       0    ; to [16] if true
1AAE  1A400780           [15] jmp        30           ; to [46]
1AB2  CEC0C000           [16] gettable   3   1   259  ; "type"
1AB6  E400C101           [17] self       3   3   260  ; -1957065004
1ABA  5DC10100           [18] getglobal  5   7        ; 738251817
1ABE  99010200           [19] loadk      6   8        ; "/Lotus/Types/Enemies/Grineer/AIWeek/Avatars/GrineerMeleeStaffAvatarLeader"
1AC2  62010001           [20] call       5   2   0  
1AC6  E2800000           [21] call       3   0   2  
1ACA  D8000000           [22] test       3       0    ; to [24] if true
1ACE  1A400380           [23] jmp        14           ; to [38]
1AD2  CB400000           [24] newtable   3   0   1    ; array=0, hash=1
1AD6  CC80C284           [25] settable   3   265 266  ; "ENEMY" ""
1ADA  1DC10200           [26] getglobal  4   11       ; string
1ADE  0E014302           [27] gettable   4   4   268  ; 1664893510
1AE2  64014000           [28] self       5   0   256  ; 98241492
1AE6  D9410300           [29] loadk      7   13       ; "/Lotus/Language/EnemyLeaders/ProsecutorGenericLeaderName"
1AEA  17020000           [30] loadbool   8   0   0    ; false
1AEE  52028001           [31] move       9   3      
1AF2  62818002           [32] call       5   5   2  
1AF6  99810300           [33] loadk      6   14       ; "%s+"
1AFA  D9810200           [34] loadk      7   10       ; ""
1AFE  22810002           [35] call       4   4   2  
1B02  92000002           [36] move       2   4      
1B06  1AC00180           [37] jmp        8            ; to [46]
1B0A  0B410000           [38] newtable   4   0   1    ; array=0, hash=1
1B0E  0C818084           [39] settable   4   265 2    ; "ENEMY"
1B12  64014000           [40] self       5   0   256  ; 98241492
1B16  D9C10300           [41] loadk      7   15       ; "/Lotus/Language/EnemyLeaders/GenericLeaderName"
1B1A  17020000           [42] loadbool   8   0   0    ; false
1B1E  52020002           [43] move       9   4      
1B22  62818002           [44] call       5   5   2  
1B26  92008002           [45] move       2   5      
1B2A  9E000001           [46] return     2   2      
1B2E  1E008000           [47] return     0   1      
                         * constants:
1B32  10                 sizek (16)
1B33  01                 const type 3
1B34  D40BDB05           const [0]: (98241492)
1B38  04                 const type 4
1B39  08                 string size (8)
1B3A  6C6F634E616D6500   "locName\0"
                         const [1]: "locName"
1B42  01                 const type 3
1B43  D2A3C75E           const [2]: (1590141906)
1B47  04                 const type 4
1B48  05                 string size (5)
1B49  7479706500         "type\0"
                         const [3]: "type"
1B4E  01                 const type 3
1B4F  D48E598B           const [4]: (-1957065004)
1B53  04                 const type 4
1B54  14                 string size (20)
1B55  674C6F7475734E70+  "gLotusNp"
1B5D  6341766174617254+  "cAvatarT"
1B65  79706500           "ype\0"
                         const [5]: "gLotusNpcAvatarType"
1B69  04                 const type 4
1B6A  09                 string size (9)
1B6B  69734C6561646572+  "isLeader"
1B73  00                 "\0"
                         const [6]: "isLeader"
1B74  01                 const type 3
1B75  29D4002C           const [7]: (738251817)
1B79  04                 const type 4
1B7A  4A                 string size (74)
1B7B  2F4C6F7475732F54+  "/Lotus/T"
1B83  797065732F456E65+  "ypes/Ene"
1B8B  6D6965732F477269+  "mies/Gri"
1B93  6E6565722F414957+  "neer/AIW"
1B9B  65656B2F41766174+  "eek/Avat"
1BA3  6172732F4772696E+  "ars/Grin"
1BAB  6565724D656C6565+  "eerMelee"
1BB3  5374616666417661+  "StaffAva"
1BBB  7461724C65616465+  "tarLeade"
1BC3  7200               "r\0"
                         const [8]: "/Lotus/Types/Enemies/Grineer/AIWeek/Avatars/GrineerMeleeStaffAvatarLeader"
1BC5  04                 const type 4
1BC6  06                 string size (6)
1BC7  454E454D5900       "ENEMY\0"
                         const [9]: "ENEMY"
1BCD  04                 const type 4
1BCE  01                 string size (0)
                         const [10]: ""
1BD0  04                 const type 4
1BD1  07                 string size (7)
1BD2  737472696E6700     "string\0"
                         const [11]: "string"
1BD9  01                 const type 3
1BDA  46423C63           const [12]: (1664893510)
1BDE  04                 const type 4
1BDF  39                 string size (57)
1BE0  2F4C6F7475732F4C+  "/Lotus/L"
1BE8  616E67756167652F+  "anguage/"
1BF0  456E656D794C6561+  "EnemyLea"
1BF8  646572732F50726F+  "ders/Pro"
1C00  73656375746F7247+  "secutorG"
1C08  656E657269634C65+  "enericLe"
1C10  616465724E616D65+  "aderName"
1C18  00                 "\0"
                         const [13]: "/Lotus/Language/EnemyLeaders/ProsecutorGenericLeaderName"
1C19  04                 const type 4
1C1A  04                 string size (4)
1C1B  25732B00           "%s+\0"
                         const [14]: "%s+"
1C1F  04                 const type 4
1C20  2F                 string size (47)
1C21  2F4C6F7475732F4C+  "/Lotus/L"
1C29  616E67756167652F+  "anguage/"
1C31  456E656D794C6561+  "EnemyLea"
1C39  646572732F47656E+  "ders/Gen"
1C41  657269634C656164+  "ericLead"
1C49  65724E616D6500     "erName\0"
                         const [15]: "/Lotus/Language/EnemyLeaders/GenericLeaderName"
                         * functions:
1C50  00                 sizep (0)
                         * lines:
1C51  2F                 sizelineinfo (47)
                         [pc] (line)
1C52  01                 [01] (1)
1C53  01                 [02] (1)
1C54  00                 [03] (1)
1C55  00                 [04] (1)
1C56  01                 [05] (1)
1C57  01                 [06] (1)
1C58  00                 [07] (2)
1C59  00                 [08] (2)
1C5A  01                 [09] (2)
1C5B  01                 [10] (2)
1C5C  00                 [11] (2)
1C5D  00                 [12] (2)
1C5E  01                 [13] (2)
1C5F  01                 [14] (2)
1C60  00                 [15] (2)
1C61  00                 [16] (3)
1C62  01                 [17] (3)
1C63  01                 [18] (3)
1C64  00                 [19] (3)
1C65  00                 [20] (3)
1C66  01                 [21] (3)
1C67  01                 [22] (3)
1C68  00                 [23] (3)
1C69  00                 [24] (5)
1C6A  02                 [25] (5)
1C6B  01                 [26] (6)
1C6C  00                 [27] (6)
1C6D  00                 [28] (6)
1C6E  02                 [29] (6)
1C6F  01                 [30] (6)
1C70  00                 [31] (6)
1C71  00                 [32] (6)
1C72  02                 [33] (6)
1C73  01                 [34] (6)
1C74  00                 [35] (6)
1C75  00                 [36] (6)
1C76  02                 [37] (6)
1C77  01                 [38] (8)
1C78  00                 [39] (8)
1C79  00                 [40] (9)
1C7A  02                 [41] (9)
1C7B  01                 [42] (9)
1C7C  00                 [43] (9)
1C7D  00                 [44] (9)
1C7E  02                 [45] (9)
1C7F  01                 [46] (12)
1C80  00                 [47] (13)
                         * locals:
1D0E  00                 sizelocvars (0)
                         * upvalues:
1D0F  00                 sizeupvalues (0)
                         ** end of function **

                         
1D10                     ** function [5] definition (level 2)
                         ** start of function **
1D10  00                 string size (0)
                         source name: (none)
1D12  02                 line defined (271)
1D13  91                 last line defined (273)
1D14  02                 nups (1)
1D15  01                 numparams (2)
1D16  02                 is_vararg (0)
1D17  00                 maxstacksize (5)
                         * code:
1D19  06                 sizecode (6)
1D1A  93000000           [1] getupval   2   0      
1D1E  D2000000           [2] move       3   0      
1D22  12018000           [3] move       4   1      
1D26  87008001           [4] tailcall   2   3   0  
1D2A  9E000000           [5] return     2   0      
1D2E  1E008000           [6] return     0   1      
                         * constants:
1D32  00                 sizek (0)
                         * functions:
1D33  00                 sizep (0)
                         * lines:
1D34  06                 sizelineinfo (6)
                         [pc] (line)
1D35  10                 [1] (16)
1D36  01                 [2] (16)
1D37  00                 [3] (16)
1D38  00                 [4] (16)
1D39  10                 [5] (16)
1D3A  01                 [6] (17)
                         * locals:
1D4D  00                 sizelocvars (0)
                         * upvalues:
1D4E  00                 sizeupvalues (0)
                         ** end of function **

                         
1D4F                     ** function [6] definition (level 2)
                         ** start of function **
1D4F  00                 string size (0)
                         source name: (none)
1D51  02                 line defined (277)
1D52  BF                 last line defined (447)
1D53  03                 nups (2)
1D54  02                 numparams (6)
1D55  06                 is_vararg (0)
1D56  00                 maxstacksize (68)
                         * code:
1D59  02                 sizecode (368)
1D5A  8B010000           [001] newtable   6   0   0    ; array=0, hash=0
1D5E  CB010000           [002] newtable   7   0   0    ; array=0, hash=0
1D62  0B020000           [003] newtable   8   0   0    ; array=0, hash=0
1D66  4B020000           [004] newtable   9   0   0    ; array=0, hash=0
1D6A  8B020000           [005] newtable   10  0   0    ; array=0, hash=0
1D6E  CB020000           [006] newtable   11  0   0    ; array=0, hash=0
1D72  17030000           [007] loadbool   12  0   0    ; false
1D76  4E034001           [008] gettable   13  2   256  ; "related"
1D7A  97030000           [009] loadbool   14  0   0    ; false
1D7E  DD430000           [010] getglobal  15  1        ; 738251817
1D82  19840000           [011] loadk      16  2        ; "/Lotus/Types/Game/MissionDecks/BaseJobRewards"
1D86  E2830001           [012] call       15  2   2  
1D8A  1D440000           [013] getglobal  16  1        ; 738251817
1D8E  59C40000           [014] loadk      17  3        ; "/Lotus/Types/BoosterPacks/RandomProjection"
1D92  22840001           [015] call       16  2   2  
1D96  59040100           [016] loadk      17  4        ; 0
1D9A  8A048006           [017] len        18  13     
1D9E  D9040100           [018] loadk      19  4        ; 0
1DA2  50844080           [019] forprep    17  259      ; to [279]
1DA6  4E058506           [020] gettable   21  13  20 
1DAA  9D450100           [021] getglobal  22  5        ; 1074689893
1DAE  D205800A           [022] move       23  21     
1DB2  A2850001           [023] call       22  2   2  
1DB6  98450000           [024] test       22      1    ; to [26] if false
1DBA  1A001680           [025] jmp        89           ; to [115]
1DBE  A485C10A           [026] self       22  21  262  ; -1957065004
1DC2  1DC60100           [027] getglobal  24  7        ; gMissionRewardItemManifestType
1DC6  A2858001           [028] call       22  3   2  
1DCA  98050000           [029] test       22      0    ; to [31] if true
1DCE  1AC01480           [030] jmp        84           ; to [115]
1DD2  A485C10A           [031] self       22  21  262  ; -1957065004
1DD6  12068007           [032] move       24  15     
1DDA  A2858001           [033] call       22  3   2  
1DDE  98050000           [034] test       22      0    ; to [36] if true
1DE2  1A000380           [035] jmp        13           ; to [49]
1DE6  9D050200           [036] getglobal  22  8        ; -1615931716
1DEA  DD450200           [037] getglobal  23  9        ; 2083004503
1DEE  1206800A           [038] move       24  21     
1DF2  E2850001           [039] call       23  2   2  
1DF6  E485C20B           [040] self       23  23  266  ; -1334436347
1DFA  E2050001           [041] call       23  2   0  
1DFE  A2850000           [042] call       22  0   2  
1E02  E4C54200           [043] self       23  0   267  ; 98241492
1E06  5206000B           [044] move       25  22     
1E0A  97060000           [045] loadbool   26  0   0    ; false
1E0E  E2850002           [046] call       23  4   2  
1E12  4CC2050B           [047] settable   9   22  23 
1E16  1A403980           [048] jmp        230          ; to [279]
1E1A  D9050100           [049] loadk      23  4        ; 0
1E1E  0A060002           [050] len        24  4      
1E22  59060100           [051] loadk      25  4        ; 0
1E26  D0C50E80           [052] forprep    23  60       ; to [113]
1E2A  CE860602           [053] gettable   27  4   26 
1E2E  1D070300           [054] getglobal  28  12       ; 469076166
1E32  59470300           [055] loadk      29  13       ; 0
1E36  22470001           [056] call       28  2   1  
1E3A  1D470100           [057] getglobal  28  5        ; 1074689893
1E3E  4E87C30D           [058] gettable   29  27  270  ; "randomizedItems"
1E42  22870001           [059] call       28  2   2  
1E46  18470000           [060] test       28      1    ; to [62] if false
1E4A  1A000180           [061] jmp        5            ; to [67]
1E4E  0E87C30D           [062] gettable   28  27  270  ; "randomizedItems"
1E52  24C7430E           [063] self       28  28  271  ; -491574171
1E56  22870001           [064] call       28  2   2  
fail op	35
1E5A  6340050E           [065] close      1  
1E5E  1A400280           [066] jmp        10           ; to [77]
1E62  1D470100           [067] getglobal  28  5        ; 1074689893
1E66  4E07C40D           [068] gettable   29  27  272  ; "enemyCacheOverride"
1E6A  22870001           [069] call       28  2   2  
1E6E  18470000           [070] test       28      1    ; to [72] if false
1E72  1A000A80           [071] jmp        41           ; to [113]
1E76  0E07C40D           [072] gettable   28  27  272  ; "enemyCacheOverride"
1E7A  24C7430E           [073] self       28  28  271  ; -491574171
1E7E  22870001           [074] call       28  2   2  
fail op	35
1E82  2340050E           [075] close      0  
1E86  1AC00880           [076] jmp        36           ; to [113]
1E8A  0E47C40D           [077] gettable   28  27  273  ; "regionLocTag"
1E8E  0E078703           [078] gettable   28  7   28 
fail op	35
1E92  2380440E           [079] close      0  
1E96  1A800080           [080] jmp        3            ; to [84]
1E9A  0E47C40D           [081] gettable   28  27  273  ; "regionLocTag"
1E9E  4B070000           [082] newtable   29  0   0    ; array=0, hash=0
1EA2  CC41070E           [083] settable   7   28  29 
1EA6  0607000E           [084] loadnil    28  28     
1EAA  98430000           [085] test       14      1    ; to [87] if false
1EAE  1AC00080           [086] jmp        4            ; to [91]
1EB2  4EC7C40D           [087] gettable   29  27  275  ; "name"
1EB6  4E478702           [088] gettable   29  5   29 
fail op	35
1EBA  6380C40E           [089] close      1  
1EBE  1A800380           [090] jmp        15           ; to [106]
1EC2  4E47C40D           [091] gettable   29  27  273  ; "regionLocTag"
1EC6  4E478705           [092] gettable   29  11  29 
1ECA  58470000           [093] test       29      1    ; to [95] if false
1ECE  1A400080           [094] jmp        2            ; to [97]
1ED2  4E47C40D           [095] gettable   29  27  273  ; "regionLocTag"
1ED6  CC02C50E           [096] settable   11  29  276  ; 1
1EDA  5D470500           [097] getglobal  29  21       ; string
1EDE  4E87C50E           [098] gettable   29  29  278  ; 1671193642
1EE2  A4C74200           [099] self       30  0   267  ; 98241492
1EE6  0EC8C50D           [100] gettable   32  27  279  ; "locTag"
1EEA  57088000           [101] loadbool   33  1   0    ; true
1EEE  A2070002           [102] call       30  4   0  
1EF2  62870000           [103] call       29  0   2  
1EF6  1207800E           [104] move       28  29     
1EFA  1A000080           [105] jmp        1            ; to [107]
1EFE  19070600           [106] loadk      28  24       ; "???"
1F02  5D470600           [107] getglobal  29  25       ; table
1F06  4E87C60E           [108] gettable   29  29  282  ; -431682403
1F0A  8E47C40D           [109] gettable   30  27  273  ; "regionLocTag"
1F0E  8E878703           [110] gettable   30  7   30 
1F12  D207000E           [111] move       31  28     
1F16  62478001           [112] call       29  3   1  
1F1A  D485F07F           [113] forloop    23  -61      ; to [53] if loop
1F1E  1AC02880           [114] jmp        164          ; to [279]
1F22  6487C10A           [115] self       29  21  262  ; -1957065004
1F26  DDC70600           [116] getglobal  31  27       ; gBaseAvatarType
1F2A  62878001           [117] call       29  3   2  
1F2E  58070000           [118] test       29      0    ; to [120] if true
1F32  1A000180           [119] jmp        5            ; to [125]
1F36  6407C700           [120] self       29  1   284  ; 1804417308
1F3A  D207800A           [121] move       31  21     
1F3E  62878001           [122] call       29  3   2  
1F42  58470000           [123] test       29      1    ; to [125] if false
1F46  1A800080           [124] jmp        3            ; to [128]
1F4A  6447C700           [125] self       29  1   285  ; 1095101156
1F4E  D207800A           [126] move       31  21     
1F52  62878001           [127] call       29  3   2  
1F56  8E87C70E           [128] gettable   30  29  286  ; "type"
1F5A  DD470100           [129] getglobal  31  5        ; 1074689893
1F5E  1208000F           [130] move       32  30     
1F62  E2870001           [131] call       31  2   2  
1F66  D8470000           [132] test       31      1    ; to [134] if false
1F6A  1A002480           [133] jmp        145          ; to [279]
1F6E  D7070000           [134] loadbool   31  0   0    ; false
1F72  2488410F           [135] self       32  30  262  ; -1957065004
1F76  9DC80700           [136] getglobal  34  31       ; gKeyItemType
1F7A  22888001           [137] call       32  3   2  
1F7E  18080000           [138] test       32      0    ; to [140] if true
1F82  1A001180           [139] jmp        69           ; to [209]
1F86  1D480200           [140] getglobal  32  9        ; 2083004503
1F8A  5208000F           [141] move       33  30     
1F8E  22880001           [142] call       32  2   2  
1F92  5D480100           [143] getglobal  33  5        ; 1074689893
1F96  92080010           [144] move       34  32     
1F9A  62880001           [145] call       33  2   2  
1F9E  58480000           [146] test       33      1    ; to [148] if false
1FA2  1A000F80           [147] jmp        61           ; to [209]
1FA6  64084810           [148] self       33  32  288  ; 1650304187
1FAA  62880001           [149] call       33  2   2  
1FAE  6448C810           [150] self       33  33  289  ; 1590141906
1FB2  62880001           [151] call       33  2   2  
fail op	35
1FB6  6380C810           [152] close      1  
1FBA  1A800D80           [153] jmp        55           ; to [209]
1FBE  99080100           [154] loadk      34  4        ; 0
1FC2  CA080002           [155] len        35  4      
1FC6  19090100           [156] loadk      36  4        ; 0
1FCA  90480C80           [157] forprep    34  50       ; to [208]
1FCE  8E490902           [158] gettable   38  4   37 
1FD2  DD090300           [159] getglobal  39  12       ; 469076166
1FD6  194A0300           [160] loadk      40  13       ; 0
1FDA  E2490001           [161] call       39  2   1  
1FDE  CEC94413           [162] gettable   39  38  275  ; "name"
fail op	35
1FE2  23408813           [163] close      0  
1FE6  1A800A80           [164] jmp        43           ; to [208]
1FEA  CE494413           [165] gettable   39  38  273  ; "regionLocTag"
1FEE  CEC98903           [166] gettable   39  7   39 
fail op	35
1FF2  2380C413           [167] close      0  
1FF6  1A800080           [168] jmp        3            ; to [172]
1FFA  CE494413           [169] gettable   39  38  273  ; "regionLocTag"
1FFE  0B0A0000           [170] newtable   40  0   0    ; array=0, hash=0
2002  CC018A13           [171] settable   7   39  40 
2006  C6098013           [172] loadnil    39  39     
200A  98430000           [173] test       14      1    ; to [175] if false
200E  1A000280           [174] jmp        9            ; to [184]
2012  0ECA4413           [175] gettable   40  38  275  ; "name"
2016  0E0A8A02           [176] gettable   40  5   40 
fail op	35
201A  23804414           [177] close      0  
201E  1A000180           [178] jmp        5            ; to [184]
2022  24CA480F           [179] self       40  30  291  ; 455421500
2026  228A0001           [180] call       40  2   2  
202A  0E0A8A02           [181] gettable   40  5   40 
fail op	35
202E  63804414           [182] close      1  
2032  1A800380           [183] jmp        15           ; to [199]
2036  0E4A4413           [184] gettable   40  38  273  ; "regionLocTag"
203A  0E0A8A05           [185] gettable   40  11  40 
203E  184A0000           [186] test       40      1    ; to [188] if false
2042  1A400080           [187] jmp        2            ; to [190]
2046  0E4A4413           [188] gettable   40  38  273  ; "regionLocTag"
204A  CC024514           [189] settable   11  40  276  ; 1
204E  1D4A0500           [190] getglobal  40  21       ; string
2052  0E8A4514           [191] gettable   40  40  278  ; 1671193642
2056  64CA4200           [192] self       41  0   267  ; 98241492
205A  CECA4513           [193] gettable   43  38  279  ; "locTag"
205E  170B8000           [194] loadbool   44  1   0    ; true
2062  620A0002           [195] call       41  4   0  
2066  228A0000           [196] call       40  0   2  
206A  D2090014           [197] move       39  40     
206E  1A000080           [198] jmp        1            ; to [200]
2072  D9090600           [199] loadk      39  24       ; "???"
2076  1D4A0600           [200] getglobal  40  25       ; table
207A  0E8A4614           [201] gettable   40  40  282  ; -431682403
207E  4E4A4413           [202] gettable   41  38  273  ; "regionLocTag"
2082  4E4A8A03           [203] gettable   41  7   41 
2086  920A8013           [204] move       42  39     
208A  224A8001           [205] call       40  3   1  
208E  D7078000           [206] loadbool   31  1   0    ; true
2092  1A000080           [207] jmp        1            ; to [209]
2096  9408F37F           [208] forloop    34  -51      ; to [158] if loop
209A  D8470000           [209] test       31      1    ; to [211] if false
209E  1AC01080           [210] jmp        68           ; to [279]
20A2  0E8AC70E           [211] gettable   40  29  286  ; "type"
20A6  24CA4814           [212] self       40  40  291  ; 455421500
20AA  228A0001           [213] call       40  2   2  
20AE  0E0A8A02           [214] gettable   40  5   40 
20B2  4E0AC90E           [215] gettable   41  29  292  ; "reqScans"
20B6  8E8AC70E           [216] gettable   42  29  286  ; "type"
20BA  A48A4115           [217] self       42  42  262  ; -1957065004
20BE  1D4B0900           [218] getglobal  44  37       ; gLotusDioramaType
20C2  A28A8001           [219] call       42  3   2  
20C6  980A0000           [220] test       42      0    ; to [222] if true
20CA  1A800080           [221] jmp        3            ; to [225]
20CE  190A0100           [222] loadk      40  4        ; 0
20D2  590A0100           [223] loadk      41  4        ; 0
20D6  1A800080           [224] jmp        3            ; to [228]
20DA  184A0000           [225] test       40      1    ; to [227] if false
20DE  1A000080           [226] jmp        1            ; to [228]
20E2  194A0300           [227] loadk      40  13       ; 0
20E6  98030000           [228] test       14      0    ; to [230] if true
20EA  1A000080           [229] jmp        1            ; to [231]
20EE  198A0900           [230] loadk      40  38       ; 0
20F2  994A0300           [231] loadk      42  13       ; 0
20F6  580A0000           [232] test       41      0    ; to [234] if true
20FA  1A400180           [233] jmp        6            ; to [240]
20FE  DDCA0900           [234] getglobal  43  39       ; 1668611480
2102  1C4B0A14           [235] div        44  40  41 
2106  594B0300           [236] loadk      45  13       ; 0
210A  990B0100           [237] loadk      46  4        ; 0
210E  E28A0002           [238] call       43  4   2  
2112  920A8015           [239] move       42  43     
fail op	33
2116  61808A01           [240] tforloop   1       42   ; to [242] if exit
211A  1A000080           [241] jmp        1            ; to [243]
211E  D74A0000           [242] loadbool   43  0   1    ; false, to [244]
2122  D70A8000           [243] loadbool   43  1   0    ; true
2126  1D4B0500           [244] getglobal  44  21       ; string
212A  0E8B4516           [245] gettable   44  44  278  ; 1671193642
212E  530B0000           [246] getupval   45  0      
2132  920B0000           [247] move       46  0      
2136  D20B800E           [248] move       47  29     
213A  620B8001           [249] call       45  3   0  
213E  228B0000           [250] call       44  0   2  
2142  4E8BC70E           [251] gettable   45  29  286  ; "type"
2146  648BC116           [252] self       45  45  262  ; -1957065004
214A  DD0B0A00           [253] getglobal  47  40       ; gSyndicateType
214E  628B8001           [254] call       45  3   2  
2152  580B0000           [255] test       45      0    ; to [257] if true
2156  1AC00180           [256] jmp        8            ; to [265]
215A  5D4B0600           [257] getglobal  45  25       ; table
215E  4E8BC616           [258] gettable   45  45  282  ; -431682403
2162  920B0005           [259] move       46  10     
2166  CB8B0000           [260] newtable   47  0   2    ; array=0, hash=2
216A  CC0B8B94           [261] settable   47  297 44   ; "Label"
216E  CC0B4595           [262] settable   47  298 276  ; "Found" 1
2172  624B8001           [263] call       45  3   1  
2176  1A400380           [264] jmp        14           ; to [279]
217A  5D4B0600           [265] getglobal  45  25       ; table
217E  4E8BC616           [266] gettable   45  45  282  ; -431682403
2182  920B0003           [267] move       46  6      
2186  CB8B0000           [268] newtable   47  0   2    ; array=0, hash=2
218A  CC0B8B94           [269] settable   47  297 44   ; "Label"
218E  CC0B4595           [270] settable   47  298 276  ; "Found" 1
2192  624B8001           [271] call       45  3   1  
2196  4E8BC70E           [272] gettable   45  29  286  ; "type"
219A  648BC116           [273] self       45  45  262  ; -1957065004
219E  D20B0008           [274] move       47  16     
21A2  628B8001           [275] call       45  3   2  
21A6  580B0000           [276] test       45      0    ; to [278] if true
21AA  1A000080           [277] jmp        1            ; to [279]
21AE  17038000           [278] loadbool   12  1   0    ; true
21B2  54C4BE7F           [279] forloop    17  -260     ; to [20] if loop
21B6  18430000           [280] test       12      1    ; to [282] if false
21BA  1A400280           [281] jmp        10           ; to [292]
21BE  590B0100           [282] loadk      45  4        ; 0
21C2  8A0B0005           [283] len        46  10     
21C6  D90B0100           [284] loadk      47  4        ; 0
21CA  500B0180           [285] forprep    45  5        ; to [291]
21CE  5D4C0600           [286] getglobal  49  25       ; table
21D2  4E8CC618           [287] gettable   49  49  282  ; -431682403
21D6  920C0003           [288] move       50  6      
21DA  CE0C0C05           [289] gettable   51  10  48 
21DE  624C8001           [290] call       49  3   1  
21E2  544BFE7F           [291] forloop    45  -6       ; to [286] if loop
21E6  5D4C0600           [292] getglobal  49  25       ; table
21EA  4ECCCA18           [293] gettable   49  49  299  ; -1513783280
21EE  920C0003           [294] move       50  6      
21F2  D30C8000           [295] getupval   51  1      
21F6  624C8001           [296] call       49  3   1  
21FA  5D0C0B00           [297] getglobal  49  44       ; 248503575
21FE  920C8003           [298] move       50  7      
2202  620C0101           [299] call       49  2   4  
2206  1AC00880           [300] jmp        36           ; to [337]
220A  8E0D8D05           [301] gettable   54  11  52 
220E  980D0000           [302] test       54      0    ; to [304] if true
2212  1A000680           [303] jmp        25           ; to [329]
2216  9D4D0600           [304] getglobal  54  25       ; table
221A  8ECD4A1B           [305] gettable   54  54  299  ; -1513783280
221E  D20D801A           [306] move       55  53     
2222  A24D0001           [307] call       54  2   1  
2226  9D4D0500           [308] getglobal  54  21       ; string
222A  8E8D451B           [309] gettable   54  54  278  ; 1671193642
222E  E4CD4200           [310] self       55  0   267  ; 98241492
2232  520E001A           [311] move       57  52     
2236  970E0000           [312] loadbool   58  0   0    ; false
223A  E20D0002           [313] call       55  4   0  
223E  A28D0000           [314] call       54  0   2  
2242  DD4D0600           [315] getglobal  55  25       ; table
2246  CE4DCB1B           [316] gettable   55  55  301  ; 495070862
224A  120E801A           [317] move       56  53     
224E  598E0B00           [318] loadk      57  46       ; ", "
2252  E28D8001           [319] call       55  3   2  
2256  1D4E0600           [320] getglobal  56  25       ; table
225A  0E8E461C           [321] gettable   56  56  282  ; -431682403
225E  520E0003           [322] move       57  6      
2262  8BCE0000           [323] newtable   58  0   3    ; array=0, hash=3
2266  8CCE8D94           [324] settable   58  297 55   ; "Label"
226A  8C8E8D97           [325] settable   58  303 54   ; "Group"
226E  8C0E4595           [326] settable   58  298 276  ; "Found" 1
2272  224E8001           [327] call       56  3   1  
2276  1AC00180           [328] jmp        8            ; to [337]
227A  1D4E0600           [329] getglobal  56  25       ; table
227E  0E8E461C           [330] gettable   56  56  282  ; -431682403
2282  520E0003           [331] move       57  6      
2286  8BCE0000           [332] newtable   58  0   3    ; array=0, hash=3
228A  8C0EC694           [333] settable   58  297 280  ; "Label" "???"
228E  8C0EC697           [334] settable   58  303 280  ; "Group" "???"
2292  8C0E4C95           [335] settable   58  298 304  ; "Found" 0
2296  224E8001           [336] call       56  3   1  
229A  568C0000           [337] tforloop   49      2    ; to [339] if exit
229E  1A40F67F           [338] jmp        -38          ; to [301]
22A2  1D4E0600           [339] getglobal  56  25       ; table
22A6  0ECE4A1C           [340] gettable   56  56  299  ; -1513783280
22AA  520E0004           [341] move       57  8      
22AE  930E8000           [342] getupval   58  1      
22B2  224E8001           [343] call       56  3   1  
22B6  190E0100           [344] loadk      56  4        ; 0
22BA  4A0E0004           [345] len        57  8      
22BE  990E0100           [346] loadk      58  4        ; 0
22C2  100E0180           [347] forprep    56  5        ; to [353]
22C6  1D4F0600           [348] getglobal  60  25       ; table
22CA  0E8F461E           [349] gettable   60  60  282  ; -431682403
22CE  520F0003           [350] move       61  6      
22D2  8ECF0E04           [351] gettable   62  8   59 
22D6  224F8001           [352] call       60  3   1  
22DA  144EFE7F           [353] forloop    56  -6       ; to [348] if loop
22DE  1D0F0B00           [354] getglobal  60  44       ; 248503575
22E2  520F8004           [355] move       61  9      
22E6  220F0101           [356] call       60  2   4  
22EA  1A800180           [357] jmp        7            ; to [365]
22EE  5D500600           [358] getglobal  65  25       ; table
22F2  4E90C620           [359] gettable   65  65  282  ; -431682403
22F6  92100003           [360] move       66  6      
22FA  CB900000           [361] newtable   67  0   2    ; array=0, hash=2
22FE  CC109094           [362] settable   67  297 64   ; "Label"
2302  CC104595           [363] settable   67  298 276  ; "Found" 1
2306  62508001           [364] call       65  3   1  
230A  168F0000           [365] tforloop   60      2    ; to [367] if exit
230E  1A80FD7F           [366] jmp        -9           ; to [358]
2312  9E010001           [367] return     6   2      
2316  1E008000           [368] return     0   1      
                         * constants:
231A  31                 sizek (49)
231B  04                 const type 4
231C  08                 string size (8)
231D  72656C6174656400   "related\0"
                         const [0]: "related"
2325  01                 const type 3
2326  29D4002C           const [1]: (738251817)
232A  04                 const type 4
232B  2E                 string size (46)
232C  2F4C6F7475732F54+  "/Lotus/T"
2334  797065732F47616D+  "ypes/Gam"
233C  652F4D697373696F+  "e/Missio"
2344  6E4465636B732F42+  "nDecks/B"
234C  6173654A6F625265+  "aseJobRe"
2354  776172647300       "wards\0"
                         const [2]: "/Lotus/Types/Game/MissionDecks/BaseJobRewards"
235A  04                 const type 4
235B  2B                 string size (43)
235C  2F4C6F7475732F54+  "/Lotus/T"
2364  797065732F426F6F+  "ypes/Boo"
236C  737465725061636B+  "sterPack"
2374  732F52616E646F6D+  "s/Random"
237C  50726F6A65637469+  "Projecti"
2384  6F6E00             "on\0"
                         const [3]: "/Lotus/Types/BoosterPacks/RandomProjection"
2387  03                 const type 3
2388  0000803F           const [4]: (0)
238C  01                 const type 3
238D  65770E40           const [5]: (1074689893)
2391  01                 const type 3
2392  D48E598B           const [6]: (-1957065004)
2396  04                 const type 4
2397  1F                 string size (31)
2398  674D697373696F6E+  "gMission"
23A0  5265776172644974+  "RewardIt"
23A8  656D4D616E696665+  "emManife"
23B0  73745479706500     "stType\0"
                         const [7]: "gMissionRewardItemManifestType"
23B7  01                 const type 3
23B8  BCD6AE9F           const [8]: (-1615931716)
23BC  01                 const type 3
23BD  5720287C           const [9]: (2083004503)
23C1  01                 const type 3
23C2  051E76B0           const [10]: (-1334436347)
23C6  01                 const type 3
23C7  D40BDB05           const [11]: (98241492)
23CB  01                 const type 3
23CC  C688F51B           const [12]: (469076166)
23D0  03                 const type 3
23D1  00000000           const [13]: (0)
23D5  04                 const type 4
23D6  10                 string size (16)
23D7  72616E646F6D697A+  "randomiz"
23DF  65644974656D7300   "edItems\0"
                         const [14]: "randomizedItems"
23E7  01                 const type 3
23E8  652CB3E2           const [15]: (-491574171)
23EC  04                 const type 4
23ED  13                 string size (19)
23EE  656E656D79436163+  "enemyCac"
23F6  68654F7665727269+  "heOverri"
23FE  646500             "de\0"
                         const [16]: "enemyCacheOverride"
2401  04                 const type 4
2402  0D                 string size (13)
2403  726567696F6E4C6F+  "regionLo"
240B  6354616700         "cTag\0"
                         const [17]: "regionLocTag"
2410  00                 const type 0
                         const [18]: nil
2411  04                 const type 4
2412  05                 string size (5)
2413  6E616D6500         "name\0"
                         const [19]: "name"
2418  01                 const type 3
2419  01000000           const [20]: (1)
241D  04                 const type 4
241E  07                 string size (7)
241F  737472696E6700     "string\0"
                         const [21]: "string"
2426  01                 const type 3
2427  2A649C63           const [22]: (1671193642)
242B  04                 const type 4
242C  07                 string size (7)
242D  6C6F6354616700     "locTag\0"
                         const [23]: "locTag"
2434  04                 const type 4
2435  04                 string size (4)
2436  3F3F3F00           "???\0"
                         const [24]: "???"
243A  04                 const type 4
243B  06                 string size (6)
243C  7461626C6500       "table\0"
                         const [25]: "table"
2442  01                 const type 3
2443  9D0C45E6           const [26]: (-431682403)
2447  04                 const type 4
2448  10                 string size (16)
2449  6742617365417661+  "gBaseAva"
2451  7461725479706500   "tarType\0"
                         const [27]: "gBaseAvatarType"
2459  01                 const type 3
245A  1C398D6B           const [28]: (1804417308)
245E  01                 const type 3
245F  E4EA4541           const [29]: (1095101156)
2463  04                 const type 4
2464  05                 string size (5)
2465  7479706500         "type\0"
                         const [30]: "type"
246A  04                 const type 4
246B  0D                 string size (13)
246C  674B65794974656D+  "gKeyItem"
2474  5479706500         "Type\0"
                         const [31]: "gKeyItemType"
2479  01                 const type 3
247A  BBA45D62           const [32]: (1650304187)
247E  01                 const type 3
247F  D2A3C75E           const [33]: (1590141906)
2483  04                 const type 4
2484  01                 string size (0)
                         const [34]: ""
2486  01                 const type 3
2487  3C2E251B           const [35]: (455421500)
248B  04                 const type 4
248C  09                 string size (9)
248D  7265715363616E73+  "reqScans"
2495  00                 "\0"
                         const [36]: "reqScans"
2496  04                 const type 4
2497  12                 string size (18)
2498  674C6F7475734469+  "gLotusDi"
24A0  6F72616D61547970+  "oramaTyp"
24A8  6500               "e\0"
                         const [37]: "gLotusDioramaType"
24AA  03                 const type 3
24AB  00007A44           const [38]: (0)
24AF  01                 const type 3
24B0  98FD7463           const [39]: (1668611480)
24B4  04                 const type 4
24B5  0F                 string size (15)
24B6  6753796E64696361+  "gSyndica"
24BE  74655479706500     "teType\0"
                         const [40]: "gSyndicateType"
24C5  04                 const type 4
24C6  06                 string size (6)
24C7  4C6162656C00       "Label\0"
                         const [41]: "Label"
24CD  04                 const type 4
24CE  06                 string size (6)
24CF  466F756E6400       "Found\0"
                         const [42]: "Found"
24D5  01                 const type 3
24D6  1080C5A5           const [43]: (-1513783280)
24DA  01                 const type 3
24DB  17DDCF0E           const [44]: (248503575)
24DF  01                 const type 3
24E0  8E2E821D           const [45]: (495070862)
24E4  04                 const type 4
24E5  03                 string size (3)
24E6  2C2000             ", \0"
                         const [46]: ", "
24E9  04                 const type 4
24EA  06                 string size (6)
24EB  47726F757000       "Group\0"
                         const [47]: "Group"
24F1  01                 const type 3
24F2  00000000           const [48]: (0)
                         * functions:
24F6  00                 sizep (0)
                         * lines:
24F8  02                 sizelineinfo (368)
                         [pc] (line)
24F9  16                 [001] (22)
24FA  01                 [002] (25)
24FB  00                 [003] (26)
24FC  00                 [004] (27)
24FD  19                 [005] (28)
24FE  01                 [006] (29)
24FF  00                 [007] (31)
2500  00                 [008] (32)
2501  1A                 [009] (33)
2502  01                 [010] (34)
2503  00                 [011] (34)
2504  00                 [012] (34)
2505  1B                 [013] (35)
2506  01                 [014] (35)
2507  00                 [015] (35)
2508  00                 [016] (37)
2509  1C                 [017] (37)
250A  01                 [018] (37)
250B  00                 [019] (37)
250C  00                 [020] (38)
250D  1D                 [021] (39)
250E  01                 [022] (39)
250F  00                 [023] (39)
2510  00                 [024] (39)
2511  1F                 [025] (39)
2512  01                 [026] (39)
2513  00                 [027] (39)
2514  00                 [028] (39)
2515  20                 [029] (39)
2516  01                 [030] (39)
2517  00                 [031] (40)
2518  00                 [032] (40)
2519  21                 [033] (40)
251A  01                 [034] (40)
251B  00                 [035] (40)
251C  00                 [036] (43)
251D  22                 [037] (43)
251E  01                 [038] (43)
251F  00                 [039] (43)
2520  00                 [040] (43)
2521  22                 [041] (43)
2522  01                 [042] (43)
2523  00                 [043] (44)
2524  00                 [044] (44)
2525  22                 [045] (44)
2526  01                 [046] (44)
2527  00                 [047] (44)
2528  00                 [048] (44)
2529  23                 [049] (46)
252A  01                 [050] (46)
252B  00                 [051] (46)
252C  00                 [052] (46)
252D  23                 [053] (47)
252E  01                 [054] (48)
252F  00                 [055] (48)
2530  00                 [056] (48)
2531  23                 [057] (52)
2532  01                 [058] (52)
2533  00                 [059] (52)
2534  00                 [060] (52)
2535  25                 [061] (52)
2536  01                 [062] (53)
2537  00                 [063] (53)
2538  00                 [064] (53)
2539  25                 [065] (53)
253A  01                 [066] (53)
253B  00                 [067] (56)
253C  00                 [068] (56)
253D  25                 [069] (56)
253E  01                 [070] (56)
253F  00                 [071] (56)
2540  00                 [072] (57)
2541  25                 [073] (57)
2542  01                 [074] (57)
2543  00                 [075] (57)
2544  00                 [076] (57)
2545  26                 [077] (60)
2546  01                 [078] (60)
2547  00                 [079] (60)
2548  00                 [080] (60)
2549  27                 [081] (61)
254A  01                 [082] (61)
254B  00                 [083] (61)
254C  00                 [084] (64)
254D  27                 [085] (65)
254E  01                 [086] (65)
254F  00                 [087] (65)
2550  00                 [088] (65)
2551  27                 [089] (65)
2552  01                 [090] (65)
2553  00                 [091] (67)
2554  00                 [092] (67)
2555  27                 [093] (67)
2556  01                 [094] (67)
2557  00                 [095] (68)
2558  00                 [096] (68)
2559  27                 [097] (71)
255A  01                 [098] (71)
255B  00                 [099] (71)
255C  00                 [100] (71)
255D  27                 [101] (71)
255E  01                 [102] (71)
255F  00                 [103] (71)
2560  00                 [104] (71)
2561  27                 [105] (71)
2562  01                 [106] (73)
2563  00                 [107] (76)
2564  00                 [108] (76)
2565  27                 [109] (76)
2566  01                 [110] (76)
2567  00                 [111] (76)
2568  00                 [112] (76)
2569  27                 [113] (46)
256A  01                 [114] (79)
256B  00                 [115] (81)
256C  00                 [116] (81)
256D  27                 [117] (81)
256E  01                 [118] (81)
256F  00                 [119] (81)
2570  00                 [120] (81)
2571  28                 [121] (81)
2572  01                 [122] (81)
2573  00                 [123] (81)
2574  00                 [124] (81)
2575  28                 [125] (81)
2576  01                 [126] (81)
2577  00                 [127] (81)
2578  00                 [128] (82)
2579  28                 [129] (84)
257A  01                 [130] (84)
257B  00                 [131] (84)
257C  00                 [132] (84)
257D  28                 [133] (84)
257E  01                 [134] (85)
257F  00                 [135] (87)
2580  00                 [136] (87)
2581  28                 [137] (87)
2582  01                 [138] (87)
2583  00                 [139] (87)
2584  00                 [140] (88)
2585  2B                 [141] (88)
2586  01                 [142] (88)
2587  00                 [143] (89)
2588  00                 [144] (89)
2589  2B                 [145] (89)
258A  01                 [146] (89)
258B  00                 [147] (89)
258C  00                 [148] (90)
258D  2B                 [149] (90)
258E  01                 [150] (90)
258F  00                 [151] (90)
2590  00                 [152] (92)
2591  2B                 [153] (92)
2592  01                 [154] (93)
2593  00                 [155] (93)
2594  00                 [156] (93)
2595  2B                 [157] (93)
2596  01                 [158] (94)
2597  00                 [159] (95)
2598  00                 [160] (95)
2599  2B                 [161] (95)
259A  01                 [162] (96)
259B  00                 [163] (96)
259C  00                 [164] (96)
259D  2B                 [165] (97)
259E  01                 [166] (97)
259F  00                 [167] (97)
25A0  00                 [168] (97)
25A1  2C                 [169] (98)
25A2  01                 [170] (98)
25A3  00                 [171] (98)
25A4  00                 [172] (101)
25A5  2C                 [173] (102)
25A6  01                 [174] (102)
25A7  00                 [175] (102)
25A8  00                 [176] (102)
25A9  2C                 [177] (102)
25AA  01                 [178] (102)
25AB  00                 [179] (102)
25AC  00                 [180] (102)
25AD  2C                 [181] (102)
25AE  01                 [182] (102)
25AF  00                 [183] (102)
25B0  00                 [184] (104)
25B1  2C                 [185] (104)
25B2  01                 [186] (104)
25B3  00                 [187] (104)
25B4  00                 [188] (105)
25B5  2C                 [189] (105)
25B6  01                 [190] (108)
25B7  00                 [191] (108)
25B8  00                 [192] (108)
25B9  2E                 [193] (108)
25BA  01                 [194] (108)
25BB  00                 [195] (108)
25BC  00                 [196] (108)
25BD  2E                 [197] (108)
25BE  01                 [198] (108)
25BF  00                 [199] (110)
25C0  00                 [200] (113)
25C1  2E                 [201] (113)
25C2  01                 [202] (113)
25C3  00                 [203] (113)
25C4  00                 [204] (113)
25C5  2E                 [205] (113)
25C6  01                 [206] (114)
25C7  00                 [207] (115)
25C8  00                 [208] (93)
25C9  2F                 [209] (122)
25CA  01                 [210] (122)
25CB  00                 [211] (123)
25CC  00                 [212] (123)
25CD  30                 [213] (123)
25CE  01                 [214] (123)
25CF  00                 [215] (124)
25D0  00                 [216] (126)
25D1  30                 [217] (126)
25D2  01                 [218] (126)
25D3  00                 [219] (126)
25D4  00                 [220] (126)
25D5  30                 [221] (126)
25D6  01                 [222] (127)
25D7  00                 [223] (-128)
25D8  00                 [224] (-128)
25D9  34                 [225] (-127)
25DA  01                 [226] (-127)
25DB  00                 [227] (-126)
25DC  00                 [228] (-123)
25DD  34                 [229] (-123)
25DE  01                 [230] (-122)
25DF  00                 [231] (-120)
25E0  00                 [232] (-119)
25E1  34                 [233] (-119)
25E2  01                 [234] (-118)
25E3  00                 [235] (-118)
25E4  00                 [236] (-118)
25E5  34                 [237] (-118)
25E6  01                 [238] (-118)
25E7  00                 [239] (-118)
25E8  00                 [240] (-115)
25E9  34                 [241] (-115)
25EA  01                 [242] (-115)
25EB  00                 [243] (-115)
25EC  00                 [244] (-114)
25ED  35                 [245] (-114)
25EE  01                 [246] (-114)
25EF  00                 [247] (-114)
25F0  00                 [248] (-114)
25F1  35                 [249] (-114)
25F2  01                 [250] (-114)
25F3  00                 [251] (-112)
25F4  00                 [252] (-112)
25F5  35                 [253] (-112)
25F6  01                 [254] (-112)
25F7  00                 [255] (-112)
25F8  00                 [256] (-112)
25F9  35                 [257] (-111)
25FA  01                 [258] (-111)
25FB  00                 [259] (-111)
25FC  00                 [260] (-111)
25FD  35                 [261] (-111)
25FE  01                 [262] (-111)
25FF  00                 [263] (-111)
2600  00                 [264] (-111)
2601  38                 [265] (-109)
2602  01                 [266] (-109)
2603  00                 [267] (-109)
2604  00                 [268] (-109)
2605  38                 [269] (-109)
2606  01                 [270] (-109)
2607  00                 [271] (-109)
2608  00                 [272] (-107)
2609  38                 [273] (-107)
260A  01                 [274] (-107)
260B  00                 [275] (-107)
260C  00                 [276] (-107)
260D  38                 [277] (-107)
260E  01                 [278] (-106)
260F  00                 [279] (37)
2610  00                 [280] (-98)
2611  38                 [281] (-98)
2612  01                 [282] (-97)
2613  00                 [283] (-97)
2614  00                 [284] (-97)
2615  39                 [285] (-97)
2616  01                 [286] (-96)
2617  00                 [287] (-96)
2618  00                 [288] (-96)
2619  39                 [289] (-96)
261A  01                 [290] (-96)
261B  00                 [291] (-97)
261C  00                 [292] (-92)
261D  39                 [293] (-92)
261E  01                 [294] (-92)
261F  00                 [295] (-92)
2620  00                 [296] (-92)
2621  39                 [297] (-90)
2622  01                 [298] (-90)
2623  00                 [299] (-90)
2624  00                 [300] (-90)
2625  39                 [301] (-88)
2626  01                 [302] (-88)
2627  00                 [303] (-88)
2628  00                 [304] (-87)
2629  3C                 [305] (-87)
262A  01                 [306] (-87)
262B  00                 [307] (-87)
262C  00                 [308] (-85)
262D  3C                 [309] (-85)
262E  01                 [310] (-85)
262F  00                 [311] (-85)
2630  00                 [312] (-85)
2631  3C                 [313] (-85)
2632  01                 [314] (-85)
2633  00                 [315] (-84)
2634  00                 [316] (-84)
2635  3C                 [317] (-84)
2636  01                 [318] (-84)
2637  00                 [319] (-84)
2638  00                 [320] (-82)
2639  3D                 [321] (-82)
263A  01                 [322] (-82)
263B  00                 [323] (-82)
263C  00                 [324] (-82)
263D  3D                 [325] (-82)
263E  01                 [326] (-82)
263F  00                 [327] (-82)
2640  00                 [328] (-82)
2641  3D                 [329] (-80)
2642  01                 [330] (-80)
2643  00                 [331] (-80)
2644  00                 [332] (-80)
2645  40                 [333] (-80)
2646  01                 [334] (-80)
2647  00                 [335] (-80)
2648  00                 [336] (-80)
2649  41                 [337] (-90)
264A  01                 [338] (-79)
264B  00                 [339] (-76)
264C  00                 [340] (-76)
264D  41                 [341] (-76)
264E  01                 [342] (-76)
264F  00                 [343] (-76)
2650  00                 [344] (-74)
2651  41                 [345] (-74)
2652  01                 [346] (-74)
2653  00                 [347] (-74)
2654  00                 [348] (-73)
2655  41                 [349] (-73)
2656  01                 [350] (-73)
2657  00                 [351] (-73)
2658  00                 [352] (-73)
2659  41                 [353] (-74)
265A  01                 [354] (-70)
265B  00                 [355] (-70)
265C  00                 [356] (-70)
265D  41                 [357] (-70)
265E  01                 [358] (-69)
265F  00                 [359] (-69)
2660  00                 [360] (-69)
2661  43                 [361] (-69)
2662  01                 [362] (-69)
2663  00                 [363] (-69)
2664  00                 [364] (-69)
2665  43                 [365] (-70)
2666  01                 [366] (-69)
2667  00                 [367] (-66)
2668  00                 [368] (-65)
                         * locals:
2AB9  00                 sizelocvars (0)
                         * upvalues:
2ABA  00                 sizeupvalues (0)
                         ** end of function **

                         
2ABB                     ** function [7] definition (level 2)
                         ** start of function **
2ABB  00                 string size (0)
                         source name: (none)
2ABD  03                 line defined (449)
2ABE  C3                 last line defined (451)
2ABF  03                 nups (1)
2AC0  01                 numparams (6)
2AC1  06                 is_vararg (0)
2AC2  00                 maxstacksize (13)
                         * code:
2AC4  0A                 sizecode (10)
2AC5  93010000           [01] getupval   6   0      
2AC9  D2010000           [02] move       7   0      
2ACD  12028000           [03] move       8   1      
2AD1  52020001           [04] move       9   2      
2AD5  92028001           [05] move       10  3      
2AD9  D2020002           [06] move       11  4      
2ADD  12038002           [07] move       12  5      
2AE1  87018003           [08] tailcall   6   7   0  
2AE5  9E010000           [09] return     6   0      
2AE9  1E008000           [10] return     0   1      
                         * constants:
2AED  00                 sizek (0)
                         * functions:
2AEE  00                 sizep (0)
                         * lines:
2AEF  0A                 sizelineinfo (10)
                         [pc] (line)
2AF0  C2                 [01] (-62)
2AF1  01                 [02] (-62)
2AF2  00                 [03] (-62)
2AF3  00                 [04] (-62)
2AF4  C2                 [05] (-62)
2AF5  01                 [06] (-62)
2AF6  00                 [07] (-62)
2AF7  00                 [08] (-62)
2AF8  C2                 [09] (-62)
2AF9  01                 [10] (-61)
                         * locals:
2B18  00                 sizelocvars (0)
                         * upvalues:
2B19  00                 sizeupvalues (0)
                         ** end of function **

                         
2B1A                     ** function [8] definition (level 2)
                         ** start of function **
2B1A  00                 string size (0)
                         source name: (none)
2B1C  03                 line defined (453)
2B1D  F8                 last line defined (504)
2B1E  03                 nups (2)
2B1F  02                 numparams (8)
2B20  08                 is_vararg (0)
2B21  00                 maxstacksize (27)
                         * code:
2B23  7A                 sizecode (122)
2B24  19020000           [001] loadk      8   0        ; ""
2B28  53020000           [002] getupval   9   0      
2B2C  92020000           [003] move       10  0      
2B30  D2028000           [004] move       11  1      
2B34  12030001           [005] move       12  2      
2B38  52038001           [006] move       13  3      
2B3C  92030002           [007] move       14  4      
2B40  D2038002           [008] move       15  5      
2B44  62828003           [009] call       9   7   2  
2B48  86020005           [010] loadnil    10  10     
fail op	35
2B4C  23404003           [011] close      0  
2B50  1A000080           [012] jmp        1            ; to [14]
2B54  99810000           [013] loadk      6   2        ; "#999999"
fail op	35
2B58  2340C003           [014] close      0  
2B5C  1A000080           [015] jmp        1            ; to [17]
2B60  D9C10000           [016] loadk      7   3        ; "#FFFFFF"
2B64  CA028004           [017] len        11  9      
fail op	35
2B68  2300C105           [018] close      0  
2B6C  1A000380           [019] jmp        13           ; to [33]
2B70  CE424101           [020] gettable   11  2   261  ; "type"
2B74  E482C105           [021] self       11  11  262  ; -1957065004
2B78  5DC30100           [022] getglobal  13  7        ; gVoidProjectionItemType
2B7C  E2828001           [023] call       11  3   2  
2B80  D8020000           [024] test       11      0    ; to [26] if true
2B84  1A001580           [025] jmp        85           ; to [111]
2B88  D2020004           [026] move       11  8      
2B8C  24034200           [027] self       12  0   264  ; 98241492
2B90  99430200           [028] loadk      14  9        ; "/Lotus/Language/PrimeStore/Codex_PrimeVault"
2B94  D7038000           [029] loadbool   15  1   0    ; true
2B98  22830002           [030] call       12  4   2  
2B9C  02028305           [031] concat     8   11  12 
2BA0  1A401380           [032] jmp        78           ; to [111]
2BA4  D9820200           [033] loadk      11  10       ; 0
2BA8  0A038004           [034] len        12  9      
2BAC  59830200           [035] loadk      13  10       ; 0
2BB0  D0021280           [036] forprep    11  73       ; to [110]
2BB4  CE838304           [037] gettable   15  9   14 
2BB8  0EC4C207           [038] gettable   16  15  267  ; "Label"
2BBC  18440000           [039] test       16      1    ; to [41] if false
2BC0  1A000080           [040] jmp        1            ; to [42]
2BC4  19040000           [041] loadk      16  0        ; ""
2BC8  4E04C307           [042] gettable   17  15  268  ; "Group"
2BCC  58440000           [043] test       17      1    ; to [45] if false
2BD0  1A000080           [044] jmp        1            ; to [46]
2BD4  59040000           [045] loadk      17  0        ; ""
fail op	35
2BD8  2300C008           [046] close      0  
2BDC  1A000080           [047] jmp        1            ; to [49]
2BE0  97440000           [048] loadbool   18  0   1    ; false, to [50]
2BE4  97048000           [049] loadbool   18  1   0    ; true
fail op	35
2BE8  23404005           [050] close      0  
2BEC  1A400080           [051] jmp        2            ; to [54]
2BF0  92020009           [052] move       10  18     
2BF4  1A400180           [053] jmp        6            ; to [60]
fail op	35
2BF8  63800405           [054] close      1  
2BFC  1AC00080           [055] jmp        4            ; to [60]
2C00  92020009           [056] move       10  18     
2C04  D2040004           [057] move       19  8      
2C08  19450300           [058] loadk      20  13       ; "<br>"
2C0C  02028509           [059] concat     8   19  20 
2C10  CE84C307           [060] gettable   19  15  270  ; "Found"
2C14  D8440000           [061] test       19      1    ; to [63] if false
2C18  1A000080           [062] jmp        1            ; to [64]
2C1C  19C40300           [063] loadk      16  15       ; "???"
fail op	35
2C20  6300C008           [064] close      1  
2C24  1A400680           [065] jmp        26           ; to [92]
2C28  E404C408           [066] self       19  17  272  ; 1664893510
2C2C  59450400           [067] loadk      21  17       ; "%:"
2C30  99050000           [068] loadk      22  0        ; ""
2C34  E2840002           [069] call       19  4   2  
2C38  52048009           [070] move       17  19     
2C3C  D9840400           [071] loadk      19  18       ; "<font color=\""
2C40  12050003           [072] move       20  6      
2C44  59C50400           [073] loadk      21  19       ; "\">"
2C48  9D050500           [074] getglobal  22  20       ; -764638816
2C4C  D2058008           [075] move       23  17     
2C50  A2850001           [076] call       22  2   2  
2C54  D3058000           [077] getupval   23  1      
2C58  CE45C50B           [078] gettable   23  23  277  ; -132701534
fail op	35
2C5C  63004008           [079] close      1  
2C60  1A000080           [080] jmp        1            ; to [82]
2C64  17460000           [081] loadbool   24  0   1    ; false, to [83]
2C68  17068000           [082] loadbool   24  1   0    ; true
2C6C  59860500           [083] loadk      25  22       ; "</font>"
2C70  99C60500           [084] loadk      26  23       ; ": </font>"
2C74  E2850002           [085] call       23  4   2  
2C78  42C48509           [086] concat     17  19  23 
2C7C  DD040500           [087] getglobal  19  20       ; -764638816
2C80  12050008           [088] move       20  16     
2C84  E2840001           [089] call       19  2   2  
2C88  12048009           [090] move       16  19     
2C8C  1AC00180           [091] jmp        8            ; to [100]
2C90  D9840400           [092] loadk      19  18       ; "<font color=\""
2C94  12050003           [093] move       20  6      
2C98  59C50400           [094] loadk      21  19       ; "\">"
2C9C  9D050500           [095] getglobal  22  20       ; -764638816
2CA0  D2050008           [096] move       23  16     
2CA4  A2850001           [097] call       22  2   2  
2CA8  D9850500           [098] loadk      23  22       ; "</font>"
2CAC  02C48509           [099] concat     16  19  23 
2CB0  D2040004           [100] move       19  8      
2CB4  12058008           [101] move       20  17     
2CB8  52050008           [102] move       21  16     
2CBC  02428509           [103] concat     8   19  21 
2CC0  CA048004           [104] len        19  9      
fail op	35
2CC4  63C00407           [105] close      1  
2CC8  1A800080           [106] jmp        3            ; to [110]
2CCC  D2040004           [107] move       19  8      
2CD0  19450300           [108] loadk      20  13       ; "<br>"
2CD4  02028509           [109] concat     8   19  20 
2CD8  D442ED7F           [110] forloop    11  -74      ; to [37] if loop
2CDC  D9840400           [111] loadk      19  18       ; "<font color=\""
2CE0  12058003           [112] move       20  7      
2CE4  59C50400           [113] loadk      21  19       ; "\">"
2CE8  A4054200           [114] self       22  0   264  ; 98241492
2CEC  19060600           [115] loadk      24  24       ; "/Lotus/Language/Menu/Codex_DropSources"
2CF0  57060000           [116] loadbool   25  0   0    ; false
2CF4  A2850002           [117] call       22  4   2  
2CF8  D9450600           [118] loadk      23  25       ; "</font><br>"
2CFC  12060004           [119] move       24  8      
2D00  02028609           [120] concat     8   19  24 
2D04  1E020001           [121] return     8   2      
2D08  1E008000           [122] return     0   1      
                         * constants:
2D0C  1A                 sizek (26)
2D0D  04                 const type 4
2D0E  01                 string size (0)
                         const [0]: ""
2D10  00                 const type 0
                         const [1]: nil
2D11  04                 const type 4
2D12  08                 string size (8)
2D13  2339393939393900   "#999999\0"
                         const [2]: "#999999"
2D1B  04                 const type 4
2D1C  08                 string size (8)
2D1D  2346464646464600   "#FFFFFF\0"
                         const [3]: "#FFFFFF"
2D25  03                 const type 3
2D26  00000000           const [4]: (0)
2D2A  04                 const type 4
2D2B  05                 string size (5)
2D2C  7479706500         "type\0"
                         const [5]: "type"
2D31  01                 const type 3
2D32  D48E598B           const [6]: (-1957065004)
2D36  04                 const type 4
2D37  18                 string size (24)
2D38  67566F696450726F+  "gVoidPro"
2D40  6A656374696F6E49+  "jectionI"
2D48  74656D5479706500   "temType\0"
                         const [7]: "gVoidProjectionItemType"
2D50  01                 const type 3
2D51  D40BDB05           const [8]: (98241492)
2D55  04                 const type 4
2D56  2C                 string size (44)
2D57  2F4C6F7475732F4C+  "/Lotus/L"
2D5F  616E67756167652F+  "anguage/"
2D67  5072696D6553746F+  "PrimeSto"
2D6F  72652F436F646578+  "re/Codex"
2D77  5F5072696D655661+  "_PrimeVa"
2D7F  756C7400           "ult\0"
                         const [9]: "/Lotus/Language/PrimeStore/Codex_PrimeVault"
2D83  03                 const type 3
2D84  0000803F           const [10]: (0)
2D88  04                 const type 4
2D89  06                 string size (6)
2D8A  4C6162656C00       "Label\0"
                         const [11]: "Label"
2D90  04                 const type 4
2D91  06                 string size (6)
2D92  47726F757000       "Group\0"
                         const [12]: "Group"
2D98  04                 const type 4
2D99  05                 string size (5)
2D9A  3C62723E00         "<br>\0"
                         const [13]: "<br>"
2D9F  04                 const type 4
2DA0  06                 string size (6)
2DA1  466F756E6400       "Found\0"
                         const [14]: "Found"
2DA7  04                 const type 4
2DA8  04                 string size (4)
2DA9  3F3F3F00           "???\0"
                         const [15]: "???"
2DAD  01                 const type 3
2DAE  46423C63           const [16]: (1664893510)
2DB2  04                 const type 4
2DB3  03                 string size (3)
2DB4  253A00             "%:\0"
                         const [17]: "%:"
2DB7  04                 const type 4
2DB8  0E                 string size (14)
2DB9  3C666F6E7420636F+  "<font co"
2DC1  6C6F723D2200       "lor=\"\0"
                         const [18]: "<font color=\""
2DC7  04                 const type 4
2DC8  03                 string size (3)
2DC9  223E00             "\">\0"
                         const [19]: "\">"
2DCC  01                 const type 3
2DCD  A0896CD2           const [20]: (-764638816)
2DD1  01                 const type 3
2DD2  A22217F8           const [21]: (-132701534)
2DD6  04                 const type 4
2DD7  08                 string size (8)
2DD8  3C2F666F6E743E00   "</font>\0"
                         const [22]: "</font>"
2DE0  04                 const type 4
2DE1  0A                 string size (10)
2DE2  3A203C2F666F6E74+  ": </font"
2DEA  3E00               ">\0"
                         const [23]: ": </font>"
2DEC  04                 const type 4
2DED  27                 string size (39)
2DEE  2F4C6F7475732F4C+  "/Lotus/L"
2DF6  616E67756167652F+  "anguage/"
2DFE  4D656E752F436F64+  "Menu/Cod"
2E06  65785F44726F7053+  "ex_DropS"
2E0E  6F757263657300     "ources\0"
                         const [24]: "/Lotus/Language/Menu/Codex_DropSources"
2E15  04                 const type 4
2E16  0C                 string size (12)
2E17  3C2F666F6E743E3C+  "</font><"
2E1F  62723E00           "br>\0"
                         const [25]: "</font><br>"
                         * functions:
2E23  00                 sizep (0)
                         * lines:
2E24  7A                 sizelineinfo (122)
                         [pc] (line)
2E25  C6                 [001] (-58)
2E26  01                 [002] (-57)
2E27  00                 [003] (-57)
2E28  00                 [004] (-57)
2E29  C7                 [005] (-57)
2E2A  01                 [006] (-57)
2E2B  00                 [007] (-57)
2E2C  00                 [008] (-57)
2E2D  C7                 [009] (-57)
2E2E  01                 [010] (-56)
2E2F  00                 [011] (-55)
2E30  00                 [012] (-55)
2E31  C7                 [013] (-54)
2E32  01                 [014] (-52)
2E33  00                 [015] (-52)
2E34  00                 [016] (-51)
2E35  C7                 [017] (-48)
2E36  01                 [018] (-48)
2E37  00                 [019] (-48)
2E38  00                 [020] (-47)
2E39  C7                 [021] (-47)
2E3A  01                 [022] (-47)
2E3B  00                 [023] (-47)
2E3C  00                 [024] (-47)
2E3D  C7                 [025] (-47)
2E3E  01                 [026] (-46)
2E3F  00                 [027] (-46)
2E40  00                 [028] (-46)
2E41  C7                 [029] (-46)
2E42  01                 [030] (-46)
2E43  00                 [031] (-46)
2E44  00                 [032] (-45)
2E45  C7                 [033] (-43)
2E46  01                 [034] (-43)
2E47  00                 [035] (-43)
2E48  00                 [036] (-43)
2E49  C8                 [037] (-42)
2E4A  01                 [038] (-41)
2E4B  00                 [039] (-41)
2E4C  00                 [040] (-41)
2E4D  C9                 [041] (-41)
2E4E  01                 [042] (-40)
2E4F  00                 [043] (-40)
2E50  00                 [044] (-40)
2E51  C9                 [045] (-40)
2E52  01                 [046] (-39)
2E53  00                 [047] (-39)
2E54  00                 [048] (-39)
2E55  CA                 [049] (-39)
2E56  01                 [050] (-37)
2E57  00                 [051] (-37)
2E58  00                 [052] (-36)
2E59  CC                 [053] (-36)
2E5A  01                 [054] (-35)
2E5B  00                 [055] (-35)
2E5C  00                 [056] (-34)
2E5D  CC                 [057] (-33)
2E5E  01                 [058] (-33)
2E5F  00                 [059] (-33)
2E60  00                 [060] (-30)
2E61  CD                 [061] (-30)
2E62  01                 [062] (-30)
2E63  00                 [063] (-29)
2E64  00                 [064] (-26)
2E65  D0                 [065] (-26)
2E66  01                 [066] (-25)
2E67  00                 [067] (-25)
2E68  00                 [068] (-25)
2E69  D0                 [069] (-25)
2E6A  01                 [070] (-25)
2E6B  00                 [071] (-24)
2E6C  00                 [072] (-24)
2E6D  D0                 [073] (-24)
2E6E  01                 [074] (-24)
2E6F  00                 [075] (-24)
2E70  00                 [076] (-24)
2E71  D1                 [077] (-24)
2E72  01                 [078] (-24)
2E73  00                 [079] (-24)
2E74  00                 [080] (-24)
2E75  D1                 [081] (-24)
2E76  01                 [082] (-24)
2E77  00                 [083] (-24)
2E78  00                 [084] (-24)
2E79  D1                 [085] (-24)
2E7A  01                 [086] (-24)
2E7B  00                 [087] (-23)
2E7C  00                 [088] (-23)
2E7D  D1                 [089] (-23)
2E7E  01                 [090] (-23)
2E7F  00                 [091] (-23)
2E80  00                 [092] (-21)
2E81  D1                 [093] (-21)
2E82  01                 [094] (-21)
2E83  00                 [095] (-21)
2E84  00                 [096] (-21)
2E85  D1                 [097] (-21)
2E86  01                 [098] (-21)
2E87  00                 [099] (-21)
2E88  00                 [100] (-19)
2E89  D2                 [101] (-19)
2E8A  01                 [102] (-19)
2E8B  00                 [103] (-19)
2E8C  00                 [104] (-17)
2E8D  D2                 [105] (-17)
2E8E  01                 [106] (-17)
2E8F  00                 [107] (-16)
2E90  00                 [108] (-16)
2E91  D2                 [109] (-16)
2E92  01                 [110] (-43)
2E93  00                 [111] (-11)
2E94  00                 [112] (-11)
2E95  D2                 [113] (-11)
2E96  01                 [114] (-11)
2E97  00                 [115] (-11)
2E98  00                 [116] (-11)
2E99  D2                 [117] (-11)
2E9A  01                 [118] (-11)
2E9B  00                 [119] (-11)
2E9C  00                 [120] (-11)
2E9D  D2                 [121] (-9)
2E9E  01                 [122] (-8)
                         * locals:
300D  00                 sizelocvars (0)
                         * upvalues:
300E  00                 sizeupvalues (0)
                         ** end of function **

                         
300F                     ** function [9] definition (level 2)
                         ** start of function **
300F  00                 string size (0)
                         source name: (none)
3011  03                 line defined (506)
3012  C6                 last line defined (582)
3013  04                 nups (0)
3014  00                 numparams (2)
3015  02                 is_vararg (0)
3016  00                 maxstacksize (53)
                         * code:
3019  01                 sizecode (170)
301A  8B000000           [001] newtable   2   0   0    ; array=0, hash=0
301E  DD000000           [002] getglobal  3   0        ; 738251817
3022  19410000           [003] loadk      4   1        ; "/Lotus/Types/Game/BaseCosmeticEnhancer"
3026  E2800001           [004] call       3   2   2  
302A  0E814000           [005] gettable   4   0   258  ; "mScans"
302E  59C10000           [006] loadk      5   3        ; 0
3032  8A010002           [007] len        6   4      
3036  D9C10000           [008] loadk      7   3        ; 0
303A  50810180           [009] forprep    5   7        ; to [17]
303E  4E020202           [010] gettable   9   4   8  
3042  4E02C104           [011] gettable   9   9   260  ; "type"
3046  6442C104           [012] self       9   9   261  ; 455421500
304A  62820001           [013] call       9   2   2  
304E  8E020202           [014] gettable   10  4   8  
3052  8E824105           [015] gettable   10  10  262  ; "scans"
3056  8C808204           [016] settable   2   9   10 
305A  54C1FD7F           [017] forloop    5   -8       ; to [10] if loop
305E  4EC24100           [018] gettable   9   0   263  ; "mMissions"
3062  99C20000           [019] loadk      10  3        ; 0
3066  CA028004           [020] len        11  9      
306A  19C30000           [021] loadk      12  3        ; 0
306E  90820080           [022] forprep    10  3        ; to [26]
3072  8E438304           [023] gettable   14  9   13 
3076  8E034207           [024] gettable   14  14  264  ; "location"
307A  8CC04007           [025] settable   2   14  259  ; 0
307E  94C2FE7F           [026] forloop    10  -4       ; to [23] if loop
3082  9D430200           [027] getglobal  14  9        ; gGameData
3086  A4834207           [028] self       14  14  266  ; -920570458
308A  A2830001           [029] call       14  2   2  
308E  52020007           [030] move       9   14     
3092  99C30000           [031] loadk      14  3        ; 0
3096  CA038004           [032] len        15  9      
309A  19C40000           [033] loadk      16  3        ; 0
309E  90430980           [034] forprep    14  38       ; to [73]
30A2  8E448404           [035] gettable   18  9   17 
30A6  CEC44209           [036] gettable   19  18  267  ; "mTag"
30AA  E404C309           [037] self       19  19  268  ; 1590141906
30AE  E2840001           [038] call       19  2   2  
fail op	35
30B2  6340C309           [039] close      1  
30B6  1A000080           [040] jmp        1            ; to [42]
30BA  8CC0C009           [041] settable   2   19  259  ; 0
30BE  19C50000           [042] loadk      20  3        ; 0
30C2  4A058000           [043] len        21  1      
30C6  99C50000           [044] loadk      22  3        ; 0
30CA  10450680           [045] forprep    20  26       ; to [72]
30CE  0EC68500           [046] gettable   24  1   23 
30D2  5D860300           [047] getglobal  25  14       ; 469076166
30D6  99C60300           [048] loadk      26  15       ; 0
30DA  62460001           [049] call       25  2   1  
30DE  4E06440C           [050] gettable   25  24  272  ; "name"
fail op	35
30E2  2380840C           [051] close      0  
30E6  1A800480           [052] jmp        19           ; to [72]
30EA  5D460400           [053] getglobal  25  17       ; 1074689893
30EE  8E86440C           [054] gettable   26  24  274  ; "randomizedItems"
30F2  62860001           [055] call       25  2   2  
30F6  58060000           [056] test       25      0    ; to [58] if true
30FA  1AC00080           [057] jmp        4            ; to [62]
30FE  4E86440C           [058] gettable   25  24  274  ; "randomizedItems"
3102  6446C10C           [059] self       25  25  261  ; 455421500
3106  62860001           [060] call       25  2   2  
310A  8CC0C00C           [061] settable   2   25  259  ; 0
310E  5D460400           [062] getglobal  25  17       ; 1074689893
3112  8EC6440C           [063] gettable   26  24  275  ; "enemyCacheOverride"
3116  62860001           [064] call       25  2   2  
311A  58060000           [065] test       25      0    ; to [67] if true
311E  1A400180           [066] jmp        6            ; to [73]
3122  4EC6440C           [067] gettable   25  24  275  ; "enemyCacheOverride"
3126  6446C10C           [068] self       25  25  261  ; 455421500
312A  62860001           [069] call       25  2   2  
312E  8CC0C00C           [070] settable   2   25  259  ; 0
3132  1A000080           [071] jmp        1            ; to [73]
3136  1405F97F           [072] forloop    20  -27      ; to [46] if loop
313A  9403F67F           [073] forloop    14  -39      ; to [35] if loop
313E  5D460200           [074] getglobal  25  9        ; gGameData
3142  6406C50C           [075] self       25  25  276  ; 1865287165
3146  62860001           [076] call       25  2   2  
314A  A446C50C           [077] self       26  25  277  ; -1420923094
314E  A2860001           [078] call       26  2   2  
3152  D9C60000           [079] loadk      27  3        ; 0
3156  0A07000D           [080] len        28  26     
315A  59C70000           [081] loadk      29  3        ; 0
315E  D0460280           [082] forprep    27  10       ; to [93]
3162  CE87070D           [083] gettable   31  26  30 
3166  CE87C50F           [084] gettable   31  31  278  ; "mItemType"
316A  1D480400           [085] getglobal  32  17       ; 1074689893
316E  5208800F           [086] move       33  31     
3172  22880001           [087] call       32  2   2  
3176  18480000           [088] test       32      1    ; to [90] if false
317A  1A800080           [089] jmp        3            ; to [93]
317E  2448C10F           [090] self       32  31  261  ; 455421500
3182  22880001           [091] call       32  2   2  
3186  8CC04510           [092] settable   2   32  279  ; 0
318A  D406FD7F           [093] forloop    27  -11      ; to [83] if loop
318E  2408C60C           [094] self       32  25  280  ; 858389503
3192  22880001           [095] call       32  2   2  
3196  59C80000           [096] loadk      33  3        ; 0
319A  8A080010           [097] len        34  32     
319E  D9C80000           [098] loadk      35  3        ; 0
31A2  50480880           [099] forprep    33  34       ; to [134]
31A6  4E090910           [100] gettable   37  32  36 
31AA  4E89C512           [101] gettable   37  37  278  ; "mItemType"
31AE  9D490400           [102] getglobal  38  17       ; 1074689893
31B2  D2098012           [103] move       39  37     
31B6  A2890001           [104] call       38  2   2  
31BA  98490000           [105] test       38      1    ; to [107] if false
31BE  1A800680           [106] jmp        27           ; to [134]
31C2  A449C612           [107] self       38  37  281  ; -1957065004
31C6  1D8A0600           [108] getglobal  40  26       ; gVoidProjectionItemType
31CA  A2898001           [109] call       38  3   2  
31CE  98090000           [110] test       38      0    ; to [112] if true
31D2  1A400580           [111] jmp        22           ; to [134]
31D6  8E090910           [112] gettable   38  32  36 
31DA  8EC94613           [113] gettable   38  38  283  ; "mItemCount"
fail op	21
31DE  15808987           [114] concat     0   271 38 
31E2  1A400480           [115] jmp        18           ; to [134]
31E6  A449C112           [116] self       38  37  261  ; 455421500
31EA  A2890001           [117] call       38  2   2  
31EE  8CC04513           [118] settable   2   38  279  ; 0
31F2  A409C712           [119] self       38  37  284  ; 1280467243
31F6  A2890001           [120] call       38  2   2  
31FA  DD490400           [121] getglobal  39  17       ; 1074689893
31FE  120A0013           [122] move       40  38     
3202  E2890001           [123] call       39  2   2  
3206  D8490000           [124] test       39      1    ; to [126] if false
320A  1AC00180           [125] jmp        8            ; to [134]
320E  E4494113           [126] self       39  38  261  ; 455421500
3212  E2890001           [127] call       39  2   2  
3216  CEC90901           [128] gettable   39  2   39 
fail op	35
321A  2340C713           [129] close      0  
321E  1A800080           [130] jmp        3            ; to [134]
3222  E4494113           [131] self       39  38  261  ; 455421500
3226  E2890001           [132] call       39  2   2  
322A  8CC0C513           [133] settable   2   39  279  ; 0
322E  5408F77F           [134] forloop    33  -35      ; to [100] if loop
3232  CB098000           [135] newtable   39  1   0    ; array=1, hash=0
3236  248AC70C           [136] self       40  25  286  ; 104901246
323A  228A0001           [137] call       40  2   2  
323E  64CAC70C           [138] self       41  25  287  ; -2049652196
3242  620A0001           [139] call       41  2   0  
3246  DB490000           [140] setlist    39  0   1    ; index 1 to top
324A  1D0A0800           [141] getglobal  40  32       ; 248503575
324E  520A8013           [142] move       41  39     
3252  220A0101           [143] call       40  2   4  
3256  1AC00480           [144] jmp        20           ; to [165]
325A  59CB0000           [145] loadk      45  3        ; 0
325E  8A0B0016           [146] len        46  44     
3262  D9CB0000           [147] loadk      47  3        ; 0
3266  508B0380           [148] forprep    45  15       ; to [164]
326A  4E0C0C16           [149] gettable   49  44  48 
326E  4E8CC518           [150] gettable   49  49  278  ; "mItemType"
3272  9D4C0400           [151] getglobal  50  17       ; 1074689893
3276  D20C8018           [152] move       51  49     
327A  A28C0001           [153] call       50  2   2  
327E  984C0000           [154] test       50      1    ; to [156] if false
3282  1AC00180           [155] jmp        8            ; to [164]
3286  A44CC618           [156] self       50  49  281  ; -1957065004
328A  120D8001           [157] move       52  3      
328E  A28C8001           [158] call       50  3   2  
3292  980C0000           [159] test       50      0    ; to [161] if true
3296  1A800080           [160] jmp        3            ; to [164]
329A  A44CC118           [161] self       50  49  261  ; 455421500
329E  A28C0001           [162] call       50  2   2  
32A2  8CC04519           [163] settable   2   50  279  ; 0
32A6  54CBFB7F           [164] forloop    45  -16      ; to [149] if loop
32AA  168A0000           [165] tforloop   40      2    ; to [167] if exit
32AE  1A40FA7F           [166] jmp        -22          ; to [145]
32B2  920C0001           [167] move       50  2      
32B6  D20C8000           [168] move       51  1      
32BA  9E0C8001           [169] return     50  3      
32BE  1E008000           [170] return     0   1      
                         * constants:
32C2  21                 sizek (33)
32C3  01                 const type 3
32C4  29D4002C           const [0]: (738251817)
32C8  04                 const type 4
32C9  27                 string size (39)
32CA  2F4C6F7475732F54+  "/Lotus/T"
32D2  797065732F47616D+  "ypes/Gam"
32DA  652F42617365436F+  "e/BaseCo"
32E2  736D65746963456E+  "smeticEn"
32EA  68616E63657200     "hancer\0"
                         const [1]: "/Lotus/Types/Game/BaseCosmeticEnhancer"
32F1  04                 const type 4
32F2  07                 string size (7)
32F3  6D5363616E7300     "mScans\0"
                         const [2]: "mScans"
32FA  03                 const type 3
32FB  0000803F           const [3]: (0)
32FF  04                 const type 4
3300  05                 string size (5)
3301  7479706500         "type\0"
                         const [4]: "type"
3306  01                 const type 3
3307  3C2E251B           const [5]: (455421500)
330B  04                 const type 4
330C  06                 string size (6)
330D  7363616E7300       "scans\0"
                         const [6]: "scans"
3313  04                 const type 4
3314  0A                 string size (10)
3315  6D4D697373696F6E+  "mMission"
331D  7300               "s\0"
                         const [7]: "mMissions"
331F  04                 const type 4
3320  09                 string size (9)
3321  6C6F636174696F6E+  "location"
3329  00                 "\0"
                         const [8]: "location"
332A  04                 const type 4
332B  0A                 string size (10)
332C  6747616D65446174+  "gGameDat"
3334  6100               "a\0"
                         const [9]: "gGameData"
3336  01                 const type 3
3337  A63521C9           const [10]: (-920570458)
333B  04                 const type 4
333C  05                 string size (5)
333D  6D54616700         "mTag\0"
                         const [11]: "mTag"
3342  01                 const type 3
3343  D2A3C75E           const [12]: (1590141906)
3347  04                 const type 4
3348  01                 string size (0)
                         const [13]: ""
334A  01                 const type 3
334B  C688F51B           const [14]: (469076166)
334F  03                 const type 3
3350  00000000           const [15]: (0)
3354  04                 const type 4
3355  05                 string size (5)
3356  6E616D6500         "name\0"
                         const [16]: "name"
335B  01                 const type 3
335C  65770E40           const [17]: (1074689893)
3360  04                 const type 4
3361  10                 string size (16)
3362  72616E646F6D697A+  "randomiz"
336A  65644974656D7300   "edItems\0"
                         const [18]: "randomizedItems"
3372  04                 const type 4
3373  13                 string size (19)
3374  656E656D79436163+  "enemyCac"
337C  68654F7665727269+  "heOverri"
3384  646500             "de\0"
                         const [19]: "enemyCacheOverride"
3387  01                 const type 3
3388  FD052E6F           const [20]: (1865287165)
338C  01                 const type 3
338D  2A6F4EAB           const [21]: (-1420923094)
3391  04                 const type 4
3392  0A                 string size (10)
3393  6D4974656D547970+  "mItemTyp"
339B  6500               "e\0"
                         const [22]: "mItemType"
339D  03                 const type 3
339E  00000040           const [23]: (0)
33A2  01                 const type 3
33A3  FFFB2933           const [24]: (858389503)
33A7  01                 const type 3
33A8  D48E598B           const [25]: (-1957065004)
33AC  04                 const type 4
33AD  18                 string size (24)
33AE  67566F696450726F+  "gVoidPro"
33B6  6A656374696F6E49+  "jectionI"
33BE  74656D5479706500   "temType\0"
                         const [26]: "gVoidProjectionItemType"
33C6  04                 const type 4
33C7  0B                 string size (11)
33C8  6D4974656D436F75+  "mItemCou"
33D0  6E7400             "nt\0"
                         const [27]: "mItemCount"
33D3  01                 const type 3
33D4  2B61524C           const [28]: (1280467243)
33D8  00                 const type 0
                         const [29]: nil
33D9  01                 const type 3
33DA  7EAA4006           const [30]: (104901246)
33DE  01                 const type 3
33DF  1CCAD485           const [31]: (-2049652196)
33E3  01                 const type 3
33E4  17DDCF0E           const [32]: (248503575)
                         * functions:
33E8  00                 sizep (0)
                         * lines:
33EA  01                 sizelineinfo (170)
                         [pc] (line)
33EB  FB                 [001] (-5)
33EC  01                 [002] (-4)
33ED  00                 [003] (-4)
33EE  00                 [004] (-4)
33EF  FC                 [005] (-2)
33F0  01                 [006] (-1)
33F1  00                 [007] (-1)
33F2  00                 [008] (-1)
33F3  FC                 [009] (-1)
33F4  01                 [010] (0)
33F5  00                 [011] (0)
33F6  00                 [012] (0)
33F7  FC                 [013] (0)
33F8  01                 [014] (0)
33F9  00                 [015] (0)
33FA  00                 [016] (0)
33FB  FE                 [017] (-1)
33FC  01                 [018] (4)
33FD  00                 [019] (5)
33FE  00                 [020] (5)
33FF  FF                 [021] (5)
3400  01                 [022] (5)
3401  00                 [023] (6)
3402  00                 [024] (6)
3403  FF                 [025] (6)
3404  01                 [026] (5)
3405  00                 [027] (9)
3406  00                 [028] (9)
3407  FF                 [029] (9)
3408  01                 [030] (9)
3409  00                 [031] (10)
340A  00                 [032] (10)
340B  FF                 [033] (10)
340C  01                 [034] (10)
340D  00                 [035] (11)
340E  00                 [036] (12)
340F  00                 [037] (12)
3410  02                 [038] (12)
3411  00                 [039] (13)
3412  00                 [040] (13)
3413  00                 [041] (14)
3414  02                 [042] (18)
3415  00                 [043] (18)
3416  00                 [044] (18)
3417  00                 [045] (18)
3418  02                 [046] (19)
3419  00                 [047] (20)
341A  00                 [048] (20)
341B  00                 [049] (20)
341C  02                 [050] (21)
341D  00                 [051] (21)
341E  00                 [052] (21)
341F  00                 [053] (22)
3420  02                 [054] (22)
3421  00                 [055] (22)
3422  00                 [056] (22)
3423  00                 [057] (22)
3424  02                 [058] (23)
3425  00                 [059] (23)
3426  00                 [060] (23)
3427  00                 [061] (23)
3428  02                 [062] (25)
3429  00                 [063] (25)
342A  00                 [064] (25)
342B  FF                 [065] (25)
342C  01                 [066] (25)
342D  00                 [067] (26)
342E  00                 [068] (26)
342F  04                 [069] (26)
3430  02                 [070] (26)
3431  00                 [071] (28)
3432  00                 [072] (18)
3433  05                 [073] (10)
3434  02                 [074] (34)
3435  00                 [075] (34)
3436  00                 [076] (34)
3437  05                 [077] (36)
3438  02                 [078] (36)
3439  00                 [079] (37)
343A  00                 [080] (37)
343B  05                 [081] (37)
343C  02                 [082] (37)
343D  00                 [083] (38)
343E  00                 [084] (38)
343F  05                 [085] (39)
3440  02                 [086] (39)
3441  00                 [087] (39)
3442  00                 [088] (39)
3443  06                 [089] (39)
3444  02                 [090] (40)
3445  00                 [091] (40)
3446  00                 [092] (40)
3447  06                 [093] (37)
3448  02                 [094] (44)
3449  00                 [095] (44)
344A  00                 [096] (45)
344B  06                 [097] (45)
344C  02                 [098] (45)
344D  00                 [099] (45)
344E  00                 [100] (46)
344F  05                 [101] (46)
3450  02                 [102] (47)
3451  00                 [103] (47)
3452  00                 [104] (47)
3453  09                 [105] (47)
3454  02                 [106] (47)
3455  00                 [107] (47)
3456  00                 [108] (47)
3457  09                 [109] (47)
3458  02                 [110] (47)
3459  00                 [111] (47)
345A  00                 [112] (47)
345B  09                 [113] (47)
345C  02                 [114] (47)
345D  00                 [115] (47)
345E  00                 [116] (48)
345F  09                 [117] (48)
3460  02                 [118] (48)
3461  00                 [119] (49)
3462  00                 [120] (49)
3463  0A                 [121] (50)
3464  02                 [122] (50)
3465  00                 [123] (50)
3466  00                 [124] (50)
3467  0A                 [125] (50)
3468  02                 [126] (50)
3469  00                 [127] (50)
346A  00                 [128] (50)
346B  0A                 [129] (50)
346C  02                 [130] (50)
346D  00                 [131] (54)
346E  00                 [132] (54)
346F  0A                 [133] (54)
3470  02                 [134] (45)
3471  00                 [135] (59)
3472  00                 [136] (59)
3473  0B                 [137] (59)
3474  02                 [138] (59)
3475  00                 [139] (59)
3476  00                 [140] (59)
3477  0C                 [141] (60)
3478  02                 [142] (60)
3479  00                 [143] (60)
347A  00                 [144] (60)
347B  0C                 [145] (61)
347C  02                 [146] (61)
347D  00                 [147] (61)
347E  00                 [148] (61)
347F  0C                 [149] (62)
3480  02                 [150] (62)
3481  00                 [151] (63)
3482  00                 [152] (63)
3483  0D                 [153] (63)
3484  02                 [154] (63)
3485  00                 [155] (63)
3486  00                 [156] (63)
3487  0D                 [157] (63)
3488  02                 [158] (63)
3489  00                 [159] (63)
348A  00                 [160] (63)
348B  0E                 [161] (64)
348C  02                 [162] (64)
348D  00                 [163] (64)
348E  00                 [164] (61)
348F  12                 [165] (60)
3490  02                 [166] (66)
3491  00                 [167] (69)
3492  00                 [168] (69)
3493  12                 [169] (69)
3494  02                 [170] (70)
                         * locals:
3693  00                 sizelocvars (0)
                         * upvalues:
3694  00                 sizeupvalues (0)
                         ** end of function **

                         * lines:
3695  52                 sizelineinfo (82)
                         [pc] (line)
3696  01                 [01] (1)
3697  00                 [02] (1)
3698  00                 [03] (1)
3699  00                 [04] (1)
369A  01                 [05] (1)
369B  00                 [06] (3)
369C  00                 [07] (3)
369D  00                 [08] (3)
369E  01                 [09] (4)
369F  00                 [10] (4)
36A0  00                 [11] (4)
36A1  00                 [12] (6)
36A2  01                 [13] (7)
36A3  00                 [14] (8)
36A4  00                 [15] (9)
36A5  00                 [16] (10)
36A6  01                 [17] (11)
36A7  00                 [18] (12)
36A8  00                 [19] (13)
36A9  00                 [20] (14)
36AA  03                 [21] (15)
36AB  00                 [22] (16)
36AC  00                 [23] (17)
36AD  00                 [24] (18)
36AE  03                 [25] (19)
36AF  00                 [26] (20)
36B0  00                 [27] (22)
36B1  00                 [28] (22)
36B2  03                 [29] (24)
36B3  00                 [30] (25)
36B4  00                 [31] (26)
36B5  00                 [32] (27)
36B6  04                 [33] (28)
36B7  00                 [34] (29)
36B8  00                 [35] (30)
36B9  00                 [36] (31)
36BA  04                 [37] (32)
36BB  00                 [38] (33)
36BC  00                 [39] (34)
36BD  00                 [40] (35)
36BE  04                 [41] (36)
36BF  00                 [42] (38)
36C0  00                 [43] (38)
36C1  00                 [44] (40)
36C2  06                 [45] (41)
36C3  00                 [46] (43)
36C4  00                 [47] (43)
36C5  00                 [48] (69)
36C6  07                 [49] (69)
36C7  00                 [50] (83)
36C8  00                 [51] (83)
36C9  00                 [52] (-6)
36CA  08                 [53] (-6)
36CB  00                 [54] (-6)
36CC  00                 [55] (-6)
36CD  00                 [56] (-6)
36CE  09                 [57] (-6)
36CF  00                 [58] (-6)
36D0  00                 [59] (-6)
36D1  00                 [60] (85)
36D2  0A                 [61] (-2)
36D3  00                 [62] (13)
36D4  00                 [63] (17)
36D5  00                 [64] (17)
36D6  0B                 [65] (17)
36D7  00                 [66] (15)
36D8  00                 [67] (-65)
36D9  00                 [68] (-65)
36DA  0C                 [69] (-65)
36DB  00                 [70] (-61)
36DC  00                 [71] (-61)
36DD  00                 [72] (-61)
36DE  0D                 [73] (-63)
36DF  00                 [74] (-8)
36E0  00                 [75] (-8)
36E1  00                 [76] (-8)
36E2  0E                 [77] (-8)
36E3  00                 [78] (-59)
36E4  00                 [79] (70)
36E5  00                 [80] (70)
36E6  0F                 [81] (-6)
36E7  00                 [82] (70)
                         * locals:
37DE  00                 sizelocvars (0)
                         * upvalues:
37DF  00                 sizeupvalues (0)
                         ** end of function **

37E0                     ** end of chunk **
