1	C:\wlua_dump\path\Lotus\InterfaceFusionTreasureManager.lua
Pos   Hex Data           Description or Code
------------------------------------------------------------------------
0000                     ** source chunk: C:\wlua_dump\path\Lotus\InterfaceFusionTreasureManager.lua
                         ** global header start **
0000  7F                 header signature: ""
0001  00                 version (major:minor hex digits)
0002  00                 format (0=official)
0003  00                 endianness (1=little endian)
0004  00                 size of int (bytes)
0005  00                 size of size_t (bytes)
0006  02                 size of Instruction (bytes)
0007  42                 size of number (bytes)
0008  BE                 integral (1=integral)
4190
                         * number type: single
                         * x86 standard (32-bit, little endian, doubles)
                         ** global header end **
Lotus.Interface.LotusUtilities
EE.Interface.Utilities
Lotus.Interface.StoreItemUtilities
Lotus.Interface.UIUtilities
Lotus.Interface.UIStyleUtilities
/Lotus/Types/Game/Store/ProductsManifest
/Lotus/Types/Items/FusionTreasures/FusionOrnament
/Lotus/Levels/Lore/FusexPreview.level
Name
Icon
SocketIds
ReqTypes
Id
NumCompatItems
ItemInfo
Loader
IsLoading
Parent
TreasureEntity
NumSockets
FilledSockets
InitCameraVector
LoopSound
Min
Max
x
y
ALL
TREASURES
ORNAMENTS
Size
Center
FadeSize
IsInputBlocked
Shutdown
AutoInstall
OnUploadChallengeProgress
OnItemSocketed
OnConfirmSocketItem
Initialize
Update
TreasureFocused
TreasureUnfocused
TreasureSelected
SocketBtnFocused
SocketBtnUnfocused
SocketBtnSelected
onKeyDown_MENU_LTRIGGER2
onKeyDown_MENU_RTRIGGER2
onKeyDown_MENU_RIGHT_Y
onKeyUp_MENU_RIGHT_Y
onKeyDown_MENU_RIGHT_X
onKeyUp_MENU_RIGHT_X
onKeyDown_MENU_MOUSE_Z
onRawInputEvent
onViewportSizeChanged
SortByFocused
SortByUnfocused
SortByPressed
DropDownArrowPressed
DropDownArrowFocused
DropDownArrowUnfocused
CategoryFocused
CategoryUnfocused
CategoryPressed
onKeyDown_MENU_GENERIC2
HideScreenForPlatPurchase
OnGamepadTransition
SupportsThemes
x
mMovie
_root
_xmouse
y
_ymouse
_T
InfoPopup_Data
InfoPopup_Grid
SetSquadOverlayTitle
HideBackground
gRegion
gLotusOperatorAvatarType
gFlashMgr
_T
mMovie
Info
StoreItem
SocketIds
ReqTypes
table
Id
Type
Req
Owned
Count



mMovie
 X 
/Lotus/Language/Menu/FusionTreasuresMgr_MissingReqForAutoInstall
REQ
Lotus_Game
OnItemSocketed
_T
BackgroundMovie
ShowBlockingMessage
2
table
Label
[DEV] Toggle socket btn vis
CallBack
CallOut
MENU_GENERIC1
Type
gGameData
MatchedSockets
StoreItem
/Lotus/Language/Menu/Loadout_Auto_Install
MENU_GENERIC2
/Lotus/Language/Menu/Exit
MENU_CANCEL
_T
mMovie
mMovie
AutoInstall

LoopSound
gFlashMgr
Parent
TreasureEntity
NumSockets
mMovie
SocketBtn
_visible
TreasureInfo
_alpha
TreasureInfo.RotateHint
mSelectedId
Id
Count
mElements
mMovie
TopMenu
_visible
TreasuresList
mItemCount
mItemType
Info
Count
Categories
ALL
TREASURES
table
Type
ORNAMENTS
IsLoading
Loader
UISys
SortMenu
NoTreasuresHint
cameraZoomSound
TreasureEntity
SocketIds
Id
mInstance
table
SocketBtn1
mMovie
UISys
FlashInstance_SMOOTH_STEP
Parent
leadUpEffect
EMPTY_SYMBOL
TreasureEntity
Info
mSockets
installedEffect
EMPTY_SYMBOL
FilledSockets
NumSockets
finalSocketFilledSound
socketFilledSound
mMovie
UISys
FlashInstance_SMOOTH_STEP
_T
BackgroundMovie
ShowBlockingMessage
0
/Lotus/Language/Menu/FusionTreasureMgr_SocketItemFailed
SocketIds
Info
Id
ReqTypes
Type
Count
Req
ItemInfo
Lotus_Game
mItemCount
mItemType
mSockets
mMovie
table
StoreItem
FusionPointValue
Name
RawName
MatchedSockets
gChallengeMgr
gRegion
TREASURE_COMPLETED
gGameData
OnUploadChallengeProgress
TreasureInfo.Name
textHeight
TreasureInfo.Bg
_height
TreasureInfo.Blurer
TreasureInfo.RotateHint
_y
Lotus_Game
Info
Id
OnItemSocketed
_T
BackgroundMovie
ShowBlockingMessage
2
Engine
CI_SELECT
Id
ItemInfo
Id
ItemInfo
NumCompatItems
mMovie
/Lotus/Language/Menu/FusionTreauresMgr_NoItemsForSocket
ITEM
Name
/Lotus/Language/Menu/FusionTreasureMgr_SocketItemConfirm
OnConfirmSocketItem
StoreItem
NumCompatItems
ItemInfo
Id
mMovie
SocketInfo.Icon
Icon
Type
Info
Count
/Lotus/Language/Menu/FusionTreasureMgr_InstallText
/Lotus/Language/Menu/FusionTreasureMgr_RequiresText
SocketInfo.Info.Name.text
ITEM
Name
SocketInfo.Info.Name
textHeight
SocketInfo.Info.Owned
_visible
SocketInfo.Info.Owned.text
/Lotus/Language/Menu/Crafting_Owned_Icon
HOW_MANY
_y
_height
SocketInfo.Info
math
_width
_x
SocketInfo.Bg
SocketInfo.Blurer
SocketInfo.EdgeTop
SocketInfo.EdgeBottom
SocketInfo.EdgeLeft
SocketInfo.EdgeRightTop
SocketInfo.EdgeRightBottom
TreasureEntity
mInstance
Info
SocketBtn
mMovie
_visible
_alpha
gBackgroundRegion
heading
pitch
_x
x
_y
y
Id
SocketInfo
TreasureEntity
FilledSockets
mInstance
Info
SocketBtn
mMovie
undefined
SocketBtn1.duplicateMovieClip
_width
_height
_visible
Id
NumSockets
Type
finalTreasureLoopingSound
LoopSound
TreasuresList
ScrollBar
SortMenu
Categories
mMovie
_visible
_alpha
UISys
FlashInstance_SMOOTH_STEP
mMovie
_visible
Name
FusionPointValue


mMovie
<FUSION_POINTS>
 
TreasureInfo.Name
text
gFlashMgr
mMovie
SelectHint
_visible
table
StoreItem
Loader
UISys
TreasureInfo.Desc
text
LocalizedDesc
TreasureInfo.Separator
_y
TreasureInfo.Name
verticalAlignment
bottom
textHeight
TreasureInfo.Bg
_height
TreasureInfo.Blurer
TreasureInfo.RotateHint
IsLoading
gFlashMgr
gBackgroundRegion
AIPoint
CameraSpot
InitCameraVector
StoreItem
Parent
/Lotus/Interface/Objects/FusionTreasureParentDeco
TreasureEntity
EMPTY_SYMBOL
Info
mSockets
x
y
z
ZERO_ROTATION
Type
Max
math
mMovie
TreasureInfo.RotateHint
_visible
Lotus.Interface.Components.CategorizedGrid
mMovie
TreasuresList.Item
Categories
SortMenu
TreasureSelected
TreasureFocused
TreasureUnfocused
mCategoryMenu
mAlign
LEFT_ALIGNED
mSelectedId
mUseCornerForSelected
mSelectElementsOnFocus
mShowLabels
mSelectedScale
mSortMenu
ElementDimBuffer
ElementWidth
ElementHeight
Width
Height
ScrollBar
mScrollBarHorizontalOffset
mSortMenuHorizontalOffset
mSortMenuVerticalOffset
mScrollAlwaysVisible
mElementClips
.Btn
.Check
.OwnedBg
.NameBg
mTextElementClips
.Name
.Owned
RectangleVisibleRangeMaterial
gridVisRangeRectangle
VisibleRangeMaterial
gridVisRange
TextVisibleRangeMaterial
gridVisRangeText
mClipCreatedCallback
ChangeFocusedState
mOnFocusedCallback
mOnUnfocusedCallback
mOnSelectedCallback
mElementDrawCallback
Name
/Lotus/Language/Menu/SortBy_Name
SortId
NAME
Attribute
/Lotus/Language/Items/FusionBundle
ENDO
/Lotus/Language/Menu/SortBy_TreasureSocketPercent
PERCENT_FILLED
/Lotus/Language/Menu/CategoryAll
Icon
_G
UICategoryIcon_AllOn
Category
ALL
/Lotus/Language/Menu/FusionTreasureMgr_TreasureCategory
UICategoryIcon_FusionTreasuresOn
TREASURES
/Lotus/Language/Menu/FusionTreasureMgr_OrnamentCategory
ornamentIcon
ORNAMENTS
mMovie
Id
mSelectedId
mMovie
IsFocused
IsSelected
ShowInfoPopup
mClipName
mClipName
mMovie
mSelectedId
Id
mClipName
Id
mSelectedId
IsFocused
IsSelected
mMovie
Name
FusionPointValue
Sockets
Name
MatchedSockets
mRowSeparation
mRows
ElementDimBuffer
mMovie
TreasuresList
_y
gridVisRange
Lotus_Game
VISIBILITY_CENTER
VISIBILITY_SIZE
VISIBILITY_FADE_SIZE
gridVisRangeText
gridVisRangeRectangle
Background1
Lotus_Game
UIStyle_Background1
FloatingContent
UIStyle_FloatingContent
Content
UIStyle_Content
BackerHighlight
UIStyle_BackerHighlight
mMovie
gPlayerProfileMgr
_T
SetSquadOverlayTitle
/Lotus/Language/Menu/FusionTreasuresMgr_Title
ShowBackground
gRegion
gLotusOperatorAvatarType
defaultDiorama
gFlashMgr
SelectHint.Label
textColor
SelectHint.Label.text
/Lotus/Language/Menu/FusionTreasureMgr_SelectHint
textWidth
SelectHint.Bg
_color
hintBackerMaterial
_width
NoTreasuresHint
NoTreasuresHint.text
/Lotus/Language/Menu/FusionTreasuresMgr_NoTreasuresHint
TreasureInfo.RotateHint.Label
TreasureInfo.RotateHint.Label.text
Engine
/Lotus/Language/Menu/FusionTreasureMgr_RotateHintController
/Lotus/Language/Menu/FusionTreasureMgr_RotateHint
TreasureInfo.RotateHint.Bg
TreasureInfo.RotateHint
_visible
TreasureInfo.Separator
TreasureInfo.Name
dropShadow_color
TreasureInfo.Desc
verticalAlignment
bottom
TreasureInfo.Bg
_G
UIMaterial_RectangleNoDepth
RectInnerColor
r
g
b
RectEdgeColor
TreasureInfo
_alpha
Blurer
Bg
Info.Separator
Icon
Arrow
ArrowEdgeTop
ArrowEdgeBottom
EdgeLeft
EdgeTop
EdgeBottom
EdgeRightTop
EdgeRightBottom
SocketInfo.
UIMaterial_SmoothEdgeNoDepthTest
SocketInfo
SocketInfo.Info.Owned
SocketInfo.Info.Name
SocketInfo.Bg
SocketInfo.Arrow
Name
_y
SocketInfo.Icon
_x
IsOpenedFromPauseMenu

SocketBtn1
Spinner
Lotus.Interface.Components.ThemedSpinner
EE.Interface.AnchorMgr
ANCHOR_H_RIGHT
ANCHOR_V_BOTTOM
heading
pitch
Parent
InitCameraVector
bank
mMovie
_xmouse
_ymouse
TreasuresList._screenX
TreasuresList._screenY
Width
Height
mMovie
_T
TopMenuOpen
Engine
IsLoading
Loader
TopMenu
_visible
TreasuresList
TreasureInfo
UISys
FlashInstance_SMOOTH_STEP
_alpha
gBackgroundRegion
Parent
x
y
mTargetVal
Min
Max
math
TreasureInfo.RotateHint
FlashInstance_LINEAR
_G
UISound_Focus
mMovie
SocketInfo
_visible
mMovie
SocketInfo
_visible
y
y
x
x
mScrollBar
_G
UISound_Scroll
EN_MOUSE_B0
1
mMovie
mSortMenu
mSortMenu
mSortMenu
mSortMenu
mSortMenu
mSortMenu
mCategoryMenu
mCategoryMenu
mCategoryMenu
mSortMenu
mMovie
AutoInstall

true
true
mMovie
TreasureInfo.RotateHint.text
/Lotus/Language/Menu/FusionTreasureMgr_RotateHintController
/Lotus/Language/Menu/FusionTreasureMgr_RotateHint
                         
0001                     ** function [0] definition (level 1)
                         ** start of function **
0001  00                 string size (0)
                         source name: (none)
0002  00                 line defined (0)
0003  00                 last line defined (0)
0004  00                 nups (0)
0005  00                 numparams (0)
0006  02                 is_vararg (2)
0007  42                 maxstacksize (66)
                         * code:
0009  03                 sizecode (446)
000A  1D000000           [001] getglobal  0   0        ; 849075268
000E  59400000           [002] loadk      1   1        ; "Lotus.Interface.LotusUtilities"
0012  22800001           [003] call       0   2   2  
0016  5D000000           [004] getglobal  1   0        ; 849075268
001A  99800000           [005] loadk      2   2        ; "EE.Interface.Utilities"
001E  62800001           [006] call       1   2   2  
0022  9D000000           [007] getglobal  2   0        ; 849075268
0026  D9C00000           [008] loadk      3   3        ; "Lotus.Interface.StoreItemUtilities"
002A  A2800001           [009] call       2   2   2  
002E  DD000000           [010] getglobal  3   0        ; 849075268
0032  19010100           [011] loadk      4   4        ; "Lotus.Interface.UIUtilities"
0036  E2800001           [012] call       3   2   2  
003A  1D010000           [013] getglobal  4   0        ; 849075268
003E  59410100           [014] loadk      5   5        ; "Lotus.Interface.UIStyleUtilities"
0042  22810001           [015] call       4   2   2  
0046  5D810100           [016] getglobal  5   6        ; 2083004503
004A  99C10100           [017] loadk      6   7        ; "/Lotus/Types/Game/Store/ProductsManifest"
004E  62810001           [018] call       5   2   2  
0052  9D010200           [019] getglobal  6   8        ; 738251817
0056  D9410200           [020] loadk      7   9        ; "/Lotus/Types/Items/FusionTreasures/FusionOrnament"
005A  A2810001           [021] call       6   2   2  
005E  DD010200           [022] getglobal  7   8        ; 738251817
0062  19820200           [023] loadk      8   10       ; "/Lotus/Levels/Lore/FusexPreview.level"
0066  E2810001           [024] call       7   2   2  
006A  17028000           [025] loadbool   8   1   0    ; true
006E  46020005           [026] loadnil    9   10     
0072  CB020000           [027] newtable   11  0   0    ; array=0, hash=0
0076  19C30200           [028] loadk      12  11       ; 0
007A  46038006           [029] loadnil    13  13     
007E  8B830000           [030] newtable   14  0   2    ; array=0, hash=2
0082  8C434386           [031] settable   14  268 269  ; "Name" 0
0086  8C434387           [032] settable   14  270 269  ; "Icon" 0
008A  D7030000           [033] loadbool   15  0   0    ; false
008E  0B840000           [034] newtable   16  0   2    ; array=0, hash=2
0092  4B040000           [035] newtable   17  0   0    ; array=0, hash=0
0096  0C448487           [036] settable   16  271 17   ; "SocketIds"
009A  4B040000           [037] newtable   17  0   0    ; array=0, hash=0
009E  0C440488           [038] settable   16  272 17   ; "ReqTypes"
00A2  4BC40000           [039] newtable   17  0   3    ; array=0, hash=3
00A6  4C84C488           [040] settable   17  273 274  ; "Id" nil
00AA  4C44C389           [041] settable   17  275 269  ; "NumCompatItems" 0
00AE  4C84448A           [042] settable   17  276 274  ; "ItemInfo" nil
00B2  8B840000           [043] newtable   18  0   2    ; array=0, hash=2
00B6  8C84C48A           [044] settable   18  277 274  ; "Loader" nil
00BA  8CC4458B           [045] settable   18  278 279  ; "IsLoading" 0
00BE  CB040200           [046] newtable   19  0   8    ; array=0, hash=8
00C2  CC84C48A           [047] settable   19  277 274  ; "Loader" nil
00C6  CCC4458B           [048] settable   19  278 279  ; "IsLoading" 0
00CA  CC84448C           [049] settable   19  280 274  ; "Parent" nil
00CE  CC84C48C           [050] settable   19  281 274  ; "TreasureEntity" nil
00D2  CC44438D           [051] settable   19  282 269  ; "NumSockets" 0
00D6  CC44C38D           [052] settable   19  283 269  ; "FilledSockets" 0
00DA  1D450700           [053] getglobal  20  29       ; 572299008
00DE  22858000           [054] call       20  1   2  
00E2  CC04058E           [055] settable   19  284 20   ; "InitCameraVector"
00E6  CC84448F           [056] settable   19  286 274  ; "LoopSound" nil
00EA  0605000A           [057] loadnil    20  20     
00EE  57050000           [058] loadbool   21  0   0    ; false
00F2  97050000           [059] loadbool   22  0   0    ; false
00F6  D7050000           [060] loadbool   23  0   0    ; false
00FA  17060000           [061] loadbool   24  0   0    ; false
00FE  57060000           [062] loadbool   25  0   0    ; false
0102  97060000           [063] loadbool   26  0   0    ; false
0106  CB060000           [064] newtable   27  0   0    ; array=0, hash=0
010A  0607000E           [065] loadnil    28  28     
010E  57070000           [066] loadbool   29  0   0    ; false
0112  97070000           [067] loadbool   30  0   0    ; false
0116  C607800F           [068] loadnil    31  31     
011A  19C80700           [069] loadk      32  31       ; 0
011E  46088010           [070] loadnil    33  33     
0122  99480300           [071] loadk      34  13       ; 0
0126  DD080800           [072] getglobal  35  32       ; 1892953090
012A  19490300           [073] loadk      36  13       ; 0
012E  59490800           [074] loadk      37  33       ; -102
0132  E2888001           [075] call       35  3   2  
0136  1D090800           [076] getglobal  36  32       ; 1892953090
013A  59490300           [077] loadk      37  13       ; 0
013E  99490800           [078] loadk      38  33       ; -102
0142  22898001           [079] call       36  3   2  
0146  5D890800           [080] getglobal  37  34       ; 508519041
014A  62898000           [081] call       37  1   2  
014E  8B890000           [082] newtable   38  0   2    ; array=0, hash=2
0152  8C09C991           [083] settable   38  291 292  ; "Min" 0
0156  8C89C992           [084] settable   38  293 294  ; "Max" 0
015A  CB890000           [085] newtable   39  0   2    ; array=0, hash=2
015E  CC49C393           [086] settable   39  295 269  ; "x" 0
0162  CC494394           [087] settable   39  296 269  ; "y" 0
0166  0B8A0000           [088] newtable   40  0   2    ; array=0, hash=2
016A  0C4AC393           [089] settable   40  295 269  ; "x" 0
016E  0C4A4394           [090] settable   40  296 269  ; "y" 0
0172  594A0300           [091] loadk      41  13       ; 0
0176  8BCA0000           [092] newtable   42  0   3    ; array=0, hash=3
017A  8C4AC394           [093] settable   42  297 269  ; "ALL" 0
017E  8CCA4795           [094] settable   42  298 287  ; "TREASURES" 0
0182  8C0ACB95           [095] settable   42  299 300  ; "ORNAMENTS" 0
0186  CBCA0000           [096] newtable   43  0   3    ; array=0, hash=3
018A  CC8ACB96           [097] settable   43  301 302  ; "Size" 0
018E  CC4AC397           [098] settable   43  303 269  ; "Center" 0
0192  CC4A4C98           [099] settable   43  304 305  ; "FadeSize" -51
0196  060B8018           [100] loadnil    44  49     
019A  A50C0000           [101] closure    50  0      
019E  12000004           [102] move       0   8      
01A2  A08C0C00           [103] setglobal  50  50       ; IsInputBlocked
01A6  A0CC0C00           [104] setglobal  50  51       ; 1877468992
01AA  A54C0000           [105] closure    50  1      
01AE  E58C0000           [106] closure    51  2      
01B2  1200800B           [107] move       0   23     
01B6  E00C0D00           [108] setglobal  51  52       ; Shutdown
01BA  E04C0D00           [109] setglobal  51  53       ; 1012367267
01BE  E5CC0000           [110] closure    51  3      
01C2  1200000C           [111] move       0   24     
01C6  12008006           [112] move       0   13     
01CA  12000016           [113] move       0   44     
01CE  250D0100           [114] closure    52  4      
01D2  1200800A           [115] move       0   21     
01D6  654D0100           [116] closure    53  5      
01DA  12008006           [117] move       0   13     
01DE  12000008           [118] move       0   16     
01E2  1200800D           [119] move       0   27     
01E6  12008002           [120] move       0   5      
01EA  12008000           [121] move       0   1      
01EE  1200000F           [122] move       0   30     
01F2  1200000B           [123] move       0   22     
01F6  12000004           [124] move       0   8      
01FA  12008007           [125] move       0   15     
01FE  12008004           [126] move       0   9      
0202  608D0D00           [127] setglobal  53  54       ; AutoInstall
0206  60CD0D00           [128] setglobal  53  55       ; -489757404
020A  658D0100           [129] closure    53  6      
020E  1200800E           [130] move       0   29     
0212  12008006           [131] move       0   13     
0216  1200001A           [132] move       0   52     
021A  12000003           [133] move       0   6      
021E  12008019           [134] move       0   51     
0222  25CB0100           [135] closure    44  7      
0226  12008009           [136] move       0   19     
022A  12008006           [137] move       0   13     
022E  12008008           [138] move       0   17     
0232  650B0200           [139] closure    45  8      
0236  1200000E           [140] move       0   28     
023A  1200800D           [141] move       0   27     
023E  A54D0200           [142] closure    54  9      
0242  1200800D           [143] move       0   27     
0246  12008004           [144] move       0   9      
024A  12000001           [145] move       0   2      
024E  12008002           [146] move       0   5      
0252  12000015           [147] move       0   42     
0256  12000003           [148] move       0   6      
025A  1200000A           [149] move       0   20     
025E  12000009           [150] move       0   18     
0262  E58D0200           [151] closure    55  10     
0266  12008007           [152] move       0   15     
026A  12008010           [153] move       0   33     
026E  12008009           [154] move       0   19     
0272  12000011           [155] move       0   34     
0276  12000010           [156] move       0   32     
027A  12008000           [157] move       0   1      
027E  12000008           [158] move       0   16     
0282  12008008           [159] move       0   17     
0286  12008006           [160] move       0   13     
028A  12008018           [161] move       0   49     
028E  12000004           [162] move       0   8      
0292  25CE0200           [163] closure    56  11     
0296  200E0E00           [164] setglobal  56  56       ; OnUploadChallengeProgress
029A  204E0E00           [165] setglobal  56  57       ; -1433398551
029E  250E0300           [166] closure    56  12     
02A2  12008000           [167] move       0   1      
02A6  12008007           [168] move       0   15     
02AA  12000008           [169] move       0   16     
02AE  12008006           [170] move       0   13     
02B2  12008008           [171] move       0   17     
02B6  12000004           [172] move       0   8      
02BA  1200801B           [173] move       0   55     
02BE  1200800D           [174] move       0   27     
02C2  12000001           [175] move       0   2      
02C6  12008002           [176] move       0   5      
02CA  12008016           [177] move       0   45     
02CE  12000000           [178] move       0   0      
02D2  12008017           [179] move       0   47     
02D6  1200801A           [180] move       0   53     
02DA  208E0E00           [181] setglobal  56  58       ; OnItemSocketed
02DE  20CE0E00           [182] setglobal  56  59       ; 1881483721
02E2  254E0300           [183] closure    56  13     
02E6  12000004           [184] move       0   8      
02EA  12008006           [185] move       0   13     
02EE  12008008           [186] move       0   17     
02F2  12008004           [187] move       0   9      
02F6  658E0300           [188] closure    57  14     
02FA  12008006           [189] move       0   13     
02FE  12008008           [190] move       0   17     
0302  1200000B           [191] move       0   22     
0306  1200001C           [192] move       0   56     
030A  600E0F00           [193] setglobal  57  60       ; OnConfirmSocketItem
030E  604E0F00           [194] setglobal  57  61       ; 1666985937
0312  65CE0300           [195] closure    57  15     
0316  12008006           [196] move       0   13     
031A  12008008           [197] move       0   17     
031E  12008000           [198] move       0   1      
0322  1200000B           [199] move       0   22     
0326  1200001C           [200] move       0   56     
032A  A50E0400           [201] closure    58  16     
032E  12008006           [202] move       0   13     
0332  12008008           [203] move       0   17     
0336  12008002           [204] move       0   5      
033A  12000001           [205] move       0   2      
033E  1200800D           [206] move       0   27     
0342  12008000           [207] move       0   1      
0346  12000007           [208] move       0   14     
034A  E54E0400           [209] closure    59  17     
034E  12008009           [210] move       0   19     
0352  1200800F           [211] move       0   31     
0356  12008000           [212] move       0   1      
035A  1200800A           [213] move       0   21     
035E  12008006           [214] move       0   13     
0362  12008008           [215] move       0   17     
0366  658C0400           [216] closure    49  18     
036A  12008006           [217] move       0   13     
036E  12008009           [218] move       0   19     
0372  12000003           [219] move       0   6      
0376  12008000           [220] move       0   1      
037A  A5CB0400           [221] closure    46  19     
037E  12008000           [222] move       0   1      
0382  E50B0500           [223] closure    47  20     
0386  12008006           [224] move       0   13     
038A  12008000           [225] move       0   1      
038E  254F0500           [226] closure    60  21     
0392  12000004           [227] move       0   8      
0396  1200000C           [228] move       0   24     
039A  12008006           [229] move       0   13     
039E  12000016           [230] move       0   44     
03A2  12008003           [231] move       0   7      
03A6  12008009           [232] move       0   19     
03AA  1200000A           [233] move       0   20     
03AE  12008017           [234] move       0   47     
03B2  1200801A           [235] move       0   53     
03B6  658F0500           [236] closure    61  22     
03BA  12008003           [237] move       0   7      
03BE  12008006           [238] move       0   13     
03C2  1200800F           [239] move       0   31     
03C6  12008009           [240] move       0   19     
03CA  12008014           [241] move       0   41     
03CE  12000003           [242] move       0   6      
03D2  12000013           [243] move       0   38     
03D6  12000012           [244] move       0   36     
03DA  12008011           [245] move       0   35     
03DE  12008012           [246] move       0   37     
03E2  12008018           [247] move       0   49     
03E6  12000018           [248] move       0   48     
03EA  A5CF0500           [249] closure    62  23     
03EE  1200000E           [250] move       0   28     
03F2  12008000           [251] move       0   1      
03F6  12008001           [252] move       0   3      
03FA  1200001E           [253] move       0   60     
03FE  12000015           [254] move       0   42     
0402  1200001B           [255] move       0   54     
0406  E50F0600           [256] closure    63  24     
040A  1200000E           [257] move       0   28     
040E  12008000           [258] move       0   1      
0412  25500600           [259] closure    64  25     
0416  12008005           [260] move       0   11     
041A  12000002           [261] move       0   4      
041E  12008004           [262] move       0   9      
0422  12008015           [263] move       0   43     
0426  1200800B           [264] move       0   23     
042A  1200000C           [265] move       0   24     
042E  12008000           [266] move       0   1      
0432  12000007           [267] move       0   14     
0436  1200000D           [268] move       0   26     
043A  1200000A           [269] move       0   20     
043E  12000005           [270] move       0   10     
0442  1200001F           [271] move       0   62     
0446  1200801F           [272] move       0   63     
044A  1200801A           [273] move       0   53     
044E  12000004           [274] move       0   8      
0452  20900F00           [275] setglobal  64  62       ; Initialize
0456  20D00F00           [276] setglobal  64  63       ; 1650753590
045A  258C0600           [277] closure    48  26     
045E  12000012           [278] move       0   36     
0462  12008011           [279] move       0   35     
0466  12008012           [280] move       0   37     
046A  12008009           [281] move       0   19     
046E  12008010           [282] move       0   33     
0472  12000011           [283] move       0   34     
0476  12000010           [284] move       0   32     
047A  1200800F           [285] move       0   31     
047E  12008014           [286] move       0   41     
0482  25D00600           [287] closure    64  27     
0486  1200000E           [288] move       0   28     
048A  65100700           [289] closure    65  28     
048E  1200000D           [290] move       0   26     
0492  1200800C           [291] move       0   25     
0496  12008006           [292] move       0   13     
049A  12000020           [293] move       0   64     
049E  1200000A           [294] move       0   20     
04A2  12000009           [295] move       0   18     
04A6  12008016           [296] move       0   45     
04AA  12008009           [297] move       0   19     
04AE  1200801A           [298] move       0   53     
04B2  12008000           [299] move       0   1      
04B6  12000004           [300] move       0   8      
04BA  1200801E           [301] move       0   61     
04BE  12000019           [302] move       0   50     
04C2  1200000F           [303] move       0   30     
04C6  1200800F           [304] move       0   31     
04CA  12008013           [305] move       0   39     
04CE  12000014           [306] move       0   40     
04D2  12000012           [307] move       0   36     
04D6  12008011           [308] move       0   35     
04DA  12000013           [309] move       0   38     
04DE  12000006           [310] move       0   12     
04E2  12000018           [311] move       0   48     
04E6  1200801D           [312] move       0   59     
04EA  60101000           [313] setglobal  65  64       ; Update
04EE  60501000           [314] setglobal  65  65       ; -1938777623
04F2  65500700           [315] closure    65  29     
04F6  1200000E           [316] move       0   28     
04FA  60901000           [317] setglobal  65  66       ; TreasureFocused
04FE  60D01000           [318] setglobal  65  67       ; -757054710
0502  65900700           [319] closure    65  30     
0506  1200000E           [320] move       0   28     
050A  60101100           [321] setglobal  65  68       ; TreasureUnfocused
050E  60501100           [322] setglobal  65  69       ; 503126412
0512  65D00700           [323] closure    65  31     
0516  12000004           [324] move       0   8      
051A  1200000E           [325] move       0   28     
051E  60901100           [326] setglobal  65  70       ; TreasureSelected
0522  60D01100           [327] setglobal  65  71       ; 800886409
0526  65100800           [328] closure    65  32     
052A  1200001D           [329] move       0   58     
052E  12008000           [330] move       0   1      
0532  60101200           [331] setglobal  65  72       ; SocketBtnFocused
0536  60501200           [332] setglobal  65  73       ; -2116338572
053A  65500800           [333] closure    65  33     
053E  60901200           [334] setglobal  65  74       ; SocketBtnUnfocused
0542  60D01200           [335] setglobal  65  75       ; -479069116
0546  65900800           [336] closure    65  34     
054A  12000004           [337] move       0   8      
054E  1200801C           [338] move       0   57     
0552  60101300           [339] setglobal  65  76       ; SocketBtnSelected
0556  60501300           [340] setglobal  65  77       ; -1378696406
055A  65D00800           [341] closure    65  35     
055E  12000004           [342] move       0   8      
0562  1200000E           [343] move       0   28     
0566  12008006           [344] move       0   13     
056A  60901300           [345] setglobal  65  78       ; onKeyDown_MENU_LTRIGGER2
056E  60D01300           [346] setglobal  65  79       ; -1680304416
0572  65100900           [347] closure    65  36     
0576  12000004           [348] move       0   8      
057A  1200000E           [349] move       0   28     
057E  12008006           [350] move       0   13     
0582  60101400           [351] setglobal  65  80       ; onKeyDown_MENU_RTRIGGER2
0586  60501400           [352] setglobal  65  81       ; 266665867
058A  65500900           [353] closure    65  37     
058E  12000014           [354] move       0   40     
0592  60901400           [355] setglobal  65  82       ; onKeyDown_MENU_RIGHT_Y
0596  60D01400           [356] setglobal  65  83       ; -1986829795
059A  65900900           [357] closure    65  38     
059E  12000014           [358] move       0   40     
05A2  60101500           [359] setglobal  65  84       ; onKeyUp_MENU_RIGHT_Y
05A6  60501500           [360] setglobal  65  85       ; 11707322
05AA  65D00900           [361] closure    65  39     
05AE  12000014           [362] move       0   40     
05B2  60901500           [363] setglobal  65  86       ; onKeyDown_MENU_RIGHT_X
05B6  60D01500           [364] setglobal  65  87       ; 109066814
05BA  65100A00           [365] closure    65  40     
05BE  12000014           [366] move       0   40     
05C2  60101600           [367] setglobal  65  88       ; onKeyUp_MENU_RIGHT_X
05C6  60501600           [368] setglobal  65  89       ; -1509066575
05CA  65500A00           [369] closure    65  41     
05CE  1200000E           [370] move       0   28     
05D2  12000004           [371] move       0   8      
05D6  60901600           [372] setglobal  65  90       ; onKeyDown_MENU_MOUSE_Z
05DA  60D01600           [373] setglobal  65  91       ; 1458230185
05DE  65900A00           [374] closure    65  42     
05E2  1200000F           [375] move       0   30     
05E6  12008013           [376] move       0   39     
05EA  12000019           [377] move       0   50     
05EE  60101700           [378] setglobal  65  92       ; onRawInputEvent
05F2  60501700           [379] setglobal  65  93       ; 290863379
05F6  65D00A00           [380] closure    65  43     
05FA  12000005           [381] move       0   10     
05FE  1200801F           [382] move       0   63     
0602  60901700           [383] setglobal  65  94       ; onViewportSizeChanged
0606  60D01700           [384] setglobal  65  95       ; 982516775
060A  65100B00           [385] closure    65  44     
060E  1200000E           [386] move       0   28     
0612  12008006           [387] move       0   13     
0616  60101800           [388] setglobal  65  96       ; SortByFocused
061A  60501800           [389] setglobal  65  97       ; 604238641
061E  65500B00           [390] closure    65  45     
0622  1200000E           [391] move       0   28     
0626  12008006           [392] move       0   13     
062A  60901800           [393] setglobal  65  98       ; SortByUnfocused
062E  60D01800           [394] setglobal  65  99       ; 60649754
0632  65900B00           [395] closure    65  46     
0636  12000004           [396] move       0   8      
063A  1200000E           [397] move       0   28     
063E  12008006           [398] move       0   13     
0642  60101900           [399] setglobal  65  100      ; SortByPressed
0646  60501900           [400] setglobal  65  101      ; 109189841
064A  65D00B00           [401] closure    65  47     
064E  1200000E           [402] move       0   28     
0652  12008006           [403] move       0   13     
0656  60901900           [404] setglobal  65  102      ; DropDownArrowPressed
065A  60D01900           [405] setglobal  65  103      ; -638410724
065E  65100C00           [406] closure    65  48     
0662  1200000E           [407] move       0   28     
0666  12008006           [408] move       0   13     
066A  60101A00           [409] setglobal  65  104      ; DropDownArrowFocused
066E  60501A00           [410] setglobal  65  105      ; -444630295
0672  65500C00           [411] closure    65  49     
0676  1200000E           [412] move       0   28     
067A  12008006           [413] move       0   13     
067E  60901A00           [414] setglobal  65  106      ; DropDownArrowUnfocused
0682  60D01A00           [415] setglobal  65  107      ; 1374571077
0686  65900C00           [416] closure    65  50     
068A  1200000E           [417] move       0   28     
068E  60101B00           [418] setglobal  65  108      ; CategoryFocused
0692  60501B00           [419] setglobal  65  109      ; -1361401222
0696  65D00C00           [420] closure    65  51     
069A  1200000E           [421] move       0   28     
069E  60901B00           [422] setglobal  65  110      ; CategoryUnfocused
06A2  60D01B00           [423] setglobal  65  111      ; 2069135662
06A6  65100D00           [424] closure    65  52     
06AA  12000004           [425] move       0   8      
06AE  1200000E           [426] move       0   28     
06B2  60101C00           [427] setglobal  65  112      ; CategoryPressed
06B6  60501C00           [428] setglobal  65  113      ; 926026066
06BA  65500D00           [429] closure    65  53     
06BE  1200000E           [430] move       0   28     
06C2  12008006           [431] move       0   13     
06C6  1200800E           [432] move       0   29     
06CA  60901C00           [433] setglobal  65  114      ; onKeyDown_MENU_GENERIC2
06CE  60D01C00           [434] setglobal  65  115      ; 602154840
06D2  65900D00           [435] closure    65  54     
06D6  1200800C           [436] move       0   25     
06DA  60101D00           [437] setglobal  65  116      ; HideScreenForPlatPurchase
06DE  60501D00           [438] setglobal  65  117      ; 1245620893
06E2  65D00D00           [439] closure    65  55     
06E6  12008000           [440] move       0   1      
06EA  60901D00           [441] setglobal  65  118      ; OnGamepadTransition
06EE  60D01D00           [442] setglobal  65  119      ; -1729825229
06F2  65100E00           [443] closure    65  56     
06F6  60101E00           [444] setglobal  65  120      ; SupportsThemes
06FA  60501E00           [445] setglobal  65  121      ; -605602914
06FE  1E008000           [446] return     0   1      
                         * constants:
0702  7A                 sizek (122)
0703  01                 const type 3
0704  44DC9B32           const [0]: (849075268)
0708  04                 const type 4
0709  1F                 string size (31)
070A  4C6F7475732E496E+  "Lotus.In"
0712  746572666163652E+  "terface."
071A  4C6F747573557469+  "LotusUti"
0722  6C697469657300     "lities\0"
                         const [1]: "Lotus.Interface.LotusUtilities"
0729  04                 const type 4
072A  17                 string size (23)
072B  45452E496E746572+  "EE.Inter"
0733  666163652E557469+  "face.Uti"
073B  6C697469657300     "lities\0"
                         const [2]: "EE.Interface.Utilities"
0742  04                 const type 4
0743  23                 string size (35)
0744  4C6F7475732E496E+  "Lotus.In"
074C  746572666163652E+  "terface."
0754  53746F7265497465+  "StoreIte"
075C  6D5574696C697469+  "mUtiliti"
0764  657300             "es\0"
                         const [3]: "Lotus.Interface.StoreItemUtilities"
0767  04                 const type 4
0768  1C                 string size (28)
0769  4C6F7475732E496E+  "Lotus.In"
0771  746572666163652E+  "terface."
0779  55495574696C6974+  "UIUtilit"
0781  69657300           "ies\0"
                         const [4]: "Lotus.Interface.UIUtilities"
0785  04                 const type 4
0786  21                 string size (33)
0787  4C6F7475732E496E+  "Lotus.In"
078F  746572666163652E+  "terface."
0797  55495374796C6555+  "UIStyleU"
079F  74696C6974696573+  "tilities"
07A7  00                 "\0"
                         const [5]: "Lotus.Interface.UIStyleUtilities"
07A8  01                 const type 3
07A9  5720287C           const [6]: (2083004503)
07AD  04                 const type 4
07AE  29                 string size (41)
07AF  2F4C6F7475732F54+  "/Lotus/T"
07B7  797065732F47616D+  "ypes/Gam"
07BF  652F53746F72652F+  "e/Store/"
07C7  50726F6475637473+  "Products"
07CF  4D616E6966657374+  "Manifest"
07D7  00                 "\0"
                         const [7]: "/Lotus/Types/Game/Store/ProductsManifest"
07D8  01                 const type 3
07D9  29D4002C           const [8]: (738251817)
07DD  04                 const type 4
07DE  32                 string size (50)
07DF  2F4C6F7475732F54+  "/Lotus/T"
07E7  797065732F497465+  "ypes/Ite"
07EF  6D732F467573696F+  "ms/Fusio"
07F7  6E54726561737572+  "nTreasur"
07FF  65732F467573696F+  "es/Fusio"
0807  6E4F726E616D656E+  "nOrnamen"
080F  7400               "t\0"
                         const [9]: "/Lotus/Types/Items/FusionTreasures/FusionOrnament"
0811  04                 const type 4
0812  26                 string size (38)
0813  2F4C6F7475732F4C+  "/Lotus/L"
081B  6576656C732F4C6F+  "evels/Lo"
0823  72652F4675736578+  "re/Fusex"
082B  507265766965772E+  "Preview."
0833  6C6576656C00       "level\0"
                         const [10]: "/Lotus/Levels/Lore/FusexPreview.level"
0839  03                 const type 3
083A  00004842           const [11]: (0)
083E  04                 const type 4
083F  05                 string size (5)
0840  4E616D6500         "Name\0"
                         const [12]: "Name"
0845  03                 const type 3
0846  00000000           const [13]: (0)
084A  04                 const type 4
084B  05                 string size (5)
084C  49636F6E00         "Icon\0"
                         const [14]: "Icon"
0851  04                 const type 4
0852  0A                 string size (10)
0853  536F636B65744964+  "SocketId"
085B  7300               "s\0"
                         const [15]: "SocketIds"
085D  04                 const type 4
085E  09                 string size (9)
085F  5265715479706573+  "ReqTypes"
0867  00                 "\0"
                         const [16]: "ReqTypes"
0868  04                 const type 4
0869  03                 string size (3)
086A  496400             "Id\0"
                         const [17]: "Id"
086D  00                 const type 0
                         const [18]: nil
086E  04                 const type 4
086F  0F                 string size (15)
0870  4E756D436F6D7061+  "NumCompa"
0878  744974656D7300     "tItems\0"
                         const [19]: "NumCompatItems"
087F  04                 const type 4
0880  09                 string size (9)
0881  4974656D496E666F+  "ItemInfo"
0889  00                 "\0"
                         const [20]: "ItemInfo"
088A  04                 const type 4
088B  07                 string size (7)
088C  4C6F6164657200     "Loader\0"
                         const [21]: "Loader"
0893  04                 const type 4
0894  0A                 string size (10)
0895  49734C6F6164696E+  "IsLoadin"
089D  6700               "g\0"
                         const [22]: "IsLoading"
089F  01                 const type 3
08A0  00000000           const [23]: (0)
08A4  04                 const type 4
08A5  07                 string size (7)
08A6  506172656E7400     "Parent\0"
                         const [24]: "Parent"
08AD  04                 const type 4
08AE  0F                 string size (15)
08AF  5472656173757265+  "Treasure"
08B7  456E7469747900     "Entity\0"
                         const [25]: "TreasureEntity"
08BE  04                 const type 4
08BF  0B                 string size (11)
08C0  4E756D536F636B65+  "NumSocke"
08C8  747300             "ts\0"
                         const [26]: "NumSockets"
08CB  04                 const type 4
08CC  0E                 string size (14)
08CD  46696C6C6564536F+  "FilledSo"
08D5  636B65747300       "ckets\0"
                         const [27]: "FilledSockets"
08DB  04                 const type 4
08DC  11                 string size (17)
08DD  496E697443616D65+  "InitCame"
08E5  7261566563746F72+  "raVector"
08ED  00                 "\0"
                         const [28]: "InitCameraVector"
08EE  01                 const type 3
08EF  00971C22           const [29]: (572299008)
08F3  04                 const type 4
08F4  0A                 string size (10)
08F5  4C6F6F70536F756E+  "LoopSoun"
08FD  6400               "d\0"
                         const [30]: "LoopSound"
08FF  03                 const type 3
0900  0000803F           const [31]: (0)
0904  01                 const type 3
0905  022CD470           const [32]: (1892953090)
0909  03                 const type 3
090A  9A99193E           const [33]: (-102)
090E  01                 const type 3
090F  81624F1E           const [34]: (508519041)
0913  04                 const type 4
0914  04                 string size (4)
0915  4D696E00           "Min\0"
                         const [35]: "Min"
0919  03                 const type 3
091A  00008CC2           const [36]: (0)
091E  04                 const type 4
091F  04                 string size (4)
0920  4D617800           "Max\0"
                         const [37]: "Max"
0924  03                 const type 3
0925  00000041           const [38]: (0)
0929  04                 const type 4
092A  02                 string size (2)
092B  7800               "x\0"
                         const [39]: "x"
092D  04                 const type 4
092E  02                 string size (2)
092F  7900               "y\0"
                         const [40]: "y"
0931  04                 const type 4
0932  04                 string size (4)
0933  414C4C00           "ALL\0"
                         const [41]: "ALL"
0937  04                 const type 4
0938  0A                 string size (10)
0939  5452454153555245+  "TREASURE"
0941  5300               "S\0"
                         const [42]: "TREASURES"
0943  04                 const type 4
0944  0A                 string size (10)
0945  4F524E414D454E54+  "ORNAMENT"
094D  5300               "S\0"
                         const [43]: "ORNAMENTS"
094F  03                 const type 3
0950  00000040           const [44]: (0)
0954  04                 const type 4
0955  05                 string size (5)
0956  53697A6500         "Size\0"
                         const [45]: "Size"
095B  03                 const type 3
095C  0000003F           const [46]: (0)
0960  04                 const type 4
0961  07                 string size (7)
0962  43656E74657200     "Center\0"
                         const [47]: "Center"
0969  04                 const type 4
096A  09                 string size (9)
096B  4661646553697A65+  "FadeSize"
0973  00                 "\0"
                         const [48]: "FadeSize"
0974  03                 const type 3
0975  CDCC4C3E           const [49]: (-51)
0979  04                 const type 4
097A  0F                 string size (15)
097B  4973496E70757442+  "IsInputB"
0983  6C6F636B656400     "locked\0"
                         const [50]: "IsInputBlocked"
098A  01                 const type 3
098B  40E7E76F           const [51]: (1877468992)
098F  04                 const type 4
0990  09                 string size (9)
0991  53687574646F776E+  "Shutdown"
0999  00                 "\0"
                         const [52]: "Shutdown"
099A  01                 const type 3
099B  A37F573C           const [53]: (1012367267)
099F  04                 const type 4
09A0  0C                 string size (12)
09A1  4175746F496E7374+  "AutoInst"
09A9  616C6C00           "all\0"
                         const [54]: "AutoInstall"
09AD  01                 const type 3
09AE  24E5CEE2           const [55]: (-489757404)
09B2  04                 const type 4
09B3  1A                 string size (26)
09B4  4F6E55706C6F6164+  "OnUpload"
09BC  4368616C6C656E67+  "Challeng"
09C4  6550726F67726573+  "eProgres"
09CC  7300               "s\0"
                         const [56]: "OnUploadChallengeProgress"
09CE  01                 const type 3
09CF  E91290AA           const [57]: (-1433398551)
09D3  04                 const type 4
09D4  0F                 string size (15)
09D5  4F6E4974656D536F+  "OnItemSo"
09DD  636B6574656400     "cketed\0"
                         const [58]: "OnItemSocketed"
09E4  01                 const type 3
09E5  C9292570           const [59]: (1881483721)
09E9  04                 const type 4
09EA  14                 string size (20)
09EB  4F6E436F6E666972+  "OnConfir"
09F3  6D536F636B657449+  "mSocketI"
09FB  74656D00           "tem\0"
                         const [60]: "OnConfirmSocketItem"
09FF  01                 const type 3
0A00  D12F5C63           const [61]: (1666985937)
0A04  04                 const type 4
0A05  0B                 string size (11)
0A06  496E697469616C69+  "Initiali"
0A0E  7A6500             "ze\0"
                         const [62]: "Initialize"
0A11  01                 const type 3
0A12  36806462           const [63]: (1650753590)
0A16  04                 const type 4
0A17  07                 string size (7)
0A18  55706461746500     "Update\0"
                         const [64]: "Update"
0A1F  01                 const type 3
0A20  E999708C           const [65]: (-1938777623)
0A24  04                 const type 4
0A25  10                 string size (16)
0A26  5472656173757265+  "Treasure"
0A2E  466F637573656400   "Focused\0"
                         const [66]: "TreasureFocused"
0A36  01                 const type 3
0A37  0A43E0D2           const [67]: (-757054710)
0A3B  04                 const type 4
0A3C  12                 string size (18)
0A3D  5472656173757265+  "Treasure"
0A45  556E666F63757365+  "Unfocuse"
0A4D  6400               "d\0"
                         const [68]: "TreasureUnfocused"
0A4F  01                 const type 3
0A50  8C19FD1D           const [69]: (503126412)
0A54  04                 const type 4
0A55  11                 string size (17)
0A56  5472656173757265+  "Treasure"
0A5E  53656C6563746564+  "Selected"
0A66  00                 "\0"
                         const [70]: "TreasureSelected"
0A67  01                 const type 3
0A68  898EBC2F           const [71]: (800886409)
0A6C  04                 const type 4
0A6D  11                 string size (17)
0A6E  536F636B65744274+  "SocketBt"
0A76  6E466F6375736564+  "nFocused"
0A7E  00                 "\0"
                         const [72]: "SocketBtnFocused"
0A7F  01                 const type 3
0A80  743CDB81           const [73]: (-2116338572)
0A84  04                 const type 4
0A85  13                 string size (19)
0A86  536F636B65744274+  "SocketBt"
0A8E  6E556E666F637573+  "nUnfocus"
0A96  656400             "ed\0"
                         const [74]: "SocketBtnUnfocused"
0A99  01                 const type 3
0A9A  44FC71E3           const [75]: (-479069116)
0A9E  04                 const type 4
0A9F  12                 string size (18)
0AA0  536F636B65744274+  "SocketBt"
0AA8  6E53656C65637465+  "nSelecte"
0AB0  6400               "d\0"
                         const [76]: "SocketBtnSelected"
0AB2  01                 const type 3
0AB3  2AC3D2AD           const [77]: (-1378696406)
0AB7  04                 const type 4
0AB8  19                 string size (25)
0AB9  6F6E4B6579446F77+  "onKeyDow"
0AC1  6E5F4D454E555F4C+  "n_MENU_L"
0AC9  5452494747455232+  "TRIGGER2"
0AD1  00                 "\0"
                         const [78]: "onKeyDown_MENU_LTRIGGER2"
0AD2  01                 const type 3
0AD3  E096D89B           const [79]: (-1680304416)
0AD7  04                 const type 4
0AD8  19                 string size (25)
0AD9  6F6E4B6579446F77+  "onKeyDow"
0AE1  6E5F4D454E555F52+  "n_MENU_R"
0AE9  5452494747455232+  "TRIGGER2"
0AF1  00                 "\0"
                         const [80]: "onKeyDown_MENU_RTRIGGER2"
0AF2  01                 const type 3
0AF3  8BFFE40F           const [81]: (266665867)
0AF7  04                 const type 4
0AF8  17                 string size (23)
0AF9  6F6E4B6579446F77+  "onKeyDow"
0B01  6E5F4D454E555F52+  "n_MENU_R"
0B09  494748545F5900     "IGHT_Y\0"
                         const [82]: "onKeyDown_MENU_RIGHT_Y"
0B10  01                 const type 3
0B11  1D629389           const [83]: (-1986829795)
0B15  04                 const type 4
0B16  15                 string size (21)
0B17  6F6E4B657955705F+  "onKeyUp_"
0B1F  4D454E555F524947+  "MENU_RIG"
0B27  48545F5900         "HT_Y\0"
                         const [84]: "onKeyUp_MENU_RIGHT_Y"
0B2C  01                 const type 3
0B2D  BAA3B200           const [85]: (11707322)
0B31  04                 const type 4
0B32  17                 string size (23)
0B33  6F6E4B6579446F77+  "onKeyDow"
0B3B  6E5F4D454E555F52+  "n_MENU_R"
0B43  494748545F5800     "IGHT_X\0"
                         const [86]: "onKeyDown_MENU_RIGHT_X"
0B4A  01                 const type 3
0B4B  3E3A8006           const [87]: (109066814)
0B4F  04                 const type 4
0B50  15                 string size (21)
0B51  6F6E4B657955705F+  "onKeyUp_"
0B59  4D454E555F524947+  "MENU_RIG"
0B61  48545F5800         "HT_X\0"
                         const [88]: "onKeyUp_MENU_RIGHT_X"
0B66  01                 const type 3
0B67  B1780DA6           const [89]: (-1509066575)
0B6B  04                 const type 4
0B6C  17                 string size (23)
0B6D  6F6E4B6579446F77+  "onKeyDow"
0B75  6E5F4D454E555F4D+  "n_MENU_M"
0B7D  4F5553455F5A00     "OUSE_Z\0"
                         const [90]: "onKeyDown_MENU_MOUSE_Z"
0B84  01                 const type 3
0B85  A9D3EA56           const [91]: (1458230185)
0B89  04                 const type 4
0B8A  10                 string size (16)
0B8B  6F6E526177496E70+  "onRawInp"
0B93  75744576656E7400   "utEvent\0"
                         const [92]: "onRawInputEvent"
0B9B  01                 const type 3
0B9C  13395611           const [93]: (290863379)
0BA0  04                 const type 4
0BA1  16                 string size (22)
0BA2  6F6E56696577706F+  "onViewpo"
0BAA  727453697A654368+  "rtSizeCh"
0BB2  616E67656400       "anged\0"
                         const [94]: "onViewportSizeChanged"
0BB8  01                 const type 3
0BB9  2704903A           const [95]: (982516775)
0BBD  04                 const type 4
0BBE  0E                 string size (14)
0BBF  536F72744279466F+  "SortByFo"
0BC7  637573656400       "cused\0"
                         const [96]: "SortByFocused"
0BCD  01                 const type 3
0BCE  31F30324           const [97]: (604238641)
0BD2  04                 const type 4
0BD3  10                 string size (16)
0BD4  536F72744279556E+  "SortByUn"
0BDC  666F637573656400   "focused\0"
                         const [98]: "SortByUnfocused"
0BE4  01                 const type 3
0BE5  1A719D03           const [99]: (60649754)
0BE9  04                 const type 4
0BEA  0E                 string size (14)
0BEB  536F727442795072+  "SortByPr"
0BF3  657373656400       "essed\0"
                         const [100]: "SortByPressed"
0BF9  01                 const type 3
0BFA  D11A8206           const [101]: (109189841)
0BFE  04                 const type 4
0BFF  15                 string size (21)
0C00  44726F70446F776E+  "DropDown"
0C08  4172726F77507265+  "ArrowPre"
0C10  7373656400         "ssed\0"
                         const [102]: "DropDownArrowPressed"
0C15  01                 const type 3
0C16  1CA0F2D9           const [103]: (-638410724)
0C1A  04                 const type 4
0C1B  15                 string size (21)
0C1C  44726F70446F776E+  "DropDown"
0C24  4172726F77466F63+  "ArrowFoc"
0C2C  7573656400         "used\0"
                         const [104]: "DropDownArrowFocused"
0C31  01                 const type 3
0C32  E97A7FE5           const [105]: (-444630295)
0C36  04                 const type 4
0C37  17                 string size (23)
0C38  44726F70446F776E+  "DropDown"
0C40  4172726F77556E66+  "ArrowUnf"
0C48  6F637573656400     "ocused\0"
                         const [106]: "DropDownArrowUnfocused"
0C4F  01                 const type 3
0C50  454AEE51           const [107]: (1374571077)
0C54  04                 const type 4
0C55  10                 string size (16)
0C56  43617465676F7279+  "Category"
0C5E  466F637573656400   "Focused\0"
                         const [108]: "CategoryFocused"
0C66  01                 const type 3
0C67  7AAADAAE           const [109]: (-1361401222)
0C6B  04                 const type 4
0C6C  12                 string size (18)
0C6D  43617465676F7279+  "Category"
0C75  556E666F63757365+  "Unfocuse"
0C7D  6400               "d\0"
                         const [110]: "CategoryUnfocused"
0C7F  01                 const type 3
0C80  2E81547B           const [111]: (2069135662)
0C84  04                 const type 4
0C85  10                 string size (16)
0C86  43617465676F7279+  "Category"
0C8E  5072657373656400   "Pressed\0"
                         const [112]: "CategoryPressed"
0C96  01                 const type 3
0C97  52093237           const [113]: (926026066)
0C9B  04                 const type 4
0C9C  18                 string size (24)
0C9D  6F6E4B6579446F77+  "onKeyDow"
0CA5  6E5F4D454E555F47+  "n_MENU_G"
0CAD  454E455249433200   "ENERIC2\0"
                         const [114]: "onKeyDown_MENU_GENERIC2"
0CB5  01                 const type 3
0CB6  5827E423           const [115]: (602154840)
0CBA  04                 const type 4
0CBB  1A                 string size (26)
0CBC  4869646553637265+  "HideScre"
0CC4  656E466F72506C61+  "enForPla"
0CCC  7450757263686173+  "tPurchas"
0CD4  6500               "e\0"
                         const [116]: "HideScreenForPlatPurchase"
0CD6  01                 const type 3
0CD7  9DAA3E4A           const [117]: (1245620893)
0CDB  04                 const type 4
0CDC  14                 string size (20)
0CDD  4F6E47616D657061+  "OnGamepa"
0CE5  645472616E736974+  "dTransit"
0CED  696F6E00           "ion\0"
                         const [118]: "OnGamepadTransition"
0CF1  01                 const type 3
0CF2  33F6E498           const [119]: (-1729825229)
0CF6  04                 const type 4
0CF7  0F                 string size (15)
0CF8  537570706F727473+  "Supports"
0D00  5468656D657300     "Themes\0"
                         const [120]: "SupportsThemes"
0D07  01                 const type 3
0D08  9E3BE7DB           const [121]: (-605602914)
                         * functions:
0D0C  39                 sizep (57)
                         
0D0D                     ** function [0] definition (level 2)
                         ** start of function **
0D0D  00                 string size (0)
                         source name: (none)
0D0E  51                 line defined (81)
0D0F  53                 last line defined (83)
0D10  01                 nups (1)
0D11  00                 numparams (0)
0D12  00                 is_vararg (0)
0D13  02                 maxstacksize (2)
                         * code:
0D14  03                 sizecode (3)
0D15  13000000           [1] getupval   0   0      
0D19  1E000001           [2] return     0   2      
0D1D  1E008000           [3] return     0   1      
                         * constants:
0D21  00                 sizek (0)
                         * functions:
0D22  00                 sizep (0)
                         * lines:
0D23  03                 sizelineinfo (3)
                         [pc] (line)
0D24  52                 [1] (82)
0D25  00                 [2] (82)
0D26  00                 [3] (83)
                         * locals:
0D30  00                 sizelocvars (0)
                         * upvalues:
0D31  00                 sizeupvalues (0)
                         ** end of function **

                         
0D32                     ** function [1] definition (level 2)
                         ** start of function **
0D32  00                 string size (0)
                         source name: (none)
0D33  55                 line defined (85)
0D34  57                 last line defined (87)
0D35  00                 nups (0)
0D36  00                 numparams (0)
0D37  00                 is_vararg (0)
0D38  06                 maxstacksize (6)
                         * code:
0D39  13                 sizecode (19)
0D3A  0B800000           [01] newtable   0   0   2    ; array=0, hash=2
0D3E  5D400000           [02] getglobal  1   1        ; -174740002
0D42  9D800000           [03] getglobal  2   2        ; mMovie
0D46  A4C04001           [04] self       2   2   259  ; 1803241227
0D4A  19010100           [05] loadk      4   4        ; "_root"
0D4E  59410100           [06] loadk      5   5        ; "_xmouse"
0D52  A2000002           [07] call       2   4   0  
0D56  62800000           [08] call       1   0   2  
0D5A  0C400080           [09] settable   0   256 1    ; "x"
0D5E  5D400000           [10] getglobal  1   1        ; -174740002
0D62  9D800000           [11] getglobal  2   2        ; mMovie
0D66  A4C04001           [12] self       2   2   259  ; 1803241227
0D6A  19010100           [13] loadk      4   4        ; "_root"
0D6E  59C10100           [14] loadk      5   7        ; "_ymouse"
0D72  A2000002           [15] call       2   4   0  
0D76  62800000           [16] call       1   0   2  
0D7A  0C400083           [17] settable   0   262 1    ; "y"
0D7E  1E000001           [18] return     0   2      
0D82  1E008000           [19] return     0   1      
                         * constants:
0D86  08                 sizek (8)
0D87  04                 const type 4
0D88  02                 string size (2)
0D89  7800               "x\0"
                         const [0]: "x"
0D8B  01                 const type 3
0D8C  DEAD95F5           const [1]: (-174740002)
0D90  04                 const type 4
0D91  07                 string size (7)
0D92  6D4D6F76696500     "mMovie\0"
                         const [2]: "mMovie"
0D99  01                 const type 3
0D9A  0B477B6B           const [3]: (1803241227)
0D9E  04                 const type 4
0D9F  06                 string size (6)
0DA0  5F726F6F7400       "_root\0"
                         const [4]: "_root"
0DA6  04                 const type 4
0DA7  08                 string size (8)
0DA8  5F786D6F75736500   "_xmouse\0"
                         const [5]: "_xmouse"
0DB0  04                 const type 4
0DB1  02                 string size (2)
0DB2  7900               "y\0"
                         const [6]: "y"
0DB4  04                 const type 4
0DB5  08                 string size (8)
0DB6  5F796D6F75736500   "_ymouse\0"
                         const [7]: "_ymouse"
                         * functions:
0DBE  00                 sizep (0)
                         * lines:
0DBF  13                 sizelineinfo (19)
                         [pc] (line)
0DC0  56                 [01] (86)
0DC1  00                 [02] (86)
0DC2  00                 [03] (86)
0DC3  00                 [04] (86)
0DC4  56                 [05] (86)
0DC5  00                 [06] (86)
0DC6  00                 [07] (86)
0DC7  00                 [08] (86)
0DC8  56                 [09] (86)
0DC9  00                 [10] (86)
0DCA  00                 [11] (86)
0DCB  00                 [12] (86)
0DCC  56                 [13] (86)
0DCD  00                 [14] (86)
0DCE  00                 [15] (86)
0DCF  00                 [16] (86)
0DD0  56                 [17] (86)
0DD1  00                 [18] (86)
0DD2  00                 [19] (87)
                         * locals:
0E0C  00                 sizelocvars (0)
                         * upvalues:
0E0D  00                 sizeupvalues (0)
                         ** end of function **

                         
0E0E                     ** function [2] definition (level 2)
                         ** start of function **
0E0E  00                 string size (0)
                         source name: (none)
0E0F  59                 line defined (89)
0E10  69                 last line defined (105)
0E11  01                 nups (1)
0E12  00                 numparams (0)
0E13  00                 is_vararg (0)
0E14  04                 maxstacksize (4)
                         * code:
0E15  2A                 sizecode (42)
0E16  1D000000           [01] getglobal  0   0        ; _T
0E1A  0C80C080           [02] settable   0   257 258  ; "InfoPopup_Data" nil
0E1E  1D000000           [03] getglobal  0   0        ; _T
0E22  0C80C081           [04] settable   0   259 258  ; "InfoPopup_Grid" nil
0E26  1D000100           [05] getglobal  0   4        ; 1074689893
0E2A  5D000000           [06] getglobal  1   0        ; _T
0E2E  4E40C100           [07] gettable   1   1   261  ; "SetSquadOverlayTitle"
0E32  22800001           [08] call       0   2   2  
0E36  18400000           [09] test       0       1    ; to [11] if false
0E3A  1A800080           [10] jmp        3            ; to [14]
0E3E  1D000000           [11] getglobal  0   0        ; _T
0E42  0E804100           [12] gettable   0   0   262  ; 1453523133
0E46  22408000           [13] call       0   1   1  
0E4A  1D000100           [14] getglobal  0   4        ; 1074689893
0E4E  5D000000           [15] getglobal  1   0        ; _T
0E52  4EC0C100           [16] gettable   1   1   263  ; "HideBackground"
0E56  22800001           [17] call       0   2   2  
0E5A  18400000           [18] test       0       1    ; to [20] if false
0E5E  1A800080           [19] jmp        3            ; to [23]
0E62  1D000000           [20] getglobal  0   0        ; _T
0E66  0E004200           [21] gettable   0   0   264  ; -1873712487
0E6A  22408000           [22] call       0   1   1  
0E6E  1D400200           [23] getglobal  0   9        ; gRegion
0E72  24804200           [24] self       0   0   266  ; 65205951
0E76  22800001           [25] call       0   2   2  
0E7A  53000000           [26] getupval   1   0      
0E7E  58000000           [27] test       1       0    ; to [29] if true
0E82  1A000380           [28] jmp        13           ; to [42]
0E86  5D000100           [29] getglobal  1   4        ; 1074689893
0E8A  92000000           [30] move       2   0      
0E8E  62800001           [31] call       1   2   2  
0E92  58400000           [32] test       1       1    ; to [34] if false
0E96  1AC00180           [33] jmp        8            ; to [42]
0E9A  64C04200           [34] self       1   0   267  ; -1957065004
0E9E  DD000300           [35] getglobal  3   12       ; gLotusOperatorAvatarType
0EA2  62808001           [36] call       1   3   2  
0EA6  58400000           [37] test       1       1    ; to [39] if false
0EAA  1A800080           [38] jmp        3            ; to [42]
0EAE  64404300           [39] self       1   0   269  ; 615408335
0EB2  D7008000           [40] loadbool   3   1   0    ; true
0EB6  62408001           [41] call       1   3   1  
0EBA  1E008000           [42] return     0   1      
                         * constants:
0EBE  0E                 sizek (14)
0EBF  04                 const type 4
0EC0  03                 string size (3)
0EC1  5F5400             "_T\0"
                         const [0]: "_T"
0EC4  04                 const type 4
0EC5  0F                 string size (15)
0EC6  496E666F506F7075+  "InfoPopu"
0ECE  705F4461746100     "p_Data\0"
                         const [1]: "InfoPopup_Data"
0ED5  00                 const type 0
                         const [2]: nil
0ED6  04                 const type 4
0ED7  0F                 string size (15)
0ED8  496E666F506F7075+  "InfoPopu"
0EE0  705F4772696400     "p_Grid\0"
                         const [3]: "InfoPopup_Grid"
0EE7  01                 const type 3
0EE8  65770E40           const [4]: (1074689893)
0EEC  04                 const type 4
0EED  15                 string size (21)
0EEE  5365745371756164+  "SetSquad"
0EF6  4F7665726C617954+  "OverlayT"
0EFE  69746C6500         "itle\0"
                         const [5]: "SetSquadOverlayTitle"
0F03  01                 const type 3
0F04  BD00A356           const [6]: (1453523133)
0F08  04                 const type 4
0F09  0F                 string size (15)
0F0A  486964654261636B+  "HideBack"
0F12  67726F756E6400     "ground\0"
                         const [7]: "HideBackground"
0F19  01                 const type 3
0F1A  996A5190           const [8]: (-1873712487)
0F1E  04                 const type 4
0F1F  08                 string size (8)
0F20  67526567696F6E00   "gRegion\0"
                         const [9]: "gRegion"
0F28  01                 const type 3
0F29  BFF6E203           const [10]: (65205951)
0F2D  01                 const type 3
0F2E  D48E598B           const [11]: (-1957065004)
0F32  04                 const type 4
0F33  19                 string size (25)
0F34  674C6F7475734F70+  "gLotusOp"
0F3C  657261746F724176+  "eratorAv"
0F44  6174617254797065+  "atarType"
0F4C  00                 "\0"
                         const [12]: "gLotusOperatorAvatarType"
0F4D  01                 const type 3
0F4E  CF62AE24           const [13]: (615408335)
                         * functions:
0F52  00                 sizep (0)
                         * lines:
0F53  2A                 sizelineinfo (42)
                         [pc] (line)
0F54  5A                 [01] (90)
0F55  00                 [02] (90)
0F56  00                 [03] (91)
0F57  00                 [04] (91)
0F58  5A                 [05] (93)
0F59  00                 [06] (93)
0F5A  00                 [07] (93)
0F5B  00                 [08] (93)
0F5C  5B                 [09] (93)
0F5D  00                 [10] (93)
0F5E  00                 [11] (94)
0F5F  00                 [12] (94)
0F60  5B                 [13] (94)
0F61  00                 [14] (97)
0F62  00                 [15] (97)
0F63  00                 [16] (97)
0F64  5D                 [17] (97)
0F65  00                 [18] (97)
0F66  00                 [19] (97)
0F67  00                 [20] (98)
0F68  5D                 [21] (98)
0F69  00                 [22] (98)
0F6A  00                 [23] (101)
0F6B  00                 [24] (101)
0F6C  5D                 [25] (101)
0F6D  00                 [26] (102)
0F6E  00                 [27] (102)
0F6F  00                 [28] (102)
0F70  5D                 [29] (102)
0F71  00                 [30] (102)
0F72  00                 [31] (102)
0F73  00                 [32] (102)
0F74  5D                 [33] (102)
0F75  00                 [34] (102)
0F76  00                 [35] (102)
0F77  00                 [36] (102)
0F78  5D                 [37] (102)
0F79  00                 [38] (102)
0F7A  00                 [39] (103)
0F7B  00                 [40] (103)
0F7C  5E                 [41] (103)
0F7D  00                 [42] (105)
                         * locals:
0FFC  00                 sizelocvars (0)
                         * upvalues:
0FFD  00                 sizeupvalues (0)
                         ** end of function **

                         
0FFE                     ** function [3] definition (level 2)
                         ** start of function **
0FFE  00                 string size (0)
                         source name: (none)
0FFF  6B                 line defined (107)
1000  79                 last line defined (121)
1001  03                 nups (3)
1002  00                 numparams (0)
1003  00                 is_vararg (0)
1004  03                 maxstacksize (3)
                         * code:
1005  18                 sizecode (24)
1006  13000000           [01] getupval   0   0      
100A  18000000           [02] test       0       0    ; to [4] if true
100E  1A000180           [03] jmp        5            ; to [9]
1012  1D000000           [04] getglobal  0   0        ; gFlashMgr
1016  24404000           [05] self       0   0   257  ; -991492797
101A  22400001           [06] call       0   2   1  
101E  17000000           [07] loadbool   0   0   0    ; false
fail op	8
1022  08000000           [08] setupval   0   0      
1026  1D800000           [09] getglobal  0   2        ; 1074689893
102A  53008000           [10] getupval   1   1      
102E  22800001           [11] call       0   2   2  
1032  18400000           [12] test       0       1    ; to [14] if false
1036  1A400080           [13] jmp        2            ; to [16]
103A  13000001           [14] getupval   0   2      
103E  22408000           [15] call       0   1   1  
1042  1DC00000           [16] getglobal  0   3        ; _T
1046  0E004100           [17] gettable   0   0   260  ; -270549122
104A  5D400100           [18] getglobal  1   5        ; mMovie
104E  86000001           [19] loadnil    2   2      
1052  22408001           [20] call       0   3   1  
1056  1D400100           [21] getglobal  0   5        ; mMovie
105A  24804100           [22] self       0   0   262  ; -1517569684
105E  22400001           [23] call       0   2   1  
1062  1E008000           [24] return     0   1      
                         * constants:
1066  07                 sizek (7)
1067  04                 const type 4
1068  0A                 string size (10)
1069  67466C6173684D67+  "gFlashMg"
1071  7200               "r\0"
                         const [0]: "gFlashMgr"
1073  01                 const type 3
1074  4305E7C4           const [1]: (-991492797)
1078  01                 const type 3
1079  65770E40           const [2]: (1074689893)
107D  04                 const type 4
107E  03                 string size (3)
107F  5F5400             "_T\0"
                         const [3]: "_T"
1082  01                 const type 3
1083  7EBFDFEF           const [4]: (-270549122)
1087  04                 const type 4
1088  07                 string size (7)
1089  6D4D6F76696500     "mMovie\0"
                         const [5]: "mMovie"
1090  01                 const type 3
1091  6CB98BA5           const [6]: (-1517569684)
                         * functions:
1095  00                 sizep (0)
                         * lines:
1096  18                 sizelineinfo (24)
                         [pc] (line)
1097  6C                 [01] (108)
1098  00                 [02] (108)
1099  00                 [03] (108)
109A  00                 [04] (109)
109B  6C                 [05] (109)
109C  00                 [06] (109)
109D  00                 [07] (111)
109E  00                 [08] (111)
109F  6C                 [09] (114)
10A0  00                 [10] (114)
10A1  00                 [11] (114)
10A2  00                 [12] (114)
10A3  6D                 [13] (114)
10A4  00                 [14] (115)
10A5  00                 [15] (115)
10A6  00                 [16] (118)
10A7  6D                 [17] (118)
10A8  00                 [18] (118)
10A9  00                 [19] (118)
10AA  00                 [20] (118)
10AB  6D                 [21] (120)
10AC  00                 [22] (120)
10AD  00                 [23] (120)
10AE  00                 [24] (121)
                         * locals:
10F7  00                 sizelocvars (0)
                         * upvalues:
10F8  00                 sizeupvalues (0)
                         ** end of function **

                         
10F9                     ** function [4] definition (level 2)
                         ** start of function **
10F9  00                 string size (0)
                         source name: (none)
10FA  7B                 line defined (123)
10FB  7D                 last line defined (125)
10FC  01                 nups (1)
10FD  00                 numparams (0)
10FE  00                 is_vararg (0)
10FF  02                 maxstacksize (2)
                         * code:
1100  04                 sizecode (4)
1101  13000000           [1] getupval   0   0      
fail op	9
1105  09000000           [2] settable   0   0   0  
fail op	8
1109  08000000           [3] setupval   0   0      
110D  1E008000           [4] return     0   1      
                         * constants:
1111  00                 sizek (0)
                         * functions:
1112  00                 sizep (0)
                         * lines:
1113  04                 sizelineinfo (4)
                         [pc] (line)
1114  7C                 [1] (124)
1115  00                 [2] (124)
1116  00                 [3] (124)
1117  00                 [4] (125)
                         * locals:
1124  00                 sizelocvars (0)
                         * upvalues:
1125  00                 sizeupvalues (0)
                         ** end of function **

                         
1126                     ** function [5] definition (level 2)
                         ** start of function **
1126  00                 string size (0)
                         source name: (none)
1127  7F                 line defined (127)
1128  CA                 last line defined (202)
1129  01                 nups (10)
112A  0A                 numparams (0)
112B  00                 is_vararg (0)
112C  00                 maxstacksize (37)
                         * code:
112F  01                 sizecode (221)
1130  1D000000           [001] getglobal  0   0        ; 1074689893
1134  53000000           [002] getupval   1   0      
1138  22800001           [003] call       0   2   2  
113C  18400000           [004] test       0       1    ; to [6] if false
1140  1AC00280           [005] jmp        12           ; to [18]
1144  1D000000           [006] getglobal  0   0        ; 1074689893
1148  53000000           [007] getupval   1   0      
114C  4E40C000           [008] gettable   1   1   257  ; "Info"
1150  22800001           [009] call       0   2   2  
1154  18400000           [010] test       0       1    ; to [12] if false
1158  1A400180           [011] jmp        6            ; to [18]
115C  1D000000           [012] getglobal  0   0        ; 1074689893
1160  53000000           [013] getupval   1   0      
1164  4E80C000           [014] gettable   1   1   258  ; "StoreItem"
1168  22800001           [015] call       0   2   2  
116C  18000000           [016] test       0       0    ; to [18] if true
1170  1A000080           [017] jmp        1            ; to [19]
1174  1E008000           [018] return     0   1      
1178  13000000           [019] getupval   0   0      
117C  0E804000           [020] gettable   0   0   258  ; "StoreItem"
1180  24C04000           [021] self       0   0   259  ; -1468966689
1184  22800001           [022] call       0   2   2  
1188  53008000           [023] getupval   1   1      
118C  8B000000           [024] newtable   2   0   0    ; array=0, hash=0
1190  4C800082           [025] settable   1   260 2    ; "SocketIds"
1194  53008000           [026] getupval   1   1      
1198  8B000000           [027] newtable   2   0   0    ; array=0, hash=0
119C  4C808082           [028] settable   1   261 2    ; "ReqTypes"
11A0  4A000000           [029] len        1   0      
fail op	21
11A4  15400083           [030] concat     0   262 1  
11A8  1A800D80           [031] jmp        55           ; to [87]
11AC  59C00100           [032] loadk      1   7        ; 0
11B0  8A000000           [033] len        2   0      
11B4  D9C00100           [034] loadk      3   7        ; 0
11B8  50400C80           [035] forprep    1   50       ; to [86]
11BC  4DC14102           [036] sub        5   4   263  ; 0
11C0  93010000           [037] getupval   6   0      
11C4  8E414003           [038] gettable   6   6   257  ; "Info"
11C8  A4014203           [039] self       6   6   264  ; 1328525644
11CC  12028002           [040] move       8   5      
11D0  A2818001           [041] call       6   3   2  
fail op	9
11D4  89010003           [042] settable   6   6   0  
11D8  98010000           [043] test       6       0    ; to [45] if true
11DC  1A000A80           [044] jmp        41           ; to [86]
11E0  D3010000           [045] getupval   7   0      
11E4  CE81C003           [046] gettable   7   7   258  ; "StoreItem"
11E8  E441C203           [047] self       7   7   265  ; -224304205
11EC  52028002           [048] move       9   5      
11F0  E2818001           [049] call       7   3   2  
11F4  1D820200           [050] getglobal  8   10       ; table
11F8  0EC24204           [051] gettable   8   8   267  ; -431682403
11FC  53028000           [052] getupval   9   1      
1200  4E02C104           [053] gettable   9   9   260  ; "SocketIds"
1204  8B820000           [054] newtable   10  0   2    ; array=0, hash=2
1208  8C420186           [055] settable   10  268 5    ; "Id"
120C  8CC28186           [056] settable   10  269 7    ; "Type"
1210  22428001           [057] call       8   3   1  
1214  13028000           [058] getupval   8   1      
1218  0E424104           [059] gettable   8   8   261  ; "ReqTypes"
121C  6482C303           [060] self       9   7   270  ; 455421500
1220  62820001           [061] call       9   2   2  
1224  0E420204           [062] gettable   8   8   9  
fail op	35
1228  23C04304           [063] close      0  
122C  1AC00180           [064] jmp        8            ; to [73]
1230  13028000           [065] getupval   8   1      
1234  0E424104           [066] gettable   8   8   261  ; "ReqTypes"
1238  6482C303           [067] self       9   7   270  ; 455421500
123C  62820001           [068] call       9   2   2  
1240  8B820000           [069] newtable   10  0   2    ; array=0, hash=2
1244  8C824188           [070] settable   10  272 262  ; "Req" 0
1248  8C82C188           [071] settable   10  273 262  ; "Owned" 0
124C  0C828204           [072] settable   8   9   10 
1250  13028000           [073] getupval   8   1      
1254  0E424104           [074] gettable   8   8   261  ; "ReqTypes"
1258  6482C303           [075] self       9   7   270  ; 455421500
125C  62820001           [076] call       9   2   2  
1260  0E420204           [077] gettable   8   8   9  
1264  53028000           [078] getupval   9   1      
1268  4E42C104           [079] gettable   9   9   261  ; "ReqTypes"
126C  A482C303           [080] self       10  7   270  ; 455421500
1270  A2820001           [081] call       10  2   2  
1274  4E828204           [082] gettable   9   9   10 
1278  4E02C404           [083] gettable   9   9   272  ; "Req"
127C  43C2C104           [084] add        9   9   263  ; 0
1280  0C420288           [085] settable   8   272 9    ; "Req"
1284  5400F37F           [086] forloop    1   -51      ; to [36] if loop
1288  19C20100           [087] loadk      8   7        ; 0
128C  53020001           [088] getupval   9   2      
1290  4A028004           [089] len        9   9      
1294  99C20100           [090] loadk      10  7        ; 0
1298  10820680           [091] forprep    8   27       ; to [119]
129C  1D830400           [092] getglobal  12  18       ; 248503575
12A0  53038000           [093] getupval   13  1      
12A4  4E43C106           [094] gettable   13  13  261  ; "ReqTypes"
12A8  22030101           [095] call       12  2   4  
12AC  1AC00480           [096] jmp        20           ; to [117]
12B0  53040001           [097] getupval   17  2      
12B4  4EC48208           [098] gettable   17  17  11 
12B8  4E44C308           [099] gettable   17  17  269  ; "Type"
12BC  6484C308           [100] self       17  17  270  ; 455421500
12C0  62840001           [101] call       17  2   2  
fail op	35
12C4  23C08308           [102] close      0  
12C8  1A000380           [103] jmp        13           ; to [117]
12CC  5D040000           [104] getglobal  17  0        ; 1074689893
12D0  93040001           [105] getupval   18  2      
12D4  8EC40209           [106] gettable   18  18  11 
12D8  8E444009           [107] gettable   18  18  257  ; "Info"
12DC  62840001           [108] call       17  2   2  
12E0  58040000           [109] test       17      0    ; to [111] if true
12E4  1A400180           [110] jmp        6            ; to [117]
12E8  4E444408           [111] gettable   17  16  273  ; "Owned"
12EC  93040001           [112] getupval   18  2      
12F0  8EC40209           [113] gettable   18  18  11 
12F4  8EC44409           [114] gettable   18  18  275  ; "Count"
12F8  43848408           [115] add        17  17  18 
12FC  0C448488           [116] settable   16  273 17   ; "Owned"
1300  16830000           [117] tforloop   12      2    ; to [119] if exit
1304  1A40FA7F           [118] jmp        -22          ; to [97]
1308  14C2F87F           [119] forloop    8   -28      ; to [92] if loop
130C  57040000           [120] loadbool   17  0   0    ; false
1310  99040500           [121] loadk      18  20       ; ""
1314  DD840400           [122] getglobal  19  18       ; 248503575
1318  13058000           [123] getupval   20  1      
131C  0E45410A           [124] gettable   20  20  261  ; "ReqTypes"
1320  E2040101           [125] call       19  2   4  
1324  1A400980           [126] jmp        38           ; to [165]
1328  0E06C40B           [127] gettable   24  23  272  ; "Req"
132C  4E46C40B           [128] gettable   25  23  273  ; "Owned"
fail op	21
1330  1500860C           [129] concat     0   25  24 
1334  1A400880           [130] jmp        34           ; to [165]
1338  57048000           [131] loadbool   17  1   0    ; true
fail op	35
133C  63004509           [132] close      1  
1340  1A800080           [133] jmp        3            ; to [137]
1344  12060009           [134] move       24  18     
1348  59460500           [135] loadk      25  21       ; "\r\n"
134C  8244060C           [136] concat     18  24  25 
1350  13068001           [137] getupval   24  3      
1354  2486450C           [138] self       24  24  278  ; 1660666296
1358  9DC60500           [139] getglobal  26  23       ; 738251817
135C  D206000B           [140] move       27  22     
1360  A2060001           [141] call       26  2   0  
1364  22860000           [142] call       24  0   2  
1368  5D060000           [143] getglobal  25  0        ; 1074689893
136C  9206000C           [144] move       26  24     
1370  62860001           [145] call       25  2   2  
1374  58460000           [146] test       25      1    ; to [148] if false
1378  1A000480           [147] jmp        17           ; to [165]
137C  52060009           [148] move       25  18     
1380  9D060600           [149] getglobal  26  24       ; mMovie
1384  A446460D           [150] self       26  26  281  ; 98241492
1388  2487460C           [151] self       28  24  282  ; 1634497718
138C  22870001           [152] call       28  2   2  
1390  24C7460E           [153] self       28  28  283  ; 1590141906
1394  22870001           [154] call       28  2   2  
1398  57070000           [155] loadbool   29  0   0    ; false
139C  A2860002           [156] call       26  4   2  
13A0  D9060700           [157] loadk      27  28       ; " X "
13A4  13070002           [158] getupval   28  4      
13A8  0E47470E           [159] gettable   28  28  285  ; 2115597333
13AC  4E07C40B           [160] gettable   29  23  272  ; "Req"
13B0  8E47C40B           [161] gettable   30  23  273  ; "Owned"
13B4  4D87870E           [162] sub        29  29  30 
13B8  22870001           [163] call       28  2   2  
13BC  8204870C           [164] concat     18  25  28 
13C0  D6840000           [165] tforloop   19      2    ; to [167] if exit
13C4  1AC0F57F           [166] jmp        -40          ; to [127]
13C8  58040000           [167] test       17      0    ; to [169] if true
13CC  1A400380           [168] jmp        14           ; to [183]
13D0  5D060600           [169] getglobal  25  24       ; mMovie
13D4  6446C60C           [170] self       25  25  281  ; 98241492
13D8  D9860700           [171] loadk      27  30       ; "/Lotus/Language/Menu/FusionTreasuresMgr_MissingReqForAutoInstall"
13DC  17070000           [172] loadbool   28  0   0    ; false
13E0  4B470000           [173] newtable   29  0   1    ; array=0, hash=1
13E4  4C87848F           [174] settable   29  287 18   ; "REQ"
13E8  62868002           [175] call       25  5   2  
13EC  93060002           [176] getupval   26  4      
13F0  8E06480D           [177] gettable   26  26  288  ; 955055712
13F4  D206800C           [178] move       27  25     
13F8  A2460001           [179] call       26  2   1  
13FC  97060000           [180] loadbool   26  0   0    ; false
fail op	8
1400  88068002           [181] setupval   26  5      
1404  1E008000           [182] return     0   1      
1408  97068000           [183] loadbool   26  1   0    ; true
fail op	8
140C  88060003           [184] setupval   26  6      
1410  97068000           [185] loadbool   26  1   0    ; true
fail op	8
1414  88068003           [186] setupval   26  7      
1418  97068000           [187] loadbool   26  1   0    ; true
fail op	8
141C  88060004           [188] setupval   26  8      
1420  9D460800           [189] getglobal  26  33       ; Lotus_Game
1424  8E86480D           [190] gettable   26  26  290  ; 1872382188
1428  D3060000           [191] getupval   27  0      
142C  CE46C00D           [192] gettable   27  27  257  ; "Info"
1430  A2860001           [193] call       26  2   2  
1434  D9C60100           [194] loadk      27  7        ; 0
1438  13078000           [195] getupval   28  1      
143C  0E07410E           [196] gettable   28  28  260  ; "SocketIds"
1440  0A07000E           [197] len        28  28     
1444  59C70100           [198] loadk      29  7        ; 0
1448  D0860180           [199] forprep    27  7        ; to [207]
144C  D3078000           [200] getupval   31  1      
1450  CE07C10F           [201] gettable   31  31  260  ; "SocketIds"
1454  CE87870F           [202] gettable   31  31  30 
1458  24C8480D           [203] self       32  26  291  ; -1921912834
145C  8E08C30F           [204] gettable   34  31  268  ; "Id"
1460  D7088000           [205] loadbool   35  1   0    ; true
1464  22480002           [206] call       32  4   1  
1468  D4C6FD7F           [207] forloop    27  -8       ; to [200] if loop
146C  13088004           [208] getupval   32  9      
1470  24084910           [209] self       32  32  292  ; -782606110
1474  93080000           [210] getupval   34  0      
1478  8E484011           [211] gettable   34  34  257  ; "Info"
147C  D208000D           [212] move       35  26     
1480  19490900           [213] loadk      36  37       ; "OnItemSocketed"
1484  22488002           [214] call       32  5   1  
1488  1D880900           [215] getglobal  32  38       ; _T
148C  0EC84910           [216] gettable   32  32  295  ; "BackgroundMovie"
1490  24084A10           [217] self       32  32  296  ; 1167009705
1494  99480A00           [218] loadk      34  41       ; "ShowBlockingMessage"
1498  D9880A00           [219] loadk      35  42       ; "2"
149C  22480002           [220] call       32  4   1  
14A0  1E008000           [221] return     0   1      
                         * constants:
14A4  2B                 sizek (43)
14A5  01                 const type 3
14A6  65770E40           const [0]: (1074689893)
14AA  04                 const type 4
14AB  05                 string size (5)
14AC  496E666F00         "Info\0"
                         const [1]: "Info"
14B1  04                 const type 4
14B2  0A                 string size (10)
14B3  53746F7265497465+  "StoreIte"
14BB  6D00               "m\0"
                         const [2]: "StoreItem"
14BD  01                 const type 3
14BE  DF5871A8           const [3]: (-1468966689)
14C2  04                 const type 4
14C3  0A                 string size (10)
14C4  536F636B65744964+  "SocketId"
14CC  7300               "s\0"
                         const [4]: "SocketIds"
14CE  04                 const type 4
14CF  09                 string size (9)
14D0  5265715479706573+  "ReqTypes"
14D8  00                 "\0"
                         const [5]: "ReqTypes"
14D9  03                 const type 3
14DA  00000000           const [6]: (0)
14DE  03                 const type 3
14DF  0000803F           const [7]: (0)
14E3  01                 const type 3
14E4  4CB12F4F           const [8]: (1328525644)
14E8  01                 const type 3
14E9  B363A1F2           const [9]: (-224304205)
14ED  04                 const type 4
14EE  06                 string size (6)
14EF  7461626C6500       "table\0"
                         const [10]: "table"
14F5  01                 const type 3
14F6  9D0C45E6           const [11]: (-431682403)
14FA  04                 const type 4
14FB  03                 string size (3)
14FC  496400             "Id\0"
                         const [12]: "Id"
14FF  04                 const type 4
1500  05                 string size (5)
1501  5479706500         "Type\0"
                         const [13]: "Type"
1506  01                 const type 3
1507  3C2E251B           const [14]: (455421500)
150B  00                 const type 0
                         const [15]: nil
150C  04                 const type 4
150D  04                 string size (4)
150E  52657100           "Req\0"
                         const [16]: "Req"
1512  04                 const type 4
1513  06                 string size (6)
1514  4F776E656400       "Owned\0"
                         const [17]: "Owned"
151A  01                 const type 3
151B  17DDCF0E           const [18]: (248503575)
151F  04                 const type 4
1520  06                 string size (6)
1521  436F756E7400       "Count\0"
                         const [19]: "Count"
1527  04                 const type 4
1528  01                 string size (0)
                         const [20]: ""
152A  04                 const type 4
152B  03                 string size (3)
152C  0D0A00             "\r\n\0"
                         const [21]: "\r\n"
152F  01                 const type 3
1530  B8C1FB62           const [22]: (1660666296)
1534  01                 const type 3
1535  29D4002C           const [23]: (738251817)
1539  04                 const type 4
153A  07                 string size (7)
153B  6D4D6F76696500     "mMovie\0"
                         const [24]: "mMovie"
1542  01                 const type 3
1543  D40BDB05           const [25]: (98241492)
1547  01                 const type 3
1548  B6746C61           const [26]: (1634497718)
154C  01                 const type 3
154D  D2A3C75E           const [27]: (1590141906)
1551  04                 const type 4
1552  04                 string size (4)
1553  20582000           " X \0"
                         const [28]: " X "
1557  01                 const type 3
1558  1574197E           const [29]: (2115597333)
155C  04                 const type 4
155D  41                 string size (65)
155E  2F4C6F7475732F4C+  "/Lotus/L"
1566  616E67756167652F+  "anguage/"
156E  4D656E752F467573+  "Menu/Fus"
1576  696F6E5472656173+  "ionTreas"
157E  757265734D67725F+  "uresMgr_"
1586  4D697373696E6752+  "MissingR"
158E  6571466F72417574+  "eqForAut"
1596  6F496E7374616C6C+  "oInstall"
159E  00                 "\0"
                         const [30]: "/Lotus/Language/Menu/FusionTreasuresMgr_MissingReqForAutoInstall"
159F  04                 const type 4
15A0  04                 string size (4)
15A1  52455100           "REQ\0"
                         const [31]: "REQ"
15A5  01                 const type 3
15A6  60FEEC38           const [32]: (955055712)
15AA  04                 const type 4
15AB  0B                 string size (11)
15AC  4C6F7475735F4761+  "Lotus_Ga"
15B4  6D6500             "me\0"
                         const [33]: "Lotus_Game"
15B7  01                 const type 3
15B8  EC489A6F           const [34]: (1872382188)
15BC  01                 const type 3
15BD  FEEF718D           const [35]: (-1921912834)
15C1  01                 const type 3
15C2  E2605AD1           const [36]: (-782606110)
15C6  04                 const type 4
15C7  0F                 string size (15)
15C8  4F6E4974656D536F+  "OnItemSo"
15D0  636B6574656400     "cketed\0"
                         const [37]: "OnItemSocketed"
15D7  04                 const type 4
15D8  03                 string size (3)
15D9  5F5400             "_T\0"
                         const [38]: "_T"
15DC  04                 const type 4
15DD  10                 string size (16)
15DE  4261636B67726F75+  "Backgrou"
15E6  6E644D6F76696500   "ndMovie\0"
                         const [39]: "BackgroundMovie"
15EE  01                 const type 3
15EF  A9278F45           const [40]: (1167009705)
15F3  04                 const type 4
15F4  14                 string size (20)
15F5  53686F77426C6F63+  "ShowBloc"
15FD  6B696E674D657373+  "kingMess"
1605  61676500           "age\0"
                         const [41]: "ShowBlockingMessage"
1609  04                 const type 4
160A  02                 string size (2)
160B  3200               "2\0"
                         const [42]: "2"
                         * functions:
160D  00                 sizep (0)
                         * lines:
160F  01                 sizelineinfo (221)
                         [pc] (line)
1610  80                 [001] (-128)
1611  00                 [002] (-128)
1612  00                 [003] (-128)
1613  00                 [004] (-128)
1614  80                 [005] (-128)
1615  00                 [006] (-128)
1616  00                 [007] (-128)
1617  00                 [008] (-128)
1618  80                 [009] (-128)
1619  00                 [010] (-128)
161A  00                 [011] (-128)
161B  00                 [012] (-128)
161C  80                 [013] (-128)
161D  00                 [014] (-128)
161E  00                 [015] (-128)
161F  00                 [016] (-128)
1620  80                 [017] (-128)
1621  00                 [018] (-127)
1622  00                 [019] (-124)
1623  00                 [020] (-124)
1624  80                 [021] (-124)
1625  00                 [022] (-124)
1626  00                 [023] (-123)
1627  00                 [024] (-123)
1628  80                 [025] (-123)
1629  00                 [026] (-122)
162A  00                 [027] (-122)
162B  00                 [028] (-122)
162C  80                 [029] (-121)
162D  00                 [030] (-121)
162E  00                 [031] (-121)
162F  00                 [032] (-120)
1630  80                 [033] (-120)
1631  00                 [034] (-120)
1632  00                 [035] (-120)
1633  00                 [036] (-119)
1634  80                 [037] (-118)
1635  00                 [038] (-118)
1636  00                 [039] (-118)
1637  00                 [040] (-118)
1638  80                 [041] (-118)
1639  00                 [042] (-118)
163A  00                 [043] (-117)
163B  00                 [044] (-117)
163C  80                 [045] (-116)
163D  00                 [046] (-116)
163E  00                 [047] (-116)
163F  00                 [048] (-116)
1640  80                 [049] (-116)
1641  00                 [050] (-115)
1642  00                 [051] (-115)
1643  00                 [052] (-115)
1644  80                 [053] (-115)
1645  00                 [054] (-115)
1646  00                 [055] (-115)
1647  00                 [056] (-115)
1648  80                 [057] (-115)
1649  00                 [058] (-113)
164A  00                 [059] (-113)
164B  00                 [060] (-113)
164C  80                 [061] (-113)
164D  00                 [062] (-113)
164E  00                 [063] (-113)
164F  00                 [064] (-113)
1650  80                 [065] (-112)
1651  00                 [066] (-112)
1652  00                 [067] (-112)
1653  00                 [068] (-112)
1654  81                 [069] (-112)
1655  00                 [070] (-112)
1656  00                 [071] (-112)
1657  00                 [072] (-112)
1658  84                 [073] (-110)
1659  00                 [074] (-110)
165A  00                 [075] (-110)
165B  00                 [076] (-110)
165C  84                 [077] (-110)
165D  00                 [078] (-110)
165E  00                 [079] (-110)
165F  00                 [080] (-110)
1660  84                 [081] (-110)
1661  00                 [082] (-110)
1662  00                 [083] (-110)
1663  00                 [084] (-110)
1664  84                 [085] (-110)
1665  00                 [086] (-120)
1666  00                 [087] (-104)
1667  00                 [088] (-104)
1668  85                 [089] (-104)
1669  00                 [090] (-104)
166A  00                 [091] (-104)
166B  00                 [092] (-103)
166C  85                 [093] (-103)
166D  00                 [094] (-103)
166E  00                 [095] (-103)
166F  00                 [096] (-103)
1670  85                 [097] (-102)
1671  00                 [098] (-102)
1672  00                 [099] (-102)
1673  00                 [100] (-102)
1674  86                 [101] (-102)
1675  00                 [102] (-102)
1676  00                 [103] (-102)
1677  00                 [104] (-101)
1678  86                 [105] (-101)
1679  00                 [106] (-101)
167A  00                 [107] (-101)
167B  00                 [108] (-101)
167C  86                 [109] (-101)
167D  00                 [110] (-101)
167E  00                 [111] (-99)
167F  00                 [112] (-99)
1680  87                 [113] (-99)
1681  00                 [114] (-99)
1682  00                 [115] (-99)
1683  00                 [116] (-99)
1684  87                 [117] (-103)
1685  00                 [118] (-97)
1686  00                 [119] (-104)
1687  00                 [120] (-93)
1688  87                 [121] (-92)
1689  00                 [122] (-91)
168A  00                 [123] (-91)
168B  00                 [124] (-91)
168C  88                 [125] (-91)
168D  00                 [126] (-91)
168E  00                 [127] (-90)
168F  00                 [128] (-90)
1690  88                 [129] (-90)
1691  00                 [130] (-90)
1692  00                 [131] (-89)
1693  00                 [132] (-88)
1694  88                 [133] (-88)
1695  00                 [134] (-87)
1696  00                 [135] (-87)
1697  00                 [136] (-87)
1698  88                 [137] (-84)
1699  00                 [138] (-84)
169A  00                 [139] (-84)
169B  00                 [140] (-84)
169C  89                 [141] (-84)
169D  00                 [142] (-84)
169E  00                 [143] (-83)
169F  00                 [144] (-83)
16A0  8A                 [145] (-83)
16A1  00                 [146] (-83)
16A2  00                 [147] (-83)
16A3  00                 [148] (-82)
16A4  8A                 [149] (-82)
16A5  00                 [150] (-82)
16A6  00                 [151] (-82)
16A7  00                 [152] (-82)
16A8  8A                 [153] (-82)
16A9  00                 [154] (-82)
16AA  00                 [155] (-82)
16AB  00                 [156] (-82)
16AC  8A                 [157] (-82)
16AD  00                 [158] (-82)
16AE  00                 [159] (-82)
16AF  00                 [160] (-82)
16B0  8A                 [161] (-82)
16B1  00                 [162] (-82)
16B2  00                 [163] (-82)
16B3  00                 [164] (-82)
16B4  8A                 [165] (-91)
16B5  00                 [166] (-80)
16B6  00                 [167] (-77)
16B7  00                 [168] (-77)
16B8  8B                 [169] (-76)
16B9  00                 [170] (-76)
16BA  00                 [171] (-76)
16BB  00                 [172] (-76)
16BC  8B                 [173] (-76)
16BD  00                 [174] (-76)
16BE  00                 [175] (-76)
16BF  00                 [176] (-75)
16C0  8C                 [177] (-75)
16C1  00                 [178] (-75)
16C2  00                 [179] (-75)
16C3  00                 [180] (-72)
16C4  8C                 [181] (-72)
16C5  00                 [182] (-70)
16C6  00                 [183] (-67)
16C7  00                 [184] (-67)
16C8  8C                 [185] (-66)
16C9  00                 [186] (-66)
16CA  00                 [187] (-65)
16CB  00                 [188] (-65)
16CC  8C                 [189] (-63)
16CD  00                 [190] (-63)
16CE  00                 [191] (-63)
16CF  00                 [192] (-63)
16D0  8C                 [193] (-63)
16D1  00                 [194] (-61)
16D2  00                 [195] (-61)
16D3  00                 [196] (-61)
16D4  8D                 [197] (-61)
16D5  00                 [198] (-61)
16D6  00                 [199] (-61)
16D7  00                 [200] (-60)
16D8  8D                 [201] (-60)
16D9  00                 [202] (-60)
16DA  00                 [203] (-59)
16DB  00                 [204] (-59)
16DC  8D                 [205] (-59)
16DD  00                 [206] (-59)
16DE  00                 [207] (-61)
16DF  00                 [208] (-56)
16E0  8D                 [209] (-56)
16E1  00                 [210] (-56)
16E2  00                 [211] (-56)
16E3  00                 [212] (-56)
16E4  8D                 [213] (-56)
16E5  00                 [214] (-56)
16E6  00                 [215] (-55)
16E7  00                 [216] (-55)
16E8  8D                 [217] (-55)
16E9  00                 [218] (-55)
16EA  00                 [219] (-55)
16EB  00                 [220] (-55)
16EC  8D                 [221] (-54)
                         * locals:
1984  00                 sizelocvars (0)
                         * upvalues:
1985  00                 sizeupvalues (0)
                         ** end of function **

                         
1986                     ** function [6] definition (level 2)
                         ** start of function **
1986  00                 string size (0)
                         source name: (none)
1988  01                 line defined (204)
1989  E1                 last line defined (225)
198A  01                 nups (5)
198B  05                 numparams (0)
198C  00                 is_vararg (0)
198D  00                 maxstacksize (7)
                         * code:
198F  4B                 sizecode (75)
1990  0B000000           [01] newtable   0   0   0    ; array=0, hash=0
1994  57000000           [02] loadbool   1   0   0    ; false
fail op	8
1998  48000000           [03] setupval   1   0      
199C  5D000000           [04] getglobal  1   0        ; 1074689893
19A0  93008000           [05] getupval   2   1      
19A4  62800001           [06] call       1   2   2  
19A8  58400000           [07] test       1       1    ; to [9] if false
19AC  1A000C80           [08] jmp        49           ; to [58]
19B0  57000000           [09] loadbool   1   0   0    ; false
19B4  58000000           [10] test       1       0    ; to [12] if true
19B8  1A000280           [11] jmp        9            ; to [21]
19BC  5D400000           [12] getglobal  1   1        ; table
19C0  4E80C000           [13] gettable   1   1   258  ; -431682403
19C4  92000000           [14] move       2   0      
19C8  CBC00000           [15] newtable   3   0   3    ; array=0, hash=3
19CC  CC00C181           [16] settable   3   259 260  ; "Label" "[DEV] Toggle socket btn vis"
19D0  13010001           [17] getupval   4   2      
19D4  CC008182           [18] settable   3   261 4    ; "CallBack"
19D8  CCC04183           [19] settable   3   262 263  ; "CallOut" "MENU_GENERIC1"
19DC  62408001           [20] call       1   3   1  
19E0  53008000           [21] getupval   1   1      
19E4  4E00C200           [22] gettable   1   1   264  ; "Type"
19E8  6440C200           [23] self       1   1   265  ; -1957065004
19EC  D3008001           [24] getupval   3   3      
19F0  62808001           [25] call       1   3   2  
19F4  58400000           [26] test       1       1    ; to [28] if false
19F8  1A400780           [27] jmp        30           ; to [58]
19FC  5D000000           [28] getglobal  1   0        ; 1074689893
1A00  9D800200           [29] getglobal  2   10       ; gGameData
1A04  62800001           [30] call       1   2   2  
1A08  58400000           [31] test       1       1    ; to [33] if false
1A0C  1A000680           [32] jmp        25           ; to [58]
1A10  5D800200           [33] getglobal  1   10       ; gGameData
1A14  64C0C200           [34] self       1   1   267  ; 827662890
1A18  62800001           [35] call       1   2   2  
1A1C  93008000           [36] getupval   2   1      
1A20  8E004301           [37] gettable   2   2   268  ; "MatchedSockets"
1A24  D3008000           [38] getupval   3   1      
1A28  CE40C301           [39] gettable   3   3   269  ; "StoreItem"
1A2C  E480C301           [40] self       3   3   270  ; -1468966689
1A30  E2800001           [41] call       3   2   2  
1A34  CA008001           [42] len        3   3      
fail op	35
1A38  63C00001           [43] close      1  
1A3C  1A000380           [44] jmp        13           ; to [58]
fail op	33
1A40  21408087           [45] tforloop   0       1    ; to [47] if exit
1A44  1A800280           [46] jmp        11           ; to [58]
1A48  9D400000           [47] getglobal  2   1        ; table
1A4C  8E804001           [48] gettable   2   2   258  ; -431682403
1A50  D2000000           [49] move       3   0      
1A54  0BC10000           [50] newtable   4   0   3    ; array=0, hash=3
1A58  0C01C481           [51] settable   4   259 272  ; "Label" "/Lotus/Language/Menu/Loadout_Auto_Install"
1A5C  65010000           [52] closure    5   0      
1A60  0C418182           [53] settable   4   261 5    ; "CallBack"
1A64  0C414483           [54] settable   4   262 273  ; "CallOut" "MENU_GENERIC2"
1A68  A2408001           [55] call       2   3   1  
1A6C  97008000           [56] loadbool   2   1   0    ; true
fail op	8
1A70  88000000           [57] setupval   2   0      
1A74  9D400000           [58] getglobal  2   1        ; table
1A78  8E804001           [59] gettable   2   2   258  ; -431682403
1A7C  D2000000           [60] move       3   0      
1A80  0BC10000           [61] newtable   4   0   3    ; array=0, hash=3
1A84  0C81C481           [62] settable   4   259 274  ; "Label" "/Lotus/Language/Menu/Exit"
1A88  53010002           [63] getupval   5   4      
1A8C  0C418182           [64] settable   4   261 5    ; "CallBack"
1A90  0CC14483           [65] settable   4   262 275  ; "CallOut" "MENU_CANCEL"
1A94  A2408001           [66] call       2   3   1  
1A98  9D000500           [67] getglobal  2   20       ; _T
1A9C  8E404501           [68] gettable   2   2   277  ; -270549122
1AA0  DD800500           [69] getglobal  3   22       ; mMovie
1AA4  12010000           [70] move       4   0      
1AA8  5DC10500           [71] getglobal  5   23       ; 1802065273
1AAC  99010600           [72] loadk      6   24       ; 0
1AB0  62010001           [73] call       5   2   0  
1AB4  A2400000           [74] call       2   0   1  
1AB8  1E008000           [75] return     0   1      
                         * constants:
1ABC  19                 sizek (25)
1ABD  01                 const type 3
1ABE  65770E40           const [0]: (1074689893)
1AC2  04                 const type 4
1AC3  06                 string size (6)
1AC4  7461626C6500       "table\0"
                         const [1]: "table"
1ACA  01                 const type 3
1ACB  9D0C45E6           const [2]: (-431682403)
1ACF  04                 const type 4
1AD0  06                 string size (6)
1AD1  4C6162656C00       "Label\0"
                         const [3]: "Label"
1AD7  04                 const type 4
1AD8  1C                 string size (28)
1AD9  5B4445565D20546F+  "[DEV] To"
1AE1  67676C6520736F63+  "ggle soc"
1AE9  6B65742062746E20+  "ket btn "
1AF1  76697300           "vis\0"
                         const [4]: "[DEV] Toggle socket btn vis"
1AF5  04                 const type 4
1AF6  09                 string size (9)
1AF7  43616C6C4261636B+  "CallBack"
1AFF  00                 "\0"
                         const [5]: "CallBack"
1B00  04                 const type 4
1B01  08                 string size (8)
1B02  43616C6C4F757400   "CallOut\0"
                         const [6]: "CallOut"
1B0A  04                 const type 4
1B0B  0E                 string size (14)
1B0C  4D454E555F47454E+  "MENU_GEN"
1B14  455249433100       "ERIC1\0"
                         const [7]: "MENU_GENERIC1"
1B1A  04                 const type 4
1B1B  05                 string size (5)
1B1C  5479706500         "Type\0"
                         const [8]: "Type"
1B21  01                 const type 3
1B22  D48E598B           const [9]: (-1957065004)
1B26  04                 const type 4
1B27  0A                 string size (10)
1B28  6747616D65446174+  "gGameDat"
1B30  6100               "a\0"
                         const [10]: "gGameData"
1B32  01                 const type 3
1B33  2A225531           const [11]: (827662890)
1B37  04                 const type 4
1B38  0F                 string size (15)
1B39  4D61746368656453+  "MatchedS"
1B41  6F636B65747300     "ockets\0"
                         const [12]: "MatchedSockets"
1B48  04                 const type 4
1B49  0A                 string size (10)
1B4A  53746F7265497465+  "StoreIte"
1B52  6D00               "m\0"
                         const [13]: "StoreItem"
1B54  01                 const type 3
1B55  DF5871A8           const [14]: (-1468966689)
1B59  03                 const type 3
1B5A  00002041           const [15]: (0)
1B5E  04                 const type 4
1B5F  2A                 string size (42)
1B60  2F4C6F7475732F4C+  "/Lotus/L"
1B68  616E67756167652F+  "anguage/"
1B70  4D656E752F4C6F61+  "Menu/Loa"
1B78  646F75745F417574+  "dout_Aut"
1B80  6F5F496E7374616C+  "o_Instal"
1B88  6C00               "l\0"
                         const [16]: "/Lotus/Language/Menu/Loadout_Auto_Install"
1B8A  04                 const type 4
1B8B  0E                 string size (14)
1B8C  4D454E555F47454E+  "MENU_GEN"
1B94  455249433200       "ERIC2\0"
                         const [17]: "MENU_GENERIC2"
1B9A  04                 const type 4
1B9B  1A                 string size (26)
1B9C  2F4C6F7475732F4C+  "/Lotus/L"
1BA4  616E67756167652F+  "anguage/"
1BAC  4D656E752F457869+  "Menu/Exi"
1BB4  7400               "t\0"
                         const [18]: "/Lotus/Language/Menu/Exit"
1BB6  04                 const type 4
1BB7  0C                 string size (12)
1BB8  4D454E555F43414E+  "MENU_CAN"
1BC0  43454C00           "CEL\0"
                         const [19]: "MENU_CANCEL"
1BC4  04                 const type 4
1BC5  03                 string size (3)
1BC6  5F5400             "_T\0"
                         const [20]: "_T"
1BC9  01                 const type 3
1BCA  7EBFDFEF           const [21]: (-270549122)
1BCE  04                 const type 4
1BCF  07                 string size (7)
1BD0  6D4D6F76696500     "mMovie\0"
                         const [22]: "mMovie"
1BD7  01                 const type 3
1BD8  7955696B           const [23]: (1802065273)
1BDC  03                 const type 3
1BDD  0000803F           const [24]: (0)
                         * functions:
1BE1  01                 sizep (1)
                         
1BE2                     ** function [0] definition (level 3)
                         ** start of function **
1BE2  00                 string size (0)
                         source name: (none)
1BE4  01                 line defined (216)
1BE5  D8                 last line defined (216)
1BE6  01                 nups (0)
1BE7  00                 numparams (0)
1BE8  00                 is_vararg (0)
1BE9  00                 maxstacksize (4)
                         * code:
1BEB  06                 sizecode (6)
1BEC  1D000000           [1] getglobal  0   0        ; mMovie
1BF0  24404000           [2] self       0   0   257  ; 1167009705
1BF4  99800000           [3] loadk      2   2        ; "AutoInstall"
1BF8  D9C00000           [4] loadk      3   3        ; ""
1BFC  22400002           [5] call       0   4   1  
1C00  1E008000           [6] return     0   1      
                         * constants:
1C04  04                 sizek (4)
1C05  04                 const type 4
1C06  07                 string size (7)
1C07  6D4D6F76696500     "mMovie\0"
                         const [0]: "mMovie"
1C0E  01                 const type 3
1C0F  A9278F45           const [1]: (1167009705)
1C13  04                 const type 4
1C14  0C                 string size (12)
1C15  4175746F496E7374+  "AutoInst"
1C1D  616C6C00           "all\0"
                         const [2]: "AutoInstall"
1C21  04                 const type 4
1C22  01                 string size (0)
                         const [3]: ""
                         * functions:
1C24  00                 sizep (0)
                         * lines:
1C25  06                 sizelineinfo (6)
                         [pc] (line)
1C26  D8                 [1] (-40)
1C27  00                 [2] (-40)
1C28  00                 [3] (-40)
1C29  00                 [4] (-40)
1C2A  D8                 [5] (-40)
1C2B  00                 [6] (-40)
                         * locals:
1C3E  00                 sizelocvars (0)
                         * upvalues:
1C3F  00                 sizeupvalues (0)
                         ** end of function **

                         * lines:
1C40  4B                 sizelineinfo (75)
                         [pc] (line)
1C41  CD                 [01] (-51)
1C42  00                 [02] (-50)
1C43  00                 [03] (-50)
1C44  00                 [04] (-48)
1C45  CE                 [05] (-48)
1C46  00                 [06] (-48)
1C47  00                 [07] (-48)
1C48  00                 [08] (-48)
1C49  CE                 [09] (-47)
1C4A  00                 [10] (-47)
1C4B  00                 [11] (-47)
1C4C  00                 [12] (-46)
1C4D  D0                 [13] (-46)
1C4E  00                 [14] (-46)
1C4F  00                 [15] (-46)
1C50  00                 [16] (-46)
1C51  D0                 [17] (-46)
1C52  00                 [18] (-46)
1C53  00                 [19] (-46)
1C54  00                 [20] (-46)
1C55  D0                 [21] (-43)
1C56  00                 [22] (-43)
1C57  00                 [23] (-43)
1C58  00                 [24] (-43)
1C59  D0                 [25] (-43)
1C5A  00                 [26] (-43)
1C5B  00                 [27] (-43)
1C5C  00                 [28] (-43)
1C5D  D0                 [29] (-43)
1C5E  00                 [30] (-43)
1C5F  00                 [31] (-43)
1C60  00                 [32] (-43)
1C61  D1                 [33] (-42)
1C62  00                 [34] (-42)
1C63  00                 [35] (-42)
1C64  00                 [36] (-41)
1C65  D1                 [37] (-41)
1C66  00                 [38] (-41)
1C67  00                 [39] (-41)
1C68  00                 [40] (-41)
1C69  D1                 [41] (-41)
1C6A  00                 [42] (-41)
1C6B  00                 [43] (-41)
1C6C  00                 [44] (-41)
1C6D  D2                 [45] (-41)
1C6E  00                 [46] (-41)
1C6F  00                 [47] (-40)
1C70  00                 [48] (-40)
1C71  D2                 [49] (-40)
1C72  00                 [50] (-40)
1C73  00                 [51] (-40)
1C74  00                 [52] (-40)
1C75  D2                 [53] (-40)
1C76  00                 [54] (-40)
1C77  00                 [55] (-40)
1C78  00                 [56] (-39)
1C79  D2                 [57] (-39)
1C7A  00                 [58] (-34)
1C7B  00                 [59] (-34)
1C7C  00                 [60] (-34)
1C7D  D2                 [61] (-34)
1C7E  00                 [62] (-34)
1C7F  00                 [63] (-34)
1C80  00                 [64] (-34)
1C81  D2                 [65] (-34)
1C82  00                 [66] (-34)
1C83  00                 [67] (-32)
1C84  00                 [68] (-32)
1C85  D2                 [69] (-32)
1C86  00                 [70] (-32)
1C87  00                 [71] (-32)
1C88  00                 [72] (-32)
1C89  D2                 [73] (-32)
1C8A  00                 [74] (-32)
1C8B  00                 [75] (-31)
                         * locals:
1D6D  00                 sizelocvars (0)
                         * upvalues:
1D6E  00                 sizeupvalues (0)
                         ** end of function **

                         
1D6F                     ** function [7] definition (level 2)
                         ** start of function **
1D6F  00                 string size (0)
                         source name: (none)
1D71  01                 line defined (227)
1D72  F5                 last line defined (245)
1D73  01                 nups (3)
1D74  03                 numparams (0)
1D75  00                 is_vararg (0)
1D76  00                 maxstacksize (9)
                         * code:
1D78  33                 sizecode (51)
1D79  1D000000           [01] getglobal  0   0        ; 1074689893
1D7D  53000000           [02] getupval   1   0      
1D81  4E40C000           [03] gettable   1   1   257  ; "LoopSound"
1D85  22800001           [04] call       0   2   2  
1D89  18400000           [05] test       0       1    ; to [7] if false
1D8D  1A000180           [06] jmp        5            ; to [12]
1D91  13000000           [07] getupval   0   0      
1D95  0E404000           [08] gettable   0   0   257  ; "LoopSound"
1D99  24804000           [09] self       0   0   258  ; 675444810
1D9D  97008000           [10] loadbool   2   1   0    ; true
1DA1  22408001           [11] call       0   3   1  
1DA5  1DC00000           [12] getglobal  0   3        ; gFlashMgr
1DA9  24004100           [13] self       0   0   260  ; -991492797
1DAD  22400001           [14] call       0   2   1  
1DB1  13000000           [15] getupval   0   0      
1DB5  0C80C182           [16] settable   0   261 262  ; "Parent" nil
1DB9  13000000           [17] getupval   0   0      
1DBD  0C80C183           [18] settable   0   263 262  ; "TreasureEntity" nil
1DC1  19000200           [19] loadk      0   8        ; 0
1DC5  53000000           [20] getupval   1   0      
1DC9  4E40C200           [21] gettable   1   1   265  ; "NumSockets"
1DCD  99000200           [22] loadk      2   8        ; 0
1DD1  10400280           [23] forprep    0   10       ; to [34]
1DD5  1D810200           [24] getglobal  4   10       ; mMovie
1DD9  24C14202           [25] self       4   4   267  ; 471456102
1DDD  99010300           [26] loadk      6   12       ; "SocketBtn"
1DE1  DD410300           [27] getglobal  7   13       ; -1615931716
1DE5  12028001           [28] move       8   3      
1DE9  E2810001           [29] call       7   2   2  
1DED  82C10103           [30] concat     6   6   7  
1DF1  D9810300           [31] loadk      7   14       ; "_visible"
1DF5  17020000           [32] loadbool   8   0   0    ; false
1DF9  22418002           [33] call       4   5   1  
1DFD  1400FD7F           [34] forloop    0   -11      ; to [24] if loop
1E01  1D810200           [35] getglobal  4   10       ; mMovie
1E05  24C14202           [36] self       4   4   267  ; 471456102
1E09  99C10300           [37] loadk      6   15       ; "TreasureInfo"
1E0D  D9010400           [38] loadk      7   16       ; "_alpha"
1E11  19420400           [39] loadk      8   17       ; 0
1E15  22418002           [40] call       4   5   1  
1E19  1D810200           [41] getglobal  4   10       ; mMovie
1E1D  24C14202           [42] self       4   4   267  ; 471456102
1E21  99810400           [43] loadk      6   18       ; "TreasureInfo.RotateHint"
1E25  D9810300           [44] loadk      7   14       ; "_visible"
1E29  17020000           [45] loadbool   8   0   0    ; false
1E2D  22418002           [46] call       4   5   1  
1E31  06010002           [47] loadnil    4   4      
fail op	8
1E35  08018000           [48] setupval   4   1      
1E39  0B010000           [49] newtable   4   0   0    ; array=0, hash=0
fail op	8
1E3D  08010001           [50] setupval   4   2      
1E41  1E008000           [51] return     0   1      
                         * constants:
1E45  13                 sizek (19)
1E46  01                 const type 3
1E47  65770E40           const [0]: (1074689893)
1E4B  04                 const type 4
1E4C  0A                 string size (10)
1E4D  4C6F6F70536F756E+  "LoopSoun"
1E55  6400               "d\0"
                         const [1]: "LoopSound"
1E57  01                 const type 3
1E58  4A784228           const [2]: (675444810)
1E5C  04                 const type 4
1E5D  0A                 string size (10)
1E5E  67466C6173684D67+  "gFlashMg"
1E66  7200               "r\0"
                         const [3]: "gFlashMgr"
1E68  01                 const type 3
1E69  4305E7C4           const [4]: (-991492797)
1E6D  04                 const type 4
1E6E  07                 string size (7)
1E6F  506172656E7400     "Parent\0"
                         const [5]: "Parent"
1E76  00                 const type 0
                         const [6]: nil
1E77  04                 const type 4
1E78  0F                 string size (15)
1E79  5472656173757265+  "Treasure"
1E81  456E7469747900     "Entity\0"
                         const [7]: "TreasureEntity"
1E88  03                 const type 3
1E89  0000803F           const [8]: (0)
1E8D  04                 const type 4
1E8E  0B                 string size (11)
1E8F  4E756D536F636B65+  "NumSocke"
1E97  747300             "ts\0"
                         const [9]: "NumSockets"
1E9A  04                 const type 4
1E9B  07                 string size (7)
1E9C  6D4D6F76696500     "mMovie\0"
                         const [10]: "mMovie"
1EA3  01                 const type 3
1EA4  66D9191C           const [11]: (471456102)
1EA8  04                 const type 4
1EA9  0A                 string size (10)
1EAA  536F636B65744274+  "SocketBt"
1EB2  6E00               "n\0"
                         const [12]: "SocketBtn"
1EB4  01                 const type 3
1EB5  BCD6AE9F           const [13]: (-1615931716)
1EB9  04                 const type 4
1EBA  09                 string size (9)
1EBB  5F76697369626C65+  "_visible"
1EC3  00                 "\0"
                         const [14]: "_visible"
1EC4  04                 const type 4
1EC5  0D                 string size (13)
1EC6  5472656173757265+  "Treasure"
1ECE  496E666F00         "Info\0"
                         const [15]: "TreasureInfo"
1ED3  04                 const type 4
1ED4  07                 string size (7)
1ED5  5F616C70686100     "_alpha\0"
                         const [16]: "_alpha"
1EDC  03                 const type 3
1EDD  00000000           const [17]: (0)
1EE1  04                 const type 4
1EE2  18                 string size (24)
1EE3  5472656173757265+  "Treasure"
1EEB  496E666F2E526F74+  "Info.Rot"
1EF3  61746548696E7400   "ateHint\0"
                         const [18]: "TreasureInfo.RotateHint"
                         * functions:
1EFB  00                 sizep (0)
                         * lines:
1EFC  33                 sizelineinfo (51)
                         [pc] (line)
1EFD  E4                 [01] (-28)
1EFE  00                 [02] (-28)
1EFF  00                 [03] (-28)
1F00  00                 [04] (-28)
1F01  E4                 [05] (-28)
1F02  00                 [06] (-28)
1F03  00                 [07] (-27)
1F04  00                 [08] (-27)
1F05  E4                 [09] (-27)
1F06  00                 [10] (-27)
1F07  00                 [11] (-27)
1F08  00                 [12] (-24)
1F09  E4                 [13] (-24)
1F0A  00                 [14] (-24)
1F0B  00                 [15] (-23)
1F0C  00                 [16] (-23)
1F0D  E4                 [17] (-22)
1F0E  00                 [18] (-22)
1F0F  00                 [19] (-20)
1F10  00                 [20] (-20)
1F11  E4                 [21] (-20)
1F12  00                 [22] (-20)
1F13  00                 [23] (-20)
1F14  00                 [24] (-19)
1F15  E5                 [25] (-19)
1F16  00                 [26] (-19)
1F17  00                 [27] (-19)
1F18  00                 [28] (-19)
1F19  E5                 [29] (-19)
1F1A  00                 [30] (-19)
1F1B  00                 [31] (-19)
1F1C  00                 [32] (-19)
1F1D  E5                 [33] (-19)
1F1E  00                 [34] (-20)
1F1F  00                 [35] (-16)
1F20  00                 [36] (-16)
1F21  E5                 [37] (-16)
1F22  00                 [38] (-16)
1F23  00                 [39] (-16)
1F24  00                 [40] (-16)
1F25  E5                 [41] (-15)
1F26  00                 [42] (-15)
1F27  00                 [43] (-15)
1F28  00                 [44] (-15)
1F29  E8                 [45] (-15)
1F2A  00                 [46] (-15)
1F2B  00                 [47] (-13)
1F2C  00                 [48] (-13)
1F2D  E8                 [49] (-12)
1F2E  00                 [50] (-12)
1F2F  00                 [51] (-11)
                         * locals:
1FC9  00                 sizelocvars (0)
                         * upvalues:
1FCA  00                 sizeupvalues (0)
                         ** end of function **

                         
1FCB                     ** function [8] definition (level 2)
                         ** start of function **
1FCB  00                 string size (0)
                         source name: (none)
1FCD  01                 line defined (247)
1FCE  9A                 last line defined (282)
1FCF  02                 nups (2)
1FD0  02                 numparams (1)
1FD1  01                 is_vararg (0)
1FD2  00                 maxstacksize (20)
                         * code:
1FD4  46                 sizecode (70)
1FD5  53000000           [01] getupval   1   0      
1FD9  4C404080           [02] settable   1   256 257  ; "mSelectedId" nil
1FDD  53000000           [03] getupval   1   0      
1FE1  6480C000           [04] self       1   1   258  ; 2096569603
1FE5  D7008000           [05] loadbool   3   1   0    ; true
1FE9  17018000           [06] loadbool   4   1   0    ; true
1FED  62400002           [07] call       1   4   1  
1FF1  46008000           [08] loadnil    1   1      
1FF5  99C00000           [09] loadk      2   3        ; 0
1FF9  D3008000           [10] getupval   3   1      
1FFD  CA008001           [11] len        3   3      
2001  19C10000           [12] loadk      4   3        ; 0
2005  90C00380           [13] forprep    2   16       ; to [30]
2009  93018000           [14] getupval   6   1      
200D  8E410103           [15] gettable   6   6   5  
2011  8C410182           [16] settable   6   260 5    ; "Id"
2015  CE414103           [17] gettable   7   6   261  ; "Count"
fail op	21
2019  15C00183           [18] concat     0   262 7  
201D  1A400280           [19] jmp        10           ; to [30]
2021  D3010000           [20] getupval   7   0      
2025  E4C1C103           [21] self       7   7   263  ; -1484936978
2029  52020003           [22] move       9   6      
202D  97028000           [23] loadbool   10  1   0    ; true
2031  E2810002           [24] call       7   4   2  
fail op	35
2035  23008002           [25] close      0  
2039  1A800080           [26] jmp        3            ; to [30]
203D  13020000           [27] getupval   8   0      
2041  4E02C103           [28] gettable   9   7   260  ; "Id"
2045  0C420280           [29] settable   8   256 9    ; "mSelectedId"
2049  9480FB7F           [30] forloop    2   -17      ; to [14] if loop
fail op	35
204D  23404000           [31] close      0  
2051  1A000080           [32] jmp        1            ; to [34]
2055  17420000           [33] loadbool   8   0   1    ; false, to [35]
2059  17028000           [34] loadbool   8   1   0    ; true
205D  53020000           [35] getupval   9   0      
2061  6402C204           [36] self       9   9   264  ; 1685109492
2065  C6020006           [37] loadnil    11  12     
2069  52030004           [38] move       13  8      
206D  62428002           [39] call       9   5   1  
2071  53020000           [40] getupval   9   0      
2075  4E02C004           [41] gettable   9   9   256  ; "mSelectedId"
fail op	35
2079  6340C004           [42] close      1  
207D  1A400680           [43] jmp        26           ; to [70]
2081  46028004           [44] loadnil    9   9      
2085  99C20000           [45] loadk      10  3        ; 0
2089  D3020000           [46] getupval   11  0      
208D  CE42C205           [47] gettable   11  11  265  ; "mElements"
2091  CA028005           [48] len        11  11     
2095  19C30000           [49] loadk      12  3        ; 0
2099  90420280           [50] forprep    10  10       ; to [61]
209D  93030000           [51] getupval   14  0      
20A1  8E434207           [52] gettable   14  14  265  ; "mElements"
20A5  8E430307           [53] gettable   14  14  13 
20A9  CE034107           [54] gettable   15  14  260  ; "Id"
20AD  13040000           [55] getupval   16  0      
20B1  0E044008           [56] gettable   16  16  256  ; "mSelectedId"
fail op	35
20B5  23008407           [57] close      0  
20B9  1A400080           [58] jmp        2            ; to [61]
20BD  52028006           [59] move       9   13     
20C1  1A000080           [60] jmp        1            ; to [62]
20C5  9402FD7F           [61] forloop    10  -11      ; to [51] if loop
fail op	35
20C9  6340C004           [62] close      1  
20CD  1A400180           [63] jmp        6            ; to [70]
20D1  D3030000           [64] getupval   15  0      
20D5  E483C207           [65] self       15  15  266  ; -750811215
20D9  52048004           [66] move       17  9      
20DD  97048000           [67] loadbool   18  1   0    ; true
20E1  D7048000           [68] loadbool   19  1   0    ; true
20E5  E2438002           [69] call       15  5   1  
20E9  1E008000           [70] return     0   1      
                         * constants:
20ED  0B                 sizek (11)
20EE  04                 const type 4
20EF  0C                 string size (12)
20F0  6D53656C65637465+  "mSelecte"
20F8  64496400           "dId\0"
                         const [0]: "mSelectedId"
20FC  00                 const type 0
                         const [1]: nil
20FD  01                 const type 3
20FE  031DF77C           const [2]: (2096569603)
2102  03                 const type 3
2103  0000803F           const [3]: (0)
2107  04                 const type 4
2108  03                 string size (3)
2109  496400             "Id\0"
                         const [4]: "Id"
210C  04                 const type 4
210D  06                 string size (6)
210E  436F756E7400       "Count\0"
                         const [5]: "Count"
2114  03                 const type 3
2115  00000000           const [6]: (0)
2119  01                 const type 3
211A  EEA87DA7           const [7]: (-1484936978)
211E  01                 const type 3
211F  F4BA7064           const [8]: (1685109492)
2123  04                 const type 4
2124  0A                 string size (10)
2125  6D456C656D656E74+  "mElement"
212D  7300               "s\0"
                         const [9]: "mElements"
212F  01                 const type 3
2130  B1873FD3           const [10]: (-750811215)
                         * functions:
2134  00                 sizep (0)
                         * lines:
2135  46                 sizelineinfo (70)
                         [pc] (line)
2136  F8                 [01] (-8)
2137  00                 [02] (-8)
2138  00                 [03] (-7)
2139  00                 [04] (-7)
213A  F8                 [05] (-7)
213B  00                 [06] (-7)
213C  00                 [07] (-7)
213D  00                 [08] (-5)
213E  F9                 [09] (-4)
213F  00                 [10] (-4)
2140  00                 [11] (-4)
2141  00                 [12] (-4)
2142  F9                 [13] (-4)
2143  00                 [14] (-3)
2144  00                 [15] (-3)
2145  00                 [16] (-2)
2146  F9                 [17] (0)
2147  00                 [18] (0)
2148  00                 [19] (0)
2149  00                 [20] (1)
214A  F9                 [21] (1)
214B  00                 [22] (1)
214C  00                 [23] (1)
214D  00                 [24] (1)
214E  F9                 [25] (3)
214F  00                 [26] (3)
2150  00                 [27] (4)
2151  00                 [28] (4)
2152  FB                 [29] (4)
2153  00                 [30] (-4)
2154  00                 [31] (9)
2155  00                 [32] (9)
2156  FC                 [33] (9)
2157  00                 [34] (9)
2158  00                 [35] (10)
2159  00                 [36] (10)
215A  FC                 [37] (10)
215B  00                 [38] (10)
215C  00                 [39] (10)
215D  00                 [40] (11)
215E  FC                 [41] (11)
215F  00                 [42] (11)
2160  00                 [43] (11)
2161  00                 [44] (12)
2162  FC                 [45] (13)
2163  00                 [46] (13)
2164  00                 [47] (13)
2165  00                 [48] (13)
2166  FC                 [49] (13)
2167  00                 [50] (13)
2168  00                 [51] (14)
2169  00                 [52] (14)
216A  FD                 [53] (14)
216B  00                 [54] (15)
216C  00                 [55] (15)
216D  00                 [56] (15)
216E  FD                 [57] (15)
216F  00                 [58] (15)
2170  00                 [59] (16)
2171  00                 [60] (18)
2172  FE                 [61] (13)
2173  00                 [62] (22)
2174  00                 [63] (22)
2175  00                 [64] (23)
2176  00                 [65] (23)
2177  01                 [66] (23)
2178  00                 [67] (23)
2179  00                 [68] (23)
217A  00                 [69] (23)
217B  01                 [70] (26)
                         * locals:
224E  00                 sizelocvars (0)
                         * upvalues:
224F  00                 sizeupvalues (0)
                         ** end of function **

                         
2250                     ** function [9] definition (level 2)
                         ** start of function **
2250  00                 string size (0)
                         source name: (none)
2252  02                 line defined (284)
2253  D1                 last line defined (337)
2254  02                 nups (8)
2255  08                 numparams (0)
2256  00                 is_vararg (0)
2257  00                 maxstacksize (22)
                         * code:
225A  01                 sizecode (172)
225B  0B000000           [001] newtable   0   0   0    ; array=0, hash=0
fail op	8
225F  08000000           [002] setupval   0   0      
2263  1D000000           [003] getglobal  0   0        ; mMovie
2267  24404000           [004] self       0   0   257  ; 471456102
226B  99800000           [005] loadk      2   2        ; "TopMenu"
226F  D9C00000           [006] loadk      3   3        ; "_visible"
2273  17010000           [007] loadbool   4   0   0    ; false
2277  22408002           [008] call       0   5   1  
227B  1D000000           [009] getglobal  0   0        ; mMovie
227F  24404000           [010] self       0   0   257  ; 471456102
2283  99000100           [011] loadk      2   4        ; "TreasuresList"
2287  D9C00000           [012] loadk      3   3        ; "_visible"
228B  17010000           [013] loadbool   4   0   0    ; false
228F  22408002           [014] call       0   5   1  
2293  13008000           [015] getupval   0   1      
2297  24404100           [016] self       0   0   261  ; 1865287165
229B  22800001           [017] call       0   2   2  
229F  4B000000           [018] newtable   1   0   0    ; array=0, hash=0
22A3  8B000000           [019] newtable   2   0   0    ; array=0, hash=0
22A7  DD800100           [020] getglobal  3   6        ; 1074689893
22AB  12010000           [021] move       4   0      
22AF  E2800001           [022] call       3   2   2  
22B3  D8400000           [023] test       3       1    ; to [25] if false
22B7  1AC01980           [024] jmp        104          ; to [129]
22BB  E4C04100           [025] self       3   0   263  ; 1224579474
22BF  E2800001           [026] call       3   2   2  
22C3  19010200           [027] loadk      4   8        ; 0
22C7  4A018001           [028] len        5   3      
22CB  99010200           [029] loadk      6   8        ; 0
22CF  10810A80           [030] forprep    4   43       ; to [74]
22D3  1D420200           [031] getglobal  8   9        ; 469076166
22D7  22428000           [032] call       8   1   1  
22DB  0EC28101           [033] gettable   8   3   7  
22DF  0E824204           [034] gettable   8   8   266  ; "mItemCount"
fail op	21
22E3  15008285           [035] concat     0   267 8  
22E7  1A000980           [036] jmp        37           ; to [74]
22EB  13020001           [037] getupval   8   2      
22EF  0E024304           [038] gettable   8   8   268  ; -686836152
22F3  5D020000           [039] getglobal  9   0        ; mMovie
22F7  93028001           [040] getupval   10  3      
22FB  CEC28101           [041] gettable   11  3   7  
22FF  CE42C305           [042] gettable   11  11  269  ; "mItemType"
2303  0EC38101           [043] gettable   12  3   7  
2307  22828002           [044] call       8   5   2  
230B  4EC28101           [045] gettable   9   3   7  
230F  0C420287           [046] settable   8   270 9    ; "Info"
2313  4EC28101           [047] gettable   9   3   7  
2317  4E82C204           [048] gettable   9   9   266  ; "mItemCount"
231B  0C428287           [049] settable   8   271 9    ; "Count"
231F  4B020001           [050] newtable   9   2   0    ; array=2, hash=0
2323  93020002           [051] getupval   10  4      
2327  8E424405           [052] gettable   10  10  273  ; "ALL"
232B  D3020002           [053] getupval   11  4      
232F  CE82C405           [054] gettable   11  11  274  ; "TREASURES"
2333  5B420001           [055] setlist    9   2   1    ; index 1 to 2
2337  0C420288           [056] settable   8   272 9    ; "Categories"
233B  5DC20400           [057] getglobal  9   19       ; table
233F  4E02C504           [058] gettable   9   9   276  ; -431682403
2343  93020000           [059] getupval   10  0      
2347  D2020004           [060] move       11  8      
234B  62428001           [061] call       9   3   1  
234F  4E424504           [062] gettable   9   8   277  ; "Type"
2353  6482C504           [063] self       9   9   278  ; 455421500
2357  62820001           [064] call       9   2   2  
235B  8E420201           [065] gettable   10  2   9  
fail op	35
235F  23C04505           [066] close      0  
2363  1A400180           [067] jmp        6            ; to [74]
2367  8C00C604           [068] settable   2   9   280  ; 1
236B  9DC20400           [069] getglobal  10  19       ; table
236F  8E024505           [070] gettable   10  10  276  ; -431682403
2373  D2028000           [071] move       11  1      
2377  12038004           [072] move       12  9      
237B  A2428001           [073] call       10  3   1  
237F  14C1F47F           [074] forloop    4   -44      ; to [31] if loop
2383  A4424600           [075] self       10  0   281  ; 858389503
2387  A2820001           [076] call       10  2   2  
238B  D9020200           [077] loadk      11  8        ; 0
238F  0A030005           [078] len        12  10     
2393  59030200           [079] loadk      13  8        ; 0
2397  D0820B80           [080] forprep    11  47       ; to [128]
239B  DD830100           [081] getglobal  15  6        ; 1074689893
239F  0E840305           [082] gettable   16  10  14 
23A3  0E444308           [083] gettable   16  16  269  ; "mItemType"
23A7  E2830001           [084] call       15  2   2  
23AB  D8430000           [085] test       15      1    ; to [87] if false
23AF  1A000A80           [086] jmp        41           ; to [128]
23B3  CE830305           [087] gettable   15  10  14 
23B7  CE43C307           [088] gettable   15  15  269  ; "mItemType"
23BB  E483C607           [089] self       15  15  282  ; -1957065004
23BF  53048002           [090] getupval   17  5      
23C3  E2838001           [091] call       15  3   2  
23C7  D8030000           [092] test       15      0    ; to [94] if true
23CB  1A400880           [093] jmp        34           ; to [128]
23CF  D3030001           [094] getupval   15  2      
23D3  CE03C307           [095] gettable   15  15  268  ; -686836152
23D7  1D040000           [096] getglobal  16  0        ; mMovie
23DB  53048001           [097] getupval   17  3      
23DF  8E840305           [098] gettable   18  10  14 
23E3  8E444309           [099] gettable   18  18  269  ; "mItemType"
23E7  E2830002           [100] call       15  4   2  
23EB  0E840305           [101] gettable   16  10  14 
23EF  0E844208           [102] gettable   16  16  266  ; "mItemCount"
23F3  CC038487           [103] settable   15  271 16   ; "Count"
23F7  0B040001           [104] newtable   16  2   0    ; array=2, hash=0
23FB  53040002           [105] getupval   17  4      
23FF  4E44C408           [106] gettable   17  17  273  ; "ALL"
2403  93040002           [107] getupval   18  4      
2407  8EC44609           [108] gettable   18  18  283  ; "ORNAMENTS"
240B  1B440001           [109] setlist    16  2   1    ; index 1 to 2
240F  CC030488           [110] settable   15  272 16   ; "Categories"
2413  1D840100           [111] getglobal  16  6        ; 1074689893
2417  4E44C507           [112] gettable   17  15  277  ; "Type"
241B  22840001           [113] call       16  2   2  
241F  18440000           [114] test       16      1    ; to [116] if false
2423  1AC00280           [115] jmp        12           ; to [128]
2427  1DC40400           [116] getglobal  16  19       ; table
242B  0E044508           [117] gettable   16  16  276  ; -431682403
242F  53040000           [118] getupval   17  0      
2433  92048007           [119] move       18  15     
2437  22448001           [120] call       16  3   1  
243B  1DC40400           [121] getglobal  16  19       ; table
243F  0E044508           [122] gettable   16  16  276  ; -431682403
2443  52048000           [123] move       17  1      
2447  8E44C507           [124] gettable   18  15  277  ; "Type"
244B  A4844509           [125] self       18  18  278  ; 455421500
244F  A2040001           [126] call       18  2   0  
2453  22440000           [127] call       16  0   1  
2457  D4C2F37F           [128] forloop    11  -48      ; to [81] if loop
245B  13040003           [129] getupval   16  6      
245F  24044708           [130] self       16  16  284  ; -492641364
2463  8A048000           [131] len        18  1      
fail op	21
2467  55808485           [132] concat     1   267 18 
246B  1A000080           [133] jmp        1            ; to [135]
246F  97440000           [134] loadbool   18  0   1    ; false, to [136]
2473  97048000           [135] loadbool   18  1   0    ; true
2477  22448001           [136] call       16  3   1  
247B  0A048000           [137] len        16  1      
fail op	21
247F  15008485           [138] concat     0   267 16 
2483  1AC00180           [139] jmp        8            ; to [148]
2487  13048003           [140] getupval   16  7      
248B  0C04C68E           [141] settable   16  285 280  ; "IsLoading" 1
248F  13048003           [142] getupval   16  7      
2493  5DC40700           [143] getglobal  17  31       ; UISys
2497  4E04C808           [144] gettable   17  17  288  ; 1151030240
249B  92048000           [145] move       18  1      
249F  62840001           [146] call       17  2   2  
24A3  0C44048F           [147] settable   16  286 17   ; "Loader"
24A7  13040000           [148] getupval   16  0      
24AB  0A040008           [149] len        16  16     
fail op	21
24AF  55008485           [150] concat     1   267 16 
24B3  1A000080           [151] jmp        1            ; to [153]
24B7  17440000           [152] loadbool   16  0   1    ; false, to [154]
24BB  17048000           [153] loadbool   16  1   0    ; true
24BF  5D040000           [154] getglobal  17  0        ; mMovie
24C3  6444C008           [155] self       17  17  257  ; 471456102
24C7  D9040400           [156] loadk      19  16       ; "Categories"
24CB  19C50000           [157] loadk      20  3        ; "_visible"
24CF  52050008           [158] move       21  16     
24D3  62448002           [159] call       17  5   1  
24D7  5D040000           [160] getglobal  17  0        ; mMovie
24DB  6444C008           [161] self       17  17  257  ; 471456102
24DF  D9440800           [162] loadk      19  33       ; "SortMenu"
24E3  19C50000           [163] loadk      20  3        ; "_visible"
24E7  52050008           [164] move       21  16     
24EB  62448002           [165] call       17  5   1  
24EF  5D040000           [166] getglobal  17  0        ; mMovie
24F3  6444C008           [167] self       17  17  257  ; 471456102
24F7  D9840800           [168] loadk      19  34       ; "NoTreasuresHint"
24FB  19C50000           [169] loadk      20  3        ; "_visible"
fail op	9
24FF  49050008           [170] settable   21  16  0  
2503  62448002           [171] call       17  5   1  
2507  1E008000           [172] return     0   1      
                         * constants:
250B  23                 sizek (35)
250C  04                 const type 4
250D  07                 string size (7)
250E  6D4D6F76696500     "mMovie\0"
                         const [0]: "mMovie"
2515  01                 const type 3
2516  66D9191C           const [1]: (471456102)
251A  04                 const type 4
251B  08                 string size (8)
251C  546F704D656E7500   "TopMenu\0"
                         const [2]: "TopMenu"
2524  04                 const type 4
2525  09                 string size (9)
2526  5F76697369626C65+  "_visible"
252E  00                 "\0"
                         const [3]: "_visible"
252F  04                 const type 4
2530  0E                 string size (14)
2531  5472656173757265+  "Treasure"
2539  734C69737400       "sList\0"
                         const [4]: "TreasuresList"
253F  01                 const type 3
2540  FD052E6F           const [5]: (1865287165)
2544  01                 const type 3
2545  65770E40           const [6]: (1074689893)
2549  01                 const type 3
254A  9299FD48           const [7]: (1224579474)
254E  03                 const type 3
254F  0000803F           const [8]: (0)
2553  01                 const type 3
2554  C688F51B           const [9]: (469076166)
2558  04                 const type 4
2559  0B                 string size (11)
255A  6D4974656D436F75+  "mItemCou"
2562  6E7400             "nt\0"
                         const [10]: "mItemCount"
2565  03                 const type 3
2566  00000000           const [11]: (0)
256A  01                 const type 3
256B  48B60FD7           const [12]: (-686836152)
256F  04                 const type 4
2570  0A                 string size (10)
2571  6D4974656D547970+  "mItemTyp"
2579  6500               "e\0"
                         const [13]: "mItemType"
257B  04                 const type 4
257C  05                 string size (5)
257D  496E666F00         "Info\0"
                         const [14]: "Info"
2582  04                 const type 4
2583  06                 string size (6)
2584  436F756E7400       "Count\0"
                         const [15]: "Count"
258A  04                 const type 4
258B  0B                 string size (11)
258C  43617465676F7269+  "Categori"
2594  657300             "es\0"
                         const [16]: "Categories"
2597  04                 const type 4
2598  04                 string size (4)
2599  414C4C00           "ALL\0"
                         const [17]: "ALL"
259D  04                 const type 4
259E  0A                 string size (10)
259F  5452454153555245+  "TREASURE"
25A7  5300               "S\0"
                         const [18]: "TREASURES"
25A9  04                 const type 4
25AA  06                 string size (6)
25AB  7461626C6500       "table\0"
                         const [19]: "table"
25B1  01                 const type 3
25B2  9D0C45E6           const [20]: (-431682403)
25B6  04                 const type 4
25B7  05                 string size (5)
25B8  5479706500         "Type\0"
                         const [21]: "Type"
25BD  01                 const type 3
25BE  3C2E251B           const [22]: (455421500)
25C2  00                 const type 0
                         const [23]: nil
25C3  01                 const type 3
25C4  01000000           const [24]: (1)
25C8  01                 const type 3
25C9  FFFB2933           const [25]: (858389503)
25CD  01                 const type 3
25CE  D48E598B           const [26]: (-1957065004)
25D2  04                 const type 4
25D3  0A                 string size (10)
25D4  4F524E414D454E54+  "ORNAMENT"
25DC  5300               "S\0"
                         const [27]: "ORNAMENTS"
25DE  01                 const type 3
25DF  ACE3A2E2           const [28]: (-492641364)
25E3  04                 const type 4
25E4  0A                 string size (10)
25E5  49734C6F6164696E+  "IsLoadin"
25ED  6700               "g\0"
                         const [29]: "IsLoading"
25EF  04                 const type 4
25F0  07                 string size (7)
25F1  4C6F6164657200     "Loader\0"
                         const [30]: "Loader"
25F8  04                 const type 4
25F9  06                 string size (6)
25FA  554953797300       "UISys\0"
                         const [31]: "UISys"
2600  01                 const type 3
2601  E0539B44           const [32]: (1151030240)
2605  04                 const type 4
2606  09                 string size (9)
2607  536F72744D656E75+  "SortMenu"
260F  00                 "\0"
                         const [33]: "SortMenu"
2610  04                 const type 4
2611  10                 string size (16)
2612  4E6F547265617375+  "NoTreasu"
261A  72657348696E7400   "resHint\0"
                         const [34]: "NoTreasuresHint"
                         * functions:
2622  00                 sizep (0)
                         * lines:
2624  01                 sizelineinfo (172)
                         [pc] (line)
2625  1D                 [001] (29)
2626  01                 [002] (29)
2627  00                 [003] (31)
2628  00                 [004] (31)
2629  1D                 [005] (31)
262A  01                 [006] (31)
262B  00                 [007] (31)
262C  00                 [008] (31)
262D  1F                 [009] (32)
262E  01                 [010] (32)
262F  00                 [011] (32)
2630  00                 [012] (32)
2631  1F                 [013] (32)
2632  01                 [014] (32)
2633  00                 [015] (34)
2634  00                 [016] (34)
2635  1F                 [017] (34)
2636  01                 [018] (35)
2637  00                 [019] (36)
2638  00                 [020] (37)
2639  1F                 [021] (37)
263A  01                 [022] (37)
263B  00                 [023] (37)
263C  00                 [024] (37)
263D  1F                 [025] (38)
263E  01                 [026] (38)
263F  00                 [027] (39)
2640  00                 [028] (39)
2641  1F                 [029] (39)
2642  01                 [030] (39)
2643  00                 [031] (40)
2644  00                 [032] (40)
2645  20                 [033] (41)
2646  01                 [034] (41)
2647  00                 [035] (41)
2648  00                 [036] (41)
2649  20                 [037] (42)
264A  01                 [038] (42)
264B  00                 [039] (42)
264C  00                 [040] (42)
264D  20                 [041] (42)
264E  01                 [042] (42)
264F  00                 [043] (42)
2650  00                 [044] (42)
2651  20                 [045] (43)
2652  01                 [046] (43)
2653  00                 [047] (44)
2654  00                 [048] (44)
2655  20                 [049] (44)
2656  01                 [050] (45)
2657  00                 [051] (45)
2658  00                 [052] (45)
2659  20                 [053] (45)
265A  01                 [054] (45)
265B  00                 [055] (45)
265C  00                 [056] (45)
265D  22                 [057] (47)
265E  01                 [058] (47)
265F  00                 [059] (47)
2660  00                 [060] (47)
2661  22                 [061] (47)
2662  01                 [062] (48)
2663  00                 [063] (48)
2664  00                 [064] (48)
2665  22                 [065] (49)
2666  01                 [066] (49)
2667  00                 [067] (49)
2668  00                 [068] (50)
2669  23                 [069] (51)
266A  01                 [070] (51)
266B  00                 [071] (51)
266C  00                 [072] (51)
266D  24                 [073] (51)
266E  01                 [074] (39)
266F  00                 [075] (56)
2670  00                 [076] (56)
2671  25                 [077] (57)
2672  01                 [078] (57)
2673  00                 [079] (57)
2674  00                 [080] (57)
2675  25                 [081] (58)
2676  01                 [082] (58)
2677  00                 [083] (58)
2678  00                 [084] (58)
2679  25                 [085] (58)
267A  01                 [086] (58)
267B  00                 [087] (58)
267C  00                 [088] (58)
267D  25                 [089] (58)
267E  01                 [090] (58)
267F  00                 [091] (58)
2680  00                 [092] (58)
2681  25                 [093] (58)
2682  01                 [094] (59)
2683  00                 [095] (59)
2684  00                 [096] (59)
2685  26                 [097] (59)
2686  01                 [098] (59)
2687  00                 [099] (59)
2688  00                 [100] (59)
2689  26                 [101] (60)
268A  01                 [102] (60)
268B  00                 [103] (60)
268C  00                 [104] (61)
268D  27                 [105] (61)
268E  01                 [106] (61)
268F  00                 [107] (61)
2690  00                 [108] (61)
2691  27                 [109] (61)
2692  01                 [110] (61)
2693  00                 [111] (63)
2694  00                 [112] (63)
2695  27                 [113] (63)
2696  01                 [114] (63)
2697  00                 [115] (63)
2698  00                 [116] (64)
2699  27                 [117] (64)
269A  01                 [118] (64)
269B  00                 [119] (64)
269C  00                 [120] (64)
269D  28                 [121] (65)
269E  01                 [122] (65)
269F  00                 [123] (65)
26A0  00                 [124] (65)
26A1  28                 [125] (65)
26A2  01                 [126] (65)
26A3  00                 [127] (65)
26A4  00                 [128] (57)
26A5  29                 [129] (71)
26A6  01                 [130] (71)
26A7  00                 [131] (71)
26A8  00                 [132] (71)
26A9  29                 [133] (71)
26AA  01                 [134] (71)
26AB  00                 [135] (71)
26AC  00                 [136] (71)
26AD  29                 [137] (72)
26AE  01                 [138] (72)
26AF  00                 [139] (72)
26B0  00                 [140] (73)
26B1  29                 [141] (73)
26B2  01                 [142] (74)
26B3  00                 [143] (74)
26B4  00                 [144] (74)
26B5  2A                 [145] (74)
26B6  01                 [146] (74)
26B7  00                 [147] (74)
26B8  00                 [148] (77)
26B9  2A                 [149] (77)
26BA  01                 [150] (77)
26BB  00                 [151] (77)
26BC  00                 [152] (77)
26BD  2A                 [153] (77)
26BE  01                 [154] (78)
26BF  00                 [155] (78)
26C0  00                 [156] (78)
26C1  2A                 [157] (78)
26C2  01                 [158] (78)
26C3  00                 [159] (78)
26C4  00                 [160] (79)
26C5  2A                 [161] (79)
26C6  01                 [162] (79)
26C7  00                 [163] (79)
26C8  00                 [164] (79)
26C9  2A                 [165] (79)
26CA  01                 [166] (80)
26CB  00                 [167] (80)
26CC  00                 [168] (80)
26CD  2A                 [169] (80)
26CE  01                 [170] (80)
26CF  00                 [171] (80)
26D0  00                 [172] (81)
                         * locals:
28D5  00                 sizelocvars (0)
                         * upvalues:
28D6  00                 sizeupvalues (0)
                         ** end of function **

                         
28D7                     ** function [10] definition (level 2)
                         ** start of function **
28D7  00                 string size (0)
                         source name: (none)
28D9  02                 line defined (339)
28DA  B5                 last line defined (437)
28DB  03                 nups (11)
28DC  0B                 numparams (0)
28DD  00                 is_vararg (0)
28DE  00                 maxstacksize (25)
                         * code:
28E1  01                 sizecode (135)
28E2  0B000000           [001] newtable   0   0   0    ; array=0, hash=0
28E6  4B000000           [002] newtable   1   0   0    ; array=0, hash=0
28EA  8B000000           [003] newtable   2   0   0    ; array=0, hash=0
28EE  E5000000           [004] closure    3   0      
28F2  12000000           [005] move       0   0      
28F6  13000000           [006] getupval   0   0      
28FA  13008000           [007] getupval   0   1      
28FE  13000001           [008] getupval   0   2      
2902  12008000           [009] move       0   1      
2906  12000001           [010] move       0   2      
290A  13008001           [011] getupval   0   3      
290E  13000002           [012] getupval   0   4      
2912  13018002           [013] getupval   4   5      
2916  0E014002           [014] gettable   4   4   256  ; 630793108
291A  5D410000           [015] getglobal  5   1        ; cameraZoomSound
291E  22410001           [016] call       4   2   1  
2922  25410000           [017] closure    4   1      
2926  13000002           [018] getupval   0   4      
292A  13008001           [019] getupval   0   3      
292E  5D810000           [020] getglobal  5   2        ; 1074689893
2932  93010001           [021] getupval   6   2      
2936  62810001           [022] call       5   2   2  
293A  58410000           [023] test       5       1    ; to [25] if false
293E  1A401B80           [024] jmp        110          ; to [135]
2942  5D810000           [025] getglobal  5   2        ; 1074689893
2946  93010001           [026] getupval   6   2      
294A  8EC14003           [027] gettable   6   6   259  ; "TreasureEntity"
294E  62810001           [028] call       5   2   2  
2952  58410000           [029] test       5       1    ; to [31] if false
2956  1AC01980           [030] jmp        104          ; to [135]
295A  53010001           [031] getupval   5   2      
295E  4EC1C002           [032] gettable   5   5   259  ; "TreasureEntity"
2962  6401C102           [033] self       5   5   260  ; -1793789657
2966  62810001           [034] call       5   2   2  
296A  99410100           [035] loadk      6   5        ; 0
296E  CA018002           [036] len        7   5      
2972  19420100           [037] loadk      8   5        ; 0
2976  90011080           [038] forprep    6   65       ; to [104]
297A  97020000           [039] loadbool   10  0   0    ; false
297E  D3020000           [040] getupval   11  0      
2982  D8020000           [041] test       11      0    ; to [43] if true
2986  1A000480           [042] jmp        17           ; to [60]
298A  D9420100           [043] loadk      11  5        ; 0
298E  13030003           [044] getupval   12  6      
2992  0E834106           [045] gettable   12  12  262  ; "SocketIds"
2996  0A030006           [046] len        12  12     
299A  59430100           [047] loadk      13  5        ; 0
299E  D0020280           [048] forprep    11  9        ; to [58]
29A2  D3030003           [049] getupval   15  6      
29A6  CE83C107           [050] gettable   15  15  262  ; "SocketIds"
29AA  CE838307           [051] gettable   15  15  14 
29AE  CEC3C107           [052] gettable   15  15  263  ; "Id"
29B2  C343C107           [053] add        15  15  261  ; 0
fail op	35
29B6  23C08304           [054] close      0  
29BA  1A400080           [055] jmp        2            ; to [58]
29BE  97028000           [056] loadbool   10  1   0    ; true
29C2  1A000280           [057] jmp        9            ; to [67]
29C6  D442FD7F           [058] forloop    11  -10      ; to [49] if loop
29CA  1A800180           [059] jmp        7            ; to [67]
29CE  D3038003           [060] getupval   15  7      
29D2  CEC3C107           [061] gettable   15  15  263  ; "Id"
29D6  C343C107           [062] add        15  15  261  ; 0
fail op	35
29DA  63C08304           [063] close      1  
29DE  1A000080           [064] jmp        1            ; to [66]
29E2  97420000           [065] loadbool   10  0   1    ; false, to [67]
29E6  97028000           [066] loadbool   10  1   0    ; true
29EA  98020000           [067] test       10      0    ; to [69] if true
29EE  1A800880           [068] jmp        35           ; to [104]
29F2  DD830000           [069] getglobal  15  2        ; 1074689893
29F6  0E448202           [070] gettable   16  5   9  
29FA  0E044208           [071] gettable   16  16  264  ; "mInstance"
29FE  E2830001           [072] call       15  2   2  
2A02  D8430000           [073] test       15      1    ; to [75] if false
2A06  1A000780           [074] jmp        29           ; to [104]
2A0A  CE438202           [075] gettable   15  5   9  
2A0E  CE03C207           [076] gettable   15  15  264  ; "mInstance"
2A12  E443C207           [077] self       15  15  265  ; 2109594123
2A16  57048000           [078] loadbool   17  1   0    ; true
2A1A  E2438001           [079] call       15  3   1  
2A1E  DD830200           [080] getglobal  15  10       ; table
2A22  CEC3C207           [081] gettable   15  15  267  ; -431682403
2A26  12040000           [082] move       16  0      
2A2A  4E448202           [083] gettable   17  5   9  
2A2E  4E04C208           [084] gettable   17  17  264  ; "mInstance"
2A32  E2438001           [085] call       15  3   1  
2A36  DD830200           [086] getglobal  15  10       ; table
2A3A  CEC3C207           [087] gettable   15  15  267  ; -431682403
2A3E  12048000           [088] move       16  1      
2A42  4E448202           [089] gettable   17  5   9  
2A46  6404C308           [090] self       17  17  268  ; -923144476
2A4A  62040001           [091] call       17  2   0  
2A4E  E2430000           [092] call       15  0   1  
2A52  DD830200           [093] getglobal  15  10       ; table
2A56  CEC3C207           [094] gettable   15  15  267  ; -431682403
2A5A  12040001           [095] move       16  2      
2A5E  4E448202           [096] gettable   17  5   9  
2A62  6444C308           [097] self       17  17  269  ; 253338038
2A66  62040001           [098] call       17  2   0  
2A6A  E2430000           [099] call       15  0   1  
2A6E  D3030000           [100] getupval   15  0      
2A72  D8430000           [101] test       15      1    ; to [103] if false
2A76  1A000080           [102] jmp        1            ; to [104]
2A7A  1A000080           [103] jmp        1            ; to [105]
2A7E  9441EF7F           [104] forloop    6   -66      ; to [39] if loop
2A82  CA030000           [105] len        15  0      
fail op	21
2A86  15C00387           [106] concat     0   270 15 
2A8A  1A800680           [107] jmp        27           ; to [135]
2A8E  D9C30300           [108] loadk      15  15       ; "SocketBtn1"
2A92  1D040400           [109] getglobal  16  16       ; 1390508688
2A96  5D440400           [110] getglobal  17  17       ; mMovie
2A9A  92048007           [111] move       18  15     
2A9E  DD840400           [112] getglobal  19  18       ; UISys
2AA2  CEC4C409           [113] gettable   19  19  275  ; "FlashInstance_SMOOTH_STEP"
2AA6  0B058000           [114] newtable   20  1   0    ; array=1, hash=0
2AAA  52058001           [115] move       21  3      
2AAE  1B458000           [116] setlist    20  1   1    ; index 1 to 1
2AB2  4B058000           [117] newtable   21  1   0    ; array=1, hash=0
2AB6  99450100           [118] loadk      22  5        ; 0
2ABA  5B458000           [119] setlist    21  1   1    ; index 1 to 1
2ABE  99050500           [120] loadk      22  20       ; 0
2AC2  D9850300           [121] loadk      23  14       ; 0
2AC6  25860000           [122] closure    24  2      
2ACA  13000004           [123] getupval   0   8      
2ACE  13000001           [124] getupval   0   2      
2AD2  13008004           [125] getupval   0   9      
2AD6  12000000           [126] move       0   0      
2ADA  13008002           [127] getupval   0   5      
2ADE  13000000           [128] getupval   0   0      
2AE2  13000005           [129] getupval   0   10     
2AE6  12008007           [130] move       0   15     
2AEA  12000002           [131] move       0   4      
2AEE  13008000           [132] getupval   0   1      
2AF2  22448004           [133] call       16  9   1  
2AF6  D1030000           [134] close      15 
2AFA  1E008000           [135] return     0   1      
                         * constants:
2AFE  15                 sizek (21)
2AFF  01                 const type 3
2B00  94239925           const [0]: (630793108)
2B04  04                 const type 4
2B05  10                 string size (16)
2B06  63616D6572615A6F+  "cameraZo"
2B0E  6F6D536F756E6400   "omSound\0"
                         const [1]: "cameraZoomSound"
2B16  01                 const type 3
2B17  65770E40           const [2]: (1074689893)
2B1B  04                 const type 4
2B1C  0F                 string size (15)
2B1D  5472656173757265+  "Treasure"
2B25  456E7469747900     "Entity\0"
                         const [3]: "TreasureEntity"
2B2C  01                 const type 3
2B2D  27F11495           const [4]: (-1793789657)
2B31  03                 const type 3
2B32  0000803F           const [5]: (0)
2B36  04                 const type 4
2B37  0A                 string size (10)
2B38  536F636B65744964+  "SocketId"
2B40  7300               "s\0"
                         const [6]: "SocketIds"
2B42  04                 const type 4
2B43  03                 string size (3)
2B44  496400             "Id\0"
                         const [7]: "Id"
2B47  04                 const type 4
2B48  0A                 string size (10)
2B49  6D496E7374616E63+  "mInstanc"
2B51  6500               "e\0"
                         const [8]: "mInstance"
2B53  01                 const type 3
2B54  0BDABD7D           const [9]: (2109594123)
2B58  04                 const type 4
2B59  06                 string size (6)
2B5A  7461626C6500       "table\0"
                         const [10]: "table"
2B60  01                 const type 3
2B61  9D0C45E6           const [11]: (-431682403)
2B65  01                 const type 3
2B66  E4EEF9C8           const [12]: (-923144476)
2B6A  01                 const type 3
2B6B  B6A1190F           const [13]: (253338038)
2B6F  03                 const type 3
2B70  00000000           const [14]: (0)
2B74  04                 const type 4
2B75  0B                 string size (11)
2B76  536F636B65744274+  "SocketBt"
2B7E  6E3100             "n1\0"
                         const [15]: "SocketBtn1"
2B81  01                 const type 3
2B82  907AE152           const [16]: (1390508688)
2B86  04                 const type 4
2B87  07                 string size (7)
2B88  6D4D6F76696500     "mMovie\0"
                         const [17]: "mMovie"
2B8F  04                 const type 4
2B90  06                 string size (6)
2B91  554953797300       "UISys\0"
                         const [18]: "UISys"
2B97  04                 const type 4
2B98  1A                 string size (26)
2B99  466C617368496E73+  "FlashIns"
2BA1  74616E63655F534D+  "tance_SM"
2BA9  4F4F54485F535445+  "OOTH_STE"
2BB1  5000               "P\0"
                         const [19]: "FlashInstance_SMOOTH_STEP"
2BB3  03                 const type 3
2BB4  0000A03F           const [20]: (0)
                         * functions:
2BB8  03                 sizep (3)
                         
2BB9                     ** function [0] definition (level 3)
                         ** start of function **
2BB9  00                 string size (0)
                         source name: (none)
2BBB  02                 line defined (347)
2BBC  EE                 last line defined (366)
2BBD  02                 nups (8)
2BBE  08                 numparams (1)
2BBF  01                 is_vararg (0)
2BC0  00                 maxstacksize (11)
                         * code:
2BC2  3D                 sizecode (61)
2BC3  59000000           [01] loadk      1   0        ; 0
2BC7  93000000           [02] getupval   2   0      
2BCB  8A000001           [03] len        2   2      
2BCF  D9000000           [04] loadk      3   0        ; 0
2BD3  50C00A80           [05] forprep    1   44       ; to [50]
2BD7  53010000           [06] getupval   5   0      
2BDB  4E018102           [07] gettable   5   5   4  
2BDF  9D410000           [08] getglobal  6   1        ; 1074689893
2BE3  D2018002           [09] move       7   5      
2BE7  A2810001           [10] call       6   2   2  
2BEB  98410000           [11] test       6       1    ; to [13] if false
2BEF  1A000980           [12] jmp        37           ; to [50]
2BF3  93018000           [13] getupval   6   1      
2BF7  98410000           [14] test       6       1    ; to [16] if false
2BFB  1AC00180           [15] jmp        8            ; to [24]
2BFF  A481C002           [16] self       6   5   258  ; 1839670529
2C03  A2810001           [17] call       6   2   2  
2C07  D3018001           [18] getupval   7   3      
2C0B  CEC1C003           [19] gettable   7   7   259  ; "Parent"
2C0F  E481C003           [20] self       7   7   258  ; 1839670529
2C13  E2810001           [21] call       7   2   2  
2C17  8DC10103           [22] sub        6   6   7  
fail op	8
2C1B  88010001           [23] setupval   6   2      
2C1F  9D010100           [24] getglobal  6   4        ; 1287559689
2C23  DD410100           [25] getglobal  7   5        ; 572299008
2C27  19820100           [26] loadk      8   6        ; 0
2C2B  59820100           [27] loadk      9   6        ; 0
2C2F  8D020080           [28] sub        10  256 0    ; 0
2C33  84C24105           [29] mul        10  10  263  ; -102
2C37  E2810002           [30] call       7   4   2  
2C3B  13020002           [31] getupval   8   4      
2C3F  0E020104           [32] gettable   8   8   4  
2C43  A2818001           [33] call       6   3   2  
2C47  E401C202           [34] self       7   5   264  ; -1484030041
2C4B  53028002           [35] getupval   9   5      
2C4F  4E028104           [36] gettable   9   9   4  
2C53  43828104           [37] add        9   9   6  
2C57  93020002           [38] getupval   10  4      
2C5B  8E020105           [39] gettable   10  10  4  
2C5F  E2410002           [40] call       7   4   1  
2C63  E441C202           [41] self       7   5   265  ; -112584775
2C67  5D820200           [42] getglobal  9   10       ; leadUpEffect
2C6B  E2818001           [43] call       7   3   2  
2C6F  D8410000           [44] test       7       1    ; to [46] if false
2C73  1AC00080           [45] jmp        4            ; to [50]
2C77  E4C1C202           [46] self       7   5   267  ; -1421644046
2C7B  5D820200           [47] getglobal  9   10       ; leadUpEffect
2C7F  9D020300           [48] getglobal  10  12       ; EMPTY_SYMBOL
2C83  E2410002           [49] call       7   4   1  
2C87  5480F47F           [50] forloop    1   -45      ; to [6] if loop
2C8B  D3018000           [51] getupval   7   1      
2C8F  D8410000           [52] test       7       1    ; to [54] if false
2C93  1A800180           [53] jmp        7            ; to [61]
fail op	8
2C97  08000003           [54] setupval   0   6      
2C9B  DD410300           [55] getglobal  7   13       ; -1828500651
2C9F  19020000           [56] loadk      8   0        ; 0
2CA3  59820300           [57] loadk      9   14       ; -102
2CA7  92020000           [58] move       10  0      
2CAB  E2810002           [59] call       7   4   2  
fail op	8
2CAF  C8018003           [60] setupval   7   7      
2CB3  1E008000           [61] return     0   1      
                         * constants:
2CB7  0F                 sizek (15)
2CB8  03                 const type 3
2CB9  0000803F           const [0]: (0)
2CBD  01                 const type 3
2CBE  65770E40           const [1]: (1074689893)
2CC2  01                 const type 3
2CC3  0125A76D           const [2]: (1839670529)
2CC7  04                 const type 4
2CC8  07                 string size (7)
2CC9  506172656E7400     "Parent\0"
                         const [3]: "Parent"
2CD0  01                 const type 3
2CD1  099ABE4C           const [4]: (1287559689)
2CD5  01                 const type 3
2CD6  00971C22           const [5]: (572299008)
2CDA  03                 const type 3
2CDB  00000000           const [6]: (0)
2CDF  03                 const type 3
2CE0  9A99193E           const [7]: (-102)
2CE4  01                 const type 3
2CE5  A77F8BA7           const [8]: (-1484030041)
2CE9  01                 const type 3
2CEA  B9174AF9           const [9]: (-112584775)
2CEE  04                 const type 4
2CEF  0D                 string size (13)
2CF0  6C65616455704566+  "leadUpEf"
2CF8  6665637400         "fect\0"
                         const [10]: "leadUpEffect"
2CFD  01                 const type 3
2CFE  F26E43AB           const [11]: (-1421644046)
2D02  04                 const type 4
2D03  0D                 string size (13)
2D04  454D5054595F5359+  "EMPTY_SY"
2D0C  4D424F4C00         "MBOL\0"
                         const [12]: "EMPTY_SYMBOL"
2D11  01                 const type 3
2D12  554B0393           const [13]: (-1828500651)
2D16  03                 const type 3
2D17  9A99993E           const [14]: (-102)
                         * functions:
2D1B  00                 sizep (0)
                         * lines:
2D1C  3D                 sizelineinfo (61)
                         [pc] (line)
2D1D  5C                 [01] (92)
2D1E  01                 [02] (92)
2D1F  00                 [03] (92)
2D20  00                 [04] (92)
2D21  5C                 [05] (92)
2D22  01                 [06] (93)
2D23  00                 [07] (93)
2D24  00                 [08] (94)
2D25  5C                 [09] (94)
2D26  01                 [10] (94)
2D27  00                 [11] (94)
2D28  00                 [12] (94)
2D29  5C                 [13] (95)
2D2A  01                 [14] (95)
2D2B  00                 [15] (95)
2D2C  00                 [16] (96)
2D2D  5C                 [17] (96)
2D2E  01                 [18] (96)
2D2F  00                 [19] (96)
2D30  00                 [20] (96)
2D31  5D                 [21] (96)
2D32  01                 [22] (96)
2D33  00                 [23] (96)
2D34  00                 [24] (99)
2D35  5D                 [25] (99)
2D36  01                 [26] (99)
2D37  00                 [27] (99)
2D38  00                 [28] (99)
2D39  5E                 [29] (99)
2D3A  01                 [30] (99)
2D3B  00                 [31] (99)
2D3C  00                 [32] (99)
2D3D  5E                 [33] (99)
2D3E  01                 [34] (100)
2D3F  00                 [35] (100)
2D40  00                 [36] (100)
2D41  5E                 [37] (100)
2D42  01                 [38] (100)
2D43  00                 [39] (100)
2D44  00                 [40] (100)
2D45  5E                 [41] (101)
2D46  01                 [42] (101)
2D47  00                 [43] (101)
2D48  00                 [44] (101)
2D49  5E                 [45] (101)
2D4A  01                 [46] (102)
2D4B  00                 [47] (102)
2D4C  00                 [48] (102)
2D4D  5F                 [49] (102)
2D4E  01                 [50] (92)
2D4F  00                 [51] (106)
2D50  00                 [52] (106)
2D51  5F                 [53] (106)
2D52  01                 [54] (107)
2D53  00                 [55] (108)
2D54  00                 [56] (108)
2D55  5F                 [57] (108)
2D56  01                 [58] (108)
2D57  00                 [59] (108)
2D58  00                 [60] (108)
2D59  60                 [61] (110)
                         * locals:
2E11  00                 sizelocvars (0)
                         * upvalues:
2E12  00                 sizeupvalues (0)
                         ** end of function **

                         
2E13                     ** function [1] definition (level 3)
                         ** start of function **
2E13  00                 string size (0)
                         source name: (none)
2E15  02                 line defined (371)
2E16  F7                 last line defined (375)
2E17  02                 nups (2)
2E18  02                 numparams (1)
2E19  01                 is_vararg (0)
2E1A  00                 maxstacksize (5)
                         * code:
2E1C  09                 sizecode (9)
2E1D  5D000000           [1] getglobal  1   0        ; -1828500651
2E21  99400000           [2] loadk      2   1        ; -102
2E25  D9800000           [3] loadk      3   2        ; 0
2E29  12010000           [4] move       4   0      
2E2D  62800002           [5] call       1   4   2  
fail op	8
2E31  48000000           [6] setupval   1   0      
2E35  4D000081           [7] sub        1   258 0    ; 0
fail op	8
2E39  48008000           [8] setupval   1   1      
2E3D  1E008000           [9] return     0   1      
                         * constants:
2E41  03                 sizek (3)
2E42  01                 const type 3
2E43  554B0393           const [0]: (-1828500651)
2E47  03                 const type 3
2E48  9A99993E           const [1]: (-102)
2E4C  03                 const type 3
2E4D  0000803F           const [2]: (0)
                         * functions:
2E51  00                 sizep (0)
                         * lines:
2E52  09                 sizelineinfo (9)
                         [pc] (line)
2E53  74                 [1] (116)
2E54  01                 [2] (116)
2E55  00                 [3] (116)
2E56  00                 [4] (116)
2E57  74                 [5] (116)
2E58  01                 [6] (116)
2E59  00                 [7] (118)
2E5A  00                 [8] (118)
2E5B  74                 [9] (119)
                         * locals:
2E77  00                 sizelocvars (0)
                         * upvalues:
2E78  00                 sizeupvalues (0)
                         ** end of function **

                         
2E79                     ** function [2] definition (level 3)
                         ** start of function **
2E79  00                 string size (0)
                         source name: (none)
2E7B  03                 line defined (408)
2E7C  B2                 last line defined (434)
2E7D  03                 nups (10)
2E7E  0A                 numparams (0)
2E7F  00                 is_vararg (0)
2E80  00                 maxstacksize (13)
                         * code:
2E82  44                 sizecode (68)
2E83  1D000000           [01] getglobal  0   0        ; 1074689893
2E87  53000000           [02] getupval   1   0      
2E8B  22800001           [03] call       0   2   2  
2E8F  18000000           [04] test       0       0    ; to [6] if true
2E93  1A000080           [05] jmp        1            ; to [7]
2E97  1E008000           [06] return     0   1      
2E9B  13008000           [07] getupval   0   1      
2E9F  0E404000           [08] gettable   0   0   257  ; "TreasureEntity"
2EA3  24804000           [09] self       0   0   258  ; -1067510516
2EA7  93000000           [10] getupval   2   0      
2EAB  8EC04001           [11] gettable   2   2   259  ; "Info"
2EAF  8E004101           [12] gettable   2   2   260  ; "mSockets"
2EB3  22408001           [13] call       0   3   1  
2EB7  13000001           [14] getupval   0   2      
2EBB  22408000           [15] call       0   1   1  
2EBF  19400100           [16] loadk      0   5        ; 0
2EC3  53008001           [17] getupval   1   3      
2EC7  4A008000           [18] len        1   1      
2ECB  99400100           [19] loadk      2   5        ; 0
2ECF  10400180           [20] forprep    0   6        ; to [27]
2ED3  13018001           [21] getupval   4   3      
2ED7  0EC10002           [22] gettable   4   4   3  
2EDB  24814102           [23] self       4   4   262  ; -1421644046
2EDF  9DC10100           [24] getglobal  6   7        ; installedEffect
2EE3  DD010200           [25] getglobal  7   8        ; EMPTY_SYMBOL
2EE7  22410002           [26] call       4   4   1  
2EEB  1400FE7F           [27] forloop    0   -7       ; to [21] if loop
2EEF  13018000           [28] getupval   4   1      
2EF3  0E414202           [29] gettable   4   4   265  ; "FilledSockets"
2EF7  53018000           [30] getupval   5   1      
2EFB  4E81C202           [31] gettable   5   5   266  ; "NumSockets"
fail op	35
2EFF  23400102           [32] close      0  
2F03  1A000180           [33] jmp        5            ; to [39]
2F07  13010002           [34] getupval   4   4      
2F0B  0EC14202           [35] gettable   4   4   267  ; 630793108
2F0F  5D010300           [36] getglobal  5   12       ; finalSocketFilledSound
2F13  22410001           [37] call       4   2   1  
2F17  1AC00080           [38] jmp        4            ; to [43]
2F1B  13010002           [39] getupval   4   4      
2F1F  0EC14202           [40] gettable   4   4   267  ; 630793108
2F23  5D410300           [41] getglobal  5   13       ; socketFilledSound
2F27  22410001           [42] call       4   2   1  
2F2B  13018002           [43] getupval   4   5      
2F2F  18010000           [44] test       4       0    ; to [46] if true
2F33  1A000180           [45] jmp        5            ; to [51]
2F37  17010000           [46] loadbool   4   0   0    ; false
fail op	8
2F3B  08010003           [47] setupval   4   6      
2F3F  17010000           [48] loadbool   4   0   0    ; false
fail op	8
2F43  08018002           [49] setupval   4   5      
2F47  1A000480           [50] jmp        17           ; to [68]
2F4B  1D810300           [51] getglobal  4   14       ; 1390508688
2F4F  5DC10300           [52] getglobal  5   15       ; mMovie
2F53  93018003           [53] getupval   6   7      
2F57  DD010400           [54] getglobal  7   16       ; UISys
2F5B  CE41C403           [55] gettable   7   7   273  ; "FlashInstance_SMOOTH_STEP"
2F5F  0B028000           [56] newtable   8   1   0    ; array=1, hash=0
2F63  53020004           [57] getupval   9   8      
2F67  1B428000           [58] setlist    8   1   1    ; index 1 to 1
2F6B  4B028000           [59] newtable   9   1   0    ; array=1, hash=0
2F6F  99420100           [60] loadk      10  5        ; 0
2F73  5B428000           [61] setlist    9   1   1    ; index 1 to 1
2F77  99820400           [62] loadk      10  18       ; -51
2F7B  D9C20400           [63] loadk      11  19       ; -51
2F7F  25030000           [64] closure    12  0      
2F83  13008004           [65] getupval   0   9      
2F87  13000003           [66] getupval   0   6      
2F8B  22418004           [67] call       4   9   1  
2F8F  1E008000           [68] return     0   1      
                         * constants:
2F93  14                 sizek (20)
2F94  01                 const type 3
2F95  65770E40           const [0]: (1074689893)
2F99  04                 const type 4
2F9A  0F                 string size (15)
2F9B  5472656173757265+  "Treasure"
2FA3  456E7469747900     "Entity\0"
                         const [1]: "TreasureEntity"
2FAA  01                 const type 3
2FAB  0C155FC0           const [2]: (-1067510516)
2FAF  04                 const type 4
2FB0  05                 string size (5)
2FB1  496E666F00         "Info\0"
                         const [3]: "Info"
2FB6  04                 const type 4
2FB7  09                 string size (9)
2FB8  6D536F636B657473+  "mSockets"
2FC0  00                 "\0"
                         const [4]: "mSockets"
2FC1  03                 const type 3
2FC2  0000803F           const [5]: (0)
2FC6  01                 const type 3
2FC7  F26E43AB           const [6]: (-1421644046)
2FCB  04                 const type 4
2FCC  10                 string size (16)
2FCD  696E7374616C6C65+  "installe"
2FD5  6445666665637400   "dEffect\0"
                         const [7]: "installedEffect"
2FDD  04                 const type 4
2FDE  0D                 string size (13)
2FDF  454D5054595F5359+  "EMPTY_SY"
2FE7  4D424F4C00         "MBOL\0"
                         const [8]: "EMPTY_SYMBOL"
2FEC  04                 const type 4
2FED  0E                 string size (14)
2FEE  46696C6C6564536F+  "FilledSo"
2FF6  636B65747300       "ckets\0"
                         const [9]: "FilledSockets"
2FFC  04                 const type 4
2FFD  0B                 string size (11)
2FFE  4E756D536F636B65+  "NumSocke"
3006  747300             "ts\0"
                         const [10]: "NumSockets"
3009  01                 const type 3
300A  94239925           const [11]: (630793108)
300E  04                 const type 4
300F  17                 string size (23)
3010  66696E616C536F63+  "finalSoc"
3018  6B657446696C6C65+  "ketFille"
3020  64536F756E6400     "dSound\0"
                         const [12]: "finalSocketFilledSound"
3027  04                 const type 4
3028  12                 string size (18)
3029  736F636B65744669+  "socketFi"
3031  6C6C6564536F756E+  "lledSoun"
3039  6400               "d\0"
                         const [13]: "socketFilledSound"
303B  01                 const type 3
303C  907AE152           const [14]: (1390508688)
3040  04                 const type 4
3041  07                 string size (7)
3042  6D4D6F76696500     "mMovie\0"
                         const [15]: "mMovie"
3049  04                 const type 4
304A  06                 string size (6)
304B  554953797300       "UISys\0"
                         const [16]: "UISys"
3051  04                 const type 4
3052  1A                 string size (26)
3053  466C617368496E73+  "FlashIns"
305B  74616E63655F534D+  "tance_SM"
3063  4F4F54485F535445+  "OOTH_STE"
306B  5000               "P\0"
                         const [17]: "FlashInstance_SMOOTH_STEP"
306D  03                 const type 3
306E  CDCC0C3F           const [18]: (-51)
3072  03                 const type 3
3073  CDCC4C3E           const [19]: (-51)
                         * functions:
3077  01                 sizep (1)
                         
3078                     ** function [0] definition (level 4)
                         ** start of function **
3078  00                 string size (0)
                         source name: (none)
307A  03                 line defined (429)
307B  B0                 last line defined (432)
307C  03                 nups (2)
307D  02                 numparams (0)
307E  00                 is_vararg (0)
307F  00                 maxstacksize (2)
                         * code:
3081  04                 sizecode (4)
fail op	8
3082  08000000           [1] setupval   0   0      
3086  17000000           [2] loadbool   0   0   0    ; false
fail op	8
308A  08008000           [3] setupval   0   1      
308E  1E008000           [4] return     0   1      
                         * constants:
3092  00                 sizek (0)
                         * functions:
3093  00                 sizep (0)
                         * lines:
3094  04                 sizelineinfo (4)
                         [pc] (line)
3095  AE                 [1] (-82)
3096  01                 [2] (-81)
3097  00                 [3] (-81)
3098  00                 [4] (-80)
                         * locals:
30A5  00                 sizelocvars (0)
                         * upvalues:
30A6  00                 sizeupvalues (0)
                         ** end of function **

                         * lines:
30A7  44                 sizelineinfo (68)
                         [pc] (line)
30A8  99                 [01] (-103)
30A9  01                 [02] (-103)
30AA  00                 [03] (-103)
30AB  00                 [04] (-103)
30AC  99                 [05] (-103)
30AD  01                 [06] (-102)
30AE  00                 [07] (-100)
30AF  00                 [08] (-100)
30B0  99                 [09] (-100)
30B1  01                 [10] (-100)
30B2  00                 [11] (-100)
30B3  00                 [12] (-100)
30B4  99                 [13] (-100)
30B5  01                 [14] (-99)
30B6  00                 [15] (-99)
30B7  00                 [16] (-98)
30B8  99                 [17] (-98)
30B9  01                 [18] (-98)
30BA  00                 [19] (-98)
30BB  00                 [20] (-98)
30BC  9A                 [21] (-97)
30BD  01                 [22] (-97)
30BE  00                 [23] (-97)
30BF  00                 [24] (-97)
30C0  9C                 [25] (-97)
30C1  01                 [26] (-97)
30C2  00                 [27] (-98)
30C3  00                 [28] (-94)
30C4  9C                 [29] (-94)
30C5  01                 [30] (-94)
30C6  00                 [31] (-94)
30C7  00                 [32] (-94)
30C8  9C                 [33] (-94)
30C9  01                 [34] (-93)
30CA  00                 [35] (-93)
30CB  00                 [36] (-93)
30CC  9C                 [37] (-93)
30CD  01                 [38] (-93)
30CE  00                 [39] (-91)
30CF  00                 [40] (-91)
30D0  9C                 [41] (-91)
30D1  01                 [42] (-91)
30D2  00                 [43] (-88)
30D3  00                 [44] (-88)
30D4  9C                 [45] (-88)
30D5  01                 [46] (-87)
30D6  00                 [47] (-87)
30D7  00                 [48] (-86)
30D8  9C                 [49] (-86)
30D9  01                 [50] (-86)
30DA  00                 [51] (-84)
30DB  00                 [52] (-84)
30DC  9D                 [53] (-84)
30DD  01                 [54] (-84)
30DE  00                 [55] (-84)
30DF  00                 [56] (-84)
30E0  9D                 [57] (-84)
30E1  01                 [58] (-84)
30E2  00                 [59] (-84)
30E3  00                 [60] (-84)
30E4  9E                 [61] (-84)
30E5  01                 [62] (-84)
30E6  00                 [63] (-84)
30E7  00                 [64] (-80)
30E8  9E                 [65] (-80)
30E9  01                 [66] (-80)
30EA  00                 [67] (-84)
30EB  00                 [68] (-78)
                         * locals:
31B8  00                 sizelocvars (0)
                         * upvalues:
31B9  00                 sizeupvalues (0)
                         ** end of function **

                         * lines:
31BB  01                 sizelineinfo (135)
                         [pc] (line)
31BC  54                 [001] (84)
31BD  01                 [002] (85)
31BE  00                 [003] (86)
31BF  00                 [004] (110)
31C0  55                 [005] (110)
31C1  01                 [006] (110)
31C2  00                 [007] (110)
31C3  00                 [008] (110)
31C4  56                 [009] (110)
31C5  01                 [010] (110)
31C6  00                 [011] (110)
31C7  00                 [012] (110)
31C8  6E                 [013] (112)
31C9  01                 [014] (112)
31CA  00                 [015] (112)
31CB  00                 [016] (112)
31CC  6E                 [017] (119)
31CD  01                 [018] (119)
31CE  00                 [019] (119)
31CF  00                 [020] (121)
31D0  6E                 [021] (121)
31D1  01                 [022] (121)
31D2  00                 [023] (121)
31D3  00                 [024] (121)
31D4  6E                 [025] (121)
31D5  01                 [026] (121)
31D6  00                 [027] (121)
31D7  00                 [028] (121)
31D8  6E                 [029] (121)
31D9  01                 [030] (121)
31DA  00                 [031] (122)
31DB  00                 [032] (122)
31DC  6E                 [033] (122)
31DD  01                 [034] (122)
31DE  00                 [035] (123)
31DF  00                 [036] (123)
31E0  6E                 [037] (123)
31E1  01                 [038] (123)
31E2  00                 [039] (124)
31E3  00                 [040] (125)
31E4  6E                 [041] (125)
31E5  01                 [042] (125)
31E6  00                 [043] (126)
31E7  00                 [044] (126)
31E8  6E                 [045] (126)
31E9  01                 [046] (126)
31EA  00                 [047] (126)
31EB  00                 [048] (126)
31EC  70                 [049] (127)
31ED  01                 [050] (127)
31EE  00                 [051] (127)
31EF  00                 [052] (127)
31F0  70                 [053] (127)
31F1  01                 [054] (127)
31F2  00                 [055] (127)
31F3  00                 [056] (-128)
31F4  70                 [057] (-126)
31F5  01                 [058] (126)
31F6  00                 [059] (-124)
31F7  00                 [060] (-122)
31F8  70                 [061] (-122)
31F9  01                 [062] (-122)
31FA  00                 [063] (-122)
31FB  00                 [064] (-122)
31FC  77                 [065] (-122)
31FD  01                 [066] (-122)
31FE  00                 [067] (-119)
31FF  00                 [068] (-119)
3200  77                 [069] (-119)
3201  01                 [070] (-119)
3202  00                 [071] (-119)
3203  00                 [072] (-119)
3204  77                 [073] (-119)
3205  01                 [074] (-119)
3206  00                 [075] (-118)
3207  00                 [076] (-118)
3208  79                 [077] (-118)
3209  01                 [078] (-118)
320A  00                 [079] (-118)
320B  00                 [080] (-117)
320C  79                 [081] (-117)
320D  01                 [082] (-117)
320E  00                 [083] (-117)
320F  00                 [084] (-117)
3210  79                 [085] (-117)
3211  01                 [086] (-116)
3212  00                 [087] (-116)
3213  00                 [088] (-116)
3214  79                 [089] (-116)
3215  01                 [090] (-116)
3216  00                 [091] (-116)
3217  00                 [092] (-116)
3218  79                 [093] (-115)
3219  01                 [094] (-115)
321A  00                 [095] (-115)
321B  00                 [096] (-115)
321C  79                 [097] (-115)
321D  01                 [098] (-115)
321E  00                 [099] (-115)
321F  00                 [100] (-113)
3220  79                 [101] (-113)
3221  01                 [102] (-113)
3222  00                 [103] (-112)
3223  00                 [104] (123)
3224  79                 [105] (-107)
3225  01                 [106] (-107)
3226  00                 [107] (-107)
3227  00                 [108] (-106)
3228  79                 [109] (-105)
3229  01                 [110] (-105)
322A  00                 [111] (-105)
322B  00                 [112] (-105)
322C  79                 [113] (-105)
322D  01                 [114] (-105)
322E  00                 [115] (-105)
322F  00                 [116] (-105)
3230  79                 [117] (-105)
3231  01                 [118] (-105)
3232  00                 [119] (-105)
3233  00                 [120] (-105)
3234  7A                 [121] (-105)
3235  01                 [122] (-78)
3236  00                 [123] (-78)
3237  00                 [124] (-78)
3238  7A                 [125] (-78)
3239  01                 [126] (-78)
323A  00                 [127] (-78)
323B  00                 [128] (-78)
323C  7A                 [129] (-78)
323D  01                 [130] (-78)
323E  00                 [131] (-78)
323F  00                 [132] (-78)
3240  7A                 [133] (-105)
3241  01                 [134] (-78)
3242  00                 [135] (-75)
                         * locals:
33D8  00                 sizelocvars (0)
                         * upvalues:
33D9  00                 sizeupvalues (0)
                         ** end of function **

                         
33DA                     ** function [11] definition (level 2)
                         ** start of function **
33DA  00                 string size (0)
                         source name: (none)
33DC  03                 line defined (439)
33DD  B8                 last line defined (440)
33DE  03                 nups (0)
33DF  00                 numparams (2)
33E0  02                 is_vararg (0)
33E1  00                 maxstacksize (2)
                         * code:
33E3  01                 sizecode (1)
33E4  1E008000           [1] return     0   1      
                         * constants:
33E8  00                 sizek (0)
                         * functions:
33E9  00                 sizep (0)
                         * lines:
33EA  01                 sizelineinfo (1)
                         [pc] (line)
33EB  B8                 [1] (-72)
                         * locals:
33EF  00                 sizelocvars (0)
                         * upvalues:
33F0  00                 sizeupvalues (0)
                         ** end of function **

                         
33F1                     ** function [12] definition (level 2)
                         ** start of function **
33F1  00                 string size (0)
                         source name: (none)
33F3  03                 line defined (442)
33F4  A9                 last line defined (553)
33F5  04                 nups (14)
33F6  0E                 numparams (2)
33F7  02                 is_vararg (0)
33F8  00                 maxstacksize (45)
                         * code:
33FB  02                 sizecode (338)
33FC  9D000000           [001] getglobal  2   0        ; _T
3400  8E404001           [002] gettable   2   2   257  ; "BackgroundMovie"
3404  A4804001           [003] self       2   2   258  ; 1167009705
3408  19C10000           [004] loadk      4   3        ; "ShowBlockingMessage"
340C  59010100           [005] loadk      5   4        ; "0"
3410  A2400002           [006] call       2   4   1  
3414  18400000           [007] test       0       1    ; to [9] if false
3418  1AC00880           [008] jmp        36           ; to [45]
341C  93000000           [009] getupval   2   0      
3420  8E404101           [010] gettable   2   2   261  ; 185724978
3424  D9800100           [011] loadk      3   6        ; "/Lotus/Language/Menu/FusionTreasureMgr_SocketItemFailed"
3428  A2400001           [012] call       2   2   1  
342C  93008000           [013] getupval   2   1      
3430  98000000           [014] test       2       0    ; to [16] if true
3434  1A000480           [015] jmp        17           ; to [33]
3438  99C00100           [016] loadk      2   7        ; 0
343C  D3000001           [017] getupval   3   2      
3440  CE00C201           [018] gettable   3   3   264  ; "SocketIds"
3444  CA008001           [019] len        3   3      
3448  19C10100           [020] loadk      4   7        ; 0
344C  90000280           [021] forprep    2   9        ; to [31]
3450  93018001           [022] getupval   6   3      
3454  8E414203           [023] gettable   6   6   265  ; "Info"
3458  A4814203           [024] self       6   6   266  ; -1921912834
345C  13020001           [025] getupval   8   2      
3460  0E024204           [026] gettable   8   8   264  ; "SocketIds"
3464  0E420104           [027] gettable   8   8   5  
3468  0EC24204           [028] gettable   8   8   267  ; "Id"
346C  57020000           [029] loadbool   9   0   0    ; false
3470  A2410002           [030] call       6   4   1  
3474  9440FD7F           [031] forloop    2   -10      ; to [22] if loop
3478  1A800180           [032] jmp        7            ; to [40]
347C  93018001           [033] getupval   6   3      
3480  8E414203           [034] gettable   6   6   265  ; "Info"
3484  A4814203           [035] self       6   6   266  ; -1921912834
3488  13020002           [036] getupval   8   4      
348C  0EC24204           [037] gettable   8   8   267  ; "Id"
3490  57020000           [038] loadbool   9   0   0    ; false
3494  A2410002           [039] call       6   4   1  
3498  97010000           [040] loadbool   6   0   0    ; false
fail op	8
349C  88018002           [041] setupval   6   5      
34A0  97010000           [042] loadbool   6   0   0    ; false
fail op	8
34A4  88018000           [043] setupval   6   1      
34A8  1A004980           [044] jmp        293          ; to [338]
34AC  93010003           [045] getupval   6   6      
34B0  A2418000           [046] call       6   1   1  
34B4  99C10100           [047] loadk      6   7        ; 0
34B8  D3018003           [048] getupval   7   7      
34BC  CA018003           [049] len        7   7      
34C0  19C20100           [050] loadk      8   7        ; 0
34C4  90410A80           [051] forprep    6   42       ; to [94]
34C8  93028000           [052] getupval   10  1      
34CC  98020000           [053] test       10      0    ; to [55] if true
34D0  1A800580           [054] jmp        23           ; to [78]
34D4  9D020300           [055] getglobal  10  12       ; 248503575
34D8  D3020001           [056] getupval   11  2      
34DC  CE42C305           [057] gettable   11  11  269  ; "ReqTypes"
34E0  A2020101           [058] call       10  2   4  
34E4  1A800380           [059] jmp        15           ; to [75]
34E8  D3038003           [060] getupval   15  7      
34EC  CE438207           [061] gettable   15  15  9  
34F0  CE83C307           [062] gettable   15  15  270  ; "Type"
34F4  E4C3C307           [063] self       15  15  271  ; 455421500
34F8  E2830001           [064] call       15  2   2  
fail op	35
34FC  23408307           [065] close      0  
3500  1AC00180           [066] jmp        8            ; to [75]
3504  D3038003           [067] getupval   15  7      
3508  CE438207           [068] gettable   15  15  9  
350C  13048003           [069] getupval   16  7      
3510  0E440208           [070] gettable   16  16  9  
3514  0E044408           [071] gettable   16  16  272  ; "Count"
3518  4E444407           [072] gettable   17  14  273  ; "Req"
351C  0D440408           [073] sub        16  16  17 
3520  CC030488           [074] settable   15  272 16   ; "Count"
3524  96820000           [075] tforloop   10      2    ; to [77] if exit
3528  1A80FB7F           [076] jmp        -17          ; to [60]
352C  1AC00380           [077] jmp        16           ; to [94]
3530  D3038003           [078] getupval   15  7      
3534  CE438207           [079] gettable   15  15  9  
3538  CE83C307           [080] gettable   15  15  270  ; "Type"
353C  13040002           [081] getupval   16  4      
3540  0E844408           [082] gettable   16  16  274  ; "ItemInfo"
3544  0E844308           [083] gettable   16  16  270  ; "Type"
fail op	35
3548  23008407           [084] close      0  
354C  1AC00180           [085] jmp        8            ; to [94]
3550  D3038003           [086] getupval   15  7      
3554  CE438207           [087] gettable   15  15  9  
3558  13048003           [088] getupval   16  7      
355C  0E440208           [089] gettable   16  16  9  
3560  0E044408           [090] gettable   16  16  272  ; "Count"
3564  0DC44108           [091] sub        16  16  263  ; 0
3568  CC030488           [092] settable   15  272 16   ; "Count"
356C  1A000080           [093] jmp        1            ; to [95]
3570  9401F57F           [094] forloop    6   -43      ; to [52] if loop
3574  C6030008           [095] loadnil    15  16     
3578  5DC40400           [096] getglobal  17  19       ; Lotus_Game
357C  4E04C508           [097] gettable   17  17  276  ; 1872382188
3580  93048001           [098] getupval   18  3      
3584  8E444209           [099] gettable   18  18  265  ; "Info"
3588  62840001           [100] call       17  2   2  
358C  93048000           [101] getupval   18  1      
3590  98040000           [102] test       18      0    ; to [104] if true
3594  1A800380           [103] jmp        15           ; to [119]
3598  99C40100           [104] loadk      18  7        ; 0
359C  D3040001           [105] getupval   19  2      
35A0  CE04C209           [106] gettable   19  19  264  ; "SocketIds"
35A4  CA048009           [107] len        19  19     
35A8  19C50100           [108] loadk      20  7        ; 0
35AC  90840180           [109] forprep    18  7        ; to [117]
35B0  A485C208           [110] self       22  17  266  ; -1921912834
35B4  13060001           [111] getupval   24  2      
35B8  0E06420C           [112] gettable   24  24  264  ; "SocketIds"
35BC  0E46050C           [113] gettable   24  24  21 
35C0  0EC6420C           [114] gettable   24  24  267  ; "Id"
35C4  57068000           [115] loadbool   25  1   0    ; true
35C8  A2450002           [116] call       22  4   1  
35CC  94C4FD7F           [117] forloop    18  -8       ; to [110] if loop
35D0  1A000180           [118] jmp        5            ; to [124]
35D4  A485C208           [119] self       22  17  266  ; -1921912834
35D8  13060002           [120] getupval   24  4      
35DC  0EC6420C           [121] gettable   24  24  267  ; "Id"
35E0  57068000           [122] loadbool   25  1   0    ; true
35E4  A2450002           [123] call       22  4   1  
35E8  4CC4C18A           [124] settable   17  277 263  ; "mItemCount" 0
35EC  99C50100           [125] loadk      22  7        ; 0
35F0  D3058003           [126] getupval   23  7      
35F4  CA05800B           [127] len        23  23     
35F8  19C60100           [128] loadk      24  7        ; 0
35FC  90C50A80           [129] forprep    22  44       ; to [174]
3600  93068003           [130] getupval   26  7      
3604  8E46060D           [131] gettable   26  26  25 
3608  8E46420D           [132] gettable   26  26  265  ; "Info"
fail op	35
360C  6380450D           [133] close      1  
3610  1A800480           [134] jmp        19           ; to [154]
3614  93068003           [135] getupval   26  7      
3618  8E46060D           [136] gettable   26  26  25 
361C  8E46420D           [137] gettable   26  26  265  ; "Info"
3620  8EC6450D           [138] gettable   26  26  279  ; "mItemType"
3624  D3068001           [139] getupval   27  3      
3628  CE46C20D           [140] gettable   27  27  265  ; "Info"
362C  CEC6C50D           [141] gettable   27  27  279  ; "mItemType"
fail op	35
3630  23C0060D           [142] close      0  
3634  1A400280           [143] jmp        10           ; to [154]
3638  93068003           [144] getupval   26  7      
363C  8E46060D           [145] gettable   26  26  25 
3640  8E46420D           [146] gettable   26  26  265  ; "Info"
3644  8E06460D           [147] gettable   26  26  280  ; "mSockets"
3648  D3068001           [148] getupval   27  3      
364C  CE46C20D           [149] gettable   27  27  265  ; "Info"
3650  CE06C60D           [150] gettable   27  27  280  ; "mSockets"
fail op	35
3654  23C0060D           [151] close      0  
3658  1A000080           [152] jmp        1            ; to [154]
365C  D203800C           [153] move       15  25     
3660  93068003           [154] getupval   26  7      
3664  8E46060D           [155] gettable   26  26  25 
3668  8E46420D           [156] gettable   26  26  265  ; "Info"
fail op	35
366C  6380450D           [157] close      1  
3670  1A800380           [158] jmp        15           ; to [174]
3674  93068003           [159] getupval   26  7      
3678  8E46060D           [160] gettable   26  26  25 
367C  8E46420D           [161] gettable   26  26  265  ; "Info"
3680  8EC6450D           [162] gettable   26  26  279  ; "mItemType"
3684  CEC6C508           [163] gettable   27  17  279  ; "mItemType"
fail op	35
3688  23C0060D           [164] close      0  
368C  1AC00180           [165] jmp        8            ; to [174]
3690  93068003           [166] getupval   26  7      
3694  8E46060D           [167] gettable   26  26  25 
3698  8E46420D           [168] gettable   26  26  265  ; "Info"
369C  8E06460D           [169] gettable   26  26  280  ; "mSockets"
36A0  CE06C608           [170] gettable   27  17  280  ; "mSockets"
fail op	35
36A4  23C0060D           [171] close      0  
36A8  1A000080           [172] jmp        1            ; to [174]
36AC  1204800C           [173] move       16  25     
36B0  9485F47F           [174] forloop    22  -45      ; to [130] if loop
fail op	35
36B4  63804508           [175] close      1  
36B8  1AC00180           [176] jmp        8            ; to [185]
36BC  93068003           [177] getupval   26  7      
36C0  8E06040D           [178] gettable   26  26  16 
36C4  D3068003           [179] getupval   27  7      
36C8  CE06840D           [180] gettable   27  27  16 
36CC  CE06C40D           [181] gettable   27  27  272  ; "Count"
36D0  C3C6C10D           [182] add        27  27  263  ; 0
36D4  8CC60688           [183] settable   26  272 27   ; "Count"
36D8  1A400380           [184] jmp        14           ; to [199]
36DC  93060004           [185] getupval   26  8      
36E0  8E46460D           [186] gettable   26  26  281  ; -686836152
36E4  DD860600           [187] getglobal  27  26       ; mMovie
36E8  13078004           [188] getupval   28  9      
36EC  4EC7C508           [189] gettable   29  17  279  ; "mItemType"
36F0  92078008           [190] move       30  17     
36F4  A2868002           [191] call       26  5   2  
36F8  8C468484           [192] settable   26  265 17   ; "Info"
36FC  8CC64188           [193] settable   26  272 263  ; "Count" 0
3700  DDC60600           [194] getglobal  27  27       ; table
3704  CE06C70D           [195] gettable   27  27  284  ; -431682403
3708  13078003           [196] getupval   28  7      
370C  5207000D           [197] move       29  26     
3710  E2468001           [198] call       27  3   1  
fail op	35
3714  6380C507           [199] close      1  
3718  1A400480           [200] jmp        18           ; to [219]
371C  D3068003           [201] getupval   27  7      
3720  CEC6830D           [202] gettable   27  27  15 
3724  CE06C40D           [203] gettable   27  27  272  ; "Count"
fail op	35
3728  23C0C10D           [204] close      0  
372C  1A400180           [205] jmp        6            ; to [212]
3730  DDC60600           [206] getglobal  27  27       ; table
3734  CE46C70D           [207] gettable   27  27  285  ; -843973282
3738  13078003           [208] getupval   28  7      
373C  52078007           [209] move       29  15     
3740  E2468001           [210] call       27  3   1  
3744  1A800180           [211] jmp        7            ; to [219]
3748  D3068003           [212] getupval   27  7      
374C  CEC6830D           [213] gettable   27  27  15 
3750  13078003           [214] getupval   28  7      
3754  0EC7030E           [215] gettable   28  28  15 
3758  0E07440E           [216] gettable   28  28  272  ; "Count"
375C  0DC7410E           [217] sub        28  28  263  ; 0
3760  CC060788           [218] settable   27  272 28   ; "Count"
3764  D3060005           [219] getupval   27  10     
3768  13070000           [220] getupval   28  0      
376C  0E87470E           [221] gettable   28  28  286  ; -132701534
fail op	35
3770  23804508           [222] close      0  
3774  1A000080           [223] jmp        1            ; to [225]
3778  57470000           [224] loadbool   29  0   1    ; false, to [226]
377C  57078000           [225] loadbool   29  1   0    ; true
3780  92070008           [226] move       30  16     
3784  D3078003           [227] getupval   31  7      
3788  CA07800F           [228] len        31  31     
378C  22070002           [229] call       28  4   0  
3790  E2460000           [230] call       27  0   1  
3794  CB060000           [231] newtable   27  0   0    ; array=0, hash=0
3798  1D070300           [232] getglobal  28  12       ; 248503575
379C  53078001           [233] getupval   29  3      
37A0  22070101           [234] call       28  2   4  
37A4  1A000080           [235] jmp        1            ; to [237]
37A8  CC06880F           [236] settable   27  31  32 
37AC  16870000           [237] tforloop   28      2    ; to [239] if exit
37B0  1A00FF7F           [238] jmp        -3           ; to [236]
fail op	8
37B4  C8068001           [239] setupval   27  3      
37B8  53088001           [240] getupval   33  3      
37BC  4C488484           [241] settable   33  265 17   ; "Info"
37C0  53080004           [242] getupval   33  8      
37C4  4EC8C710           [243] gettable   33  33  287  ; -1736635769
37C8  93088001           [244] getupval   34  3      
37CC  8E084811           [245] gettable   34  34  288  ; "StoreItem"
37D0  D3088001           [246] getupval   35  3      
37D4  CE48C211           [247] gettable   35  35  265  ; "Info"
37D8  13098004           [248] getupval   36  9      
37DC  62480102           [249] call       33  4   5  
37E0  53098001           [250] getupval   37  3      
37E4  4C898890           [251] settable   37  289 34   ; "FusionPointValue"
37E8  53098001           [252] getupval   37  3      
37EC  93098005           [253] getupval   38  11     
37F0  8EC94813           [254] gettable   38  38  291  ; 1564779963
37F4  DD890600           [255] getglobal  39  26       ; mMovie
37F8  130A8001           [256] getupval   40  3      
37FC  0E0A4814           [257] gettable   40  40  288  ; "StoreItem"
3800  530A8001           [258] getupval   41  3      
3804  4E4AC214           [259] gettable   41  41  265  ; "Info"
3808  930A8001           [260] getupval   42  3      
380C  8E0A4915           [261] gettable   42  42  292  ; "RawName"
3810  A2898002           [262] call       38  5   2  
3814  4C890991           [263] settable   37  290 38   ; "Name"
3818  53098000           [264] getupval   37  1      
381C  58090000           [265] test       37      0    ; to [267] if true
3820  1AC00080           [266] jmp        4            ; to [271]
3824  53098001           [267] getupval   37  3      
3828  8A090012           [268] len        38  36     
382C  4C898992           [269] settable   37  293 38   ; "MatchedSockets"
3830  1A000180           [270] jmp        5            ; to [276]
3834  53098001           [271] getupval   37  3      
3838  93098001           [272] getupval   38  3      
383C  8E494913           [273] gettable   38  38  293  ; "MatchedSockets"
3840  83C94113           [274] add        38  38  263  ; 0
3844  4C898992           [275] settable   37  293 38   ; "MatchedSockets"
3848  4A090012           [276] len        37  36     
fail op	35
384C  23408911           [277] close      0  
3850  1A000380           [278] jmp        13           ; to [292]
3854  5D890900           [279] getglobal  37  38       ; gChallengeMgr
3858  64C9C912           [280] self       37  37  295  ; 137898418
385C  DD090A00           [281] getglobal  39  40       ; gRegion
3860  E449CA13           [282] self       39  39  297  ; 925677844
3864  E2890001           [283] call       39  2   2  
3868  1D8A0A00           [284] getglobal  40  42       ; -332969190
386C  59CA0A00           [285] loadk      41  43       ; "TREASURE_COMPLETED"
3870  220A0001           [286] call       40  2   0  
3874  62490000           [287] call       37  0   1  
3878  5D090B00           [288] getglobal  37  44       ; gGameData
387C  6449CB12           [289] self       37  37  301  ; 207568169
3880  D9890B00           [290] loadk      39  46       ; "OnUploadChallengeProgress"
3884  62498001           [291] call       37  3   1  
3888  5DC90B00           [292] getglobal  37  47       ; -174740002
388C  9D890600           [293] getglobal  38  26       ; mMovie
3890  A4094C13           [294] self       38  38  304  ; 1803241227
3894  194A0C00           [295] loadk      40  49       ; "TreasureInfo.Name"
3898  598A0C00           [296] loadk      41  50       ; "textHeight"
389C  A2090002           [297] call       38  4   0  
38A0  62890000           [298] call       37  0   2  
38A4  93090006           [299] getupval   38  12     
38A8  A2498000           [300] call       38  1   1  
38AC  9DC90B00           [301] getglobal  38  47       ; -174740002
38B0  DD890600           [302] getglobal  39  26       ; mMovie
38B4  E409CC13           [303] self       39  39  304  ; 1803241227
38B8  594A0C00           [304] loadk      41  49       ; "TreasureInfo.Name"
38BC  998A0C00           [305] loadk      42  50       ; "textHeight"
38C0  E2090002           [306] call       39  4   0  
38C4  A2890000           [307] call       38  0   2  
38C8  DDC90B00           [308] getglobal  39  47       ; -174740002
38CC  1D8A0600           [309] getglobal  40  26       ; mMovie
38D0  240A4C14           [310] self       40  40  304  ; 1803241227
38D4  99CA0C00           [311] loadk      42  51       ; "TreasureInfo.Bg"
38D8  D90A0D00           [312] loadk      43  52       ; "_height"
38DC  220A0002           [313] call       40  4   0  
38E0  E2890000           [314] call       39  0   2  
38E4  0D4A0913           [315] sub        40  38  37 
38E8  C3098A13           [316] add        39  39  40 
38EC  1D8A0600           [317] getglobal  40  26       ; mMovie
38F0  244A4D14           [318] self       40  40  309  ; 471456102
38F4  99CA0C00           [319] loadk      42  51       ; "TreasureInfo.Bg"
38F8  D90A0D00           [320] loadk      43  52       ; "_height"
38FC  120B8013           [321] move       44  39     
3900  224A8002           [322] call       40  5   1  
3904  1D8A0600           [323] getglobal  40  26       ; mMovie
3908  244A4D14           [324] self       40  40  309  ; 471456102
390C  998A0D00           [325] loadk      42  54       ; "TreasureInfo.Blurer"
3910  D90A0D00           [326] loadk      43  52       ; "_height"
3914  120B8013           [327] move       44  39     
3918  224A8002           [328] call       40  5   1  
391C  1D8A0600           [329] getglobal  40  26       ; mMovie
3920  244A4D14           [330] self       40  40  309  ; 471456102
3924  99CA0D00           [331] loadk      42  55       ; "TreasureInfo.RotateHint"
3928  D90A0E00           [332] loadk      43  56       ; "_y"
fail op	0
392C  000B8013           [333] move       44  39     
3930  0D4B4E16           [334] sub        44  44  313  ; 0
3934  224A8002           [335] call       40  5   1  
3938  130A8006           [336] getupval   40  13     
393C  224A8000           [337] call       40  1   1  
3940  1E008000           [338] return     0   1      
                         * constants:
3944  3A                 sizek (58)
3945  04                 const type 4
3946  03                 string size (3)
3947  5F5400             "_T\0"
                         const [0]: "_T"
394A  04                 const type 4
394B  10                 string size (16)
394C  4261636B67726F75+  "Backgrou"
3954  6E644D6F76696500   "ndMovie\0"
                         const [1]: "BackgroundMovie"
395C  01                 const type 3
395D  A9278F45           const [2]: (1167009705)
3961  04                 const type 4
3962  14                 string size (20)
3963  53686F77426C6F63+  "ShowBloc"
396B  6B696E674D657373+  "kingMess"
3973  61676500           "age\0"
                         const [3]: "ShowBlockingMessage"
3977  04                 const type 4
3978  02                 string size (2)
3979  3000               "0\0"
                         const [4]: "0"
397B  01                 const type 3
397C  32F0110B           const [5]: (185724978)
3980  04                 const type 4
3981  38                 string size (56)
3982  2F4C6F7475732F4C+  "/Lotus/L"
398A  616E67756167652F+  "anguage/"
3992  4D656E752F467573+  "Menu/Fus"
399A  696F6E5472656173+  "ionTreas"
39A2  7572654D67725F53+  "ureMgr_S"
39AA  6F636B6574497465+  "ocketIte"
39B2  6D4661696C656400   "mFailed\0"
                         const [6]: "/Lotus/Language/Menu/FusionTreasureMgr_SocketItemFailed"
39BA  03                 const type 3
39BB  0000803F           const [7]: (0)
39BF  04                 const type 4
39C0  0A                 string size (10)
39C1  536F636B65744964+  "SocketId"
39C9  7300               "s\0"
                         const [8]: "SocketIds"
39CB  04                 const type 4
39CC  05                 string size (5)
39CD  496E666F00         "Info\0"
                         const [9]: "Info"
39D2  01                 const type 3
39D3  FEEF718D           const [10]: (-1921912834)
39D7  04                 const type 4
39D8  03                 string size (3)
39D9  496400             "Id\0"
                         const [11]: "Id"
39DC  01                 const type 3
39DD  17DDCF0E           const [12]: (248503575)
39E1  04                 const type 4
39E2  09                 string size (9)
39E3  5265715479706573+  "ReqTypes"
39EB  00                 "\0"
                         const [13]: "ReqTypes"
39EC  04                 const type 4
39ED  05                 string size (5)
39EE  5479706500         "Type\0"
                         const [14]: "Type"
39F3  01                 const type 3
39F4  3C2E251B           const [15]: (455421500)
39F8  04                 const type 4
39F9  06                 string size (6)
39FA  436F756E7400       "Count\0"
                         const [16]: "Count"
3A00  04                 const type 4
3A01  04                 string size (4)
3A02  52657100           "Req\0"
                         const [17]: "Req"
3A06  04                 const type 4
3A07  09                 string size (9)
3A08  4974656D496E666F+  "ItemInfo"
3A10  00                 "\0"
                         const [18]: "ItemInfo"
3A11  04                 const type 4
3A12  0B                 string size (11)
3A13  4C6F7475735F4761+  "Lotus_Ga"
3A1B  6D6500             "me\0"
                         const [19]: "Lotus_Game"
3A1E  01                 const type 3
3A1F  EC489A6F           const [20]: (1872382188)
3A23  04                 const type 4
3A24  0B                 string size (11)
3A25  6D4974656D436F75+  "mItemCou"
3A2D  6E7400             "nt\0"
                         const [21]: "mItemCount"
3A30  00                 const type 0
                         const [22]: nil
3A31  04                 const type 4
3A32  0A                 string size (10)
3A33  6D4974656D547970+  "mItemTyp"
3A3B  6500               "e\0"
                         const [23]: "mItemType"
3A3D  04                 const type 4
3A3E  09                 string size (9)
3A3F  6D536F636B657473+  "mSockets"
3A47  00                 "\0"
                         const [24]: "mSockets"
3A48  01                 const type 3
3A49  48B60FD7           const [25]: (-686836152)
3A4D  04                 const type 4
3A4E  07                 string size (7)
3A4F  6D4D6F76696500     "mMovie\0"
                         const [26]: "mMovie"
3A56  04                 const type 4
3A57  06                 string size (6)
3A58  7461626C6500       "table\0"
                         const [27]: "table"
3A5E  01                 const type 3
3A5F  9D0C45E6           const [28]: (-431682403)
3A63  01                 const type 3
3A64  5EFDB1CD           const [29]: (-843973282)
3A68  01                 const type 3
3A69  A22217F8           const [30]: (-132701534)
3A6D  01                 const type 3
3A6E  870A7D98           const [31]: (-1736635769)
3A72  04                 const type 4
3A73  0A                 string size (10)
3A74  53746F7265497465+  "StoreIte"
3A7C  6D00               "m\0"
                         const [32]: "StoreItem"
3A7E  04                 const type 4
3A7F  11                 string size (17)
3A80  467573696F6E506F+  "FusionPo"
3A88  696E7456616C7565+  "intValue"
3A90  00                 "\0"
                         const [33]: "FusionPointValue"
3A91  04                 const type 4
3A92  05                 string size (5)
3A93  4E616D6500         "Name\0"
                         const [34]: "Name"
3A98  01                 const type 3
3A99  BBA5445D           const [35]: (1564779963)
3A9D  04                 const type 4
3A9E  08                 string size (8)
3A9F  5261774E616D6500   "RawName\0"
                         const [36]: "RawName"
3AA7  04                 const type 4
3AA8  0F                 string size (15)
3AA9  4D61746368656453+  "MatchedS"
3AB1  6F636B65747300     "ockets\0"
                         const [37]: "MatchedSockets"
3AB8  04                 const type 4
3AB9  0E                 string size (14)
3ABA  674368616C6C656E+  "gChallen"
3AC2  67654D677200       "geMgr\0"
                         const [38]: "gChallengeMgr"
3AC8  01                 const type 3
3AC9  B2293808           const [39]: (137898418)
3ACD  04                 const type 4
3ACE  08                 string size (8)
3ACF  67526567696F6E00   "gRegion\0"
                         const [40]: "gRegion"
3AD7  01                 const type 3
3AD8  14B92C37           const [41]: (925677844)
3ADC  01                 const type 3
3ADD  1A4B27EC           const [42]: (-332969190)
3AE1  04                 const type 4
3AE2  13                 string size (19)
3AE3  5452454153555245+  "TREASURE"
3AEB  5F434F4D504C4554+  "_COMPLET"
3AF3  454400             "ED\0"
                         const [43]: "TREASURE_COMPLETED"
3AF6  04                 const type 4
3AF7  0A                 string size (10)
3AF8  6747616D65446174+  "gGameDat"
3B00  6100               "a\0"
                         const [44]: "gGameData"
3B02  01                 const type 3
3B03  293D5F0C           const [45]: (207568169)
3B07  04                 const type 4
3B08  1A                 string size (26)
3B09  4F6E55706C6F6164+  "OnUpload"
3B11  4368616C6C656E67+  "Challeng"
3B19  6550726F67726573+  "eProgres"
3B21  7300               "s\0"
                         const [46]: "OnUploadChallengeProgress"
3B23  01                 const type 3
3B24  DEAD95F5           const [47]: (-174740002)
3B28  01                 const type 3
3B29  0B477B6B           const [48]: (1803241227)
3B2D  04                 const type 4
3B2E  12                 string size (18)
3B2F  5472656173757265+  "Treasure"
3B37  496E666F2E4E616D+  "Info.Nam"
3B3F  6500               "e\0"
                         const [49]: "TreasureInfo.Name"
3B41  04                 const type 4
3B42  0B                 string size (11)
3B43  7465787448656967+  "textHeig"
3B4B  687400             "ht\0"
                         const [50]: "textHeight"
3B4E  04                 const type 4
3B4F  10                 string size (16)
3B50  5472656173757265+  "Treasure"
3B58  496E666F2E426700   "Info.Bg\0"
                         const [51]: "TreasureInfo.Bg"
3B60  04                 const type 4
3B61  08                 string size (8)
3B62  5F68656967687400   "_height\0"
                         const [52]: "_height"
3B6A  01                 const type 3
3B6B  66D9191C           const [53]: (471456102)
3B6F  04                 const type 4
3B70  14                 string size (20)
3B71  5472656173757265+  "Treasure"
3B79  496E666F2E426C75+  "Info.Blu"
3B81  72657200           "rer\0"
                         const [54]: "TreasureInfo.Blurer"
3B85  04                 const type 4
3B86  18                 string size (24)
3B87  5472656173757265+  "Treasure"
3B8F  496E666F2E526F74+  "Info.Rot"
3B97  61746548696E7400   "ateHint\0"
                         const [55]: "TreasureInfo.RotateHint"
3B9F  04                 const type 4
3BA0  03                 string size (3)
3BA1  5F7900             "_y\0"
                         const [56]: "_y"
3BA4  03                 const type 3
3BA5  00000C42           const [57]: (0)
                         * functions:
3BA9  00                 sizep (0)
                         * lines:
3BAB  02                 sizelineinfo (338)
                         [pc] (line)
3BAC  BB                 [001] (-69)
3BAD  01                 [002] (-69)
3BAE  00                 [003] (-69)
3BAF  00                 [004] (-69)
3BB0  BB                 [005] (-69)
3BB1  01                 [006] (-69)
3BB2  00                 [007] (-67)
3BB3  00                 [008] (-67)
3BB4  BB                 [009] (-66)
3BB5  01                 [010] (-66)
3BB6  00                 [011] (-66)
3BB7  00                 [012] (-66)
3BB8  BB                 [013] (-63)
3BB9  01                 [014] (-63)
3BBA  00                 [015] (-63)
3BBB  00                 [016] (-62)
3BBC  BB                 [017] (-62)
3BBD  01                 [018] (-62)
3BBE  00                 [019] (-62)
3BBF  00                 [020] (-62)
3BC0  BB                 [021] (-62)
3BC1  01                 [022] (-61)
3BC2  00                 [023] (-61)
3BC3  00                 [024] (-61)
3BC4  BD                 [025] (-61)
3BC5  01                 [026] (-61)
3BC6  00                 [027] (-61)
3BC7  00                 [028] (-61)
3BC8  BD                 [029] (-61)
3BC9  01                 [030] (-61)
3BCA  00                 [031] (-62)
3BCB  00                 [032] (-60)
3BCC  BE                 [033] (-58)
3BCD  01                 [034] (-58)
3BCE  00                 [035] (-58)
3BCF  00                 [036] (-58)
3BD0  BE                 [037] (-58)
3BD1  01                 [038] (-58)
3BD2  00                 [039] (-58)
3BD3  00                 [040] (-56)
3BD4  BE                 [041] (-56)
3BD5  01                 [042] (-55)
3BD6  00                 [043] (-55)
3BD7  00                 [044] (-55)
3BD8  BE                 [045] (-53)
3BD9  01                 [046] (-53)
3BDA  00                 [047] (-51)
3BDB  00                 [048] (-51)
3BDC  C1                 [049] (-51)
3BDD  01                 [050] (-51)
3BDE  00                 [051] (-51)
3BDF  00                 [052] (-50)
3BE0  C1                 [053] (-50)
3BE1  01                 [054] (-50)
3BE2  00                 [055] (-49)
3BE3  00                 [056] (-49)
3BE4  C1                 [057] (-49)
3BE5  01                 [058] (-49)
3BE6  00                 [059] (-49)
3BE7  00                 [060] (-48)
3BE8  C2                 [061] (-48)
3BE9  01                 [062] (-48)
3BEA  00                 [063] (-48)
3BEB  00                 [064] (-48)
3BEC  C2                 [065] (-48)
3BED  01                 [066] (-48)
3BEE  00                 [067] (-47)
3BEF  00                 [068] (-47)
3BF0  C2                 [069] (-47)
3BF1  01                 [070] (-47)
3BF2  00                 [071] (-47)
3BF3  00                 [072] (-47)
3BF4  C2                 [073] (-47)
3BF5  01                 [074] (-47)
3BF6  00                 [075] (-49)
3BF7  00                 [076] (-46)
3BF8  C2                 [077] (-45)
3BF9  01                 [078] (-44)
3BFA  00                 [079] (-44)
3BFB  00                 [080] (-44)
3BFC  C2                 [081] (-44)
3BFD  01                 [082] (-44)
3BFE  00                 [083] (-44)
3BFF  00                 [084] (-44)
3C00  C3                 [085] (-44)
3C01  01                 [086] (-43)
3C02  00                 [087] (-43)
3C03  00                 [088] (-43)
3C04  C3                 [089] (-43)
3C05  01                 [090] (-43)
3C06  00                 [091] (-43)
3C07  00                 [092] (-43)
3C08  C3                 [093] (-41)
3C09  01                 [094] (-51)
3C0A  00                 [095] (-37)
3C0B  00                 [096] (-34)
3C0C  C3                 [097] (-34)
3C0D  01                 [098] (-34)
3C0E  00                 [099] (-34)
3C0F  00                 [100] (-34)
3C10  C3                 [101] (-32)
3C11  01                 [102] (-32)
3C12  00                 [103] (-32)
3C13  00                 [104] (-31)
3C14  C3                 [105] (-31)
3C15  01                 [106] (-31)
3C16  00                 [107] (-31)
3C17  00                 [108] (-31)
3C18  C3                 [109] (-31)
3C19  01                 [110] (-30)
3C1A  00                 [111] (-30)
3C1B  00                 [112] (-30)
3C1C  C3                 [113] (-30)
3C1D  01                 [114] (-30)
3C1E  00                 [115] (-30)
3C1F  00                 [116] (-30)
3C20  C3                 [117] (-31)
3C21  01                 [118] (-29)
3C22  00                 [119] (-27)
3C23  00                 [120] (-27)
3C24  C2                 [121] (-27)
3C25  01                 [122] (-27)
3C26  00                 [123] (-27)
3C27  00                 [124] (-24)
3C28  C4                 [125] (-22)
3C29  01                 [126] (-22)
3C2A  00                 [127] (-22)
3C2B  00                 [128] (-22)
3C2C  C6                 [129] (-22)
3C2D  01                 [130] (-21)
3C2E  00                 [131] (-21)
3C2F  00                 [132] (-21)
3C30  C6                 [133] (-21)
3C31  01                 [134] (-21)
3C32  00                 [135] (-21)
3C33  00                 [136] (-21)
3C34  C6                 [137] (-21)
3C35  01                 [138] (-21)
3C36  00                 [139] (-21)
3C37  00                 [140] (-21)
3C38  C6                 [141] (-21)
3C39  01                 [142] (-21)
3C3A  00                 [143] (-21)
3C3B  00                 [144] (-21)
3C3C  C6                 [145] (-21)
3C3D  01                 [146] (-21)
3C3E  00                 [147] (-21)
3C3F  00                 [148] (-21)
3C40  C6                 [149] (-21)
3C41  01                 [150] (-21)
3C42  00                 [151] (-21)
3C43  00                 [152] (-21)
3C44  C6                 [153] (-20)
3C45  01                 [154] (-17)
3C46  00                 [155] (-17)
3C47  00                 [156] (-17)
3C48  C8                 [157] (-17)
3C49  01                 [158] (-17)
3C4A  00                 [159] (-17)
3C4B  00                 [160] (-17)
3C4C  C8                 [161] (-17)
3C4D  01                 [162] (-17)
3C4E  00                 [163] (-17)
3C4F  00                 [164] (-17)
3C50  C9                 [165] (-17)
3C51  01                 [166] (-17)
3C52  00                 [167] (-17)
3C53  00                 [168] (-17)
3C54  C9                 [169] (-17)
3C55  01                 [170] (-17)
3C56  00                 [171] (-17)
3C57  00                 [172] (-17)
3C58  C9                 [173] (-16)
3C59  01                 [174] (-22)
3C5A  00                 [175] (-12)
3C5B  00                 [176] (-12)
3C5C  CB                 [177] (-11)
3C5D  01                 [178] (-11)
3C5E  00                 [179] (-11)
3C5F  00                 [180] (-11)
3C60  CB                 [181] (-11)
3C61  01                 [182] (-11)
3C62  00                 [183] (-11)
3C63  00                 [184] (-11)
3C64  CD                 [185] (-9)
3C65  01                 [186] (-9)
3C66  00                 [187] (-9)
3C67  00                 [188] (-9)
3C68  CD                 [189] (-9)
3C69  01                 [190] (-9)
3C6A  00                 [191] (-9)
3C6B  00                 [192] (-8)
3C6C  CD                 [193] (-7)
3C6D  01                 [194] (-5)
3C6E  00                 [195] (-5)
3C6F  00                 [196] (-5)
3C70  CD                 [197] (-5)
3C71  01                 [198] (-5)
3C72  00                 [199] (-2)
3C73  00                 [200] (-2)
3C74  CD                 [201] (-1)
3C75  01                 [202] (-1)
3C76  00                 [203] (-1)
3C77  00                 [204] (-1)
3C78  CE                 [205] (-1)
3C79  01                 [206] (0)
3C7A  00                 [207] (0)
3C7B  00                 [208] (0)
3C7C  CE                 [209] (0)
3C7D  01                 [210] (0)
3C7E  00                 [211] (0)
3C7F  00                 [212] (2)
3C80  CE                 [213] (2)
3C81  01                 [214] (2)
3C82  00                 [215] (2)
3C83  00                 [216] (2)
3C84  CF                 [217] (2)
3C85  01                 [218] (2)
3C86  00                 [219] (6)
3C87  00                 [220] (6)
3C88  CF                 [221] (6)
3C89  01                 [222] (6)
3C8A  00                 [223] (6)
3C8B  00                 [224] (6)
3C8C  CF                 [225] (6)
3C8D  01                 [226] (6)
3C8E  00                 [227] (6)
3C8F  00                 [228] (6)
3C90  CF                 [229] (6)
3C91  01                 [230] (6)
3C92  00                 [231] (8)
3C93  00                 [232] (9)
3C94  CF                 [233] (9)
3C95  01                 [234] (9)
3C96  00                 [235] (9)
3C97  00                 [236] (10)
3C98  D0                 [237] (9)
3C99  01                 [238] (10)
3C9A  00                 [239] (13)
3C9B  00                 [240] (14)
3C9C  D0                 [241] (14)
3C9D  01                 [242] (16)
3C9E  00                 [243] (16)
3C9F  00                 [244] (16)
3CA0  D0                 [245] (16)
3CA1  01                 [246] (16)
3CA2  00                 [247] (16)
3CA3  00                 [248] (16)
3CA4  D0                 [249] (16)
3CA5  01                 [250] (18)
3CA6  00                 [251] (18)
3CA7  00                 [252] (19)
3CA8  D0                 [253] (19)
3CA9  01                 [254] (19)
3CAA  00                 [255] (19)
3CAB  00                 [256] (19)
3CAC  D0                 [257] (19)
3CAD  01                 [258] (19)
3CAE  00                 [259] (19)
3CAF  00                 [260] (19)
3CB0  D0                 [261] (19)
3CB1  01                 [262] (19)
3CB2  00                 [263] (19)
3CB3  00                 [264] (20)
3CB4  D1                 [265] (20)
3CB5  01                 [266] (20)
3CB6  00                 [267] (21)
3CB7  00                 [268] (21)
3CB8  D1                 [269] (21)
3CB9  01                 [270] (21)
3CBA  00                 [271] (23)
3CBB  00                 [272] (23)
3CBC  D1                 [273] (23)
3CBD  01                 [274] (23)
3CBE  00                 [275] (23)
3CBF  00                 [276] (26)
3CC0  D1                 [277] (26)
3CC1  01                 [278] (26)
3CC2  00                 [279] (27)
3CC3  00                 [280] (27)
3CC4  D1                 [281] (27)
3CC5  01                 [282] (27)
3CC6  00                 [283] (27)
3CC7  00                 [284] (27)
3CC8  D1                 [285] (27)
3CC9  01                 [286] (27)
3CCA  00                 [287] (27)
3CCB  00                 [288] (28)
3CCC  D1                 [289] (28)
3CCD  01                 [290] (28)
3CCE  00                 [291] (28)
3CCF  00                 [292] (31)
3CD0  D1                 [293] (31)
3CD1  01                 [294] (31)
3CD2  00                 [295] (31)
3CD3  00                 [296] (31)
3CD4  CF                 [297] (31)
3CD5  01                 [298] (31)
3CD6  00                 [299] (32)
3CD7  00                 [300] (32)
3CD8  D2                 [301] (33)
3CD9  01                 [302] (33)
3CDA  00                 [303] (33)
3CDB  00                 [304] (33)
3CDC  D3                 [305] (33)
3CDD  01                 [306] (33)
3CDE  00                 [307] (33)
3CDF  00                 [308] (34)
3CE0  D4                 [309] (34)
3CE1  01                 [310] (34)
3CE2  00                 [311] (34)
3CE3  00                 [312] (34)
3CE4  D4                 [313] (34)
3CE5  01                 [314] (34)
3CE6  00                 [315] (34)
3CE7  00                 [316] (34)
3CE8  D4                 [317] (35)
3CE9  01                 [318] (35)
3CEA  00                 [319] (35)
3CEB  00                 [320] (35)
3CEC  D4                 [321] (35)
3CED  01                 [322] (35)
3CEE  00                 [323] (36)
3CEF  00                 [324] (36)
3CF0  D4                 [325] (36)
3CF1  01                 [326] (36)
3CF2  00                 [327] (36)
3CF3  00                 [328] (36)
3CF4  D4                 [329] (37)
3CF5  01                 [330] (37)
3CF6  00                 [331] (37)
3CF7  00                 [332] (37)
3CF8  D4                 [333] (37)
3CF9  01                 [334] (37)
3CFA  00                 [335] (37)
3CFB  00                 [336] (39)
3CFC  D4                 [337] (39)
3CFD  01                 [338] (41)
                         * locals:
40F4  00                 sizelocvars (0)
                         * upvalues:
40F5  00                 sizeupvalues (0)
                         ** end of function **

                         
40F6                     ** function [13] definition (level 2)
                         ** start of function **
40F6  00                 string size (0)
                         source name: (none)
40F8  04                 line defined (555)
40F9  B2                 last line defined (562)
40FA  04                 nups (4)
40FB  04                 numparams (0)
40FC  00                 is_vararg (0)
40FD  00                 maxstacksize (6)
                         * code:
40FF  1A                 sizecode (26)
4100  17008000           [01] loadbool   0   1   0    ; true
fail op	8
4104  08000000           [02] setupval   0   0      
4108  1D000000           [03] getglobal  0   0        ; Lotus_Game
410C  0E404000           [04] gettable   0   0   257  ; 1872382188
4110  53008000           [05] getupval   1   1      
4114  4E80C000           [06] gettable   1   1   258  ; "Info"
4118  22800001           [07] call       0   2   2  
411C  64C04000           [08] self       1   0   259  ; -1921912834
4120  D3000001           [09] getupval   3   2      
4124  CE00C101           [10] gettable   3   3   260  ; "Id"
4128  17018000           [11] loadbool   4   1   0    ; true
412C  62400002           [12] call       1   4   1  
4130  53008001           [13] getupval   1   3      
4134  6440C100           [14] self       1   1   261  ; -782606110
4138  D3008000           [15] getupval   3   1      
413C  CE80C001           [16] gettable   3   3   258  ; "Info"
4140  12010000           [17] move       4   0      
4144  59810100           [18] loadk      5   6        ; "OnItemSocketed"
4148  62408002           [19] call       1   5   1  
414C  5DC00100           [20] getglobal  1   7        ; _T
4150  4E00C200           [21] gettable   1   1   264  ; "BackgroundMovie"
4154  6440C200           [22] self       1   1   265  ; 1167009705
4158  D9800200           [23] loadk      3   10       ; "ShowBlockingMessage"
415C  19C10200           [24] loadk      4   11       ; "2"
4160  62400002           [25] call       1   4   1  
4164  1E008000           [26] return     0   1      
                         * constants:
4168  0C                 sizek (12)
4169  04                 const type 4
416A  0B                 string size (11)
416B  4C6F7475735F4761+  "Lotus_Ga"
4173  6D6500             "me\0"
                         const [0]: "Lotus_Game"
4176  01                 const type 3
4177  EC489A6F           const [1]: (1872382188)
417B  04                 const type 4
417C  05                 string size (5)
417D  496E666F00         "Info\0"
                         const [2]: "Info"
4182  01                 const type 3
4183  FEEF718D           const [3]: (-1921912834)
4187  04                 const type 4
4188  03                 string size (3)
4189  496400             "Id\0"
                         const [4]: "Id"
418C  01                 const type 3
418D  E2605AD1           const [5]: (-782606110)
4191  04                 const type 4
4192  0F                 string size (15)
4193  4F6E4974656D536F+  "OnItemSo"
419B  636B6574656400     "cketed\0"
                         const [6]: "OnItemSocketed"
41A2  04                 const type 4
41A3  03                 string size (3)
41A4  5F5400             "_T\0"
                         const [7]: "_T"
41A7  04                 const type 4
41A8  10                 string size (16)
41A9  4261636B67726F75+  "Backgrou"
41B1  6E644D6F76696500   "ndMovie\0"
                         const [8]: "BackgroundMovie"
41B9  01                 const type 3
41BA  A9278F45           const [9]: (1167009705)
41BE  04                 const type 4
41BF  14                 string size (20)
41C0  53686F77426C6F63+  "ShowBloc"
41C8  6B696E674D657373+  "kingMess"
41D0  61676500           "age\0"
                         const [10]: "ShowBlockingMessage"
41D4  04                 const type 4
41D5  02                 string size (2)
41D6  3200               "2\0"
                         const [11]: "2"
                         * functions:
41D8  00                 sizep (0)
                         * lines:
41D9  1A                 sizelineinfo (26)
                         [pc] (line)
41DA  2C                 [01] (44)
41DB  02                 [02] (44)
41DC  00                 [03] (46)
41DD  00                 [04] (46)
41DE  2C                 [05] (46)
41DF  02                 [06] (46)
41E0  00                 [07] (46)
41E1  00                 [08] (47)
41E2  2E                 [09] (47)
41E3  02                 [10] (47)
41E4  00                 [11] (47)
41E5  00                 [12] (47)
41E6  2E                 [13] (48)
41E7  02                 [14] (48)
41E8  00                 [15] (48)
41E9  00                 [16] (48)
41EA  2E                 [17] (48)
41EB  02                 [18] (48)
41EC  00                 [19] (48)
41ED  00                 [20] (49)
41EE  2E                 [21] (49)
41EF  02                 [22] (49)
41F0  00                 [23] (49)
41F1  00                 [24] (49)
41F2  2E                 [25] (49)
41F3  02                 [26] (50)
                         * locals:
4242  00                 sizelocvars (0)
                         * upvalues:
4243  00                 sizeupvalues (0)
                         ** end of function **

                         
4244                     ** function [14] definition (level 2)
                         ** start of function **
4244  00                 string size (0)
                         source name: (none)
4246  04                 line defined (564)
4247  BB                 last line defined (571)
4248  04                 nups (4)
4249  04                 numparams (1)
424A  01                 is_vararg (0)
424B  00                 maxstacksize (3)
                         * code:
424D  1B                 sizecode (27)
424E  5D000000           [01] getglobal  1   0        ; -174740002
4252  92000000           [02] move       2   0      
4256  62800001           [03] call       1   2   2  
425A  9D400000           [04] getglobal  2   1        ; Engine
425E  8E804001           [05] gettable   2   2   258  ; "CI_SELECT"
fail op	35
4262  23808000           [06] close      0  
4266  1A800480           [07] jmp        19           ; to [27]
426A  5DC00000           [08] getglobal  1   3        ; 1074689893
426E  93000000           [09] getupval   2   0      
4272  62800001           [10] call       1   2   2  
4276  58400000           [11] test       1       1    ; to [13] if false
427A  1A400380           [12] jmp        14           ; to [27]
427E  53008000           [13] getupval   1   1      
4282  4E00C100           [14] gettable   1   1   260  ; "Id"
fail op	35
4286  6340C100           [15] close      1  
428A  1A400280           [16] jmp        10           ; to [27]
428E  5DC00000           [17] getglobal  1   3        ; 1074689893
4292  93008000           [18] getupval   2   1      
4296  8E804101           [19] gettable   2   2   262  ; "ItemInfo"
429A  62800001           [20] call       1   2   2  
429E  58400000           [21] test       1       1    ; to [23] if false
42A2  1AC00080           [22] jmp        4            ; to [27]
42A6  57008000           [23] loadbool   1   1   0    ; true
fail op	8
42AA  48000001           [24] setupval   1   2      
42AE  53008001           [25] getupval   1   3      
42B2  62408000           [26] call       1   1   1  
42B6  1E008000           [27] return     0   1      
                         * constants:
42BA  07                 sizek (7)
42BB  01                 const type 3
42BC  DEAD95F5           const [0]: (-174740002)
42C0  04                 const type 4
42C1  07                 string size (7)
42C2  456E67696E6500     "Engine\0"
                         const [1]: "Engine"
42C9  04                 const type 4
42CA  0A                 string size (10)
42CB  43495F53454C4543+  "CI_SELEC"
42D3  5400               "T\0"
                         const [2]: "CI_SELECT"
42D5  01                 const type 3
42D6  65770E40           const [3]: (1074689893)
42DA  04                 const type 4
42DB  03                 string size (3)
42DC  496400             "Id\0"
                         const [4]: "Id"
42DF  00                 const type 0
                         const [5]: nil
42E0  04                 const type 4
42E1  09                 string size (9)
42E2  4974656D496E666F+  "ItemInfo"
42EA  00                 "\0"
                         const [6]: "ItemInfo"
                         * functions:
42EB  00                 sizep (0)
                         * lines:
42EC  1B                 sizelineinfo (27)
                         [pc] (line)
42ED  35                 [01] (53)
42EE  02                 [02] (53)
42EF  00                 [03] (53)
42F0  00                 [04] (53)
42F1  35                 [05] (53)
42F2  02                 [06] (53)
42F3  00                 [07] (53)
42F4  00                 [08] (54)
42F5  35                 [09] (54)
42F6  02                 [10] (54)
42F7  00                 [11] (54)
42F8  00                 [12] (54)
42F9  35                 [13] (54)
42FA  02                 [14] (54)
42FB  00                 [15] (54)
42FC  00                 [16] (54)
42FD  35                 [17] (54)
42FE  02                 [18] (54)
42FF  00                 [19] (54)
4300  00                 [20] (54)
4301  35                 [21] (54)
4302  02                 [22] (54)
4303  00                 [23] (55)
4304  00                 [24] (55)
4305  35                 [25] (56)
4306  02                 [26] (56)
4307  00                 [27] (59)
                         * locals:
4359  00                 sizelocvars (0)
                         * upvalues:
435A  00                 sizeupvalues (0)
                         ** end of function **

                         
435B                     ** function [15] definition (level 2)
                         ** start of function **
435B  00                 string size (0)
                         source name: (none)
435D  04                 line defined (573)
435E  D1                 last line defined (593)
435F  04                 nups (5)
4360  05                 numparams (0)
4361  00                 is_vararg (0)
4362  00                 maxstacksize (7)
                         * code:
4364  38                 sizecode (56)
4365  1D000000           [01] getglobal  0   0        ; 1074689893
4369  53000000           [02] getupval   1   0      
436D  22800001           [03] call       0   2   2  
4371  18400000           [04] test       0       1    ; to [6] if false
4375  1A400280           [05] jmp        10           ; to [16]
4379  13008000           [06] getupval   0   1      
437D  0E404000           [07] gettable   0   0   257  ; "Id"
fail op	35
4381  63804000           [08] close      1  
4385  1A400180           [09] jmp        6            ; to [16]
4389  1D000000           [10] getglobal  0   0        ; 1074689893
438D  53008000           [11] getupval   1   1      
4391  4EC0C000           [12] gettable   1   1   259  ; "ItemInfo"
4395  22800001           [13] call       0   2   2  
4399  18000000           [14] test       0       0    ; to [16] if true
439D  1A000080           [15] jmp        1            ; to [17]
43A1  1E008000           [16] return     0   1      
43A5  13008000           [17] getupval   0   1      
43A9  0E004100           [18] gettable   0   0   260  ; "NumCompatItems"
fail op	35
43AD  23404100           [19] close      0  
43B1  1A800380           [20] jmp        15           ; to [36]
43B5  13000001           [21] getupval   0   2      
43B9  0E804100           [22] gettable   0   0   262  ; 185724978
43BD  5DC00100           [23] getglobal  1   7        ; mMovie
43C1  6400C200           [24] self       1   1   264  ; 98241492
43C5  D9400200           [25] loadk      3   9        ; "/Lotus/Language/Menu/FusionTreauresMgr_NoItemsForSocket"
43C9  17010000           [26] loadbool   4   0   0    ; false
43CD  4B410000           [27] newtable   5   0   1    ; array=0, hash=1
43D1  93018000           [28] getupval   6   1      
43D5  8EC14003           [29] gettable   6   6   259  ; "ItemInfo"
43D9  8EC14203           [30] gettable   6   6   267  ; "Name"
43DD  4C810185           [31] settable   5   266 6    ; "ITEM"
43E1  62008002           [32] call       1   5   0  
43E5  22400000           [33] call       0   0   1  
43E9  1E008000           [34] return     0   1      
43ED  1AC00480           [35] jmp        20           ; to [56]
43F1  13008001           [36] getupval   0   3      
43F5  18000000           [37] test       0       0    ; to [39] if true
43F9  1A800080           [38] jmp        3            ; to [42]
43FD  13000002           [39] getupval   0   4      
4401  22408000           [40] call       0   1   1  
4405  1A400380           [41] jmp        14           ; to [56]
4409  13000001           [42] getupval   0   2      
440D  0E004300           [43] gettable   0   0   268  ; 479758160
4411  5DC00100           [44] getglobal  1   7        ; mMovie
4415  6400C200           [45] self       1   1   264  ; 98241492
4419  D9400300           [46] loadk      3   13       ; "/Lotus/Language/Menu/FusionTreasureMgr_SocketItemConfirm"
441D  17010000           [47] loadbool   4   0   0    ; false
4421  4B410000           [48] newtable   5   0   1    ; array=0, hash=1
4425  93018000           [49] getupval   6   1      
4429  8EC14003           [50] gettable   6   6   259  ; "ItemInfo"
442D  8EC14203           [51] gettable   6   6   267  ; "Name"
4431  4C810185           [52] settable   5   266 6    ; "ITEM"
4435  62808002           [53] call       1   5   2  
4439  99800300           [54] loadk      2   14       ; "OnConfirmSocketItem"
443D  22408001           [55] call       0   3   1  
4441  1E008000           [56] return     0   1      
                         * constants:
4445  0F                 sizek (15)
4446  01                 const type 3
4447  65770E40           const [0]: (1074689893)
444B  04                 const type 4
444C  03                 string size (3)
444D  496400             "Id\0"
                         const [1]: "Id"
4450  00                 const type 0
                         const [2]: nil
4451  04                 const type 4
4452  09                 string size (9)
4453  4974656D496E666F+  "ItemInfo"
445B  00                 "\0"
                         const [3]: "ItemInfo"
445C  04                 const type 4
445D  0F                 string size (15)
445E  4E756D436F6D7061+  "NumCompa"
4466  744974656D7300     "tItems\0"
                         const [4]: "NumCompatItems"
446D  03                 const type 3
446E  00000000           const [5]: (0)
4472  01                 const type 3
4473  32F0110B           const [6]: (185724978)
4477  04                 const type 4
4478  07                 string size (7)
4479  6D4D6F76696500     "mMovie\0"
                         const [7]: "mMovie"
4480  01                 const type 3
4481  D40BDB05           const [8]: (98241492)
4485  04                 const type 4
4486  38                 string size (56)
4487  2F4C6F7475732F4C+  "/Lotus/L"
448F  616E67756167652F+  "anguage/"
4497  4D656E752F467573+  "Menu/Fus"
449F  696F6E5472656175+  "ionTreau"
44A7  7265734D67725F4E+  "resMgr_N"
44AF  6F4974656D73466F+  "oItemsFo"
44B7  72536F636B657400   "rSocket\0"
                         const [9]: "/Lotus/Language/Menu/FusionTreauresMgr_NoItemsForSocket"
44BF  04                 const type 4
44C0  05                 string size (5)
44C1  4954454D00         "ITEM\0"
                         const [10]: "ITEM"
44C6  04                 const type 4
44C7  05                 string size (5)
44C8  4E616D6500         "Name\0"
                         const [11]: "Name"
44CD  01                 const type 3
44CE  5087981C           const [12]: (479758160)
44D2  04                 const type 4
44D3  39                 string size (57)
44D4  2F4C6F7475732F4C+  "/Lotus/L"
44DC  616E67756167652F+  "anguage/"
44E4  4D656E752F467573+  "Menu/Fus"
44EC  696F6E5472656173+  "ionTreas"
44F4  7572654D67725F53+  "ureMgr_S"
44FC  6F636B6574497465+  "ocketIte"
4504  6D436F6E6669726D+  "mConfirm"
450C  00                 "\0"
                         const [13]: "/Lotus/Language/Menu/FusionTreasureMgr_SocketItemConfirm"
450D  04                 const type 4
450E  14                 string size (20)
450F  4F6E436F6E666972+  "OnConfir"
4517  6D536F636B657449+  "mSocketI"
451F  74656D00           "tem\0"
                         const [14]: "OnConfirmSocketItem"
                         * functions:
4523  00                 sizep (0)
                         * lines:
4524  38                 sizelineinfo (56)
                         [pc] (line)
4525  3E                 [01] (62)
4526  02                 [02] (62)
4527  00                 [03] (62)
4528  00                 [04] (62)
4529  3E                 [05] (62)
452A  02                 [06] (62)
452B  00                 [07] (62)
452C  00                 [08] (62)
452D  3E                 [09] (62)
452E  02                 [10] (62)
452F  00                 [11] (62)
4530  00                 [12] (62)
4531  3E                 [13] (62)
4532  02                 [14] (62)
4533  00                 [15] (62)
4534  00                 [16] (63)
4535  3E                 [17] (72)
4536  02                 [18] (72)
4537  00                 [19] (72)
4538  00                 [20] (72)
4539  3E                 [21] (73)
453A  02                 [22] (73)
453B  00                 [23] (73)
453C  00                 [24] (73)
453D  3E                 [25] (73)
453E  02                 [26] (73)
453F  00                 [27] (73)
4540  00                 [28] (73)
4541  3E                 [29] (73)
4542  02                 [30] (73)
4543  00                 [31] (73)
4544  00                 [32] (73)
4545  3E                 [33] (73)
4546  02                 [34] (75)
4547  00                 [35] (75)
4548  00                 [36] (76)
4549  3E                 [37] (76)
454A  02                 [38] (76)
454B  00                 [39] (77)
454C  00                 [40] (77)
454D  3E                 [41] (77)
454E  02                 [42] (79)
454F  00                 [43] (79)
4550  00                 [44] (79)
4551  3E                 [45] (79)
4552  02                 [46] (79)
4553  00                 [47] (79)
4554  00                 [48] (79)
4555  3E                 [49] (79)
4556  02                 [50] (79)
4557  00                 [51] (79)
4558  00                 [52] (79)
4559  3E                 [53] (79)
455A  02                 [54] (79)
455B  00                 [55] (79)
455C  00                 [56] (81)
                         * locals:
4605  00                 sizelocvars (0)
                         * upvalues:
4606  00                 sizeupvalues (0)
                         ** end of function **

                         
4607                     ** function [16] definition (level 2)
                         ** start of function **
4607  00                 string size (0)
                         source name: (none)
4609  04                 line defined (595)
460A  96                 last line defined (662)
460B  05                 nups (7)
460C  07                 numparams (1)
460D  01                 is_vararg (0)
460E  00                 maxstacksize (22)
                         * code:
4611  02                 sizecode (283)
4612  5D000000           [001] getglobal  1   0        ; 1074689893
4616  93000000           [002] getupval   2   0      
461A  62800001           [003] call       1   2   2  
461E  58000000           [004] test       1       0    ; to [6] if true
4622  1A000080           [005] jmp        1            ; to [7]
4626  1E008000           [006] return     0   1      
462A  53000000           [007] getupval   1   0      
462E  4E40C000           [008] gettable   1   1   257  ; "StoreItem"
4632  A480C000           [009] self       2   1   258  ; -224304205
4636  12010000           [010] move       4   0      
463A  A2808001           [011] call       2   3   2  
463E  D3008000           [012] getupval   3   1      
4642  CC00C181           [013] settable   3   259 260  ; "NumCompatItems" 0
4646  D3008000           [014] getupval   3   1      
464A  CC80C182           [015] settable   3   261 262  ; "ItemInfo" nil
464E  D3008000           [016] getupval   3   1      
4652  CC008083           [017] settable   3   263 0    ; "Id"
4656  DD000000           [018] getglobal  3   0        ; 1074689893
465A  12010001           [019] move       4   2      
465E  E2800001           [020] call       3   2   2  
4662  D8400000           [021] test       3       1    ; to [23] if false
4666  1AC04080           [022] jmp        260          ; to [283]
466A  D3000001           [023] getupval   3   2      
466E  E400C201           [024] self       3   3   264  ; 1660666296
4672  52010001           [025] move       5   2      
4676  E2808001           [026] call       3   3   2  
467A  1D010000           [027] getglobal  4   0        ; 1074689893
467E  52018001           [028] move       5   3      
4682  22810001           [029] call       4   2   2  
4686  18410000           [030] test       4       1    ; to [32] if false
468A  1A803E80           [031] jmp        251          ; to [283]
468E  13018000           [032] getupval   4   1      
4692  53018001           [033] getupval   5   3      
4696  4E41C202           [034] gettable   5   5   265  ; 460674431
469A  9D810200           [035] getglobal  6   10       ; mMovie
469E  D2018001           [036] move       7   3      
46A2  62818001           [037] call       5   3   2  
46A6  0C418182           [038] settable   4   261 5    ; "ItemInfo"
46AA  1D810200           [039] getglobal  4   10       ; mMovie
46AE  24C14202           [040] self       4   4   267  ; 643307062
46B2  99010300           [041] loadk      6   12       ; "SocketInfo.Icon"
46B6  D3018000           [042] getupval   7   1      
46BA  CE41C103           [043] gettable   7   7   261  ; "ItemInfo"
46BE  CE41C303           [044] gettable   7   7   269  ; "Icon"
46C2  22410002           [045] call       4   4   1  
46C6  19810300           [046] loadk      4   14       ; 0
46CA  53010002           [047] getupval   5   4      
46CE  4A018002           [048] len        5   5      
46D2  99810300           [049] loadk      6   14       ; 0
46D6  10C10480           [050] forprep    4   20       ; to [71]
46DA  13020002           [051] getupval   8   4      
46DE  0EC20104           [052] gettable   8   8   7  
46E2  0EC24304           [053] gettable   8   8   271  ; "Type"
fail op	35
46E6  23800004           [054] close      0  
46EA  1A800380           [055] jmp        15           ; to [71]
46EE  1D020000           [056] getglobal  8   0        ; 1074689893
46F2  53020002           [057] getupval   9   4      
46F6  4EC28104           [058] gettable   9   9   7  
46FA  4E02C404           [059] gettable   9   9   272  ; "Info"
46FE  22820001           [060] call       8   2   2  
4702  18020000           [061] test       8       0    ; to [63] if true
4706  1AC00180           [062] jmp        8            ; to [71]
470A  13028000           [063] getupval   8   1      
470E  53028000           [064] getupval   9   1      
4712  4EC2C004           [065] gettable   9   9   259  ; "NumCompatItems"
4716  93020002           [066] getupval   10  4      
471A  8EC20105           [067] gettable   10  10  7  
471E  8E424405           [068] gettable   10  10  273  ; "Count"
4722  43828204           [069] add        9   9   10 
4726  0C428281           [070] settable   8   259 9    ; "NumCompatItems"
472A  1481FA7F           [071] forloop    4   -21      ; to [51] if loop
472E  13028000           [072] getupval   8   1      
4732  0EC24004           [073] gettable   8   8   259  ; "NumCompatItems"
fail op	21
4736  55000282           [074] concat     1   260 8  
473A  1A000080           [075] jmp        1            ; to [77]
473E  17420000           [076] loadbool   8   0   1    ; false, to [78]
4742  17028000           [077] loadbool   8   1   0    ; true
4746  53028002           [078] getupval   9   5      
474A  4E82C404           [079] gettable   9   9   274  ; -132701534
474E  92020004           [080] move       10  8      
4752  D9C20400           [081] loadk      11  19       ; "/Lotus/Language/Menu/FusionTreasureMgr_InstallText"
4756  19030500           [082] loadk      12  20       ; "/Lotus/Language/Menu/FusionTreasureMgr_RequiresText"
475A  62820002           [083] call       9   4   2  
475E  9D820200           [084] getglobal  10  10       ; mMovie
4762  A4424505           [085] self       10  10  277  ; 386043535
4766  19830500           [086] loadk      12  22       ; "SocketInfo.Info.Name.text"
476A  52038004           [087] move       13  9      
476E  8B430000           [088] newtable   14  0   1    ; array=0, hash=1
4772  D3038000           [089] getupval   15  1      
4776  CE43C107           [090] gettable   15  15  261  ; "ItemInfo"
477A  CE03C607           [091] gettable   15  15  280  ; "Name"
477E  8CC3838B           [092] settable   14  279 15   ; "ITEM"
4782  A2428002           [093] call       10  5   1  
4786  9D420600           [094] getglobal  10  25       ; -174740002
478A  DD820200           [095] getglobal  11  10       ; mMovie
478E  E482C605           [096] self       11  11  282  ; 1803241227
4792  59C30600           [097] loadk      13  27       ; "SocketInfo.Info.Name"
4796  99030700           [098] loadk      14  28       ; "textHeight"
479A  E2020002           [099] call       11  4   0  
479E  A2820000           [100] call       10  0   2  
47A2  DD820200           [101] getglobal  11  10       ; mMovie
47A6  E442C705           [102] self       11  11  285  ; 471456102
47AA  59830700           [103] loadk      13  30       ; "SocketInfo.Info.Owned"
47AE  99C30700           [104] loadk      14  31       ; "_visible"
47B2  D2030004           [105] move       15  8      
47B6  E2428002           [106] call       11  5   1  
47BA  18020000           [107] test       8       0    ; to [109] if true
47BE  1A800380           [108] jmp        15           ; to [124]
47C2  DD820200           [109] getglobal  11  10       ; mMovie
47C6  E442C505           [110] self       11  11  277  ; 386043535
47CA  59030800           [111] loadk      13  32       ; "SocketInfo.Info.Owned.text"
47CE  99430800           [112] loadk      14  33       ; "/Lotus/Language/Menu/Crafting_Owned_Icon"
47D2  CB430000           [113] newtable   15  0   1    ; array=0, hash=1
47D6  13048000           [114] getupval   16  1      
47DA  0EC44008           [115] gettable   16  16  259  ; "NumCompatItems"
47DE  CC030491           [116] settable   15  290 16   ; "HOW_MANY"
47E2  E2428002           [117] call       11  5   1  
47E6  DD820200           [118] getglobal  11  10       ; mMovie
47EA  E442C705           [119] self       11  11  285  ; 471456102
47EE  59830700           [120] loadk      13  30       ; "SocketInfo.Info.Owned"
47F2  99C30800           [121] loadk      14  35       ; "_y"
47F6  D2030005           [122] move       15  10     
47FA  E2428002           [123] call       11  5   1  
47FE  D3028002           [124] getupval   11  5      
4802  CE82C405           [125] gettable   11  11  274  ; -132701534
4806  12030004           [126] move       12  8      
480A  5D430600           [127] getglobal  13  25       ; -174740002
480E  9D830200           [128] getglobal  14  10       ; mMovie
4812  A4834607           [129] self       14  14  282  ; 1803241227
4816  19840700           [130] loadk      16  30       ; "SocketInfo.Info.Owned"
481A  59040900           [131] loadk      17  36       ; "_height"
481E  A2030002           [132] call       14  4   0  
4822  62830000           [133] call       13  0   2  
4826  4D43C906           [134] sub        13  13  293  ; 0
482A  99030100           [135] loadk      14  4        ; 0
482E  E2820002           [136] call       11  4   2  
4832  1D430600           [137] getglobal  12  25       ; -174740002
4836  5D830200           [138] getglobal  13  10       ; mMovie
483A  6483C606           [139] self       13  13  282  ; 1803241227
483E  D9C30600           [140] loadk      15  27       ; "SocketInfo.Info.Name"
4842  19040700           [141] loadk      16  28       ; "textHeight"
4846  62030002           [142] call       13  4   0  
484A  22830000           [143] call       12  0   2  
484E  C3028305           [144] add        11  11  12 
4852  CD42C905           [145] sub        11  11  293  ; 0
4856  1D830200           [146] getglobal  12  10       ; mMovie
485A  24434706           [147] self       12  12  285  ; 471456102
485E  99830900           [148] loadk      14  38       ; "SocketInfo.Info"
4862  D9C30800           [149] loadk      15  35       ; "_y"
4866  1CC4C905           [150] div        16  11  295  ; 0
fail op	0
486A  00040008           [151] move       16  16     
486E  22438002           [152] call       12  5   1  
4872  1D030A00           [153] getglobal  12  40       ; math
4876  0E434A06           [154] gettable   12  12  297  ; -1962864584
487A  59830A00           [155] loadk      13  42       ; 0
487E  83C3CA05           [156] add        14  11  299  ; 0
4882  22838001           [157] call       12  3   2  
4886  52030006           [158] move       13  12     
488A  8403CB06           [159] mul        14  13  300  ; 92
488E  DD830200           [160] getglobal  15  10       ; mMovie
4892  E443C707           [161] self       15  15  285  ; 471456102
4896  59040300           [162] loadk      17  12       ; "SocketInfo.Icon"
489A  99440B00           [163] loadk      18  45       ; "_width"
489E  D2040007           [164] move       19  14     
48A2  E2438002           [165] call       15  5   1  
48A6  DD830200           [166] getglobal  15  10       ; mMovie
48AA  E443C707           [167] self       15  15  285  ; 471456102
48AE  59040300           [168] loadk      17  12       ; "SocketInfo.Icon"
48B2  99040900           [169] loadk      18  36       ; "_height"
48B6  D2048006           [170] move       19  13     
48BA  E2438002           [171] call       15  5   1  
48BE  DD830200           [172] getglobal  15  10       ; mMovie
48C2  E443C707           [173] self       15  15  285  ; 471456102
48C6  59040300           [174] loadk      17  12       ; "SocketInfo.Icon"
48CA  99840B00           [175] loadk      18  46       ; "_x"
48CE  D3040003           [176] getupval   19  6      
48D2  CE44C309           [177] gettable   19  19  269  ; "Icon"
48D6  0D450307           [178] sub        20  14  13 
48DA  1CC5490A           [179] div        20  20  295  ; 0
48DE  C3048509           [180] add        19  19  20 
48E2  E2438002           [181] call       15  5   1  
48E6  C3438397           [182] add        15  303 13   ; 0
48EA  1D440600           [183] getglobal  16  25       ; -174740002
48EE  5D840200           [184] getglobal  17  10       ; mMovie
48F2  6484C608           [185] self       17  17  282  ; 1803241227
48F6  D9040C00           [186] loadk      19  48       ; "SocketInfo.Bg"
48FA  19850B00           [187] loadk      20  46       ; "_x"
48FE  62040002           [188] call       17  4   0  
4902  22840000           [189] call       16  0   2  
4906  5D840200           [190] getglobal  17  10       ; mMovie
490A  6444C708           [191] self       17  17  285  ; 471456102
490E  D9040C00           [192] loadk      19  48       ; "SocketInfo.Bg"
4912  19050900           [193] loadk      20  36       ; "_height"
4916  52050006           [194] move       21  12     
491A  62448002           [195] call       17  5   1  
491E  5D840200           [196] getglobal  17  10       ; mMovie
4922  6444C708           [197] self       17  17  285  ; 471456102
4926  D9040C00           [198] loadk      19  48       ; "SocketInfo.Bg"
492A  19450B00           [199] loadk      20  45       ; "_width"
492E  52058007           [200] move       21  15     
4932  62448002           [201] call       17  5   1  
4936  5D840200           [202] getglobal  17  10       ; mMovie
493A  6444C708           [203] self       17  17  285  ; 471456102
493E  D9440C00           [204] loadk      19  49       ; "SocketInfo.Blurer"
4942  19050900           [205] loadk      20  36       ; "_height"
4946  43854C06           [206] add        21  12  306  ; 0
494A  62448002           [207] call       17  5   1  
494E  5D840200           [208] getglobal  17  10       ; mMovie
4952  6444C708           [209] self       17  17  285  ; 471456102
4956  D9440C00           [210] loadk      19  49       ; "SocketInfo.Blurer"
495A  19450B00           [211] loadk      20  45       ; "_width"
495E  4385CC07           [212] add        21  15  306  ; 0
4962  62448002           [213] call       17  5   1  
4966  5D840200           [214] getglobal  17  10       ; mMovie
496A  6444C708           [215] self       17  17  285  ; 471456102
496E  D9C40C00           [216] loadk      19  51       ; "SocketInfo.EdgeTop"
4972  19C50800           [217] loadk      20  35       ; "_y"
4976  5CC54906           [218] div        21  12  295  ; 0
fail op	0
497A  4005800A           [219] move       21  21     
497E  4385C30A           [220] add        21  21  270  ; 0
4982  62448002           [221] call       17  5   1  
4986  5D840200           [222] getglobal  17  10       ; mMovie
498A  6444C708           [223] self       17  17  285  ; 471456102
498E  D9C40C00           [224] loadk      19  51       ; "SocketInfo.EdgeTop"
4992  19450B00           [225] loadk      20  45       ; "_width"
4996  52058007           [226] move       21  15     
499A  62448002           [227] call       17  5   1  
499E  5D840200           [228] getglobal  17  10       ; mMovie
49A2  6444C708           [229] self       17  17  285  ; 471456102
49A6  D9040D00           [230] loadk      19  52       ; "SocketInfo.EdgeBottom"
49AA  19C50800           [231] loadk      20  35       ; "_y"
49AE  5CC54906           [232] div        21  12  295  ; 0
49B2  4D85C30A           [233] sub        21  21  270  ; 0
49B6  62448002           [234] call       17  5   1  
49BA  5D840200           [235] getglobal  17  10       ; mMovie
49BE  6444C708           [236] self       17  17  285  ; 471456102
49C2  D9040D00           [237] loadk      19  52       ; "SocketInfo.EdgeBottom"
49C6  19450B00           [238] loadk      20  45       ; "_width"
49CA  52058007           [239] move       21  15     
49CE  62448002           [240] call       17  5   1  
49D2  5D840200           [241] getglobal  17  10       ; mMovie
49D6  6444C708           [242] self       17  17  285  ; 471456102
49DA  D9440D00           [243] loadk      19  53       ; "SocketInfo.EdgeLeft"
49DE  19850B00           [244] loadk      20  46       ; "_x"
49E2  4DC50308           [245] sub        21  16  15 
49E6  4385C30A           [246] add        21  21  270  ; 0
49EA  62448002           [247] call       17  5   1  
49EE  5D840200           [248] getglobal  17  10       ; mMovie
49F2  6444C708           [249] self       17  17  285  ; 471456102
49F6  D9440D00           [250] loadk      19  53       ; "SocketInfo.EdgeLeft"
49FA  19050900           [251] loadk      20  36       ; "_height"
49FE  43854D06           [252] add        21  12  310  ; 0
4A02  62448002           [253] call       17  5   1  
4A06  5D840200           [254] getglobal  17  10       ; mMovie
4A0A  6444C708           [255] self       17  17  285  ; 471456102
4A0E  D9C40D00           [256] loadk      19  55       ; "SocketInfo.EdgeRightTop"
4A12  19C50800           [257] loadk      20  35       ; "_y"
4A16  5CC54906           [258] div        21  12  295  ; 0
fail op	0
4A1A  4005800A           [259] move       21  21     
4A1E  4DC5C90A           [260] sub        21  21  295  ; 0
4A22  62448002           [261] call       17  5   1  
4A26  5D840200           [262] getglobal  17  10       ; mMovie
4A2A  6444C708           [263] self       17  17  285  ; 471456102
4A2E  D9C40D00           [264] loadk      19  55       ; "SocketInfo.EdgeRightTop"
4A32  19050900           [265] loadk      20  36       ; "_height"
4A36  5CC54906           [266] div        21  12  295  ; 0
4A3A  4D05CE0A           [267] sub        21  21  312  ; 0
4A3E  62448002           [268] call       17  5   1  
4A42  5D840200           [269] getglobal  17  10       ; mMovie
4A46  6444C708           [270] self       17  17  285  ; 471456102
4A4A  D9440E00           [271] loadk      19  57       ; "SocketInfo.EdgeRightBottom"
4A4E  19C50800           [272] loadk      20  35       ; "_y"
4A52  5CC54906           [273] div        21  12  295  ; 0
4A56  43C5C90A           [274] add        21  21  295  ; 0
4A5A  62448002           [275] call       17  5   1  
4A5E  5D840200           [276] getglobal  17  10       ; mMovie
4A62  6444C708           [277] self       17  17  285  ; 471456102
4A66  D9440E00           [278] loadk      19  57       ; "SocketInfo.EdgeRightBottom"
4A6A  19050900           [279] loadk      20  36       ; "_height"
4A6E  5CC54906           [280] div        21  12  295  ; 0
4A72  4D05CE0A           [281] sub        21  21  312  ; 0
4A76  62448002           [282] call       17  5   1  
4A7A  1E008000           [283] return     0   1      
                         * constants:
4A7E  3A                 sizek (58)
4A7F  01                 const type 3
4A80  65770E40           const [0]: (1074689893)
4A84  04                 const type 4
4A85  0A                 string size (10)
4A86  53746F7265497465+  "StoreIte"
4A8E  6D00               "m\0"
                         const [1]: "StoreItem"
4A90  01                 const type 3
4A91  B363A1F2           const [2]: (-224304205)
4A95  04                 const type 4
4A96  0F                 string size (15)
4A97  4E756D436F6D7061+  "NumCompa"
4A9F  744974656D7300     "tItems\0"
                         const [3]: "NumCompatItems"
4AA6  03                 const type 3
4AA7  00000000           const [4]: (0)
4AAB  04                 const type 4
4AAC  09                 string size (9)
4AAD  4974656D496E666F+  "ItemInfo"
4AB5  00                 "\0"
                         const [5]: "ItemInfo"
4AB6  00                 const type 0
                         const [6]: nil
4AB7  04                 const type 4
4AB8  03                 string size (3)
4AB9  496400             "Id\0"
                         const [7]: "Id"
4ABC  01                 const type 3
4ABD  B8C1FB62           const [8]: (1660666296)
4AC1  01                 const type 3
4AC2  7F55751B           const [9]: (460674431)
4AC6  04                 const type 4
4AC7  07                 string size (7)
4AC8  6D4D6F76696500     "mMovie\0"
                         const [10]: "mMovie"
4ACF  01                 const type 3
4AD0  36165826           const [11]: (643307062)
4AD4  04                 const type 4
4AD5  10                 string size (16)
4AD6  536F636B6574496E+  "SocketIn"
4ADE  666F2E49636F6E00   "fo.Icon\0"
                         const [12]: "SocketInfo.Icon"
4AE6  04                 const type 4
4AE7  05                 string size (5)
4AE8  49636F6E00         "Icon\0"
                         const [13]: "Icon"
4AED  03                 const type 3
4AEE  0000803F           const [14]: (0)
4AF2  04                 const type 4
4AF3  05                 string size (5)
4AF4  5479706500         "Type\0"
                         const [15]: "Type"
4AF9  04                 const type 4
4AFA  05                 string size (5)
4AFB  496E666F00         "Info\0"
                         const [16]: "Info"
4B00  04                 const type 4
4B01  06                 string size (6)
4B02  436F756E7400       "Count\0"
                         const [17]: "Count"
4B08  01                 const type 3
4B09  A22217F8           const [18]: (-132701534)
4B0D  04                 const type 4
4B0E  33                 string size (51)
4B0F  2F4C6F7475732F4C+  "/Lotus/L"
4B17  616E67756167652F+  "anguage/"
4B1F  4D656E752F467573+  "Menu/Fus"
4B27  696F6E5472656173+  "ionTreas"
4B2F  7572654D67725F49+  "ureMgr_I"
4B37  6E7374616C6C5465+  "nstallTe"
4B3F  787400             "xt\0"
                         const [19]: "/Lotus/Language/Menu/FusionTreasureMgr_InstallText"
4B42  04                 const type 4
4B43  34                 string size (52)
4B44  2F4C6F7475732F4C+  "/Lotus/L"
4B4C  616E67756167652F+  "anguage/"
4B54  4D656E752F467573+  "Menu/Fus"
4B5C  696F6E5472656173+  "ionTreas"
4B64  7572654D67725F52+  "ureMgr_R"
4B6C  6571756972657354+  "equiresT"
4B74  65787400           "ext\0"
                         const [20]: "/Lotus/Language/Menu/FusionTreasureMgr_RequiresText"
4B78  01                 const type 3
4B79  8F8E0217           const [21]: (386043535)
4B7D  04                 const type 4
4B7E  1A                 string size (26)
4B7F  536F636B6574496E+  "SocketIn"
4B87  666F2E496E666F2E+  "fo.Info."
4B8F  4E616D652E746578+  "Name.tex"
4B97  7400               "t\0"
                         const [22]: "SocketInfo.Info.Name.text"
4B99  04                 const type 4
4B9A  05                 string size (5)
4B9B  4954454D00         "ITEM\0"
                         const [23]: "ITEM"
4BA0  04                 const type 4
4BA1  05                 string size (5)
4BA2  4E616D6500         "Name\0"
                         const [24]: "Name"
4BA7  01                 const type 3
4BA8  DEAD95F5           const [25]: (-174740002)
4BAC  01                 const type 3
4BAD  0B477B6B           const [26]: (1803241227)
4BB1  04                 const type 4
4BB2  15                 string size (21)
4BB3  536F636B6574496E+  "SocketIn"
4BBB  666F2E496E666F2E+  "fo.Info."
4BC3  4E616D6500         "Name\0"
                         const [27]: "SocketInfo.Info.Name"
4BC8  04                 const type 4
4BC9  0B                 string size (11)
4BCA  7465787448656967+  "textHeig"
4BD2  687400             "ht\0"
                         const [28]: "textHeight"
4BD5  01                 const type 3
4BD6  66D9191C           const [29]: (471456102)
4BDA  04                 const type 4
4BDB  16                 string size (22)
4BDC  536F636B6574496E+  "SocketIn"
4BE4  666F2E496E666F2E+  "fo.Info."
4BEC  4F776E656400       "Owned\0"
                         const [30]: "SocketInfo.Info.Owned"
4BF2  04                 const type 4
4BF3  09                 string size (9)
4BF4  5F76697369626C65+  "_visible"
4BFC  00                 "\0"
                         const [31]: "_visible"
4BFD  04                 const type 4
4BFE  1B                 string size (27)
4BFF  536F636B6574496E+  "SocketIn"
4C07  666F2E496E666F2E+  "fo.Info."
4C0F  4F776E65642E7465+  "Owned.te"
4C17  787400             "xt\0"
                         const [32]: "SocketInfo.Info.Owned.text"
4C1A  04                 const type 4
4C1B  29                 string size (41)
4C1C  2F4C6F7475732F4C+  "/Lotus/L"
4C24  616E67756167652F+  "anguage/"
4C2C  4D656E752F437261+  "Menu/Cra"
4C34  6674696E675F4F77+  "fting_Ow"
4C3C  6E65645F49636F6E+  "ned_Icon"
4C44  00                 "\0"
                         const [33]: "/Lotus/Language/Menu/Crafting_Owned_Icon"
4C45  04                 const type 4
4C46  09                 string size (9)
4C47  484F575F4D414E59+  "HOW_MANY"
4C4F  00                 "\0"
                         const [34]: "HOW_MANY"
4C50  04                 const type 4
4C51  03                 string size (3)
4C52  5F7900             "_y\0"
                         const [35]: "_y"
4C55  04                 const type 4
4C56  08                 string size (8)
4C57  5F68656967687400   "_height\0"
                         const [36]: "_height"
4C5F  03                 const type 3
4C60  0000A040           const [37]: (0)
4C64  04                 const type 4
4C65  10                 string size (16)
4C66  536F636B6574496E+  "SocketIn"
4C6E  666F2E496E666F00   "fo.Info\0"
                         const [38]: "SocketInfo.Info"
4C76  03                 const type 3
4C77  00000040           const [39]: (0)
4C7B  04                 const type 4
4C7C  05                 string size (5)
4C7D  6D61746800         "math\0"
                         const [40]: "math"
4C82  01                 const type 3
4C83  3810018B           const [41]: (-1962864584)
4C87  03                 const type 3
4C88  00004842           const [42]: (0)
4C8C  03                 const type 3
4C8D  0000A041           const [43]: (0)
4C91  03                 const type 3
4C92  5C8FC23F           const [44]: (92)
4C96  04                 const type 4
4C97  07                 string size (7)
4C98  5F776964746800     "_width\0"
                         const [45]: "_width"
4C9F  04                 const type 4
4CA0  03                 string size (3)
4CA1  5F7800             "_x\0"
                         const [46]: "_x"
4CA4  03                 const type 3
4CA5  00008743           const [47]: (0)
4CA9  04                 const type 4
4CAA  0E                 string size (14)
4CAB  536F636B6574496E+  "SocketIn"
4CB3  666F2E426700       "fo.Bg\0"
                         const [48]: "SocketInfo.Bg"
4CB9  04                 const type 4
4CBA  12                 string size (18)
4CBB  536F636B6574496E+  "SocketIn"
4CC3  666F2E426C757265+  "fo.Blure"
4CCB  7200               "r\0"
                         const [49]: "SocketInfo.Blurer"
4CCD  03                 const type 3
4CCE  0000C040           const [50]: (0)
4CD2  04                 const type 4
4CD3  13                 string size (19)
4CD4  536F636B6574496E+  "SocketIn"
4CDC  666F2E4564676554+  "fo.EdgeT"
4CE4  6F7000             "op\0"
                         const [51]: "SocketInfo.EdgeTop"
4CE7  04                 const type 4
4CE8  16                 string size (22)
4CE9  536F636B6574496E+  "SocketIn"
4CF1  666F2E4564676542+  "fo.EdgeB"
4CF9  6F74746F6D00       "ottom\0"
                         const [52]: "SocketInfo.EdgeBottom"
4CFF  04                 const type 4
4D00  14                 string size (20)
4D01  536F636B6574496E+  "SocketIn"
4D09  666F2E456467654C+  "fo.EdgeL"
4D11  65667400           "eft\0"
                         const [53]: "SocketInfo.EdgeLeft"
4D15  03                 const type 3
4D16  00008040           const [54]: (0)
4D1A  04                 const type 4
4D1B  18                 string size (24)
4D1C  536F636B6574496E+  "SocketIn"
4D24  666F2E4564676552+  "fo.EdgeR"
4D2C  69676874546F7000   "ightTop\0"
                         const [55]: "SocketInfo.EdgeRightTop"
4D34  03                 const type 3
4D35  00006041           const [56]: (0)
4D39  04                 const type 4
4D3A  1B                 string size (27)
4D3B  536F636B6574496E+  "SocketIn"
4D43  666F2E4564676552+  "fo.EdgeR"
4D4B  69676874426F7474+  "ightBott"
4D53  6F6D00             "om\0"
                         const [57]: "SocketInfo.EdgeRightBottom"
                         * functions:
4D56  00                 sizep (0)
                         * lines:
4D58  02                 sizelineinfo (283)
                         [pc] (line)
4D59  54                 [001] (84)
4D5A  02                 [002] (84)
4D5B  00                 [003] (84)
4D5C  00                 [004] (84)
4D5D  54                 [005] (84)
4D5E  02                 [006] (85)
4D5F  00                 [007] (88)
4D60  00                 [008] (88)
4D61  54                 [009] (89)
4D62  02                 [010] (89)
4D63  00                 [011] (89)
4D64  00                 [012] (90)
4D65  54                 [013] (90)
4D66  02                 [014] (91)
4D67  00                 [015] (91)
4D68  00                 [016] (92)
4D69  54                 [017] (92)
4D6A  02                 [018] (93)
4D6B  00                 [019] (93)
4D6C  00                 [020] (93)
4D6D  55                 [021] (93)
4D6E  02                 [022] (93)
4D6F  00                 [023] (94)
4D70  00                 [024] (94)
4D71  58                 [025] (94)
4D72  02                 [026] (94)
4D73  00                 [027] (95)
4D74  00                 [028] (95)
4D75  58                 [029] (95)
4D76  02                 [030] (95)
4D77  00                 [031] (95)
4D78  00                 [032] (96)
4D79  59                 [033] (96)
4D7A  02                 [034] (96)
4D7B  00                 [035] (96)
4D7C  00                 [036] (96)
4D7D  59                 [037] (96)
4D7E  02                 [038] (96)
4D7F  00                 [039] (98)
4D80  00                 [040] (98)
4D81  59                 [041] (98)
4D82  02                 [042] (98)
4D83  00                 [043] (98)
4D84  00                 [044] (98)
4D85  5A                 [045] (98)
4D86  02                 [046] (100)
4D87  00                 [047] (100)
4D88  00                 [048] (100)
4D89  5A                 [049] (100)
4D8A  02                 [050] (100)
4D8B  00                 [051] (101)
4D8C  00                 [052] (101)
4D8D  5B                 [053] (101)
4D8E  02                 [054] (101)
4D8F  00                 [055] (101)
4D90  00                 [056] (103)
4D91  5B                 [057] (103)
4D92  02                 [058] (103)
4D93  00                 [059] (103)
4D94  00                 [060] (103)
4D95  5C                 [061] (103)
4D96  02                 [062] (103)
4D97  00                 [063] (105)
4D98  00                 [064] (105)
4D99  5C                 [065] (105)
4D9A  02                 [066] (105)
4D9B  00                 [067] (105)
4D9C  00                 [068] (105)
4D9D  5D                 [069] (105)
4D9E  02                 [070] (105)
4D9F  00                 [071] (100)
4DA0  00                 [072] (110)
4DA1  5D                 [073] (110)
4DA2  02                 [074] (110)
4DA3  00                 [075] (110)
4DA4  00                 [076] (110)
4DA5  5D                 [077] (110)
4DA6  02                 [078] (111)
4DA7  00                 [079] (111)
4DA8  00                 [080] (111)
4DA9  5D                 [081] (111)
4DAA  02                 [082] (111)
4DAB  00                 [083] (111)
4DAC  00                 [084] (112)
4DAD  5D                 [085] (112)
4DAE  02                 [086] (112)
4DAF  00                 [087] (112)
4DB0  00                 [088] (112)
4DB1  5E                 [089] (112)
4DB2  02                 [090] (112)
4DB3  00                 [091] (112)
4DB4  00                 [092] (112)
4DB5  5E                 [093] (112)
4DB6  02                 [094] (113)
4DB7  00                 [095] (113)
4DB8  00                 [096] (113)
4DB9  5E                 [097] (113)
4DBA  02                 [098] (113)
4DBB  00                 [099] (113)
4DBC  00                 [100] (113)
4DBD  5E                 [101] (115)
4DBE  02                 [102] (115)
4DBF  00                 [103] (115)
4DC0  00                 [104] (115)
4DC1  5F                 [105] (115)
4DC2  02                 [106] (115)
4DC3  00                 [107] (116)
4DC4  00                 [108] (116)
4DC5  5F                 [109] (117)
4DC6  02                 [110] (117)
4DC7  00                 [111] (117)
4DC8  00                 [112] (117)
4DC9  5F                 [113] (117)
4DCA  02                 [114] (117)
4DCB  00                 [115] (117)
4DCC  00                 [116] (117)
4DCD  5F                 [117] (117)
4DCE  02                 [118] (119)
4DCF  00                 [119] (119)
4DD0  00                 [120] (119)
4DD1  5F                 [121] (119)
4DD2  02                 [122] (119)
4DD3  00                 [123] (119)
4DD4  00                 [124] (122)
4DD5  60                 [125] (122)
4DD6  02                 [126] (122)
4DD7  00                 [127] (122)
4DD8  00                 [128] (122)
4DD9  60                 [129] (122)
4DDA  02                 [130] (122)
4DDB  00                 [131] (122)
4DDC  00                 [132] (122)
4DDD  60                 [133] (122)
4DDE  02                 [134] (122)
4DDF  00                 [135] (122)
4DE0  00                 [136] (122)
4DE1  60                 [137] (122)
4DE2  02                 [138] (122)
4DE3  00                 [139] (122)
4DE4  00                 [140] (122)
4DE5  60                 [141] (122)
4DE6  02                 [142] (122)
4DE7  00                 [143] (122)
4DE8  00                 [144] (122)
4DE9  60                 [145] (122)
4DEA  02                 [146] (123)
4DEB  00                 [147] (123)
4DEC  00                 [148] (123)
4DED  60                 [149] (123)
4DEE  02                 [150] (123)
4DEF  00                 [151] (123)
4DF0  00                 [152] (123)
4DF1  62                 [153] (125)
4DF2  02                 [154] (125)
4DF3  00                 [155] (125)
4DF4  00                 [156] (125)
4DF5  62                 [157] (125)
4DF6  02                 [158] (126)
4DF7  00                 [159] (127)
4DF8  00                 [160] (-128)
4DF9  62                 [161] (-128)
4DFA  02                 [162] (-128)
4DFB  00                 [163] (-128)
4DFC  00                 [164] (-128)
4DFD  62                 [165] (-128)
4DFE  02                 [166] (-127)
4DFF  00                 [167] (-127)
4E00  00                 [168] (-127)
4E01  62                 [169] (-127)
4E02  02                 [170] (-127)
4E03  00                 [171] (-127)
4E04  00                 [172] (-126)
4E05  62                 [173] (-126)
4E06  02                 [174] (-126)
4E07  00                 [175] (-126)
4E08  00                 [176] (-126)
4E09  62                 [177] (-126)
4E0A  02                 [178] (-126)
4E0B  00                 [179] (-126)
4E0C  00                 [180] (-126)
4E0D  64                 [181] (-126)
4E0E  02                 [182] (-124)
4E0F  00                 [183] (-123)
4E10  00                 [184] (-123)
4E11  64                 [185] (-123)
4E12  02                 [186] (-123)
4E13  00                 [187] (-123)
4E14  00                 [188] (-123)
4E15  64                 [189] (-123)
4E16  02                 [190] (-122)
4E17  00                 [191] (-122)
4E18  00                 [192] (-122)
4E19  64                 [193] (-122)
4E1A  02                 [194] (-122)
4E1B  00                 [195] (-122)
4E1C  00                 [196] (-121)
4E1D  64                 [197] (-121)
4E1E  02                 [198] (-121)
4E1F  00                 [199] (-121)
4E20  00                 [200] (-121)
4E21  65                 [201] (-121)
4E22  02                 [202] (-120)
4E23  00                 [203] (-120)
4E24  00                 [204] (-120)
4E25  65                 [205] (-120)
4E26  02                 [206] (-120)
4E27  00                 [207] (-120)
4E28  00                 [208] (-119)
4E29  65                 [209] (-119)
4E2A  02                 [210] (-119)
4E2B  00                 [211] (-119)
4E2C  00                 [212] (-119)
4E2D  65                 [213] (-119)
4E2E  02                 [214] (-118)
4E2F  00                 [215] (-118)
4E30  00                 [216] (-118)
4E31  65                 [217] (-118)
4E32  02                 [218] (-118)
4E33  00                 [219] (-118)
4E34  00                 [220] (-118)
4E35  67                 [221] (-118)
4E36  02                 [222] (-117)
4E37  00                 [223] (-117)
4E38  00                 [224] (-117)
4E39  67                 [225] (-117)
4E3A  02                 [226] (-117)
4E3B  00                 [227] (-117)
4E3C  00                 [228] (-116)
4E3D  67                 [229] (-116)
4E3E  02                 [230] (-116)
4E3F  00                 [231] (-116)
4E40  00                 [232] (-116)
4E41  67                 [233] (-116)
4E42  02                 [234] (-116)
4E43  00                 [235] (-115)
4E44  00                 [236] (-115)
4E45  67                 [237] (-115)
4E46  02                 [238] (-115)
4E47  00                 [239] (-115)
4E48  00                 [240] (-115)
4E49  67                 [241] (-114)
4E4A  02                 [242] (-114)
4E4B  00                 [243] (-114)
4E4C  00                 [244] (-114)
4E4D  67                 [245] (-114)
4E4E  02                 [246] (-114)
4E4F  00                 [247] (-114)
4E50  00                 [248] (-113)
4E51  69                 [249] (-113)
4E52  02                 [250] (-113)
4E53  00                 [251] (-113)
4E54  00                 [252] (-113)
4E55  69                 [253] (-113)
4E56  02                 [254] (-112)
4E57  00                 [255] (-112)
4E58  00                 [256] (-112)
4E59  69                 [257] (-112)
4E5A  02                 [258] (-112)
4E5B  00                 [259] (-112)
4E5C  00                 [260] (-112)
4E5D  69                 [261] (-112)
4E5E  02                 [262] (-111)
4E5F  00                 [263] (-111)
4E60  00                 [264] (-111)
4E61  69                 [265] (-111)
4E62  02                 [266] (-111)
4E63  00                 [267] (-111)
4E64  00                 [268] (-111)
4E65  69                 [269] (-110)
4E66  02                 [270] (-110)
4E67  00                 [271] (-110)
4E68  00                 [272] (-110)
4E69  69                 [273] (-110)
4E6A  02                 [274] (-110)
4E6B  00                 [275] (-110)
4E6C  00                 [276] (-109)
4E6D  69                 [277] (-109)
4E6E  02                 [278] (-109)
4E6F  00                 [279] (-109)
4E70  00                 [280] (-109)
4E71  64                 [281] (-109)
4E72  02                 [282] (-109)
4E73  00                 [283] (-106)
                         * locals:
51C5  00                 sizelocvars (0)
                         * upvalues:
51C6  00                 sizeupvalues (0)
                         ** end of function **

                         
51C7                     ** function [17] definition (level 2)
                         ** start of function **
51C7  00                 string size (0)
                         source name: (none)
51C9  05                 line defined (664)
51CA  C1                 last line defined (705)
51CB  05                 nups (6)
51CC  06                 numparams (0)
51CD  00                 is_vararg (0)
51CE  00                 maxstacksize (20)
                         * code:
51D1  01                 sizecode (154)
51D2  1D000000           [001] getglobal  0   0        ; 1074689893
51D6  53000000           [002] getupval   1   0      
51DA  4E40C000           [003] gettable   1   1   257  ; "TreasureEntity"
51DE  22800001           [004] call       0   2   2  
51E2  18000000           [005] test       0       0    ; to [7] if true
51E6  1A000080           [006] jmp        1            ; to [8]
51EA  1E008000           [007] return     0   1      
51EE  13000000           [008] getupval   0   0      
51F2  0E404000           [009] gettable   0   0   257  ; "TreasureEntity"
51F6  24804000           [010] self       0   0   258  ; -1793789657
51FA  22800001           [011] call       0   2   2  
51FE  59C00000           [012] loadk      1   3        ; 0
5202  9D000100           [013] getglobal  2   4        ; 1287559689
5206  DD400100           [014] getglobal  3   5        ; 572299008
520A  19810100           [015] loadk      4   6        ; 0
520E  59810100           [016] loadk      5   6        ; 0
5212  99C10000           [017] loadk      6   3        ; 0
5216  E2800002           [018] call       3   4   2  
521A  13018000           [019] getupval   4   1      
521E  24C14102           [020] self       4   4   263  ; -231049143
5222  22010001           [021] call       4   2   0  
5226  A2800000           [022] call       2   0   2  
522A  D3000001           [023] getupval   3   2      
522E  CE00C201           [024] gettable   3   3   264  ; -132701534
5232  13018001           [025] getupval   4   3      
5236  59410200           [026] loadk      5   9        ; 0
523A  99810100           [027] loadk      6   6        ; 0
523E  E2800002           [028] call       3   4   2  
5242  19C10000           [029] loadk      4   3        ; 0
5246  4A010000           [030] len        5   0      
524A  99C10000           [031] loadk      6   3        ; 0
524E  10C11D80           [032] forprep    4   120      ; to [153]
5252  1D020000           [033] getglobal  8   0        ; 1074689893
5256  4EC20100           [034] gettable   9   0   7  
525A  4E82C204           [035] gettable   9   9   266  ; "mInstance"
525E  22820001           [036] call       8   2   2  
5262  18420000           [037] test       8       1    ; to [39] if false
5266  1A401C80           [038] jmp        114          ; to [153]
526A  13020002           [039] getupval   8   4      
526E  0EC24204           [040] gettable   8   8   267  ; "Info"
5272  24024304           [041] self       8   8   268  ; 1328525644
5276  8DC2C003           [042] sub        10  7   259  ; 0
527A  22828001           [043] call       8   3   2  
527E  18420000           [044] test       8       1    ; to [46] if false
5282  1A801A80           [045] jmp        107          ; to [153]
5286  19420300           [046] loadk      8   13       ; "SocketBtn"
528A  5D820300           [047] getglobal  9   14       ; -1615931716
528E  92028000           [048] move       10  1      
5292  62820001           [049] call       9   2   2  
5296  02420204           [050] concat     8   8   9  
529A  5D020100           [051] getglobal  9   4        ; 1287559689
529E  9D420100           [052] getglobal  10  5        ; 572299008
52A2  D9820100           [053] loadk      11  6        ; 0
52A6  19830100           [054] loadk      12  6        ; 0
52AA  59C30000           [055] loadk      13  3        ; 0
52AE  A2820002           [056] call       10  4   2  
52B2  CEC20100           [057] gettable   11  0   7  
52B6  CE82C205           [058] gettable   11  11  266  ; "mInstance"
52BA  E4C2C105           [059] self       11  11  263  ; -231049143
52BE  E2020001           [060] call       11  2   0  
52C2  62820000           [061] call       9   0   2  
52C6  9DC20300           [062] getglobal  10  15       ; -610107473
52CA  D2020001           [063] move       11  2      
52CE  12038004           [064] move       12  9      
52D2  A2828001           [065] call       10  3   2  
fail op	33
52D6  61004405           [066] tforloop   1       272  ; to [68] if exit
52DA  1A000080           [067] jmp        1            ; to [69]
52DE  97420000           [068] loadbool   10  0   1    ; false, to [70]
52E2  97028000           [069] loadbool   10  1   0    ; true
52E6  DD420400           [070] getglobal  11  17       ; mMovie
52EA  E482C405           [071] self       11  11  274  ; 471456102
52EE  52030004           [072] move       13  8      
52F2  99C30400           [073] loadk      14  19       ; "_visible"
52F6  D2030005           [074] move       15  10     
52FA  E2428002           [075] call       11  5   1  
52FE  DD420400           [076] getglobal  11  17       ; mMovie
5302  E482C405           [077] self       11  11  274  ; 471456102
5306  52030004           [078] move       13  8      
530A  99030500           [079] loadk      14  20       ; "_alpha"
530E  D2038001           [080] move       15  3      
5312  E2428002           [081] call       11  5   1  
5316  98020000           [082] test       10      0    ; to [84] if true
531A  1AC01080           [083] jmp        68           ; to [152]
531E  CEC20100           [084] gettable   11  0   7  
5322  CE82C205           [085] gettable   11  11  266  ; "mInstance"
5326  E442C505           [086] self       11  11  277  ; 1839670529
532A  E2820001           [087] call       11  2   2  
532E  1D430400           [088] getglobal  12  17       ; mMovie
5332  24834506           [089] self       12  12  278  ; -1356239790
5336  92038005           [090] move       14  11     
533A  DDC30500           [091] getglobal  15  23       ; gBackgroundRegion
533E  E403C607           [092] self       15  15  280  ; -138297819
5342  E2830001           [093] call       15  2   2  
5346  17048000           [094] loadbool   16  1   0    ; true
534A  22838002           [095] call       12  5   2  
534E  53038000           [096] getupval   13  1      
5352  64C3C106           [097] self       13  13  263  ; -231049143
5356  62830001           [098] call       13  2   2  
535A  4E43C606           [099] gettable   13  13  281  ; "heading"
535E  8EC30100           [100] gettable   14  0   7  
5362  8E834207           [101] gettable   14  14  266  ; "mInstance"
5366  A4C34107           [102] self       14  14  263  ; -231049143
536A  A2830001           [103] call       14  2   2  
536E  8E434607           [104] gettable   14  14  281  ; "heading"
5372  4D838306           [105] sub        13  13  14 
5376  93038000           [106] getupval   14  1      
537A  A4C34107           [107] self       14  14  263  ; -231049143
537E  A2830001           [108] call       14  2   2  
5382  8E834607           [109] gettable   14  14  282  ; "pitch"
5386  CEC30100           [110] gettable   15  0   7  
538A  CE83C207           [111] gettable   15  15  266  ; "mInstance"
538E  E4C3C107           [112] self       15  15  263  ; -231049143
5392  E2830001           [113] call       15  2   2  
5396  CE83C607           [114] gettable   15  15  282  ; "pitch"
539A  8DC30307           [115] sub        14  14  15 
539E  DD430400           [116] getglobal  15  17       ; mMovie
53A2  E483C407           [117] self       15  15  274  ; 471456102
53A6  52040004           [118] move       17  8      
53AA  99C40600           [119] loadk      18  27       ; "_x"
53AE  CE044706           [120] gettable   19  12  284  ; "x"
53B2  E2438002           [121] call       15  5   1  
53B6  DD430400           [122] getglobal  15  17       ; mMovie
53BA  E483C407           [123] self       15  15  274  ; 471456102
53BE  52040004           [124] move       17  8      
53C2  99440700           [125] loadk      18  29       ; "_y"
53C6  CE844706           [126] gettable   19  12  286  ; "y"
53CA  E2438002           [127] call       15  5   1  
53CE  DDC30700           [128] getglobal  15  31       ; -174740002
53D2  1D440400           [129] getglobal  16  17       ; mMovie
53D6  24044808           [130] self       16  16  288  ; 1803241227
53DA  92040004           [131] move       18  8      
53DE  D9440800           [132] loadk      19  33       ; "Id"
53E2  22040002           [133] call       16  4   0  
53E6  E2830000           [134] call       15  0   2  
53EA  13048002           [135] getupval   16  5      
53EE  0E444808           [136] gettable   16  16  289  ; "Id"
fail op	35
53F2  23008407           [137] close      0  
53F6  1A000380           [138] jmp        13           ; to [152]
53FA  DD430400           [139] getglobal  15  17       ; mMovie
53FE  E483C407           [140] self       15  15  274  ; 471456102
5402  59840800           [141] loadk      17  34       ; "SocketInfo"
5406  99C40600           [142] loadk      18  27       ; "_x"
540A  CE044706           [143] gettable   19  12  284  ; "x"
540E  CDC4C809           [144] sub        19  19  291  ; 0
5412  E2438002           [145] call       15  5   1  
5416  DD430400           [146] getglobal  15  17       ; mMovie
541A  E483C407           [147] self       15  15  274  ; 471456102
541E  59840800           [148] loadk      17  34       ; "SocketInfo"
5422  99440700           [149] loadk      18  29       ; "_y"
5426  CE844706           [150] gettable   19  12  286  ; "y"
542A  E2438002           [151] call       15  5   1  
542E  43C0C000           [152] add        1   1   259  ; 0
5432  1481E17F           [153] forloop    4   -121     ; to [33] if loop
5436  1E008000           [154] return     0   1      
                         * constants:
543A  24                 sizek (36)
543B  01                 const type 3
543C  65770E40           const [0]: (1074689893)
5440  04                 const type 4
5441  0F                 string size (15)
5442  5472656173757265+  "Treasure"
544A  456E7469747900     "Entity\0"
                         const [1]: "TreasureEntity"
5451  01                 const type 3
5452  27F11495           const [2]: (-1793789657)
5456  03                 const type 3
5457  0000803F           const [3]: (0)
545B  01                 const type 3
545C  099ABE4C           const [4]: (1287559689)
5460  01                 const type 3
5461  00971C22           const [5]: (572299008)
5465  03                 const type 3
5466  00000000           const [6]: (0)
546A  01                 const type 3
546B  49783AF2           const [7]: (-231049143)
546F  01                 const type 3
5470  A22217F8           const [8]: (-132701534)
5474  03                 const type 3
5475  0000C842           const [9]: (0)
5479  04                 const type 4
547A  0A                 string size (10)
547B  6D496E7374616E63+  "mInstanc"
5483  6500               "e\0"
                         const [10]: "mInstance"
5485  04                 const type 4
5486  05                 string size (5)
5487  496E666F00         "Info\0"
                         const [11]: "Info"
548C  01                 const type 3
548D  4CB12F4F           const [12]: (1328525644)
5491  04                 const type 4
5492  0A                 string size (10)
5493  536F636B65744274+  "SocketBt"
549B  6E00               "n\0"
                         const [13]: "SocketBtn"
549D  01                 const type 3
549E  BCD6AE9F           const [14]: (-1615931716)
54A2  01                 const type 3
54A3  AF7FA2DB           const [15]: (-610107473)
54A7  03                 const type 3
54A8  CDCCCCBD           const [16]: (-51)
54AC  04                 const type 4
54AD  07                 string size (7)
54AE  6D4D6F76696500     "mMovie\0"
                         const [17]: "mMovie"
54B5  01                 const type 3
54B6  66D9191C           const [18]: (471456102)
54BA  04                 const type 4
54BB  09                 string size (9)
54BC  5F76697369626C65+  "_visible"
54C4  00                 "\0"
                         const [19]: "_visible"
54C5  04                 const type 4
54C6  07                 string size (7)
54C7  5F616C70686100     "_alpha\0"
                         const [20]: "_alpha"
54CE  01                 const type 3
54CF  0125A76D           const [21]: (1839670529)
54D3  01                 const type 3
54D4  526C29AF           const [22]: (-1356239790)
54D8  04                 const type 4
54D9  12                 string size (18)
54DA  674261636B67726F+  "gBackgro"
54E2  756E64526567696F+  "undRegio"
54EA  6E00               "n\0"
                         const [23]: "gBackgroundRegion"
54EC  01                 const type 3
54ED  25BEC1F7           const [24]: (-138297819)
54F1  04                 const type 4
54F2  08                 string size (8)
54F3  68656164696E6700   "heading\0"
                         const [25]: "heading"
54FB  04                 const type 4
54FC  06                 string size (6)
54FD  706974636800       "pitch\0"
                         const [26]: "pitch"
5503  04                 const type 4
5504  03                 string size (3)
5505  5F7800             "_x\0"
                         const [27]: "_x"
5508  04                 const type 4
5509  02                 string size (2)
550A  7800               "x\0"
                         const [28]: "x"
550C  04                 const type 4
550D  03                 string size (3)
550E  5F7900             "_y\0"
                         const [29]: "_y"
5511  04                 const type 4
5512  02                 string size (2)
5513  7900               "y\0"
                         const [30]: "y"
5515  01                 const type 3
5516  DEAD95F5           const [31]: (-174740002)
551A  01                 const type 3
551B  0B477B6B           const [32]: (1803241227)
551F  04                 const type 4
5520  03                 string size (3)
5521  496400             "Id\0"
                         const [33]: "Id"
5524  04                 const type 4
5525  0B                 string size (11)
5526  536F636B6574496E+  "SocketIn"
552E  666F00             "fo\0"
                         const [34]: "SocketInfo"
5531  03                 const type 3
5532  00002042           const [35]: (0)
                         * functions:
5536  00                 sizep (0)
                         * lines:
5538  01                 sizelineinfo (154)
                         [pc] (line)
5539  99                 [001] (-103)
553A  02                 [002] (-103)
553B  00                 [003] (-103)
553C  00                 [004] (-103)
553D  99                 [005] (-103)
553E  02                 [006] (-103)
553F  00                 [007] (-102)
5540  00                 [008] (-99)
5541  99                 [009] (-99)
5542  02                 [010] (-99)
5543  00                 [011] (-99)
5544  00                 [012] (-98)
5545  99                 [013] (-97)
5546  02                 [014] (-97)
5547  00                 [015] (-97)
5548  00                 [016] (-97)
5549  99                 [017] (-97)
554A  02                 [018] (-97)
554B  00                 [019] (-97)
554C  00                 [020] (-97)
554D  99                 [021] (-97)
554E  02                 [022] (-97)
554F  00                 [023] (-96)
5550  00                 [024] (-96)
5551  9A                 [025] (-96)
5552  02                 [026] (-96)
5553  00                 [027] (-96)
5554  00                 [028] (-96)
5555  9D                 [029] (-94)
5556  02                 [030] (-94)
5557  00                 [031] (-94)
5558  00                 [032] (-94)
5559  9D                 [033] (-93)
555A  02                 [034] (-93)
555B  00                 [035] (-93)
555C  00                 [036] (-93)
555D  9D                 [037] (-93)
555E  02                 [038] (-93)
555F  00                 [039] (-92)
5560  00                 [040] (-92)
5561  9D                 [041] (-92)
5562  02                 [042] (-92)
5563  00                 [043] (-92)
5564  00                 [044] (-92)
5565  9E                 [045] (-92)
5566  02                 [046] (-91)
5567  00                 [047] (-91)
5568  00                 [048] (-91)
5569  9F                 [049] (-91)
556A  02                 [050] (-91)
556B  00                 [051] (-90)
556C  00                 [052] (-90)
556D  9F                 [053] (-90)
556E  02                 [054] (-90)
556F  00                 [055] (-90)
5570  00                 [056] (-90)
5571  9F                 [057] (-90)
5572  02                 [058] (-90)
5573  00                 [059] (-90)
5574  00                 [060] (-90)
5575  9F                 [061] (-90)
5576  02                 [062] (-89)
5577  00                 [063] (-89)
5578  00                 [064] (-89)
5579  9F                 [065] (-89)
557A  02                 [066] (-89)
557B  00                 [067] (-89)
557C  00                 [068] (-89)
557D  9F                 [069] (-89)
557E  02                 [070] (-87)
557F  00                 [071] (-87)
5580  00                 [072] (-87)
5581  9F                 [073] (-87)
5582  02                 [074] (-87)
5583  00                 [075] (-87)
5584  00                 [076] (-86)
5585  9F                 [077] (-86)
5586  02                 [078] (-86)
5587  00                 [079] (-86)
5588  00                 [080] (-86)
5589  9F                 [081] (-86)
558A  02                 [082] (-85)
558B  00                 [083] (-85)
558C  00                 [084] (-84)
558D  9F                 [085] (-84)
558E  02                 [086] (-84)
558F  00                 [087] (-84)
5590  00                 [088] (-83)
5591  A0                 [089] (-83)
5592  02                 [090] (-83)
5593  00                 [091] (-83)
5594  00                 [092] (-83)
5595  A0                 [093] (-83)
5596  02                 [094] (-83)
5597  00                 [095] (-83)
5598  00                 [096] (-82)
5599  A0                 [097] (-82)
559A  02                 [098] (-82)
559B  00                 [099] (-82)
559C  00                 [100] (-82)
559D  A0                 [101] (-82)
559E  02                 [102] (-82)
559F  00                 [103] (-82)
55A0  00                 [104] (-82)
55A1  A0                 [105] (-82)
55A2  02                 [106] (-81)
55A3  00                 [107] (-81)
55A4  00                 [108] (-81)
55A5  A0                 [109] (-81)
55A6  02                 [110] (-81)
55A7  00                 [111] (-81)
55A8  00                 [112] (-81)
55A9  A2                 [113] (-81)
55AA  02                 [114] (-81)
55AB  00                 [115] (-81)
55AC  00                 [116] (-79)
55AD  A2                 [117] (-79)
55AE  02                 [118] (-79)
55AF  00                 [119] (-79)
55B0  00                 [120] (-79)
55B1  A2                 [121] (-79)
55B2  02                 [122] (-78)
55B3  00                 [123] (-78)
55B4  00                 [124] (-78)
55B5  A2                 [125] (-78)
55B6  02                 [126] (-78)
55B7  00                 [127] (-78)
55B8  00                 [128] (-76)
55B9  A3                 [129] (-76)
55BA  02                 [130] (-76)
55BB  00                 [131] (-76)
55BC  00                 [132] (-76)
55BD  A3                 [133] (-76)
55BE  02                 [134] (-76)
55BF  00                 [135] (-76)
55C0  00                 [136] (-76)
55C1  A3                 [137] (-76)
55C2  02                 [138] (-76)
55C3  00                 [139] (-75)
55C4  00                 [140] (-75)
55C5  A3                 [141] (-75)
55C6  02                 [142] (-75)
55C7  00                 [143] (-75)
55C8  00                 [144] (-75)
55C9  A3                 [145] (-75)
55CA  02                 [146] (-74)
55CB  00                 [147] (-74)
55CC  00                 [148] (-74)
55CD  A3                 [149] (-74)
55CE  02                 [150] (-74)
55CF  00                 [151] (-74)
55D0  00                 [152] (-67)
55D1  A4                 [153] (-94)
55D2  02                 [154] (-63)
                         * locals:
57A1  00                 sizelocvars (0)
                         * upvalues:
57A2  00                 sizeupvalues (0)
                         ** end of function **

                         
57A3                     ** function [18] definition (level 2)
                         ** start of function **
57A3  00                 string size (0)
                         source name: (none)
57A5  05                 line defined (707)
57A6  F0                 last line defined (752)
57A7  05                 nups (4)
57A8  04                 numparams (0)
57A9  00                 is_vararg (0)
57AA  00                 maxstacksize (19)
                         * code:
57AD  01                 sizecode (140)
57AE  1D000000           [001] getglobal  0   0        ; 1074689893
57B2  53000000           [002] getupval   1   0      
57B6  22800001           [003] call       0   2   2  
57BA  18400000           [004] test       0       1    ; to [6] if false
57BE  1A400180           [005] jmp        6            ; to [12]
57C2  1D000000           [006] getglobal  0   0        ; 1074689893
57C6  53008000           [007] getupval   1   1      
57CA  4E40C000           [008] gettable   1   1   257  ; "TreasureEntity"
57CE  22800001           [009] call       0   2   2  
57D2  18000000           [010] test       0       0    ; to [12] if true
57D6  1A000080           [011] jmp        1            ; to [13]
57DA  1E008000           [012] return     0   1      
57DE  19800000           [013] loadk      0   2        ; 0
57E2  53008000           [014] getupval   1   1      
57E6  4C80C081           [015] settable   1   259 258  ; "FilledSockets" 0
57EA  53008000           [016] getupval   1   1      
57EE  4E40C000           [017] gettable   1   1   257  ; "TreasureEntity"
57F2  6400C100           [018] self       1   1   260  ; -1793789657
57F6  62800001           [019] call       1   2   2  
57FA  99400100           [020] loadk      2   5        ; 0
57FE  D9400100           [021] loadk      3   5        ; 0
5802  0A018000           [022] len        4   1      
5806  59410100           [023] loadk      5   5        ; 0
580A  D0801180           [024] forprep    3   71       ; to [96]
580E  DD010000           [025] getglobal  7   0        ; 1074689893
5812  0E828100           [026] gettable   8   1   6  
5816  0E824104           [027] gettable   8   8   262  ; "mInstance"
581A  E2810001           [028] call       7   2   2  
581E  D8410000           [029] test       7       1    ; to [31] if false
5822  1A001080           [030] jmp        65           ; to [96]
5826  03404100           [031] add        0   0   261  ; 0
582A  D3010000           [032] getupval   7   0      
582E  CEC1C103           [033] gettable   7   7   263  ; "Info"
5832  E401C203           [034] self       7   7   264  ; 1328525644
5836  4D424103           [035] sub        9   6   261  ; 0
583A  E2818001           [036] call       7   3   2  
fail op	9
583E  C9018003           [037] settable   7   7   0  
5842  D8010000           [038] test       7       0    ; to [40] if true
5846  1A800C80           [039] jmp        51           ; to [91]
584A  19420200           [040] loadk      8   9        ; "SocketBtn"
584E  5D820200           [041] getglobal  9   10       ; -1615931716
5852  92020001           [042] move       10  2      
5856  62820001           [043] call       9   2   2  
585A  02420204           [044] concat     8   8   9  
585E  5DC20200           [045] getglobal  9   11       ; mMovie
5862  6402C304           [046] self       9   9   268  ; 1803241227
5866  D2020004           [047] move       11  8      
586A  62828001           [048] call       9   3   2  
fail op	35
586E  2340C304           [049] close      0  
5872  1A400180           [050] jmp        6            ; to [57]
5876  9D820300           [051] getglobal  10  14       ; -1939558487
587A  DDC20200           [052] getglobal  11  11       ; mMovie
587E  19C30300           [053] loadk      12  15       ; "SocketBtn1.duplicateMovieClip"
5882  52030004           [054] move       13  8      
5886  83034401           [055] add        14  2   272  ; 0
588A  A2428002           [056] call       10  5   1  
588E  9DC20200           [057] getglobal  10  11       ; mMovie
5892  A4424405           [058] self       10  10  273  ; 471456102
5896  12030004           [059] move       12  8      
589A  59830400           [060] loadk      13  18       ; "_width"
589E  9DC30200           [061] getglobal  14  11       ; mMovie
58A2  A4C34407           [062] self       14  14  275  ; 703736394
58A6  A2830001           [063] call       14  2   2  
58AA  9C838382           [064] div        14  261 14   ; 0
58AE  8483038A           [065] mul        14  276 14   ; 0
58B2  A2428002           [066] call       10  5   1  
58B6  9DC20200           [067] getglobal  10  11       ; mMovie
58BA  A4424405           [068] self       10  10  273  ; 471456102
58BE  12030004           [069] move       12  8      
58C2  59430500           [070] loadk      13  21       ; "_height"
58C6  9DC30200           [071] getglobal  14  11       ; mMovie
58CA  A4C34407           [072] self       14  14  275  ; 703736394
58CE  A2830001           [073] call       14  2   2  
58D2  9C838382           [074] div        14  261 14   ; 0
58D6  8483038A           [075] mul        14  276 14   ; 0
58DA  A2428002           [076] call       10  5   1  
58DE  9DC20200           [077] getglobal  10  11       ; mMovie
58E2  A4424405           [078] self       10  10  273  ; 471456102
58E6  12030004           [079] move       12  8      
58EA  59830500           [080] loadk      13  22       ; "_visible"
58EE  97038000           [081] loadbool   14  1   0    ; true
58F2  A2428002           [082] call       10  5   1  
58F6  9DC20200           [083] getglobal  10  11       ; mMovie
58FA  A4424405           [084] self       10  10  273  ; 471456102
58FE  12030004           [085] move       12  8      
5902  59C30500           [086] loadk      13  23       ; "Id"
5906  8D434103           [087] sub        14  6   261  ; 0
590A  A2428002           [088] call       10  5   1  
590E  83404101           [089] add        2   2   261  ; 0
5912  1A000180           [090] jmp        5            ; to [96]
5916  93028000           [091] getupval   10  1      
591A  D3028000           [092] getupval   11  1      
591E  CEC2C005           [093] gettable   11  11  259  ; "FilledSockets"
5922  C342C105           [094] add        11  11  261  ; 0
5926  8CC28281           [095] settable   10  259 11   ; "FilledSockets"
592A  D4C0ED7F           [096] forloop    3   -72      ; to [25] if loop
592E  92020001           [097] move       10  2      
5932  D3028000           [098] getupval   11  1      
5936  CE02C605           [099] gettable   11  11  280  ; "NumSockets"
593A  19430100           [100] loadk      12  5        ; 0
593E  90420280           [101] forprep    10  10       ; to [112]
5942  9DC30200           [102] getglobal  14  11       ; mMovie
5946  A4434407           [103] self       14  14  273  ; 471456102
594A  19440200           [104] loadk      16  9        ; "SocketBtn"
594E  5D840200           [105] getglobal  17  10       ; -1615931716
5952  92048006           [106] move       18  13     
5956  62840001           [107] call       17  2   2  
595A  02440408           [108] concat     16  16  17 
595E  59840500           [109] loadk      17  22       ; "_visible"
5962  97040000           [110] loadbool   18  0   0    ; false
5966  A2438002           [111] call       14  5   1  
596A  9402FD7F           [112] forloop    10  -11      ; to [102] if loop
596E  93038000           [113] getupval   14  1      
5972  CA038000           [114] len        15  1      
5976  8CC3038C           [115] settable   14  280 15   ; "NumSockets"
597A  93030000           [116] getupval   14  0      
597E  8E434607           [117] gettable   14  14  281  ; "Type"
5982  A4834607           [118] self       14  14  282  ; -1957065004
5986  13040001           [119] getupval   16  2      
598A  A2838001           [120] call       14  3   2  
598E  98430000           [121] test       14      1    ; to [123] if false
5992  1A000480           [122] jmp        17           ; to [140]
5996  93038000           [123] getupval   14  1      
599A  8EC34007           [124] gettable   14  14  259  ; "FilledSockets"
599E  D3038000           [125] getupval   15  1      
59A2  CE03C607           [126] gettable   15  15  280  ; "NumSockets"
fail op	35
59A6  23C00307           [127] close      0  
59AA  1A800280           [128] jmp        11           ; to [140]
59AE  9D030000           [129] getglobal  14  0        ; 1074689893
59B2  DDC30600           [130] getglobal  15  27       ; finalTreasureLoopingSound
59B6  A2830001           [131] call       14  2   2  
59BA  98430000           [132] test       14      1    ; to [134] if false
59BE  1A400180           [133] jmp        6            ; to [140]
59C2  93038000           [134] getupval   14  1      
59C6  D3038001           [135] getupval   15  3      
59CA  CE43C707           [136] gettable   15  15  285  ; 630793108
59CE  1DC40600           [137] getglobal  16  27       ; finalTreasureLoopingSound
59D2  E2830001           [138] call       15  2   2  
59D6  8CC3038E           [139] settable   14  284 15   ; "LoopSound"
59DA  1E008000           [140] return     0   1      
                         * constants:
59DE  1E                 sizek (30)
59DF  01                 const type 3
59E0  65770E40           const [0]: (1074689893)
59E4  04                 const type 4
59E5  0F                 string size (15)
59E6  5472656173757265+  "Treasure"
59EE  456E7469747900     "Entity\0"
                         const [1]: "TreasureEntity"
59F5  03                 const type 3
59F6  00000000           const [2]: (0)
59FA  04                 const type 4
59FB  0E                 string size (14)
59FC  46696C6C6564536F+  "FilledSo"
5A04  636B65747300       "ckets\0"
                         const [3]: "FilledSockets"
5A0A  01                 const type 3
5A0B  27F11495           const [4]: (-1793789657)
5A0F  03                 const type 3
5A10  0000803F           const [5]: (0)
5A14  04                 const type 4
5A15  0A                 string size (10)
5A16  6D496E7374616E63+  "mInstanc"
5A1E  6500               "e\0"
                         const [6]: "mInstance"
5A20  04                 const type 4
5A21  05                 string size (5)
5A22  496E666F00         "Info\0"
                         const [7]: "Info"
5A27  01                 const type 3
5A28  4CB12F4F           const [8]: (1328525644)
5A2C  04                 const type 4
5A2D  0A                 string size (10)
5A2E  536F636B65744274+  "SocketBt"
5A36  6E00               "n\0"
                         const [9]: "SocketBtn"
5A38  01                 const type 3
5A39  BCD6AE9F           const [10]: (-1615931716)
5A3D  04                 const type 4
5A3E  07                 string size (7)
5A3F  6D4D6F76696500     "mMovie\0"
                         const [11]: "mMovie"
5A46  01                 const type 3
5A47  0B477B6B           const [12]: (1803241227)
5A4B  04                 const type 4
5A4C  0A                 string size (10)
5A4D  756E646566696E65+  "undefine"
5A55  6400               "d\0"
                         const [13]: "undefined"
5A57  01                 const type 3
5A58  A9AF648C           const [14]: (-1939558487)
5A5C  04                 const type 4
5A5D  1E                 string size (30)
5A5E  536F636B65744274+  "SocketBt"
5A66  6E312E6475706C69+  "n1.dupli"
5A6E  636174654D6F7669+  "cateMovi"
5A76  65436C697000       "eClip\0"
                         const [15]: "SocketBtn1.duplicateMovieClip"
5A7C  03                 const type 3
5A7D  0000C842           const [16]: (0)
5A81  01                 const type 3
5A82  66D9191C           const [17]: (471456102)
5A86  04                 const type 4
5A87  07                 string size (7)
5A88  5F776964746800     "_width\0"
                         const [18]: "_width"
5A8F  01                 const type 3
5A90  4A2AF229           const [19]: (703736394)
5A94  03                 const type 3
5A95  0000A042           const [20]: (0)
5A99  04                 const type 4
5A9A  08                 string size (8)
5A9B  5F68656967687400   "_height\0"
                         const [21]: "_height"
5AA3  04                 const type 4
5AA4  09                 string size (9)
5AA5  5F76697369626C65+  "_visible"
5AAD  00                 "\0"
                         const [22]: "_visible"
5AAE  04                 const type 4
5AAF  03                 string size (3)
5AB0  496400             "Id\0"
                         const [23]: "Id"
5AB3  04                 const type 4
5AB4  0B                 string size (11)
5AB5  4E756D536F636B65+  "NumSocke"
5ABD  747300             "ts\0"
                         const [24]: "NumSockets"
5AC0  04                 const type 4
5AC1  05                 string size (5)
5AC2  5479706500         "Type\0"
                         const [25]: "Type"
5AC7  01                 const type 3
5AC8  D48E598B           const [26]: (-1957065004)
5ACC  04                 const type 4
5ACD  1A                 string size (26)
5ACE  66696E616C547265+  "finalTre"
5AD6  61737572654C6F6F+  "asureLoo"
5ADE  70696E67536F756E+  "pingSoun"
5AE6  6400               "d\0"
                         const [27]: "finalTreasureLoopingSound"
5AE8  04                 const type 4
5AE9  0A                 string size (10)
5AEA  4C6F6F70536F756E+  "LoopSoun"
5AF2  6400               "d\0"
                         const [28]: "LoopSound"
5AF4  01                 const type 3
5AF5  94239925           const [29]: (630793108)
                         * functions:
5AF9  00                 sizep (0)
                         * lines:
5AFB  01                 sizelineinfo (140)
                         [pc] (line)
5AFC  C4                 [001] (-60)
5AFD  02                 [002] (-60)
5AFE  00                 [003] (-60)
5AFF  00                 [004] (-60)
5B00  C4                 [005] (-60)
5B01  02                 [006] (-60)
5B02  00                 [007] (-60)
5B03  00                 [008] (-60)
5B04  C4                 [009] (-60)
5B05  02                 [010] (-60)
5B06  00                 [011] (-60)
5B07  00                 [012] (-59)
5B08  C4                 [013] (-56)
5B09  02                 [014] (-55)
5B0A  00                 [015] (-55)
5B0B  00                 [016] (-53)
5B0C  C4                 [017] (-53)
5B0D  02                 [018] (-53)
5B0E  00                 [019] (-53)
5B0F  00                 [020] (-52)
5B10  C4                 [021] (-51)
5B11  02                 [022] (-51)
5B12  00                 [023] (-51)
5B13  00                 [024] (-51)
5B14  C4                 [025] (-50)
5B15  02                 [026] (-50)
5B16  00                 [027] (-50)
5B17  00                 [028] (-50)
5B18  C4                 [029] (-50)
5B19  02                 [030] (-50)
5B1A  00                 [031] (-49)
5B1B  00                 [032] (-47)
5B1C  C4                 [033] (-47)
5B1D  02                 [034] (-47)
5B1E  00                 [035] (-47)
5B1F  00                 [036] (-47)
5B20  C4                 [037] (-47)
5B21  02                 [038] (-45)
5B22  00                 [039] (-45)
5B23  00                 [040] (-44)
5B24  C4                 [041] (-44)
5B25  02                 [042] (-44)
5B26  00                 [043] (-44)
5B27  00                 [044] (-44)
5B28  C5                 [045] (-43)
5B29  02                 [046] (-43)
5B2A  00                 [047] (-43)
5B2B  00                 [048] (-43)
5B2C  C8                 [049] (-41)
5B2D  02                 [050] (-41)
5B2E  00                 [051] (-40)
5B2F  00                 [052] (-40)
5B30  C9                 [053] (-40)
5B31  02                 [054] (-40)
5B32  00                 [055] (-40)
5B33  00                 [056] (-40)
5B34  C9                 [057] (-37)
5B35  02                 [058] (-37)
5B36  00                 [059] (-37)
5B37  00                 [060] (-37)
5B38  CB                 [061] (-37)
5B39  02                 [062] (-37)
5B3A  00                 [063] (-37)
5B3B  00                 [064] (-37)
5B3C  CB                 [065] (-37)
5B3D  02                 [066] (-37)
5B3E  00                 [067] (-36)
5B3F  00                 [068] (-36)
5B40  CB                 [069] (-36)
5B41  02                 [070] (-36)
5B42  00                 [071] (-36)
5B43  00                 [072] (-36)
5B44  CB                 [073] (-36)
5B45  02                 [074] (-36)
5B46  00                 [075] (-36)
5B47  00                 [076] (-36)
5B48  CC                 [077] (-35)
5B49  02                 [078] (-35)
5B4A  00                 [079] (-35)
5B4B  00                 [080] (-35)
5B4C  CD                 [081] (-35)
5B4D  02                 [082] (-35)
5B4E  00                 [083] (-34)
5B4F  00                 [084] (-34)
5B50  CD                 [085] (-34)
5B51  02                 [086] (-34)
5B52  00                 [087] (-34)
5B53  00                 [088] (-34)
5B54  CD                 [089] (-32)
5B55  02                 [090] (-32)
5B56  00                 [091] (-30)
5B57  00                 [092] (-30)
5B58  CD                 [093] (-30)
5B59  02                 [094] (-30)
5B5A  00                 [095] (-30)
5B5B  00                 [096] (-51)
5B5C  CE                 [097] (-25)
5B5D  02                 [098] (-25)
5B5E  00                 [099] (-25)
5B5F  00                 [100] (-25)
5B60  CE                 [101] (-25)
5B61  02                 [102] (-24)
5B62  00                 [103] (-24)
5B63  00                 [104] (-24)
5B64  CE                 [105] (-24)
5B65  02                 [106] (-24)
5B66  00                 [107] (-24)
5B67  00                 [108] (-24)
5B68  CE                 [109] (-24)
5B69  02                 [110] (-24)
5B6A  00                 [111] (-24)
5B6B  00                 [112] (-25)
5B6C  CE                 [113] (-21)
5B6D  02                 [114] (-21)
5B6E  00                 [115] (-21)
5B6F  00                 [116] (-19)
5B70  CE                 [117] (-19)
5B71  02                 [118] (-19)
5B72  00                 [119] (-19)
5B73  00                 [120] (-19)
5B74  CF                 [121] (-19)
5B75  02                 [122] (-19)
5B76  00                 [123] (-19)
5B77  00                 [124] (-19)
5B78  D1                 [125] (-19)
5B79  02                 [126] (-19)
5B7A  00                 [127] (-19)
5B7B  00                 [128] (-19)
5B7C  D1                 [129] (-19)
5B7D  02                 [130] (-19)
5B7E  00                 [131] (-19)
5B7F  00                 [132] (-19)
5B80  D1                 [133] (-19)
5B81  02                 [134] (-18)
5B82  00                 [135] (-18)
5B83  00                 [136] (-18)
5B84  D1                 [137] (-18)
5B85  02                 [138] (-18)
5B86  00                 [139] (-18)
5B87  00                 [140] (-16)
                         * locals:
5D2C  00                 sizelocvars (0)
                         * upvalues:
5D2D  00                 sizeupvalues (0)
                         ** end of function **

                         
5D2E                     ** function [19] definition (level 2)
                         ** start of function **
5D2E  00                 string size (0)
                         source name: (none)
5D30  05                 line defined (754)
5D31  88                 last line defined (776)
5D32  06                 nups (1)
5D33  01                 numparams (2)
5D34  02                 is_vararg (0)
5D35  00                 maxstacksize (17)
                         * code:
5D37  3C                 sizecode (60)
5D38  8B000002           [01] newtable   2   4   0    ; array=4, hash=0
5D3C  D9000000           [02] loadk      3   0        ; "TreasuresList"
5D40  19410000           [03] loadk      4   1        ; "ScrollBar"
5D44  59810000           [04] loadk      5   2        ; "SortMenu"
5D48  99C10000           [05] loadk      6   3        ; "Categories"
5D4C  9B400002           [06] setlist    2   4   1    ; index 1 to 4
5D50  D9000100           [07] loadk      3   4        ; 0
5D54  0A010001           [08] len        4   2      
5D58  59010100           [09] loadk      5   4        ; 0
5D5C  D0C00B80           [10] forprep    3   48       ; to [59]
5D60  D3010000           [11] getupval   7   0      
5D64  CE41C103           [12] gettable   7   7   261  ; -132701534
5D68  12020000           [13] move       8   0      
5D6C  59820100           [14] loadk      9   6        ; 0
5D70  99C20100           [15] loadk      10  7        ; 0
5D74  E2810002           [16] call       7   4   2  
5D78  58000000           [17] test       1       0    ; to [19] if true
5D7C  1A000380           [18] jmp        13           ; to [32]
5D80  1D020200           [19] getglobal  8   8        ; mMovie
5D84  24424204           [20] self       8   8   265  ; 471456102
5D88  8E820101           [21] gettable   10  2   6  
5D8C  D9820200           [22] loadk      11  10       ; "_visible"
fail op	9
5D90  09030000           [23] settable   12  0   0  
5D94  22428002           [24] call       8   5   1  
5D98  1D020200           [25] getglobal  8   8        ; mMovie
5D9C  24424204           [26] self       8   8   265  ; 471456102
5DA0  8E820101           [27] gettable   10  2   6  
5DA4  D9C20200           [28] loadk      11  11       ; "_alpha"
5DA8  12038003           [29] move       12  7      
5DAC  22428002           [30] call       8   5   1  
5DB0  1A400680           [31] jmp        26           ; to [58]
5DB4  18400000           [32] test       0       1    ; to [34] if false
5DB8  1A400180           [33] jmp        6            ; to [40]
5DBC  1D020200           [34] getglobal  8   8        ; mMovie
5DC0  24424204           [35] self       8   8   265  ; 471456102
5DC4  8E820101           [36] gettable   10  2   6  
5DC8  D9820200           [37] loadk      11  10       ; "_visible"
5DCC  17038000           [38] loadbool   12  1   0    ; true
5DD0  22428002           [39] call       8   5   1  
5DD4  1D020300           [40] getglobal  8   12       ; 1390508688
5DD8  5D020200           [41] getglobal  9   8        ; mMovie
5DDC  8E820101           [42] gettable   10  2   6  
5DE0  DD420300           [43] getglobal  11  13       ; UISys
5DE4  CE82C305           [44] gettable   11  11  270  ; "FlashInstance_SMOOTH_STEP"
5DE8  0B038000           [45] newtable   12  1   0    ; array=1, hash=0
5DEC  59C30200           [46] loadk      13  11       ; "_alpha"
5DF0  1B438000           [47] setlist    12  1   1    ; index 1 to 1
5DF4  4B038000           [48] newtable   13  1   0    ; array=1, hash=0
5DF8  92038003           [49] move       14  7      
5DFC  5B438000           [50] setlist    13  1   1    ; index 1 to 1
5E00  99C30300           [51] loadk      14  15       ; 0
5E04  D9830100           [52] loadk      15  6        ; 0
5E08  25040000           [53] closure    16  0      
5E0C  12000000           [54] move       0   0      
5E10  12000001           [55] move       0   2      
5E14  12000003           [56] move       0   6      
5E18  22428004           [57] call       8   9   1  
5E1C  91010000           [58] close      6  
5E20  D480F37F           [59] forloop    3   -49      ; to [11] if loop
5E24  1E008000           [60] return     0   1      
                         * constants:
5E28  10                 sizek (16)
5E29  04                 const type 4
5E2A  0E                 string size (14)
5E2B  5472656173757265+  "Treasure"
5E33  734C69737400       "sList\0"
                         const [0]: "TreasuresList"
5E39  04                 const type 4
5E3A  0A                 string size (10)
5E3B  5363726F6C6C4261+  "ScrollBa"
5E43  7200               "r\0"
                         const [1]: "ScrollBar"
5E45  04                 const type 4
5E46  09                 string size (9)
5E47  536F72744D656E75+  "SortMenu"
5E4F  00                 "\0"
                         const [2]: "SortMenu"
5E50  04                 const type 4
5E51  0B                 string size (11)
5E52  43617465676F7269+  "Categori"
5E5A  657300             "es\0"
                         const [3]: "Categories"
5E5D  03                 const type 3
5E5E  0000803F           const [4]: (0)
5E62  01                 const type 3
5E63  A22217F8           const [5]: (-132701534)
5E67  03                 const type 3
5E68  00000000           const [6]: (0)
5E6C  03                 const type 3
5E6D  0000C842           const [7]: (0)
5E71  04                 const type 4
5E72  07                 string size (7)
5E73  6D4D6F76696500     "mMovie\0"
                         const [8]: "mMovie"
5E7A  01                 const type 3
5E7B  66D9191C           const [9]: (471456102)
5E7F  04                 const type 4
5E80  09                 string size (9)
5E81  5F76697369626C65+  "_visible"
5E89  00                 "\0"
                         const [10]: "_visible"
5E8A  04                 const type 4
5E8B  07                 string size (7)
5E8C  5F616C70686100     "_alpha\0"
                         const [11]: "_alpha"
5E93  01                 const type 3
5E94  907AE152           const [12]: (1390508688)
5E98  04                 const type 4
5E99  06                 string size (6)
5E9A  554953797300       "UISys\0"
                         const [13]: "UISys"
5EA0  04                 const type 4
5EA1  1A                 string size (26)
5EA2  466C617368496E73+  "FlashIns"
5EAA  74616E63655F534D+  "tance_SM"
5EB2  4F4F54485F535445+  "OOTH_STE"
5EBA  5000               "P\0"
                         const [14]: "FlashInstance_SMOOTH_STEP"
5EBC  03                 const type 3
5EBD  0000803E           const [15]: (0)
                         * functions:
5EC1  01                 sizep (1)
                         
5EC2                     ** function [0] definition (level 3)
                         ** start of function **
5EC2  00                 string size (0)
                         source name: (none)
5EC4  06                 line defined (769)
5EC5  85                 last line defined (773)
5EC6  06                 nups (3)
5EC7  03                 numparams (0)
5EC8  00                 is_vararg (0)
5EC9  00                 maxstacksize (5)
                         * code:
5ECB  0C                 sizecode (12)
5ECC  13000000           [01] getupval   0   0      
5ED0  18000000           [02] test       0       0    ; to [4] if true
5ED4  1AC00180           [03] jmp        8            ; to [12]
5ED8  1D000000           [04] getglobal  0   0        ; mMovie
5EDC  24404000           [05] self       0   0   257  ; 471456102
5EE0  93008000           [06] getupval   2   1      
5EE4  D3000001           [07] getupval   3   2      
5EE8  8EC00001           [08] gettable   2   2   3  
5EEC  D9800000           [09] loadk      3   2        ; "_visible"
5EF0  17010000           [10] loadbool   4   0   0    ; false
5EF4  22408002           [11] call       0   5   1  
5EF8  1E008000           [12] return     0   1      
                         * constants:
5EFC  03                 sizek (3)
5EFD  04                 const type 4
5EFE  07                 string size (7)
5EFF  6D4D6F76696500     "mMovie\0"
                         const [0]: "mMovie"
5F06  01                 const type 3
5F07  66D9191C           const [1]: (471456102)
5F0B  04                 const type 4
5F0C  09                 string size (9)
5F0D  5F76697369626C65+  "_visible"
5F15  00                 "\0"
                         const [2]: "_visible"
                         * functions:
5F16  00                 sizep (0)
                         * lines:
5F17  0C                 sizelineinfo (12)
                         [pc] (line)
5F18  02                 [01] (2)
5F19  03                 [02] (2)
5F1A  00                 [03] (2)
5F1B  00                 [04] (3)
5F1C  02                 [05] (3)
5F1D  03                 [06] (3)
5F1E  00                 [07] (3)
5F1F  00                 [08] (3)
5F20  02                 [09] (3)
5F21  03                 [10] (3)
5F22  00                 [11] (3)
5F23  00                 [12] (5)
                         * locals:
5F48  00                 sizelocvars (0)
                         * upvalues:
5F49  00                 sizeupvalues (0)
                         ** end of function **

                         * lines:
5F4A  3C                 sizelineinfo (60)
                         [pc] (line)
5F4B  F3                 [01] (-13)
5F4C  02                 [02] (-13)
5F4D  00                 [03] (-13)
5F4E  00                 [04] (-13)
5F4F  F3                 [05] (-13)
5F50  02                 [06] (-13)
5F51  00                 [07] (-11)
5F52  00                 [08] (-11)
5F53  F3                 [09] (-11)
5F54  02                 [10] (-11)
5F55  00                 [11] (-10)
5F56  00                 [12] (-10)
5F57  F3                 [13] (-10)
5F58  02                 [14] (-10)
5F59  00                 [15] (-10)
5F5A  00                 [16] (-10)
5F5B  F3                 [17] (-8)
5F5C  02                 [18] (-8)
5F5D  00                 [19] (-7)
5F5E  00                 [20] (-7)
5F5F  F3                 [21] (-7)
5F60  02                 [22] (-7)
5F61  00                 [23] (-7)
5F62  00                 [24] (-7)
5F63  F5                 [25] (-6)
5F64  02                 [26] (-6)
5F65  00                 [27] (-6)
5F66  00                 [28] (-6)
5F67  F5                 [29] (-6)
5F68  02                 [30] (-6)
5F69  00                 [31] (-6)
5F6A  00                 [32] (-4)
5F6B  F5                 [33] (-4)
5F6C  02                 [34] (-3)
5F6D  00                 [35] (-3)
5F6E  00                 [36] (-3)
5F6F  F5                 [37] (-3)
5F70  02                 [38] (-3)
5F71  00                 [39] (-3)
5F72  00                 [40] (0)
5F73  F6                 [41] (0)
5F74  02                 [42] (0)
5F75  00                 [43] (0)
5F76  00                 [44] (0)
5F77  F6                 [45] (0)
5F78  02                 [46] (0)
5F79  00                 [47] (0)
5F7A  00                 [48] (0)
5F7B  F6                 [49] (0)
5F7C  02                 [50] (0)
5F7D  00                 [51] (0)
5F7E  00                 [52] (0)
5F7F  F6                 [53] (5)
5F80  02                 [54] (5)
5F81  00                 [55] (5)
5F82  00                 [56] (5)
5F83  F6                 [57] (0)
5F84  02                 [58] (6)
5F85  00                 [59] (-11)
5F86  00                 [60] (8)
                         * locals:
603B  00                 sizelocvars (0)
                         * upvalues:
603C  00                 sizeupvalues (0)
                         ** end of function **

                         
603D                     ** function [20] definition (level 2)
                         ** start of function **
603D  00                 string size (0)
                         source name: (none)
603F  06                 line defined (778)
6040  90                 last line defined (784)
6041  06                 nups (2)
6042  02                 numparams (0)
6043  00                 is_vararg (0)
6044  00                 maxstacksize (7)
                         * code:
6046  1B                 sizecode (27)
6047  13000000           [01] getupval   0   0      
604B  0E004000           [02] gettable   0   0   256  ; "Name"
604F  53000000           [03] getupval   1   0      
6053  4E40C000           [04] gettable   1   1   257  ; "FusionPointValue"
fail op	35
6057  6380C000           [05] close      1  
605B  1A400380           [06] jmp        14           ; to [21]
605F  52000000           [07] move       1   0      
6063  99C00000           [08] loadk      2   3        ; "\r\n"
6067  DD000100           [09] getglobal  3   4        ; mMovie
606B  E440C101           [10] self       3   3   261  ; 98241492
606F  59810100           [11] loadk      5   6        ; "<FUSION_POINTS>"
6073  97018000           [12] loadbool   6   1   0    ; true
6077  E2800002           [13] call       3   4   2  
607B  19C10100           [14] loadk      4   7        ; " "
607F  53018000           [15] getupval   5   1      
6083  4E01C202           [16] gettable   5   5   264  ; 2115597333
6087  93010000           [17] getupval   6   0      
608B  8E414003           [18] gettable   6   6   257  ; "FusionPointValue"
608F  62810001           [19] call       5   2   2  
6093  02408100           [20] concat     0   1   5  
6097  5D000100           [21] getglobal  1   4        ; mMovie
609B  6440C200           [22] self       1   1   265  ; 471456102
609F  D9800200           [23] loadk      3   10       ; "TreasureInfo.Name"
60A3  19C10200           [24] loadk      4   11       ; "text"
60A7  52010000           [25] move       5   0      
60AB  62408002           [26] call       1   5   1  
60AF  1E008000           [27] return     0   1      
                         * constants:
60B3  0C                 sizek (12)
60B4  04                 const type 4
60B5  05                 string size (5)
60B6  4E616D6500         "Name\0"
                         const [0]: "Name"
60BB  04                 const type 4
60BC  11                 string size (17)
60BD  467573696F6E506F+  "FusionPo"
60C5  696E7456616C7565+  "intValue"
60CD  00                 "\0"
                         const [1]: "FusionPointValue"
60CE  00                 const type 0
                         const [2]: nil
60CF  04                 const type 4
60D0  03                 string size (3)
60D1  0D0A00             "\r\n\0"
                         const [3]: "\r\n"
60D4  04                 const type 4
60D5  07                 string size (7)
60D6  6D4D6F76696500     "mMovie\0"
                         const [4]: "mMovie"
60DD  01                 const type 3
60DE  D40BDB05           const [5]: (98241492)
60E2  04                 const type 4
60E3  10                 string size (16)
60E4  3C465553494F4E5F+  "<FUSION_"
60EC  504F494E54533E00   "POINTS>\0"
                         const [6]: "<FUSION_POINTS>"
60F4  04                 const type 4
60F5  02                 string size (2)
60F6  2000               " \0"
                         const [7]: " "
60F8  01                 const type 3
60F9  1574197E           const [8]: (2115597333)
60FD  01                 const type 3
60FE  66D9191C           const [9]: (471456102)
6102  04                 const type 4
6103  12                 string size (18)
6104  5472656173757265+  "Treasure"
610C  496E666F2E4E616D+  "Info.Nam"
6114  6500               "e\0"
                         const [10]: "TreasureInfo.Name"
6116  04                 const type 4
6117  05                 string size (5)
6118  7465787400         "text\0"
                         const [11]: "text"
                         * functions:
611D  00                 sizep (0)
                         * lines:
611E  1B                 sizelineinfo (27)
                         [pc] (line)
611F  0B                 [01] (11)
6120  03                 [02] (11)
6121  00                 [03] (12)
6122  00                 [04] (12)
6123  0B                 [05] (12)
6124  03                 [06] (12)
6125  00                 [07] (13)
6126  00                 [08] (13)
6127  0C                 [09] (13)
6128  03                 [10] (13)
6129  00                 [11] (13)
612A  00                 [12] (13)
612B  0C                 [13] (13)
612C  03                 [14] (13)
612D  00                 [15] (13)
612E  00                 [16] (13)
612F  0C                 [17] (13)
6130  03                 [18] (13)
6131  00                 [19] (13)
6132  00                 [20] (13)
6133  0C                 [21] (15)
6134  03                 [22] (15)
6135  00                 [23] (15)
6136  00                 [24] (15)
6137  0D                 [25] (15)
6138  03                 [26] (15)
6139  00                 [27] (16)
                         * locals:
618B  00                 sizelocvars (0)
                         * upvalues:
618C  00                 sizeupvalues (0)
                         ** end of function **

                         
618D                     ** function [21] definition (level 2)
                         ** start of function **
618D  00                 string size (0)
                         source name: (none)
618F  06                 line defined (786)
6190  BE                 last line defined (830)
6191  06                 nups (9)
6192  09                 numparams (1)
6193  01                 is_vararg (0)
6194  00                 maxstacksize (8)
                         * code:
6196  71                 sizecode (113)
6197  57008000           [001] loadbool   1   1   0    ; true
fail op	8
619B  48000000           [002] setupval   1   0      
619F  53008000           [003] getupval   1   1      
61A3  58000000           [004] test       1       0    ; to [6] if true
61A7  1A800280           [005] jmp        11           ; to [17]
61AB  5D000000           [006] getglobal  1   0        ; gFlashMgr
61AF  6440C000           [007] self       1   1   257  ; -991492797
61B3  62400001           [008] call       1   2   1  
61B7  5D800000           [009] getglobal  1   2        ; mMovie
61BB  64C0C000           [010] self       1   1   259  ; 471456102
61BF  D9000100           [011] loadk      3   4        ; "SelectHint"
61C3  19410100           [012] loadk      4   5        ; "_visible"
61C7  57010000           [013] loadbool   5   0   0    ; false
61CB  62408002           [014] call       1   5   1  
61CF  57000000           [015] loadbool   1   0   0    ; false
fail op	8
61D3  48008000           [016] setupval   1   1      
61D7  5D800100           [017] getglobal  1   6        ; 1074689893
61DB  93000001           [018] getupval   2   2      
61DF  62800001           [019] call       1   2   2  
61E3  58400000           [020] test       1       1    ; to [22] if false
61E7  1A400080           [021] jmp        2            ; to [24]
61EB  53008001           [022] getupval   1   3      
61EF  62408000           [023] call       1   1   1  
61F3  4B000000           [024] newtable   1   0   0    ; array=0, hash=0
61F7  9DC00100           [025] getglobal  2   7        ; table
61FB  8E004201           [026] gettable   2   2   264  ; -431682403
61FF  D2008000           [027] move       3   1      
6203  13010002           [028] getupval   4   4      
6207  24414202           [029] self       4   4   265  ; 455421500
620B  22010001           [030] call       4   2   0  
620F  A2400000           [031] call       2   0   1  
6213  9DC00100           [032] getglobal  2   7        ; table
6217  8E004201           [033] gettable   2   2   264  ; -431682403
621B  D2008000           [034] move       3   1      
621F  0E814200           [035] gettable   4   0   266  ; "StoreItem"
6223  24C14202           [036] self       4   4   267  ; -451476864
6227  22810001           [037] call       4   2   2  
622B  24414202           [038] self       4   4   265  ; 455421500
622F  22010001           [039] call       4   2   0  
6233  A2400000           [040] call       2   0   1  
6237  93008002           [041] getupval   2   5      
623B  DD400300           [042] getglobal  3   13       ; UISys
623F  CE80C301           [043] gettable   3   3   270  ; 1151030240
6243  12018000           [044] move       4   1      
6247  E2800001           [045] call       3   2   2  
624B  8CC00086           [046] settable   2   268 3    ; "Loader"
624F  93000003           [047] getupval   2   6      
6253  A4C04301           [048] self       2   2   271  ; -492641364
6257  17018000           [049] loadbool   4   1   0    ; true
625B  A2408001           [050] call       2   3   1  
625F  9D800000           [051] getglobal  2   2        ; mMovie
6263  A4C04001           [052] self       2   2   259  ; 471456102
6267  19010400           [053] loadk      4   16       ; "TreasureInfo.Desc"
626B  59410400           [054] loadk      5   17       ; "text"
626F  8E814400           [055] gettable   6   0   274  ; "LocalizedDesc"
6273  A2408002           [056] call       2   5   1  
6277  99C00400           [057] loadk      2   19       ; 0
627B  DD800000           [058] getglobal  3   2        ; mMovie
627F  E4C0C001           [059] self       3   3   259  ; 471456102
6283  59010500           [060] loadk      5   20       ; "TreasureInfo.Separator"
6287  99410500           [061] loadk      6   21       ; "_y"
fail op	0
628B  C0010001           [062] move       7   2      
628F  E2408002           [063] call       3   5   1  
6293  83804501           [064] add        2   2   278  ; 0
6297  DD800000           [065] getglobal  3   2        ; mMovie
629B  E4C0C001           [066] self       3   3   259  ; 471456102
629F  59C10500           [067] loadk      5   23       ; "TreasureInfo.Name"
62A3  99410500           [068] loadk      6   21       ; "_y"
fail op	0
62A7  C0010001           [069] move       7   2      
62AB  CD01C603           [070] sub        7   7   280  ; 0
62AF  E2408002           [071] call       3   5   1  
62B3  DD800000           [072] getglobal  3   2        ; mMovie
62B7  E4C0C001           [073] self       3   3   259  ; 471456102
62BB  59C10500           [074] loadk      5   23       ; "TreasureInfo.Name"
62BF  99410600           [075] loadk      6   25       ; "verticalAlignment"
62C3  D9810600           [076] loadk      7   26       ; "bottom"
62C7  E2408002           [077] call       3   5   1  
fail op	8
62CB  08000001           [078] setupval   0   2      
62CF  D3008003           [079] getupval   3   7      
62D3  E2408000           [080] call       3   1   1  
62D7  DDC00600           [081] getglobal  3   27       ; -174740002
62DB  1D810000           [082] getglobal  4   2        ; mMovie
62DF  24014702           [083] self       4   4   284  ; 1803241227
62E3  99C10500           [084] loadk      6   23       ; "TreasureInfo.Name"
62E7  D9410700           [085] loadk      7   29       ; "textHeight"
62EB  22010002           [086] call       4   4   0  
62EF  E2800000           [087] call       3   0   2  
62F3  C3C00001           [088] add        3   2   3  
62F7  8380C701           [089] add        2   3   286  ; 0
62FB  DD800000           [090] getglobal  3   2        ; mMovie
62FF  E4C0C001           [091] self       3   3   259  ; 471456102
6303  59C10700           [092] loadk      5   31       ; "TreasureInfo.Bg"
6307  99010800           [093] loadk      6   32       ; "_height"
630B  D2010001           [094] move       7   2      
630F  E2408002           [095] call       3   5   1  
6313  DD800000           [096] getglobal  3   2        ; mMovie
6317  E4C0C001           [097] self       3   3   259  ; 471456102
631B  59410800           [098] loadk      5   33       ; "TreasureInfo.Blurer"
631F  99010800           [099] loadk      6   32       ; "_height"
6323  D2010001           [100] move       7   2      
6327  E2408002           [101] call       3   5   1  
632B  DD800000           [102] getglobal  3   2        ; mMovie
632F  E4C0C001           [103] self       3   3   259  ; 471456102
6333  59810800           [104] loadk      5   34       ; "TreasureInfo.RotateHint"
6337  99410500           [105] loadk      6   21       ; "_y"
fail op	0
633B  C0010001           [106] move       7   2      
633F  CDC1C803           [107] sub        7   7   291  ; 0
6343  E2408002           [108] call       3   5   1  
6347  D3008002           [109] getupval   3   5      
634B  CC404992           [110] settable   3   292 293  ; "IsLoading" 1
634F  D3000004           [111] getupval   3   8      
6353  E2408000           [112] call       3   1   1  
6357  1E008000           [113] return     0   1      
                         * constants:
635B  26                 sizek (38)
635C  04                 const type 4
635D  0A                 string size (10)
635E  67466C6173684D67+  "gFlashMg"
6366  7200               "r\0"
                         const [0]: "gFlashMgr"
6368  01                 const type 3
6369  4305E7C4           const [1]: (-991492797)
636D  04                 const type 4
636E  07                 string size (7)
636F  6D4D6F76696500     "mMovie\0"
                         const [2]: "mMovie"
6376  01                 const type 3
6377  66D9191C           const [3]: (471456102)
637B  04                 const type 4
637C  0B                 string size (11)
637D  53656C6563744869+  "SelectHi"
6385  6E7400             "nt\0"
                         const [4]: "SelectHint"
6388  04                 const type 4
6389  09                 string size (9)
638A  5F76697369626C65+  "_visible"
6392  00                 "\0"
                         const [5]: "_visible"
6393  01                 const type 3
6394  65770E40           const [6]: (1074689893)
6398  04                 const type 4
6399  06                 string size (6)
639A  7461626C6500       "table\0"
                         const [7]: "table"
63A0  01                 const type 3
63A1  9D0C45E6           const [8]: (-431682403)
63A5  01                 const type 3
63A6  3C2E251B           const [9]: (455421500)
63AA  04                 const type 4
63AB  0A                 string size (10)
63AC  53746F7265497465+  "StoreIte"
63B4  6D00               "m\0"
                         const [10]: "StoreItem"
63B6  01                 const type 3
63B7  800217E5           const [11]: (-451476864)
63BB  04                 const type 4
63BC  07                 string size (7)
63BD  4C6F6164657200     "Loader\0"
                         const [12]: "Loader"
63C4  04                 const type 4
63C5  06                 string size (6)
63C6  554953797300       "UISys\0"
                         const [13]: "UISys"
63CC  01                 const type 3
63CD  E0539B44           const [14]: (1151030240)
63D1  01                 const type 3
63D2  ACE3A2E2           const [15]: (-492641364)
63D6  04                 const type 4
63D7  12                 string size (18)
63D8  5472656173757265+  "Treasure"
63E0  496E666F2E446573+  "Info.Des"
63E8  6300               "c\0"
                         const [16]: "TreasureInfo.Desc"
63EA  04                 const type 4
63EB  05                 string size (5)
63EC  7465787400         "text\0"
                         const [17]: "text"
63F1  04                 const type 4
63F2  0E                 string size (14)
63F3  4C6F63616C697A65+  "Localize"
63FB  644465736300       "dDesc\0"
                         const [18]: "LocalizedDesc"
6401  03                 const type 3
6402  00000000           const [19]: (0)
6406  04                 const type 4
6407  17                 string size (23)
6408  5472656173757265+  "Treasure"
6410  496E666F2E536570+  "Info.Sep"
6418  617261746F7200     "arator\0"
                         const [20]: "TreasureInfo.Separator"
641F  04                 const type 4
6420  03                 string size (3)
6421  5F7900             "_y\0"
                         const [21]: "_y"
6424  03                 const type 3
6425  00002041           const [22]: (0)
6429  04                 const type 4
642A  12                 string size (18)
642B  5472656173757265+  "Treasure"
6433  496E666F2E4E616D+  "Info.Nam"
643B  6500               "e\0"
                         const [23]: "TreasureInfo.Name"
643D  03                 const type 3
643E  0000B841           const [24]: (0)
6442  04                 const type 4
6443  12                 string size (18)
6444  766572746963616C+  "vertical"
644C  416C69676E6D656E+  "Alignmen"
6454  7400               "t\0"
                         const [25]: "verticalAlignment"
6456  04                 const type 4
6457  07                 string size (7)
6458  626F74746F6D00     "bottom\0"
                         const [26]: "bottom"
645F  01                 const type 3
6460  DEAD95F5           const [27]: (-174740002)
6464  01                 const type 3
6465  0B477B6B           const [28]: (1803241227)
6469  04                 const type 4
646A  0B                 string size (11)
646B  7465787448656967+  "textHeig"
6473  687400             "ht\0"
                         const [29]: "textHeight"
6476  03                 const type 3
6477  00005041           const [30]: (0)
647B  04                 const type 4
647C  10                 string size (16)
647D  5472656173757265+  "Treasure"
6485  496E666F2E426700   "Info.Bg\0"
                         const [31]: "TreasureInfo.Bg"
648D  04                 const type 4
648E  08                 string size (8)
648F  5F68656967687400   "_height\0"
                         const [32]: "_height"
6497  04                 const type 4
6498  14                 string size (20)
6499  5472656173757265+  "Treasure"
64A1  496E666F2E426C75+  "Info.Blu"
64A9  72657200           "rer\0"
                         const [33]: "TreasureInfo.Blurer"
64AD  04                 const type 4
64AE  18                 string size (24)
64AF  5472656173757265+  "Treasure"
64B7  496E666F2E526F74+  "Info.Rot"
64BF  61746548696E7400   "ateHint\0"
                         const [34]: "TreasureInfo.RotateHint"
64C7  03                 const type 3
64C8  00000C42           const [35]: (0)
64CC  04                 const type 4
64CD  0A                 string size (10)
64CE  49734C6F6164696E+  "IsLoadin"
64D6  6700               "g\0"
                         const [36]: "IsLoading"
64D8  01                 const type 3
64D9  01000000           const [37]: (1)
                         * functions:
64DD  00                 sizep (0)
                         * lines:
64DE  71                 sizelineinfo (113)
                         [pc] (line)
64DF  13                 [001] (19)
64E0  03                 [002] (19)
64E1  00                 [003] (21)
64E2  00                 [004] (21)
64E3  13                 [005] (21)
64E4  03                 [006] (22)
64E5  00                 [007] (22)
64E6  00                 [008] (22)
64E7  15                 [009] (24)
64E8  03                 [010] (24)
64E9  00                 [011] (24)
64EA  00                 [012] (24)
64EB  15                 [013] (24)
64EC  03                 [014] (24)
64ED  00                 [015] (25)
64EE  00                 [016] (25)
64EF  15                 [017] (28)
64F0  03                 [018] (28)
64F1  00                 [019] (28)
64F2  00                 [020] (28)
64F3  16                 [021] (28)
64F4  03                 [022] (29)
64F5  00                 [023] (29)
64F6  00                 [024] (32)
64F7  16                 [025] (34)
64F8  03                 [026] (34)
64F9  00                 [027] (34)
64FA  00                 [028] (34)
64FB  16                 [029] (34)
64FC  03                 [030] (34)
64FD  00                 [031] (34)
64FE  00                 [032] (35)
64FF  18                 [033] (35)
6500  03                 [034] (35)
6501  00                 [035] (35)
6502  00                 [036] (35)
6503  18                 [037] (35)
6504  03                 [038] (35)
6505  00                 [039] (35)
6506  00                 [040] (35)
6507  18                 [041] (37)
6508  03                 [042] (37)
6509  00                 [043] (37)
650A  00                 [044] (37)
650B  18                 [045] (37)
650C  03                 [046] (37)
650D  00                 [047] (38)
650E  00                 [048] (38)
650F  18                 [049] (38)
6510  03                 [050] (38)
6511  00                 [051] (40)
6512  00                 [052] (40)
6513  18                 [053] (40)
6514  03                 [054] (40)
6515  00                 [055] (40)
6516  00                 [056] (40)
6517  19                 [057] (41)
6518  03                 [058] (43)
6519  00                 [059] (43)
651A  00                 [060] (43)
651B  19                 [061] (43)
651C  03                 [062] (43)
651D  00                 [063] (43)
651E  00                 [064] (45)
651F  1C                 [065] (46)
6520  03                 [066] (46)
6521  00                 [067] (46)
6522  00                 [068] (46)
6523  1C                 [069] (46)
6524  03                 [070] (46)
6525  00                 [071] (46)
6526  00                 [072] (47)
6527  1C                 [073] (47)
6528  03                 [074] (47)
6529  00                 [075] (47)
652A  00                 [076] (47)
652B  1C                 [077] (47)
652C  03                 [078] (49)
652D  00                 [079] (51)
652E  00                 [080] (51)
652F  1C                 [081] (53)
6530  03                 [082] (53)
6531  00                 [083] (53)
6532  00                 [084] (53)
6533  1D                 [085] (53)
6534  03                 [086] (53)
6535  00                 [087] (53)
6536  00                 [088] (53)
6537  1D                 [089] (53)
6538  03                 [090] (54)
6539  00                 [091] (54)
653A  00                 [092] (54)
653B  20                 [093] (54)
653C  03                 [094] (54)
653D  00                 [095] (54)
653E  00                 [096] (55)
653F  22                 [097] (55)
6540  03                 [098] (55)
6541  00                 [099] (55)
6542  00                 [100] (55)
6543  22                 [101] (55)
6544  03                 [102] (57)
6545  00                 [103] (57)
6546  00                 [104] (57)
6547  22                 [105] (57)
6548  03                 [106] (57)
6549  00                 [107] (57)
654A  00                 [108] (57)
654B  22                 [109] (59)
654C  03                 [110] (59)
654D  00                 [111] (61)
654E  00                 [112] (61)
654F  22                 [113] (62)
                         * locals:
66A3  00                 sizelocvars (0)
                         * upvalues:
66A4  00                 sizeupvalues (0)
                         ** end of function **

                         
66A5                     ** function [22] definition (level 2)
                         ** start of function **
66A5  00                 string size (0)
                         source name: (none)
66A7  06                 line defined (832)
66A8  F8                 last line defined (888)
66A9  06                 nups (12)
66AA  0C                 numparams (0)
66AB  00                 is_vararg (0)
66AC  00                 maxstacksize (12)
                         * code:
66AF  01                 sizecode (193)
66B0  1D000000           [001] getglobal  0   0        ; 2083004503
66B4  53000000           [002] getupval   1   0      
66B8  22800001           [003] call       0   2   2  
66BC  5D400000           [004] getglobal  1   1        ; gFlashMgr
66C0  6480C000           [005] self       1   1   258  ; 1381776681
66C4  D2000000           [006] move       3   0      
66C8  62408001           [007] call       1   3   1  
66CC  5DC00000           [008] getglobal  1   3        ; 1074689893
66D0  9D000100           [009] getglobal  2   4        ; gBackgroundRegion
66D4  62800001           [010] call       1   2   2  
66D8  58400000           [011] test       1       1    ; to [13] if false
66DC  1AC02C80           [012] jmp        180          ; to [193]
66E0  5DC00000           [013] getglobal  1   3        ; 1074689893
66E4  93008000           [014] getupval   2   1      
66E8  62800001           [015] call       1   2   2  
66EC  58400000           [016] test       1       1    ; to [18] if false
66F0  1A802B80           [017] jmp        175          ; to [193]
66F4  5D400100           [018] getglobal  1   5        ; 572299008
66F8  62808000           [019] call       1   1   2  
66FC  9D800100           [020] getglobal  2   6        ; 508519041
6700  A2808000           [021] call       2   1   2  
6704  DD000100           [022] getglobal  3   4        ; gBackgroundRegion
6708  E4C0C101           [023] self       3   3   263  ; -1485896174
670C  5D010200           [024] getglobal  5   8        ; -332969190
6710  99410200           [025] loadk      6   9        ; "AIPoint"
6714  62010001           [026] call       5   2   0  
6718  E2800000           [027] call       3   0   2  
671C  0A018001           [028] len        4   3      
fail op	21
6720  15000185           [029] concat     0   266 4  
6724  1A000380           [030] jmp        13           ; to [44]
6728  1DC10000           [031] getglobal  4   3        ; 1074689893
672C  4EC1C201           [032] gettable   5   3   267  ; 0
6730  22810001           [033] call       4   2   2  
6734  18410000           [034] test       4       1    ; to [36] if false
6738  1AC00180           [035] jmp        8            ; to [44]
673C  0EC1C201           [036] gettable   4   3   267  ; 0
6740  24014302           [037] self       4   4   268  ; 1839670529
6744  22810001           [038] call       4   2   2  
6748  52000002           [039] move       1   4      
674C  0EC1C201           [040] gettable   4   3   267  ; 0
6750  24414302           [041] self       4   4   269  ; -231049143
6754  22810001           [042] call       4   2   2  
6758  92000002           [043] move       2   4      
675C  1D010100           [044] getglobal  4   4        ; gBackgroundRegion
6760  24814302           [045] self       4   4   270  ; -1875307917
6764  9D010200           [046] getglobal  6   8        ; -332969190
6768  D9C10300           [047] loadk      7   15       ; "CameraSpot"
676C  A2010001           [048] call       6   2   0  
6770  22810000           [049] call       4   0   2  
fail op	8
6774  08010001           [050] setupval   4   2      
6778  13018001           [051] getupval   4   3      
677C  5D410100           [052] getglobal  5   5        ; 572299008
6780  99810200           [053] loadk      6   10       ; 0
6784  D9810200           [054] loadk      7   10       ; 0
6788  13028000           [055] getupval   8   1      
678C  0E424404           [056] gettable   8   8   273  ; "StoreItem"
6790  24824404           [057] self       8   8   274  ; 1029194612
6794  22020001           [058] call       8   2   0  
6798  62810000           [059] call       5   0   2  
679C  0C410188           [060] settable   4   272 5    ; "InitCameraVector"
67A0  13018000           [061] getupval   4   1      
67A4  0E414402           [062] gettable   4   4   273  ; "StoreItem"
67A8  24C14402           [063] self       4   4   275  ; 161012771
67AC  22810001           [064] call       4   2   2  
fail op	8
67B0  08010002           [065] setupval   4   4      
67B4  13018001           [066] getupval   4   3      
67B8  5D010100           [067] getglobal  5   4        ; gBackgroundRegion
67BC  6441C502           [068] self       5   5   277  ; -1110225722
67C0  DD010000           [069] getglobal  7   0        ; 2083004503
67C4  19820500           [070] loadk      8   22       ; "/Lotus/Interface/Objects/FusionTreasureParentDeco"
67C8  E2810001           [071] call       7   2   2  
67CC  12028000           [072] move       8   1      
67D0  52020001           [073] move       9   2      
67D4  62818002           [074] call       5   5   2  
67D8  0C41018A           [075] settable   4   276 5    ; "Parent"
67DC  13018001           [076] getupval   4   3      
67E0  0E014502           [077] gettable   4   4   276  ; "Parent"
67E4  24C14502           [078] self       4   4   279  ; 2109594123
67E8  97010000           [079] loadbool   6   0   0    ; false
67EC  22418001           [080] call       4   3   1  
67F0  1D010600           [081] getglobal  4   24       ; -895206725
67F4  53018000           [082] getupval   5   1      
67F8  4E41C402           [083] gettable   5   5   273  ; "StoreItem"
67FC  6441C602           [084] self       5   5   281  ; -451476864
6800  62010001           [085] call       5   2   0  
6804  22810000           [086] call       4   0   2  
6808  53018001           [087] getupval   5   3      
680C  93018001           [088] getupval   6   3      
6810  8E014503           [089] gettable   6   6   276  ; "Parent"
6814  A4C14603           [090] self       6   6   283  ; -1421644046
6818  12020002           [091] move       8   4      
681C  5D020700           [092] getglobal  9   28       ; EMPTY_SYMBOL
6820  A2810002           [093] call       6   4   2  
6824  4C81018D           [094] settable   5   282 6    ; "TreasureEntity"
6828  53018000           [095] getupval   5   1      
682C  4E41C702           [096] gettable   5   5   285  ; "Info"
fail op	35
6830  6380C702           [097] close      1  
6834  1A800180           [098] jmp        7            ; to [106]
6838  53018001           [099] getupval   5   3      
683C  4E81C602           [100] gettable   5   5   282  ; "TreasureEntity"
6840  64C1C702           [101] self       5   5   287  ; -1067510516
6844  D3018000           [102] getupval   7   1      
6848  CE41C703           [103] gettable   7   7   285  ; "Info"
684C  CE01C803           [104] gettable   7   7   288  ; "mSockets"
6850  62418001           [105] call       5   3   1  
6854  53018001           [106] getupval   5   3      
6858  4E81C602           [107] gettable   5   5   282  ; "TreasureEntity"
685C  6441C802           [108] self       5   5   289  ; 1413780095
6860  D7010000           [109] loadbool   7   0   0    ; false
6864  62418001           [110] call       5   3   1  
6868  53018001           [111] getupval   5   3      
686C  4E81C602           [112] gettable   5   5   282  ; "TreasureEntity"
6870  6481C802           [113] self       5   5   290  ; -427739093
6874  62810001           [114] call       5   2   2  
6878  9D410100           [115] getglobal  6   5        ; 572299008
687C  CEC1C800           [116] gettable   7   1   291  ; "x"
6880  0EC2C802           [117] gettable   8   5   291  ; "x"
6884  CD018203           [118] sub        7   7   8  
6888  0E02C900           [119] gettable   8   1   292  ; "y"
688C  4E02C902           [120] gettable   9   5   292  ; "y"
6890  0D420204           [121] sub        8   8   9  
6894  4E42C900           [122] gettable   9   1   293  ; "z"
6898  8E42C902           [123] gettable   10  5   293  ; "z"
689C  4D828204           [124] sub        9   9   10 
68A0  A2810002           [125] call       6   4   2  
68A4  D3018001           [126] getupval   7   3      
68A8  CE81C603           [127] gettable   7   7   282  ; "TreasureEntity"
68AC  E481C903           [128] self       7   7   294  ; -1484030041
68B0  52020003           [129] move       9   6      
68B4  9DC20900           [130] getglobal  10  39       ; ZERO_ROTATION
68B8  E2410002           [131] call       7   4   1  
68BC  D3018000           [132] getupval   7   1      
68C0  CE01CA03           [133] gettable   7   7   296  ; "Type"
68C4  E441CA03           [134] self       7   7   297  ; -1957065004
68C8  53028002           [135] getupval   9   5      
68CC  E2818001           [136] call       7   3   2  
68D0  D8010000           [137] test       7       0    ; to [139] if true
68D4  1A400180           [138] jmp        6            ; to [145]
68D8  CE01C900           [139] gettable   7   1   292  ; "y"
68DC  C381CA03           [140] add        7   7   298  ; 10
68E0  4CC00192           [141] settable   1   292 7    ; "y"
68E4  D3010003           [142] getupval   7   6      
68E8  CC01CB95           [143] settable   7   299 300  ; "Max" 0
68EC  1A400180           [144] jmp        6            ; to [151]
68F0  CE01C900           [145] gettable   7   1   292  ; "y"
68F4  0E024903           [146] gettable   8   6   292  ; "y"
68F8  CD018203           [147] sub        7   7   8  
68FC  4CC00192           [148] settable   1   292 7    ; "y"
6900  D3010003           [149] getupval   7   6      
6904  CC41CB95           [150] settable   7   299 301  ; "Max" 0
6908  D3018003           [151] getupval   7   7      
690C  E481CB03           [152] self       7   7   302  ; 94873265
6910  59C20B00           [153] loadk      9   47       ; 0
6914  E2418001           [154] call       7   3   1  
6918  D3010004           [155] getupval   7   8      
691C  E481CB03           [156] self       7   7   302  ; 94873265
6920  5D020C00           [157] getglobal  9   48       ; math
6924  4E42CC04           [158] gettable   9   9   305  ; 1710846250
6928  99820200           [159] loadk      10  10       ; 0
692C  D3020003           [160] getupval   11  6      
6930  CEC2CA05           [161] gettable   11  11  299  ; "Max"
6934  62028001           [162] call       9   3   0  
6938  E2410000           [163] call       7   0   1  
693C  DD810100           [164] getglobal  7   6        ; 508519041
6940  13028003           [165] getupval   8   7      
6944  24824C04           [166] self       8   8   306  ; -991624272
6948  22820001           [167] call       8   2   2  
694C  59C20C00           [168] loadk      9   51       ; 0
6950  93020004           [169] getupval   10  8      
6954  A4824C05           [170] self       10  10  306  ; -991624272
6958  A2020001           [171] call       10  2   0  
695C  E2810000           [172] call       7   0   2  
fail op	8
6960  C8018004           [173] setupval   7   9      
6964  D3018001           [174] getupval   7   3      
6968  CE01C503           [175] gettable   7   7   276  ; "Parent"
696C  E401CD03           [176] self       7   7   308  ; 970454089
6970  52028000           [177] move       9   1      
6974  93028001           [178] getupval   10  3      
6978  8E024505           [179] gettable   10  10  276  ; "Parent"
697C  A4424305           [180] self       10  10  269  ; -231049143
6980  A2020001           [181] call       10  2   0  
6984  E2410000           [182] call       7   0   1  
6988  DD410D00           [183] getglobal  7   53       ; mMovie
698C  E481CD03           [184] self       7   7   310  ; 471456102
6990  59C20D00           [185] loadk      9   55       ; "TreasureInfo.RotateHint"
6994  99020E00           [186] loadk      10  56       ; "_visible"
6998  D7028000           [187] loadbool   11  1   0    ; true
699C  E2418002           [188] call       7   5   1  
69A0  D3010005           [189] getupval   7   10     
69A4  E2418000           [190] call       7   1   1  
69A8  D3018005           [191] getupval   7   11     
69AC  E2418000           [192] call       7   1   1  
69B0  1E008000           [193] return     0   1      
                         * constants:
69B4  39                 sizek (57)
69B5  01                 const type 3
69B6  5720287C           const [0]: (2083004503)
69BA  04                 const type 4
69BB  0A                 string size (10)
69BC  67466C6173684D67+  "gFlashMg"
69C4  7200               "r\0"
                         const [1]: "gFlashMgr"
69C6  01                 const type 3
69C7  293D5C52           const [2]: (1381776681)
69CB  01                 const type 3
69CC  65770E40           const [3]: (1074689893)
69D0  04                 const type 4
69D1  12                 string size (18)
69D2  674261636B67726F+  "gBackgro"
69DA  756E64526567696F+  "undRegio"
69E2  6E00               "n\0"
                         const [4]: "gBackgroundRegion"
69E4  01                 const type 3
69E5  00971C22           const [5]: (572299008)
69E9  01                 const type 3
69EA  81624F1E           const [6]: (508519041)
69EE  01                 const type 3
69EF  12066FA7           const [7]: (-1485896174)
69F3  01                 const type 3
69F4  1A4B27EC           const [8]: (-332969190)
69F8  04                 const type 4
69F9  08                 string size (8)
69FA  4149506F696E7400   "AIPoint\0"
                         const [9]: "AIPoint"
6A02  03                 const type 3
6A03  00000000           const [10]: (0)
6A07  03                 const type 3
6A08  0000803F           const [11]: (0)
6A0C  01                 const type 3
6A0D  0125A76D           const [12]: (1839670529)
6A11  01                 const type 3
6A12  49783AF2           const [13]: (-231049143)
6A16  01                 const type 3
6A17  73123990           const [14]: (-1875307917)
6A1B  04                 const type 4
6A1C  0B                 string size (11)
6A1D  43616D6572615370+  "CameraSp"
6A25  6F7400             "ot\0"
                         const [15]: "CameraSpot"
6A28  04                 const type 4
6A29  11                 string size (17)
6A2A  496E697443616D65+  "InitCame"
6A32  7261566563746F72+  "raVector"
6A3A  00                 "\0"
                         const [16]: "InitCameraVector"
6A3B  04                 const type 4
6A3C  0A                 string size (10)
6A3D  53746F7265497465+  "StoreIte"
6A45  6D00               "m\0"
                         const [17]: "StoreItem"
6A47  01                 const type 3
6A48  7443583D           const [18]: (1029194612)
6A4C  01                 const type 3
6A4D  23DC9809           const [19]: (161012771)
6A51  04                 const type 4
6A52  07                 string size (7)
6A53  506172656E7400     "Parent\0"
                         const [20]: "Parent"
6A5A  01                 const type 3
6A5B  C64CD3BD           const [21]: (-1110225722)
6A5F  04                 const type 4
6A60  32                 string size (50)
6A61  2F4C6F7475732F49+  "/Lotus/I"
6A69  6E74657266616365+  "nterface"
6A71  2F4F626A65637473+  "/Objects"
6A79  2F467573696F6E54+  "/FusionT"
6A81  7265617375726550+  "reasureP"
6A89  6172656E74446563+  "arentDec"
6A91  6F00               "o\0"
                         const [22]: "/Lotus/Interface/Objects/FusionTreasureParentDeco"
6A93  01                 const type 3
6A94  0BDABD7D           const [23]: (2109594123)
6A98  01                 const type 3
6A99  BB3AA4CA           const [24]: (-895206725)
6A9D  01                 const type 3
6A9E  800217E5           const [25]: (-451476864)
6AA2  04                 const type 4
6AA3  0F                 string size (15)
6AA4  5472656173757265+  "Treasure"
6AAC  456E7469747900     "Entity\0"
                         const [26]: "TreasureEntity"
6AB3  01                 const type 3
6AB4  F26E43AB           const [27]: (-1421644046)
6AB8  04                 const type 4
6AB9  0D                 string size (13)
6ABA  454D5054595F5359+  "EMPTY_SY"
6AC2  4D424F4C00         "MBOL\0"
                         const [28]: "EMPTY_SYMBOL"
6AC7  04                 const type 4
6AC8  05                 string size (5)
6AC9  496E666F00         "Info\0"
                         const [29]: "Info"
6ACE  00                 const type 0
                         const [30]: nil
6ACF  01                 const type 3
6AD0  0C155FC0           const [31]: (-1067510516)
6AD4  04                 const type 4
6AD5  09                 string size (9)
6AD6  6D536F636B657473+  "mSockets"
6ADE  00                 "\0"
                         const [32]: "mSockets"
6ADF  01                 const type 3
6AE0  7F924454           const [33]: (1413780095)
6AE4  01                 const type 3
6AE5  2B3881E6           const [34]: (-427739093)
6AE9  04                 const type 4
6AEA  02                 string size (2)
6AEB  7800               "x\0"
                         const [35]: "x"
6AED  04                 const type 4
6AEE  02                 string size (2)
6AEF  7900               "y\0"
                         const [36]: "y"
6AF1  04                 const type 4
6AF2  02                 string size (2)
6AF3  7A00               "z\0"
                         const [37]: "z"
6AF5  01                 const type 3
6AF6  A77F8BA7           const [38]: (-1484030041)
6AFA  04                 const type 4
6AFB  0E                 string size (14)
6AFC  5A45524F5F524F54+  "ZERO_ROT"
6B04  4154494F4E00       "ATION\0"
                         const [39]: "ZERO_ROTATION"
6B0A  04                 const type 4
6B0B  05                 string size (5)
6B0C  5479706500         "Type\0"
                         const [40]: "Type"
6B11  01                 const type 3
6B12  D48E598B           const [41]: (-1957065004)
6B16  03                 const type 3
6B17  0AD7233D           const [42]: (10)
6B1B  04                 const type 4
6B1C  04                 string size (4)
6B1D  4D617800           "Max\0"
                         const [43]: "Max"
6B21  03                 const type 3
6B22  000070C1           const [44]: (0)
6B26  03                 const type 3
6B27  00000041           const [45]: (0)
6B2B  01                 const type 3
6B2C  B1A6A705           const [46]: (94873265)
6B30  03                 const type 3
6B31  00000C42           const [47]: (0)
6B35  04                 const type 4
6B36  05                 string size (5)
6B37  6D61746800         "math\0"
                         const [48]: "math"
6B3C  01                 const type 3
6B3D  2A71F965           const [49]: (1710846250)
6B41  01                 const type 3
6B42  B003E5C4           const [50]: (-991624272)
6B46  03                 const type 3
6B47  0000A040           const [51]: (0)
6B4B  01                 const type 3
6B4C  49F4D739           const [52]: (970454089)
6B50  04                 const type 4
6B51  07                 string size (7)
6B52  6D4D6F76696500     "mMovie\0"
                         const [53]: "mMovie"
6B59  01                 const type 3
6B5A  66D9191C           const [54]: (471456102)
6B5E  04                 const type 4
6B5F  18                 string size (24)
6B60  5472656173757265+  "Treasure"
6B68  496E666F2E526F74+  "Info.Rot"
6B70  61746548696E7400   "ateHint\0"
                         const [55]: "TreasureInfo.RotateHint"
6B78  04                 const type 4
6B79  09                 string size (9)
6B7A  5F76697369626C65+  "_visible"
6B82  00                 "\0"
                         const [56]: "_visible"
                         * functions:
6B83  00                 sizep (0)
                         * lines:
6B85  01                 sizelineinfo (193)
                         [pc] (line)
6B86  41                 [001] (65)
6B87  03                 [002] (65)
6B88  00                 [003] (65)
6B89  00                 [004] (67)
6B8A  41                 [005] (67)
6B8B  03                 [006] (67)
6B8C  00                 [007] (67)
6B8D  00                 [008] (68)
6B8E  41                 [009] (68)
6B8F  03                 [010] (68)
6B90  00                 [011] (68)
6B91  00                 [012] (68)
6B92  43                 [013] (68)
6B93  03                 [014] (68)
6B94  00                 [015] (68)
6B95  00                 [016] (68)
6B96  43                 [017] (68)
6B97  03                 [018] (69)
6B98  00                 [019] (69)
6B99  00                 [020] (70)
6B9A  43                 [021] (70)
6B9B  03                 [022] (71)
6B9C  00                 [023] (71)
6B9D  00                 [024] (71)
6B9E  43                 [025] (71)
6B9F  03                 [026] (71)
6BA0  00                 [027] (71)
6BA1  00                 [028] (72)
6BA2  44                 [029] (72)
6BA3  03                 [030] (72)
6BA4  00                 [031] (72)
6BA5  00                 [032] (72)
6BA6  44                 [033] (72)
6BA7  03                 [034] (72)
6BA8  00                 [035] (72)
6BA9  00                 [036] (73)
6BAA  44                 [037] (73)
6BAB  03                 [038] (73)
6BAC  00                 [039] (73)
6BAD  00                 [040] (74)
6BAE  44                 [041] (74)
6BAF  03                 [042] (74)
6BB0  00                 [043] (74)
6BB1  00                 [044] (77)
6BB2  44                 [045] (77)
6BB3  03                 [046] (77)
6BB4  00                 [047] (77)
6BB5  00                 [048] (77)
6BB6  44                 [049] (77)
6BB7  03                 [050] (77)
6BB8  00                 [051] (79)
6BB9  00                 [052] (79)
6BBA  44                 [053] (79)
6BBB  03                 [054] (79)
6BBC  00                 [055] (79)
6BBD  00                 [056] (79)
6BBE  44                 [057] (79)
6BBF  03                 [058] (79)
6BC0  00                 [059] (79)
6BC1  00                 [060] (79)
6BC2  44                 [061] (80)
6BC3  03                 [062] (80)
6BC4  00                 [063] (80)
6BC5  00                 [064] (80)
6BC6  44                 [065] (80)
6BC7  03                 [066] (85)
6BC8  00                 [067] (85)
6BC9  00                 [068] (85)
6BCA  45                 [069] (85)
6BCB  03                 [070] (85)
6BCC  00                 [071] (85)
6BCD  00                 [072] (85)
6BCE  45                 [073] (85)
6BCF  03                 [074] (85)
6BD0  00                 [075] (85)
6BD1  00                 [076] (86)
6BD2  46                 [077] (86)
6BD3  03                 [078] (86)
6BD4  00                 [079] (86)
6BD5  00                 [080] (86)
6BD6  46                 [081] (88)
6BD7  03                 [082] (88)
6BD8  00                 [083] (88)
6BD9  00                 [084] (88)
6BDA  47                 [085] (88)
6BDB  03                 [086] (88)
6BDC  00                 [087] (89)
6BDD  00                 [088] (89)
6BDE  47                 [089] (89)
6BDF  03                 [090] (89)
6BE0  00                 [091] (89)
6BE1  00                 [092] (89)
6BE2  47                 [093] (89)
6BE3  03                 [094] (89)
6BE4  00                 [095] (91)
6BE5  00                 [096] (91)
6BE6  47                 [097] (91)
6BE7  03                 [098] (91)
6BE8  00                 [099] (92)
6BE9  00                 [100] (92)
6BEA  47                 [101] (92)
6BEB  03                 [102] (92)
6BEC  00                 [103] (92)
6BED  00                 [104] (92)
6BEE  47                 [105] (92)
6BEF  03                 [106] (95)
6BF0  00                 [107] (95)
6BF1  00                 [108] (95)
6BF2  48                 [109] (95)
6BF3  03                 [110] (95)
6BF4  00                 [111] (96)
6BF5  00                 [112] (96)
6BF6  48                 [113] (96)
6BF7  03                 [114] (96)
6BF8  00                 [115] (97)
6BF9  00                 [116] (97)
6BFA  48                 [117] (97)
6BFB  03                 [118] (97)
6BFC  00                 [119] (97)
6BFD  00                 [120] (97)
6BFE  48                 [121] (97)
6BFF  03                 [122] (97)
6C00  00                 [123] (97)
6C01  00                 [124] (97)
6C02  48                 [125] (97)
6C03  03                 [126] (99)
6C04  00                 [127] (99)
6C05  00                 [128] (99)
6C06  48                 [129] (99)
6C07  03                 [130] (99)
6C08  00                 [131] (99)
6C09  00                 [132] (101)
6C0A  48                 [133] (101)
6C0B  03                 [134] (101)
6C0C  00                 [135] (101)
6C0D  00                 [136] (101)
6C0E  48                 [137] (101)
6C0F  03                 [138] (101)
6C10  00                 [139] (102)
6C11  00                 [140] (102)
6C12  49                 [141] (102)
6C13  03                 [142] (103)
6C14  00                 [143] (103)
6C15  00                 [144] (103)
6C16  49                 [145] (105)
6C17  03                 [146] (105)
6C18  00                 [147] (105)
6C19  00                 [148] (105)
6C1A  49                 [149] (106)
6C1B  03                 [150] (106)
6C1C  00                 [151] (109)
6C1D  00                 [152] (109)
6C1E  49                 [153] (109)
6C1F  03                 [154] (109)
6C20  00                 [155] (110)
6C21  00                 [156] (110)
6C22  4A                 [157] (110)
6C23  03                 [158] (110)
6C24  00                 [159] (110)
6C25  00                 [160] (110)
6C26  4A                 [161] (110)
6C27  03                 [162] (110)
6C28  00                 [163] (110)
6C29  00                 [164] (111)
6C2A  4A                 [165] (111)
6C2B  03                 [166] (111)
6C2C  00                 [167] (111)
6C2D  00                 [168] (111)
6C2E  4A                 [169] (111)
6C2F  03                 [170] (111)
6C30  00                 [171] (111)
6C31  00                 [172] (111)
6C32  4D                 [173] (111)
6C33  03                 [174] (113)
6C34  00                 [175] (113)
6C35  00                 [176] (113)
6C36  4D                 [177] (113)
6C37  03                 [178] (113)
6C38  00                 [179] (113)
6C39  00                 [180] (113)
6C3A  4D                 [181] (113)
6C3B  03                 [182] (113)
6C3C  00                 [183] (115)
6C3D  00                 [184] (115)
6C3E  4D                 [185] (115)
6C3F  03                 [186] (115)
6C40  00                 [187] (115)
6C41  00                 [188] (115)
6C42  4D                 [189] (117)
6C43  03                 [190] (117)
6C44  00                 [191] (118)
6C45  00                 [192] (118)
6C46  4D                 [193] (120)
                         * locals:
6E8A  00                 sizelocvars (0)
                         * upvalues:
6E8B  00                 sizeupvalues (0)
                         ** end of function **

                         
6E8C                     ** function [23] definition (level 2)
                         ** start of function **
6E8C  00                 string size (0)
                         source name: (none)
6E8E  06                 line defined (890)
6E8F  FF                 last line defined (1023)
6E90  07                 nups (6)
6E91  06                 numparams (0)
6E92  00                 is_vararg (0)
6E93  00                 maxstacksize (8)
                         * code:
6E96  01                 sizecode (222)
6E97  1D000000           [001] getglobal  0   0        ; 849075268
6E9B  59400000           [002] loadk      1   1        ; "Lotus.Interface.Components.CategorizedGrid"
6E9F  22800001           [003] call       0   2   2  
6EA3  4E804000           [004] gettable   1   0   258  ; -1521463585
6EA7  9DC00000           [005] getglobal  2   3        ; mMovie
6EAB  D9000100           [006] loadk      3   4        ; "TreasuresList.Item"
6EAF  19410100           [007] loadk      4   5        ; 0
6EB3  59810100           [008] loadk      5   6        ; 0
6EB7  99C10100           [009] loadk      6   7        ; "Categories"
6EBB  D9010200           [010] loadk      7   8        ; "SortMenu"
6EBF  62808003           [011] call       1   7   2  
fail op	8
6EC3  48000000           [012] setupval   1   0      
6EC7  53000000           [013] getupval   1   0      
6ECB  6440C200           [014] self       1   1   265  ; 236168549
6ECF  D9800200           [015] loadk      3   10       ; "TreasureSelected"
6ED3  19C10200           [016] loadk      4   11       ; "TreasureFocused"
6ED7  59010300           [017] loadk      5   12       ; "TreasureUnfocused"
6EDB  62408002           [018] call       1   5   1  
6EDF  53000000           [019] getupval   1   0      
6EE3  4E40C300           [020] gettable   1   1   269  ; "mCategoryMenu"
6EE7  93008000           [021] getupval   2   1      
6EEB  8EC04301           [022] gettable   2   2   271  ; "LEFT_ALIGNED"
6EEF  4C800087           [023] settable   1   270 2    ; "mAlign"
6EF3  53000000           [024] getupval   1   0      
6EF7  4C404488           [025] settable   1   272 273  ; "mSelectedId" nil
6EFB  53000000           [026] getupval   1   0      
6EFF  4CC04489           [027] settable   1   274 275  ; "mUseCornerForSelected" 1
6F03  53000000           [028] getupval   1   0      
6F07  4C40458A           [029] settable   1   276 277  ; "mSelectElementsOnFocus" 0
6F0B  53000000           [030] getupval   1   0      
6F0F  4CC0448B           [031] settable   1   278 275  ; "mShowLabels" 1
6F13  53000000           [032] getupval   1   0      
6F17  4C00C68B           [033] settable   1   279 280  ; "mSelectedScale" 0
6F1B  53000000           [034] getupval   1   0      
6F1F  4E40C600           [035] gettable   1   1   281  ; "mSortMenu"
6F23  6480C600           [036] self       1   1   282  ; -2011541260
6F27  D9C00600           [037] loadk      3   27       ; 0
6F2B  62408001           [038] call       1   3   1  
6F2F  53000000           [039] getupval   1   0      
6F33  4C40478E           [040] settable   1   284 285  ; "ElementDimBuffer" 0
6F37  53000000           [041] getupval   1   0      
6F3B  4CC0478F           [042] settable   1   286 287  ; "ElementWidth" 0
6F3F  53000000           [043] getupval   1   0      
6F43  4CC04790           [044] settable   1   288 287  ; "ElementHeight" 0
6F47  53000000           [045] getupval   1   0      
6F4B  4C80C890           [046] settable   1   289 290  ; "Width" 0
6F4F  53000000           [047] getupval   1   0      
6F53  4C00C991           [048] settable   1   291 292  ; "Height" 0
6F57  53000001           [049] getupval   1   2      
6F5B  4E40C900           [050] gettable   1   1   293  ; -1001113320
6F5F  9DC00000           [051] getglobal  2   3        ; mMovie
6F63  D3000000           [052] getupval   3   0      
6F67  62408001           [053] call       1   3   1  
6F6B  53000000           [054] getupval   1   0      
6F6F  6480C900           [055] self       1   1   294  ; 1035345719
6F73  D9C00900           [056] loadk      3   39       ; "ScrollBar"
6F77  19010A00           [057] loadk      4   40       ; 0
6F7B  62400002           [058] call       1   4   1  
6F7F  53000000           [059] getupval   1   0      
6F83  4C40C494           [060] settable   1   297 273  ; "mScrollBarHorizontalOffset" nil
6F87  53000000           [061] getupval   1   0      
6F8B  4C404495           [062] settable   1   298 273  ; "mSortMenuHorizontalOffset" nil
6F8F  53000000           [063] getupval   1   0      
6F93  4C40C495           [064] settable   1   299 273  ; "mSortMenuVerticalOffset" nil
6F97  53000000           [065] getupval   1   0      
6F9B  6400CB00           [066] self       1   1   300  ; -104757962
6F9F  62400001           [067] call       1   2   1  
6FA3  53000000           [068] getupval   1   0      
6FA7  4CC0C496           [069] settable   1   301 275  ; "mScrollAlwaysVisible" 1
6FAB  53000000           [070] getupval   1   0      
6FAF  8B000002           [071] newtable   2   4   0    ; array=4, hash=0
6FB3  D9C00B00           [072] loadk      3   47       ; ".Btn"
6FB7  19010C00           [073] loadk      4   48       ; ".Check"
6FBB  59410C00           [074] loadk      5   49       ; ".OwnedBg"
6FBF  99810C00           [075] loadk      6   50       ; ".NameBg"
6FC3  9B400002           [076] setlist    2   4   1    ; index 1 to 4
6FC7  4C800097           [077] settable   1   302 2    ; "mElementClips"
6FCB  53000000           [078] getupval   1   0      
6FCF  8B000001           [079] newtable   2   2   0    ; array=2, hash=0
6FD3  D9000D00           [080] loadk      3   52       ; ".Name"
6FD7  19410D00           [081] loadk      4   53       ; ".Owned"
6FDB  9B400001           [082] setlist    2   2   1    ; index 1 to 2
6FDF  4C808099           [083] settable   1   307 2    ; "mTextElementClips"
6FE3  53000000           [084] getupval   1   0      
6FE7  9DC00D00           [085] getglobal  2   55       ; gridVisRangeRectangle
6FEB  4C80009B           [086] settable   1   310 2    ; "RectangleVisibleRangeMaterial"
6FEF  53000000           [087] getupval   1   0      
6FF3  9D400E00           [088] getglobal  2   57       ; gridVisRange
6FF7  4C80009C           [089] settable   1   312 2    ; "VisibleRangeMaterial"
6FFB  53000000           [090] getupval   1   0      
6FFF  9DC00E00           [091] getglobal  2   59       ; gridVisRangeText
7003  4C80009D           [092] settable   1   314 2    ; "TextVisibleRangeMaterial"
7007  53000000           [093] getupval   1   0      
700B  A5000000           [094] closure    2   0      
700F  13000001           [095] getupval   0   2      
7013  13000000           [096] getupval   0   0      
7017  4C80009E           [097] settable   1   316 2    ; "mClipCreatedCallback"
701B  53000000           [098] getupval   1   0      
701F  A5400000           [099] closure    2   1      
7023  13000000           [100] getupval   0   0      
7027  13000001           [101] getupval   0   2      
702B  4C80809E           [102] settable   1   317 2    ; "ChangeFocusedState"
702F  53000000           [103] getupval   1   0      
7033  A5800000           [104] closure    2   2      
7037  13000000           [105] getupval   0   0      
703B  4C80009F           [106] settable   1   318 2    ; "mOnFocusedCallback"
703F  53000000           [107] getupval   1   0      
7043  A5C00000           [108] closure    2   3      
7047  13000000           [109] getupval   0   0      
704B  4C80809F           [110] settable   1   319 2    ; "mOnUnfocusedCallback"
704F  53000000           [111] getupval   1   0      
7053  A5000100           [112] closure    2   4      
7057  13008000           [113] getupval   0   1      
705B  13008001           [114] getupval   0   3      
705F  13000000           [115] getupval   0   0      
7063  4C8000A0           [116] settable   1   320 2    ; "mOnSelectedCallback"
7067  53000000           [117] getupval   1   0      
706B  A5400100           [118] closure    2   5      
706F  13000000           [119] getupval   0   0      
7073  13000001           [120] getupval   0   2      
7077  4C8080A0           [121] settable   1   321 2    ; "mElementDrawCallback"
707B  53000000           [122] getupval   1   0      
707F  6480D000           [123] self       1   1   322  ; -1364794429
7083  CBC00000           [124] newtable   3   0   3    ; array=0, hash=3
7087  1DC10000           [125] getglobal  4   3        ; mMovie
708B  24015102           [126] self       4   4   324  ; 98241492
708F  99411100           [127] loadk      6   69       ; "/Lotus/Language/Menu/SortBy_Name"
7093  D7010000           [128] loadbool   7   0   0    ; false
7097  22810002           [129] call       4   4   2  
709B  CC0081A1           [130] settable   3   323 4    ; "Name"
709F  CCC051A3           [131] settable   3   326 327  ; "SortId" "NAME"
70A3  25810100           [132] closure    4   6      
70A7  CC0001A4           [133] settable   3   328 4    ; "Attribute"
70AB  62408001           [134] call       1   3   1  
70AF  53000000           [135] getupval   1   0      
70B3  6480D000           [136] self       1   1   322  ; -1364794429
70B7  CBC00000           [137] newtable   3   0   3    ; array=0, hash=3
70BB  1DC10000           [138] getglobal  4   3        ; mMovie
70BF  24015102           [139] self       4   4   324  ; 98241492
70C3  99411200           [140] loadk      6   73       ; "/Lotus/Language/Items/FusionBundle"
70C7  D7010000           [141] loadbool   7   0   0    ; false
70CB  22810002           [142] call       4   4   2  
70CF  CC0081A1           [143] settable   3   323 4    ; "Name"
70D3  CC8052A3           [144] settable   3   326 330  ; "SortId" "ENDO"
70D7  25C10100           [145] closure    4   7      
70DB  CC0001A4           [146] settable   3   328 4    ; "Attribute"
70DF  62408001           [147] call       1   3   1  
70E3  53000000           [148] getupval   1   0      
70E7  6480D000           [149] self       1   1   322  ; -1364794429
70EB  CBC00000           [150] newtable   3   0   3    ; array=0, hash=3
70EF  1DC10000           [151] getglobal  4   3        ; mMovie
70F3  24015102           [152] self       4   4   324  ; 98241492
70F7  99C11200           [153] loadk      6   75       ; "/Lotus/Language/Menu/SortBy_TreasureSocketPercent"
70FB  D7010000           [154] loadbool   7   0   0    ; false
70FF  22810002           [155] call       4   4   2  
7103  CC0081A1           [156] settable   3   323 4    ; "Name"
7107  CC0053A3           [157] settable   3   326 332  ; "SortId" "PERCENT_FILLED"
710B  25010200           [158] closure    4   8      
710F  13008000           [159] getupval   0   1      
7113  CC0001A4           [160] settable   3   328 4    ; "Attribute"
7117  62408001           [161] call       1   3   1  
711B  53000000           [162] getupval   1   0      
711F  6440D300           [163] self       1   1   333  ; 172880522
7123  D9C01100           [164] loadk      3   71       ; "NAME"
7127  62408001           [165] call       1   3   1  
712B  53000000           [166] getupval   1   0      
712F  6480D300           [167] self       1   1   334  ; 791335151
7133  CBC00000           [168] newtable   3   0   3    ; array=0, hash=3
7137  1DC10000           [169] getglobal  4   3        ; mMovie
713B  24015102           [170] self       4   4   324  ; 98241492
713F  99C11300           [171] loadk      6   79       ; "/Lotus/Language/Menu/CategoryAll"
7143  D7018000           [172] loadbool   7   1   0    ; true
7147  22810002           [173] call       4   4   2  
714B  CC0081A1           [174] settable   3   323 4    ; "Name"
714F  1D411400           [175] getglobal  4   81       ; _G
7153  0E815402           [176] gettable   4   4   338  ; "UICategoryIcon_AllOn"
7157  CC0001A8           [177] settable   3   336 4    ; "Icon"
715B  13010002           [178] getupval   4   4      
715F  0E015502           [179] gettable   4   4   340  ; "ALL"
7163  CC0081A9           [180] settable   3   339 4    ; "Category"
7167  17018000           [181] loadbool   4   1   0    ; true
716B  62400002           [182] call       1   4   1  
716F  53000000           [183] getupval   1   0      
7173  6480D300           [184] self       1   1   334  ; 791335151
7177  CBC00000           [185] newtable   3   0   3    ; array=0, hash=3
717B  1DC10000           [186] getglobal  4   3        ; mMovie
717F  24015102           [187] self       4   4   324  ; 98241492
7183  99411500           [188] loadk      6   85       ; "/Lotus/Language/Menu/FusionTreasureMgr_TreasureCategory"
7187  D7018000           [189] loadbool   7   1   0    ; true
718B  22810002           [190] call       4   4   2  
718F  CC0081A1           [191] settable   3   323 4    ; "Name"
7193  1D411400           [192] getglobal  4   81       ; _G
7197  0E815502           [193] gettable   4   4   342  ; "UICategoryIcon_FusionTreasuresOn"
719B  CC0001A8           [194] settable   3   336 4    ; "Icon"
719F  13010002           [195] getupval   4   4      
71A3  0EC15502           [196] gettable   4   4   343  ; "TREASURES"
71A7  CC0081A9           [197] settable   3   339 4    ; "Category"
71AB  17018000           [198] loadbool   4   1   0    ; true
71AF  62400002           [199] call       1   4   1  
71B3  53000000           [200] getupval   1   0      
71B7  6480D300           [201] self       1   1   334  ; 791335151
71BB  CBC00000           [202] newtable   3   0   3    ; array=0, hash=3
71BF  1DC10000           [203] getglobal  4   3        ; mMovie
71C3  24015102           [204] self       4   4   324  ; 98241492
71C7  99011600           [205] loadk      6   88       ; "/Lotus/Language/Menu/FusionTreasureMgr_OrnamentCategory"
71CB  D7018000           [206] loadbool   7   1   0    ; true
71CF  22810002           [207] call       4   4   2  
71D3  CC0081A1           [208] settable   3   323 4    ; "Name"
71D7  1D411600           [209] getglobal  4   89       ; ornamentIcon
71DB  CC0001A8           [210] settable   3   336 4    ; "Icon"
71DF  13010002           [211] getupval   4   4      
71E3  0E815602           [212] gettable   4   4   346  ; "ORNAMENTS"
71E7  CC0081A9           [213] settable   3   339 4    ; "Category"
71EB  17018000           [214] loadbool   4   1   0    ; true
71EF  62400002           [215] call       1   4   1  
71F3  53000000           [216] getupval   1   0      
71F7  64C0D600           [217] self       1   1   347  ; 639060681
71FB  D9001700           [218] loadk      3   92       ; 0
71FF  62408001           [219] call       1   3   1  
7203  53008002           [220] getupval   1   5      
7207  62408000           [221] call       1   1   1  
720B  1E008000           [222] return     0   1      
                         * constants:
720F  5D                 sizek (93)
7210  01                 const type 3
7211  44DC9B32           const [0]: (849075268)
7215  04                 const type 4
7216  2B                 string size (43)
7217  4C6F7475732E496E+  "Lotus.In"
721F  746572666163652E+  "terface."
7227  436F6D706F6E656E+  "Componen"
722F  74732E4361746567+  "ts.Categ"
7237  6F72697A65644772+  "orizedGr"
723F  696400             "id\0"
                         const [1]: "Lotus.Interface.Components.CategorizedGrid"
7242  01                 const type 3
7243  DF4E50A5           const [2]: (-1521463585)
7247  04                 const type 4
7248  07                 string size (7)
7249  6D4D6F76696500     "mMovie\0"
                         const [3]: "mMovie"
7250  04                 const type 4
7251  13                 string size (19)
7252  5472656173757265+  "Treasure"
725A  734C6973742E4974+  "sList.It"
7262  656D00             "em\0"
                         const [4]: "TreasuresList.Item"
7265  03                 const type 3
7266  00004040           const [5]: (0)
726A  03                 const type 3
726B  00008040           const [6]: (0)
726F  04                 const type 4
7270  0B                 string size (11)
7271  43617465676F7269+  "Categori"
7279  657300             "es\0"
                         const [7]: "Categories"
727C  04                 const type 4
727D  09                 string size (9)
727E  536F72744D656E75+  "SortMenu"
7286  00                 "\0"
                         const [8]: "SortMenu"
7287  01                 const type 3
7288  65A5130E           const [9]: (236168549)
728C  04                 const type 4
728D  11                 string size (17)
728E  5472656173757265+  "Treasure"
7296  53656C6563746564+  "Selected"
729E  00                 "\0"
                         const [10]: "TreasureSelected"
729F  04                 const type 4
72A0  10                 string size (16)
72A1  5472656173757265+  "Treasure"
72A9  466F637573656400   "Focused\0"
                         const [11]: "TreasureFocused"
72B1  04                 const type 4
72B2  12                 string size (18)
72B3  5472656173757265+  "Treasure"
72BB  556E666F63757365+  "Unfocuse"
72C3  6400               "d\0"
                         const [12]: "TreasureUnfocused"
72C5  04                 const type 4
72C6  0E                 string size (14)
72C7  6D43617465676F72+  "mCategor"
72CF  794D656E7500       "yMenu\0"
                         const [13]: "mCategoryMenu"
72D5  04                 const type 4
72D6  07                 string size (7)
72D7  6D416C69676E00     "mAlign\0"
                         const [14]: "mAlign"
72DE  04                 const type 4
72DF  0D                 string size (13)
72E0  4C4546545F414C49+  "LEFT_ALI"
72E8  474E454400         "GNED\0"
                         const [15]: "LEFT_ALIGNED"
72ED  04                 const type 4
72EE  0C                 string size (12)
72EF  6D53656C65637465+  "mSelecte"
72F7  64496400           "dId\0"
                         const [16]: "mSelectedId"
72FB  00                 const type 0
                         const [17]: nil
72FC  04                 const type 4
72FD  16                 string size (22)
72FE  6D557365436F726E+  "mUseCorn"
7306  6572466F7253656C+  "erForSel"
730E  656374656400       "ected\0"
                         const [18]: "mUseCornerForSelected"
7314  01                 const type 3
7315  01000000           const [19]: (1)
7319  04                 const type 4
731A  17                 string size (23)
731B  6D53656C65637445+  "mSelectE"
7323  6C656D656E74734F+  "lementsO"
732B  6E466F63757300     "nFocus\0"
                         const [20]: "mSelectElementsOnFocus"
7332  01                 const type 3
7333  00000000           const [21]: (0)
7337  04                 const type 4
7338  0C                 string size (12)
7339  6D53686F774C6162+  "mShowLab"
7341  656C7300           "els\0"
                         const [22]: "mShowLabels"
7345  04                 const type 4
7346  0F                 string size (15)
7347  6D53656C65637465+  "mSelecte"
734F  645363616C6500     "dScale\0"
                         const [23]: "mSelectedScale"
7356  03                 const type 3
7357  0000C842           const [24]: (0)
735B  04                 const type 4
735C  0A                 string size (10)
735D  6D536F72744D656E+  "mSortMen"
7365  7500               "u\0"
                         const [25]: "mSortMenu"
7367  01                 const type 3
7368  F4501A88           const [26]: (-2011541260)
736C  03                 const type 3
736D  00004843           const [27]: (0)
7371  04                 const type 4
7372  11                 string size (17)
7373  456C656D656E7444+  "ElementD"
737B  696D427566666572+  "imBuffer"
7383  00                 "\0"
                         const [28]: "ElementDimBuffer"
7384  03                 const type 3
7385  0000C041           const [29]: (0)
7389  04                 const type 4
738A  0D                 string size (13)
738B  456C656D656E7457+  "ElementW"
7393  6964746800         "idth\0"
                         const [30]: "ElementWidth"
7398  03                 const type 3
7399  00000E43           const [31]: (0)
739D  04                 const type 4
739E  0E                 string size (14)
739F  456C656D656E7448+  "ElementH"
73A7  656967687400       "eight\0"
                         const [32]: "ElementHeight"
73AD  04                 const type 4
73AE  06                 string size (6)
73AF  576964746800       "Width\0"
                         const [33]: "Width"
73B5  03                 const type 3
73B6  0000FA43           const [34]: (0)
73BA  04                 const type 4
73BB  07                 string size (7)
73BC  48656967687400     "Height\0"
                         const [35]: "Height"
73C3  03                 const type 3
73C4  00802244           const [36]: (0)
73C8  01                 const type 3
73C9  183954C4           const [37]: (-1001113320)
73CD  01                 const type 3
73CE  371FB63D           const [38]: (1035345719)
73D2  04                 const type 4
73D3  0A                 string size (10)
73D4  5363726F6C6C4261+  "ScrollBa"
73DC  7200               "r\0"
                         const [39]: "ScrollBar"
73DE  03                 const type 3
73DF  0000B8C1           const [40]: (0)
73E3  04                 const type 4
73E4  1B                 string size (27)
73E5  6D5363726F6C6C42+  "mScrollB"
73ED  6172486F72697A6F+  "arHorizo"
73F5  6E74616C4F666673+  "ntalOffs"
73FD  657400             "et\0"
                         const [41]: "mScrollBarHorizontalOffset"
7400  04                 const type 4
7401  1A                 string size (26)
7402  6D536F72744D656E+  "mSortMen"
740A  75486F72697A6F6E+  "uHorizon"
7412  74616C4F66667365+  "talOffse"
741A  7400               "t\0"
                         const [42]: "mSortMenuHorizontalOffset"
741C  04                 const type 4
741D  18                 string size (24)
741E  6D536F72744D656E+  "mSortMen"
7426  7556657274696361+  "uVertica"
742E  6C4F666673657400   "lOffset\0"
                         const [43]: "mSortMenuVerticalOffset"
7436  01                 const type 3
7437  3685C1F9           const [44]: (-104757962)
743B  04                 const type 4
743C  15                 string size (21)
743D  6D5363726F6C6C41+  "mScrollA"
7445  6C77617973566973+  "lwaysVis"
744D  69626C6500         "ible\0"
                         const [45]: "mScrollAlwaysVisible"
7452  04                 const type 4
7453  0E                 string size (14)
7454  6D456C656D656E74+  "mElement"
745C  436C69707300       "Clips\0"
                         const [46]: "mElementClips"
7462  04                 const type 4
7463  05                 string size (5)
7464  2E42746E00         ".Btn\0"
                         const [47]: ".Btn"
7469  04                 const type 4
746A  07                 string size (7)
746B  2E436865636B00     ".Check\0"
                         const [48]: ".Check"
7472  04                 const type 4
7473  09                 string size (9)
7474  2E4F776E65644267+  ".OwnedBg"
747C  00                 "\0"
                         const [49]: ".OwnedBg"
747D  04                 const type 4
747E  08                 string size (8)
747F  2E4E616D65426700   ".NameBg\0"
                         const [50]: ".NameBg"
7487  04                 const type 4
7488  12                 string size (18)
7489  6D54657874456C65+  "mTextEle"
7491  6D656E74436C6970+  "mentClip"
7499  7300               "s\0"
                         const [51]: "mTextElementClips"
749B  04                 const type 4
749C  06                 string size (6)
749D  2E4E616D6500       ".Name\0"
                         const [52]: ".Name"
74A3  04                 const type 4
74A4  07                 string size (7)
74A5  2E4F776E656400     ".Owned\0"
                         const [53]: ".Owned"
74AC  04                 const type 4
74AD  1E                 string size (30)
74AE  52656374616E676C+  "Rectangl"
74B6  6556697369626C65+  "eVisible"
74BE  52616E67654D6174+  "RangeMat"
74C6  657269616C00       "erial\0"
                         const [54]: "RectangleVisibleRangeMaterial"
74CC  04                 const type 4
74CD  16                 string size (22)
74CE  6772696456697352+  "gridVisR"
74D6  616E676552656374+  "angeRect"
74DE  616E676C6500       "angle\0"
                         const [55]: "gridVisRangeRectangle"
74E4  04                 const type 4
74E5  15                 string size (21)
74E6  56697369626C6552+  "VisibleR"
74EE  616E67654D617465+  "angeMate"
74F6  7269616C00         "rial\0"
                         const [56]: "VisibleRangeMaterial"
74FB  04                 const type 4
74FC  0D                 string size (13)
74FD  6772696456697352+  "gridVisR"
7505  616E676500         "ange\0"
                         const [57]: "gridVisRange"
750A  04                 const type 4
750B  19                 string size (25)
750C  5465787456697369+  "TextVisi"
7514  626C6552616E6765+  "bleRange"
751C  4D6174657269616C+  "Material"
7524  00                 "\0"
                         const [58]: "TextVisibleRangeMaterial"
7525  04                 const type 4
7526  11                 string size (17)
7527  6772696456697352+  "gridVisR"
752F  616E676554657874+  "angeText"
7537  00                 "\0"
                         const [59]: "gridVisRangeText"
7538  04                 const type 4
7539  15                 string size (21)
753A  6D436C6970437265+  "mClipCre"
7542  6174656443616C6C+  "atedCall"
754A  6261636B00         "back\0"
                         const [60]: "mClipCreatedCallback"
754F  04                 const type 4
7550  13                 string size (19)
7551  4368616E6765466F+  "ChangeFo"
7559  6375736564537461+  "cusedSta"
7561  746500             "te\0"
                         const [61]: "ChangeFocusedState"
7564  04                 const type 4
7565  13                 string size (19)
7566  6D4F6E466F637573+  "mOnFocus"
756E  656443616C6C6261+  "edCallba"
7576  636B00             "ck\0"
                         const [62]: "mOnFocusedCallback"
7579  04                 const type 4
757A  15                 string size (21)
757B  6D4F6E556E666F63+  "mOnUnfoc"
7583  7573656443616C6C+  "usedCall"
758B  6261636B00         "back\0"
                         const [63]: "mOnUnfocusedCallback"
7590  04                 const type 4
7591  14                 string size (20)
7592  6D4F6E53656C6563+  "mOnSelec"
759A  74656443616C6C62+  "tedCallb"
75A2  61636B00           "ack\0"
                         const [64]: "mOnSelectedCallback"
75A6  04                 const type 4
75A7  15                 string size (21)
75A8  6D456C656D656E74+  "mElement"
75B0  4472617743616C6C+  "DrawCall"
75B8  6261636B00         "back\0"
                         const [65]: "mElementDrawCallback"
75BD  01                 const type 3
75BE  C3E3A6AE           const [66]: (-1364794429)
75C2  04                 const type 4
75C3  05                 string size (5)
75C4  4E616D6500         "Name\0"
                         const [67]: "Name"
75C9  01                 const type 3
75CA  D40BDB05           const [68]: (98241492)
75CE  04                 const type 4
75CF  21                 string size (33)
75D0  2F4C6F7475732F4C+  "/Lotus/L"
75D8  616E67756167652F+  "anguage/"
75E0  4D656E752F536F72+  "Menu/Sor"
75E8  7442795F4E616D65+  "tBy_Name"
75F0  00                 "\0"
                         const [69]: "/Lotus/Language/Menu/SortBy_Name"
75F1  04                 const type 4
75F2  07                 string size (7)
75F3  536F7274496400     "SortId\0"
                         const [70]: "SortId"
75FA  04                 const type 4
75FB  05                 string size (5)
75FC  4E414D4500         "NAME\0"
                         const [71]: "NAME"
7601  04                 const type 4
7602  0A                 string size (10)
7603  4174747269627574+  "Attribut"
760B  6500               "e\0"
                         const [72]: "Attribute"
760D  04                 const type 4
760E  23                 string size (35)
760F  2F4C6F7475732F4C+  "/Lotus/L"
7617  616E67756167652F+  "anguage/"
761F  4974656D732F4675+  "Items/Fu"
7627  73696F6E42756E64+  "sionBund"
762F  6C6500             "le\0"
                         const [73]: "/Lotus/Language/Items/FusionBundle"
7632  04                 const type 4
7633  05                 string size (5)
7634  454E444F00         "ENDO\0"
                         const [74]: "ENDO"
7639  04                 const type 4
763A  32                 string size (50)
763B  2F4C6F7475732F4C+  "/Lotus/L"
7643  616E67756167652F+  "anguage/"
764B  4D656E752F536F72+  "Menu/Sor"
7653  7442795F54726561+  "tBy_Trea"
765B  73757265536F636B+  "sureSock"
7663  657450657263656E+  "etPercen"
766B  7400               "t\0"
                         const [75]: "/Lotus/Language/Menu/SortBy_TreasureSocketPercent"
766D  04                 const type 4
766E  0F                 string size (15)
766F  50455243454E545F+  "PERCENT_"
7677  46494C4C454400     "FILLED\0"
                         const [76]: "PERCENT_FILLED"
767E  01                 const type 3
767F  8AF24D0A           const [77]: (172880522)
7683  01                 const type 3
7684  EFD02A2F           const [78]: (791335151)
7688  04                 const type 4
7689  21                 string size (33)
768A  2F4C6F7475732F4C+  "/Lotus/L"
7692  616E67756167652F+  "anguage/"
769A  4D656E752F436174+  "Menu/Cat"
76A2  65676F7279416C6C+  "egoryAll"
76AA  00                 "\0"
                         const [79]: "/Lotus/Language/Menu/CategoryAll"
76AB  04                 const type 4
76AC  05                 string size (5)
76AD  49636F6E00         "Icon\0"
                         const [80]: "Icon"
76B2  04                 const type 4
76B3  03                 string size (3)
76B4  5F4700             "_G\0"
                         const [81]: "_G"
76B7  04                 const type 4
76B8  15                 string size (21)
76B9  554943617465676F+  "UICatego"
76C1  727949636F6E5F41+  "ryIcon_A"
76C9  6C6C4F6E00         "llOn\0"
                         const [82]: "UICategoryIcon_AllOn"
76CE  04                 const type 4
76CF  09                 string size (9)
76D0  43617465676F7279+  "Category"
76D8  00                 "\0"
                         const [83]: "Category"
76D9  04                 const type 4
76DA  04                 string size (4)
76DB  414C4C00           "ALL\0"
                         const [84]: "ALL"
76DF  04                 const type 4
76E0  38                 string size (56)
76E1  2F4C6F7475732F4C+  "/Lotus/L"
76E9  616E67756167652F+  "anguage/"
76F1  4D656E752F467573+  "Menu/Fus"
76F9  696F6E5472656173+  "ionTreas"
7701  7572654D67725F54+  "ureMgr_T"
7709  7265617375726543+  "reasureC"
7711  617465676F727900   "ategory\0"
                         const [85]: "/Lotus/Language/Menu/FusionTreasureMgr_TreasureCategory"
7719  04                 const type 4
771A  21                 string size (33)
771B  554943617465676F+  "UICatego"
7723  727949636F6E5F46+  "ryIcon_F"
772B  7573696F6E547265+  "usionTre"
7733  6173757265734F6E+  "asuresOn"
773B  00                 "\0"
                         const [86]: "UICategoryIcon_FusionTreasuresOn"
773C  04                 const type 4
773D  0A                 string size (10)
773E  5452454153555245+  "TREASURE"
7746  5300               "S\0"
                         const [87]: "TREASURES"
7748  04                 const type 4
7749  38                 string size (56)
774A  2F4C6F7475732F4C+  "/Lotus/L"
7752  616E67756167652F+  "anguage/"
775A  4D656E752F467573+  "Menu/Fus"
7762  696F6E5472656173+  "ionTreas"
776A  7572654D67725F4F+  "ureMgr_O"
7772  726E616D656E7443+  "rnamentC"
777A  617465676F727900   "ategory\0"
                         const [88]: "/Lotus/Language/Menu/FusionTreasureMgr_OrnamentCategory"
7782  04                 const type 4
7783  0D                 string size (13)
7784  6F726E616D656E74+  "ornament"
778C  49636F6E00         "Icon\0"
                         const [89]: "ornamentIcon"
7791  04                 const type 4
7792  0A                 string size (10)
7793  4F524E414D454E54+  "ORNAMENT"
779B  5300               "S\0"
                         const [90]: "ORNAMENTS"
779D  01                 const type 3
779E  C94A1726           const [91]: (639060681)
77A2  03                 const type 3
77A3  00000000           const [92]: (0)
                         * functions:
77A7  09                 sizep (9)
                         
77A8                     ** function [0] definition (level 3)
                         ** start of function **
77A8  00                 string size (0)
                         source name: (none)
77AA  07                 line defined (919)
77AB  99                 last line defined (921)
77AC  07                 nups (2)
77AD  02                 numparams (2)
77AE  02                 is_vararg (0)
77AF  00                 maxstacksize (6)
                         * code:
77B1  07                 sizecode (7)
77B2  93000000           [1] getupval   2   0      
77B6  8E004001           [2] gettable   2   2   256  ; 1000090404
77BA  DD400000           [3] getglobal  3   1        ; mMovie
77BE  13018000           [4] getupval   4   1      
77C2  52010000           [5] move       5   0      
77C6  A2400002           [6] call       2   4   1  
77CA  1E008000           [7] return     0   1      
                         * constants:
77CE  02                 sizek (2)
77CF  01                 const type 3
77D0  242B9C3B           const [0]: (1000090404)
77D4  04                 const type 4
77D5  07                 string size (7)
77D6  6D4D6F76696500     "mMovie\0"
                         const [1]: "mMovie"
                         * functions:
77DD  00                 sizep (0)
                         * lines:
77DE  07                 sizelineinfo (7)
                         [pc] (line)
77DF  98                 [1] (-104)
77E0  03                 [2] (-104)
77E1  00                 [3] (-104)
77E2  00                 [4] (-104)
77E3  98                 [5] (-104)
77E4  03                 [6] (-104)
77E5  00                 [7] (-103)
                         * locals:
77FB  00                 sizelocvars (0)
                         * upvalues:
77FC  00                 sizeupvalues (0)
                         ** end of function **

                         
77FD                     ** function [1] definition (level 3)
                         ** start of function **
77FD  00                 string size (0)
                         source name: (none)
77FF  07                 line defined (923)
7800  A4                 last line defined (932)
7801  07                 nups (2)
7802  02                 numparams (2)
7803  02                 is_vararg (0)
7804  00                 maxstacksize (10)
                         * code:
7806  24                 sizecode (36)
7807  93000000           [01] getupval   2   0      
780B  A4004001           [02] self       2   2   256  ; -1749775947
780F  A2800001           [03] call       2   2   2  
7813  D2008000           [04] move       3   1      
fail op	35
7817  2340C001           [05] close      0  
781B  1AC00180           [06] jmp        8            ; to [15]
fail op	35
781F  63404001           [07] close      1  
7823  1AC00080           [08] jmp        4            ; to [13]
7827  0E814001           [09] gettable   4   2   258  ; "Id"
782B  4E814000           [10] gettable   5   0   258  ; "Id"
fail op	35
782F  63400102           [11] close      1  
7833  1A000080           [12] jmp        1            ; to [14]
7837  D7400000           [13] loadbool   3   0   1    ; false, to [15]
783B  D7008000           [14] loadbool   3   1   0    ; true
783F  13010000           [15] getupval   4   0      
7843  0EC14002           [16] gettable   4   4   259  ; "mSelectedId"
fail op	35
7847  63404002           [17] close      1  
784B  1A000180           [18] jmp        5            ; to [24]
784F  13010000           [19] getupval   4   0      
7853  0EC14002           [20] gettable   4   4   259  ; "mSelectedId"
7857  4E814000           [21] gettable   5   0   258  ; "Id"
fail op	35
785B  63400102           [22] close      1  
785F  1A000080           [23] jmp        1            ; to [25]
7863  17410000           [24] loadbool   4   0   1    ; false, to [26]
7867  17018000           [25] loadbool   4   1   0    ; true
786B  53018000           [26] getupval   5   1      
786F  4E01C102           [27] gettable   5   5   260  ; 81281438
7873  9D410100           [28] getglobal  6   5        ; mMovie
7877  D3010000           [29] getupval   7   0      
787B  12020000           [30] move       8   0      
787F  4BC20000           [31] newtable   9   0   3    ; array=0, hash=3
7883  4CC20083           [32] settable   9   262 3    ; "IsFocused"
7887  4C028183           [33] settable   9   263 4    ; "IsSelected"
788B  4C424284           [34] settable   9   264 265  ; "ShowInfoPopup" 1
788F  62418002           [35] call       5   5   1  
7893  1E008000           [36] return     0   1      
                         * constants:
7897  0A                 sizek (10)
7898  01                 const type 3
7899  B589B497           const [0]: (-1749775947)
789D  00                 const type 0
                         const [1]: nil
789E  04                 const type 4
789F  03                 string size (3)
78A0  496400             "Id\0"
                         const [2]: "Id"
78A3  04                 const type 4
78A4  0C                 string size (12)
78A5  6D53656C65637465+  "mSelecte"
78AD  64496400           "dId\0"
                         const [3]: "mSelectedId"
78B1  01                 const type 3
78B2  9E41D804           const [4]: (81281438)
78B6  04                 const type 4
78B7  07                 string size (7)
78B8  6D4D6F76696500     "mMovie\0"
                         const [5]: "mMovie"
78BF  04                 const type 4
78C0  0A                 string size (10)
78C1  4973466F63757365+  "IsFocuse"
78C9  6400               "d\0"
                         const [6]: "IsFocused"
78CB  04                 const type 4
78CC  0B                 string size (11)
78CD  497353656C656374+  "IsSelect"
78D5  656400             "ed\0"
                         const [7]: "IsSelected"
78D8  04                 const type 4
78D9  0E                 string size (14)
78DA  53686F77496E666F+  "ShowInfo"
78E2  506F70757000       "Popup\0"
                         const [8]: "ShowInfoPopup"
78E8  01                 const type 3
78E9  01000000           const [9]: (1)
                         * functions:
78ED  00                 sizep (0)
                         * lines:
78EE  24                 sizelineinfo (36)
                         [pc] (line)
78EF  9C                 [01] (-100)
78F0  03                 [02] (-100)
78F1  00                 [03] (-100)
78F2  00                 [04] (-99)
78F3  9C                 [05] (-98)
78F4  03                 [06] (-98)
78F5  00                 [07] (-97)
78F6  00                 [08] (-97)
78F7  9C                 [09] (-97)
78F8  03                 [10] (-97)
78F9  00                 [11] (-97)
78FA  00                 [12] (-97)
78FB  9D                 [13] (-97)
78FC  03                 [14] (-97)
78FD  00                 [15] (-95)
78FE  00                 [16] (-95)
78FF  9E                 [17] (-95)
7900  03                 [18] (-95)
7901  00                 [19] (-95)
7902  00                 [20] (-95)
7903  9E                 [21] (-95)
7904  03                 [22] (-95)
7905  00                 [23] (-95)
7906  00                 [24] (-95)
7907  9F                 [25] (-95)
7908  03                 [26] (-93)
7909  00                 [27] (-93)
790A  00                 [28] (-93)
790B  9F                 [29] (-93)
790C  03                 [30] (-93)
790D  00                 [31] (-93)
790E  00                 [32] (-93)
790F  9F                 [33] (-93)
7910  03                 [34] (-93)
7911  00                 [35] (-93)
7912  00                 [36] (-92)
                         * locals:
797F  00                 sizelocvars (0)
                         * upvalues:
7980  00                 sizeupvalues (0)
                         ** end of function **

                         
7981                     ** function [2] definition (level 3)
                         ** start of function **
7981  00                 string size (0)
                         source name: (none)
7983  07                 line defined (934)
7984  AC                 last line defined (940)
7985  07                 nups (1)
7986  01                 numparams (1)
7987  01                 is_vararg (0)
7988  00                 maxstacksize (4)
                         * code:
798A  0A                 sizecode (10)
798B  4E004000           [01] gettable   1   0   256  ; "mClipName"
fail op	35
798F  2340C000           [02] close      0  
7993  1A000080           [03] jmp        1            ; to [5]
7997  1E008000           [04] return     0   1      
799B  53000000           [05] getupval   1   0      
799F  4E80C000           [06] gettable   1   1   258  ; -1532534570
79A3  92000000           [07] move       2   0      
79A7  D7008000           [08] loadbool   3   1   0    ; true
79AB  62408001           [09] call       1   3   1  
79AF  1E008000           [10] return     0   1      
                         * constants:
79B3  03                 sizek (3)
79B4  04                 const type 4
79B5  0A                 string size (10)
79B6  6D436C69704E616D+  "mClipNam"
79BE  6500               "e\0"
                         const [0]: "mClipName"
79C0  00                 const type 0
                         const [1]: nil
79C1  01                 const type 3
79C2  D660A7A4           const [2]: (-1532534570)
                         * functions:
79C6  00                 sizep (0)
                         * lines:
79C7  0A                 sizelineinfo (10)
                         [pc] (line)
79C8  A7                 [01] (-89)
79C9  03                 [02] (-89)
79CA  00                 [03] (-89)
79CB  00                 [04] (-88)
79CC  A7                 [05] (-85)
79CD  03                 [06] (-85)
79CE  00                 [07] (-85)
79CF  00                 [08] (-85)
79D0  A7                 [09] (-85)
79D1  03                 [10] (-84)
                         * locals:
79F0  00                 sizelocvars (0)
                         * upvalues:
79F1  00                 sizeupvalues (0)
                         ** end of function **

                         
79F2                     ** function [3] definition (level 3)
                         ** start of function **
79F2  00                 string size (0)
                         source name: (none)
79F4  07                 line defined (942)
79F5  B4                 last line defined (948)
79F6  07                 nups (1)
79F7  01                 numparams (1)
79F8  01                 is_vararg (0)
79F9  00                 maxstacksize (4)
                         * code:
79FB  0A                 sizecode (10)
79FC  4E004000           [01] gettable   1   0   256  ; "mClipName"
fail op	35
7A00  2340C000           [02] close      0  
7A04  1A000080           [03] jmp        1            ; to [5]
7A08  1E008000           [04] return     0   1      
7A0C  53000000           [05] getupval   1   0      
7A10  4E80C000           [06] gettable   1   1   258  ; -1532534570
7A14  92000000           [07] move       2   0      
7A18  D7000000           [08] loadbool   3   0   0    ; false
7A1C  62408001           [09] call       1   3   1  
7A20  1E008000           [10] return     0   1      
                         * constants:
7A24  03                 sizek (3)
7A25  04                 const type 4
7A26  0A                 string size (10)
7A27  6D436C69704E616D+  "mClipNam"
7A2F  6500               "e\0"
                         const [0]: "mClipName"
7A31  00                 const type 0
                         const [1]: nil
7A32  01                 const type 3
7A33  D660A7A4           const [2]: (-1532534570)
                         * functions:
7A37  00                 sizep (0)
                         * lines:
7A38  0A                 sizelineinfo (10)
                         [pc] (line)
7A39  AF                 [01] (-81)
7A3A  03                 [02] (-81)
7A3B  00                 [03] (-81)
7A3C  00                 [04] (-80)
7A3D  AF                 [05] (-77)
7A3E  03                 [06] (-77)
7A3F  00                 [07] (-77)
7A40  00                 [08] (-77)
7A41  AF                 [09] (-77)
7A42  03                 [10] (-76)
                         * locals:
7A61  00                 sizelocvars (0)
                         * upvalues:
7A62  00                 sizeupvalues (0)
                         ** end of function **

                         
7A63                     ** function [4] definition (level 3)
                         ** start of function **
7A63  00                 string size (0)
                         source name: (none)
7A65  07                 line defined (950)
7A66  C8                 last line defined (968)
7A67  07                 nups (3)
7A68  03                 numparams (2)
7A69  02                 is_vararg (0)
7A6A  00                 maxstacksize (8)
                         * code:
7A6C  25                 sizecode (37)
7A6D  58000000           [01] test       1       0    ; to [3] if true
7A71  1A400280           [02] jmp        10           ; to [13]
7A75  93000000           [03] getupval   2   0      
7A79  8E004001           [04] gettable   2   2   256  ; -617354062
7A7D  DD400000           [05] getglobal  3   1        ; mMovie
7A81  19810000           [06] loadk      4   2        ; 0
7A85  59C10000           [07] loadk      5   3        ; 0
7A89  99010100           [08] loadk      6   4        ; 0
7A8D  E5010000           [09] closure    7   0      
7A91  13008000           [10] getupval   0   1      
7A95  12000000           [11] move       0   0      
7A99  A2400003           [12] call       2   6   1  
7A9D  93000001           [13] getupval   2   2      
7AA1  8E404101           [14] gettable   2   2   261  ; "mSelectedId"
7AA5  D3000001           [15] getupval   3   2      
7AA9  0E814100           [16] gettable   4   0   262  ; "Id"
7AAD  CC008182           [17] settable   3   261 4    ; "mSelectedId"
fail op	35
7AB1  63C04101           [18] close      1  
7AB5  1A000380           [19] jmp        13           ; to [33]
7AB9  D3000001           [20] getupval   3   2      
7ABD  E400C201           [21] self       3   3   264  ; -165724006
7AC1  52010001           [22] move       5   2      
7AC5  E2808001           [23] call       3   3   2  
7AC9  1D410200           [24] getglobal  4   9        ; 1074689893
7ACD  52018001           [25] move       5   3      
7AD1  22810001           [26] call       4   2   2  
7AD5  18410000           [27] test       4       1    ; to [29] if false
7AD9  1AC00080           [28] jmp        4            ; to [33]
7ADD  13010001           [29] getupval   4   2      
7AE1  0E814202           [30] gettable   4   4   266  ; -1532534570
7AE5  52018001           [31] move       5   3      
7AE9  22410001           [32] call       4   2   1  
7AED  13010001           [33] getupval   4   2      
7AF1  0E814202           [34] gettable   4   4   266  ; -1532534570
7AF5  52010000           [35] move       5   0      
7AF9  22410001           [36] call       4   2   1  
7AFD  1E008000           [37] return     0   1      
                         * constants:
7B01  0B                 sizek (11)
7B02  01                 const type 3
7B03  B2EC33DB           const [0]: (-617354062)
7B07  04                 const type 4
7B08  07                 string size (7)
7B09  6D4D6F76696500     "mMovie\0"
                         const [1]: "mMovie"
7B10  03                 const type 3
7B11  0000803F           const [2]: (0)
7B15  03                 const type 3
7B16  0000803E           const [3]: (0)
7B1A  03                 const type 3
7B1B  00000000           const [4]: (0)
7B1F  04                 const type 4
7B20  0C                 string size (12)
7B21  6D53656C65637465+  "mSelecte"
7B29  64496400           "dId\0"
                         const [5]: "mSelectedId"
7B2D  04                 const type 4
7B2E  03                 string size (3)
7B2F  496400             "Id\0"
                         const [6]: "Id"
7B32  00                 const type 0
                         const [7]: nil
7B33  01                 const type 3
7B34  9A401FF6           const [8]: (-165724006)
7B38  01                 const type 3
7B39  65770E40           const [9]: (1074689893)
7B3D  01                 const type 3
7B3E  D660A7A4           const [10]: (-1532534570)
                         * functions:
7B42  01                 sizep (1)
                         
7B43                     ** function [0] definition (level 4)
                         ** start of function **
7B43  00                 string size (0)
                         source name: (none)
7B45  07                 line defined (953)
7B46  BB                 last line defined (955)
7B47  07                 nups (2)
7B48  02                 numparams (0)
7B49  00                 is_vararg (0)
7B4A  00                 maxstacksize (2)
                         * code:
7B4C  04                 sizecode (4)
7B4D  13000000           [1] getupval   0   0      
7B51  53008000           [2] getupval   1   1      
7B55  22400001           [3] call       0   2   1  
7B59  1E008000           [4] return     0   1      
                         * constants:
7B5D  00                 sizek (0)
                         * functions:
7B5E  00                 sizep (0)
                         * lines:
7B5F  04                 sizelineinfo (4)
                         [pc] (line)
7B60  BA                 [1] (-70)
7B61  03                 [2] (-70)
7B62  00                 [3] (-70)
7B63  00                 [4] (-69)
                         * locals:
7B70  00                 sizelocvars (0)
                         * upvalues:
7B71  00                 sizeupvalues (0)
                         ** end of function **

                         * lines:
7B72  25                 sizelineinfo (37)
                         [pc] (line)
7B73  B7                 [01] (-73)
7B74  03                 [02] (-73)
7B75  00                 [03] (-72)
7B76  00                 [04] (-72)
7B77  B7                 [05] (-72)
7B78  03                 [06] (-72)
7B79  00                 [07] (-72)
7B7A  00                 [08] (-72)
7B7B  B8                 [09] (-69)
7B7C  03                 [10] (-69)
7B7D  00                 [11] (-69)
7B7E  00                 [12] (-72)
7B7F  B8                 [13] (-66)
7B80  03                 [14] (-66)
7B81  00                 [15] (-65)
7B82  00                 [16] (-65)
7B83  B8                 [17] (-65)
7B84  03                 [18] (-64)
7B85  00                 [19] (-64)
7B86  00                 [20] (-63)
7B87  B8                 [21] (-63)
7B88  03                 [22] (-63)
7B89  00                 [23] (-63)
7B8A  00                 [24] (-62)
7B8B  B8                 [25] (-62)
7B8C  03                 [26] (-62)
7B8D  00                 [27] (-62)
7B8E  00                 [28] (-62)
7B8F  B8                 [29] (-61)
7B90  03                 [30] (-61)
7B91  00                 [31] (-61)
7B92  00                 [32] (-61)
7B93  BB                 [33] (-57)
7B94  03                 [34] (-57)
7B95  00                 [35] (-57)
7B96  00                 [36] (-57)
7B97  BB                 [37] (-56)
                         * locals:
7C07  00                 sizelocvars (0)
                         * upvalues:
7C08  00                 sizeupvalues (0)
                         ** end of function **

                         
7C09                     ** function [5] definition (level 3)
                         ** start of function **
7C09  00                 string size (0)
                         source name: (none)
7C0B  07                 line defined (970)
7C0C  D5                 last line defined (981)
7C0D  07                 nups (2)
7C0E  02                 numparams (1)
7C0F  01                 is_vararg (0)
7C10  00                 maxstacksize (10)
                         * code:
7C12  25                 sizecode (37)
7C13  4E004000           [01] gettable   1   0   256  ; "mClipName"
fail op	35
7C17  2340C000           [02] close      0  
7C1B  1A000080           [03] jmp        1            ; to [5]
7C1F  1E008000           [04] return     0   1      
7C23  53000000           [05] getupval   1   0      
7C27  6480C000           [06] self       1   1   258  ; -1749775947
7C2B  62800001           [07] call       1   2   2  
fail op	35
7C2F  6340C000           [08] close      1  
7C33  1AC00080           [09] jmp        4            ; to [14]
7C37  8EC0C000           [10] gettable   2   1   259  ; "Id"
7C3B  CEC04000           [11] gettable   3   0   259  ; "Id"
fail op	35
7C3F  63C00001           [12] close      1  
7C43  1A000080           [13] jmp        1            ; to [15]
7C47  97400000           [14] loadbool   2   0   1    ; false, to [16]
7C4B  97008000           [15] loadbool   2   1   0    ; true
7C4F  D3000000           [16] getupval   3   0      
7C53  CE00C101           [17] gettable   3   3   260  ; "mSelectedId"
fail op	35
7C57  6340C001           [18] close      1  
7C5B  1A000180           [19] jmp        5            ; to [25]
7C5F  D3000000           [20] getupval   3   0      
7C63  CE00C101           [21] gettable   3   3   260  ; "mSelectedId"
7C67  0EC14000           [22] gettable   4   0   259  ; "Id"
fail op	35
7C6B  63008101           [23] close      1  
7C6F  1A000080           [24] jmp        1            ; to [26]
7C73  D7400000           [25] loadbool   3   0   1    ; false, to [27]
7C77  D7008000           [26] loadbool   3   1   0    ; true
7C7B  0B810000           [27] newtable   4   0   2    ; array=0, hash=2
7C7F  0C818082           [28] settable   4   261 2    ; "IsFocused"
7C83  0CC10083           [29] settable   4   262 3    ; "IsSelected"
7C87  53018000           [30] getupval   5   1      
7C8B  4EC1C102           [31] gettable   5   5   263  ; 1503902066
7C8F  9D010200           [32] getglobal  6   8        ; mMovie
7C93  D3010000           [33] getupval   7   0      
7C97  12020000           [34] move       8   0      
7C9B  52020002           [35] move       9   4      
7C9F  62418002           [36] call       5   5   1  
7CA3  1E008000           [37] return     0   1      
                         * constants:
7CA7  09                 sizek (9)
7CA8  04                 const type 4
7CA9  0A                 string size (10)
7CAA  6D436C69704E616D+  "mClipNam"
7CB2  6500               "e\0"
                         const [0]: "mClipName"
7CB4  00                 const type 0
                         const [1]: nil
7CB5  01                 const type 3
7CB6  B589B497           const [2]: (-1749775947)
7CBA  04                 const type 4
7CBB  03                 string size (3)
7CBC  496400             "Id\0"
                         const [3]: "Id"
7CBF  04                 const type 4
7CC0  0C                 string size (12)
7CC1  6D53656C65637465+  "mSelecte"
7CC9  64496400           "dId\0"
                         const [4]: "mSelectedId"
7CCD  04                 const type 4
7CCE  0A                 string size (10)
7CCF  4973466F63757365+  "IsFocuse"
7CD7  6400               "d\0"
                         const [5]: "IsFocused"
7CD9  04                 const type 4
7CDA  0B                 string size (11)
7CDB  497353656C656374+  "IsSelect"
7CE3  656400             "ed\0"
                         const [6]: "IsSelected"
7CE6  01                 const type 3
7CE7  72B9A359           const [7]: (1503902066)
7CEB  04                 const type 4
7CEC  07                 string size (7)
7CED  6D4D6F76696500     "mMovie\0"
                         const [8]: "mMovie"
                         * functions:
7CF4  00                 sizep (0)
                         * lines:
7CF5  25                 sizelineinfo (37)
                         [pc] (line)
7CF6  CB                 [01] (-53)
7CF7  03                 [02] (-53)
7CF8  00                 [03] (-53)
7CF9  00                 [04] (-52)
7CFA  CB                 [05] (-49)
7CFB  03                 [06] (-49)
7CFC  00                 [07] (-49)
7CFD  00                 [08] (-48)
7CFE  CB                 [09] (-48)
7CFF  03                 [10] (-48)
7D00  00                 [11] (-48)
7D01  00                 [12] (-48)
7D02  CC                 [13] (-48)
7D03  03                 [14] (-48)
7D04  00                 [15] (-48)
7D05  00                 [16] (-47)
7D06  CF                 [17] (-47)
7D07  03                 [18] (-47)
7D08  00                 [19] (-47)
7D09  00                 [20] (-47)
7D0A  CF                 [21] (-47)
7D0B  03                 [22] (-47)
7D0C  00                 [23] (-47)
7D0D  00                 [24] (-47)
7D0E  CF                 [25] (-47)
7D0F  03                 [26] (-47)
7D10  00                 [27] (-46)
7D11  00                 [28] (-46)
7D12  D0                 [29] (-46)
7D13  03                 [30] (-44)
7D14  00                 [31] (-44)
7D15  00                 [32] (-44)
7D16  D0                 [33] (-44)
7D17  03                 [34] (-44)
7D18  00                 [35] (-44)
7D19  00                 [36] (-44)
7D1A  D0                 [37] (-43)
                         * locals:
7D8A  00                 sizelocvars (0)
                         * upvalues:
7D8B  00                 sizeupvalues (0)
                         ** end of function **

                         
7D8C                     ** function [6] definition (level 3)
                         ** start of function **
7D8C  00                 string size (0)
                         source name: (none)
7D8E  07                 line defined (984)
7D8F  DA                 last line defined (986)
7D90  07                 nups (0)
7D91  00                 numparams (2)
7D92  02                 is_vararg (0)
7D93  00                 maxstacksize (4)
                         * code:
7D95  08                 sizecode (8)
7D96  8E004000           [1] gettable   2   0   256  ; "Name"
7D9A  CE00C000           [2] gettable   3   1   256  ; "Name"
fail op	21
7D9E  55C00001           [3] concat     1   2   3  
7DA2  1A000080           [4] jmp        1            ; to [6]
7DA6  97400000           [5] loadbool   2   0   1    ; false, to [7]
7DAA  97008000           [6] loadbool   2   1   0    ; true
7DAE  9E000001           [7] return     2   2      
7DB2  1E008000           [8] return     0   1      
                         * constants:
7DB6  01                 sizek (1)
7DB7  04                 const type 4
7DB8  05                 string size (5)
7DB9  4E616D6500         "Name\0"
                         const [0]: "Name"
                         * functions:
7DBE  00                 sizep (0)
                         * lines:
7DBF  08                 sizelineinfo (8)
                         [pc] (line)
7DC0  D9                 [1] (-39)
7DC1  03                 [2] (-39)
7DC2  00                 [3] (-39)
7DC3  00                 [4] (-39)
7DC4  D9                 [5] (-39)
7DC5  03                 [6] (-39)
7DC6  00                 [7] (-39)
7DC7  00                 [8] (-38)
                         * locals:
7DE0  00                 sizelocvars (0)
                         * upvalues:
7DE1  00                 sizeupvalues (0)
                         ** end of function **

                         
7DE2                     ** function [7] definition (level 3)
                         ** start of function **
7DE2  00                 string size (0)
                         source name: (none)
7DE4  07                 line defined (989)
7DE5  DF                 last line defined (991)
7DE6  07                 nups (0)
7DE7  00                 numparams (2)
7DE8  02                 is_vararg (0)
7DE9  00                 maxstacksize (4)
                         * code:
7DEB  08                 sizecode (8)
7DEC  8E004000           [1] gettable   2   0   256  ; "FusionPointValue"
7DF0  CE00C000           [2] gettable   3   1   256  ; "FusionPointValue"
fail op	21
7DF4  55808001           [3] concat     1   3   2  
7DF8  1A000080           [4] jmp        1            ; to [6]
7DFC  97400000           [5] loadbool   2   0   1    ; false, to [7]
7E00  97008000           [6] loadbool   2   1   0    ; true
7E04  9E000001           [7] return     2   2      
7E08  1E008000           [8] return     0   1      
                         * constants:
7E0C  01                 sizek (1)
7E0D  04                 const type 4
7E0E  11                 string size (17)
7E0F  467573696F6E506F+  "FusionPo"
7E17  696E7456616C7565+  "intValue"
7E1F  00                 "\0"
                         const [0]: "FusionPointValue"
                         * functions:
7E20  00                 sizep (0)
                         * lines:
7E21  08                 sizelineinfo (8)
                         [pc] (line)
7E22  DE                 [1] (-34)
7E23  03                 [2] (-34)
7E24  00                 [3] (-34)
7E25  00                 [4] (-34)
7E26  DE                 [5] (-34)
7E27  03                 [6] (-34)
7E28  00                 [7] (-34)
7E29  00                 [8] (-33)
                         * locals:
7E42  00                 sizelocvars (0)
                         * upvalues:
7E43  00                 sizeupvalues (0)
                         ** end of function **

                         
7E44                     ** function [8] definition (level 3)
                         ** start of function **
7E44  00                 string size (0)
                         source name: (none)
7E46  07                 line defined (993)
7E47  F5                 last line defined (1013)
7E48  07                 nups (1)
7E49  01                 numparams (2)
7E4A  02                 is_vararg (0)
7E4B  00                 maxstacksize (7)
                         * code:
7E4D  68                 sizecode (104)
7E4E  8E004000           [001] gettable   2   0   256  ; "Sockets"
fail op	35
7E52  23404001           [002] close      0  
7E56  1A800280           [003] jmp        11           ; to [15]
7E5A  8E00C000           [004] gettable   2   1   256  ; "Sockets"
fail op	35
7E5E  23404001           [005] close      0  
7E62  1AC00180           [006] jmp        8            ; to [15]
7E66  8E804000           [007] gettable   2   0   258  ; "Name"
7E6A  CE80C000           [008] gettable   3   1   258  ; "Name"
fail op	21
7E6E  55C00001           [009] concat     1   2   3  
7E72  1A000080           [010] jmp        1            ; to [12]
7E76  97400000           [011] loadbool   2   0   1    ; false, to [13]
7E7A  97008000           [012] loadbool   2   1   0    ; true
7E7E  9E000001           [013] return     2   2      
7E82  1A001680           [014] jmp        89           ; to [104]
7E86  8E004000           [015] gettable   2   0   256  ; "Sockets"
fail op	35
7E8A  63404001           [016] close      1  
7E8E  1A800080           [017] jmp        3            ; to [21]
7E92  8E00C000           [018] gettable   2   1   256  ; "Sockets"
fail op	35
7E96  23404001           [019] close      0  
7E9A  1A800180           [020] jmp        7            ; to [28]
7E9E  8E00C000           [021] gettable   2   1   256  ; "Sockets"
fail op	35
7EA2  63404001           [022] close      1  
7EA6  1A000080           [023] jmp        1            ; to [25]
7EAA  97400000           [024] loadbool   2   0   1    ; false, to [26]
7EAE  97008000           [025] loadbool   2   1   0    ; true
7EB2  9E000001           [026] return     2   2      
7EB6  1AC01280           [027] jmp        76           ; to [104]
7EBA  9DC00000           [028] getglobal  2   3        ; 1074689893
7EBE  CE004100           [029] gettable   3   0   260  ; "MatchedSockets"
7EC2  A2800001           [030] call       2   2   2  
7EC6  98000000           [031] test       2       0    ; to [33] if true
7ECA  1A000380           [032] jmp        13           ; to [46]
7ECE  9DC00000           [033] getglobal  2   3        ; 1074689893
7ED2  CE00C100           [034] gettable   3   1   260  ; "MatchedSockets"
7ED6  A2800001           [035] call       2   2   2  
7EDA  98000000           [036] test       2       0    ; to [38] if true
7EDE  1AC00180           [037] jmp        8            ; to [46]
7EE2  8E804000           [038] gettable   2   0   258  ; "Name"
7EE6  CE80C000           [039] gettable   3   1   258  ; "Name"
fail op	21
7EEA  55C00001           [040] concat     1   2   3  
7EEE  1A000080           [041] jmp        1            ; to [43]
7EF2  97400000           [042] loadbool   2   0   1    ; false, to [44]
7EF6  97008000           [043] loadbool   2   1   0    ; true
7EFA  9E000001           [044] return     2   2      
7EFE  1A400E80           [045] jmp        58           ; to [104]
7F02  9DC00000           [046] getglobal  2   3        ; 1074689893
7F06  CE004100           [047] gettable   3   0   260  ; "MatchedSockets"
7F0A  A2800001           [048] call       2   2   2  
7F0E  98400000           [049] test       2       1    ; to [51] if false
7F12  1A000180           [050] jmp        5            ; to [56]
7F16  9DC00000           [051] getglobal  2   3        ; 1074689893
7F1A  CE00C100           [052] gettable   3   1   260  ; "MatchedSockets"
7F1E  A2800001           [053] call       2   2   2  
7F22  98000000           [054] test       2       0    ; to [56] if true
7F26  1A000180           [055] jmp        5            ; to [61]
7F2A  9DC00000           [056] getglobal  2   3        ; 1074689893
7F2E  CE00C100           [057] gettable   3   1   260  ; "MatchedSockets"
7F32  87000001           [058] tailcall   2   2   0  
7F36  9E000000           [059] return     2   0      
7F3A  1A800A80           [060] jmp        43           ; to [104]
7F3E  93000000           [061] getupval   2   0      
7F42  8E404101           [062] gettable   2   2   261  ; -132701534
7F46  CE004000           [063] gettable   3   0   256  ; "Sockets"
7F4A  CA008001           [064] len        3   3      
fail op	21
7F4E  55C00083           [065] concat     1   262 3  
7F52  1A000080           [066] jmp        1            ; to [68]
7F56  D7400000           [067] loadbool   3   0   1    ; false, to [69]
7F5A  D7008000           [068] loadbool   3   1   0    ; true
7F5E  0E014100           [069] gettable   4   0   260  ; "MatchedSockets"
7F62  4E014000           [070] gettable   5   0   256  ; "Sockets"
7F66  4A018002           [071] len        5   5      
7F6A  1C410102           [072] div        4   4   5  
7F6E  59C10100           [073] loadk      5   7        ; 0
7F72  A2800002           [074] call       2   4   2  
7F76  D3000000           [075] getupval   3   0      
7F7A  CE40C101           [076] gettable   3   3   261  ; -132701534
7F7E  0E01C000           [077] gettable   4   1   256  ; "Sockets"
7F82  0A010002           [078] len        4   4      
fail op	21
7F86  55000183           [079] concat     1   262 4  
7F8A  1A000080           [080] jmp        1            ; to [82]
7F8E  17410000           [081] loadbool   4   0   1    ; false, to [83]
7F92  17018000           [082] loadbool   4   1   0    ; true
7F96  4E01C100           [083] gettable   5   1   260  ; "MatchedSockets"
7F9A  8E01C000           [084] gettable   6   1   256  ; "Sockets"
7F9E  8A010003           [085] len        6   6      
7FA2  5C818102           [086] div        5   5   6  
7FA6  99C10100           [087] loadk      6   7        ; 0
7FAA  E2800002           [088] call       3   4   2  
fail op	35
7FAE  23C00001           [089] close      0  
7FB2  1AC00180           [090] jmp        8            ; to [99]
7FB6  0E814000           [091] gettable   4   0   258  ; "Name"
7FBA  4E81C000           [092] gettable   5   1   258  ; "Name"
fail op	21
7FBE  55400102           [093] concat     1   4   5  
7FC2  1A000080           [094] jmp        1            ; to [96]
7FC6  17410000           [095] loadbool   4   0   1    ; false, to [97]
7FCA  17018000           [096] loadbool   4   1   0    ; true
7FCE  1E010001           [097] return     4   2      
7FD2  1A000180           [098] jmp        5            ; to [104]
fail op	21
7FD6  55808001           [099] concat     1   3   2  
7FDA  1A000080           [100] jmp        1            ; to [102]
7FDE  17410000           [101] loadbool   4   0   1    ; false, to [103]
7FE2  17018000           [102] loadbool   4   1   0    ; true
7FE6  1E010001           [103] return     4   2      
7FEA  1E008000           [104] return     0   1      
                         * constants:
7FEE  08                 sizek (8)
7FEF  04                 const type 4
7FF0  08                 string size (8)
7FF1  536F636B65747300   "Sockets\0"
                         const [0]: "Sockets"
7FF9  00                 const type 0
                         const [1]: nil
7FFA  04                 const type 4
7FFB  05                 string size (5)
7FFC  4E616D6500         "Name\0"
                         const [2]: "Name"
8001  01                 const type 3
8002  65770E40           const [3]: (1074689893)
8006  04                 const type 4
8007  0F                 string size (15)
8008  4D61746368656453+  "MatchedS"
8010  6F636B65747300     "ockets\0"
                         const [4]: "MatchedSockets"
8017  01                 const type 3
8018  A22217F8           const [5]: (-132701534)
801C  03                 const type 3
801D  00000000           const [6]: (0)
8021  03                 const type 3
8022  0000803F           const [7]: (0)
                         * functions:
8026  00                 sizep (0)
                         * lines:
8027  68                 sizelineinfo (104)
                         [pc] (line)
8028  E2                 [001] (-30)
8029  03                 [002] (-30)
802A  00                 [003] (-30)
802B  00                 [004] (-30)
802C  E2                 [005] (-30)
802D  03                 [006] (-30)
802E  00                 [007] (-29)
802F  00                 [008] (-29)
8030  E2                 [009] (-29)
8031  03                 [010] (-29)
8032  00                 [011] (-29)
8033  00                 [012] (-29)
8034  E2                 [013] (-29)
8035  03                 [014] (-29)
8036  00                 [015] (-28)
8037  00                 [016] (-28)
8038  E2                 [017] (-28)
8039  03                 [018] (-28)
803A  00                 [019] (-28)
803B  00                 [020] (-28)
803C  E2                 [021] (-27)
803D  03                 [022] (-27)
803E  00                 [023] (-27)
803F  00                 [024] (-27)
8040  E3                 [025] (-27)
8041  03                 [026] (-27)
8042  00                 [027] (-27)
8043  00                 [028] (-25)
8044  E3                 [029] (-25)
8045  03                 [030] (-25)
8046  00                 [031] (-25)
8047  00                 [032] (-25)
8048  E3                 [033] (-25)
8049  03                 [034] (-25)
804A  00                 [035] (-25)
804B  00                 [036] (-25)
804C  E3                 [037] (-25)
804D  03                 [038] (-24)
804E  00                 [039] (-24)
804F  00                 [040] (-24)
8050  E3                 [041] (-24)
8051  03                 [042] (-24)
8052  00                 [043] (-24)
8053  00                 [044] (-24)
8054  E3                 [045] (-24)
8055  03                 [046] (-23)
8056  00                 [047] (-23)
8057  00                 [048] (-23)
8058  E3                 [049] (-23)
8059  03                 [050] (-23)
805A  00                 [051] (-23)
805B  00                 [052] (-23)
805C  E3                 [053] (-23)
805D  03                 [054] (-23)
805E  00                 [055] (-23)
805F  00                 [056] (-22)
8060  E4                 [057] (-22)
8061  03                 [058] (-22)
8062  00                 [059] (-22)
8063  00                 [060] (-22)
8064  E4                 [061] (-20)
8065  03                 [062] (-20)
8066  00                 [063] (-20)
8067  00                 [064] (-20)
8068  E4                 [065] (-20)
8069  03                 [066] (-20)
806A  00                 [067] (-20)
806B  00                 [068] (-20)
806C  E4                 [069] (-20)
806D  03                 [070] (-20)
806E  00                 [071] (-20)
806F  00                 [072] (-20)
8070  E4                 [073] (-20)
8071  03                 [074] (-20)
8072  00                 [075] (-19)
8073  00                 [076] (-19)
8074  E4                 [077] (-19)
8075  03                 [078] (-19)
8076  00                 [079] (-19)
8077  00                 [080] (-19)
8078  E5                 [081] (-19)
8079  03                 [082] (-19)
807A  00                 [083] (-19)
807B  00                 [084] (-19)
807C  E5                 [085] (-19)
807D  03                 [086] (-19)
807E  00                 [087] (-19)
807F  00                 [088] (-19)
8080  E5                 [089] (-18)
8081  03                 [090] (-18)
8082  00                 [091] (-17)
8083  00                 [092] (-17)
8084  E5                 [093] (-17)
8085  03                 [094] (-17)
8086  00                 [095] (-17)
8087  00                 [096] (-17)
8088  E5                 [097] (-17)
8089  03                 [098] (-17)
808A  00                 [099] (-15)
808B  00                 [100] (-15)
808C  E5                 [101] (-15)
808D  03                 [102] (-15)
808E  00                 [103] (-15)
808F  00                 [104] (-11)
                         * locals:
81C8  00                 sizelocvars (0)
                         * upvalues:
81C9  00                 sizeupvalues (0)
                         ** end of function **

                         * lines:
81CB  01                 sizelineinfo (222)
                         [pc] (line)
81CC  7B                 [001] (123)
81CD  03                 [002] (123)
81CE  00                 [003] (123)
81CF  00                 [004] (124)
81D0  7B                 [005] (124)
81D1  03                 [006] (124)
81D2  00                 [007] (124)
81D3  00                 [008] (124)
81D4  7B                 [009] (124)
81D5  03                 [010] (124)
81D6  00                 [011] (124)
81D7  00                 [012] (124)
81D8  7C                 [013] (125)
81D9  03                 [014] (125)
81DA  00                 [015] (125)
81DB  00                 [016] (125)
81DC  7C                 [017] (125)
81DD  03                 [018] (125)
81DE  00                 [019] (126)
81DF  00                 [020] (126)
81E0  7C                 [021] (126)
81E1  03                 [022] (126)
81E2  00                 [023] (126)
81E3  00                 [024] (127)
81E4  7C                 [025] (127)
81E5  03                 [026] (-128)
81E6  00                 [027] (-128)
81E7  00                 [028] (-127)
81E8  7C                 [029] (-127)
81E9  03                 [030] (-126)
81EA  00                 [031] (-126)
81EB  00                 [032] (-125)
81EC  7C                 [033] (-125)
81ED  03                 [034] (-124)
81EE  00                 [035] (-124)
81EF  00                 [036] (-124)
81F0  7C                 [037] (-124)
81F1  03                 [038] (-124)
81F2  00                 [039] (-123)
81F3  00                 [040] (-123)
81F4  7C                 [041] (-122)
81F5  03                 [042] (-122)
81F6  00                 [043] (-121)
81F7  00                 [044] (-121)
81F8  7C                 [045] (-120)
81F9  03                 [046] (-120)
81FA  00                 [047] (-119)
81FB  00                 [048] (-119)
81FC  7D                 [049] (-118)
81FD  03                 [050] (-118)
81FE  00                 [051] (-118)
81FF  00                 [052] (-118)
8200  7D                 [053] (-118)
8201  03                 [054] (-117)
8202  00                 [055] (-117)
8203  00                 [056] (-117)
8204  7D                 [057] (-117)
8205  03                 [058] (-117)
8206  00                 [059] (-116)
8207  00                 [060] (-116)
8208  7D                 [061] (-115)
8209  03                 [062] (-115)
820A  00                 [063] (-114)
820B  00                 [064] (-114)
820C  7D                 [065] (-113)
820D  03                 [066] (-113)
820E  00                 [067] (-113)
820F  00                 [068] (-112)
8210  7D                 [069] (-112)
8211  03                 [070] (-111)
8212  00                 [071] (-111)
8213  00                 [072] (-111)
8214  7E                 [073] (-111)
8215  03                 [074] (-111)
8216  00                 [075] (-111)
8217  00                 [076] (-111)
8218  7E                 [077] (-111)
8219  03                 [078] (-110)
821A  00                 [079] (-110)
821B  00                 [080] (-110)
821C  7E                 [081] (-110)
821D  03                 [082] (-110)
821E  00                 [083] (-110)
821F  00                 [084] (-109)
8220  7E                 [085] (-109)
8221  03                 [086] (-109)
8222  00                 [087] (-108)
8223  00                 [088] (-108)
8224  7E                 [089] (-108)
8225  03                 [090] (-107)
8226  00                 [091] (-107)
8227  00                 [092] (-107)
8228  7F                 [093] (-106)
8229  03                 [094] (-103)
822A  00                 [095] (-103)
822B  00                 [096] (-103)
822C  7F                 [097] (-103)
822D  03                 [098] (-102)
822E  00                 [099] (-92)
822F  00                 [100] (-92)
8230  80                 [101] (-92)
8231  03                 [102] (-92)
8232  00                 [103] (-91)
8233  00                 [104] (-84)
8234  80                 [105] (-84)
8235  03                 [106] (-84)
8236  00                 [107] (-83)
8237  00                 [108] (-76)
8238  81                 [109] (-76)
8239  03                 [110] (-76)
823A  00                 [111] (-75)
823B  00                 [112] (-56)
823C  81                 [113] (-56)
823D  03                 [114] (-56)
823E  00                 [115] (-56)
823F  00                 [116] (-56)
8240  82                 [117] (-55)
8241  03                 [118] (-43)
8242  00                 [119] (-43)
8243  00                 [120] (-43)
8244  82                 [121] (-43)
8245  03                 [122] (-41)
8246  00                 [123] (-41)
8247  00                 [124] (-41)
8248  83                 [125] (-41)
8249  03                 [126] (-41)
824A  00                 [127] (-41)
824B  00                 [128] (-41)
824C  83                 [129] (-41)
824D  03                 [130] (-41)
824E  00                 [131] (-41)
824F  00                 [132] (-38)
8250  84                 [133] (-38)
8251  03                 [134] (-41)
8252  00                 [135] (-36)
8253  00                 [136] (-36)
8254  84                 [137] (-36)
8255  03                 [138] (-36)
8256  00                 [139] (-36)
8257  00                 [140] (-36)
8258  84                 [141] (-36)
8259  03                 [142] (-36)
825A  00                 [143] (-36)
825B  00                 [144] (-36)
825C  84                 [145] (-33)
825D  03                 [146] (-33)
825E  00                 [147] (-36)
825F  00                 [148] (-32)
8260  84                 [149] (-32)
8261  03                 [150] (-32)
8262  00                 [151] (-32)
8263  00                 [152] (-32)
8264  85                 [153] (-32)
8265  03                 [154] (-32)
8266  00                 [155] (-32)
8267  00                 [156] (-32)
8268  85                 [157] (-32)
8269  03                 [158] (-11)
826A  00                 [159] (-11)
826B  00                 [160] (-11)
826C  86                 [161] (-32)
826D  03                 [162] (-9)
826E  00                 [163] (-9)
826F  00                 [164] (-9)
8270  86                 [165] (-9)
8271  03                 [166] (-7)
8272  00                 [167] (-7)
8273  00                 [168] (-7)
8274  87                 [169] (-7)
8275  03                 [170] (-7)
8276  00                 [171] (-7)
8277  00                 [172] (-7)
8278  87                 [173] (-7)
8279  03                 [174] (-7)
827A  00                 [175] (-7)
827B  00                 [176] (-7)
827C  88                 [177] (-7)
827D  03                 [178] (-7)
827E  00                 [179] (-7)
827F  00                 [180] (-7)
8280  88                 [181] (-7)
8281  03                 [182] (-7)
8282  00                 [183] (-6)
8283  00                 [184] (-6)
8284  89                 [185] (-6)
8285  03                 [186] (-6)
8286  00                 [187] (-6)
8287  00                 [188] (-6)
8288  89                 [189] (-6)
8289  03                 [190] (-6)
828A  00                 [191] (-6)
828B  00                 [192] (-6)
828C  8A                 [193] (-6)
828D  03                 [194] (-6)
828E  00                 [195] (-6)
828F  00                 [196] (-6)
8290  8A                 [197] (-6)
8291  03                 [198] (-6)
8292  00                 [199] (-6)
8293  00                 [200] (-5)
8294  8A                 [201] (-5)
8295  03                 [202] (-5)
8296  00                 [203] (-5)
8297  00                 [204] (-5)
8298  8A                 [205] (-5)
8299  03                 [206] (-5)
829A  00                 [207] (-5)
829B  00                 [208] (-5)
829C  8A                 [209] (-5)
829D  03                 [210] (-5)
829E  00                 [211] (-5)
829F  00                 [212] (-5)
82A0  8B                 [213] (-5)
82A1  03                 [214] (-5)
82A2  00                 [215] (-5)
82A3  00                 [216] (-4)
82A4  8B                 [217] (-4)
82A5  03                 [218] (-4)
82A6  00                 [219] (-4)
82A7  00                 [220] (-2)
82A8  8B                 [221] (-2)
82A9  03                 [222] (-1)
                         * locals:
8544  00                 sizelocvars (0)
                         * upvalues:
8545  00                 sizeupvalues (0)
                         ** end of function **

                         
8546                     ** function [24] definition (level 2)
                         ** start of function **
8546  00                 string size (0)
                         source name: (none)
8548  08                 line defined (1025)
8549  93                 last line defined (1043)
854A  08                 nups (2)
854B  02                 numparams (2)
854C  02                 is_vararg (0)
854D  00                 maxstacksize (10)
                         * code:
854F  51                 sizecode (81)
8550  9D000000           [01] getglobal  2   0        ; 1074689893
8554  D3000000           [02] getupval   3   0      
8558  A2800001           [03] call       2   2   2  
855C  98000000           [04] test       2       0    ; to [6] if true
8560  1A000080           [05] jmp        1            ; to [7]
8564  1E008000           [06] return     0   1      
8568  93000000           [07] getupval   2   0      
856C  8E404001           [08] gettable   2   2   257  ; "mRowSeparation"
8570  D3000000           [09] getupval   3   0      
8574  CE80C001           [10] gettable   3   3   258  ; "mRows"
8578  84C00001           [11] mul        2   2   3  
857C  D3000000           [12] getupval   3   0      
8580  CEC0C001           [13] gettable   3   3   259  ; "ElementDimBuffer"
8584  8DC00001           [14] sub        2   2   3  
8588  DD000100           [15] getglobal  3   4        ; -174740002
858C  1D410100           [16] getglobal  4   5        ; mMovie
8590  24814102           [17] self       4   4   262  ; 1803241227
8594  99C10100           [18] loadk      6   7        ; "TreasuresList"
8598  D9010200           [19] loadk      7   8        ; "_y"
859C  22010002           [20] call       4   4   0  
85A0  E2800000           [21] call       3   0   2  
85A4  13018000           [22] getupval   4   1      
85A8  0E414202           [23] gettable   4   4   265  ; 1704170870
85AC  5D410100           [24] getglobal  5   5        ; mMovie
85B0  9C814201           [25] div        6   2   266  ; 0
85B4  83818101           [26] add        6   3   6  
85B8  22818001           [27] call       4   3   2  
85BC  53018000           [28] getupval   5   1      
85C0  4EC1C202           [29] gettable   5   5   267  ; -1736116097
85C4  9D410100           [30] getglobal  6   5        ; mMovie
85C8  D2010001           [31] move       7   2      
85CC  62818001           [32] call       5   3   2  
85D0  9D010300           [33] getglobal  6   12       ; gridVisRange
85D4  A4414303           [34] self       6   6   269  ; -1795477990
85D8  1D820300           [35] getglobal  8   14       ; Lotus_Game
85DC  0EC24304           [36] gettable   8   8   271  ; "VISIBILITY_CENTER"
85E0  52020002           [37] move       9   4      
85E4  A2410002           [38] call       6   4   1  
85E8  9D010300           [39] getglobal  6   12       ; gridVisRange
85EC  A4414303           [40] self       6   6   269  ; -1795477990
85F0  1D820300           [41] getglobal  8   14       ; Lotus_Game
85F4  0E024404           [42] gettable   8   8   272  ; "VISIBILITY_SIZE"
85F8  52028002           [43] move       9   5      
85FC  A2410002           [44] call       6   4   1  
8600  9D010300           [45] getglobal  6   12       ; gridVisRange
8604  A4414303           [46] self       6   6   269  ; -1795477990
8608  1D820300           [47] getglobal  8   14       ; Lotus_Game
860C  0E424404           [48] gettable   8   8   273  ; "VISIBILITY_FADE_SIZE"
8610  59820400           [49] loadk      9   18       ; 10
8614  A2410002           [50] call       6   4   1  
8618  9DC10400           [51] getglobal  6   19       ; gridVisRangeText
861C  A4414303           [52] self       6   6   269  ; -1795477990
8620  1D820300           [53] getglobal  8   14       ; Lotus_Game
8624  0EC24304           [54] gettable   8   8   271  ; "VISIBILITY_CENTER"
8628  52020002           [55] move       9   4      
862C  A2410002           [56] call       6   4   1  
8630  9DC10400           [57] getglobal  6   19       ; gridVisRangeText
8634  A4414303           [58] self       6   6   269  ; -1795477990
8638  1D820300           [59] getglobal  8   14       ; Lotus_Game
863C  0E024404           [60] gettable   8   8   272  ; "VISIBILITY_SIZE"
8640  52028002           [61] move       9   5      
8644  A2410002           [62] call       6   4   1  
8648  9DC10400           [63] getglobal  6   19       ; gridVisRangeText
864C  A4414303           [64] self       6   6   269  ; -1795477990
8650  1D820300           [65] getglobal  8   14       ; Lotus_Game
8654  0E424404           [66] gettable   8   8   273  ; "VISIBILITY_FADE_SIZE"
8658  59820400           [67] loadk      9   18       ; 10
865C  A2410002           [68] call       6   4   1  
8660  9D010500           [69] getglobal  6   20       ; gridVisRangeRectangle
8664  A4414303           [70] self       6   6   269  ; -1795477990
8668  1D820300           [71] getglobal  8   14       ; Lotus_Game
866C  0EC24304           [72] gettable   8   8   271  ; "VISIBILITY_CENTER"
8670  52020002           [73] move       9   4      
8674  A2410002           [74] call       6   4   1  
8678  9D010500           [75] getglobal  6   20       ; gridVisRangeRectangle
867C  A4414303           [76] self       6   6   269  ; -1795477990
8680  1D820300           [77] getglobal  8   14       ; Lotus_Game
8684  0E024404           [78] gettable   8   8   272  ; "VISIBILITY_SIZE"
8688  52028002           [79] move       9   5      
868C  A2410002           [80] call       6   4   1  
8690  1E008000           [81] return     0   1      
                         * constants:
8694  15                 sizek (21)
8695  01                 const type 3
8696  65770E40           const [0]: (1074689893)
869A  04                 const type 4
869B  0F                 string size (15)
869C  6D526F7753657061+  "mRowSepa"
86A4  726174696F6E00     "ration\0"
                         const [1]: "mRowSeparation"
86AB  04                 const type 4
86AC  06                 string size (6)
86AD  6D526F777300       "mRows\0"
                         const [2]: "mRows"
86B3  04                 const type 4
86B4  11                 string size (17)
86B5  456C656D656E7444+  "ElementD"
86BD  696D427566666572+  "imBuffer"
86C5  00                 "\0"
                         const [3]: "ElementDimBuffer"
86C6  01                 const type 3
86C7  DEAD95F5           const [4]: (-174740002)
86CB  04                 const type 4
86CC  07                 string size (7)
86CD  6D4D6F76696500     "mMovie\0"
                         const [5]: "mMovie"
86D4  01                 const type 3
86D5  0B477B6B           const [6]: (1803241227)
86D9  04                 const type 4
86DA  0E                 string size (14)
86DB  5472656173757265+  "Treasure"
86E3  734C69737400       "sList\0"
                         const [7]: "TreasuresList"
86E9  04                 const type 4
86EA  03                 string size (3)
86EB  5F7900             "_y\0"
                         const [8]: "_y"
86EE  01                 const type 3
86EF  76959365           const [9]: (1704170870)
86F3  03                 const type 3
86F4  00000040           const [10]: (0)
86F8  01                 const type 3
86F9  7FF88498           const [11]: (-1736116097)
86FD  04                 const type 4
86FE  0D                 string size (13)
86FF  6772696456697352+  "gridVisR"
8707  616E676500         "ange\0"
                         const [12]: "gridVisRange"
870C  01                 const type 3
870D  1A2EFB94           const [13]: (-1795477990)
8711  04                 const type 4
8712  0B                 string size (11)
8713  4C6F7475735F4761+  "Lotus_Ga"
871B  6D6500             "me\0"
                         const [14]: "Lotus_Game"
871E  04                 const type 4
871F  12                 string size (18)
8720  5649534942494C49+  "VISIBILI"
8728  54595F43454E5445+  "TY_CENTE"
8730  5200               "R\0"
                         const [15]: "VISIBILITY_CENTER"
8732  04                 const type 4
8733  10                 string size (16)
8734  5649534942494C49+  "VISIBILI"
873C  54595F53495A4500   "TY_SIZE\0"
                         const [16]: "VISIBILITY_SIZE"
8744  04                 const type 4
8745  15                 string size (21)
8746  5649534942494C49+  "VISIBILI"
874E  54595F464144455F+  "TY_FADE_"
8756  53495A4500         "SIZE\0"
                         const [17]: "VISIBILITY_FADE_SIZE"
875B  03                 const type 3
875C  0AD7A33B           const [18]: (10)
8760  04                 const type 4
8761  11                 string size (17)
8762  6772696456697352+  "gridVisR"
876A  616E676554657874+  "angeText"
8772  00                 "\0"
                         const [19]: "gridVisRangeText"
8773  04                 const type 4
8774  16                 string size (22)
8775  6772696456697352+  "gridVisR"
877D  616E676552656374+  "angeRect"
8785  616E676C6500       "angle\0"
                         const [20]: "gridVisRangeRectangle"
                         * functions:
878B  00                 sizep (0)
                         * lines:
878C  51                 sizelineinfo (81)
                         [pc] (line)
878D  02                 [01] (2)
878E  04                 [02] (2)
878F  00                 [03] (2)
8790  00                 [04] (2)
8791  02                 [05] (2)
8792  04                 [06] (3)
8793  00                 [07] (6)
8794  00                 [08] (6)
8795  02                 [09] (6)
8796  04                 [10] (6)
8797  00                 [11] (6)
8798  00                 [12] (6)
8799  02                 [13] (6)
879A  04                 [14] (6)
879B  00                 [15] (7)
879C  00                 [16] (7)
879D  02                 [17] (7)
879E  04                 [18] (7)
879F  00                 [19] (7)
87A0  00                 [20] (7)
87A1  03                 [21] (7)
87A2  04                 [22] (9)
87A3  00                 [23] (9)
87A4  00                 [24] (9)
87A5  06                 [25] (9)
87A6  04                 [26] (9)
87A7  00                 [27] (9)
87A8  00                 [28] (10)
87A9  06                 [29] (10)
87AA  04                 [30] (10)
87AB  00                 [31] (10)
87AC  00                 [32] (10)
87AD  06                 [33] (11)
87AE  04                 [34] (11)
87AF  00                 [35] (11)
87B0  00                 [36] (11)
87B1  06                 [37] (11)
87B2  04                 [38] (11)
87B3  00                 [39] (12)
87B4  00                 [40] (12)
87B5  06                 [41] (12)
87B6  04                 [42] (12)
87B7  00                 [43] (12)
87B8  00                 [44] (12)
87B9  06                 [45] (13)
87BA  04                 [46] (13)
87BB  00                 [47] (13)
87BC  00                 [48] (13)
87BD  06                 [49] (13)
87BE  04                 [50] (13)
87BF  00                 [51] (14)
87C0  00                 [52] (14)
87C1  06                 [53] (14)
87C2  04                 [54] (14)
87C3  00                 [55] (14)
87C4  00                 [56] (14)
87C5  07                 [57] (15)
87C6  04                 [58] (15)
87C7  00                 [59] (15)
87C8  00                 [60] (15)
87C9  07                 [61] (15)
87CA  04                 [62] (15)
87CB  00                 [63] (16)
87CC  00                 [64] (16)
87CD  07                 [65] (16)
87CE  04                 [66] (16)
87CF  00                 [67] (16)
87D0  00                 [68] (16)
87D1  07                 [69] (17)
87D2  04                 [70] (17)
87D3  00                 [71] (17)
87D4  00                 [72] (17)
87D5  07                 [73] (17)
87D6  04                 [74] (17)
87D7  00                 [75] (18)
87D8  00                 [76] (18)
87D9  07                 [77] (18)
87DA  04                 [78] (18)
87DB  00                 [79] (18)
87DC  00                 [80] (18)
87DD  07                 [81] (19)
                         * locals:
88D1  00                 sizelocvars (0)
                         * upvalues:
88D2  00                 sizeupvalues (0)
                         ** end of function **

                         
88D3                     ** function [25] definition (level 2)
                         ** start of function **
88D3  00                 string size (0)
                         source name: (none)
88D5  08                 line defined (1045)
88D6  81                 last line defined (1153)
88D7  09                 nups (15)
88D8  0F                 numparams (0)
88D9  00                 is_vararg (0)
88DA  00                 maxstacksize (24)
                         * code:
88DD  03                 sizecode (502)
88DE  13000000           [001] getupval   0   0      
88E2  53008000           [002] getupval   1   1      
88E6  4E40C000           [003] gettable   1   1   257  ; -576482948
88EA  9D800000           [004] getglobal  2   2        ; Lotus_Game
88EE  8EC04001           [005] gettable   2   2   259  ; "UIStyle_Background1"
88F2  D7008000           [006] loadbool   3   1   0    ; true
88F6  62808001           [007] call       1   3   2  
88FA  0C400080           [008] settable   0   256 1    ; "Background1"
88FE  13000000           [009] getupval   0   0      
8902  53008000           [010] getupval   1   1      
8906  4E40C000           [011] gettable   1   1   257  ; -576482948
890A  9D800000           [012] getglobal  2   2        ; Lotus_Game
890E  8E404101           [013] gettable   2   2   261  ; "UIStyle_FloatingContent"
8912  D7008000           [014] loadbool   3   1   0    ; true
8916  62808001           [015] call       1   3   2  
891A  0C400082           [016] settable   0   260 1    ; "FloatingContent"
891E  13000000           [017] getupval   0   0      
8922  53008000           [018] getupval   1   1      
8926  4E40C000           [019] gettable   1   1   257  ; -576482948
892A  9D800000           [020] getglobal  2   2        ; Lotus_Game
892E  8EC04101           [021] gettable   2   2   263  ; "UIStyle_Content"
8932  D7008000           [022] loadbool   3   1   0    ; true
8936  62808001           [023] call       1   3   2  
893A  0C400083           [024] settable   0   262 1    ; "Content"
893E  13000000           [025] getupval   0   0      
8942  53008000           [026] getupval   1   1      
8946  4E40C000           [027] gettable   1   1   257  ; -576482948
894A  9D800000           [028] getglobal  2   2        ; Lotus_Game
894E  8E404201           [029] gettable   2   2   265  ; "UIStyle_BackerHighlight"
8952  D7008000           [030] loadbool   3   1   0    ; true
8956  62808001           [031] call       1   3   2  
895A  0C400084           [032] settable   0   264 1    ; "BackerHighlight"
895E  1D800200           [033] getglobal  0   10       ; mMovie
8962  24C04200           [034] self       0   0   267  ; -266877948
8966  93000000           [035] getupval   2   0      
896A  8E004001           [036] gettable   2   2   256  ; "Background1"
896E  22408001           [037] call       0   3   1  
8972  1D800200           [038] getglobal  0   10       ; mMovie
8976  24004300           [039] self       0   0   268  ; 1800181858
897A  97008000           [040] loadbool   2   1   0    ; true
897E  22408001           [041] call       0   3   1  
8982  1D400300           [042] getglobal  0   13       ; 1074689893
8986  5D800300           [043] getglobal  1   14       ; gPlayerProfileMgr
898A  64C0C300           [044] self       1   1   271  ; 569342746
898E  D9000400           [045] loadk      3   16       ; 0
8992  62008001           [046] call       1   3   0  
8996  22800000           [047] call       0   0   2  
899A  18400000           [048] test       0       1    ; to [50] if false
899E  1A800180           [049] jmp        7            ; to [57]
89A2  1D800300           [050] getglobal  0   14       ; gPlayerProfileMgr
89A6  24C04300           [051] self       0   0   271  ; 569342746
89AA  99000400           [052] loadk      2   16       ; 0
89AE  22808001           [053] call       0   3   2  
89B2  24404400           [054] self       0   0   273  ; 1699680402
89B6  22800001           [055] call       0   2   2  
fail op	8
89BA  08000001           [056] setupval   0   2      
89BE  1D400300           [057] getglobal  0   13       ; 1074689893
89C2  5D800400           [058] getglobal  1   18       ; _T
89C6  4EC0C400           [059] gettable   1   1   275  ; "SetSquadOverlayTitle"
89CA  22800001           [060] call       0   2   2  
89CE  18400000           [061] test       0       1    ; to [63] if false
89D2  1AC00180           [062] jmp        8            ; to [71]
89D6  1D800400           [063] getglobal  0   18       ; _T
89DA  0E004500           [064] gettable   0   0   276  ; 1453523133
89DE  5D800200           [065] getglobal  1   10       ; mMovie
89E2  6440C500           [066] self       1   1   277  ; 98241492
89E6  D9800500           [067] loadk      3   22       ; "/Lotus/Language/Menu/FusionTreasuresMgr_Title"
89EA  17010000           [068] loadbool   4   0   0    ; false
89EE  62000002           [069] call       1   4   0  
89F2  22400000           [070] call       0   0   1  
89F6  1D400300           [071] getglobal  0   13       ; 1074689893
89FA  5D800400           [072] getglobal  1   18       ; _T
89FE  4EC0C500           [073] gettable   1   1   279  ; "ShowBackground"
8A02  22800001           [074] call       0   2   2  
8A06  18400000           [075] test       0       1    ; to [77] if false
8A0A  1A400180           [076] jmp        6            ; to [83]
8A0E  1D800400           [077] getglobal  0   18       ; _T
8A12  0E004600           [078] gettable   0   0   280  ; 398318646
8A16  59400600           [079] loadk      1   25       ; 0
8A1A  86008001           [080] loadnil    2   3      
8A1E  13018001           [081] getupval   4   3      
8A22  22408002           [082] call       0   5   1  
8A26  1D800600           [083] getglobal  0   26       ; gRegion
8A2A  24C04600           [084] self       0   0   283  ; 65205951
8A2E  22800001           [085] call       0   2   2  
8A32  5D400300           [086] getglobal  1   13       ; 1074689893
8A36  92000000           [087] move       2   0      
8A3A  62800001           [088] call       1   2   2  
8A3E  58400000           [089] test       1       1    ; to [91] if false
8A42  1A400380           [090] jmp        14           ; to [105]
8A46  64004700           [091] self       1   0   284  ; -1957065004
8A4A  DD400700           [092] getglobal  3   29       ; gLotusOperatorAvatarType
8A4E  62808001           [093] call       1   3   2  
8A52  58400000           [094] test       1       1    ; to [96] if false
8A56  1A000280           [095] jmp        9            ; to [105]
8A5A  64804700           [096] self       1   0   286  ; -246381481
8A5E  62800001           [097] call       1   2   2  
8A62  58000000           [098] test       1       0    ; to [100] if true
8A66  1A000180           [099] jmp        5            ; to [105]
8A6A  57008000           [100] loadbool   1   1   0    ; true
fail op	8
8A6E  48000002           [101] setupval   1   4      
8A72  64C04700           [102] self       1   0   287  ; 615408335
8A76  D7000000           [103] loadbool   3   0   0    ; false
8A7A  62408001           [104] call       1   3   1  
8A7E  5D400300           [105] getglobal  1   13       ; 1074689893
8A82  9D000800           [106] getglobal  2   32       ; defaultDiorama
8A86  62800001           [107] call       1   2   2  
8A8A  58400000           [108] test       1       1    ; to [110] if false
8A8E  1A400180           [109] jmp        6            ; to [116]
8A92  5D400800           [110] getglobal  1   33       ; gFlashMgr
8A96  6480C800           [111] self       1   1   290  ; 1381776681
8A9A  DD000800           [112] getglobal  3   32       ; defaultDiorama
8A9E  62408001           [113] call       1   3   1  
8AA2  57008000           [114] loadbool   1   1   0    ; true
fail op	8
8AA6  48008002           [115] setupval   1   5      
8AAA  5D800200           [116] getglobal  1   10       ; mMovie
8AAE  64C0C800           [117] self       1   1   291  ; 471456102
8AB2  D9000900           [118] loadk      3   36       ; "SelectHint.Label"
8AB6  19410900           [119] loadk      4   37       ; "textColor"
8ABA  53010000           [120] getupval   5   0      
8ABE  4E01C102           [121] gettable   5   5   260  ; "FloatingContent"
8AC2  62408002           [122] call       1   5   1  
8AC6  5D800200           [123] getglobal  1   10       ; mMovie
8ACA  6480C900           [124] self       1   1   294  ; 386043535
8ACE  D9C00900           [125] loadk      3   39       ; "SelectHint.Label.text"
8AD2  19010A00           [126] loadk      4   40       ; "/Lotus/Language/Menu/FusionTreasureMgr_SelectHint"
8AD6  62400002           [127] call       1   4   1  
8ADA  5D400A00           [128] getglobal  1   41       ; -174740002
8ADE  9D800200           [129] getglobal  2   10       ; mMovie
8AE2  A4804A01           [130] self       2   2   298  ; 1803241227
8AE6  19010900           [131] loadk      4   36       ; "SelectHint.Label"
8AEA  59C10A00           [132] loadk      5   43       ; "textWidth"
8AEE  A2000002           [133] call       2   4   0  
8AF2  62800000           [134] call       1   0   2  
8AF6  9D800200           [135] getglobal  2   10       ; mMovie
8AFA  A4C04801           [136] self       2   2   291  ; 471456102
8AFE  19010B00           [137] loadk      4   44       ; "SelectHint.Bg"
8B02  59410B00           [138] loadk      5   45       ; "_color"
8B06  93010000           [139] getupval   6   0      
8B0A  8E014003           [140] gettable   6   6   256  ; "Background1"
8B0E  A2408002           [141] call       2   5   1  
8B12  9D800200           [142] getglobal  2   10       ; mMovie
8B16  A4804B01           [143] self       2   2   302  ; 2115970775
8B1A  19010B00           [144] loadk      4   44       ; "SelectHint.Bg"
8B1E  5DC10B00           [145] getglobal  5   47       ; hintBackerMaterial
8B22  A2400002           [146] call       2   4   1  
8B26  9D800200           [147] getglobal  2   10       ; mMovie
8B2A  A4C04801           [148] self       2   2   291  ; 471456102
8B2E  19010B00           [149] loadk      4   44       ; "SelectHint.Bg"
8B32  59010C00           [150] loadk      5   48       ; "_width"
8B36  8341CC00           [151] add        6   1   305  ; 0
8B3A  A2408002           [152] call       2   5   1  
8B3E  9D800200           [153] getglobal  2   10       ; mMovie
8B42  A4C04801           [154] self       2   2   291  ; 471456102
8B46  19810C00           [155] loadk      4   50       ; "NoTreasuresHint"
8B4A  59410900           [156] loadk      5   37       ; "textColor"
8B4E  93010000           [157] getupval   6   0      
8B52  8E014103           [158] gettable   6   6   260  ; "FloatingContent"
8B56  A2408002           [159] call       2   5   1  
8B5A  9D800200           [160] getglobal  2   10       ; mMovie
8B5E  A4804901           [161] self       2   2   294  ; 386043535
8B62  19C10C00           [162] loadk      4   51       ; "NoTreasuresHint.text"
8B66  59010D00           [163] loadk      5   52       ; "/Lotus/Language/Menu/FusionTreasuresMgr_NoTreasuresHint"
8B6A  A2400002           [164] call       2   4   1  
8B6E  9D800200           [165] getglobal  2   10       ; mMovie
8B72  A4C04801           [166] self       2   2   291  ; 471456102
8B76  19410D00           [167] loadk      4   53       ; "TreasureInfo.RotateHint.Label"
8B7A  59410900           [168] loadk      5   37       ; "textColor"
8B7E  93010000           [169] getupval   6   0      
8B82  8E014103           [170] gettable   6   6   260  ; "FloatingContent"
8B86  A2408002           [171] call       2   5   1  
8B8A  9D800200           [172] getglobal  2   10       ; mMovie
8B8E  A4804901           [173] self       2   2   294  ; 386043535
8B92  19810D00           [174] loadk      4   54       ; "TreasureInfo.RotateHint.Label.text"
8B96  53010003           [175] getupval   5   6      
8B9A  4EC1CD02           [176] gettable   5   5   311  ; -132701534
8B9E  9D010E00           [177] getglobal  6   56       ; Engine
8BA2  8E414E03           [178] gettable   6   6   313  ; -1802437008
8BA6  A2818000           [179] call       6   1   2  
8BAA  D9810E00           [180] loadk      7   58       ; "/Lotus/Language/Menu/FusionTreasureMgr_RotateHintController"
8BAE  19C20E00           [181] loadk      8   59       ; "/Lotus/Language/Menu/FusionTreasureMgr_RotateHint"
8BB2  62010002           [182] call       5   4   0  
8BB6  A2400000           [183] call       2   0   1  
8BBA  9D800200           [184] getglobal  2   10       ; mMovie
8BBE  A4C04801           [185] self       2   2   291  ; 471456102
8BC2  19010F00           [186] loadk      4   60       ; "TreasureInfo.RotateHint.Bg"
8BC6  59410B00           [187] loadk      5   45       ; "_color"
8BCA  93010000           [188] getupval   6   0      
8BCE  8E014003           [189] gettable   6   6   256  ; "Background1"
8BD2  A2408002           [190] call       2   5   1  
8BD6  9D800200           [191] getglobal  2   10       ; mMovie
8BDA  A4804B01           [192] self       2   2   302  ; 2115970775
8BDE  19010F00           [193] loadk      4   60       ; "TreasureInfo.RotateHint.Bg"
8BE2  5DC10B00           [194] getglobal  5   47       ; hintBackerMaterial
8BE6  A2400002           [195] call       2   4   1  
8BEA  9D400A00           [196] getglobal  2   41       ; -174740002
8BEE  DD800200           [197] getglobal  3   10       ; mMovie
8BF2  E480CA01           [198] self       3   3   298  ; 1803241227
8BF6  59410D00           [199] loadk      5   53       ; "TreasureInfo.RotateHint.Label"
8BFA  99C10A00           [200] loadk      6   43       ; "textWidth"
8BFE  E2000002           [201] call       3   4   0  
8C02  A2800000           [202] call       2   0   2  
8C06  52000001           [203] move       1   2      
8C0A  9D800200           [204] getglobal  2   10       ; mMovie
8C0E  A4C04801           [205] self       2   2   291  ; 471456102
8C12  19010F00           [206] loadk      4   60       ; "TreasureInfo.RotateHint.Bg"
8C16  59010C00           [207] loadk      5   48       ; "_width"
8C1A  8341CC00           [208] add        6   1   305  ; 0
8C1E  A2408002           [209] call       2   5   1  
8C22  9D800200           [210] getglobal  2   10       ; mMovie
8C26  A4C04801           [211] self       2   2   291  ; 471456102
8C2A  19410F00           [212] loadk      4   61       ; "TreasureInfo.RotateHint"
8C2E  59810F00           [213] loadk      5   62       ; "_visible"
8C32  97010000           [214] loadbool   6   0   0    ; false
8C36  A2408002           [215] call       2   5   1  
8C3A  9D800200           [216] getglobal  2   10       ; mMovie
8C3E  A4C04801           [217] self       2   2   291  ; 471456102
8C42  19C10F00           [218] loadk      4   63       ; "TreasureInfo.Separator"
8C46  59410B00           [219] loadk      5   45       ; "_color"
8C4A  93010000           [220] getupval   6   0      
8C4E  8E014103           [221] gettable   6   6   260  ; "FloatingContent"
8C52  A2408002           [222] call       2   5   1  
8C56  9D800200           [223] getglobal  2   10       ; mMovie
8C5A  A4C04801           [224] self       2   2   291  ; 471456102
8C5E  19011000           [225] loadk      4   64       ; "TreasureInfo.Name"
8C62  59410900           [226] loadk      5   37       ; "textColor"
8C66  93010000           [227] getupval   6   0      
8C6A  8E014103           [228] gettable   6   6   260  ; "FloatingContent"
8C6E  A2408002           [229] call       2   5   1  
8C72  9D800200           [230] getglobal  2   10       ; mMovie
8C76  A4C04801           [231] self       2   2   291  ; 471456102
8C7A  19011000           [232] loadk      4   64       ; "TreasureInfo.Name"
8C7E  59411000           [233] loadk      5   65       ; "dropShadow_color"
8C82  93010000           [234] getupval   6   0      
8C86  8E014003           [235] gettable   6   6   256  ; "Background1"
8C8A  A2408002           [236] call       2   5   1  
8C8E  9D800200           [237] getglobal  2   10       ; mMovie
8C92  A4C04801           [238] self       2   2   291  ; 471456102
8C96  19811000           [239] loadk      4   66       ; "TreasureInfo.Desc"
8C9A  59410900           [240] loadk      5   37       ; "textColor"
8C9E  93010000           [241] getupval   6   0      
8CA2  8E814103           [242] gettable   6   6   262  ; "Content"
8CA6  A2408002           [243] call       2   5   1  
8CAA  9D800200           [244] getglobal  2   10       ; mMovie
8CAE  A4C04801           [245] self       2   2   291  ; 471456102
8CB2  19811000           [246] loadk      4   66       ; "TreasureInfo.Desc"
8CB6  59C11000           [247] loadk      5   67       ; "verticalAlignment"
8CBA  99011100           [248] loadk      6   68       ; "bottom"
8CBE  A2408002           [249] call       2   5   1  
8CC2  9D800200           [250] getglobal  2   10       ; mMovie
8CC6  A4C04801           [251] self       2   2   291  ; 471456102
8CCA  19C10F00           [252] loadk      4   63       ; "TreasureInfo.Separator"
8CCE  59810F00           [253] loadk      5   62       ; "_visible"
8CD2  97010000           [254] loadbool   6   0   0    ; false
8CD6  A2408002           [255] call       2   5   1  
8CDA  9D800200           [256] getglobal  2   10       ; mMovie
8CDE  A4C04801           [257] self       2   2   291  ; 471456102
8CE2  19811000           [258] loadk      4   66       ; "TreasureInfo.Desc"
8CE6  59810F00           [259] loadk      5   62       ; "_visible"
8CEA  97010000           [260] loadbool   6   0   0    ; false
8CEE  A2408002           [261] call       2   5   1  
8CF2  93000003           [262] getupval   2   6      
8CF6  8E405101           [263] gettable   2   2   325  ; -1749580735
8CFA  D3000000           [264] getupval   3   0      
8CFE  CE00C001           [265] gettable   3   3   256  ; "Background1"
8D02  A2800001           [266] call       2   2   2  
8D06  D3000003           [267] getupval   3   6      
8D0A  CE40D101           [268] gettable   3   3   325  ; -1749580735
8D0E  13010000           [269] getupval   4   0      
8D12  0E014202           [270] gettable   4   4   264  ; "BackerHighlight"
8D16  E2800001           [271] call       3   2   2  
8D1A  1D810200           [272] getglobal  4   10       ; mMovie
8D1E  24814B02           [273] self       4   4   302  ; 2115970775
8D22  99811100           [274] loadk      6   70       ; "TreasureInfo.Bg"
8D26  DDC11100           [275] getglobal  7   71       ; _G
8D2A  CE01D203           [276] gettable   7   7   328  ; "UIMaterial_RectangleNoDepth"
8D2E  22410002           [277] call       4   4   1  
8D32  1D810200           [278] getglobal  4   10       ; mMovie
8D36  24415202           [279] self       4   4   329  ; 808102703
8D3A  99811100           [280] loadk      6   70       ; "TreasureInfo.Bg"
8D3E  D9811200           [281] loadk      7   74       ; "RectInnerColor"
8D42  0EC25201           [282] gettable   8   2   331  ; "r"
8D46  4E025301           [283] gettable   9   2   332  ; "g"
8D4A  8E425301           [284] gettable   10  2   333  ; "b"
8D4E  D9821300           [285] loadk      11  78       ; 0
8D52  22410004           [286] call       4   8   1  
8D56  1D810200           [287] getglobal  4   10       ; mMovie
8D5A  24415202           [288] self       4   4   329  ; 808102703
8D5E  99811100           [289] loadk      6   70       ; "TreasureInfo.Bg"
8D62  D9C11300           [290] loadk      7   79       ; "RectEdgeColor"
8D66  0EC2D201           [291] gettable   8   3   331  ; "r"
8D6A  4E02D301           [292] gettable   9   3   332  ; "g"
8D6E  8E42D301           [293] gettable   10  3   333  ; "b"
8D72  D9021400           [294] loadk      11  80       ; -51
8D76  22410004           [295] call       4   8   1  
8D7A  1D810200           [296] getglobal  4   10       ; mMovie
8D7E  24C14802           [297] self       4   4   291  ; 471456102
8D82  99411400           [298] loadk      6   81       ; "TreasureInfo"
8D86  D9811400           [299] loadk      7   82       ; "_alpha"
8D8A  19020400           [300] loadk      8   16       ; 0
8D8E  22418002           [301] call       4   5   1  
8D92  0B010006           [302] newtable   4   12  0    ; array=12, hash=0
8D96  59C11400           [303] loadk      5   83       ; "Blurer"
8D9A  99011500           [304] loadk      6   84       ; "Bg"
8D9E  D9411500           [305] loadk      7   85       ; "Info.Separator"
8DA2  19821500           [306] loadk      8   86       ; "Icon"
8DA6  59C21500           [307] loadk      9   87       ; "Arrow"
8DAA  99021600           [308] loadk      10  88       ; "ArrowEdgeTop"
8DAE  D9421600           [309] loadk      11  89       ; "ArrowEdgeBottom"
8DB2  19831600           [310] loadk      12  90       ; "EdgeLeft"
8DB6  59C31600           [311] loadk      13  91       ; "EdgeTop"
8DBA  99031700           [312] loadk      14  92       ; "EdgeBottom"
8DBE  D9431700           [313] loadk      15  93       ; "EdgeRightTop"
8DC2  19841700           [314] loadk      16  94       ; "EdgeRightBottom"
8DC6  1B410006           [315] setlist    4   12  1    ; index 1 to 12
8DCA  59C11700           [316] loadk      5   95       ; 0
8DCE  8A010002           [317] len        6   4      
8DD2  D9C11700           [318] loadk      7   95       ; 0
8DD6  50C10180           [319] forprep    5   8        ; to [328]
8DDA  5D820200           [320] getglobal  9   10       ; mMovie
8DDE  6482CB04           [321] self       9   9   302  ; 2115970775
8DE2  D9021800           [322] loadk      11  96       ; "SocketInfo."
8DE6  0E030202           [323] gettable   12  4   8  
8DEA  C2028305           [324] concat     11  11  12 
8DEE  1DC31100           [325] getglobal  12  71       ; _G
8DF2  0E435806           [326] gettable   12  12  353  ; "UIMaterial_SmoothEdgeNoDepthTest"
8DF6  62420002           [327] call       9   4   1  
8DFA  5481FD7F           [328] forloop    5   -9       ; to [320] if loop
8DFE  4B028003           [329] newtable   9   7   0    ; array=7, hash=0
8E02  99C21600           [330] loadk      10  91       ; "EdgeTop"
8E06  D9021700           [331] loadk      11  92       ; "EdgeBottom"
8E0A  19831600           [332] loadk      12  90       ; "EdgeLeft"
8E0E  59431700           [333] loadk      13  93       ; "EdgeRightTop"
8E12  99831700           [334] loadk      14  94       ; "EdgeRightBottom"
8E16  D9031600           [335] loadk      15  88       ; "ArrowEdgeTop"
8E1A  19441600           [336] loadk      16  89       ; "ArrowEdgeBottom"
8E1E  5B428003           [337] setlist    9   7   1    ; index 1 to 7
8E22  9D821800           [338] getglobal  10  98       ; 248503575
8E26  D2028004           [339] move       11  9      
8E2A  A2020101           [340] call       10  2   4  
8E2E  1A800380           [341] jmp        15           ; to [357]
8E32  DD830200           [342] getglobal  15  10       ; mMovie
8E36  E4C3D807           [343] self       15  15  355  ; -2013161817
8E3A  59041900           [344] loadk      17  100      ; "SocketInfo"
8E3E  92040007           [345] move       18  14     
8E42  D9440B00           [346] loadk      19  45       ; "_color"
8E46  13050000           [347] getupval   20  0      
8E4A  0E05420A           [348] gettable   20  20  264  ; "BackerHighlight"
8E4E  E2430003           [349] call       15  6   1  
8E52  DD830200           [350] getglobal  15  10       ; mMovie
8E56  E4C3D807           [351] self       15  15  355  ; -2013161817
8E5A  59041900           [352] loadk      17  100      ; "SocketInfo"
8E5E  92040007           [353] move       18  14     
8E62  D9841400           [354] loadk      19  82       ; "_alpha"
8E66  19451900           [355] loadk      20  101      ; 0
8E6A  E2430003           [356] call       15  6   1  
8E6E  96820000           [357] tforloop   10      2    ; to [359] if exit
8E72  1A80FB7F           [358] jmp        -17          ; to [342]
8E76  DD830200           [359] getglobal  15  10       ; mMovie
8E7A  E4C3C807           [360] self       15  15  291  ; 471456102
8E7E  59841900           [361] loadk      17  102      ; "SocketInfo.Info.Owned"
8E82  99440900           [362] loadk      18  37       ; "textColor"
8E86  D3040000           [363] getupval   19  0      
8E8A  CE84C109           [364] gettable   19  19  262  ; "Content"
8E8E  E2438002           [365] call       15  5   1  
8E92  DD830200           [366] getglobal  15  10       ; mMovie
8E96  E4C3C807           [367] self       15  15  291  ; 471456102
8E9A  59C41900           [368] loadk      17  103      ; "SocketInfo.Info.Name"
8E9E  99440900           [369] loadk      18  37       ; "textColor"
8EA2  D3040000           [370] getupval   19  0      
8EA6  CE04C109           [371] gettable   19  19  260  ; "FloatingContent"
8EAA  E2438002           [372] call       15  5   1  
8EAE  DD830200           [373] getglobal  15  10       ; mMovie
8EB2  E4C3C807           [374] self       15  15  291  ; 471456102
8EB6  59041A00           [375] loadk      17  104      ; "SocketInfo.Bg"
8EBA  99440B00           [376] loadk      18  45       ; "_color"
8EBE  D3040000           [377] getupval   19  0      
8EC2  CE04C009           [378] gettable   19  19  256  ; "Background1"
8EC6  E2438002           [379] call       15  5   1  
8ECA  DD830200           [380] getglobal  15  10       ; mMovie
8ECE  E4C3C807           [381] self       15  15  291  ; 471456102
8ED2  59041A00           [382] loadk      17  104      ; "SocketInfo.Bg"
8ED6  99841400           [383] loadk      18  82       ; "_alpha"
8EDA  D9441A00           [384] loadk      19  105      ; 0
8EDE  E2438002           [385] call       15  5   1  
8EE2  DD830200           [386] getglobal  15  10       ; mMovie
8EE6  E4C3C807           [387] self       15  15  291  ; 471456102
8EEA  59841A00           [388] loadk      17  106      ; "SocketInfo.Arrow"
8EEE  99440B00           [389] loadk      18  45       ; "_color"
8EF2  D3040000           [390] getupval   19  0      
8EF6  CE04C009           [391] gettable   19  19  256  ; "Background1"
8EFA  E2438002           [392] call       15  5   1  
8EFE  DD830200           [393] getglobal  15  10       ; mMovie
8F02  E4C3C807           [394] self       15  15  291  ; 471456102
8F06  59841A00           [395] loadk      17  106      ; "SocketInfo.Arrow"
8F0A  99841400           [396] loadk      18  82       ; "_alpha"
8F0E  D9C41A00           [397] loadk      19  107      ; 0
8F12  E2438002           [398] call       15  5   1  
8F16  DD830200           [399] getglobal  15  10       ; mMovie
8F1A  E4C3C807           [400] self       15  15  291  ; 471456102
8F1E  59041900           [401] loadk      17  100      ; "SocketInfo"
8F22  99840F00           [402] loadk      18  62       ; "_visible"
8F26  D7040000           [403] loadbool   19  0   0    ; false
8F2A  E2438002           [404] call       15  5   1  
8F2E  D3038003           [405] getupval   15  7      
8F32  1D440A00           [406] getglobal  16  41       ; -174740002
8F36  5D840200           [407] getglobal  17  10       ; mMovie
8F3A  6484CA08           [408] self       17  17  298  ; 1803241227
8F3E  D9C41900           [409] loadk      19  103      ; "SocketInfo.Info.Name"
8F42  19451B00           [410] loadk      20  109      ; "_y"
8F46  62040002           [411] call       17  4   0  
8F4A  22840000           [412] call       16  0   2  
8F4E  CC0304B6           [413] settable   15  364 16   ; "Name"
8F52  D3038003           [414] getupval   15  7      
8F56  1D440A00           [415] getglobal  16  41       ; -174740002
8F5A  5D840200           [416] getglobal  17  10       ; mMovie
8F5E  6484CA08           [417] self       17  17  298  ; 1803241227
8F62  D9841B00           [418] loadk      19  110      ; "SocketInfo.Icon"
8F66  19C51B00           [419] loadk      20  111      ; "_x"
8F6A  62040002           [420] call       17  4   0  
8F6E  22840000           [421] call       16  0   2  
8F72  CC0304AB           [422] settable   15  342 16   ; "Icon"
8F76  DD430300           [423] getglobal  15  13       ; 1074689893
8F7A  1D840200           [424] getglobal  16  10       ; mMovie
8F7E  24045C08           [425] self       16  16  368  ; 1280467243
8F82  22040001           [426] call       16  2   0  
8F86  E2830000           [427] call       15  0   2  
8F8A  D8430000           [428] test       15      1    ; to [430] if false
8F8E  1AC00180           [429] jmp        8            ; to [438]
8F92  DD830200           [430] getglobal  15  10       ; mMovie
8F96  E403DC07           [431] self       15  15  368  ; 1280467243
8F9A  E2830001           [432] call       15  2   2  
8F9E  E443DC07           [433] self       15  15  369  ; 1167009705
8FA2  59841C00           [434] loadk      17  114      ; "IsOpenedFromPauseMenu"
8FA6  99C41C00           [435] loadk      18  115      ; ""
8FAA  E2830002           [436] call       15  4   2  
8FAE  1A400080           [437] jmp        2            ; to [440]
8FB2  D7430000           [438] loadbool   15  0   1    ; false, to [440]
8FB6  D7038000           [439] loadbool   15  1   0    ; true
fail op	8
8FBA  C8030004           [440] setupval   15  8      
8FBE  DD830200           [441] getglobal  15  10       ; mMovie
8FC2  E4C3C807           [442] self       15  15  291  ; 471456102
8FC6  59041D00           [443] loadk      17  116      ; "SocketBtn1"
8FCA  99840F00           [444] loadk      18  62       ; "_visible"
8FCE  D7040000           [445] loadbool   19  0   0    ; false
8FD2  E2438002           [446] call       15  5   1  
8FD6  DD830200           [447] getglobal  15  10       ; mMovie
8FDA  E4C3C807           [448] self       15  15  291  ; 471456102
8FDE  59441D00           [449] loadk      17  117      ; "Spinner"
8FE2  99841400           [450] loadk      18  82       ; "_alpha"
8FE6  D9040400           [451] loadk      19  16       ; 0
8FEA  E2438002           [452] call       15  5   1  
8FEE  DD831D00           [453] getglobal  15  118      ; 849075268
8FF2  19C41D00           [454] loadk      16  119      ; "Lotus.Interface.Components.ThemedSpinner"
8FF6  E2830001           [455] call       15  2   2  
8FFA  0E04DE07           [456] gettable   16  15  376  ; 1191123516
8FFE  5D840200           [457] getglobal  17  10       ; mMovie
9002  99441D00           [458] loadk      18  117      ; "Spinner"
9006  22848001           [459] call       16  3   2  
fail op	8
900A  08048004           [460] setupval   16  9      
900E  1D841D00           [461] getglobal  16  118      ; 849075268
9012  59441E00           [462] loadk      17  121      ; "EE.Interface.AnchorMgr"
9016  22840001           [463] call       16  2   2  
901A  4E045E08           [464] gettable   17  16  376  ; 1191123516
901E  9D840200           [465] getglobal  18  10       ; mMovie
9022  62840001           [466] call       17  2   2  
fail op	8
9026  48040005           [467] setupval   17  10     
902A  53040005           [468] getupval   17  10     
902E  6484DE08           [469] self       17  17  378  ; -1716902634
9032  DD840200           [470] getglobal  19  10       ; mMovie
9036  19451400           [471] loadk      20  81       ; "TreasureInfo"
903A  4B050001           [472] newtable   21  2   0    ; array=2, hash=0
903E  93050005           [473] getupval   22  10     
9042  8EC55E0B           [474] gettable   22  22  379  ; "ANCHOR_H_RIGHT"
9046  D3050005           [475] getupval   23  10     
904A  CE05DF0B           [476] gettable   23  23  380  ; "ANCHOR_V_BOTTOM"
904E  5B450001           [477] setlist    21  2   1    ; index 1 to 2
9052  62448002           [478] call       17  5   1  
9056  53040005           [479] getupval   17  10     
905A  6444DF08           [480] self       17  17  381  ; -1938777623
905E  DD840200           [481] getglobal  19  10       ; mMovie
9062  E484DF09           [482] self       19  19  382  ; -174729759
9066  E2840001           [483] call       19  2   2  
906A  1D850200           [484] getglobal  20  10       ; mMovie
906E  24C55F0A           [485] self       20  20  383  ; -301556379
9072  22050001           [486] call       20  2   0  
9076  62440000           [487] call       17  0   1  
907A  53048005           [488] getupval   17  11     
907E  62448000           [489] call       17  1   1  
9082  53040006           [490] getupval   17  12     
9086  9D840200           [491] getglobal  18  10       ; mMovie
908A  A4845F09           [492] self       18  18  382  ; -174729759
908E  A2840001           [493] call       18  2   2  
9092  DD840200           [494] getglobal  19  10       ; mMovie
9096  E4C4DF09           [495] self       19  19  383  ; -301556379
909A  E2040001           [496] call       19  2   0  
909E  62440000           [497] call       17  0   1  
90A2  53048006           [498] getupval   17  13     
90A6  62448000           [499] call       17  1   1  
90AA  57040000           [500] loadbool   17  0   0    ; false
fail op	8
90AE  48040007           [501] setupval   17  14     
90B2  1E008000           [502] return     0   1      
                         * constants:
90B7  01                 sizek (128)
90B8  04                 const type 4
90B9  0C                 string size (12)
90BA  4261636B67726F75+  "Backgrou"
90C2  6E643100           "nd1\0"
                         const [0]: "Background1"
90C6  01                 const type 3
90C7  7C91A3DD           const [1]: (-576482948)
90CB  04                 const type 4
90CC  0B                 string size (11)
90CD  4C6F7475735F4761+  "Lotus_Ga"
90D5  6D6500             "me\0"
                         const [2]: "Lotus_Game"
90D8  04                 const type 4
90D9  14                 string size (20)
90DA  55495374796C655F+  "UIStyle_"
90E2  4261636B67726F75+  "Backgrou"
90EA  6E643100           "nd1\0"
                         const [3]: "UIStyle_Background1"
90EE  04                 const type 4
90EF  10                 string size (16)
90F0  466C6F6174696E67+  "Floating"
90F8  436F6E74656E7400   "Content\0"
                         const [4]: "FloatingContent"
9100  04                 const type 4
9101  18                 string size (24)
9102  55495374796C655F+  "UIStyle_"
910A  466C6F6174696E67+  "Floating"
9112  436F6E74656E7400   "Content\0"
                         const [5]: "UIStyle_FloatingContent"
911A  04                 const type 4
911B  08                 string size (8)
911C  436F6E74656E7400   "Content\0"
                         const [6]: "Content"
9124  04                 const type 4
9125  10                 string size (16)
9126  55495374796C655F+  "UIStyle_"
912E  436F6E74656E7400   "Content\0"
                         const [7]: "UIStyle_Content"
9136  04                 const type 4
9137  10                 string size (16)
9138  4261636B65724869+  "BackerHi"
9140  67686C6967687400   "ghlight\0"
                         const [8]: "BackerHighlight"
9148  04                 const type 4
9149  18                 string size (24)
914A  55495374796C655F+  "UIStyle_"
9152  4261636B65724869+  "BackerHi"
915A  67686C6967687400   "ghlight\0"
                         const [9]: "UIStyle_BackerHighlight"
9162  04                 const type 4
9163  07                 string size (7)
9164  6D4D6F76696500     "mMovie\0"
                         const [10]: "mMovie"
916B  01                 const type 3
916C  04C417F0           const [11]: (-266877948)
9170  01                 const type 3
9171  62984C6B           const [12]: (1800181858)
9175  01                 const type 3
9176  65770E40           const [13]: (1074689893)
917A  04                 const type 4
917B  12                 string size (18)
917C  67506C6179657250+  "gPlayerP"
9184  726F66696C654D67+  "rofileMg"
918C  7200               "r\0"
                         const [14]: "gPlayerProfileMgr"
918E  01                 const type 3
918F  1A7BEF21           const [15]: (569342746)
9193  03                 const type 3
9194  00000000           const [16]: (0)
9198  01                 const type 3
9199  92104F65           const [17]: (1699680402)
919D  04                 const type 4
919E  03                 string size (3)
919F  5F5400             "_T\0"
                         const [18]: "_T"
91A2  04                 const type 4
91A3  15                 string size (21)
91A4  5365745371756164+  "SetSquad"
91AC  4F7665726C617954+  "OverlayT"
91B4  69746C6500         "itle\0"
                         const [19]: "SetSquadOverlayTitle"
91B9  01                 const type 3
91BA  BD00A356           const [20]: (1453523133)
91BE  01                 const type 3
91BF  D40BDB05           const [21]: (98241492)
91C3  04                 const type 4
91C4  2E                 string size (46)
91C5  2F4C6F7475732F4C+  "/Lotus/L"
91CD  616E67756167652F+  "anguage/"
91D5  4D656E752F467573+  "Menu/Fus"
91DD  696F6E5472656173+  "ionTreas"
91E5  757265734D67725F+  "uresMgr_"
91ED  5469746C6500       "Title\0"
                         const [22]: "/Lotus/Language/Menu/FusionTreasuresMgr_Title"
91F3  04                 const type 4
91F4  0F                 string size (15)
91F5  53686F774261636B+  "ShowBack"
91FD  67726F756E6400     "ground\0"
                         const [23]: "ShowBackground"
9204  01                 const type 3
9205  36DCBD17           const [24]: (398318646)
9209  03                 const type 3
920A  0000803E           const [25]: (0)
920E  04                 const type 4
920F  08                 string size (8)
9210  67526567696F6E00   "gRegion\0"
                         const [26]: "gRegion"
9218  01                 const type 3
9219  BFF6E203           const [27]: (65205951)
921D  01                 const type 3
921E  D48E598B           const [28]: (-1957065004)
9222  04                 const type 4
9223  19                 string size (25)
9224  674C6F7475734F70+  "gLotusOp"
922C  657261746F724176+  "eratorAv"
9234  6174617254797065+  "atarType"
923C  00                 "\0"
                         const [29]: "gLotusOperatorAvatarType"
923D  01                 const type 3
923E  578450F1           const [30]: (-246381481)
9242  01                 const type 3
9243  CF62AE24           const [31]: (615408335)
9247  04                 const type 4
9248  0F                 string size (15)
9249  64656661756C7444+  "defaultD"
9251  696F72616D6100     "iorama\0"
                         const [32]: "defaultDiorama"
9258  04                 const type 4
9259  0A                 string size (10)
925A  67466C6173684D67+  "gFlashMg"
9262  7200               "r\0"
                         const [33]: "gFlashMgr"
9264  01                 const type 3
9265  293D5C52           const [34]: (1381776681)
9269  01                 const type 3
926A  66D9191C           const [35]: (471456102)
926E  04                 const type 4
926F  11                 string size (17)
9270  53656C6563744869+  "SelectHi"
9278  6E742E4C6162656C+  "nt.Label"
9280  00                 "\0"
                         const [36]: "SelectHint.Label"
9281  04                 const type 4
9282  0A                 string size (10)
9283  74657874436F6C6F+  "textColo"
928B  7200               "r\0"
                         const [37]: "textColor"
928D  01                 const type 3
928E  8F8E0217           const [38]: (386043535)
9292  04                 const type 4
9293  16                 string size (22)
9294  53656C6563744869+  "SelectHi"
929C  6E742E4C6162656C+  "nt.Label"
92A4  2E7465787400       ".text\0"
                         const [39]: "SelectHint.Label.text"
92AA  04                 const type 4
92AB  32                 string size (50)
92AC  2F4C6F7475732F4C+  "/Lotus/L"
92B4  616E67756167652F+  "anguage/"
92BC  4D656E752F467573+  "Menu/Fus"
92C4  696F6E5472656173+  "ionTreas"
92CC  7572654D67725F53+  "ureMgr_S"
92D4  656C65637448696E+  "electHin"
92DC  7400               "t\0"
                         const [40]: "/Lotus/Language/Menu/FusionTreasureMgr_SelectHint"
92DE  01                 const type 3
92DF  DEAD95F5           const [41]: (-174740002)
92E3  01                 const type 3
92E4  0B477B6B           const [42]: (1803241227)
92E8  04                 const type 4
92E9  0A                 string size (10)
92EA  7465787457696474+  "textWidt"
92F2  6800               "h\0"
                         const [43]: "textWidth"
92F4  04                 const type 4
92F5  0E                 string size (14)
92F6  53656C6563744869+  "SelectHi"
92FE  6E742E426700       "nt.Bg\0"
                         const [44]: "SelectHint.Bg"
9304  04                 const type 4
9305  07                 string size (7)
9306  5F636F6C6F7200     "_color\0"
                         const [45]: "_color"
930D  01                 const type 3
930E  D7261F7E           const [46]: (2115970775)
9312  04                 const type 4
9313  13                 string size (19)
9314  68696E744261636B+  "hintBack"
931C  65724D6174657269+  "erMateri"
9324  616C00             "al\0"
                         const [47]: "hintBackerMaterial"
9327  04                 const type 4
9328  07                 string size (7)
9329  5F776964746800     "_width\0"
                         const [48]: "_width"
9330  03                 const type 3
9331  0000A041           const [49]: (0)
9335  04                 const type 4
9336  10                 string size (16)
9337  4E6F547265617375+  "NoTreasu"
933F  72657348696E7400   "resHint\0"
                         const [50]: "NoTreasuresHint"
9347  04                 const type 4
9348  15                 string size (21)
9349  4E6F547265617375+  "NoTreasu"
9351  72657348696E742E+  "resHint."
9359  7465787400         "text\0"
                         const [51]: "NoTreasuresHint.text"
935E  04                 const type 4
935F  38                 string size (56)
9360  2F4C6F7475732F4C+  "/Lotus/L"
9368  616E67756167652F+  "anguage/"
9370  4D656E752F467573+  "Menu/Fus"
9378  696F6E5472656173+  "ionTreas"
9380  757265734D67725F+  "uresMgr_"
9388  4E6F547265617375+  "NoTreasu"
9390  72657348696E7400   "resHint\0"
                         const [52]: "/Lotus/Language/Menu/FusionTreasuresMgr_NoTreasuresHint"
9398  04                 const type 4
9399  1E                 string size (30)
939A  5472656173757265+  "Treasure"
93A2  496E666F2E526F74+  "Info.Rot"
93AA  61746548696E742E+  "ateHint."
93B2  4C6162656C00       "Label\0"
                         const [53]: "TreasureInfo.RotateHint.Label"
93B8  04                 const type 4
93B9  23                 string size (35)
93BA  5472656173757265+  "Treasure"
93C2  496E666F2E526F74+  "Info.Rot"
93CA  61746548696E742E+  "ateHint."
93D2  4C6162656C2E7465+  "Label.te"
93DA  787400             "xt\0"
                         const [54]: "TreasureInfo.RotateHint.Label.text"
93DD  01                 const type 3
93DE  A22217F8           const [55]: (-132701534)
93E2  04                 const type 4
93E3  07                 string size (7)
93E4  456E67696E6500     "Engine\0"
                         const [56]: "Engine"
93EB  01                 const type 3
93EC  70FE9094           const [57]: (-1802437008)
93F0  04                 const type 4
93F1  3C                 string size (60)
93F2  2F4C6F7475732F4C+  "/Lotus/L"
93FA  616E67756167652F+  "anguage/"
9402  4D656E752F467573+  "Menu/Fus"
940A  696F6E5472656173+  "ionTreas"
9412  7572654D67725F52+  "ureMgr_R"
941A  6F7461746548696E+  "otateHin"
9422  74436F6E74726F6C+  "tControl"
942A  6C657200           "ler\0"
                         const [58]: "/Lotus/Language/Menu/FusionTreasureMgr_RotateHintController"
942E  04                 const type 4
942F  32                 string size (50)
9430  2F4C6F7475732F4C+  "/Lotus/L"
9438  616E67756167652F+  "anguage/"
9440  4D656E752F467573+  "Menu/Fus"
9448  696F6E5472656173+  "ionTreas"
9450  7572654D67725F52+  "ureMgr_R"
9458  6F7461746548696E+  "otateHin"
9460  7400               "t\0"
                         const [59]: "/Lotus/Language/Menu/FusionTreasureMgr_RotateHint"
9462  04                 const type 4
9463  1B                 string size (27)
9464  5472656173757265+  "Treasure"
946C  496E666F2E526F74+  "Info.Rot"
9474  61746548696E742E+  "ateHint."
947C  426700             "Bg\0"
                         const [60]: "TreasureInfo.RotateHint.Bg"
947F  04                 const type 4
9480  18                 string size (24)
9481  5472656173757265+  "Treasure"
9489  496E666F2E526F74+  "Info.Rot"
9491  61746548696E7400   "ateHint\0"
                         const [61]: "TreasureInfo.RotateHint"
9499  04                 const type 4
949A  09                 string size (9)
949B  5F76697369626C65+  "_visible"
94A3  00                 "\0"
                         const [62]: "_visible"
94A4  04                 const type 4
94A5  17                 string size (23)
94A6  5472656173757265+  "Treasure"
94AE  496E666F2E536570+  "Info.Sep"
94B6  617261746F7200     "arator\0"
                         const [63]: "TreasureInfo.Separator"
94BD  04                 const type 4
94BE  12                 string size (18)
94BF  5472656173757265+  "Treasure"
94C7  496E666F2E4E616D+  "Info.Nam"
94CF  6500               "e\0"
                         const [64]: "TreasureInfo.Name"
94D1  04                 const type 4
94D2  11                 string size (17)
94D3  64726F7053686164+  "dropShad"
94DB  6F775F636F6C6F72+  "ow_color"
94E3  00                 "\0"
                         const [65]: "dropShadow_color"
94E4  04                 const type 4
94E5  12                 string size (18)
94E6  5472656173757265+  "Treasure"
94EE  496E666F2E446573+  "Info.Des"
94F6  6300               "c\0"
                         const [66]: "TreasureInfo.Desc"
94F8  04                 const type 4
94F9  12                 string size (18)
94FA  766572746963616C+  "vertical"
9502  416C69676E6D656E+  "Alignmen"
950A  7400               "t\0"
                         const [67]: "verticalAlignment"
950C  04                 const type 4
950D  07                 string size (7)
950E  626F74746F6D00     "bottom\0"
                         const [68]: "bottom"
9515  01                 const type 3
9516  4184B797           const [69]: (-1749580735)
951A  04                 const type 4
951B  10                 string size (16)
951C  5472656173757265+  "Treasure"
9524  496E666F2E426700   "Info.Bg\0"
                         const [70]: "TreasureInfo.Bg"
952C  04                 const type 4
952D  03                 string size (3)
952E  5F4700             "_G\0"
                         const [71]: "_G"
9531  04                 const type 4
9532  1C                 string size (28)
9533  55494D6174657269+  "UIMateri"
953B  616C5F5265637461+  "al_Recta"
9543  6E676C654E6F4465+  "ngleNoDe"
954B  70746800           "pth\0"
                         const [72]: "UIMaterial_RectangleNoDepth"
954F  01                 const type 3
9550  2FAB2A30           const [73]: (808102703)
9554  04                 const type 4
9555  0F                 string size (15)
9556  52656374496E6E65+  "RectInne"
955E  72436F6C6F7200     "rColor\0"
                         const [74]: "RectInnerColor"
9565  04                 const type 4
9566  02                 string size (2)
9567  7200               "r\0"
                         const [75]: "r"
9569  04                 const type 4
956A  02                 string size (2)
956B  6700               "g\0"
                         const [76]: "g"
956D  04                 const type 4
956E  02                 string size (2)
956F  6200               "b\0"
                         const [77]: "b"
9571  03                 const type 3
9572  0000003F           const [78]: (0)
9576  04                 const type 4
9577  0E                 string size (14)
9578  5265637445646765+  "RectEdge"
9580  436F6C6F7200       "Color\0"
                         const [79]: "RectEdgeColor"
9586  03                 const type 3
9587  CDCC4C3D           const [80]: (-51)
958B  04                 const type 4
958C  0D                 string size (13)
958D  5472656173757265+  "Treasure"
9595  496E666F00         "Info\0"
                         const [81]: "TreasureInfo"
959A  04                 const type 4
959B  07                 string size (7)
959C  5F616C70686100     "_alpha\0"
                         const [82]: "_alpha"
95A3  04                 const type 4
95A4  07                 string size (7)
95A5  426C7572657200     "Blurer\0"
                         const [83]: "Blurer"
95AC  04                 const type 4
95AD  03                 string size (3)
95AE  426700             "Bg\0"
                         const [84]: "Bg"
95B1  04                 const type 4
95B2  0F                 string size (15)
95B3  496E666F2E536570+  "Info.Sep"
95BB  617261746F7200     "arator\0"
                         const [85]: "Info.Separator"
95C2  04                 const type 4
95C3  05                 string size (5)
95C4  49636F6E00         "Icon\0"
                         const [86]: "Icon"
95C9  04                 const type 4
95CA  06                 string size (6)
95CB  4172726F7700       "Arrow\0"
                         const [87]: "Arrow"
95D1  04                 const type 4
95D2  0D                 string size (13)
95D3  4172726F77456467+  "ArrowEdg"
95DB  65546F7000         "eTop\0"
                         const [88]: "ArrowEdgeTop"
95E0  04                 const type 4
95E1  10                 string size (16)
95E2  4172726F77456467+  "ArrowEdg"
95EA  65426F74746F6D00   "eBottom\0"
                         const [89]: "ArrowEdgeBottom"
95F2  04                 const type 4
95F3  09                 string size (9)
95F4  456467654C656674+  "EdgeLeft"
95FC  00                 "\0"
                         const [90]: "EdgeLeft"
95FD  04                 const type 4
95FE  08                 string size (8)
95FF  45646765546F7000   "EdgeTop\0"
                         const [91]: "EdgeTop"
9607  04                 const type 4
9608  0B                 string size (11)
9609  45646765426F7474+  "EdgeBott"
9611  6F6D00             "om\0"
                         const [92]: "EdgeBottom"
9614  04                 const type 4
9615  0D                 string size (13)
9616  4564676552696768+  "EdgeRigh"
961E  74546F7000         "tTop\0"
                         const [93]: "EdgeRightTop"
9623  04                 const type 4
9624  10                 string size (16)
9625  4564676552696768+  "EdgeRigh"
962D  74426F74746F6D00   "tBottom\0"
                         const [94]: "EdgeRightBottom"
9635  03                 const type 3
9636  0000803F           const [95]: (0)
963A  04                 const type 4
963B  0C                 string size (12)
963C  536F636B6574496E+  "SocketIn"
9644  666F2E00           "fo.\0"
                         const [96]: "SocketInfo."
9648  04                 const type 4
9649  21                 string size (33)
964A  55494D6174657269+  "UIMateri"
9652  616C5F536D6F6F74+  "al_Smoot"
965A  68456467654E6F44+  "hEdgeNoD"
9662  6570746854657374+  "epthTest"
966A  00                 "\0"
                         const [97]: "UIMaterial_SmoothEdgeNoDepthTest"
966B  01                 const type 3
966C  17DDCF0E           const [98]: (248503575)
9670  01                 const type 3
9671  A7960188           const [99]: (-2013161817)
9675  04                 const type 4
9676  0B                 string size (11)
9677  536F636B6574496E+  "SocketIn"
967F  666F00             "fo\0"
                         const [100]: "SocketInfo"
9682  03                 const type 3
9683  00002042           const [101]: (0)
9687  04                 const type 4
9688  16                 string size (22)
9689  536F636B6574496E+  "SocketIn"
9691  666F2E496E666F2E+  "fo.Info."
9699  4F776E656400       "Owned\0"
                         const [102]: "SocketInfo.Info.Owned"
969F  04                 const type 4
96A0  15                 string size (21)
96A1  536F636B6574496E+  "SocketIn"
96A9  666F2E496E666F2E+  "fo.Info."
96B1  4E616D6500         "Name\0"
                         const [103]: "SocketInfo.Info.Name"
96B6  04                 const type 4
96B7  0E                 string size (14)
96B8  536F636B6574496E+  "SocketIn"
96C0  666F2E426700       "fo.Bg\0"
                         const [104]: "SocketInfo.Bg"
96C6  03                 const type 3
96C7  0000AA42           const [105]: (0)
96CB  04                 const type 4
96CC  11                 string size (17)
96CD  536F636B6574496E+  "SocketIn"
96D5  666F2E4172726F77+  "fo.Arrow"
96DD  00                 "\0"
                         const [106]: "SocketInfo.Arrow"
96DE  03                 const type 3
96DF  00009642           const [107]: (0)
96E3  04                 const type 4
96E4  05                 string size (5)
96E5  4E616D6500         "Name\0"
                         const [108]: "Name"
96EA  04                 const type 4
96EB  03                 string size (3)
96EC  5F7900             "_y\0"
                         const [109]: "_y"
96EF  04                 const type 4
96F0  10                 string size (16)
96F1  536F636B6574496E+  "SocketIn"
96F9  666F2E49636F6E00   "fo.Icon\0"
                         const [110]: "SocketInfo.Icon"
9701  04                 const type 4
9702  03                 string size (3)
9703  5F7800             "_x\0"
                         const [111]: "_x"
9706  01                 const type 3
9707  2B61524C           const [112]: (1280467243)
970B  01                 const type 3
970C  A9278F45           const [113]: (1167009705)
9710  04                 const type 4
9711  16                 string size (22)
9712  49734F70656E6564+  "IsOpened"
971A  46726F6D50617573+  "FromPaus"
9722  654D656E7500       "eMenu\0"
                         const [114]: "IsOpenedFromPauseMenu"
9728  04                 const type 4
9729  01                 string size (0)
                         const [115]: ""
972B  04                 const type 4
972C  0B                 string size (11)
972D  536F636B65744274+  "SocketBt"
9735  6E3100             "n1\0"
                         const [116]: "SocketBtn1"
9738  04                 const type 4
9739  08                 string size (8)
973A  5370696E6E657200   "Spinner\0"
                         const [117]: "Spinner"
9742  01                 const type 3
9743  44DC9B32           const [118]: (849075268)
9747  04                 const type 4
9748  29                 string size (41)
9749  4C6F7475732E496E+  "Lotus.In"
9751  746572666163652E+  "terface."
9759  436F6D706F6E656E+  "Componen"
9761  74732E5468656D65+  "ts.Theme"
9769  645370696E6E6572+  "dSpinner"
9771  00                 "\0"
                         const [119]: "Lotus.Interface.Components.ThemedSpinner"
9772  01                 const type 3
9773  3C1AFF46           const [120]: (1191123516)
9777  04                 const type 4
9778  17                 string size (23)
9779  45452E496E746572+  "EE.Inter"
9781  666163652E416E63+  "face.Anc"
9789  686F724D677200     "horMgr\0"
                         const [121]: "EE.Interface.AnchorMgr"
9790  01                 const type 3
9791  1625AA99           const [122]: (-1716902634)
9795  04                 const type 4
9796  0F                 string size (15)
9797  414E43484F525F48+  "ANCHOR_H"
979F  5F524947485400     "_RIGHT\0"
                         const [123]: "ANCHOR_H_RIGHT"
97A6  04                 const type 4
97A7  10                 string size (16)
97A8  414E43484F525F56+  "ANCHOR_V"
97B0  5F424F54544F4D00   "_BOTTOM\0"
                         const [124]: "ANCHOR_V_BOTTOM"
97B8  01                 const type 3
97B9  E999708C           const [125]: (-1938777623)
97BD  01                 const type 3
97BE  E1D595F5           const [126]: (-174729759)
97C2  01                 const type 3
97C3  659D06EE           const [127]: (-301556379)
                         * functions:
97C7  00                 sizep (0)
                         * lines:
97C9  03                 sizelineinfo (502)
                         [pc] (line)
97CA  16                 [001] (22)
97CB  04                 [002] (22)
97CC  00                 [003] (22)
97CD  00                 [004] (22)
97CE  16                 [005] (22)
97CF  04                 [006] (22)
97D0  00                 [007] (22)
97D1  00                 [008] (22)
97D2  16                 [009] (23)
97D3  04                 [010] (23)
97D4  00                 [011] (23)
97D5  00                 [012] (23)
97D6  16                 [013] (23)
97D7  04                 [014] (23)
97D8  00                 [015] (23)
97D9  00                 [016] (23)
97DA  16                 [017] (24)
97DB  04                 [018] (24)
97DC  00                 [019] (24)
97DD  00                 [020] (24)
97DE  16                 [021] (24)
97DF  04                 [022] (24)
97E0  00                 [023] (24)
97E1  00                 [024] (24)
97E2  16                 [025] (25)
97E3  04                 [026] (25)
97E4  00                 [027] (25)
97E5  00                 [028] (25)
97E6  16                 [029] (25)
97E7  04                 [030] (25)
97E8  00                 [031] (25)
97E9  00                 [032] (25)
97EA  17                 [033] (27)
97EB  04                 [034] (27)
97EC  00                 [035] (27)
97ED  00                 [036] (27)
97EE  17                 [037] (27)
97EF  04                 [038] (28)
97F0  00                 [039] (28)
97F1  00                 [040] (28)
97F2  17                 [041] (28)
97F3  04                 [042] (30)
97F4  00                 [043] (30)
97F5  00                 [044] (30)
97F6  17                 [045] (30)
97F7  04                 [046] (30)
97F8  00                 [047] (30)
97F9  00                 [048] (30)
97FA  17                 [049] (30)
97FB  04                 [050] (31)
97FC  00                 [051] (31)
97FD  00                 [052] (31)
97FE  17                 [053] (31)
97FF  04                 [054] (31)
9800  00                 [055] (31)
9801  00                 [056] (31)
9802  17                 [057] (34)
9803  04                 [058] (34)
9804  00                 [059] (34)
9805  00                 [060] (34)
9806  17                 [061] (34)
9807  04                 [062] (34)
9808  00                 [063] (35)
9809  00                 [064] (35)
980A  18                 [065] (35)
980B  04                 [066] (35)
980C  00                 [067] (35)
980D  00                 [068] (35)
980E  18                 [069] (35)
980F  04                 [070] (35)
9810  00                 [071] (38)
9811  00                 [072] (38)
9812  18                 [073] (38)
9813  04                 [074] (38)
9814  00                 [075] (38)
9815  00                 [076] (38)
9816  18                 [077] (39)
9817  04                 [078] (39)
9818  00                 [079] (39)
9819  00                 [080] (39)
981A  18                 [081] (39)
981B  04                 [082] (39)
981C  00                 [083] (42)
981D  00                 [084] (42)
981E  18                 [085] (42)
981F  04                 [086] (43)
9820  00                 [087] (43)
9821  00                 [088] (43)
9822  18                 [089] (43)
9823  04                 [090] (43)
9824  00                 [091] (43)
9825  00                 [092] (43)
9826  18                 [093] (43)
9827  04                 [094] (43)
9828  00                 [095] (43)
9829  00                 [096] (44)
982A  19                 [097] (44)
982B  04                 [098] (44)
982C  00                 [099] (44)
982D  00                 [100] (45)
982E  19                 [101] (45)
982F  04                 [102] (46)
9830  00                 [103] (46)
9831  00                 [104] (46)
9832  19                 [105] (50)
9833  04                 [106] (50)
9834  00                 [107] (50)
9835  00                 [108] (50)
9836  19                 [109] (50)
9837  04                 [110] (51)
9838  00                 [111] (51)
9839  00                 [112] (51)
983A  19                 [113] (51)
983B  04                 [114] (53)
983C  00                 [115] (53)
983D  00                 [116] (56)
983E  19                 [117] (56)
983F  04                 [118] (56)
9840  00                 [119] (56)
9841  00                 [120] (56)
9842  19                 [121] (56)
9843  04                 [122] (56)
9844  00                 [123] (57)
9845  00                 [124] (57)
9846  19                 [125] (57)
9847  04                 [126] (57)
9848  00                 [127] (57)
9849  00                 [128] (58)
984A  1B                 [129] (58)
984B  04                 [130] (58)
984C  00                 [131] (58)
984D  00                 [132] (58)
984E  1B                 [133] (58)
984F  04                 [134] (58)
9850  00                 [135] (59)
9851  00                 [136] (59)
9852  1B                 [137] (59)
9853  04                 [138] (59)
9854  00                 [139] (59)
9855  00                 [140] (59)
9856  1B                 [141] (59)
9857  04                 [142] (60)
9858  00                 [143] (60)
9859  00                 [144] (60)
985A  1B                 [145] (60)
985B  04                 [146] (60)
985C  00                 [147] (61)
985D  00                 [148] (61)
985E  1C                 [149] (61)
985F  04                 [150] (61)
9860  00                 [151] (61)
9861  00                 [152] (61)
9862  1C                 [153] (63)
9863  04                 [154] (63)
9864  00                 [155] (63)
9865  00                 [156] (63)
9866  1C                 [157] (63)
9867  04                 [158] (63)
9868  00                 [159] (63)
9869  00                 [160] (64)
986A  1C                 [161] (64)
986B  04                 [162] (64)
986C  00                 [163] (64)
986D  00                 [164] (64)
986E  1E                 [165] (65)
986F  04                 [166] (65)
9870  00                 [167] (65)
9871  00                 [168] (65)
9872  1E                 [169] (65)
9873  04                 [170] (65)
9874  00                 [171] (65)
9875  00                 [172] (66)
9876  1E                 [173] (66)
9877  04                 [174] (66)
9878  00                 [175] (66)
9879  00                 [176] (66)
987A  1E                 [177] (66)
987B  04                 [178] (66)
987C  00                 [179] (66)
987D  00                 [180] (66)
987E  1E                 [181] (66)
987F  04                 [182] (66)
9880  00                 [183] (66)
9881  00                 [184] (67)
9882  1E                 [185] (67)
9883  04                 [186] (67)
9884  00                 [187] (67)
9885  00                 [188] (67)
9886  1E                 [189] (67)
9887  04                 [190] (67)
9888  00                 [191] (68)
9889  00                 [192] (68)
988A  1E                 [193] (68)
988B  04                 [194] (68)
988C  00                 [195] (68)
988D  00                 [196] (69)
988E  1F                 [197] (69)
988F  04                 [198] (69)
9890  00                 [199] (69)
9891  00                 [200] (69)
9892  1F                 [201] (69)
9893  04                 [202] (69)
9894  00                 [203] (69)
9895  00                 [204] (70)
9896  1F                 [205] (70)
9897  04                 [206] (70)
9898  00                 [207] (70)
9899  00                 [208] (70)
989A  1F                 [209] (70)
989B  04                 [210] (71)
989C  00                 [211] (71)
989D  00                 [212] (71)
989E  1F                 [213] (71)
989F  04                 [214] (71)
98A0  00                 [215] (71)
98A1  00                 [216] (73)
98A2  1F                 [217] (73)
98A3  04                 [218] (73)
98A4  00                 [219] (73)
98A5  00                 [220] (73)
98A6  1F                 [221] (73)
98A7  04                 [222] (73)
98A8  00                 [223] (74)
98A9  00                 [224] (74)
98AA  22                 [225] (74)
98AB  04                 [226] (74)
98AC  00                 [227] (74)
98AD  00                 [228] (74)
98AE  22                 [229] (74)
98AF  04                 [230] (75)
98B0  00                 [231] (75)
98B1  00                 [232] (75)
98B2  22                 [233] (75)
98B3  04                 [234] (75)
98B4  00                 [235] (75)
98B5  00                 [236] (75)
98B6  22                 [237] (77)
98B7  04                 [238] (77)
98B8  00                 [239] (77)
98B9  00                 [240] (77)
98BA  22                 [241] (77)
98BB  04                 [242] (77)
98BC  00                 [243] (77)
98BD  00                 [244] (78)
98BE  22                 [245] (78)
98BF  04                 [246] (78)
98C0  00                 [247] (78)
98C1  00                 [248] (78)
98C2  23                 [249] (78)
98C3  04                 [250] (79)
98C4  00                 [251] (79)
98C5  00                 [252] (79)
98C6  23                 [253] (79)
98C7  04                 [254] (79)
98C8  00                 [255] (79)
98C9  00                 [256] (80)
98CA  23                 [257] (80)
98CB  04                 [258] (80)
98CC  00                 [259] (80)
98CD  00                 [260] (80)
98CE  23                 [261] (80)
98CF  04                 [262] (81)
98D0  00                 [263] (81)
98D1  00                 [264] (81)
98D2  23                 [265] (81)
98D3  04                 [266] (81)
98D4  00                 [267] (82)
98D5  00                 [268] (82)
98D6  23                 [269] (82)
98D7  04                 [270] (82)
98D8  00                 [271] (82)
98D9  00                 [272] (83)
98DA  23                 [273] (83)
98DB  04                 [274] (83)
98DC  00                 [275] (83)
98DD  00                 [276] (83)
98DE  23                 [277] (83)
98DF  04                 [278] (84)
98E0  00                 [279] (84)
98E1  00                 [280] (84)
98E2  26                 [281] (84)
98E3  04                 [282] (84)
98E4  00                 [283] (84)
98E5  00                 [284] (84)
98E6  26                 [285] (84)
98E7  04                 [286] (84)
98E8  00                 [287] (85)
98E9  00                 [288] (85)
98EA  26                 [289] (85)
98EB  04                 [290] (85)
98EC  00                 [291] (85)
98ED  00                 [292] (85)
98EE  26                 [293] (85)
98EF  04                 [294] (85)
98F0  00                 [295] (85)
98F1  00                 [296] (86)
98F2  26                 [297] (86)
98F3  04                 [298] (86)
98F4  00                 [299] (86)
98F5  00                 [300] (86)
98F6  26                 [301] (86)
98F7  04                 [302] (88)
98F8  00                 [303] (88)
98F9  00                 [304] (88)
98FA  27                 [305] (88)
98FB  04                 [306] (88)
98FC  00                 [307] (88)
98FD  00                 [308] (88)
98FE  27                 [309] (88)
98FF  04                 [310] (88)
9900  00                 [311] (88)
9901  00                 [312] (88)
9902  27                 [313] (88)
9903  04                 [314] (88)
9904  00                 [315] (88)
9905  00                 [316] (89)
9906  27                 [317] (89)
9907  04                 [318] (89)
9908  00                 [319] (89)
9909  00                 [320] (90)
990A  27                 [321] (90)
990B  04                 [322] (90)
990C  00                 [323] (90)
990D  00                 [324] (90)
990E  27                 [325] (90)
990F  04                 [326] (90)
9910  00                 [327] (90)
9911  00                 [328] (89)
9912  2A                 [329] (93)
9913  04                 [330] (93)
9914  00                 [331] (93)
9915  00                 [332] (93)
9916  2A                 [333] (93)
9917  04                 [334] (93)
9918  00                 [335] (93)
9919  00                 [336] (93)
991A  2A                 [337] (93)
991B  04                 [338] (94)
991C  00                 [339] (94)
991D  00                 [340] (94)
991E  2B                 [341] (94)
991F  04                 [342] (95)
9920  00                 [343] (95)
9921  00                 [344] (95)
9922  2B                 [345] (95)
9923  04                 [346] (95)
9924  00                 [347] (95)
9925  00                 [348] (95)
9926  2B                 [349] (95)
9927  04                 [350] (96)
9928  00                 [351] (96)
9929  00                 [352] (96)
992A  2B                 [353] (96)
992B  04                 [354] (96)
992C  00                 [355] (96)
992D  00                 [356] (96)
992E  2B                 [357] (94)
992F  04                 [358] (96)
9930  00                 [359] (99)
9931  00                 [360] (99)
9932  2B                 [361] (99)
9933  04                 [362] (99)
9934  00                 [363] (99)
9935  00                 [364] (99)
9936  2B                 [365] (99)
9937  04                 [366] (100)
9938  00                 [367] (100)
9939  00                 [368] (100)
993A  2B                 [369] (100)
993B  04                 [370] (100)
993C  00                 [371] (100)
993D  00                 [372] (100)
993E  2B                 [373] (101)
993F  04                 [374] (101)
9940  00                 [375] (101)
9941  00                 [376] (101)
9942  2B                 [377] (101)
9943  04                 [378] (101)
9944  00                 [379] (101)
9945  00                 [380] (102)
9946  2C                 [381] (102)
9947  04                 [382] (102)
9948  00                 [383] (102)
9949  00                 [384] (102)
994A  2C                 [385] (102)
994B  04                 [386] (103)
994C  00                 [387] (103)
994D  00                 [388] (103)
994E  2C                 [389] (103)
994F  04                 [390] (103)
9950  00                 [391] (103)
9951  00                 [392] (103)
9952  2C                 [393] (104)
9953  04                 [394] (104)
9954  00                 [395] (104)
9955  00                 [396] (104)
9956  2D                 [397] (104)
9957  04                 [398] (104)
9958  00                 [399] (105)
9959  00                 [400] (105)
995A  2D                 [401] (105)
995B  04                 [402] (105)
995C  00                 [403] (105)
995D  00                 [404] (105)
995E  2E                 [405] (107)
995F  04                 [406] (107)
9960  00                 [407] (107)
9961  00                 [408] (107)
9962  2E                 [409] (107)
9963  04                 [410] (107)
9964  00                 [411] (107)
9965  00                 [412] (107)
9966  2E                 [413] (107)
9967  04                 [414] (108)
9968  00                 [415] (108)
9969  00                 [416] (108)
996A  32                 [417] (108)
996B  04                 [418] (108)
996C  00                 [419] (108)
996D  00                 [420] (108)
996E  32                 [421] (108)
996F  04                 [422] (108)
9970  00                 [423] (110)
9971  00                 [424] (110)
9972  32                 [425] (110)
9973  04                 [426] (110)
9974  00                 [427] (110)
9975  00                 [428] (110)
9976  32                 [429] (110)
9977  04                 [430] (110)
9978  00                 [431] (110)
9979  00                 [432] (110)
997A  32                 [433] (110)
997B  04                 [434] (110)
997C  00                 [435] (110)
997D  00                 [436] (110)
997E  33                 [437] (110)
997F  04                 [438] (110)
9980  00                 [439] (110)
9981  00                 [440] (110)
9982  33                 [441] (112)
9983  04                 [442] (112)
9984  00                 [443] (112)
9985  00                 [444] (112)
9986  33                 [445] (112)
9987  04                 [446] (112)
9988  00                 [447] (114)
9989  00                 [448] (114)
998A  33                 [449] (114)
998B  04                 [450] (114)
998C  00                 [451] (114)
998D  00                 [452] (114)
998E  35                 [453] (115)
998F  04                 [454] (115)
9990  00                 [455] (115)
9991  00                 [456] (116)
9992  35                 [457] (116)
9993  04                 [458] (116)
9994  00                 [459] (116)
9995  00                 [460] (116)
9996  38                 [461] (118)
9997  04                 [462] (118)
9998  00                 [463] (118)
9999  00                 [464] (119)
999A  38                 [465] (119)
999B  04                 [466] (119)
999C  00                 [467] (119)
999D  00                 [468] (120)
999E  38                 [469] (120)
999F  04                 [470] (120)
99A0  00                 [471] (120)
99A1  00                 [472] (120)
99A2  38                 [473] (120)
99A3  04                 [474] (120)
99A4  00                 [475] (120)
99A5  00                 [476] (120)
99A6  38                 [477] (120)
99A7  04                 [478] (120)
99A8  00                 [479] (121)
99A9  00                 [480] (121)
99AA  38                 [481] (121)
99AB  04                 [482] (121)
99AC  00                 [483] (121)
99AD  00                 [484] (121)
99AE  38                 [485] (121)
99AF  04                 [486] (121)
99B0  00                 [487] (121)
99B1  00                 [488] (123)
99B2  39                 [489] (123)
99B3  04                 [490] (124)
99B4  00                 [491] (124)
99B5  00                 [492] (124)
99B6  39                 [493] (124)
99B7  04                 [494] (124)
99B8  00                 [495] (124)
99B9  00                 [496] (124)
99BA  39                 [497] (124)
99BB  04                 [498] (126)
99BC  00                 [499] (126)
99BD  00                 [500] (-128)
99BE  39                 [501] (-128)
99BF  04                 [502] (-127)
                         * locals:
9FA2  00                 sizelocvars (0)
                         * upvalues:
9FA3  00                 sizeupvalues (0)
                         ** end of function **

                         
9FA4                     ** function [26] definition (level 2)
                         ** start of function **
9FA4  00                 string size (0)
                         source name: (none)
9FA6  09                 line defined (1155)
9FA7  96                 last line defined (1174)
9FA8  09                 nups (9)
9FA9  09                 numparams (0)
9FAA  00                 is_vararg (0)
9FAB  00                 maxstacksize (8)
                         * code:
9FAD  4E                 sizecode (78)
9FAE  13000000           [01] getupval   0   0      
9FB2  24004000           [02] self       0   0   256  ; -1938777623
9FB6  9D400000           [03] getglobal  2   1        ; 1289681407
9FBA  A2008000           [04] call       2   1   0  
9FBE  22400000           [05] call       0   0   1  
9FC2  13008000           [06] getupval   0   1      
9FC6  24004000           [07] self       0   0   256  ; -1938777623
9FCA  9D400000           [08] getglobal  2   1        ; 1289681407
9FCE  A2008000           [09] call       2   1   0  
9FD2  22400000           [10] call       0   0   1  
9FD6  13000001           [11] getupval   0   2      
9FDA  53000000           [12] getupval   1   0      
9FDE  64C0C000           [13] self       1   1   259  ; -991624272
9FE2  62800001           [14] call       1   2   2  
9FE6  0C400081           [15] settable   0   258 1    ; "heading"
9FEA  13000001           [16] getupval   0   2      
9FEE  53008000           [17] getupval   1   1      
9FF2  64C0C000           [18] self       1   1   259  ; -991624272
9FF6  62800001           [19] call       1   2   2  
9FFA  0C400082           [20] settable   0   260 1    ; "pitch"
9FFE  1D400100           [21] getglobal  0   5        ; 1074689893
A002  53008001           [22] getupval   1   3      
A006  4E80C100           [23] gettable   1   1   262  ; "Parent"
A00A  22800001           [24] call       0   2   2  
A00E  18400000           [25] test       0       1    ; to [27] if false
A012  1A800C80           [26] jmp        51           ; to [78]
A016  13008001           [27] getupval   0   3      
A01A  0E804100           [28] gettable   0   0   262  ; "Parent"
A01E  24C04100           [29] self       0   0   263  ; 1839670529
A022  22800001           [30] call       0   2   2  
A026  5D400100           [31] getglobal  1   5        ; 1074689893
A02A  93000002           [32] getupval   2   4      
A02E  62800001           [33] call       1   2   2  
A032  58400000           [34] test       1       1    ; to [36] if false
A036  1AC00080           [35] jmp        4            ; to [40]
A03A  53000002           [36] getupval   1   4      
A03E  93008002           [37] getupval   2   5      
A042  44808000           [38] mul        1   1   2  
A046  03400000           [39] add        0   0   1  
A04A  5D000200           [40] getglobal  1   8        ; 1287559689
A04E  93008001           [41] getupval   2   3      
A052  8E404201           [42] gettable   2   2   265  ; "InitCameraVector"
A056  D3000003           [43] getupval   3   6      
A05A  84C00001           [44] mul        2   2   3  
A05E  D3000001           [45] getupval   3   2      
A062  62808001           [46] call       1   3   2  
A066  43400000           [47] add        1   0   1  
A06A  93008003           [48] getupval   2   7      
A06E  A4804201           [49] self       2   2   266  ; -333955620
A072  12018000           [50] move       4   1      
A076  A2408001           [51] call       2   3   1  
A07A  9D000200           [52] getglobal  2   8        ; 1287559689
A07E  DDC00200           [53] getglobal  3   11       ; 572299008
A082  13010004           [54] getupval   4   8      
A086  53010003           [55] getupval   5   6      
A08A  04410102           [56] mul        4   4   5  
A08E  59010300           [57] loadk      5   12       ; 0
A092  99010300           [58] loadk      6   12       ; 0
A096  E2800002           [59] call       3   4   2  
A09A  1D410300           [60] getglobal  4   13       ; 508519041
A09E  53010001           [61] getupval   5   2      
A0A2  4E81C002           [62] gettable   5   5   258  ; "heading"
A0A6  93010001           [63] getupval   6   2      
A0AA  8E014103           [64] gettable   6   6   260  ; "pitch"
A0AE  D3010001           [65] getupval   7   2      
A0B2  CE81C303           [66] gettable   7   7   270  ; "bank"
A0B6  22010002           [67] call       4   4   0  
A0BA  A2800000           [68] call       2   0   2  
A0BE  DDC00300           [69] getglobal  3   15       ; -304944129
A0C2  12018000           [70] move       4   1      
A0C6  43810000           [71] add        5   0   2  
A0CA  E2808001           [72] call       3   3   2  
A0CE  CC004387           [73] settable   3   270 268  ; "bank" 0
A0D2  13018003           [74] getupval   4   7      
A0D6  24014402           [75] self       4   4   272  ; 1352138124
A0DA  92018001           [76] move       6   3      
A0DE  22418001           [77] call       4   3   1  
A0E2  1E008000           [78] return     0   1      
                         * constants:
A0E6  11                 sizek (17)
A0E7  01                 const type 3
A0E8  E999708C           const [0]: (-1938777623)
A0EC  01                 const type 3
A0ED  FFF9DE4C           const [1]: (1289681407)
A0F1  04                 const type 4
A0F2  08                 string size (8)
A0F3  68656164696E6700   "heading\0"
                         const [2]: "heading"
A0FB  01                 const type 3
A0FC  B003E5C4           const [3]: (-991624272)
A100  04                 const type 4
A101  06                 string size (6)
A102  706974636800       "pitch\0"
                         const [4]: "pitch"
A108  01                 const type 3
A109  65770E40           const [5]: (1074689893)
A10D  04                 const type 4
A10E  07                 string size (7)
A10F  506172656E7400     "Parent\0"
                         const [6]: "Parent"
A116  01                 const type 3
A117  0125A76D           const [7]: (1839670529)
A11B  01                 const type 3
A11C  099ABE4C           const [8]: (1287559689)
A120  04                 const type 4
A121  11                 string size (17)
A122  496E697443616D65+  "InitCame"
A12A  7261566563746F72+  "raVector"
A132  00                 "\0"
                         const [9]: "InitCameraVector"
A133  01                 const type 3
A134  DC3D18EC           const [10]: (-333955620)
A138  01                 const type 3
A139  00971C22           const [11]: (572299008)
A13D  03                 const type 3
A13E  00000000           const [12]: (0)
A142  01                 const type 3
A143  81624F1E           const [13]: (508519041)
A147  04                 const type 4
A148  05                 string size (5)
A149  62616E6B00         "bank\0"
                         const [14]: "bank"
A14E  01                 const type 3
A14F  FFEBD2ED           const [15]: (-304944129)
A153  01                 const type 3
A154  8CFD9750           const [16]: (1352138124)
                         * functions:
A158  00                 sizep (0)
                         * lines:
A159  4E                 sizelineinfo (78)
                         [pc] (line)
A15A  84                 [01] (-124)
A15B  04                 [02] (-124)
A15C  00                 [03] (-124)
A15D  00                 [04] (-124)
A15E  84                 [05] (-124)
A15F  04                 [06] (-123)
A160  00                 [07] (-123)
A161  00                 [08] (-123)
A162  84                 [09] (-123)
A163  04                 [10] (-123)
A164  00                 [11] (-122)
A165  00                 [12] (-122)
A166  84                 [13] (-122)
A167  04                 [14] (-122)
A168  00                 [15] (-122)
A169  00                 [16] (-121)
A16A  84                 [17] (-121)
A16B  04                 [18] (-121)
A16C  00                 [19] (-121)
A16D  00                 [20] (-121)
A16E  85                 [21] (-119)
A16F  04                 [22] (-119)
A170  00                 [23] (-119)
A171  00                 [24] (-119)
A172  85                 [25] (-119)
A173  04                 [26] (-119)
A174  00                 [27] (-118)
A175  00                 [28] (-118)
A176  85                 [29] (-118)
A177  04                 [30] (-118)
A178  00                 [31] (-117)
A179  00                 [32] (-117)
A17A  85                 [33] (-117)
A17B  04                 [34] (-117)
A17C  00                 [35] (-117)
A17D  00                 [36] (-116)
A17E  85                 [37] (-116)
A17F  04                 [38] (-116)
A180  00                 [39] (-116)
A181  00                 [40] (-114)
A182  86                 [41] (-114)
A183  04                 [42] (-114)
A184  00                 [43] (-114)
A185  00                 [44] (-114)
A186  86                 [45] (-114)
A187  04                 [46] (-114)
A188  00                 [47] (-114)
A189  00                 [48] (-113)
A18A  86                 [49] (-113)
A18B  04                 [50] (-113)
A18C  00                 [51] (-113)
A18D  00                 [52] (-111)
A18E  86                 [53] (-111)
A18F  04                 [54] (-111)
A190  00                 [55] (-111)
A191  00                 [56] (-111)
A192  86                 [57] (-111)
A193  04                 [58] (-111)
A194  00                 [59] (-111)
A195  00                 [60] (-111)
A196  87                 [61] (-111)
A197  04                 [62] (-111)
A198  00                 [63] (-111)
A199  00                 [64] (-111)
A19A  87                 [65] (-111)
A19B  04                 [66] (-111)
A19C  00                 [67] (-111)
A19D  00                 [68] (-111)
A19E  87                 [69] (-110)
A19F  04                 [70] (-110)
A1A0  00                 [71] (-110)
A1A1  00                 [72] (-110)
A1A2  87                 [73] (-109)
A1A3  04                 [74] (-108)
A1A4  00                 [75] (-108)
A1A5  00                 [76] (-108)
A1A6  87                 [77] (-108)
A1A7  04                 [78] (-106)
                         * locals:
A292  00                 sizelocvars (0)
                         * upvalues:
A293  00                 sizeupvalues (0)
                         ** end of function **

                         
A294                     ** function [27] definition (level 2)
                         ** start of function **
A294  00                 string size (0)
                         source name: (none)
A296  09                 line defined (1176)
A297  A4                 last line defined (1188)
A298  09                 nups (1)
A299  01                 numparams (0)
A29A  00                 is_vararg (0)
A29B  00                 maxstacksize (7)
                         * code:
A29D  2A                 sizecode (42)
A29E  1D000000           [01] getglobal  0   0        ; -174740002
A2A2  5D400000           [02] getglobal  1   1        ; mMovie
A2A6  6480C000           [03] self       1   1   258  ; 1803241227
A2AA  D9C00000           [04] loadk      3   3        ; "_xmouse"
A2AE  62008001           [05] call       1   3   0  
A2B2  22800000           [06] call       0   0   2  
A2B6  5D000000           [07] getglobal  1   0        ; -174740002
A2BA  9D400000           [08] getglobal  2   1        ; mMovie
A2BE  A4804001           [09] self       2   2   258  ; 1803241227
A2C2  19010100           [10] loadk      4   4        ; "_ymouse"
A2C6  A2008001           [11] call       2   3   0  
A2CA  62800000           [12] call       1   0   2  
A2CE  9D000000           [13] getglobal  2   0        ; -174740002
A2D2  DD400000           [14] getglobal  3   1        ; mMovie
A2D6  E480C001           [15] self       3   3   258  ; 1803241227
A2DA  59410100           [16] loadk      5   5        ; "TreasuresList._screenX"
A2DE  E2008001           [17] call       3   3   0  
A2E2  A2800000           [18] call       2   0   2  
A2E6  DD000000           [19] getglobal  3   0        ; -174740002
A2EA  1D410000           [20] getglobal  4   1        ; mMovie
A2EE  24814002           [21] self       4   4   258  ; 1803241227
A2F2  99810100           [22] loadk      6   6        ; "TreasuresList._screenY"
A2F6  22018001           [23] call       4   3   0  
A2FA  E2800000           [24] call       3   0   2  
A2FE  13010000           [25] getupval   4   0      
A302  0EC14102           [26] gettable   4   4   263  ; "Width"
A306  03010101           [27] add        4   2   4  
A30A  53010000           [28] getupval   5   0      
A30E  4E01C202           [29] gettable   5   5   264  ; "Height"
A312  43418101           [30] add        5   3   5  
fail op	33
A316  21000001           [31] tforloop   0       0    ; to [33] if exit
A31A  1A400180           [32] jmp        6            ; to [39]
fail op	33
A31E  21000100           [33] tforloop   0       4    ; to [35] if exit
A322  1AC00080           [34] jmp        4            ; to [39]
fail op	33
A326  21408001           [35] tforloop   0       1    ; to [37] if exit
A32A  1A400080           [36] jmp        2            ; to [39]
fail op	33
A32E  61408100           [37] tforloop   1       5    ; to [39] if exit
A332  1A000080           [38] jmp        1            ; to [40]
A336  97410000           [39] loadbool   6   0   1    ; false, to [41]
A33A  97018000           [40] loadbool   6   1   0    ; true
A33E  9E010001           [41] return     6   2      
A342  1E008000           [42] return     0   1      
                         * constants:
A346  09                 sizek (9)
A347  01                 const type 3
A348  DEAD95F5           const [0]: (-174740002)
A34C  04                 const type 4
A34D  07                 string size (7)
A34E  6D4D6F76696500     "mMovie\0"
                         const [1]: "mMovie"
A355  01                 const type 3
A356  0B477B6B           const [2]: (1803241227)
A35A  04                 const type 4
A35B  08                 string size (8)
A35C  5F786D6F75736500   "_xmouse\0"
                         const [3]: "_xmouse"
A364  04                 const type 4
A365  08                 string size (8)
A366  5F796D6F75736500   "_ymouse\0"
                         const [4]: "_ymouse"
A36E  04                 const type 4
A36F  17                 string size (23)
A370  5472656173757265+  "Treasure"
A378  734C6973742E5F73+  "sList._s"
A380  637265656E5800     "creenX\0"
                         const [5]: "TreasuresList._screenX"
A387  04                 const type 4
A388  17                 string size (23)
A389  5472656173757265+  "Treasure"
A391  734C6973742E5F73+  "sList._s"
A399  637265656E5900     "creenY\0"
                         const [6]: "TreasuresList._screenY"
A3A0  04                 const type 4
A3A1  06                 string size (6)
A3A2  576964746800       "Width\0"
                         const [7]: "Width"
A3A8  04                 const type 4
A3A9  07                 string size (7)
A3AA  48656967687400     "Height\0"
                         const [8]: "Height"
                         * functions:
A3B1  00                 sizep (0)
                         * lines:
A3B2  2A                 sizelineinfo (42)
                         [pc] (line)
A3B3  99                 [01] (-103)
A3B4  04                 [02] (-103)
A3B5  00                 [03] (-103)
A3B6  00                 [04] (-103)
A3B7  99                 [05] (-103)
A3B8  04                 [06] (-103)
A3B9  00                 [07] (-102)
A3BA  00                 [08] (-102)
A3BB  99                 [09] (-102)
A3BC  04                 [10] (-102)
A3BD  00                 [11] (-102)
A3BE  00                 [12] (-102)
A3BF  99                 [13] (-101)
A3C0  04                 [14] (-101)
A3C1  00                 [15] (-101)
A3C2  00                 [16] (-101)
A3C3  99                 [17] (-101)
A3C4  04                 [18] (-101)
A3C5  00                 [19] (-100)
A3C6  00                 [20] (-100)
A3C7  99                 [21] (-100)
A3C8  04                 [22] (-100)
A3C9  00                 [23] (-100)
A3CA  00                 [24] (-100)
A3CB  9A                 [25] (-99)
A3CC  04                 [26] (-99)
A3CD  00                 [27] (-99)
A3CE  00                 [28] (-98)
A3CF  9A                 [29] (-98)
A3D0  04                 [30] (-98)
A3D1  00                 [31] (-96)
A3D2  00                 [32] (-96)
A3D3  9A                 [33] (-95)
A3D4  04                 [34] (-95)
A3D5  00                 [35] (-94)
A3D6  00                 [36] (-94)
A3D7  9A                 [37] (-93)
A3D8  04                 [38] (-93)
A3D9  00                 [39] (-93)
A3DA  00                 [40] (-93)
A3DB  9A                 [41] (-93)
A3DC  04                 [42] (-92)
                         * locals:
A45B  00                 sizelocvars (0)
                         * upvalues:
A45C  00                 sizeupvalues (0)
                         ** end of function **

                         
A45D                     ** function [28] definition (level 2)
                         ** start of function **
A45D  00                 string size (0)
                         source name: (none)
A45F  09                 line defined (1190)
A460  EC                 last line defined (1260)
A461  09                 nups (23)
A462  17                 numparams (0)
A463  00                 is_vararg (0)
A464  00                 maxstacksize (12)
                         * code:
A467  02                 sizecode (265)
A468  1D000000           [001] getglobal  0   0        ; 1074689893
A46C  5D400000           [002] getglobal  1   1        ; mMovie
A470  22800001           [003] call       0   2   2  
A474  18000000           [004] test       0       0    ; to [6] if true
A478  1A000080           [005] jmp        1            ; to [7]
A47C  1E008000           [006] return     0   1      
A480  1D400000           [007] getglobal  0   1        ; mMovie
A484  24804000           [008] self       0   0   258  ; 1649906088
A488  9DC00000           [009] getglobal  2   3        ; _T
A48C  8E004101           [010] gettable   2   2   260  ; "TopMenuOpen"
fail op	35
A490  63404101           [011] close      1  
A494  1A800180           [012] jmp        7            ; to [20]
A498  9DC00000           [013] getglobal  2   3        ; _T
A49C  8E004101           [014] gettable   2   2   260  ; "TopMenuOpen"
A4A0  98000000           [015] test       2       0    ; to [17] if true
A4A4  1A800080           [016] jmp        3            ; to [20]
A4A8  93000000           [017] getupval   2   0      
A4AC  98000000           [018] test       2       0    ; to [20] if true
A4B0  1A400080           [019] jmp        2            ; to [22]
A4B4  93008000           [020] getupval   2   1      
fail op	9
A4B8  89000001           [021] settable   2   2   0  
A4BC  22408001           [022] call       0   3   1  
A4C0  1D000000           [023] getglobal  0   0        ; 1074689893
A4C4  53000001           [024] getupval   1   2      
A4C8  22800001           [025] call       0   2   2  
A4CC  18400000           [026] test       0       1    ; to [28] if false
A4D0  1A800280           [027] jmp        11           ; to [39]
A4D4  1D800100           [028] getglobal  0   6        ; Engine
A4D8  0EC04100           [029] gettable   0   0   263  ; -1802437008
A4DC  22808000           [030] call       0   1   2  
A4E0  18000000           [031] test       0       0    ; to [33] if true
A4E4  1A400180           [032] jmp        6            ; to [39]
A4E8  1D400000           [033] getglobal  0   1        ; mMovie
A4EC  24004200           [034] self       0   0   264  ; -1443109027
A4F0  93008001           [035] getupval   2   3      
A4F4  A2808000           [036] call       2   1   2  
fail op	9
A4F8  89000001           [037] settable   2   2   0  
A4FC  22408001           [038] call       0   3   1  
A500  1D400000           [039] getglobal  0   1        ; mMovie
A504  24404200           [040] self       0   0   265  ; 135097114
A508  9D800200           [041] getglobal  2   10       ; 1661359502
A50C  A2008000           [042] call       2   1   0  
A510  22400000           [043] call       0   0   1  
A514  1D000000           [044] getglobal  0   0        ; 1074689893
A518  53000002           [045] getupval   1   4      
A51C  22800001           [046] call       0   2   2  
A520  18400000           [047] test       0       1    ; to [49] if false
A524  1A800080           [048] jmp        3            ; to [52]
A528  13000002           [049] getupval   0   4      
A52C  24C04200           [050] self       0   0   267  ; -1938777623
A530  22400001           [051] call       0   2   1  
A534  13008002           [052] getupval   0   5      
A538  0E004300           [053] gettable   0   0   268  ; "IsLoading"
A53C  18000000           [054] test       0       0    ; to [56] if true
A540  1AC00780           [055] jmp        32           ; to [88]
A544  1D000000           [056] getglobal  0   0        ; 1074689893
A548  53008002           [057] getupval   1   5      
A54C  4E40C300           [058] gettable   1   1   269  ; "Loader"
A550  22800001           [059] call       0   2   2  
A554  18400000           [060] test       0       1    ; to [62] if false
A558  1A400680           [061] jmp        26           ; to [88]
A55C  13008002           [062] getupval   0   5      
A560  0E404300           [063] gettable   0   0   269  ; "Loader"
A564  24804300           [064] self       0   0   270  ; -1344420604
A568  22800001           [065] call       0   2   2  
A56C  18000000           [066] test       0       0    ; to [68] if true
A570  1AC00480           [067] jmp        20           ; to [88]
A574  13008002           [068] getupval   0   5      
A578  0CC04386           [069] settable   0   268 271  ; "IsLoading" 0
A57C  13000002           [070] getupval   0   4      
A580  24004400           [071] self       0   0   272  ; -492641364
A584  97000000           [072] loadbool   2   0   0    ; false
A588  22408001           [073] call       0   3   1  
A58C  13000003           [074] getupval   0   6      
A590  22408000           [075] call       0   1   1  
A594  1D400000           [076] getglobal  0   1        ; mMovie
A598  24404400           [077] self       0   0   273  ; 471456102
A59C  99800400           [078] loadk      2   18       ; "TopMenu"
A5A0  D9C00400           [079] loadk      3   19       ; "_visible"
A5A4  17018000           [080] loadbool   4   1   0    ; true
A5A8  22408002           [081] call       0   5   1  
A5AC  1D400000           [082] getglobal  0   1        ; mMovie
A5B0  24404400           [083] self       0   0   273  ; 471456102
A5B4  99000500           [084] loadk      2   20       ; "TreasuresList"
A5B8  D9C00400           [085] loadk      3   19       ; "_visible"
A5BC  17018000           [086] loadbool   4   1   0    ; true
A5C0  22408002           [087] call       0   5   1  
A5C4  13008003           [088] getupval   0   7      
A5C8  0E004300           [089] gettable   0   0   268  ; "IsLoading"
A5CC  18000000           [090] test       0       0    ; to [92] if true
A5D0  1AC00A80           [091] jmp        44           ; to [136]
A5D4  1D000000           [092] getglobal  0   0        ; 1074689893
A5D8  53008003           [093] getupval   1   7      
A5DC  4E40C300           [094] gettable   1   1   269  ; "Loader"
A5E0  22800001           [095] call       0   2   2  
A5E4  18400000           [096] test       0       1    ; to [98] if false
A5E8  1A400980           [097] jmp        38           ; to [136]
A5EC  13008003           [098] getupval   0   7      
A5F0  0E404300           [099] gettable   0   0   269  ; "Loader"
A5F4  24804300           [100] self       0   0   270  ; -1344420604
A5F8  22800001           [101] call       0   2   2  
A5FC  18000000           [102] test       0       0    ; to [104] if true
A600  1AC00780           [103] jmp        32           ; to [136]
A604  13008003           [104] getupval   0   7      
A608  0CC04386           [105] settable   0   268 271  ; "IsLoading" 0
A60C  13000002           [106] getupval   0   4      
A610  24004400           [107] self       0   0   272  ; -492641364
A614  97000000           [108] loadbool   2   0   0    ; false
A618  22408001           [109] call       0   3   1  
A61C  13000004           [110] getupval   0   8      
A620  22408000           [111] call       0   1   1  
A624  13008004           [112] getupval   0   9      
A628  0E404500           [113] gettable   0   0   277  ; -617354062
A62C  5D400000           [114] getglobal  1   1        ; mMovie
A630  99800500           [115] loadk      2   22       ; 0
A634  D9C00500           [116] loadk      3   23       ; 0
A638  19810500           [117] loadk      4   22       ; 0
A63C  65010000           [118] closure    5   0      
A640  13000005           [119] getupval   0   10     
A644  22400003           [120] call       0   6   1  
A648  1D000600           [121] getglobal  0   24       ; 1390508688
A64C  5D400000           [122] getglobal  1   1        ; mMovie
A650  99400600           [123] loadk      2   25       ; "TreasureInfo"
A654  DD800600           [124] getglobal  3   26       ; UISys
A658  CEC0C601           [125] gettable   3   3   283  ; "FlashInstance_SMOOTH_STEP"
A65C  0B018000           [126] newtable   4   1   0    ; array=1, hash=0
A660  59010700           [127] loadk      5   28       ; "_alpha"
A664  1B418000           [128] setlist    4   1   1    ; index 1 to 1
A668  4B018000           [129] newtable   5   1   0    ; array=1, hash=0
A66C  99410700           [130] loadk      6   29       ; 0
A670  5B418000           [131] setlist    5   1   1    ; index 1 to 1
A674  99C10500           [132] loadk      6   23       ; 0
A678  22408003           [133] call       0   7   1  
A67C  13008005           [134] getupval   0   11     
A680  22408000           [135] call       0   1   1  
A684  13000001           [136] getupval   0   2      
A688  18000000           [137] test       0       0    ; to [139] if true
A68C  1A401F80           [138] jmp        126          ; to [265]
A690  1D000000           [139] getglobal  0   0        ; 1074689893
A694  5D800700           [140] getglobal  1   30       ; gBackgroundRegion
A698  22800001           [141] call       0   2   2  
A69C  18400000           [142] test       0       1    ; to [144] if false
A6A0  1A001E80           [143] jmp        121          ; to [265]
A6A4  13000006           [144] getupval   0   12     
A6A8  22808000           [145] call       0   1   2  
A6AC  5D800100           [146] getglobal  1   6        ; Engine
A6B0  4EC0C100           [147] gettable   1   1   263  ; -1802437008
A6B4  62808000           [148] call       1   1   2  
A6B8  93000005           [149] getupval   2   10     
A6BC  98400000           [150] test       2       1    ; to [152] if false
A6C0  1A001B80           [151] jmp        109          ; to [261]
A6C4  93008006           [152] getupval   2   13     
A6C8  98400000           [153] test       2       1    ; to [155] if false
A6CC  1A400080           [154] jmp        2            ; to [157]
A6D0  58000000           [155] test       1       0    ; to [157] if true
A6D4  1AC01980           [156] jmp        104          ; to [261]
A6D8  9D000000           [157] getglobal  2   0        ; 1074689893
A6DC  D3008003           [158] getupval   3   7      
A6E0  CEC0C701           [159] gettable   3   3   287  ; "Parent"
A6E4  A2800001           [160] call       2   2   2  
A6E8  98400000           [161] test       2       1    ; to [163] if false
A6EC  1A401880           [162] jmp        98           ; to [261]
A6F0  9D000000           [163] getglobal  2   0        ; 1074689893
A6F4  D3000007           [164] getupval   3   14     
A6F8  A2800001           [165] call       2   2   2  
A6FC  98400000           [166] test       2       1    ; to [168] if false
A700  1A001780           [167] jmp        93           ; to [261]
A704  58400000           [168] test       1       1    ; to [170] if false
A708  1A400180           [169] jmp        6            ; to [176]
A70C  8E004800           [170] gettable   2   0   288  ; "x"
fail op	35
A710  63404801           [171] close      1  
A714  1AC01580           [172] jmp        88           ; to [261]
A718  8E804800           [173] gettable   2   0   290  ; "y"
fail op	35
A71C  63404801           [174] close      1  
A720  1A001580           [175] jmp        85           ; to [261]
A724  58400000           [176] test       1       1    ; to [178] if false
A728  1A000280           [177] jmp        9            ; to [187]
A72C  93008007           [178] getupval   2   15     
A730  8E004801           [179] gettable   2   2   288  ; "x"
fail op	35
A734  23404801           [180] close      0  
A738  1A000180           [181] jmp        5            ; to [187]
A73C  93008007           [182] getupval   2   15     
A740  8E804801           [183] gettable   2   2   290  ; "y"
fail op	35
A744  23404801           [184] close      0  
A748  1A000080           [185] jmp        1            ; to [187]
fail op	8
A74C  08008007           [186] setupval   0   15     
A750  99C00800           [187] loadk      2   35       ; 0
A754  D3008004           [188] getupval   3   9      
A758  CE00C901           [189] gettable   3   3   292  ; -132701534
A75C  12018000           [190] move       4   1      
A760  53010008           [191] getupval   5   16     
A764  4E01C802           [192] gettable   5   5   288  ; "x"
A768  4441C902           [193] mul        5   5   293  ; 0
A76C  8E014800           [194] gettable   6   0   288  ; "x"
A770  D3018007           [195] getupval   7   15     
A774  CE01C803           [196] gettable   7   7   288  ; "x"
A778  8DC10103           [197] sub        6   6   7  
A77C  9C810003           [198] div        6   6   2  
A780  E2800002           [199] call       3   4   2  
A784  13018004           [200] getupval   4   9      
A788  0E014902           [201] gettable   4   4   292  ; -132701534
A78C  52018000           [202] move       5   1      
A790  93010008           [203] getupval   6   16     
A794  8E814803           [204] gettable   6   6   290  ; "y"
A798  84414903           [205] mul        6   6   293  ; 0
A79C  CE814800           [206] gettable   7   0   290  ; "y"
A7A0  13028007           [207] getupval   8   15     
A7A4  0E824804           [208] gettable   8   8   290  ; "y"
A7A8  CD018203           [209] sub        7   7   8  
A7AC  DC818003           [210] div        7   7   2  
A7B0  22810002           [211] call       4   4   2  
fail op	8
A7B4  08008007           [212] setupval   0   15     
fail op	35
A7B8  2380C501           [213] close      0  
A7BC  1A400080           [214] jmp        2            ; to [217]
fail op	35
A7C0  63804502           [215] close      1  
A7C4  1AC00A80           [216] jmp        44           ; to [261]
A7C8  53018008           [217] getupval   5   17     
A7CC  6481C902           [218] self       5   5   294  ; -617311420
A7D0  D3018008           [219] getupval   7   17     
A7D4  CEC1C903           [220] gettable   7   7   295  ; "mTargetVal"
A7D8  C3C18003           [221] add        7   7   3  
A7DC  62418001           [222] call       5   3   1  
A7E0  53010009           [223] getupval   5   18     
A7E4  6481C902           [224] self       5   5   294  ; -617311420
A7E8  DD010A00           [225] getglobal  7   40       ; 1668611480
A7EC  13020009           [226] getupval   8   18     
A7F0  0EC24904           [227] gettable   8   8   295  ; "mTargetVal"
A7F4  0D020104           [228] sub        8   8   4  
A7F8  53028009           [229] getupval   9   19     
A7FC  4E42CA04           [230] gettable   9   9   297  ; "Min"
A800  93028009           [231] getupval   10  19     
A804  8E824A05           [232] gettable   10  10  298  ; "Max"
A808  E2010002           [233] call       7   4   0  
A80C  62410000           [234] call       5   0   1  
A810  5301000A           [235] getupval   5   20     
fail op	21
A814  1540018B           [236] concat     0   278 5  
A818  1A800580           [237] jmp        23           ; to [261]
A81C  5301000A           [238] getupval   5   20     
A820  9DC10A00           [239] getglobal  6   43       ; math
A824  8E014B03           [240] gettable   6   6   300  ; -113279800
A828  D2018001           [241] move       7   3      
A82C  A2810001           [242] call       6   2   2  
A830  4D818102           [243] sub        5   5   6  
fail op	8
A834  4801000A           [244] setupval   5   20     
A838  5301000A           [245] getupval   5   20     
fail op	33
A83C  2180C502           [246] tforloop   0       278  ; to [248] if exit
A840  1A000380           [247] jmp        13           ; to [261]
A844  5D010600           [248] getglobal  5   24       ; 1390508688
A848  9D410000           [249] getglobal  6   1        ; mMovie
A84C  D9410B00           [250] loadk      7   45       ; "TreasureInfo.RotateHint"
A850  1D820600           [251] getglobal  8   26       ; UISys
A854  0E824B04           [252] gettable   8   8   302  ; "FlashInstance_LINEAR"
A858  4B028000           [253] newtable   9   1   0    ; array=1, hash=0
A85C  99020700           [254] loadk      10  28       ; "_alpha"
A860  5B428000           [255] setlist    9   1   1    ; index 1 to 1
A864  8B028000           [256] newtable   10  1   0    ; array=1, hash=0
A868  D9820500           [257] loadk      11  22       ; 0
A86C  9B428000           [258] setlist    10  1   1    ; index 1 to 1
A870  D9C20B00           [259] loadk      11  47       ; 0
A874  62418003           [260] call       5   7   1  
A878  5301800A           [261] getupval   5   21     
A87C  62418000           [262] call       5   1   1  
A880  5301000B           [263] getupval   5   22     
A884  62418000           [264] call       5   1   1  
A888  1E008000           [265] return     0   1      
                         * constants:
A88C  30                 sizek (48)
A88D  01                 const type 3
A88E  65770E40           const [0]: (1074689893)
A892  04                 const type 4
A893  07                 string size (7)
A894  6D4D6F76696500     "mMovie\0"
                         const [1]: "mMovie"
A89B  01                 const type 3
A89C  A8915762           const [2]: (1649906088)
A8A0  04                 const type 4
A8A1  03                 string size (3)
A8A2  5F5400             "_T\0"
                         const [3]: "_T"
A8A5  04                 const type 4
A8A6  0C                 string size (12)
A8A7  546F704D656E754F+  "TopMenuO"
A8AF  70656E00           "pen\0"
                         const [4]: "TopMenuOpen"
A8B3  00                 const type 0
                         const [5]: nil
A8B4  04                 const type 4
A8B5  07                 string size (7)
A8B6  456E67696E6500     "Engine\0"
                         const [6]: "Engine"
A8BD  01                 const type 3
A8BE  70FE9094           const [7]: (-1802437008)
A8C2  01                 const type 3
A8C3  5DE7FBA9           const [8]: (-1443109027)
A8C7  01                 const type 3
A8C8  1A6B0D08           const [9]: (135097114)
A8CC  01                 const type 3
A8CD  8E550663           const [10]: (1661359502)
A8D1  01                 const type 3
A8D2  E999708C           const [11]: (-1938777623)
A8D6  04                 const type 4
A8D7  0A                 string size (10)
A8D8  49734C6F6164696E+  "IsLoadin"
A8E0  6700               "g\0"
                         const [12]: "IsLoading"
A8E2  04                 const type 4
A8E3  07                 string size (7)
A8E4  4C6F6164657200     "Loader\0"
                         const [13]: "Loader"
A8EB  01                 const type 3
A8EC  04C5DDAF           const [14]: (-1344420604)
A8F0  01                 const type 3
A8F1  00000000           const [15]: (0)
A8F5  01                 const type 3
A8F6  ACE3A2E2           const [16]: (-492641364)
A8FA  01                 const type 3
A8FB  66D9191C           const [17]: (471456102)
A8FF  04                 const type 4
A900  08                 string size (8)
A901  546F704D656E7500   "TopMenu\0"
                         const [18]: "TopMenu"
A909  04                 const type 4
A90A  09                 string size (9)
A90B  5F76697369626C65+  "_visible"
A913  00                 "\0"
                         const [19]: "_visible"
A914  04                 const type 4
A915  0E                 string size (14)
A916  5472656173757265+  "Treasure"
A91E  734C69737400       "sList\0"
                         const [20]: "TreasuresList"
A924  01                 const type 3
A925  B2EC33DB           const [21]: (-617354062)
A929  03                 const type 3
A92A  00000000           const [22]: (0)
A92E  03                 const type 3
A92F  0000803E           const [23]: (0)
A933  01                 const type 3
A934  907AE152           const [24]: (1390508688)
A938  04                 const type 4
A939  0D                 string size (13)
A93A  5472656173757265+  "Treasure"
A942  496E666F00         "Info\0"
                         const [25]: "TreasureInfo"
A947  04                 const type 4
A948  06                 string size (6)
A949  554953797300       "UISys\0"
                         const [26]: "UISys"
A94F  04                 const type 4
A950  1A                 string size (26)
A951  466C617368496E73+  "FlashIns"
A959  74616E63655F534D+  "tance_SM"
A961  4F4F54485F535445+  "OOTH_STE"
A969  5000               "P\0"
                         const [27]: "FlashInstance_SMOOTH_STEP"
A96B  04                 const type 4
A96C  07                 string size (7)
A96D  5F616C70686100     "_alpha\0"
                         const [28]: "_alpha"
A974  03                 const type 3
A975  0000C842           const [29]: (0)
A979  04                 const type 4
A97A  12                 string size (18)
A97B  674261636B67726F+  "gBackgro"
A983  756E64526567696F+  "undRegio"
A98B  6E00               "n\0"
                         const [30]: "gBackgroundRegion"
A98D  04                 const type 4
A98E  07                 string size (7)
A98F  506172656E7400     "Parent\0"
                         const [31]: "Parent"
A996  04                 const type 4
A997  02                 string size (2)
A998  7800               "x\0"
                         const [32]: "x"
A99A  03                 const type 3
A99B  00007AC4           const [33]: (0)
A99F  04                 const type 4
A9A0  02                 string size (2)
A9A1  7900               "y\0"
                         const [34]: "y"
A9A3  03                 const type 3
A9A4  0000E040           const [35]: (0)
A9A8  01                 const type 3
A9A9  A22217F8           const [36]: (-132701534)
A9AD  03                 const type 3
A9AE  00004040           const [37]: (0)
A9B2  01                 const type 3
A9B3  449334DB           const [38]: (-617311420)
A9B7  04                 const type 4
A9B8  0B                 string size (11)
A9B9  6D54617267657456+  "mTargetV"
A9C1  616C00             "al\0"
                         const [39]: "mTargetVal"
A9C4  01                 const type 3
A9C5  98FD7463           const [40]: (1668611480)
A9C9  04                 const type 4
A9CA  04                 string size (4)
A9CB  4D696E00           "Min\0"
                         const [41]: "Min"
A9CF  04                 const type 4
A9D0  04                 string size (4)
A9D1  4D617800           "Max\0"
                         const [42]: "Max"
A9D5  04                 const type 4
A9D6  05                 string size (5)
A9D7  6D61746800         "math\0"
                         const [43]: "math"
A9DC  01                 const type 3
A9DD  C87C3FF9           const [44]: (-113279800)
A9E1  04                 const type 4
A9E2  18                 string size (24)
A9E3  5472656173757265+  "Treasure"
A9EB  496E666F2E526F74+  "Info.Rot"
A9F3  61746548696E7400   "ateHint\0"
                         const [45]: "TreasureInfo.RotateHint"
A9FB  04                 const type 4
A9FC  15                 string size (21)
A9FD  466C617368496E73+  "FlashIns"
AA05  74616E63655F4C49+  "tance_LI"
AA0D  4E45415200         "NEAR\0"
                         const [46]: "FlashInstance_LINEAR"
AA12  03                 const type 3
AA13  0000003F           const [47]: (0)
                         * functions:
AA17  01                 sizep (1)
                         
AA18                     ** function [0] definition (level 3)
                         ** start of function **
AA18  00                 string size (0)
                         source name: (none)
AA1A  09                 line defined (1219)
AA1B  C3                 last line defined (1219)
AA1C  09                 nups (1)
AA1D  01                 numparams (0)
AA1E  00                 is_vararg (0)
AA1F  00                 maxstacksize (2)
                         * code:
AA21  03                 sizecode (3)
AA22  17000000           [1] loadbool   0   0   0    ; false
fail op	8
AA26  08000000           [2] setupval   0   0      
AA2A  1E008000           [3] return     0   1      
                         * constants:
AA2E  00                 sizek (0)
                         * functions:
AA2F  00                 sizep (0)
                         * lines:
AA30  03                 sizelineinfo (3)
                         [pc] (line)
AA31  C3                 [1] (-61)
AA32  04                 [2] (-61)
AA33  00                 [3] (-61)
                         * locals:
AA3D  00                 sizelocvars (0)
                         * upvalues:
AA3E  00                 sizeupvalues (0)
                         ** end of function **

                         * lines:
AA40  02                 sizelineinfo (265)
                         [pc] (line)
AA41  A7                 [001] (-89)
AA42  04                 [002] (-89)
AA43  00                 [003] (-89)
AA44  00                 [004] (-89)
AA45  A7                 [005] (-89)
AA46  04                 [006] (-88)
AA47  00                 [007] (-85)
AA48  00                 [008] (-85)
AA49  A7                 [009] (-85)
AA4A  04                 [010] (-85)
AA4B  00                 [011] (-85)
AA4C  00                 [012] (-85)
AA4D  A7                 [013] (-85)
AA4E  04                 [014] (-85)
AA4F  00                 [015] (-85)
AA50  00                 [016] (-85)
AA51  A7                 [017] (-85)
AA52  04                 [018] (-85)
AA53  00                 [019] (-85)
AA54  00                 [020] (-85)
AA55  A8                 [021] (-85)
AA56  04                 [022] (-85)
AA57  00                 [023] (-84)
AA58  00                 [024] (-84)
AA59  AB                 [025] (-84)
AA5A  04                 [026] (-84)
AA5B  00                 [027] (-84)
AA5C  00                 [028] (-84)
AA5D  AB                 [029] (-84)
AA5E  04                 [030] (-84)
AA5F  00                 [031] (-84)
AA60  00                 [032] (-84)
AA61  AB                 [033] (-83)
AA62  04                 [034] (-83)
AA63  00                 [035] (-83)
AA64  00                 [036] (-83)
AA65  AB                 [037] (-83)
AA66  04                 [038] (-83)
AA67  00                 [039] (-80)
AA68  00                 [040] (-80)
AA69  AB                 [041] (-80)
AA6A  04                 [042] (-80)
AA6B  00                 [043] (-80)
AA6C  00                 [044] (-78)
AA6D  AB                 [045] (-78)
AA6E  04                 [046] (-78)
AA6F  00                 [047] (-78)
AA70  00                 [048] (-78)
AA71  AB                 [049] (-77)
AA72  04                 [050] (-77)
AA73  00                 [051] (-77)
AA74  00                 [052] (-74)
AA75  AB                 [053] (-74)
AA76  04                 [054] (-74)
AA77  00                 [055] (-74)
AA78  00                 [056] (-74)
AA79  AB                 [057] (-74)
AA7A  04                 [058] (-74)
AA7B  00                 [059] (-74)
AA7C  00                 [060] (-74)
AA7D  AB                 [061] (-74)
AA7E  04                 [062] (-74)
AA7F  00                 [063] (-74)
AA80  00                 [064] (-74)
AA81  AB                 [065] (-74)
AA82  04                 [066] (-74)
AA83  00                 [067] (-74)
AA84  00                 [068] (-73)
AA85  AB                 [069] (-73)
AA86  04                 [070] (-72)
AA87  00                 [071] (-72)
AA88  00                 [072] (-72)
AA89  AB                 [073] (-72)
AA8A  04                 [074] (-70)
AA8B  00                 [075] (-70)
AA8C  00                 [076] (-69)
AA8D  AB                 [077] (-69)
AA8E  04                 [078] (-69)
AA8F  00                 [079] (-69)
AA90  00                 [080] (-69)
AA91  AB                 [081] (-69)
AA92  04                 [082] (-68)
AA93  00                 [083] (-68)
AA94  00                 [084] (-68)
AA95  AB                 [085] (-68)
AA96  04                 [086] (-68)
AA97  00                 [087] (-68)
AA98  00                 [088] (-65)
AA99  AC                 [089] (-65)
AA9A  04                 [090] (-65)
AA9B  00                 [091] (-65)
AA9C  00                 [092] (-65)
AA9D  AC                 [093] (-65)
AA9E  04                 [094] (-65)
AA9F  00                 [095] (-65)
AAA0  00                 [096] (-65)
AAA1  AC                 [097] (-65)
AAA2  04                 [098] (-65)
AAA3  00                 [099] (-65)
AAA4  00                 [100] (-65)
AAA5  AC                 [101] (-65)
AAA6  04                 [102] (-65)
AAA7  00                 [103] (-65)
AAA8  00                 [104] (-64)
AAA9  AC                 [105] (-64)
AAAA  04                 [106] (-63)
AAAB  00                 [107] (-63)
AAAC  00                 [108] (-63)
AAAD  AC                 [109] (-63)
AAAE  04                 [110] (-62)
AAAF  00                 [111] (-62)
AAB0  00                 [112] (-61)
AAB1  AC                 [113] (-61)
AAB2  04                 [114] (-61)
AAB3  00                 [115] (-61)
AAB4  00                 [116] (-61)
AAB5  AC                 [117] (-61)
AAB6  04                 [118] (-61)
AAB7  00                 [119] (-61)
AAB8  00                 [120] (-61)
AAB9  AC                 [121] (-60)
AABA  04                 [122] (-60)
AABB  00                 [123] (-60)
AABC  00                 [124] (-60)
AABD  AC                 [125] (-60)
AABE  04                 [126] (-60)
AABF  00                 [127] (-60)
AAC0  00                 [128] (-60)
AAC1  AD                 [129] (-60)
AAC2  04                 [130] (-60)
AAC3  00                 [131] (-60)
AAC4  00                 [132] (-60)
AAC5  AD                 [133] (-60)
AAC6  04                 [134] (-58)
AAC7  00                 [135] (-58)
AAC8  00                 [136] (-55)
AAC9  AD                 [137] (-55)
AACA  04                 [138] (-55)
AACB  00                 [139] (-55)
AACC  00                 [140] (-55)
AACD  AD                 [141] (-55)
AACE  04                 [142] (-55)
AACF  00                 [143] (-55)
AAD0  00                 [144] (-54)
AAD1  AD                 [145] (-54)
AAD2  04                 [146] (-53)
AAD3  00                 [147] (-53)
AAD4  00                 [148] (-53)
AAD5  AD                 [149] (-51)
AAD6  04                 [150] (-51)
AAD7  00                 [151] (-51)
AAD8  00                 [152] (-51)
AAD9  B0                 [153] (-51)
AADA  04                 [154] (-51)
AADB  00                 [155] (-51)
AADC  00                 [156] (-51)
AADD  B0                 [157] (-51)
AADE  04                 [158] (-51)
AADF  00                 [159] (-51)
AAE0  00                 [160] (-51)
AAE1  B0                 [161] (-51)
AAE2  04                 [162] (-51)
AAE3  00                 [163] (-51)
AAE4  00                 [164] (-51)
AAE5  B0                 [165] (-51)
AAE6  04                 [166] (-51)
AAE7  00                 [167] (-51)
AAE8  00                 [168] (-49)
AAE9  B0                 [169] (-49)
AAEA  04                 [170] (-49)
AAEB  00                 [171] (-49)
AAEC  00                 [172] (-49)
AAED  B2                 [173] (-49)
AAEE  04                 [174] (-49)
AAEF  00                 [175] (-49)
AAF0  00                 [176] (-48)
AAF1  B2                 [177] (-48)
AAF2  04                 [178] (-48)
AAF3  00                 [179] (-48)
AAF4  00                 [180] (-48)
AAF5  B2                 [181] (-48)
AAF6  04                 [182] (-48)
AAF7  00                 [183] (-48)
AAF8  00                 [184] (-48)
AAF9  B2                 [185] (-48)
AAFA  04                 [186] (-47)
AAFB  00                 [187] (-44)
AAFC  00                 [188] (-43)
AAFD  B2                 [189] (-43)
AAFE  04                 [190] (-43)
AAFF  00                 [191] (-43)
AB00  00                 [192] (-43)
AB01  B3                 [193] (-43)
AB02  04                 [194] (-43)
AB03  00                 [195] (-43)
AB04  00                 [196] (-43)
AB05  B3                 [197] (-43)
AB06  04                 [198] (-43)
AB07  00                 [199] (-43)
AB08  00                 [200] (-42)
AB09  B3                 [201] (-42)
AB0A  04                 [202] (-42)
AB0B  00                 [203] (-42)
AB0C  00                 [204] (-42)
AB0D  B6                 [205] (-42)
AB0E  04                 [206] (-42)
AB0F  00                 [207] (-42)
AB10  00                 [208] (-42)
AB11  B6                 [209] (-42)
AB12  04                 [210] (-42)
AB13  00                 [211] (-42)
AB14  00                 [212] (-40)
AB15  B6                 [213] (-38)
AB16  04                 [214] (-38)
AB17  00                 [215] (-38)
AB18  00                 [216] (-38)
AB19  B6                 [217] (-37)
AB1A  04                 [218] (-37)
AB1B  00                 [219] (-37)
AB1C  00                 [220] (-37)
AB1D  B6                 [221] (-37)
AB1E  04                 [222] (-37)
AB1F  00                 [223] (-36)
AB20  00                 [224] (-36)
AB21  B6                 [225] (-36)
AB22  04                 [226] (-36)
AB23  00                 [227] (-36)
AB24  00                 [228] (-36)
AB25  B6                 [229] (-36)
AB26  04                 [230] (-36)
AB27  00                 [231] (-36)
AB28  00                 [232] (-36)
AB29  B6                 [233] (-36)
AB2A  04                 [234] (-36)
AB2B  00                 [235] (-34)
AB2C  00                 [236] (-34)
AB2D  B6                 [237] (-34)
AB2E  04                 [238] (-33)
AB2F  00                 [239] (-33)
AB30  00                 [240] (-33)
AB31  B6                 [241] (-33)
AB32  04                 [242] (-33)
AB33  00                 [243] (-33)
AB34  00                 [244] (-33)
AB35  B6                 [245] (-32)
AB36  04                 [246] (-32)
AB37  00                 [247] (-32)
AB38  00                 [248] (-31)
AB39  B6                 [249] (-31)
AB3A  04                 [250] (-31)
AB3B  00                 [251] (-31)
AB3C  00                 [252] (-31)
AB3D  B6                 [253] (-31)
AB3E  04                 [254] (-31)
AB3F  00                 [255] (-31)
AB40  00                 [256] (-31)
AB41  B6                 [257] (-31)
AB42  04                 [258] (-31)
AB43  00                 [259] (-31)
AB44  00                 [260] (-31)
AB45  B6                 [261] (-24)
AB46  04                 [262] (-24)
AB47  00                 [263] (-22)
AB48  00                 [264] (-22)
AB49  B6                 [265] (-20)
                         * locals:
AE65  00                 sizelocvars (0)
                         * upvalues:
AE66  00                 sizeupvalues (0)
                         ** end of function **

                         
AE67                     ** function [29] definition (level 2)
                         ** start of function **
AE67  00                 string size (0)
                         source name: (none)
AE69  09                 line defined (1262)
AE6A  F2                 last line defined (1266)
AE6B  09                 nups (1)
AE6C  01                 numparams (1)
AE6D  01                 is_vararg (0)
AE6E  00                 maxstacksize (5)
                         * code:
AE70  0C                 sizecode (12)
AE71  5D000000           [01] getglobal  1   0        ; 1074689893
AE75  93000000           [02] getupval   2   0      
AE79  62800001           [03] call       1   2   2  
AE7D  58400000           [04] test       1       1    ; to [6] if false
AE81  1A400180           [05] jmp        6            ; to [12]
AE85  53000000           [06] getupval   1   0      
AE89  6440C000           [07] self       1   1   257  ; -1967297336
AE8D  DD800000           [08] getglobal  3   2        ; -174740002
AE91  12010000           [09] move       4   0      
AE95  E2000001           [10] call       3   2   0  
AE99  62400000           [11] call       1   0   1  
AE9D  1E008000           [12] return     0   1      
                         * constants:
AEA1  03                 sizek (3)
AEA2  01                 const type 3
AEA3  65770E40           const [0]: (1074689893)
AEA7  01                 const type 3
AEA8  C86CBD8A           const [1]: (-1967297336)
AEAC  01                 const type 3
AEAD  DEAD95F5           const [2]: (-174740002)
                         * functions:
AEB1  00                 sizep (0)
                         * lines:
AEB2  0C                 sizelineinfo (12)
                         [pc] (line)
AEB3  EF                 [01] (-17)
AEB4  04                 [02] (-17)
AEB5  00                 [03] (-17)
AEB6  00                 [04] (-17)
AEB7  EF                 [05] (-17)
AEB8  04                 [06] (-16)
AEB9  00                 [07] (-16)
AEBA  00                 [08] (-16)
AEBB  EF                 [09] (-16)
AEBC  04                 [10] (-16)
AEBD  00                 [11] (-16)
AEBE  00                 [12] (-14)
                         * locals:
AEE3  00                 sizelocvars (0)
                         * upvalues:
AEE4  00                 sizeupvalues (0)
                         ** end of function **

                         
AEE5                     ** function [30] definition (level 2)
                         ** start of function **
AEE5  00                 string size (0)
                         source name: (none)
AEE7  09                 line defined (1268)
AEE8  F8                 last line defined (1272)
AEE9  09                 nups (1)
AEEA  01                 numparams (1)
AEEB  01                 is_vararg (0)
AEEC  00                 maxstacksize (5)
                         * code:
AEEE  0C                 sizecode (12)
AEEF  5D000000           [01] getglobal  1   0        ; 1074689893
AEF3  93000000           [02] getupval   2   0      
AEF7  62800001           [03] call       1   2   2  
AEFB  58400000           [04] test       1       1    ; to [6] if false
AEFF  1A400180           [05] jmp        6            ; to [12]
AF03  53000000           [06] getupval   1   0      
AF07  6440C000           [07] self       1   1   257  ; 561426718
AF0B  DD800000           [08] getglobal  3   2        ; -174740002
AF0F  12010000           [09] move       4   0      
AF13  E2000001           [10] call       3   2   0  
AF17  62400000           [11] call       1   0   1  
AF1B  1E008000           [12] return     0   1      
                         * constants:
AF1F  03                 sizek (3)
AF20  01                 const type 3
AF21  65770E40           const [0]: (1074689893)
AF25  01                 const type 3
AF26  1EB17621           const [1]: (561426718)
AF2A  01                 const type 3
AF2B  DEAD95F5           const [2]: (-174740002)
                         * functions:
AF2F  00                 sizep (0)
                         * lines:
AF30  0C                 sizelineinfo (12)
                         [pc] (line)
AF31  F5                 [01] (-11)
AF32  04                 [02] (-11)
AF33  00                 [03] (-11)
AF34  00                 [04] (-11)
AF35  F5                 [05] (-11)
AF36  04                 [06] (-10)
AF37  00                 [07] (-10)
AF38  00                 [08] (-10)
AF39  F5                 [09] (-10)
AF3A  04                 [10] (-10)
AF3B  00                 [11] (-10)
AF3C  00                 [12] (-8)
                         * locals:
AF61  00                 sizelocvars (0)
                         * upvalues:
AF62  00                 sizeupvalues (0)
                         ** end of function **

                         
AF63                     ** function [31] definition (level 2)
                         ** start of function **
AF63  00                 string size (0)
                         source name: (none)
AF65  09                 line defined (1274)
AF66  FE                 last line defined (1278)
AF67  09                 nups (2)
AF68  02                 numparams (1)
AF69  01                 is_vararg (0)
AF6A  00                 maxstacksize (5)
                         * code:
AF6C  10                 sizecode (16)
AF6D  53000000           [01] getupval   1   0      
AF71  58400000           [02] test       1       1    ; to [4] if false
AF75  1AC00280           [03] jmp        12           ; to [16]
AF79  5D000000           [04] getglobal  1   0        ; 1074689893
AF7D  93008000           [05] getupval   2   1      
AF81  62800001           [06] call       1   2   2  
AF85  58400000           [07] test       1       1    ; to [9] if false
AF89  1A800180           [08] jmp        7            ; to [16]
AF8D  53008000           [09] getupval   1   1      
AF91  6440C000           [10] self       1   1   257  ; 1002639746
AF95  DD800000           [11] getglobal  3   2        ; -174740002
AF99  12010000           [12] move       4   0      
AF9D  E2800001           [13] call       3   2   2  
AFA1  17018000           [14] loadbool   4   1   0    ; true
AFA5  62400002           [15] call       1   4   1  
AFA9  1E008000           [16] return     0   1      
                         * constants:
AFAD  03                 sizek (3)
AFAE  01                 const type 3
AFAF  65770E40           const [0]: (1074689893)
AFB3  01                 const type 3
AFB4  8211C33B           const [1]: (1002639746)
AFB8  01                 const type 3
AFB9  DEAD95F5           const [2]: (-174740002)
                         * functions:
AFBD  00                 sizep (0)
                         * lines:
AFBE  10                 sizelineinfo (16)
                         [pc] (line)
AFBF  FB                 [01] (-5)
AFC0  04                 [02] (-5)
AFC1  00                 [03] (-5)
AFC2  00                 [04] (-5)
AFC3  FB                 [05] (-5)
AFC4  04                 [06] (-5)
AFC5  00                 [07] (-5)
AFC6  00                 [08] (-5)
AFC7  FB                 [09] (-4)
AFC8  04                 [10] (-4)
AFC9  00                 [11] (-4)
AFCA  00                 [12] (-4)
AFCB  FB                 [13] (-4)
AFCC  04                 [14] (-4)
AFCD  00                 [15] (-4)
AFCE  00                 [16] (-2)
                         * locals:
AFFF  00                 sizelocvars (0)
                         * upvalues:
B000  00                 sizeupvalues (0)
                         ** end of function **

                         
B001                     ** function [32] definition (level 2)
                         ** start of function **
B001  00                 string size (0)
                         source name: (none)
B003  0A                 line defined (1280)
B004  85                 last line defined (1285)
B005  0A                 nups (2)
B006  02                 numparams (1)
B007  01                 is_vararg (0)
B008  00                 maxstacksize (6)
                         * code:
B00A  11                 sizecode (17)
B00B  53000000           [01] getupval   1   0      
B00F  9D000000           [02] getglobal  2   0        ; -174740002
B013  D2000000           [03] move       3   0      
B017  A2000001           [04] call       2   2   0  
B01B  62400000           [05] call       1   0   1  
B01F  53008000           [06] getupval   1   1      
B023  4E40C000           [07] gettable   1   1   257  ; 630793108
B027  9D800000           [08] getglobal  2   2        ; _G
B02B  8EC04001           [09] gettable   2   2   259  ; "UISound_Focus"
B02F  62400001           [10] call       1   2   1  
B033  5D000100           [11] getglobal  1   4        ; mMovie
B037  6440C100           [12] self       1   1   261  ; 471456102
B03B  D9800100           [13] loadk      3   6        ; "SocketInfo"
B03F  19C10100           [14] loadk      4   7        ; "_visible"
B043  57018000           [15] loadbool   5   1   0    ; true
B047  62408002           [16] call       1   5   1  
B04B  1E008000           [17] return     0   1      
                         * constants:
B04F  08                 sizek (8)
B050  01                 const type 3
B051  DEAD95F5           const [0]: (-174740002)
B055  01                 const type 3
B056  94239925           const [1]: (630793108)
B05A  04                 const type 4
B05B  03                 string size (3)
B05C  5F4700             "_G\0"
                         const [2]: "_G"
B05F  04                 const type 4
B060  0E                 string size (14)
B061  5549536F756E645F+  "UISound_"
B069  466F63757300       "Focus\0"
                         const [3]: "UISound_Focus"
B06F  04                 const type 4
B070  07                 string size (7)
B071  6D4D6F76696500     "mMovie\0"
                         const [4]: "mMovie"
B078  01                 const type 3
B079  66D9191C           const [5]: (471456102)
B07D  04                 const type 4
B07E  0B                 string size (11)
B07F  536F636B6574496E+  "SocketIn"
B087  666F00             "fo\0"
                         const [6]: "SocketInfo"
B08A  04                 const type 4
B08B  09                 string size (9)
B08C  5F76697369626C65+  "_visible"
B094  00                 "\0"
                         const [7]: "_visible"
                         * functions:
B095  00                 sizep (0)
                         * lines:
B096  11                 sizelineinfo (17)
                         [pc] (line)
B097  01                 [01] (1)
B098  05                 [02] (1)
B099  00                 [03] (1)
B09A  00                 [04] (1)
B09B  01                 [05] (1)
B09C  05                 [06] (2)
B09D  00                 [07] (2)
B09E  00                 [08] (2)
B09F  01                 [09] (2)
B0A0  05                 [10] (2)
B0A1  00                 [11] (4)
B0A2  00                 [12] (4)
B0A3  01                 [13] (4)
B0A4  05                 [14] (4)
B0A5  00                 [15] (4)
B0A6  00                 [16] (4)
B0A7  01                 [17] (5)
                         * locals:
B0DB  00                 sizelocvars (0)
                         * upvalues:
B0DC  00                 sizeupvalues (0)
                         ** end of function **

                         
B0DD                     ** function [33] definition (level 2)
                         ** start of function **
B0DD  00                 string size (0)
                         source name: (none)
B0DF  0A                 line defined (1287)
B0E0  89                 last line defined (1289)
B0E1  0A                 nups (0)
B0E2  00                 numparams (1)
B0E3  01                 is_vararg (0)
B0E4  00                 maxstacksize (6)
                         * code:
B0E6  07                 sizecode (7)
B0E7  5D000000           [1] getglobal  1   0        ; mMovie
B0EB  6440C000           [2] self       1   1   257  ; 471456102
B0EF  D9800000           [3] loadk      3   2        ; "SocketInfo"
B0F3  19C10000           [4] loadk      4   3        ; "_visible"
B0F7  57010000           [5] loadbool   5   0   0    ; false
B0FB  62408002           [6] call       1   5   1  
B0FF  1E008000           [7] return     0   1      
                         * constants:
B103  04                 sizek (4)
B104  04                 const type 4
B105  07                 string size (7)
B106  6D4D6F76696500     "mMovie\0"
                         const [0]: "mMovie"
B10D  01                 const type 3
B10E  66D9191C           const [1]: (471456102)
B112  04                 const type 4
B113  0B                 string size (11)
B114  536F636B6574496E+  "SocketIn"
B11C  666F00             "fo\0"
                         const [2]: "SocketInfo"
B11F  04                 const type 4
B120  09                 string size (9)
B121  5F76697369626C65+  "_visible"
B129  00                 "\0"
                         const [3]: "_visible"
                         * functions:
B12A  00                 sizep (0)
                         * lines:
B12B  07                 sizelineinfo (7)
                         [pc] (line)
B12C  08                 [1] (8)
B12D  05                 [2] (8)
B12E  00                 [3] (8)
B12F  00                 [4] (8)
B130  08                 [5] (8)
B131  05                 [6] (8)
B132  00                 [7] (9)
                         * locals:
B148  00                 sizelocvars (0)
                         * upvalues:
B149  00                 sizeupvalues (0)
                         ** end of function **

                         
B14A                     ** function [34] definition (level 2)
                         ** start of function **
B14A  00                 string size (0)
                         source name: (none)
B14C  0A                 line defined (1291)
B14D  91                 last line defined (1297)
B14E  0A                 nups (2)
B14F  02                 numparams (1)
B150  01                 is_vararg (0)
B151  00                 maxstacksize (2)
                         * code:
B153  07                 sizecode (7)
B154  53000000           [1] getupval   1   0      
B158  58000000           [2] test       1       0    ; to [4] if true
B15C  1A000080           [3] jmp        1            ; to [5]
B160  1E008000           [4] return     0   1      
B164  53008000           [5] getupval   1   1      
B168  62408000           [6] call       1   1   1  
B16C  1E008000           [7] return     0   1      
                         * constants:
B170  00                 sizek (0)
                         * functions:
B171  00                 sizep (0)
                         * lines:
B172  07                 sizelineinfo (7)
                         [pc] (line)
B173  0C                 [1] (12)
B174  05                 [2] (12)
B175  00                 [3] (12)
B176  00                 [4] (13)
B177  0C                 [5] (16)
B178  05                 [6] (16)
B179  00                 [7] (17)
                         * locals:
B18F  00                 sizelocvars (0)
                         * upvalues:
B190  00                 sizeupvalues (0)
                         ** end of function **

                         
B191                     ** function [35] definition (level 2)
                         ** start of function **
B191  00                 string size (0)
                         source name: (none)
B193  0A                 line defined (1299)
B194  98                 last line defined (1304)
B195  0A                 nups (3)
B196  03                 numparams (0)
B197  00                 is_vararg (0)
B198  00                 maxstacksize (2)
                         * code:
B19A  11                 sizecode (17)
B19B  13000000           [01] getupval   0   0      
B19F  18400000           [02] test       0       1    ; to [4] if false
B1A3  1A800280           [03] jmp        11           ; to [15]
B1A7  1D000000           [04] getglobal  0   0        ; 1074689893
B1AB  53008000           [05] getupval   1   1      
B1AF  22800001           [06] call       0   2   2  
B1B3  18400000           [07] test       0       1    ; to [9] if false
B1B7  1A400180           [08] jmp        6            ; to [15]
B1BB  13000001           [09] getupval   0   2      
fail op	35
B1BF  23404000           [10] close      0  
B1C3  1A800080           [11] jmp        3            ; to [15]
B1C7  13008000           [12] getupval   0   1      
B1CB  24804000           [13] self       0   0   258  ; 651772705
B1CF  22400001           [14] call       0   2   1  
B1D3  17008000           [15] loadbool   0   1   0    ; true
B1D7  1E000001           [16] return     0   2      
B1DB  1E008000           [17] return     0   1      
                         * constants:
B1DF  03                 sizek (3)
B1E0  01                 const type 3
B1E1  65770E40           const [0]: (1074689893)
B1E5  00                 const type 0
                         const [1]: nil
B1E6  01                 const type 3
B1E7  2143D926           const [2]: (651772705)
                         * functions:
B1EB  00                 sizep (0)
                         * lines:
B1EC  11                 sizelineinfo (17)
                         [pc] (line)
B1ED  14                 [01] (20)
B1EE  05                 [02] (20)
B1EF  00                 [03] (20)
B1F0  00                 [04] (20)
B1F1  14                 [05] (20)
B1F2  05                 [06] (20)
B1F3  00                 [07] (20)
B1F4  00                 [08] (20)
B1F5  14                 [09] (20)
B1F6  05                 [10] (20)
B1F7  00                 [11] (20)
B1F8  00                 [12] (21)
B1F9  14                 [13] (21)
B1FA  05                 [14] (21)
B1FB  00                 [15] (23)
B1FC  00                 [16] (23)
B1FD  14                 [17] (24)
                         * locals:
B231  00                 sizelocvars (0)
                         * upvalues:
B232  00                 sizeupvalues (0)
                         ** end of function **

                         
B233                     ** function [36] definition (level 2)
                         ** start of function **
B233  00                 string size (0)
                         source name: (none)
B235  0A                 line defined (1306)
B236  9F                 last line defined (1311)
B237  0A                 nups (3)
B238  03                 numparams (0)
B239  00                 is_vararg (0)
B23A  00                 maxstacksize (2)
                         * code:
B23C  11                 sizecode (17)
B23D  13000000           [01] getupval   0   0      
B241  18400000           [02] test       0       1    ; to [4] if false
B245  1A800280           [03] jmp        11           ; to [15]
B249  1D000000           [04] getglobal  0   0        ; 1074689893
B24D  53008000           [05] getupval   1   1      
B251  22800001           [06] call       0   2   2  
B255  18400000           [07] test       0       1    ; to [9] if false
B259  1A400180           [08] jmp        6            ; to [15]
B25D  13000001           [09] getupval   0   2      
fail op	35
B261  23404000           [10] close      0  
B265  1A800080           [11] jmp        3            ; to [15]
B269  13008000           [12] getupval   0   1      
B26D  24804000           [13] self       0   0   258  ; 1437795008
B271  22400001           [14] call       0   2   1  
B275  17008000           [15] loadbool   0   1   0    ; true
B279  1E000001           [16] return     0   2      
B27D  1E008000           [17] return     0   1      
                         * constants:
B281  03                 sizek (3)
B282  01                 const type 3
B283  65770E40           const [0]: (1074689893)
B287  00                 const type 0
                         const [1]: nil
B288  01                 const type 3
B289  C002B355           const [2]: (1437795008)
                         * functions:
B28D  00                 sizep (0)
                         * lines:
B28E  11                 sizelineinfo (17)
                         [pc] (line)
B28F  1B                 [01] (27)
B290  05                 [02] (27)
B291  00                 [03] (27)
B292  00                 [04] (27)
B293  1B                 [05] (27)
B294  05                 [06] (27)
B295  00                 [07] (27)
B296  00                 [08] (27)
B297  1B                 [09] (27)
B298  05                 [10] (27)
B299  00                 [11] (27)
B29A  00                 [12] (28)
B29B  1B                 [13] (28)
B29C  05                 [14] (28)
B29D  00                 [15] (30)
B29E  00                 [16] (30)
B29F  1B                 [17] (31)
                         * locals:
B2D3  00                 sizelocvars (0)
                         * upvalues:
B2D4  00                 sizeupvalues (0)
                         ** end of function **

                         
B2D5                     ** function [37] definition (level 2)
                         ** start of function **
B2D5  00                 string size (0)
                         source name: (none)
B2D7  0A                 line defined (1313)
B2D8  A3                 last line defined (1315)
B2D9  0A                 nups (1)
B2DA  01                 numparams (2)
B2DB  02                 is_vararg (0)
B2DC  00                 maxstacksize (5)
                         * code:
B2DE  06                 sizecode (6)
B2DF  93000000           [1] getupval   2   0      
B2E3  DD400000           [2] getglobal  3   1        ; -174740002
B2E7  12018000           [3] move       4   1      
B2EB  E2800001           [4] call       3   2   2  
B2EF  8CC00080           [5] settable   2   256 3    ; "y"
B2F3  1E008000           [6] return     0   1      
                         * constants:
B2F7  02                 sizek (2)
B2F8  04                 const type 4
B2F9  02                 string size (2)
B2FA  7900               "y\0"
                         const [0]: "y"
B2FC  01                 const type 3
B2FD  DEAD95F5           const [1]: (-174740002)
                         * functions:
B301  00                 sizep (0)
                         * lines:
B302  06                 sizelineinfo (6)
                         [pc] (line)
B303  22                 [1] (34)
B304  05                 [2] (34)
B305  00                 [3] (34)
B306  00                 [4] (34)
B307  22                 [5] (34)
B308  05                 [6] (35)
                         * locals:
B31B  00                 sizelocvars (0)
                         * upvalues:
B31C  00                 sizeupvalues (0)
                         ** end of function **

                         
B31D                     ** function [38] definition (level 2)
                         ** start of function **
B31D  00                 string size (0)
                         source name: (none)
B31F  0A                 line defined (1317)
B320  A7                 last line defined (1319)
B321  0A                 nups (1)
B322  01                 numparams (2)
B323  02                 is_vararg (0)
B324  00                 maxstacksize (5)
                         * code:
B326  06                 sizecode (6)
B327  93000000           [1] getupval   2   0      
B32B  DD400000           [2] getglobal  3   1        ; -174740002
B32F  12018000           [3] move       4   1      
B333  E2800001           [4] call       3   2   2  
B337  8CC00080           [5] settable   2   256 3    ; "y"
B33B  1E008000           [6] return     0   1      
                         * constants:
B33F  02                 sizek (2)
B340  04                 const type 4
B341  02                 string size (2)
B342  7900               "y\0"
                         const [0]: "y"
B344  01                 const type 3
B345  DEAD95F5           const [1]: (-174740002)
                         * functions:
B349  00                 sizep (0)
                         * lines:
B34A  06                 sizelineinfo (6)
                         [pc] (line)
B34B  26                 [1] (38)
B34C  05                 [2] (38)
B34D  00                 [3] (38)
B34E  00                 [4] (38)
B34F  26                 [5] (38)
B350  05                 [6] (39)
                         * locals:
B363  00                 sizelocvars (0)
                         * upvalues:
B364  00                 sizeupvalues (0)
                         ** end of function **

                         
B365                     ** function [39] definition (level 2)
                         ** start of function **
B365  00                 string size (0)
                         source name: (none)
B367  0A                 line defined (1321)
B368  AB                 last line defined (1323)
B369  0A                 nups (1)
B36A  01                 numparams (2)
B36B  02                 is_vararg (0)
B36C  00                 maxstacksize (5)
                         * code:
B36E  07                 sizecode (7)
B36F  93000000           [1] getupval   2   0      
B373  DD400000           [2] getglobal  3   1        ; -174740002
B377  12018000           [3] move       4   1      
B37B  E2800001           [4] call       3   2   2  
fail op	0
B37F  C0008001           [5] move       3   3      
B383  8CC00080           [6] settable   2   256 3    ; "x"
B387  1E008000           [7] return     0   1      
                         * constants:
B38B  02                 sizek (2)
B38C  04                 const type 4
B38D  02                 string size (2)
B38E  7800               "x\0"
                         const [0]: "x"
B390  01                 const type 3
B391  DEAD95F5           const [1]: (-174740002)
                         * functions:
B395  00                 sizep (0)
                         * lines:
B396  07                 sizelineinfo (7)
                         [pc] (line)
B397  2A                 [1] (42)
B398  05                 [2] (42)
B399  00                 [3] (42)
B39A  00                 [4] (42)
B39B  2A                 [5] (42)
B39C  05                 [6] (42)
B39D  00                 [7] (43)
                         * locals:
B3B3  00                 sizelocvars (0)
                         * upvalues:
B3B4  00                 sizeupvalues (0)
                         ** end of function **

                         
B3B5                     ** function [40] definition (level 2)
                         ** start of function **
B3B5  00                 string size (0)
                         source name: (none)
B3B7  0A                 line defined (1325)
B3B8  AF                 last line defined (1327)
B3B9  0A                 nups (1)
B3BA  01                 numparams (2)
B3BB  02                 is_vararg (0)
B3BC  00                 maxstacksize (5)
                         * code:
B3BE  07                 sizecode (7)
B3BF  93000000           [1] getupval   2   0      
B3C3  DD400000           [2] getglobal  3   1        ; -174740002
B3C7  12018000           [3] move       4   1      
B3CB  E2800001           [4] call       3   2   2  
fail op	0
B3CF  C0008001           [5] move       3   3      
B3D3  8CC00080           [6] settable   2   256 3    ; "x"
B3D7  1E008000           [7] return     0   1      
                         * constants:
B3DB  02                 sizek (2)
B3DC  04                 const type 4
B3DD  02                 string size (2)
B3DE  7800               "x\0"
                         const [0]: "x"
B3E0  01                 const type 3
B3E1  DEAD95F5           const [1]: (-174740002)
                         * functions:
B3E5  00                 sizep (0)
                         * lines:
B3E6  07                 sizelineinfo (7)
                         [pc] (line)
B3E7  2E                 [1] (46)
B3E8  05                 [2] (46)
B3E9  00                 [3] (46)
B3EA  00                 [4] (46)
B3EB  2E                 [5] (46)
B3EC  05                 [6] (46)
B3ED  00                 [7] (47)
                         * locals:
B403  00                 sizelocvars (0)
                         * upvalues:
B404  00                 sizeupvalues (0)
                         ** end of function **

                         
B405                     ** function [41] definition (level 2)
                         ** start of function **
B405  00                 string size (0)
                         source name: (none)
B407  0A                 line defined (1329)
B408  B7                 last line defined (1335)
B409  0A                 nups (2)
B40A  02                 numparams (2)
B40B  02                 is_vararg (0)
B40C  00                 maxstacksize (7)
                         * code:
B40E  12                 sizecode (18)
B40F  93000000           [01] getupval   2   0      
B413  8E004001           [02] gettable   2   2   256  ; "mScrollBar"
B417  D3008000           [03] getupval   3   1      
B41B  D8400000           [04] test       3       1    ; to [6] if false
B41F  1AC00280           [05] jmp        12           ; to [18]
B423  DD400000           [06] getglobal  3   1        ; 1074689893
B427  12010001           [07] move       4   2      
B42B  E2800001           [08] call       3   2   2  
B42F  D8400000           [09] test       3       1    ; to [11] if false
B433  1A800180           [10] jmp        7            ; to [18]
B437  E4804001           [11] self       3   2   258  ; -1622081655
B43B  5DC10000           [12] getglobal  5   3        ; -174740002
B43F  92018000           [13] move       6   1      
B443  62810001           [14] call       5   2   2  
B447  9D010100           [15] getglobal  6   4        ; _G
B44B  8E414103           [16] gettable   6   6   261  ; "UISound_Scroll"
B44F  E2400002           [17] call       3   4   1  
B453  1E008000           [18] return     0   1      
                         * constants:
B457  06                 sizek (6)
B458  04                 const type 4
B459  0B                 string size (11)
B45A  6D5363726F6C6C42+  "mScrollB"
B462  617200             "ar\0"
                         const [0]: "mScrollBar"
B465  01                 const type 3
B466  65770E40           const [1]: (1074689893)
B46A  01                 const type 3
B46B  89FF509F           const [2]: (-1622081655)
B46F  01                 const type 3
B470  DEAD95F5           const [3]: (-174740002)
B474  04                 const type 4
B475  03                 string size (3)
B476  5F4700             "_G\0"
                         const [4]: "_G"
B479  04                 const type 4
B47A  0F                 string size (15)
B47B  5549536F756E645F+  "UISound_"
B483  5363726F6C6C00     "Scroll\0"
                         const [5]: "UISound_Scroll"
                         * functions:
B48A  00                 sizep (0)
                         * lines:
B48B  12                 sizelineinfo (18)
                         [pc] (line)
B48C  32                 [01] (50)
B48D  05                 [02] (50)
B48E  00                 [03] (52)
B48F  00                 [04] (52)
B490  32                 [05] (52)
B491  05                 [06] (52)
B492  00                 [07] (52)
B493  00                 [08] (52)
B494  34                 [09] (52)
B495  05                 [10] (52)
B496  00                 [11] (53)
B497  00                 [12] (53)
B498  34                 [13] (53)
B499  05                 [14] (53)
B49A  00                 [15] (53)
B49B  00                 [16] (53)
B49C  34                 [17] (53)
B49D  05                 [18] (55)
                         * locals:
B4D4  00                 sizelocvars (0)
                         * upvalues:
B4D5  00                 sizeupvalues (0)
                         ** end of function **

                         
B4D6                     ** function [42] definition (level 2)
                         ** start of function **
B4D6  00                 string size (0)
                         source name: (none)
B4D8  0A                 line defined (1337)
B4D9  C2                 last line defined (1346)
B4DA  0A                 nups (3)
B4DB  03                 numparams (3)
B4DC  03                 is_vararg (0)
B4DD  00                 maxstacksize (4)
                         * code:
B4DF  0D                 sizecode (13)
fail op	35
B4E0  2300C000           [01] close      0  
B4E4  1A400280           [02] jmp        10           ; to [13]
fail op	35
B4E8  23404001           [03] close      0  
B4EC  1A400180           [04] jmp        6            ; to [11]
B4F0  D7008000           [05] loadbool   3   1   0    ; true
fail op	8
B4F4  C8000000           [06] setupval   3   0      
B4F8  D3000001           [07] getupval   3   2      
B4FC  E2808000           [08] call       3   1   2  
fail op	8
B500  C8008000           [09] setupval   3   1      
B504  1A400080           [10] jmp        2            ; to [13]
B508  D7000000           [11] loadbool   3   0   0    ; false
fail op	8
B50C  C8000000           [12] setupval   3   0      
B510  1E008000           [13] return     0   1      
                         * constants:
B514  02                 sizek (2)
B515  04                 const type 4
B516  0C                 string size (12)
B517  454E5F4D4F555345+  "EN_MOUSE"
B51F  5F423000           "_B0\0"
                         const [0]: "EN_MOUSE_B0"
B523  04                 const type 4
B524  02                 string size (2)
B525  3100               "1\0"
                         const [1]: "1"
                         * functions:
B527  00                 sizep (0)
                         * lines:
B528  0D                 sizelineinfo (13)
                         [pc] (line)
B529  3A                 [01] (58)
B52A  05                 [02] (58)
B52B  00                 [03] (59)
B52C  00                 [04] (59)
B52D  3A                 [05] (60)
B52E  05                 [06] (60)
B52F  00                 [07] (61)
B530  00                 [08] (61)
B531  3B                 [09] (61)
B532  05                 [10] (61)
B533  00                 [11] (63)
B534  00                 [12] (63)
B535  3B                 [13] (66)
                         * locals:
B55D  00                 sizelocvars (0)
                         * upvalues:
B55E  00                 sizeupvalues (0)
                         ** end of function **

                         
B55F                     ** function [43] definition (level 2)
                         ** start of function **
B55F  00                 string size (0)
                         source name: (none)
B561  0A                 line defined (1348)
B562  CA                 last line defined (1354)
B563  0A                 nups (2)
B564  02                 numparams (2)
B565  02                 is_vararg (0)
B566  00                 maxstacksize (7)
                         * code:
B568  15                 sizecode (21)
B569  93000000           [01] getupval   2   0      
fail op	35
B56D  63004001           [02] close      1  
B571  1A000280           [03] jmp        9            ; to [13]
B575  93000000           [04] getupval   2   0      
B579  A4404001           [05] self       2   2   257  ; -1938777623
B57D  1D810000           [06] getglobal  4   2        ; mMovie
B581  24C14002           [07] self       4   4   259  ; -174729759
B585  22810001           [08] call       4   2   2  
B589  5D810000           [09] getglobal  5   2        ; mMovie
B58D  6401C102           [10] self       5   5   260  ; -301556379
B591  62010001           [11] call       5   2   0  
B595  A2400000           [12] call       2   0   1  
B599  93008000           [13] getupval   2   1      
B59D  DD800000           [14] getglobal  3   2        ; mMovie
B5A1  E4C0C001           [15] self       3   3   259  ; -174729759
B5A5  E2800001           [16] call       3   2   2  
B5A9  1D810000           [17] getglobal  4   2        ; mMovie
B5AD  24014102           [18] self       4   4   260  ; -301556379
B5B1  22010001           [19] call       4   2   0  
B5B5  A2400000           [20] call       2   0   1  
B5B9  1E008000           [21] return     0   1      
                         * constants:
B5BD  05                 sizek (5)
B5BE  00                 const type 0
                         const [0]: nil
B5BF  01                 const type 3
B5C0  E999708C           const [1]: (-1938777623)
B5C4  04                 const type 4
B5C5  07                 string size (7)
B5C6  6D4D6F76696500     "mMovie\0"
                         const [2]: "mMovie"
B5CD  01                 const type 3
B5CE  E1D595F5           const [3]: (-174729759)
B5D2  01                 const type 3
B5D3  659D06EE           const [4]: (-301556379)
                         * functions:
B5D7  00                 sizep (0)
                         * lines:
B5D8  15                 sizelineinfo (21)
                         [pc] (line)
B5D9  45                 [01] (69)
B5DA  05                 [02] (69)
B5DB  00                 [03] (69)
B5DC  00                 [04] (70)
B5DD  45                 [05] (70)
B5DE  05                 [06] (70)
B5DF  00                 [07] (70)
B5E0  00                 [08] (70)
B5E1  45                 [09] (70)
B5E2  05                 [10] (70)
B5E3  00                 [11] (70)
B5E4  00                 [12] (70)
B5E5  46                 [13] (73)
B5E6  05                 [14] (73)
B5E7  00                 [15] (73)
B5E8  00                 [16] (73)
B5E9  46                 [17] (73)
B5EA  05                 [18] (73)
B5EB  00                 [19] (73)
B5EC  00                 [20] (73)
B5ED  46                 [21] (74)
                         * locals:
B62D  00                 sizelocvars (0)
                         * upvalues:
B62E  00                 sizeupvalues (0)
                         ** end of function **

                         
B62F                     ** function [44] definition (level 2)
                         ** start of function **
B62F  00                 string size (0)
                         source name: (none)
B631  0A                 line defined (1356)
B632  D0                 last line defined (1360)
B633  0A                 nups (2)
B634  02                 numparams (1)
B635  01                 is_vararg (0)
B636  00                 maxstacksize (5)
                         * code:
B638  11                 sizecode (17)
B639  5D000000           [01] getglobal  1   0        ; 1074689893
B63D  93000000           [02] getupval   2   0      
B641  8E404001           [03] gettable   2   2   257  ; "mSortMenu"
B645  62800001           [04] call       1   2   2  
B649  58400000           [05] test       1       1    ; to [7] if false
B64D  1A400280           [06] jmp        10           ; to [17]
B651  53008000           [07] getupval   1   1      
B655  58400000           [08] test       1       1    ; to [10] if false
B659  1A800180           [09] jmp        7            ; to [17]
B65D  53000000           [10] getupval   1   0      
B661  4E40C000           [11] gettable   1   1   257  ; "mSortMenu"
B665  6480C000           [12] self       1   1   258  ; -1967297336
B669  DDC00000           [13] getglobal  3   3        ; -174740002
B66D  12010000           [14] move       4   0      
B671  E2000001           [15] call       3   2   0  
B675  62400000           [16] call       1   0   1  
B679  1E008000           [17] return     0   1      
                         * constants:
B67D  04                 sizek (4)
B67E  01                 const type 3
B67F  65770E40           const [0]: (1074689893)
B683  04                 const type 4
B684  0A                 string size (10)
B685  6D536F72744D656E+  "mSortMen"
B68D  7500               "u\0"
                         const [1]: "mSortMenu"
B68F  01                 const type 3
B690  C86CBD8A           const [2]: (-1967297336)
B694  01                 const type 3
B695  DEAD95F5           const [3]: (-174740002)
                         * functions:
B699  00                 sizep (0)
                         * lines:
B69A  11                 sizelineinfo (17)
                         [pc] (line)
B69B  4D                 [01] (77)
B69C  05                 [02] (77)
B69D  00                 [03] (77)
B69E  00                 [04] (77)
B69F  4D                 [05] (77)
B6A0  05                 [06] (77)
B6A1  00                 [07] (77)
B6A2  00                 [08] (77)
B6A3  4D                 [09] (77)
B6A4  05                 [10] (78)
B6A5  00                 [11] (78)
B6A6  00                 [12] (78)
B6A7  4D                 [13] (78)
B6A8  05                 [14] (78)
B6A9  00                 [15] (78)
B6AA  00                 [16] (78)
B6AB  4D                 [17] (80)
                         * locals:
B6DF  00                 sizelocvars (0)
                         * upvalues:
B6E0  00                 sizeupvalues (0)
                         ** end of function **

                         
B6E1                     ** function [45] definition (level 2)
                         ** start of function **
B6E1  00                 string size (0)
                         source name: (none)
B6E3  0A                 line defined (1362)
B6E4  D6                 last line defined (1366)
B6E5  0A                 nups (2)
B6E6  02                 numparams (1)
B6E7  01                 is_vararg (0)
B6E8  00                 maxstacksize (5)
                         * code:
B6EA  11                 sizecode (17)
B6EB  5D000000           [01] getglobal  1   0        ; 1074689893
B6EF  93000000           [02] getupval   2   0      
B6F3  8E404001           [03] gettable   2   2   257  ; "mSortMenu"
B6F7  62800001           [04] call       1   2   2  
B6FB  58400000           [05] test       1       1    ; to [7] if false
B6FF  1A400280           [06] jmp        10           ; to [17]
B703  53008000           [07] getupval   1   1      
B707  58400000           [08] test       1       1    ; to [10] if false
B70B  1A800180           [09] jmp        7            ; to [17]
B70F  53000000           [10] getupval   1   0      
B713  4E40C000           [11] gettable   1   1   257  ; "mSortMenu"
B717  6480C000           [12] self       1   1   258  ; 561426718
B71B  DDC00000           [13] getglobal  3   3        ; -174740002
B71F  12010000           [14] move       4   0      
B723  E2000001           [15] call       3   2   0  
B727  62400000           [16] call       1   0   1  
B72B  1E008000           [17] return     0   1      
                         * constants:
B72F  04                 sizek (4)
B730  01                 const type 3
B731  65770E40           const [0]: (1074689893)
B735  04                 const type 4
B736  0A                 string size (10)
B737  6D536F72744D656E+  "mSortMen"
B73F  7500               "u\0"
                         const [1]: "mSortMenu"
B741  01                 const type 3
B742  1EB17621           const [2]: (561426718)
B746  01                 const type 3
B747  DEAD95F5           const [3]: (-174740002)
                         * functions:
B74B  00                 sizep (0)
                         * lines:
B74C  11                 sizelineinfo (17)
                         [pc] (line)
B74D  53                 [01] (83)
B74E  05                 [02] (83)
B74F  00                 [03] (83)
B750  00                 [04] (83)
B751  53                 [05] (83)
B752  05                 [06] (83)
B753  00                 [07] (83)
B754  00                 [08] (83)
B755  53                 [09] (83)
B756  05                 [10] (84)
B757  00                 [11] (84)
B758  00                 [12] (84)
B759  53                 [13] (84)
B75A  05                 [14] (84)
B75B  00                 [15] (84)
B75C  00                 [16] (84)
B75D  53                 [17] (86)
                         * locals:
B791  00                 sizelocvars (0)
                         * upvalues:
B792  00                 sizeupvalues (0)
                         ** end of function **

                         
B793                     ** function [46] definition (level 2)
                         ** start of function **
B793  00                 string size (0)
                         source name: (none)
B795  0A                 line defined (1368)
B796  DC                 last line defined (1372)
B797  0A                 nups (3)
B798  03                 numparams (1)
B799  01                 is_vararg (0)
B79A  00                 maxstacksize (5)
                         * code:
B79C  15                 sizecode (21)
B79D  53000000           [01] getupval   1   0      
B7A1  58400000           [02] test       1       1    ; to [4] if false
B7A5  1A000480           [03] jmp        17           ; to [21]
B7A9  5D000000           [04] getglobal  1   0        ; 1074689893
B7AD  93008000           [05] getupval   2   1      
B7B1  8E404001           [06] gettable   2   2   257  ; "mSortMenu"
B7B5  62800001           [07] call       1   2   2  
B7B9  58400000           [08] test       1       1    ; to [10] if false
B7BD  1A800280           [09] jmp        11           ; to [21]
B7C1  53000001           [10] getupval   1   2      
B7C5  58400000           [11] test       1       1    ; to [13] if false
B7C9  1AC00180           [12] jmp        8            ; to [21]
B7CD  53008000           [13] getupval   1   1      
B7D1  4E40C000           [14] gettable   1   1   257  ; "mSortMenu"
B7D5  6480C000           [15] self       1   1   258  ; 1002639746
B7D9  DDC00000           [16] getglobal  3   3        ; -174740002
B7DD  12010000           [17] move       4   0      
B7E1  E2800001           [18] call       3   2   2  
B7E5  17018000           [19] loadbool   4   1   0    ; true
B7E9  62400002           [20] call       1   4   1  
B7ED  1E008000           [21] return     0   1      
                         * constants:
B7F1  04                 sizek (4)
B7F2  01                 const type 3
B7F3  65770E40           const [0]: (1074689893)
B7F7  04                 const type 4
B7F8  0A                 string size (10)
B7F9  6D536F72744D656E+  "mSortMen"
B801  7500               "u\0"
                         const [1]: "mSortMenu"
B803  01                 const type 3
B804  8211C33B           const [2]: (1002639746)
B808  01                 const type 3
B809  DEAD95F5           const [3]: (-174740002)
                         * functions:
B80D  00                 sizep (0)
                         * lines:
B80E  15                 sizelineinfo (21)
                         [pc] (line)
B80F  59                 [01] (89)
B810  05                 [02] (89)
B811  00                 [03] (89)
B812  00                 [04] (89)
B813  59                 [05] (89)
B814  05                 [06] (89)
B815  00                 [07] (89)
B816  00                 [08] (89)
B817  59                 [09] (89)
B818  05                 [10] (89)
B819  00                 [11] (89)
B81A  00                 [12] (89)
B81B  59                 [13] (90)
B81C  05                 [14] (90)
B81D  00                 [15] (90)
B81E  00                 [16] (90)
B81F  59                 [17] (90)
B820  05                 [18] (90)
B821  00                 [19] (90)
B822  00                 [20] (90)
B823  59                 [21] (92)
                         * locals:
B863  00                 sizelocvars (0)
                         * upvalues:
B864  00                 sizeupvalues (0)
                         ** end of function **

                         
B865                     ** function [47] definition (level 2)
                         ** start of function **
B865  00                 string size (0)
                         source name: (none)
B867  0A                 line defined (1374)
B868  E2                 last line defined (1378)
B869  0A                 nups (2)
B86A  02                 numparams (0)
B86B  00                 is_vararg (0)
B86C  00                 maxstacksize (2)
                         * code:
B86E  13                 sizecode (19)
B86F  1D000000           [01] getglobal  0   0        ; 1074689893
B873  53000000           [02] getupval   1   0      
B877  22800001           [03] call       0   2   2  
B87B  18400000           [04] test       0       1    ; to [6] if false
B87F  1A000380           [05] jmp        13           ; to [19]
B883  1D000000           [06] getglobal  0   0        ; 1074689893
B887  53000000           [07] getupval   1   0      
B88B  4E40C000           [08] gettable   1   1   257  ; "mSortMenu"
B88F  22800001           [09] call       0   2   2  
B893  18400000           [10] test       0       1    ; to [12] if false
B897  1A800180           [11] jmp        7            ; to [19]
B89B  13008000           [12] getupval   0   1      
B89F  18400000           [13] test       0       1    ; to [15] if false
B8A3  1AC00080           [14] jmp        4            ; to [19]
B8A7  13000000           [15] getupval   0   0      
B8AB  0E404000           [16] gettable   0   0   257  ; "mSortMenu"
B8AF  24804000           [17] self       0   0   258  ; -347910346
B8B3  22400001           [18] call       0   2   1  
B8B7  1E008000           [19] return     0   1      
                         * constants:
B8BB  03                 sizek (3)
B8BC  01                 const type 3
B8BD  65770E40           const [0]: (1074689893)
B8C1  04                 const type 4
B8C2  0A                 string size (10)
B8C3  6D536F72744D656E+  "mSortMen"
B8CB  7500               "u\0"
                         const [1]: "mSortMenu"
B8CD  01                 const type 3
B8CE  364F43EB           const [2]: (-347910346)
                         * functions:
B8D2  00                 sizep (0)
                         * lines:
B8D3  13                 sizelineinfo (19)
                         [pc] (line)
B8D4  5F                 [01] (95)
B8D5  05                 [02] (95)
B8D6  00                 [03] (95)
B8D7  00                 [04] (95)
B8D8  5F                 [05] (95)
B8D9  05                 [06] (95)
B8DA  00                 [07] (95)
B8DB  00                 [08] (95)
B8DC  5F                 [09] (95)
B8DD  05                 [10] (95)
B8DE  00                 [11] (95)
B8DF  00                 [12] (95)
B8E0  5F                 [13] (95)
B8E1  05                 [14] (95)
B8E2  00                 [15] (96)
B8E3  00                 [16] (96)
B8E4  5F                 [17] (96)
B8E5  05                 [18] (96)
B8E6  00                 [19] (98)
                         * locals:
B920  00                 sizelocvars (0)
                         * upvalues:
B921  00                 sizeupvalues (0)
                         ** end of function **

                         
B922                     ** function [48] definition (level 2)
                         ** start of function **
B922  00                 string size (0)
                         source name: (none)
B924  0A                 line defined (1380)
B925  E8                 last line defined (1384)
B926  0A                 nups (2)
B927  02                 numparams (0)
B928  00                 is_vararg (0)
B929  00                 maxstacksize (2)
                         * code:
B92B  13                 sizecode (19)
B92C  1D000000           [01] getglobal  0   0        ; 1074689893
B930  53000000           [02] getupval   1   0      
B934  22800001           [03] call       0   2   2  
B938  18400000           [04] test       0       1    ; to [6] if false
B93C  1A000380           [05] jmp        13           ; to [19]
B940  1D000000           [06] getglobal  0   0        ; 1074689893
B944  53000000           [07] getupval   1   0      
B948  4E40C000           [08] gettable   1   1   257  ; "mSortMenu"
B94C  22800001           [09] call       0   2   2  
B950  18400000           [10] test       0       1    ; to [12] if false
B954  1A800180           [11] jmp        7            ; to [19]
B958  13008000           [12] getupval   0   1      
B95C  18400000           [13] test       0       1    ; to [15] if false
B960  1AC00080           [14] jmp        4            ; to [19]
B964  13000000           [15] getupval   0   0      
B968  0E404000           [16] gettable   0   0   257  ; "mSortMenu"
B96C  24804000           [17] self       0   0   258  ; -1610994609
B970  22400001           [18] call       0   2   1  
B974  1E008000           [19] return     0   1      
                         * constants:
B978  03                 sizek (3)
B979  01                 const type 3
B97A  65770E40           const [0]: (1074689893)
B97E  04                 const type 4
B97F  0A                 string size (10)
B980  6D536F72744D656E+  "mSortMen"
B988  7500               "u\0"
                         const [1]: "mSortMenu"
B98A  01                 const type 3
B98B  4F2CFA9F           const [2]: (-1610994609)
                         * functions:
B98F  00                 sizep (0)
                         * lines:
B990  13                 sizelineinfo (19)
                         [pc] (line)
B991  65                 [01] (101)
B992  05                 [02] (101)
B993  00                 [03] (101)
B994  00                 [04] (101)
B995  65                 [05] (101)
B996  05                 [06] (101)
B997  00                 [07] (101)
B998  00                 [08] (101)
B999  65                 [09] (101)
B99A  05                 [10] (101)
B99B  00                 [11] (101)
B99C  00                 [12] (101)
B99D  65                 [13] (101)
B99E  05                 [14] (101)
B99F  00                 [15] (102)
B9A0  00                 [16] (102)
B9A1  65                 [17] (102)
B9A2  05                 [18] (102)
B9A3  00                 [19] (104)
                         * locals:
B9DD  00                 sizelocvars (0)
                         * upvalues:
B9DE  00                 sizeupvalues (0)
                         ** end of function **

                         
B9DF                     ** function [49] definition (level 2)
                         ** start of function **
B9DF  00                 string size (0)
                         source name: (none)
B9E1  0A                 line defined (1386)
B9E2  EE                 last line defined (1390)
B9E3  0A                 nups (2)
B9E4  02                 numparams (0)
B9E5  00                 is_vararg (0)
B9E6  00                 maxstacksize (2)
                         * code:
B9E8  13                 sizecode (19)
B9E9  1D000000           [01] getglobal  0   0        ; 1074689893
B9ED  53000000           [02] getupval   1   0      
B9F1  22800001           [03] call       0   2   2  
B9F5  18400000           [04] test       0       1    ; to [6] if false
B9F9  1A000380           [05] jmp        13           ; to [19]
B9FD  1D000000           [06] getglobal  0   0        ; 1074689893
BA01  53000000           [07] getupval   1   0      
BA05  4E40C000           [08] gettable   1   1   257  ; "mSortMenu"
BA09  22800001           [09] call       0   2   2  
BA0D  18400000           [10] test       0       1    ; to [12] if false
BA11  1A800180           [11] jmp        7            ; to [19]
BA15  13008000           [12] getupval   0   1      
BA19  18400000           [13] test       0       1    ; to [15] if false
BA1D  1AC00080           [14] jmp        4            ; to [19]
BA21  13000000           [15] getupval   0   0      
BA25  0E404000           [16] gettable   0   0   257  ; "mSortMenu"
BA29  24804000           [17] self       0   0   258  ; -1976911537
BA2D  22400001           [18] call       0   2   1  
BA31  1E008000           [19] return     0   1      
                         * constants:
BA35  03                 sizek (3)
BA36  01                 const type 3
BA37  65770E40           const [0]: (1074689893)
BA3B  04                 const type 4
BA3C  0A                 string size (10)
BA3D  6D536F72744D656E+  "mSortMen"
BA45  7500               "u\0"
                         const [1]: "mSortMenu"
BA47  01                 const type 3
BA48  4FB92A8A           const [2]: (-1976911537)
                         * functions:
BA4C  00                 sizep (0)
                         * lines:
BA4D  13                 sizelineinfo (19)
                         [pc] (line)
BA4E  6B                 [01] (107)
BA4F  05                 [02] (107)
BA50  00                 [03] (107)
BA51  00                 [04] (107)
BA52  6B                 [05] (107)
BA53  05                 [06] (107)
BA54  00                 [07] (107)
BA55  00                 [08] (107)
BA56  6B                 [09] (107)
BA57  05                 [10] (107)
BA58  00                 [11] (107)
BA59  00                 [12] (107)
BA5A  6B                 [13] (107)
BA5B  05                 [14] (107)
BA5C  00                 [15] (108)
BA5D  00                 [16] (108)
BA5E  6B                 [17] (108)
BA5F  05                 [18] (108)
BA60  00                 [19] (110)
                         * locals:
BA9A  00                 sizelocvars (0)
                         * upvalues:
BA9B  00                 sizeupvalues (0)
                         ** end of function **

                         
BA9C                     ** function [50] definition (level 2)
                         ** start of function **
BA9C  00                 string size (0)
                         source name: (none)
BA9E  0A                 line defined (1392)
BA9F  F6                 last line defined (1398)
BAA0  0A                 nups (1)
BAA1  01                 numparams (1)
BAA2  01                 is_vararg (0)
BAA3  00                 maxstacksize (5)
                         * code:
BAA5  10                 sizecode (16)
BAA6  53000000           [01] getupval   1   0      
fail op	35
BAAA  6300C000           [02] close      1  
BAAE  1AC00080           [03] jmp        4            ; to [8]
BAB2  53000000           [04] getupval   1   0      
BAB6  4E40C000           [05] gettable   1   1   257  ; "mCategoryMenu"
fail op	35
BABA  2300C000           [06] close      0  
BABE  1A000080           [07] jmp        1            ; to [9]
BAC2  1E008000           [08] return     0   1      
BAC6  53000000           [09] getupval   1   0      
BACA  4E40C000           [10] gettable   1   1   257  ; "mCategoryMenu"
BACE  6480C000           [11] self       1   1   258  ; -1967297336
BAD2  DDC00000           [12] getglobal  3   3        ; -174740002
BAD6  12010000           [13] move       4   0      
BADA  E2000001           [14] call       3   2   0  
BADE  62400000           [15] call       1   0   1  
BAE2  1E008000           [16] return     0   1      
                         * constants:
BAE6  04                 sizek (4)
BAE7  00                 const type 0
                         const [0]: nil
BAE8  04                 const type 4
BAE9  0E                 string size (14)
BAEA  6D43617465676F72+  "mCategor"
BAF2  794D656E7500       "yMenu\0"
                         const [1]: "mCategoryMenu"
BAF8  01                 const type 3
BAF9  C86CBD8A           const [2]: (-1967297336)
BAFD  01                 const type 3
BAFE  DEAD95F5           const [3]: (-174740002)
                         * functions:
BB02  00                 sizep (0)
                         * lines:
BB03  10                 sizelineinfo (16)
                         [pc] (line)
BB04  71                 [01] (113)
BB05  05                 [02] (113)
BB06  00                 [03] (113)
BB07  00                 [04] (113)
BB08  71                 [05] (113)
BB09  05                 [06] (113)
BB0A  00                 [07] (113)
BB0B  00                 [08] (114)
BB0C  71                 [09] (117)
BB0D  05                 [10] (117)
BB0E  00                 [11] (117)
BB0F  00                 [12] (117)
BB10  71                 [13] (117)
BB11  05                 [14] (117)
BB12  00                 [15] (117)
BB13  00                 [16] (118)
                         * locals:
BB44  00                 sizelocvars (0)
                         * upvalues:
BB45  00                 sizeupvalues (0)
                         ** end of function **

                         
BB46                     ** function [51] definition (level 2)
                         ** start of function **
BB46  00                 string size (0)
                         source name: (none)
BB48  0A                 line defined (1400)
BB49  FE                 last line defined (1406)
BB4A  0A                 nups (1)
BB4B  01                 numparams (1)
BB4C  01                 is_vararg (0)
BB4D  00                 maxstacksize (5)
                         * code:
BB4F  10                 sizecode (16)
BB50  53000000           [01] getupval   1   0      
fail op	35
BB54  6300C000           [02] close      1  
BB58  1AC00080           [03] jmp        4            ; to [8]
BB5C  53000000           [04] getupval   1   0      
BB60  4E40C000           [05] gettable   1   1   257  ; "mCategoryMenu"
fail op	35
BB64  2300C000           [06] close      0  
BB68  1A000080           [07] jmp        1            ; to [9]
BB6C  1E008000           [08] return     0   1      
BB70  53000000           [09] getupval   1   0      
BB74  4E40C000           [10] gettable   1   1   257  ; "mCategoryMenu"
BB78  6480C000           [11] self       1   1   258  ; 561426718
BB7C  DDC00000           [12] getglobal  3   3        ; -174740002
BB80  12010000           [13] move       4   0      
BB84  E2000001           [14] call       3   2   0  
BB88  62400000           [15] call       1   0   1  
BB8C  1E008000           [16] return     0   1      
                         * constants:
BB90  04                 sizek (4)
BB91  00                 const type 0
                         const [0]: nil
BB92  04                 const type 4
BB93  0E                 string size (14)
BB94  6D43617465676F72+  "mCategor"
BB9C  794D656E7500       "yMenu\0"
                         const [1]: "mCategoryMenu"
BBA2  01                 const type 3
BBA3  1EB17621           const [2]: (561426718)
BBA7  01                 const type 3
BBA8  DEAD95F5           const [3]: (-174740002)
                         * functions:
BBAC  00                 sizep (0)
                         * lines:
BBAD  10                 sizelineinfo (16)
                         [pc] (line)
BBAE  79                 [01] (121)
BBAF  05                 [02] (121)
BBB0  00                 [03] (121)
BBB1  00                 [04] (121)
BBB2  79                 [05] (121)
BBB3  05                 [06] (121)
BBB4  00                 [07] (121)
BBB5  00                 [08] (122)
BBB6  79                 [09] (125)
BBB7  05                 [10] (125)
BBB8  00                 [11] (125)
BBB9  00                 [12] (125)
BBBA  79                 [13] (125)
BBBB  05                 [14] (125)
BBBC  00                 [15] (125)
BBBD  00                 [16] (126)
                         * locals:
BBEE  00                 sizelocvars (0)
                         * upvalues:
BBEF  00                 sizeupvalues (0)
                         ** end of function **

                         
BBF0                     ** function [52] definition (level 2)
                         ** start of function **
BBF0  00                 string size (0)
                         source name: (none)
BBF2  0B                 line defined (1408)
BBF3  86                 last line defined (1414)
BBF4  0B                 nups (2)
BBF5  02                 numparams (1)
BBF6  01                 is_vararg (0)
BBF7  00                 maxstacksize (5)
                         * code:
BBF9  14                 sizecode (20)
BBFA  53000000           [01] getupval   1   0      
BBFE  58400000           [02] test       1       1    ; to [4] if false
BC02  1A800180           [03] jmp        7            ; to [11]
BC06  53008000           [04] getupval   1   1      
fail op	35
BC0A  6300C000           [05] close      1  
BC0E  1AC00080           [06] jmp        4            ; to [11]
BC12  53008000           [07] getupval   1   1      
BC16  4E40C000           [08] gettable   1   1   257  ; "mCategoryMenu"
fail op	35
BC1A  2300C000           [09] close      0  
BC1E  1A000080           [10] jmp        1            ; to [12]
BC22  1E008000           [11] return     0   1      
BC26  53008000           [12] getupval   1   1      
BC2A  4E40C000           [13] gettable   1   1   257  ; "mCategoryMenu"
BC2E  6480C000           [14] self       1   1   258  ; 1002639746
BC32  DDC00000           [15] getglobal  3   3        ; -174740002
BC36  12010000           [16] move       4   0      
BC3A  E2800001           [17] call       3   2   2  
BC3E  17018000           [18] loadbool   4   1   0    ; true
BC42  62400002           [19] call       1   4   1  
BC46  1E008000           [20] return     0   1      
                         * constants:
BC4A  04                 sizek (4)
BC4B  00                 const type 0
                         const [0]: nil
BC4C  04                 const type 4
BC4D  0E                 string size (14)
BC4E  6D43617465676F72+  "mCategor"
BC56  794D656E7500       "yMenu\0"
                         const [1]: "mCategoryMenu"
BC5C  01                 const type 3
BC5D  8211C33B           const [2]: (1002639746)
BC61  01                 const type 3
BC62  DEAD95F5           const [3]: (-174740002)
                         * functions:
BC66  00                 sizep (0)
                         * lines:
BC67  14                 sizelineinfo (20)
                         [pc] (line)
BC68  81                 [01] (-127)
BC69  05                 [02] (-127)
BC6A  00                 [03] (-127)
BC6B  00                 [04] (-127)
BC6C  81                 [05] (-127)
BC6D  05                 [06] (-127)
BC6E  00                 [07] (-127)
BC6F  00                 [08] (-127)
BC70  81                 [09] (-127)
BC71  05                 [10] (-127)
BC72  00                 [11] (-126)
BC73  00                 [12] (-123)
BC74  81                 [13] (-123)
BC75  05                 [14] (-123)
BC76  00                 [15] (-123)
BC77  00                 [16] (-123)
BC78  81                 [17] (-123)
BC79  05                 [18] (-123)
BC7A  00                 [19] (-123)
BC7B  00                 [20] (-122)
                         * locals:
BCB8  00                 sizelocvars (0)
                         * upvalues:
BCB9  00                 sizeupvalues (0)
                         ** end of function **

                         
BCBA                     ** function [53] definition (level 2)
                         ** start of function **
BCBA  00                 string size (0)
                         source name: (none)
BCBC  0B                 line defined (1416)
BCBD  8E                 last line defined (1422)
BCBE  0B                 nups (3)
BCBF  03                 numparams (0)
BCC0  00                 is_vararg (0)
BCC1  00                 maxstacksize (4)
                         * code:
BCC3  1C                 sizecode (28)
BCC4  1D000000           [01] getglobal  0   0        ; 1074689893
BCC8  53000000           [02] getupval   1   0      
BCCC  22800001           [03] call       0   2   2  
BCD0  18400000           [04] test       0       1    ; to [6] if false
BCD4  1A400380           [05] jmp        14           ; to [20]
BCD8  1D000000           [06] getglobal  0   0        ; 1074689893
BCDC  53000000           [07] getupval   1   0      
BCE0  4E40C000           [08] gettable   1   1   257  ; "mSortMenu"
BCE4  22800001           [09] call       0   2   2  
BCE8  18400000           [10] test       0       1    ; to [12] if false
BCEC  1AC00180           [11] jmp        8            ; to [20]
BCF0  13008000           [12] getupval   0   1      
BCF4  18400000           [13] test       0       1    ; to [15] if false
BCF8  1A000180           [14] jmp        5            ; to [20]
BCFC  13000000           [15] getupval   0   0      
BD00  0E404000           [16] gettable   0   0   257  ; "mSortMenu"
BD04  24804000           [17] self       0   0   258  ; -347910346
BD08  22400001           [18] call       0   2   1  
BD0C  1AC00180           [19] jmp        8            ; to [28]
BD10  13000001           [20] getupval   0   2      
BD14  18000000           [21] test       0       0    ; to [23] if true
BD18  1A000180           [22] jmp        5            ; to [28]
BD1C  1DC00000           [23] getglobal  0   3        ; mMovie
BD20  24004100           [24] self       0   0   260  ; 1167009705
BD24  99400100           [25] loadk      2   5        ; "AutoInstall"
BD28  D9800100           [26] loadk      3   6        ; ""
BD2C  22400002           [27] call       0   4   1  
BD30  1E008000           [28] return     0   1      
                         * constants:
BD34  07                 sizek (7)
BD35  01                 const type 3
BD36  65770E40           const [0]: (1074689893)
BD3A  04                 const type 4
BD3B  0A                 string size (10)
BD3C  6D536F72744D656E+  "mSortMen"
BD44  7500               "u\0"
                         const [1]: "mSortMenu"
BD46  01                 const type 3
BD47  364F43EB           const [2]: (-347910346)
BD4B  04                 const type 4
BD4C  07                 string size (7)
BD4D  6D4D6F76696500     "mMovie\0"
                         const [3]: "mMovie"
BD54  01                 const type 3
BD55  A9278F45           const [4]: (1167009705)
BD59  04                 const type 4
BD5A  0C                 string size (12)
BD5B  4175746F496E7374+  "AutoInst"
BD63  616C6C00           "all\0"
                         const [5]: "AutoInstall"
BD67  04                 const type 4
BD68  01                 string size (0)
                         const [6]: ""
                         * functions:
BD6A  00                 sizep (0)
                         * lines:
BD6B  1C                 sizelineinfo (28)
                         [pc] (line)
BD6C  89                 [01] (-119)
BD6D  05                 [02] (-119)
BD6E  00                 [03] (-119)
BD6F  00                 [04] (-119)
BD70  89                 [05] (-119)
BD71  05                 [06] (-119)
BD72  00                 [07] (-119)
BD73  00                 [08] (-119)
BD74  89                 [09] (-119)
BD75  05                 [10] (-119)
BD76  00                 [11] (-119)
BD77  00                 [12] (-119)
BD78  89                 [13] (-119)
BD79  05                 [14] (-119)
BD7A  00                 [15] (-118)
BD7B  00                 [16] (-118)
BD7C  89                 [17] (-118)
BD7D  05                 [18] (-118)
BD7E  00                 [19] (-118)
BD7F  00                 [20] (-117)
BD80  89                 [21] (-117)
BD81  05                 [22] (-117)
BD82  00                 [23] (-116)
BD83  00                 [24] (-116)
BD84  89                 [25] (-116)
BD85  05                 [26] (-116)
BD86  00                 [27] (-116)
BD87  00                 [28] (-114)
                         * locals:
BDDC  00                 sizelocvars (0)
                         * upvalues:
BDDD  00                 sizeupvalues (0)
                         ** end of function **

                         
BDDE                     ** function [54] definition (level 2)
                         ** start of function **
BDDE  00                 string size (0)
                         source name: (none)
BDE0  0B                 line defined (1424)
BDE1  92                 last line defined (1426)
BDE2  0B                 nups (1)
BDE3  01                 numparams (1)
BDE4  01                 is_vararg (0)
BDE5  00                 maxstacksize (2)
                         * code:
BDE7  06                 sizecode (6)
fail op	35
BDE8  63004000           [1] close      1  
BDEC  1A000080           [2] jmp        1            ; to [4]
BDF0  57400000           [3] loadbool   1   0   1    ; false, to [5]
BDF4  57008000           [4] loadbool   1   1   0    ; true
fail op	8
BDF8  48000000           [5] setupval   1   0      
BDFC  1E008000           [6] return     0   1      
                         * constants:
BE00  01                 sizek (1)
BE01  04                 const type 4
BE02  05                 string size (5)
BE03  7472756500         "true\0"
                         const [0]: "true"
                         * functions:
BE08  00                 sizep (0)
                         * lines:
BE09  06                 sizelineinfo (6)
                         [pc] (line)
BE0A  91                 [1] (-111)
BE0B  05                 [2] (-111)
BE0C  00                 [3] (-111)
BE0D  00                 [4] (-111)
BE0E  91                 [5] (-111)
BE0F  05                 [6] (-110)
                         * locals:
BE22  00                 sizelocvars (0)
                         * upvalues:
BE23  00                 sizeupvalues (0)
                         ** end of function **

                         
BE24                     ** function [55] definition (level 2)
                         ** start of function **
BE24  00                 string size (0)
                         source name: (none)
BE26  0B                 line defined (1428)
BE27  98                 last line defined (1432)
BE28  0B                 nups (1)
BE29  01                 numparams (1)
BE2A  01                 is_vararg (0)
BE2B  00                 maxstacksize (8)
                         * code:
BE2D  0F                 sizecode (15)
fail op	35
BE2E  63004000           [01] close      1  
BE32  1A000080           [02] jmp        1            ; to [4]
BE36  17400000           [03] loadbool   0   0   1    ; false, to [5]
BE3A  17008000           [04] loadbool   0   1   0    ; true
BE3E  5D400000           [05] getglobal  1   1        ; mMovie
BE42  6480C000           [06] self       1   1   258  ; 386043535
BE46  D9C00000           [07] loadk      3   3        ; "TreasureInfo.RotateHint.text"
BE4A  13010000           [08] getupval   4   0      
BE4E  0E014102           [09] gettable   4   4   260  ; -132701534
fail op	9
BE52  49010000           [10] settable   5   0   0  
BE56  99410100           [11] loadk      6   5        ; "/Lotus/Language/Menu/FusionTreasureMgr_RotateHintController"
BE5A  D9810100           [12] loadk      7   6        ; "/Lotus/Language/Menu/FusionTreasureMgr_RotateHint"
BE5E  22010002           [13] call       4   4   0  
BE62  62400000           [14] call       1   0   1  
BE66  1E008000           [15] return     0   1      
                         * constants:
BE6A  07                 sizek (7)
BE6B  04                 const type 4
BE6C  05                 string size (5)
BE6D  7472756500         "true\0"
                         const [0]: "true"
BE72  04                 const type 4
BE73  07                 string size (7)
BE74  6D4D6F76696500     "mMovie\0"
                         const [1]: "mMovie"
BE7B  01                 const type 3
BE7C  8F8E0217           const [2]: (386043535)
BE80  04                 const type 4
BE81  1D                 string size (29)
BE82  5472656173757265+  "Treasure"
BE8A  496E666F2E526F74+  "Info.Rot"
BE92  61746548696E742E+  "ateHint."
BE9A  7465787400         "text\0"
                         const [3]: "TreasureInfo.RotateHint.text"
BE9F  01                 const type 3
BEA0  A22217F8           const [4]: (-132701534)
BEA4  04                 const type 4
BEA5  3C                 string size (60)
BEA6  2F4C6F7475732F4C+  "/Lotus/L"
BEAE  616E67756167652F+  "anguage/"
BEB6  4D656E752F467573+  "Menu/Fus"
BEBE  696F6E5472656173+  "ionTreas"
BEC6  7572654D67725F52+  "ureMgr_R"
BECE  6F7461746548696E+  "otateHin"
BED6  74436F6E74726F6C+  "tControl"
BEDE  6C657200           "ler\0"
                         const [5]: "/Lotus/Language/Menu/FusionTreasureMgr_RotateHintController"
BEE2  04                 const type 4
BEE3  32                 string size (50)
BEE4  2F4C6F7475732F4C+  "/Lotus/L"
BEEC  616E67756167652F+  "anguage/"
BEF4  4D656E752F467573+  "Menu/Fus"
BEFC  696F6E5472656173+  "ionTreas"
BF04  7572654D67725F52+  "ureMgr_R"
BF0C  6F7461746548696E+  "otateHin"
BF14  7400               "t\0"
                         const [6]: "/Lotus/Language/Menu/FusionTreasureMgr_RotateHint"
                         * functions:
BF16  00                 sizep (0)
                         * lines:
BF17  0F                 sizelineinfo (15)
                         [pc] (line)
BF18  95                 [01] (-107)
BF19  05                 [02] (-107)
BF1A  00                 [03] (-107)
BF1B  00                 [04] (-107)
BF1C  95                 [05] (-105)
BF1D  05                 [06] (-105)
BF1E  00                 [07] (-105)
BF1F  00                 [08] (-105)
BF20  95                 [09] (-105)
BF21  05                 [10] (-105)
BF22  00                 [11] (-105)
BF23  00                 [12] (-105)
BF24  95                 [13] (-105)
BF25  05                 [14] (-105)
BF26  00                 [15] (-104)
                         * locals:
BF54  00                 sizelocvars (0)
                         * upvalues:
BF55  00                 sizeupvalues (0)
                         ** end of function **

                         
BF56                     ** function [56] definition (level 2)
                         ** start of function **
BF56  00                 string size (0)
                         source name: (none)
BF58  0B                 line defined (1434)
BF59  9C                 last line defined (1436)
BF5A  0B                 nups (0)
BF5B  00                 numparams (0)
BF5C  00                 is_vararg (0)
BF5D  00                 maxstacksize (2)
                         * code:
BF5F  03                 sizecode (3)
BF60  17008000           [1] loadbool   0   1   0    ; true
BF64  1E000001           [2] return     0   2      
BF68  1E008000           [3] return     0   1      
                         * constants:
BF6C  00                 sizek (0)
                         * functions:
BF6D  00                 sizep (0)
                         * lines:
BF6E  03                 sizelineinfo (3)
                         [pc] (line)
BF6F  9B                 [1] (-101)
BF70  05                 [2] (-101)
BF71  00                 [3] (-100)
                         * locals:
BF7B  00                 sizelocvars (0)
                         * upvalues:
BF7C  00                 sizeupvalues (0)
                         ** end of function **

                         * lines:
BF7E  03                 sizelineinfo (446)
                         [pc] (line)
BF7F  11                 [001] (17)
BF80  00                 [002] (17)
BF81  00                 [003] (17)
BF82  00                 [004] (18)
BF83  11                 [005] (18)
BF84  00                 [006] (18)
BF85  00                 [007] (19)
BF86  00                 [008] (19)
BF87  11                 [009] (19)
BF88  00                 [010] (20)
BF89  00                 [011] (20)
BF8A  00                 [012] (20)
BF8B  12                 [013] (21)
BF8C  00                 [014] (21)
BF8D  00                 [015] (21)
BF8E  00                 [016] (23)
BF8F  12                 [017] (23)
BF90  00                 [018] (23)
BF91  00                 [019] (24)
BF92  00                 [020] (24)
BF93  12                 [021] (24)
BF94  00                 [022] (25)
BF95  00                 [023] (25)
BF96  00                 [024] (25)
BF97  13                 [025] (27)
BF98  00                 [026] (28)
BF99  00                 [027] (31)
BF9A  00                 [028] (32)
BF9B  13                 [029] (33)
BF9C  00                 [030] (34)
BF9D  00                 [031] (34)
BF9E  00                 [032] (34)
BF9F  13                 [033] (35)
BFA0  00                 [034] (36)
BFA1  00                 [035] (36)
BFA2  00                 [036] (36)
BFA3  14                 [037] (36)
BFA4  00                 [038] (36)
BFA5  00                 [039] (37)
BFA6  00                 [040] (37)
BFA7  14                 [041] (37)
BFA8  00                 [042] (37)
BFA9  00                 [043] (38)
BFAA  00                 [044] (38)
BFAB  14                 [045] (38)
BFAC  00                 [046] (39)
BFAD  00                 [047] (39)
BFAE  00                 [048] (39)
BFAF  15                 [049] (39)
BFB0  00                 [050] (39)
BFB1  00                 [051] (39)
BFB2  00                 [052] (39)
BFB3  15                 [053] (39)
BFB4  00                 [054] (39)
BFB5  00                 [055] (39)
BFB6  00                 [056] (39)
BFB7  15                 [057] (40)
BFB8  00                 [058] (41)
BFB9  00                 [059] (42)
BFBA  00                 [060] (43)
BFBB  17                 [061] (44)
BFBC  00                 [062] (46)
BFBD  00                 [063] (47)
BFBE  00                 [064] (48)
BFBF  17                 [065] (49)
BFC0  00                 [066] (50)
BFC1  00                 [067] (52)
BFC2  00                 [068] (53)
BFC3  17                 [069] (54)
BFC4  00                 [070] (55)
BFC5  00                 [071] (56)
BFC6  00                 [072] (57)
BFC7  18                 [073] (57)
BFC8  00                 [074] (57)
BFC9  00                 [075] (57)
BFCA  00                 [076] (58)
BFCB  18                 [077] (58)
BFCC  00                 [078] (58)
BFCD  00                 [079] (58)
BFCE  00                 [080] (59)
BFCF  18                 [081] (59)
BFD0  00                 [082] (60)
BFD1  00                 [083] (60)
BFD2  00                 [084] (60)
BFD3  19                 [085] (61)
BFD4  00                 [086] (61)
BFD5  00                 [087] (61)
BFD6  00                 [088] (62)
BFD7  19                 [089] (62)
BFD8  00                 [090] (62)
BFD9  00                 [091] (63)
BFDA  00                 [092] (65)
BFDB  19                 [093] (65)
BFDC  00                 [094] (65)
BFDD  00                 [095] (65)
BFDE  00                 [096] (67)
BFDF  1B                 [097] (69)
BFE0  00                 [098] (70)
BFE1  00                 [099] (71)
BFE2  00                 [100] (74)
BFE3  1C                 [101] (83)
BFE4  00                 [102] (83)
BFE5  00                 [103] (83)
BFE6  00                 [104] (81)
BFE7  1F                 [105] (87)
BFE8  00                 [106] (105)
BFE9  00                 [107] (105)
BFEA  00                 [108] (105)
BFEB  20                 [109] (89)
BFEC  00                 [110] (121)
BFED  00                 [111] (121)
BFEE  00                 [112] (121)
BFEF  21                 [113] (121)
BFF0  00                 [114] (125)
BFF1  00                 [115] (125)
BFF2  00                 [116] (-54)
BFF3  22                 [117] (-54)
BFF4  00                 [118] (-54)
BFF5  00                 [119] (-54)
BFF6  00                 [120] (-54)
BFF7  22                 [121] (-54)
BFF8  00                 [122] (-54)
BFF9  00                 [123] (-54)
BFFA  00                 [124] (-54)
BFFB  22                 [125] (-54)
BFFC  00                 [126] (-54)
BFFD  00                 [127] (-54)
BFFE  00                 [128] (127)
BFFF  23                 [129] (-31)
C000  00                 [130] (-31)
C001  00                 [131] (-31)
C002  00                 [132] (-31)
C003  24                 [133] (-31)
C004  00                 [134] (-31)
C005  00                 [135] (-11)
C006  00                 [136] (-11)
C007  24                 [137] (-11)
C008  00                 [138] (-11)
C009  00                 [139] (26)
C00A  00                 [140] (26)
C00B  24                 [141] (26)
C00C  00                 [142] (81)
C00D  00                 [143] (81)
C00E  00                 [144] (81)
C00F  24                 [145] (81)
C010  00                 [146] (81)
C011  00                 [147] (81)
C012  00                 [148] (81)
C013  24                 [149] (81)
C014  00                 [150] (81)
C015  00                 [151] (-75)
C016  00                 [152] (-75)
C017  25                 [153] (-75)
C018  00                 [154] (-75)
C019  00                 [155] (-75)
C01A  00                 [156] (-75)
C01B  25                 [157] (-75)
C01C  00                 [158] (-75)
C01D  00                 [159] (-75)
C01E  00                 [160] (-75)
C01F  25                 [161] (-75)
C020  00                 [162] (-75)
C021  00                 [163] (-72)
C022  00                 [164] (-72)
C023  25                 [165] (-73)
C024  00                 [166] (41)
C025  00                 [167] (41)
C026  00                 [168] (41)
C027  26                 [169] (41)
C028  00                 [170] (41)
C029  00                 [171] (41)
C02A  00                 [172] (41)
C02B  26                 [173] (41)
C02C  00                 [174] (41)
C02D  00                 [175] (41)
C02E  00                 [176] (41)
C02F  26                 [177] (41)
C030  00                 [178] (41)
C031  00                 [179] (41)
C032  00                 [180] (41)
C033  27                 [181] (41)
C034  00                 [182] (-70)
C035  00                 [183] (50)
C036  00                 [184] (50)
C037  27                 [185] (50)
C038  00                 [186] (50)
C039  00                 [187] (50)
C03A  00                 [188] (59)
C03B  27                 [189] (59)
C03C  00                 [190] (59)
C03D  00                 [191] (59)
C03E  00                 [192] (59)
C03F  27                 [193] (59)
C040  00                 [194] (52)
C041  00                 [195] (81)
C042  00                 [196] (81)
C043  27                 [197] (81)
C044  00                 [198] (81)
C045  00                 [199] (81)
C046  00                 [200] (81)
C047  27                 [201] (-106)
C048  00                 [202] (-106)
C049  00                 [203] (-106)
C04A  00                 [204] (-106)
C04B  27                 [205] (-106)
C04C  00                 [206] (-106)
C04D  00                 [207] (-106)
C04E  00                 [208] (-106)
C04F  27                 [209] (-63)
C050  00                 [210] (-63)
C051  00                 [211] (-63)
C052  00                 [212] (-63)
C053  27                 [213] (-63)
C054  00                 [214] (-63)
C055  00                 [215] (-63)
C056  00                 [216] (-16)
C057  27                 [217] (-16)
C058  00                 [218] (-16)
C059  00                 [219] (-16)
C05A  00                 [220] (-16)
C05B  27                 [221] (8)
C05C  00                 [222] (8)
C05D  00                 [223] (16)
C05E  00                 [224] (16)
C05F  28                 [225] (16)
C060  00                 [226] (62)
C061  00                 [227] (62)
C062  00                 [228] (62)
C063  29                 [229] (62)
C064  00                 [230] (62)
C065  00                 [231] (62)
C066  00                 [232] (62)
C067  2A                 [233] (62)
C068  00                 [234] (62)
C069  00                 [235] (62)
C06A  00                 [236] (120)
C06B  2B                 [237] (120)
C06C  00                 [238] (120)
C06D  00                 [239] (120)
C06E  00                 [240] (120)
C06F  2C                 [241] (120)
C070  00                 [242] (120)
C071  00                 [243] (120)
C072  00                 [244] (120)
C073  2E                 [245] (120)
C074  00                 [246] (120)
C075  00                 [247] (120)
C076  00                 [248] (120)
C077  2F                 [249] (-1)
C078  00                 [250] (-1)
C079  00                 [251] (-1)
C07A  00                 [252] (-1)
C07B  30                 [253] (-1)
C07C  00                 [254] (-1)
C07D  00                 [255] (-1)
C07E  00                 [256] (19)
C07F  31                 [257] (19)
C080  00                 [258] (19)
C081  00                 [259] (-127)
C082  00                 [260] (-127)
C083  32                 [261] (-127)
C084  00                 [262] (-127)
C085  00                 [263] (-127)
C086  00                 [264] (-127)
C087  34                 [265] (-127)
C088  00                 [266] (-127)
C089  00                 [267] (-127)
C08A  00                 [268] (-127)
C08B  35                 [269] (-127)
C08C  00                 [270] (-127)
C08D  00                 [271] (-127)
C08E  00                 [272] (-127)
C08F  36                 [273] (-127)
C090  00                 [274] (-127)
C091  00                 [275] (-127)
C092  00                 [276] (21)
C093  37                 [277] (-106)
C094  00                 [278] (-106)
C095  00                 [279] (-106)
C096  00                 [280] (-106)
C097  38                 [281] (-106)
C098  00                 [282] (-106)
C099  00                 [283] (-106)
C09A  00                 [284] (-106)
C09B  39                 [285] (-106)
C09C  00                 [286] (-106)
C09D  00                 [287] (-92)
C09E  00                 [288] (-92)
C09F  39                 [289] (-20)
C0A0  00                 [290] (-20)
C0A1  00                 [291] (-20)
C0A2  00                 [292] (-20)
C0A3  39                 [293] (-20)
C0A4  00                 [294] (-20)
C0A5  00                 [295] (-20)
C0A6  00                 [296] (-20)
C0A7  39                 [297] (-20)
C0A8  00                 [298] (-20)
C0A9  00                 [299] (-20)
C0AA  00                 [300] (-20)
C0AB  3A                 [301] (-20)
C0AC  00                 [302] (-20)
C0AD  00                 [303] (-20)
C0AE  00                 [304] (-20)
C0AF  3A                 [305] (-20)
C0B0  00                 [306] (-20)
C0B1  00                 [307] (-20)
C0B2  00                 [308] (-20)
C0B3  3A                 [309] (-20)
C0B4  00                 [310] (-20)
C0B5  00                 [311] (-20)
C0B6  00                 [312] (-20)
C0B7  3A                 [313] (-20)
C0B8  00                 [314] (-90)
C0B9  00                 [315] (-14)
C0BA  00                 [316] (-14)
C0BB  3B                 [317] (-14)
C0BC  00                 [318] (-18)
C0BD  00                 [319] (-8)
C0BE  00                 [320] (-8)
C0BF  3B                 [321] (-8)
C0C0  00                 [322] (-12)
C0C1  00                 [323] (-2)
C0C2  00                 [324] (-2)
C0C3  3C                 [325] (-2)
C0C4  00                 [326] (-2)
C0C5  00                 [327] (-6)
C0C6  00                 [328] (5)
C0C7  3C                 [329] (5)
C0C8  00                 [330] (5)
C0C9  00                 [331] (5)
C0CA  00                 [332] (0)
C0CB  3C                 [333] (9)
C0CC  00                 [334] (9)
C0CD  00                 [335] (7)
C0CE  00                 [336] (17)
C0CF  3D                 [337] (17)
C0D0  00                 [338] (17)
C0D1  00                 [339] (17)
C0D2  00                 [340] (11)
C0D3  3D                 [341] (24)
C0D4  00                 [342] (24)
C0D5  00                 [343] (24)
C0D6  00                 [344] (24)
C0D7  3D                 [345] (24)
C0D8  00                 [346] (19)
C0D9  00                 [347] (31)
C0DA  00                 [348] (31)
C0DB  3E                 [349] (31)
C0DC  00                 [350] (31)
C0DD  00                 [351] (31)
C0DE  00                 [352] (26)
C0DF  3E                 [353] (35)
C0E0  00                 [354] (35)
C0E1  00                 [355] (35)
C0E2  00                 [356] (33)
C0E3  3E                 [357] (39)
C0E4  00                 [358] (39)
C0E5  00                 [359] (39)
C0E6  00                 [360] (37)
C0E7  3F                 [361] (43)
C0E8  00                 [362] (43)
C0E9  00                 [363] (43)
C0EA  00                 [364] (41)
C0EB  41                 [365] (47)
C0EC  00                 [366] (47)
C0ED  00                 [367] (47)
C0EE  00                 [368] (45)
C0EF  41                 [369] (55)
C0F0  00                 [370] (55)
C0F1  00                 [371] (55)
C0F2  00                 [372] (55)
C0F3  41                 [373] (49)
C0F4  00                 [374] (66)
C0F5  00                 [375] (66)
C0F6  00                 [376] (66)
C0F7  41                 [377] (66)
C0F8  00                 [378] (66)
C0F9  00                 [379] (57)
C0FA  00                 [380] (74)
C0FB  43                 [381] (74)
C0FC  00                 [382] (74)
C0FD  00                 [383] (74)
C0FE  00                 [384] (68)
C0FF  45                 [385] (80)
C100  00                 [386] (80)
C101  00                 [387] (80)
C102  00                 [388] (80)
C103  46                 [389] (76)
C104  00                 [390] (86)
C105  00                 [391] (86)
C106  00                 [392] (86)
C107  47                 [393] (86)
C108  00                 [394] (82)
C109  00                 [395] (92)
C10A  00                 [396] (92)
C10B  4A                 [397] (92)
C10C  00                 [398] (92)
C10D  00                 [399] (92)
C10E  00                 [400] (88)
C10F  53                 [401] (98)
C110  00                 [402] (98)
C111  00                 [403] (98)
C112  00                 [404] (98)
C113  53                 [405] (94)
C114  00                 [406] (104)
C115  00                 [407] (104)
C116  00                 [408] (104)
C117  53                 [409] (104)
C118  00                 [410] (100)
C119  00                 [411] (110)
C11A  00                 [412] (110)
C11B  51                 [413] (110)
C11C  00                 [414] (110)
C11D  00                 [415] (106)
C11E  00                 [416] (118)
C11F  57                 [417] (118)
C120  00                 [418] (118)
C121  00                 [419] (112)
C122  00                 [420] (126)
C123  69                 [421] (126)
C124  00                 [422] (126)
C125  00                 [423] (120)
C126  00                 [424] (-122)
C127  69                 [425] (-122)
C128  00                 [426] (-122)
C129  00                 [427] (-122)
C12A  00                 [428] (-128)
C12B  69                 [429] (-114)
C12C  00                 [430] (-114)
C12D  00                 [431] (-114)
C12E  00                 [432] (-114)
C12F  59                 [433] (-114)
C130  00                 [434] (-120)
C131  00                 [435] (-110)
C132  00                 [436] (-110)
C133  79                 [437] (-110)
C134  00                 [438] (-112)
C135  00                 [439] (-104)
C136  00                 [440] (-104)
C137  79                 [441] (-104)
C138  00                 [442] (-108)
C139  00                 [443] (-100)
C13A  00                 [444] (-100)
C13B  79                 [445] (-102)
C13C  00                 [446] (-100)
                         * locals:
C677  00                 sizelocvars (0)
                         * upvalues:
C678  00                 sizeupvalues (0)
                         ** end of function **

C679                     ** end of chunk **
