1	C:\wlua_dump\path\Lotus\InterfaceKubrowImprint.lua
Pos   Hex Data           Description or Code
------------------------------------------------------------------------
0000                     ** source chunk: C:\wlua_dump\path\Lotus\InterfaceKubrowImprint.lua
                         ** global header start **
0000  7F                 header signature: ""
0001  00                 version (major:minor hex digits)
0002  00                 format (0=official)
0003  00                 endianness (1=little endian)
0004  00                 size of int (bytes)
0005  00                 size of size_t (bytes)
0006  02                 size of Instruction (bytes)
0007  3B                 size of number (bytes)
0008  D2                 integral (1=integral)
4210
                         * number type: single
                         * x86 standard (32-bit, little endian, doubles)
                         ** global header end **
CloakHDR
CloakVector
Lotus.Interface.LotusUtilities
EE.Interface.Utilities
Lotus.Interface.UIUtilities
EE.Interface.AnchorMgr
/Lotus/Types/Game/KubrowPet/DistillPrintRecipe
/Lotus/Language/Menu/GeneticLab
Loader
Pass
Type
/Lotus/Types/Game/CatbrowPet/VampireCatbrowPetPowerSuit
Name
/Lotus/Language/Pets/VampireKavatName
/Lotus/Types/Game/KubrowPet/KubrowPetPowerSuit
/Lotus/Types/Game/KubrowPet/AdventurerKubrowPetPowerSuit
/Lotus/Language/Items/AdventurerKubrowName
/Lotus/Types/Game/KubrowPet/FurtiveKubrowPetPowerSuit
/Lotus/Language/Items/FurtiveKubrowName
/Lotus/Types/Game/KubrowPet/GuardKubrowPetPowerSuit
/Lotus/Language/Items/GuardKubrowName
/Lotus/Types/Game/KubrowPet/HunterKubrowPetPowerSuit
/Lotus/Language/Items/HunterKubrowName
/Lotus/Types/Game/KubrowPet/RetrieverKubrowPetPowerSuit
/Lotus/Language/Items/RetrieverKubrowName
/Lotus/Types/Game/KubrowPet/ChargerKubrowPetPowerSuit
/Lotus/Language/Items/InfestedKubrowName
/Lotus/Types/Game/CatbrowPet/MirrorCatbrowPetPowerSuit
/Lotus/Language/Items/MirrorCatbrowName
/Lotus/Types/Game/CatbrowPet/CheshireCatbrowPetPowerSuit
/Lotus/Language/Items/CheshireCatbrowName
Cloak
GAME_C1_HEAD1
IsInputBlocked
Shutdown
SetTrigger
EntryFocused
EntryUnfocused
EntryPressed
Update
Initialize
Close
onKeyDown_HIDE_PAUSE_MENU
onKeyDown_MENU_SELECT
onViewportSizeChanged
RollOver
MenuItemFocused
MenuItemUnfocused
MenuItemSelected
MenuItemPressed
onKeyDown_MENU_MOUSE_Z
SetSelectionMode
SetCallback
SetElementsFunction
SetOnTransitionOutFunction
SetTitle
SupportsThemes
x
y
z
red
green
blue
gEntityType
x
y
z
mMovie
InterpAnchor
UISys
FlashInstance_LINEAR
gBackgroundRegion
Kubrow2
mDominantTraits
mBodyType
defaultPetBodyType
mFurPattern
defaultPetPattern
mHead
mTail
mPersonality
mIsMale
/Lotus/Types/Friendly/Pets/KubrowPetAvatar
/Lotus/Types/Friendly/Pets/CatbrowPetAvatar
mSize
Lotus_Game
Helmet
BodySkin
ArmRight
LegRight
mBaseColor
defaultPetColors
mSecondaryColor
mTertiaryColor
mAccentColor
mEyeColor
PrimaryColors
table
table
Pass
gBackgroundRegion
Kubrow
mDominantTraits
mBodyType
defaultPetBodyType
mFurPattern
defaultPetPattern
mHead
mTail
mBaseColor
mSecondaryColor
mTertiaryColor
mAccentColor
mEyeColor
defaultPetColors
mPersonality
table
/Lotus/Types/Friendly/Pets/KubrowPetAvatar
/Lotus/Types/Friendly/Pets/CatbrowPetAvatar
mIsMale
Lotus_Game
MAX_SlotName
Loader
UISys
levelType
level
_T
mPulseBG
gFlashMgr
mMovie
math
mMovie
ImprintPanel
UISys
FlashInstance_LINEAR
_alpha
math
gFlashMgr
_T
KubrowPreviewOpen
SetSquadOverlayTitle
InfoPopup_Data
_G
UISound_Close
mMovie
_root
UISys
FlashInstance_LINEAR
_alpha
_T
mMovie
_T
mTrigger
_G
UISound_Select
_T
mMovie
gFlashMgr
mFocusedMenuElement
mFocusedMenuElement
table
Label
/Lotus/Language/Menu/SelectImprint
CallBack
CallOut
MENU_SELECT
/Lotus/Language/Menu/Exit
MENU_CANCEL
_T
mMovie
mMovie
mScrollBar
Loader
Pass
Lotus.Interface.Components.CategorizedGrid
mMovie
ImprintPanel.Item1
MenuItemSelected
MenuItemFocused
MenuItemUnfocused
MenuItemPressed
mShowLabels
mSelectedScale
mScrollBarHorizontalOffset
ElementDimBuffer
ElementWidth
ElementHeight
Width
Height
ImprintPanel.ScrollBar
mScrollAlwaysVisible
mWrapAroundNavigation
RectangleVisibleRangeMaterial
visibleRangeRectangleMaterial
VisibleRangeMaterial
visibleRangeMaterial
TextVisibleRangeMaterial
visibleRangeTextMaterial
AdditionalFilterFunction
mClipCreatedCallback
mElementDrawCallback
mOnFocusedCallback
mOnUnfocusedCallback
mOnSelectedCallback
mOnPressedCallback
Filler
mLabel

string
Name
mMovie
Id
mFocusedMenuElement
IsFocused
IsSelected
IsFiller
Filler
mMovie
mClipName
Filler
_G
UISound_Focus
mFocusedMenuElement
Id
mMovie
IsFocused
IsSelected
CustomEntry
Name
string
LocalizedDesc
/Lotus/Language/Menu/ImprintDesc
MetaData
_screenX
_screenY
ElementWidth
ElementHeight
LABEL_TYPE_MISC_ITEM
PetTypeName
Icon
PetIcon
IconTintLabelColor
IconDims
H
IconPos
Y
LabelOffset
table

IsMale
/Lotus/Language/Menu/KubrowMale
/Lotus/Language/Menu/KubrowFemale
genderTextures
W
CustomTags
_T
InfoPopup_Data
InfoPopup_Grid
mClipName
Filler
mFocusedMenuElement
Id
mMovie
IsFocused
IsSelected
Filler
mFocusedMenuElement
mClipName
Id
Engine
mPressTime
_G
UISound_Select
_G
UISound_Select
_T
Print
table
mDominantTraits
mPersonality
mName
imprintTexture

Type
Name
mMovie
vampireKavatIcon
imprintVascaTexture
/Lotus/Language/Pets/VascaDrawnImprintName
NAME
Icon
/Lotus/Language/Items/ImprintedTraitPrintName
PetIcon
PetTypeName
ImprintId
Id
Count
IsMale
mIsMale
Themed
math
mRows
mUnfilteredElements
Filler
mRows
mRowSeparation
mMovie
ImprintPanel
_y
visibleRangeRectangleMaterial
visibleRangeMaterial
visibleRangeTextMaterial
Lotus_Game
VISIBILITY_SIZE
VISIBILITY_CENTER
VISIBILITY_FADE_SIZE
/Lotus/Language/Menu/CompanionImprints
/Lotus/Language/Menu/SelectImprint
_T
SetSquadOverlayTitle
mMovie
Lotus.Interface.Libs.TimerMgr
_T
KubrowPreviewOpen
mMovie
ImprintPanel
ANCHOR_H_LEFT
ANCHOR_V_TOP
gPlayerProfileMgr
table
mDetails
Icon
temperamentTextures
_G
UISound_Open
Lotus.Interface.Libs.DioramaLoader
InterpAnchor
text

Lotus.Interface.Components.ThemedSpinner
Spinner
_alpha
/Lotus/Language/Menu/SearchPrompt
Lotus.Interface.Components.ThemedInputField
ImprintPanel.SearchBox
<MENU_LTHUMB>
TYPE
PLAIN
mMinSize
mMaxSize
mTextBuffer
mAltButtonIcon
UITexture_Search
mAltButtonVisible
mUnfocusedUnderlineColorOverride
BaseInputFieldTextChanged
InputFieldTextChanged
BaseOnGamepadTransition
OnGamepadTransition
_root
UISys
FlashInstance_LINEAR
kubrowDiorama
mLabel

_G
UITexture_Search
UITexture_ClearSearch
mAltButtonicon
mMovie
mClipName
.BtnAlt
mMuteGridOpenSound
Engine
mAltButtonVisible
mMovie
mClipName
BtnAlt
_visible
_T
KubrowPreviewOpen
_G
UISound_Focus
mScrollBar
_G
UISound_Scroll
true
                         
0001                     ** function [0] definition (level 1)
                         ** start of function **
0001  00                 string size (0)
                         source name: (none)
0002  00                 line defined (0)
0003  00                 last line defined (0)
0004  00                 nups (0)
0005  00                 numparams (0)
0006  02                 is_vararg (2)
0007  3B                 maxstacksize (59)
                         * code:
0009  02                 sizecode (338)
000A  1D000000           [001] getglobal  0   0        ; -332969190
000E  59400000           [002] loadk      1   1        ; "CloakHDR"
0012  22800001           [003] call       0   2   2  
0016  5D000000           [004] getglobal  1   0        ; -332969190
001A  99800000           [005] loadk      2   2        ; "CloakVector"
001E  62800001           [006] call       1   2   2  
0022  9DC00000           [007] getglobal  2   3        ; 849075268
0026  D9000100           [008] loadk      3   4        ; "Lotus.Interface.LotusUtilities"
002A  A2800001           [009] call       2   2   2  
002E  DDC00000           [010] getglobal  3   3        ; 849075268
0032  19410100           [011] loadk      4   5        ; "EE.Interface.Utilities"
0036  E2800001           [012] call       3   2   2  
003A  1DC10000           [013] getglobal  4   3        ; 849075268
003E  59810100           [014] loadk      5   6        ; "Lotus.Interface.UIUtilities"
0042  22810001           [015] call       4   2   2  
0046  5DC10000           [016] getglobal  5   3        ; 849075268
004A  99C10100           [017] loadk      6   7        ; "EE.Interface.AnchorMgr"
004E  62810001           [018] call       5   2   2  
0052  86010003           [019] loadnil    6   6      
0056  D9010200           [020] loadk      7   8        ; 0
005A  06020004           [021] loadnil    8   8      
005E  57020000           [022] loadbool   9   0   0    ; false
0062  86020006           [023] loadnil    10  12     
0066  57030000           [024] loadbool   13  0   0    ; false
006A  97038000           [025] loadbool   14  1   0    ; true
006E  C6038007           [026] loadnil    15  15     
0072  19440200           [027] loadk      16  9        ; "/Lotus/Types/Game/KubrowPet/DistillPrintRecipe"
0076  5D840200           [028] getglobal  17  10       ; 738251817
007A  92040008           [029] move       18  16     
007E  62840001           [030] call       17  2   2  
0082  8B040000           [031] newtable   18  0   0    ; array=0, hash=0
0086  C6048009           [032] loadnil    19  19     
008A  0B050000           [033] newtable   20  0   0    ; array=0, hash=0
008E  59050200           [034] loadk      21  8        ; 0
0092  8605000B           [035] loadnil    22  22     
0096  D7050000           [036] loadbool   23  0   0    ; false
009A  17060000           [037] loadbool   24  0   0    ; false
009E  4606000F           [038] loadnil    25  30     
00A2  D9C70200           [039] loadk      31  11       ; "/Lotus/Language/Menu/GeneticLab"
00A6  0B880000           [040] newtable   32  0   2    ; array=0, hash=2
00AA  0C484386           [041] settable   32  268 269  ; "Loader" nil
00AE  0CC84387           [042] settable   32  270 271  ; "Pass" 0
00B2  4B880000           [043] newtable   33  0   2    ; array=0, hash=2
00B6  9D880200           [044] getglobal  34  10       ; 738251817
00BA  D9480400           [045] loadk      35  17       ; "/Lotus/Types/Game/CatbrowPet/VampireCatbrowPetPowerSuit"
00BE  A2880001           [046] call       34  2   2  
00C2  4C880888           [047] settable   33  272 34   ; "Type"
00C6  4CC84489           [048] settable   33  274 275  ; "Name" "/Lotus/Language/Pets/VampireKavatName"
00CA  9D880200           [049] getglobal  34  10       ; 738251817
00CE  D9080500           [050] loadk      35  20       ; "/Lotus/Types/Game/KubrowPet/KubrowPetPowerSuit"
00D2  A2880001           [051] call       34  2   2  
00D6  CB088004           [052] newtable   35  9   0    ; array=9, hash=0
00DA  0B890000           [053] newtable   36  0   2    ; array=0, hash=2
00DE  5D890200           [054] getglobal  37  10       ; 738251817
00E2  99490500           [055] loadk      38  21       ; "/Lotus/Types/Game/KubrowPet/AdventurerKubrowPetPowerSuit"
00E6  62890001           [056] call       37  2   2  
00EA  0C490988           [057] settable   36  272 37   ; "Type"
00EE  0C894589           [058] settable   36  274 278  ; "Name" "/Lotus/Language/Items/AdventurerKubrowName"
00F2  4B890000           [059] newtable   37  0   2    ; array=0, hash=2
00F6  9D890200           [060] getglobal  38  10       ; 738251817
00FA  D9C90500           [061] loadk      39  23       ; "/Lotus/Types/Game/KubrowPet/FurtiveKubrowPetPowerSuit"
00FE  A2890001           [062] call       38  2   2  
0102  4C890988           [063] settable   37  272 38   ; "Type"
0106  4C094689           [064] settable   37  274 280  ; "Name" "/Lotus/Language/Items/FurtiveKubrowName"
010A  8B890000           [065] newtable   38  0   2    ; array=0, hash=2
010E  DD890200           [066] getglobal  39  10       ; 738251817
0112  194A0600           [067] loadk      40  25       ; "/Lotus/Types/Game/KubrowPet/GuardKubrowPetPowerSuit"
0116  E2890001           [068] call       39  2   2  
011A  8CC90988           [069] settable   38  272 39   ; "Type"
011E  8C894689           [070] settable   38  274 282  ; "Name" "/Lotus/Language/Items/GuardKubrowName"
0122  CB890000           [071] newtable   39  0   2    ; array=0, hash=2
0126  1D8A0200           [072] getglobal  40  10       ; 738251817
012A  59CA0600           [073] loadk      41  27       ; "/Lotus/Types/Game/KubrowPet/HunterKubrowPetPowerSuit"
012E  228A0001           [074] call       40  2   2  
0132  CC090A88           [075] settable   39  272 40   ; "Type"
0136  CC094789           [076] settable   39  274 284  ; "Name" "/Lotus/Language/Items/HunterKubrowName"
013A  0B8A0000           [077] newtable   40  0   2    ; array=0, hash=2
013E  5D8A0200           [078] getglobal  41  10       ; 738251817
0142  994A0700           [079] loadk      42  29       ; "/Lotus/Types/Game/KubrowPet/RetrieverKubrowPetPowerSuit"
0146  628A0001           [080] call       41  2   2  
014A  0C4A0A88           [081] settable   40  272 41   ; "Type"
014E  0C8A4789           [082] settable   40  274 286  ; "Name" "/Lotus/Language/Items/RetrieverKubrowName"
0152  4B8A0000           [083] newtable   41  0   2    ; array=0, hash=2
0156  9D8A0200           [084] getglobal  42  10       ; 738251817
015A  D9CA0700           [085] loadk      43  31       ; "/Lotus/Types/Game/KubrowPet/ChargerKubrowPetPowerSuit"
015E  A28A0001           [086] call       42  2   2  
0162  4C8A0A88           [087] settable   41  272 42   ; "Type"
0166  4C0A4889           [088] settable   41  274 288  ; "Name" "/Lotus/Language/Items/InfestedKubrowName"
016A  8B8A0000           [089] newtable   42  0   2    ; array=0, hash=2
016E  DD8A0200           [090] getglobal  43  10       ; 738251817
0172  194B0800           [091] loadk      44  33       ; "/Lotus/Types/Game/CatbrowPet/MirrorCatbrowPetPowerSuit"
0176  E28A0001           [092] call       43  2   2  
017A  8CCA0A88           [093] settable   42  272 43   ; "Type"
017E  8C8A4889           [094] settable   42  274 290  ; "Name" "/Lotus/Language/Items/MirrorCatbrowName"
0182  CB8A0000           [095] newtable   43  0   2    ; array=0, hash=2
0186  1D8B0200           [096] getglobal  44  10       ; 738251817
018A  59CB0800           [097] loadk      45  35       ; "/Lotus/Types/Game/CatbrowPet/CheshireCatbrowPetPowerSuit"
018E  228B0001           [098] call       44  2   2  
0192  CC0A0B88           [099] settable   43  272 44   ; "Type"
0196  CC0A4989           [100] settable   43  274 292  ; "Name" "/Lotus/Language/Items/CheshireCatbrowName"
019A  120B8010           [101] move       44  33     
019E  DB488004           [102] setlist    35  9   1    ; index 1 to 9
01A2  06090012           [103] loadnil    36  36     
01A6  5D090000           [104] getglobal  37  0        ; -332969190
01AA  99490900           [105] loadk      38  37       ; "Cloak"
01AE  62890001           [106] call       37  2   2  
01B2  9D090000           [107] getglobal  38  0        ; -332969190
01B6  D9890900           [108] loadk      39  38       ; "GAME_C1_HEAD1"
01BA  A2890001           [109] call       38  2   2  
01BE  E5090000           [110] closure    39  0      
01C2  12000007           [111] move       0   14     
01C6  E0C90900           [112] setglobal  39  39       ; IsInputBlocked
01CA  E0090A00           [113] setglobal  39  40       ; 1877468992
01CE  E5490000           [114] closure    39  1      
01D2  12008000           [115] move       0   1      
01D6  12000000           [116] move       0   0      
01DA  258A0000           [117] closure    40  2      
01DE  12008000           [118] move       0   1      
01E2  65CA0000           [119] closure    41  3      
01E6  12000013           [120] move       0   38     
01EA  12008013           [121] move       0   39     
01EE  12008012           [122] move       0   37     
01F2  12008009           [123] move       0   19     
01F6  A50A0100           [124] closure    42  4      
01FA  1200000A           [125] move       0   20     
01FE  12008001           [126] move       0   3      
0202  12000011           [127] move       0   34     
0206  12000009           [128] move       0   18     
020A  E54A0100           [129] closure    43  5      
020E  258B0100           [130] closure    44  6      
0212  12000010           [131] move       0   32     
0216  1200000A           [132] move       0   20     
021A  12008015           [133] move       0   43     
021E  12008001           [134] move       0   3      
0222  65CB0100           [135] closure    45  7      
0226  12000007           [136] move       0   14     
022A  12000004           [137] move       0   8      
022E  12008004           [138] move       0   9      
0232  12000003           [139] move       0   6      
0236  A50B0200           [140] closure    46  8      
023A  12000005           [141] move       0   10     
023E  12000004           [142] move       0   8      
0242  E54B0200           [143] closure    47  9      
0246  12000017           [144] move       0   46     
024A  12008004           [145] move       0   9      
024E  12000003           [146] move       0   6      
0252  12008003           [147] move       0   7      
0256  1200000B           [148] move       0   22     
025A  12000016           [149] move       0   44     
025E  12000005           [150] move       0   10     
0262  258C0200           [151] closure    48  10     
0266  12000001           [152] move       0   2      
026A  1200800D           [153] move       0   27     
026E  1200800B           [154] move       0   23     
0272  65CC0200           [155] closure    49  11     
0276  1200800B           [156] move       0   23     
027A  12000018           [157] move       0   48     
027E  604C0A00           [158] setglobal  49  41       ; Shutdown
0282  608C0A00           [159] setglobal  49  42       ; 1012367267
0286  650C0300           [160] closure    49  12     
028A  12000007           [161] move       0   14     
028E  12008001           [162] move       0   3      
0292  1200800B           [163] move       0   23     
0296  12000018           [164] move       0   48     
029A  1200800C           [165] move       0   25     
029E  1200000E           [166] move       0   28     
02A2  A54C0300           [167] closure    50  13     
02A6  A0CC0A00           [168] setglobal  50  43       ; SetTrigger
02AA  A00C0B00           [169] setglobal  50  44       ; 1066756660
02AE  A58C0300           [170] closure    50  14     
02B2  12008001           [171] move       0   3      
02B6  12000009           [172] move       0   18     
02BA  1200800A           [173] move       0   21     
02BE  12008014           [174] move       0   41     
02C2  25C90300           [175] closure    36  15     
02C6  12000019           [176] move       0   50     
02CA  E50C0400           [177] closure    51  16     
02CE  12000009           [178] move       0   18     
02D2  1200800A           [179] move       0   21     
02D6  12008014           [180] move       0   41     
02DA  12000004           [181] move       0   8      
02DE  12000005           [182] move       0   10     
02E2  12000017           [183] move       0   46     
02E6  12008018           [184] move       0   49     
02EA  254D0400           [185] closure    52  17     
02EE  1200000B           [186] move       0   22     
02F2  1200000E           [187] move       0   28     
02F6  12008019           [188] move       0   51     
02FA  658D0400           [189] closure    53  18     
02FE  1200000C           [190] move       0   24     
0302  1200000B           [191] move       0   22     
0306  1200001A           [192] move       0   52     
030A  12008019           [193] move       0   51     
030E  A5CD0400           [194] closure    54  19     
0312  1200000B           [195] move       0   22     
0316  A04D0B00           [196] setglobal  54  45       ; EntryFocused
031A  A08D0B00           [197] setglobal  54  46       ; 941604358
031E  A50D0500           [198] closure    54  20     
0322  1200000B           [199] move       0   22     
0326  A0CD0B00           [200] setglobal  54  47       ; EntryUnfocused
032A  A00D0C00           [201] setglobal  54  48       ; 1770832852
032E  A54D0500           [202] closure    54  21     
0332  12000007           [203] move       0   14     
0336  1200000B           [204] move       0   22     
033A  A04D0C00           [205] setglobal  54  49       ; EntryPressed
033E  A08D0C00           [206] setglobal  54  50       ; 1376040602
0342  A58D0500           [207] closure    54  22     
0346  12008006           [208] move       0   13     
034A  12000006           [209] move       0   12     
034E  1200800E           [210] move       0   29     
0352  1200000B           [211] move       0   22     
0356  12000010           [212] move       0   32     
035A  12000016           [213] move       0   44     
035E  12000015           [214] move       0   42     
0362  12000007           [215] move       0   14     
0366  12008017           [216] move       0   47     
036A  A0CD0C00           [217] setglobal  54  51       ; Update
036E  A00D0D00           [218] setglobal  54  52       ; -1938777623
0372  A5CD0500           [219] closure    54  23     
0376  1200000B           [220] move       0   22     
037A  12000002           [221] move       0   4      
037E  1200000F           [222] move       0   30     
0382  12008001           [223] move       0   3      
0386  1200000C           [224] move       0   24     
038A  1200001A           [225] move       0   52     
038E  1200801A           [226] move       0   53     
0392  12000019           [227] move       0   50     
0396  E50D0600           [228] closure    55  24     
039A  1200000D           [229] move       0   26     
039E  12000006           [230] move       0   12     
03A2  1200801B           [231] move       0   55     
03A6  1200000A           [232] move       0   20     
03AA  12008011           [233] move       0   35     
03AE  12008010           [234] move       0   33     
03B2  1200000B           [235] move       0   22     
03B6  254E0600           [236] closure    56  25     
03BA  1200000B           [237] move       0   22     
03BE  12008001           [238] move       0   3      
03C2  658E0600           [239] closure    57  26     
03C6  1200000C           [240] move       0   24     
03CA  1200800F           [241] move       0   31     
03CE  A5CE0600           [242] closure    58  27     
03D2  12000006           [243] move       0   12     
03D6  12000001           [244] move       0   2      
03DA  12008005           [245] move       0   11     
03DE  12008002           [246] move       0   5      
03E2  12008007           [247] move       0   15     
03E6  1200000A           [248] move       0   20     
03EA  12008011           [249] move       0   35     
03EE  1200801A           [250] move       0   53     
03F2  12008001           [251] move       0   3      
03F6  12000003           [252] move       0   6      
03FA  1200801C           [253] move       0   57     
03FE  1200800E           [254] move       0   29     
0402  1200001B           [255] move       0   54     
0406  1200801B           [256] move       0   55     
040A  1200000F           [257] move       0   30     
040E  1200000B           [258] move       0   22     
0412  1200001C           [259] move       0   56     
0416  12008006           [260] move       0   13     
041A  12008016           [261] move       0   45     
041E  1200000C           [262] move       0   24     
0422  A04E0D00           [263] setglobal  58  53       ; Initialize
0426  A08E0D00           [264] setglobal  58  54       ; 1650753590
042A  A50E0700           [265] closure    58  28     
042E  12008018           [266] move       0   49     
0432  A0CE0D00           [267] setglobal  58  55       ; Close
0436  A00E0E00           [268] setglobal  58  56       ; -1517569684
043A  A54E0700           [269] closure    58  29     
043E  12000007           [270] move       0   14     
0442  12008018           [271] move       0   49     
0446  A04E0E00           [272] setglobal  58  57       ; onKeyDown_HIDE_PAUSE_MENU
044A  A08E0E00           [273] setglobal  58  58       ; -1518645360
044E  A58E0700           [274] closure    58  30     
0452  12000007           [275] move       0   14     
0456  1200000C           [276] move       0   24     
045A  1200001A           [277] move       0   52     
045E  A0CE0E00           [278] setglobal  58  59       ; onKeyDown_MENU_SELECT
0462  A00E0F00           [279] setglobal  58  60       ; -287499569
0466  A5CE0700           [280] closure    58  31     
046A  1200001C           [281] move       0   56     
046E  12008005           [282] move       0   11     
0472  A04E0F00           [283] setglobal  58  61       ; onViewportSizeChanged
0476  A08E0F00           [284] setglobal  58  62       ; 982516775
047A  A50E0800           [285] closure    58  32     
047E  12008001           [286] move       0   3      
0482  A0CE0F00           [287] setglobal  58  63       ; RollOver
0486  A00E1000           [288] setglobal  58  64       ; 1468715453
048A  A54E0800           [289] closure    58  33     
048E  1200000B           [290] move       0   22     
0492  A04E1000           [291] setglobal  58  65       ; MenuItemFocused
0496  A08E1000           [292] setglobal  58  66       ; -2010164486
049A  A58E0800           [293] closure    58  34     
049E  1200000B           [294] move       0   22     
04A2  A0CE1000           [295] setglobal  58  67       ; MenuItemUnfocused
04A6  A00E1100           [296] setglobal  58  68       ; -1418434452
04AA  A5CE0800           [297] closure    58  35     
04AE  12000007           [298] move       0   14     
04B2  1200000B           [299] move       0   22     
04B6  A04E1100           [300] setglobal  58  69       ; MenuItemSelected
04BA  A08E1100           [301] setglobal  58  70       ; -16180592
04BE  A50E0900           [302] closure    58  36     
04C2  12000007           [303] move       0   14     
04C6  1200000B           [304] move       0   22     
04CA  A0CE1100           [305] setglobal  58  71       ; MenuItemPressed
04CE  A00E1200           [306] setglobal  58  72       ; 590751827
04D2  A54E0900           [307] closure    58  37     
04D6  1200000B           [308] move       0   22     
04DA  12000007           [309] move       0   14     
04DE  A04E1200           [310] setglobal  58  73       ; onKeyDown_MENU_MOUSE_Z
04E2  A08E1200           [311] setglobal  58  74       ; 1458230185
04E6  A58E0900           [312] closure    58  38     
04EA  1200000C           [313] move       0   24     
04EE  1200801C           [314] move       0   57     
04F2  1200801A           [315] move       0   53     
04F6  A0CE1200           [316] setglobal  58  75       ; SetSelectionMode
04FA  A00E1300           [317] setglobal  58  76       ; -1747866664
04FE  A5CE0900           [318] closure    58  39     
0502  1200800C           [319] move       0   25     
0506  A04E1300           [320] setglobal  58  77       ; SetCallback
050A  A08E1300           [321] setglobal  58  78       ; 1772396888
050E  A50E0A00           [322] closure    58  40     
0512  1200000D           [323] move       0   26     
0516  A0CE1300           [324] setglobal  58  79       ; SetElementsFunction
051A  A00E1400           [325] setglobal  58  80       ; -140670716
051E  A54E0A00           [326] closure    58  41     
0522  1200800D           [327] move       0   27     
0526  A04E1400           [328] setglobal  58  81       ; SetOnTransitionOutFunction
052A  A08E1400           [329] setglobal  58  82       ; 123945770
052E  A58E0A00           [330] closure    58  42     
0532  1200800F           [331] move       0   31     
0536  1200801C           [332] move       0   57     
053A  A0CE1400           [333] setglobal  58  83       ; SetTitle
053E  A00E1500           [334] setglobal  58  84       ; 1392176610
0542  A5CE0A00           [335] closure    58  43     
0546  A04E1500           [336] setglobal  58  85       ; SupportsThemes
054A  A08E1500           [337] setglobal  58  86       ; -605602914
054E  1E008000           [338] return     0   1      
                         * constants:
0552  57                 sizek (87)
0553  01                 const type 3
0554  1A4B27EC           const [0]: (-332969190)
0558  04                 const type 4
0559  09                 string size (9)
055A  436C6F616B484452+  "CloakHDR"
0562  00                 "\0"
                         const [1]: "CloakHDR"
0563  04                 const type 4
0564  0C                 string size (12)
0565  436C6F616B566563+  "CloakVec"
056D  746F7200           "tor\0"
                         const [2]: "CloakVector"
0571  01                 const type 3
0572  44DC9B32           const [3]: (849075268)
0576  04                 const type 4
0577  1F                 string size (31)
0578  4C6F7475732E496E+  "Lotus.In"
0580  746572666163652E+  "terface."
0588  4C6F747573557469+  "LotusUti"
0590  6C697469657300     "lities\0"
                         const [4]: "Lotus.Interface.LotusUtilities"
0597  04                 const type 4
0598  17                 string size (23)
0599  45452E496E746572+  "EE.Inter"
05A1  666163652E557469+  "face.Uti"
05A9  6C697469657300     "lities\0"
                         const [5]: "EE.Interface.Utilities"
05B0  04                 const type 4
05B1  1C                 string size (28)
05B2  4C6F7475732E496E+  "Lotus.In"
05BA  746572666163652E+  "terface."
05C2  55495574696C6974+  "UIUtilit"
05CA  69657300           "ies\0"
                         const [6]: "Lotus.Interface.UIUtilities"
05CE  04                 const type 4
05CF  17                 string size (23)
05D0  45452E496E746572+  "EE.Inter"
05D8  666163652E416E63+  "face.Anc"
05E0  686F724D677200     "horMgr\0"
                         const [7]: "EE.Interface.AnchorMgr"
05E7  03                 const type 3
05E8  00000000           const [8]: (0)
05EC  04                 const type 4
05ED  2F                 string size (47)
05EE  2F4C6F7475732F54+  "/Lotus/T"
05F6  797065732F47616D+  "ypes/Gam"
05FE  652F4B7562726F77+  "e/Kubrow"
0606  5065742F44697374+  "Pet/Dist"
060E  696C6C5072696E74+  "illPrint"
0616  52656369706500     "Recipe\0"
                         const [9]: "/Lotus/Types/Game/KubrowPet/DistillPrintRecipe"
061D  01                 const type 3
061E  29D4002C           const [10]: (738251817)
0622  04                 const type 4
0623  20                 string size (32)
0624  2F4C6F7475732F4C+  "/Lotus/L"
062C  616E67756167652F+  "anguage/"
0634  4D656E752F47656E+  "Menu/Gen"
063C  657469634C616200   "eticLab\0"
                         const [11]: "/Lotus/Language/Menu/GeneticLab"
0644  04                 const type 4
0645  07                 string size (7)
0646  4C6F6164657200     "Loader\0"
                         const [12]: "Loader"
064D  00                 const type 0
                         const [13]: nil
064E  04                 const type 4
064F  05                 string size (5)
0650  5061737300         "Pass\0"
                         const [14]: "Pass"
0655  03                 const type 3
0656  0000803F           const [15]: (0)
065A  04                 const type 4
065B  05                 string size (5)
065C  5479706500         "Type\0"
                         const [16]: "Type"
0661  04                 const type 4
0662  38                 string size (56)
0663  2F4C6F7475732F54+  "/Lotus/T"
066B  797065732F47616D+  "ypes/Gam"
0673  652F43617462726F+  "e/Catbro"
067B  775065742F56616D+  "wPet/Vam"
0683  7069726543617462+  "pireCatb"
068B  726F77506574506F+  "rowPetPo"
0693  7765725375697400   "werSuit\0"
                         const [17]: "/Lotus/Types/Game/CatbrowPet/VampireCatbrowPetPowerSuit"
069B  04                 const type 4
069C  05                 string size (5)
069D  4E616D6500         "Name\0"
                         const [18]: "Name"
06A2  04                 const type 4
06A3  26                 string size (38)
06A4  2F4C6F7475732F4C+  "/Lotus/L"
06AC  616E67756167652F+  "anguage/"
06B4  506574732F56616D+  "Pets/Vam"
06BC  706972654B617661+  "pireKava"
06C4  744E616D6500       "tName\0"
                         const [19]: "/Lotus/Language/Pets/VampireKavatName"
06CA  04                 const type 4
06CB  2F                 string size (47)
06CC  2F4C6F7475732F54+  "/Lotus/T"
06D4  797065732F47616D+  "ypes/Gam"
06DC  652F4B7562726F77+  "e/Kubrow"
06E4  5065742F4B756272+  "Pet/Kubr"
06EC  6F77506574506F77+  "owPetPow"
06F4  65725375697400     "erSuit\0"
                         const [20]: "/Lotus/Types/Game/KubrowPet/KubrowPetPowerSuit"
06FB  04                 const type 4
06FC  39                 string size (57)
06FD  2F4C6F7475732F54+  "/Lotus/T"
0705  797065732F47616D+  "ypes/Gam"
070D  652F4B7562726F77+  "e/Kubrow"
0715  5065742F41647665+  "Pet/Adve"
071D  6E74757265724B75+  "nturerKu"
0725  62726F7750657450+  "browPetP"
072D  6F77657253756974+  "owerSuit"
0735  00                 "\0"
                         const [21]: "/Lotus/Types/Game/KubrowPet/AdventurerKubrowPetPowerSuit"
0736  04                 const type 4
0737  2B                 string size (43)
0738  2F4C6F7475732F4C+  "/Lotus/L"
0740  616E67756167652F+  "anguage/"
0748  4974656D732F4164+  "Items/Ad"
0750  76656E7475726572+  "venturer"
0758  4B7562726F774E61+  "KubrowNa"
0760  6D6500             "me\0"
                         const [22]: "/Lotus/Language/Items/AdventurerKubrowName"
0763  04                 const type 4
0764  36                 string size (54)
0765  2F4C6F7475732F54+  "/Lotus/T"
076D  797065732F47616D+  "ypes/Gam"
0775  652F4B7562726F77+  "e/Kubrow"
077D  5065742F46757274+  "Pet/Furt"
0785  6976654B7562726F+  "iveKubro"
078D  77506574506F7765+  "wPetPowe"
0795  725375697400       "rSuit\0"
                         const [23]: "/Lotus/Types/Game/KubrowPet/FurtiveKubrowPetPowerSuit"
079B  04                 const type 4
079C  28                 string size (40)
079D  2F4C6F7475732F4C+  "/Lotus/L"
07A5  616E67756167652F+  "anguage/"
07AD  4974656D732F4675+  "Items/Fu"
07B5  72746976654B7562+  "rtiveKub"
07BD  726F774E616D6500   "rowName\0"
                         const [24]: "/Lotus/Language/Items/FurtiveKubrowName"
07C5  04                 const type 4
07C6  34                 string size (52)
07C7  2F4C6F7475732F54+  "/Lotus/T"
07CF  797065732F47616D+  "ypes/Gam"
07D7  652F4B7562726F77+  "e/Kubrow"
07DF  5065742F47756172+  "Pet/Guar"
07E7  644B7562726F7750+  "dKubrowP"
07EF  6574506F77657253+  "etPowerS"
07F7  75697400           "uit\0"
                         const [25]: "/Lotus/Types/Game/KubrowPet/GuardKubrowPetPowerSuit"
07FB  04                 const type 4
07FC  26                 string size (38)
07FD  2F4C6F7475732F4C+  "/Lotus/L"
0805  616E67756167652F+  "anguage/"
080D  4974656D732F4775+  "Items/Gu"
0815  6172644B7562726F+  "ardKubro"
081D  774E616D6500       "wName\0"
                         const [26]: "/Lotus/Language/Items/GuardKubrowName"
0823  04                 const type 4
0824  35                 string size (53)
0825  2F4C6F7475732F54+  "/Lotus/T"
082D  797065732F47616D+  "ypes/Gam"
0835  652F4B7562726F77+  "e/Kubrow"
083D  5065742F48756E74+  "Pet/Hunt"
0845  65724B7562726F77+  "erKubrow"
084D  506574506F776572+  "PetPower"
0855  5375697400         "Suit\0"
                         const [27]: "/Lotus/Types/Game/KubrowPet/HunterKubrowPetPowerSuit"
085A  04                 const type 4
085B  27                 string size (39)
085C  2F4C6F7475732F4C+  "/Lotus/L"
0864  616E67756167652F+  "anguage/"
086C  4974656D732F4875+  "Items/Hu"
0874  6E7465724B756272+  "nterKubr"
087C  6F774E616D6500     "owName\0"
                         const [28]: "/Lotus/Language/Items/HunterKubrowName"
0883  04                 const type 4
0884  38                 string size (56)
0885  2F4C6F7475732F54+  "/Lotus/T"
088D  797065732F47616D+  "ypes/Gam"
0895  652F4B7562726F77+  "e/Kubrow"
089D  5065742F52657472+  "Pet/Retr"
08A5  69657665724B7562+  "ieverKub"
08AD  726F77506574506F+  "rowPetPo"
08B5  7765725375697400   "werSuit\0"
                         const [29]: "/Lotus/Types/Game/KubrowPet/RetrieverKubrowPetPowerSuit"
08BD  04                 const type 4
08BE  2A                 string size (42)
08BF  2F4C6F7475732F4C+  "/Lotus/L"
08C7  616E67756167652F+  "anguage/"
08CF  4974656D732F5265+  "Items/Re"
08D7  747269657665724B+  "trieverK"
08DF  7562726F774E616D+  "ubrowNam"
08E7  6500               "e\0"
                         const [30]: "/Lotus/Language/Items/RetrieverKubrowName"
08E9  04                 const type 4
08EA  36                 string size (54)
08EB  2F4C6F7475732F54+  "/Lotus/T"
08F3  797065732F47616D+  "ypes/Gam"
08FB  652F4B7562726F77+  "e/Kubrow"
0903  5065742F43686172+  "Pet/Char"
090B  6765724B7562726F+  "gerKubro"
0913  77506574506F7765+  "wPetPowe"
091B  725375697400       "rSuit\0"
                         const [31]: "/Lotus/Types/Game/KubrowPet/ChargerKubrowPetPowerSuit"
0921  04                 const type 4
0922  29                 string size (41)
0923  2F4C6F7475732F4C+  "/Lotus/L"
092B  616E67756167652F+  "anguage/"
0933  4974656D732F496E+  "Items/In"
093B  6665737465644B75+  "festedKu"
0943  62726F774E616D65+  "browName"
094B  00                 "\0"
                         const [32]: "/Lotus/Language/Items/InfestedKubrowName"
094C  04                 const type 4
094D  37                 string size (55)
094E  2F4C6F7475732F54+  "/Lotus/T"
0956  797065732F47616D+  "ypes/Gam"
095E  652F43617462726F+  "e/Catbro"
0966  775065742F4D6972+  "wPet/Mir"
096E  726F724361746272+  "rorCatbr"
0976  6F77506574506F77+  "owPetPow"
097E  65725375697400     "erSuit\0"
                         const [33]: "/Lotus/Types/Game/CatbrowPet/MirrorCatbrowPetPowerSuit"
0985  04                 const type 4
0986  28                 string size (40)
0987  2F4C6F7475732F4C+  "/Lotus/L"
098F  616E67756167652F+  "anguage/"
0997  4974656D732F4D69+  "Items/Mi"
099F  72726F7243617462+  "rrorCatb"
09A7  726F774E616D6500   "rowName\0"
                         const [34]: "/Lotus/Language/Items/MirrorCatbrowName"
09AF  04                 const type 4
09B0  39                 string size (57)
09B1  2F4C6F7475732F54+  "/Lotus/T"
09B9  797065732F47616D+  "ypes/Gam"
09C1  652F43617462726F+  "e/Catbro"
09C9  775065742F436865+  "wPet/Che"
09D1  7368697265436174+  "shireCat"
09D9  62726F7750657450+  "browPetP"
09E1  6F77657253756974+  "owerSuit"
09E9  00                 "\0"
                         const [35]: "/Lotus/Types/Game/CatbrowPet/CheshireCatbrowPetPowerSuit"
09EA  04                 const type 4
09EB  2A                 string size (42)
09EC  2F4C6F7475732F4C+  "/Lotus/L"
09F4  616E67756167652F+  "anguage/"
09FC  4974656D732F4368+  "Items/Ch"
0A04  6573686972654361+  "eshireCa"
0A0C  7462726F774E616D+  "tbrowNam"
0A14  6500               "e\0"
                         const [36]: "/Lotus/Language/Items/CheshireCatbrowName"
0A16  04                 const type 4
0A17  06                 string size (6)
0A18  436C6F616B00       "Cloak\0"
                         const [37]: "Cloak"
0A1E  04                 const type 4
0A1F  0E                 string size (14)
0A20  47414D455F43315F+  "GAME_C1_"
0A28  484541443100       "HEAD1\0"
                         const [38]: "GAME_C1_HEAD1"
0A2E  04                 const type 4
0A2F  0F                 string size (15)
0A30  4973496E70757442+  "IsInputB"
0A38  6C6F636B656400     "locked\0"
                         const [39]: "IsInputBlocked"
0A3F  01                 const type 3
0A40  40E7E76F           const [40]: (1877468992)
0A44  04                 const type 4
0A45  09                 string size (9)
0A46  53687574646F776E+  "Shutdown"
0A4E  00                 "\0"
                         const [41]: "Shutdown"
0A4F  01                 const type 3
0A50  A37F573C           const [42]: (1012367267)
0A54  04                 const type 4
0A55  0B                 string size (11)
0A56  5365745472696767+  "SetTrigg"
0A5E  657200             "er\0"
                         const [43]: "SetTrigger"
0A61  01                 const type 3
0A62  346A953F           const [44]: (1066756660)
0A66  04                 const type 4
0A67  0D                 string size (13)
0A68  456E747279466F63+  "EntryFoc"
0A70  7573656400         "used\0"
                         const [45]: "EntryFocused"
0A75  01                 const type 3
0A76  06BE1F38           const [46]: (941604358)
0A7A  04                 const type 4
0A7B  0F                 string size (15)
0A7C  456E747279556E66+  "EntryUnf"
0A84  6F637573656400     "ocused\0"
                         const [47]: "EntryUnfocused"
0A8B  01                 const type 3
0A8C  D4C38C69           const [48]: (1770832852)
0A90  04                 const type 4
0A91  0D                 string size (13)
0A92  456E747279507265+  "EntryPre"
0A9A  7373656400         "ssed\0"
                         const [49]: "EntryPressed"
0A9F  01                 const type 3
0AA0  9AB60452           const [50]: (1376040602)
0AA4  04                 const type 4
0AA5  07                 string size (7)
0AA6  55706461746500     "Update\0"
                         const [51]: "Update"
0AAD  01                 const type 3
0AAE  E999708C           const [52]: (-1938777623)
0AB2  04                 const type 4
0AB3  0B                 string size (11)
0AB4  496E697469616C69+  "Initiali"
0ABC  7A6500             "ze\0"
                         const [53]: "Initialize"
0ABF  01                 const type 3
0AC0  36806462           const [54]: (1650753590)
0AC4  04                 const type 4
0AC5  06                 string size (6)
0AC6  436C6F736500       "Close\0"
                         const [55]: "Close"
0ACC  01                 const type 3
0ACD  6CB98BA5           const [56]: (-1517569684)
0AD1  04                 const type 4
0AD2  1A                 string size (26)
0AD3  6F6E4B6579446F77+  "onKeyDow"
0ADB  6E5F484944455F50+  "n_HIDE_P"
0AE3  415553455F4D454E+  "AUSE_MEN"
0AEB  5500               "U\0"
                         const [57]: "onKeyDown_HIDE_PAUSE_MENU"
0AED  01                 const type 3
0AEE  904F7BA5           const [58]: (-1518645360)
0AF2  04                 const type 4
0AF3  16                 string size (22)
0AF4  6F6E4B6579446F77+  "onKeyDow"
0AFC  6E5F4D454E555F53+  "n_MENU_S"
0B04  454C45435400       "ELECT\0"
                         const [59]: "onKeyDown_MENU_SELECT"
0B0A  01                 const type 3
0B0B  CF1ADDEE           const [60]: (-287499569)
0B0F  04                 const type 4
0B10  16                 string size (22)
0B11  6F6E56696577706F+  "onViewpo"
0B19  727453697A654368+  "rtSizeCh"
0B21  616E67656400       "anged\0"
                         const [61]: "onViewportSizeChanged"
0B27  01                 const type 3
0B28  2704903A           const [62]: (982516775)
0B2C  04                 const type 4
0B2D  09                 string size (9)
0B2E  526F6C6C4F766572+  "RollOver"
0B36  00                 "\0"
                         const [63]: "RollOver"
0B37  01                 const type 3
0B38  BDD18A57           const [64]: (1468715453)
0B3C  04                 const type 4
0B3D  10                 string size (16)
0B3E  4D656E754974656D+  "MenuItem"
0B46  466F637573656400   "Focused\0"
                         const [65]: "MenuItemFocused"
0B4E  01                 const type 3
0B4F  FA522F88           const [66]: (-2010164486)
0B53  04                 const type 4
0B54  12                 string size (18)
0B55  4D656E754974656D+  "MenuItem"
0B5D  556E666F63757365+  "Unfocuse"
0B65  6400               "d\0"
                         const [67]: "MenuItemUnfocused"
0B67  01                 const type 3
0B68  6C6874AB           const [68]: (-1418434452)
0B6C  04                 const type 4
0B6D  11                 string size (17)
0B6E  4D656E754974656D+  "MenuItem"
0B76  53656C6563746564+  "Selected"
0B7E  00                 "\0"
                         const [69]: "MenuItemSelected"
0B7F  01                 const type 3
0B80  901A09FF           const [70]: (-16180592)
0B84  04                 const type 4
0B85  10                 string size (16)
0B86  4D656E754974656D+  "MenuItem"
0B8E  5072657373656400   "Pressed\0"
                         const [71]: "MenuItemPressed"
0B96  01                 const type 3
0B97  53283623           const [72]: (590751827)
0B9B  04                 const type 4
0B9C  17                 string size (23)
0B9D  6F6E4B6579446F77+  "onKeyDow"
0BA5  6E5F4D454E555F4D+  "n_MENU_M"
0BAD  4F5553455F5A00     "OUSE_Z\0"
                         const [73]: "onKeyDown_MENU_MOUSE_Z"
0BB4  01                 const type 3
0BB5  A9D3EA56           const [74]: (1458230185)
0BB9  04                 const type 4
0BBA  11                 string size (17)
0BBB  53657453656C6563+  "SetSelec"
0BC3  74696F6E4D6F6465+  "tionMode"
0BCB  00                 "\0"
                         const [75]: "SetSelectionMode"
0BCC  01                 const type 3
0BCD  D8ABD197           const [76]: (-1747866664)
0BD1  04                 const type 4
0BD2  0C                 string size (12)
0BD3  53657443616C6C62+  "SetCallb"
0BDB  61636B00           "ack\0"
                         const [77]: "SetCallback"
0BDF  01                 const type 3
0BE0  58A1A469           const [78]: (1772396888)
0BE4  04                 const type 4
0BE5  14                 string size (20)
0BE6  536574456C656D65+  "SetEleme"
0BEE  6E747346756E6374+  "ntsFunct"
0BF6  696F6E00           "ion\0"
                         const [79]: "SetElementsFunction"
0BFA  01                 const type 3
0BFB  04899DF7           const [80]: (-140670716)
0BFF  04                 const type 4
0C00  1B                 string size (27)
0C01  5365744F6E547261+  "SetOnTra"
0C09  6E736974696F6E4F+  "nsitionO"
0C11  757446756E637469+  "utFuncti"
0C19  6F6E00             "on\0"
                         const [81]: "SetOnTransitionOutFunction"
0C1C  01                 const type 3
0C1D  2A436307           const [82]: (123945770)
0C21  04                 const type 4
0C22  09                 string size (9)
0C23  5365745469746C65+  "SetTitle"
0C2B  00                 "\0"
                         const [83]: "SetTitle"
0C2C  01                 const type 3
0C2D  E2EDFA52           const [84]: (1392176610)
0C31  04                 const type 4
0C32  0F                 string size (15)
0C33  537570706F727473+  "Supports"
0C3B  5468656D657300     "Themes\0"
                         const [85]: "SupportsThemes"
0C42  01                 const type 3
0C43  9E3BE7DB           const [86]: (-605602914)
                         * functions:
0C47  2C                 sizep (44)
                         
0C48                     ** function [0] definition (level 2)
                         ** start of function **
0C48  00                 string size (0)
                         source name: (none)
0C49  54                 line defined (84)
0C4A  56                 last line defined (86)
0C4B  01                 nups (1)
0C4C  00                 numparams (0)
0C4D  00                 is_vararg (0)
0C4E  02                 maxstacksize (2)
                         * code:
0C4F  03                 sizecode (3)
0C50  13000000           [1] getupval   0   0      
0C54  1E000001           [2] return     0   2      
0C58  1E008000           [3] return     0   1      
                         * constants:
0C5C  00                 sizek (0)
                         * functions:
0C5D  00                 sizep (0)
                         * lines:
0C5E  03                 sizelineinfo (3)
                         [pc] (line)
0C5F  55                 [1] (85)
0C60  00                 [2] (85)
0C61  00                 [3] (86)
                         * locals:
0C6B  00                 sizelocvars (0)
                         * upvalues:
0C6C  00                 sizeupvalues (0)
                         ** end of function **

                         
0C6D                     ** function [1] definition (level 2)
                         ** start of function **
0C6D  00                 string size (0)
                         source name: (none)
0C6E  58                 line defined (88)
0C6F  60                 last line defined (96)
0C70  02                 nups (2)
0C71  03                 numparams (3)
0C72  00                 is_vararg (0)
0C73  0F                 maxstacksize (15)
                         * code:
0C74  2D                 sizecode (45)
0C75  E4004000           [01] self       3   0   256  ; -786111647
0C79  53010000           [02] getupval   5   0      
0C7D  8E414001           [03] gettable   6   2   257  ; "x"
0C81  CE814001           [04] gettable   7   2   258  ; "y"
0C85  0EC24001           [05] gettable   8   2   259  ; "z"
0C89  59020100           [06] loadk      9   4        ; 0
0C8D  E2408003           [07] call       3   7   1  
0C91  E4004000           [08] self       3   0   256  ; -786111647
0C95  53018000           [09] getupval   5   1      
0C99  8E41C100           [10] gettable   6   1   261  ; "red"
0C9D  9C814103           [11] div        6   6   262  ; 0
0CA1  CEC1C100           [12] gettable   7   1   263  ; "green"
0CA5  DC81C103           [13] div        7   7   262  ; 0
0CA9  0E02C200           [14] gettable   8   1   264  ; "blue"
0CAD  1C824104           [15] div        8   8   262  ; 0
0CB1  59020100           [16] loadk      9   4        ; 0
0CB5  E2408003           [17] call       3   7   1  
0CB9  E4404200           [18] self       3   0   265  ; 366271214
0CBD  5D810200           [19] getglobal  5   10       ; gEntityType
0CC1  E2808001           [20] call       3   3   2  
0CC5  19010100           [21] loadk      4   4        ; 0
0CC9  4A018001           [22] len        5   3      
0CCD  99010100           [23] loadk      6   4        ; 0
0CD1  10810480           [24] forprep    4   19       ; to [44]
0CD5  0EC28101           [25] gettable   8   3   7  
0CD9  24024004           [26] self       8   8   256  ; -786111647
0CDD  93028000           [27] getupval   10  1      
0CE1  CE42C100           [28] gettable   11  1   261  ; "red"
0CE5  DC82C105           [29] div        11  11  262  ; 0
0CE9  0EC3C100           [30] gettable   12  1   263  ; "green"
0CED  1C834106           [31] div        12  12  262  ; 0
0CF1  4E03C200           [32] gettable   13  1   264  ; "blue"
0CF5  5C83C106           [33] div        13  13  262  ; 0
0CF9  99030100           [34] loadk      14  4        ; 0
0CFD  22428003           [35] call       8   7   1  
0D01  0EC28101           [36] gettable   8   3   7  
0D05  24024004           [37] self       8   8   256  ; -786111647
0D09  93020000           [38] getupval   10  0      
0D0D  CE424001           [39] gettable   11  2   257  ; "x"
0D11  0E834001           [40] gettable   12  2   258  ; "y"
0D15  4EC34001           [41] gettable   13  2   259  ; "z"
0D19  99030100           [42] loadk      14  4        ; 0
0D1D  22428003           [43] call       8   7   1  
0D21  14C1FA7F           [44] forloop    4   -20      ; to [25] if loop
0D25  1E008000           [45] return     0   1      
                         * constants:
0D29  0B                 sizek (11)
0D2A  01                 const type 3
0D2B  61E324D1           const [0]: (-786111647)
0D2F  04                 const type 4
0D30  02                 string size (2)
0D31  7800               "x\0"
                         const [1]: "x"
0D33  04                 const type 4
0D34  02                 string size (2)
0D35  7900               "y\0"
                         const [2]: "y"
0D37  04                 const type 4
0D38  02                 string size (2)
0D39  7A00               "z\0"
                         const [3]: "z"
0D3B  03                 const type 3
0D3C  0000803F           const [4]: (0)
0D40  04                 const type 4
0D41  04                 string size (4)
0D42  72656400           "red\0"
                         const [5]: "red"
0D46  03                 const type 3
0D47  00007F43           const [6]: (0)
0D4B  04                 const type 4
0D4C  06                 string size (6)
0D4D  677265656E00       "green\0"
                         const [7]: "green"
0D53  04                 const type 4
0D54  05                 string size (5)
0D55  626C756500         "blue\0"
                         const [8]: "blue"
0D5A  01                 const type 3
0D5B  EEDAD415           const [9]: (366271214)
0D5F  04                 const type 4
0D60  0C                 string size (12)
0D61  67456E7469747954+  "gEntityT"
0D69  79706500           "ype\0"
                         const [10]: "gEntityType"
                         * functions:
0D6D  00                 sizep (0)
                         * lines:
0D6E  2D                 sizelineinfo (45)
                         [pc] (line)
0D6F  59                 [01] (89)
0D70  00                 [02] (89)
0D71  00                 [03] (89)
0D72  00                 [04] (89)
0D73  59                 [05] (89)
0D74  00                 [06] (89)
0D75  00                 [07] (89)
0D76  00                 [08] (90)
0D77  59                 [09] (90)
0D78  00                 [10] (90)
0D79  00                 [11] (90)
0D7A  00                 [12] (90)
0D7B  59                 [13] (90)
0D7C  00                 [14] (90)
0D7D  00                 [15] (90)
0D7E  00                 [16] (90)
0D7F  59                 [17] (90)
0D80  00                 [18] (91)
0D81  00                 [19] (91)
0D82  00                 [20] (91)
0D83  59                 [21] (92)
0D84  00                 [22] (92)
0D85  00                 [23] (92)
0D86  00                 [24] (92)
0D87  59                 [25] (93)
0D88  00                 [26] (93)
0D89  00                 [27] (93)
0D8A  00                 [28] (93)
0D8B  5A                 [29] (93)
0D8C  00                 [30] (93)
0D8D  00                 [31] (93)
0D8E  00                 [32] (93)
0D8F  5A                 [33] (93)
0D90  00                 [34] (93)
0D91  00                 [35] (93)
0D92  00                 [36] (94)
0D93  5A                 [37] (94)
0D94  00                 [38] (94)
0D95  00                 [39] (94)
0D96  00                 [40] (94)
0D97  5A                 [41] (94)
0D98  00                 [42] (94)
0D99  00                 [43] (94)
0D9A  00                 [44] (92)
0D9B  5A                 [45] (96)
                         * locals:
0E23  00                 sizelocvars (0)
                         * upvalues:
0E24  00                 sizeupvalues (0)
                         ** end of function **

                         
0E25                     ** function [2] definition (level 2)
                         ** start of function **
0E25  00                 string size (0)
                         source name: (none)
0E26  62                 line defined (98)
0E27  66                 last line defined (102)
0E28  01                 nups (1)
0E29  02                 numparams (2)
0E2A  00                 is_vararg (0)
0E2B  0A                 maxstacksize (10)
                         * code:
0E2C  14                 sizecode (20)
0E2D  A400C000           [01] self       2   1   256  ; -1565518332
0E31  12010000           [02] move       4   0      
0E35  A2808001           [03] call       2   3   2  
0E39  E440C000           [04] self       3   1   257  ; 196800914
0E3D  E2800001           [05] call       3   2   2  
0E41  8DC00001           [06] sub        2   2   3  
0E45  DD800000           [07] getglobal  3   2        ; 1287559689
0E49  12010001           [08] move       4   2      
0E4D  64C1C000           [09] self       5   1   259  ; 54877834
0E51  62010001           [10] call       5   2   0  
0E55  E2800000           [11] call       3   0   2  
0E59  92008001           [12] move       2   3      
0E5D  E400C100           [13] self       3   1   260  ; -786111647
0E61  53010000           [14] getupval   5   0      
0E65  8E414101           [15] gettable   6   2   261  ; "x"
0E69  CE814101           [16] gettable   7   2   262  ; "y"
0E6D  0EC24101           [17] gettable   8   2   263  ; "z"
0E71  59020200           [18] loadk      9   8        ; 0
0E75  E2408003           [19] call       3   7   1  
0E79  1E008000           [20] return     0   1      
                         * constants:
0E7D  09                 sizek (9)
0E7E  01                 const type 3
0E7F  0416B0A2           const [0]: (-1565518332)
0E83  01                 const type 3
0E84  92F1BA0B           const [1]: (196800914)
0E88  01                 const type 3
0E89  099ABE4C           const [2]: (1287559689)
0E8D  01                 const type 3
0E8E  8A5E4503           const [3]: (54877834)
0E92  01                 const type 3
0E93  61E324D1           const [4]: (-786111647)
0E97  04                 const type 4
0E98  02                 string size (2)
0E99  7800               "x\0"
                         const [5]: "x"
0E9B  04                 const type 4
0E9C  02                 string size (2)
0E9D  7900               "y\0"
                         const [6]: "y"
0E9F  04                 const type 4
0EA0  02                 string size (2)
0EA1  7A00               "z\0"
                         const [7]: "z"
0EA3  03                 const type 3
0EA4  0000803F           const [8]: (0)
                         * functions:
0EA8  00                 sizep (0)
                         * lines:
0EA9  14                 sizelineinfo (20)
                         [pc] (line)
0EAA  63                 [01] (99)
0EAB  00                 [02] (99)
0EAC  00                 [03] (99)
0EAD  00                 [04] (99)
0EAE  63                 [05] (99)
0EAF  00                 [06] (99)
0EB0  00                 [07] (100)
0EB1  00                 [08] (100)
0EB2  63                 [09] (100)
0EB3  00                 [10] (100)
0EB4  00                 [11] (100)
0EB5  00                 [12] (100)
0EB6  63                 [13] (101)
0EB7  00                 [14] (101)
0EB8  00                 [15] (101)
0EB9  00                 [16] (101)
0EBA  63                 [17] (101)
0EBB  00                 [18] (101)
0EBC  00                 [19] (101)
0EBD  00                 [20] (102)
                         * locals:
0EFA  00                 sizelocvars (0)
                         * upvalues:
0EFB  00                 sizeupvalues (0)
                         ** end of function **

                         
0EFC                     ** function [3] definition (level 2)
                         ** start of function **
0EFC  00                 string size (0)
                         source name: (none)
0EFD  68                 line defined (104)
0EFE  9F                 last line defined (159)
0EFF  01                 nups (4)
0F00  04                 numparams (3)
0F01  03                 is_vararg (0)
0F02  00                 maxstacksize (15)
                         * code:
0F05  01                 sizecode (130)
0F06  DD000000           [001] getglobal  3   0        ; -1247440829
0F0A  19410000           [002] loadk      4   1        ; 0
0F0E  59810000           [003] loadk      5   2        ; 0
0F12  99C10000           [004] loadk      6   3        ; 0
0F16  D9010100           [005] loadk      7   4        ; 0
0F1A  E2808002           [006] call       3   5   2  
0F1E  1D410100           [007] getglobal  4   5        ; 572299008
0F22  22818000           [008] call       4   1   2  
0F26  5D810100           [009] getglobal  5   6        ; 1074689893
0F2A  92010000           [010] move       6   0      
0F2E  62810001           [011] call       5   2   2  
0F32  58410000           [012] test       5       1    ; to [14] if false
0F36  1A000180           [013] jmp        5            ; to [19]
0F3A  64C14100           [014] self       5   0   263  ; -1565518332
0F3E  D3010000           [015] getupval   7   0      
0F42  62818001           [016] call       5   3   2  
0F46  12018002           [017] move       4   5      
0F4A  1A000280           [018] jmp        9            ; to [28]
0F4E  5D810100           [019] getglobal  5   6        ; 1074689893
0F52  92018000           [020] move       6   1      
0F56  62810001           [021] call       5   2   2  
0F5A  58410000           [022] test       5       1    ; to [24] if false
0F5E  1AC00080           [023] jmp        4            ; to [28]
0F62  64C1C100           [024] self       5   1   263  ; -1565518332
0F66  D3010000           [025] getupval   7   0      
0F6A  62818001           [026] call       5   3   2  
0F6E  12018002           [027] move       4   5      
0F72  5D810100           [028] getglobal  5   6        ; 1074689893
0F76  92010000           [029] move       6   0      
0F7A  62810001           [030] call       5   2   2  
0F7E  58410000           [031] test       5       1    ; to [33] if false
0F82  1A000180           [032] jmp        5            ; to [38]
0F86  53018000           [033] getupval   5   1      
0F8A  92010000           [034] move       6   0      
0F8E  D2018001           [035] move       7   3      
0F92  12020002           [036] move       8   4      
0F96  62410002           [037] call       5   4   1  
0F9A  5D810100           [038] getglobal  5   6        ; 1074689893
0F9E  92018000           [039] move       6   1      
0FA2  62810001           [040] call       5   2   2  
0FA6  58410000           [041] test       5       1    ; to [43] if false
0FAA  1A000180           [042] jmp        5            ; to [48]
0FAE  53018000           [043] getupval   5   1      
0FB2  92018000           [044] move       6   1      
0FB6  D2018001           [045] move       7   3      
0FBA  12020002           [046] move       8   4      
0FBE  62410002           [047] call       5   4   1  
0FC2  98400000           [048] test       2       1    ; to [50] if false
0FC6  1A400C80           [049] jmp        50           ; to [100]
0FCA  65010000           [050] closure    5   0      
0FCE  12000000           [051] move       0   0      
0FD2  13000001           [052] getupval   0   2      
0FD6  12008000           [053] move       0   1      
0FDA  9D010200           [054] getglobal  6   8        ; mMovie
0FDE  A4414203           [055] self       6   6   265  ; -1596771516
0FE2  19820200           [056] loadk      8   10       ; "InterpAnchor"
0FE6  A2818001           [057] call       6   3   2  
0FEA  98010000           [058] test       6       0    ; to [60] if true
0FEE  1A400580           [059] jmp        22           ; to [82]
0FF2  9D810100           [060] getglobal  6   6        ; 1074689893
0FF6  D3018001           [061] getupval   7   3      
0FFA  A2810001           [062] call       6   2   2  
0FFE  98410000           [063] test       6       1    ; to [65] if false
1002  1A000480           [064] jmp        17           ; to [82]
1006  9D010200           [065] getglobal  6   8        ; mMovie
100A  A4C14203           [066] self       6   6   267  ; 298914335
100E  19820200           [067] loadk      8   10       ; "InterpAnchor"
1012  A2418001           [068] call       6   3   1  
1016  93018001           [069] getupval   6   3      
101A  A4014303           [070] self       6   6   268  ; -703571861
101E  19420300           [071] loadk      8   13       ; 0
1022  A2418001           [072] call       6   3   1  
1026  93018001           [073] getupval   6   3      
102A  A4814303           [074] self       6   6   270  ; -786111647
102E  13020001           [075] getupval   8   2      
1032  59420300           [076] loadk      9   13       ; 0
1036  A2410002           [077] call       6   4   1  
103A  93018001           [078] getupval   6   3      
103E  A4C14303           [079] self       6   6   271  ; 2109594123
1042  17020000           [080] loadbool   8   0   0    ; false
1046  A2418001           [081] call       6   3   1  
fail op	8
104A  48008001           [082] setupval   1   3      
104E  9D010400           [083] getglobal  6   16       ; 1390508688
1052  DD010200           [084] getglobal  7   8        ; mMovie
1056  19820200           [085] loadk      8   10       ; "InterpAnchor"
105A  5D420400           [086] getglobal  9   17       ; UISys
105E  4E82C404           [087] gettable   9   9   274  ; "FlashInstance_LINEAR"
1062  8B028000           [088] newtable   10  1   0    ; array=1, hash=0
1066  D2028002           [089] move       11  5      
106A  9B428000           [090] setlist    10  1   1    ; index 1 to 1
106E  CB028000           [091] newtable   11  1   0    ; array=1, hash=0
1072  19C30400           [092] loadk      12  19       ; 0
1076  DB428000           [093] setlist    11  1   1    ; index 1 to 1
107A  19030500           [094] loadk      12  20       ; 0
107E  59430300           [095] loadk      13  13       ; 0
1082  A5430000           [096] closure    14  1      
1086  12008000           [097] move       0   1      
108A  A2418004           [098] call       6   9   1  
108E  1A800080           [099] jmp        3            ; to [103]
1092  A4C1C300           [100] self       6   1   271  ; 2109594123
1096  17020000           [101] loadbool   8   0   0    ; false
109A  A2418001           [102] call       6   3   1  
109E  9D810100           [103] getglobal  6   6        ; 1074689893
10A2  D2010000           [104] move       7   0      
10A6  A2810001           [105] call       6   2   2  
10AA  98410000           [106] test       6       1    ; to [108] if false
10AE  1A400280           [107] jmp        10           ; to [118]
10B2  A4014300           [108] self       6   0   268  ; -703571861
10B6  19420300           [109] loadk      8   13       ; 0
10BA  A2418001           [110] call       6   3   1  
10BE  A4814300           [111] self       6   0   270  ; -786111647
10C2  13020001           [112] getupval   8   2      
10C6  59420300           [113] loadk      9   13       ; 0
10CA  A2410002           [114] call       6   4   1  
10CE  A4C14300           [115] self       6   0   271  ; 2109594123
10D2  17028000           [116] loadbool   8   1   0    ; true
10D6  A2418001           [117] call       6   3   1  
10DA  9D810100           [118] getglobal  6   6        ; 1074689893
10DE  D2018000           [119] move       7   1      
10E2  A2810001           [120] call       6   2   2  
10E6  98410000           [121] test       6       1    ; to [123] if false
10EA  1A800180           [122] jmp        7            ; to [130]
10EE  A401C300           [123] self       6   1   268  ; -703571861
10F2  19C20400           [124] loadk      8   19       ; 0
10F6  A2418001           [125] call       6   3   1  
10FA  A481C300           [126] self       6   1   270  ; -786111647
10FE  13020001           [127] getupval   8   2      
1102  59C20400           [128] loadk      9   19       ; 0
1106  A2410002           [129] call       6   4   1  
110A  1E008000           [130] return     0   1      
                         * constants:
110E  15                 sizek (21)
110F  01                 const type 3
1110  4390A5B5           const [0]: (-1247440829)
1114  03                 const type 3
1115  00003C42           const [1]: (0)
1119  03                 const type 3
111A  00002F43           const [2]: (0)
111E  03                 const type 3
111F  00005143           const [3]: (0)
1123  03                 const type 3
1124  00007F43           const [4]: (0)
1128  01                 const type 3
1129  00971C22           const [5]: (572299008)
112D  01                 const type 3
112E  65770E40           const [6]: (1074689893)
1132  01                 const type 3
1133  0416B0A2           const [7]: (-1565518332)
1137  04                 const type 4
1138  07                 string size (7)
1139  6D4D6F76696500     "mMovie\0"
                         const [8]: "mMovie"
1140  01                 const type 3
1141  4433D3A0           const [9]: (-1596771516)
1145  04                 const type 4
1146  0D                 string size (13)
1147  496E74657270416E+  "InterpAn"
114F  63686F7200         "chor\0"
                         const [10]: "InterpAnchor"
1154  01                 const type 3
1155  1F12D111           const [11]: (298914335)
1159  01                 const type 3
115A  6B5810D6           const [12]: (-703571861)
115E  03                 const type 3
115F  00000000           const [13]: (0)
1163  01                 const type 3
1164  61E324D1           const [14]: (-786111647)
1168  01                 const type 3
1169  0BDABD7D           const [15]: (2109594123)
116D  01                 const type 3
116E  907AE152           const [16]: (1390508688)
1172  04                 const type 4
1173  06                 string size (6)
1174  554953797300       "UISys\0"
                         const [17]: "UISys"
117A  04                 const type 4
117B  15                 string size (21)
117C  466C617368496E73+  "FlashIns"
1184  74616E63655F4C49+  "tance_LI"
118C  4E45415200         "NEAR\0"
                         const [18]: "FlashInstance_LINEAR"
1191  03                 const type 3
1192  0000803F           const [19]: (0)
1196  03                 const type 3
1197  0000403F           const [20]: (0)
                         * functions:
119B  02                 sizep (2)
                         
119C                     ** function [0] definition (level 3)
                         ** start of function **
119C  00                 string size (0)
                         source name: (none)
119D  78                 line defined (120)
119E  81                 last line defined (129)
119F  01                 nups (3)
11A0  03                 numparams (1)
11A1  01                 is_vararg (0)
11A2  00                 maxstacksize (5)
                         * code:
11A4  1D                 sizecode (29)
11A5  5D000000           [01] getglobal  1   0        ; 1074689893
11A9  93000000           [02] getupval   2   0      
11AD  62800001           [03] call       1   2   2  
11B1  58400000           [04] test       1       1    ; to [6] if false
11B5  1A000280           [05] jmp        9            ; to [15]
11B9  53000000           [06] getupval   1   0      
11BD  6440C000           [07] self       1   1   257  ; -703571861
11C1  CD000081           [08] sub        3   258 0    ; 0
11C5  62408001           [09] call       1   3   1  
11C9  53000000           [10] getupval   1   0      
11CD  64C0C000           [11] self       1   1   259  ; -786111647
11D1  D3008000           [12] getupval   3   1      
11D5  0D010081           [13] sub        4   258 0    ; 0
11D9  62400002           [14] call       1   4   1  
11DD  5D000000           [15] getglobal  1   0        ; 1074689893
11E1  93000001           [16] getupval   2   2      
11E5  62800001           [17] call       1   2   2  
11E9  58400000           [18] test       1       1    ; to [20] if false
11ED  1A000280           [19] jmp        9            ; to [29]
11F1  53000001           [20] getupval   1   2      
11F5  6440C000           [21] self       1   1   257  ; -703571861
11F9  D2000000           [22] move       3   0      
11FD  62408001           [23] call       1   3   1  
1201  53000001           [24] getupval   1   2      
1205  64C0C000           [25] self       1   1   259  ; -786111647
1209  D3008000           [26] getupval   3   1      
120D  12010000           [27] move       4   0      
1211  62400002           [28] call       1   4   1  
1215  1E008000           [29] return     0   1      
                         * constants:
1219  04                 sizek (4)
121A  01                 const type 3
121B  65770E40           const [0]: (1074689893)
121F  01                 const type 3
1220  6B5810D6           const [1]: (-703571861)
1224  03                 const type 3
1225  0000803F           const [2]: (0)
1229  01                 const type 3
122A  61E324D1           const [3]: (-786111647)
                         * functions:
122E  00                 sizep (0)
                         * lines:
122F  1D                 sizelineinfo (29)
                         [pc] (line)
1230  79                 [01] (121)
1231  00                 [02] (121)
1232  00                 [03] (121)
1233  00                 [04] (121)
1234  79                 [05] (121)
1235  00                 [06] (122)
1236  00                 [07] (122)
1237  00                 [08] (122)
1238  79                 [09] (122)
1239  00                 [10] (123)
123A  00                 [11] (123)
123B  00                 [12] (123)
123C  79                 [13] (123)
123D  00                 [14] (123)
123E  00                 [15] (125)
123F  00                 [16] (125)
1240  79                 [17] (125)
1241  00                 [18] (125)
1242  00                 [19] (125)
1243  00                 [20] (126)
1244  7A                 [21] (126)
1245  00                 [22] (126)
1246  00                 [23] (126)
1247  00                 [24] (127)
1248  7A                 [25] (127)
1249  00                 [26] (127)
124A  00                 [27] (127)
124B  00                 [28] (127)
124C  7A                 [29] (-127)
                         * locals:
12A4  00                 sizelocvars (0)
                         * upvalues:
12A5  00                 sizeupvalues (0)
                         ** end of function **

                         
12A6                     ** function [1] definition (level 3)
                         ** start of function **
12A6  00                 string size (0)
                         source name: (none)
12A8  01                 line defined (142)
12A9  92                 last line defined (146)
12AA  01                 nups (1)
12AB  01                 numparams (0)
12AC  00                 is_vararg (0)
12AD  00                 maxstacksize (3)
                         * code:
12AF  0A                 sizecode (10)
12B0  1D000000           [01] getglobal  0   0        ; 1074689893
12B4  53000000           [02] getupval   1   0      
12B8  22800001           [03] call       0   2   2  
12BC  18400000           [04] test       0       1    ; to [6] if false
12C0  1AC00080           [05] jmp        4            ; to [10]
12C4  13000000           [06] getupval   0   0      
12C8  24404000           [07] self       0   0   257  ; 2109594123
12CC  97000000           [08] loadbool   2   0   0    ; false
12D0  22408001           [09] call       0   3   1  
12D4  1E008000           [10] return     0   1      
                         * constants:
12D8  02                 sizek (2)
12D9  01                 const type 3
12DA  65770E40           const [0]: (1074689893)
12DE  01                 const type 3
12DF  0BDABD7D           const [1]: (2109594123)
                         * functions:
12E3  00                 sizep (0)
                         * lines:
12E4  0A                 sizelineinfo (10)
                         [pc] (line)
12E5  8F                 [01] (-113)
12E6  00                 [02] (-113)
12E7  00                 [03] (-113)
12E8  00                 [04] (-113)
12E9  8F                 [05] (-113)
12EA  00                 [06] (-112)
12EB  00                 [07] (-112)
12EC  00                 [08] (-112)
12ED  8F                 [09] (-112)
12EE  00                 [10] (-110)
                         * locals:
130D  00                 sizelocvars (0)
                         * upvalues:
130E  00                 sizeupvalues (0)
                         ** end of function **

                         * lines:
1310  01                 sizelineinfo (130)
                         [pc] (line)
1311  69                 [001] (105)
1312  00                 [002] (105)
1313  00                 [003] (105)
1314  00                 [004] (105)
1315  69                 [005] (105)
1316  00                 [006] (105)
1317  00                 [007] (106)
1318  00                 [008] (106)
1319  69                 [009] (107)
131A  00                 [010] (107)
131B  00                 [011] (107)
131C  00                 [012] (107)
131D  69                 [013] (107)
131E  00                 [014] (108)
131F  00                 [015] (108)
1320  00                 [016] (108)
1321  69                 [017] (108)
1322  00                 [018] (108)
1323  00                 [019] (109)
1324  00                 [020] (109)
1325  69                 [021] (109)
1326  00                 [022] (109)
1327  00                 [023] (109)
1328  00                 [024] (110)
1329  6A                 [025] (110)
132A  00                 [026] (110)
132B  00                 [027] (110)
132C  00                 [028] (112)
132D  6A                 [029] (112)
132E  00                 [030] (112)
132F  00                 [031] (112)
1330  00                 [032] (112)
1331  6B                 [033] (113)
1332  00                 [034] (113)
1333  00                 [035] (113)
1334  00                 [036] (113)
1335  6B                 [037] (113)
1336  00                 [038] (115)
1337  00                 [039] (115)
1338  00                 [040] (115)
1339  6B                 [041] (115)
133A  00                 [042] (115)
133B  00                 [043] (116)
133C  00                 [044] (116)
133D  6B                 [045] (116)
133E  00                 [046] (116)
133F  00                 [047] (116)
1340  00                 [048] (119)
1341  6B                 [049] (119)
1342  00                 [050] (-127)
1343  00                 [051] (-127)
1344  00                 [052] (-127)
1345  6C                 [053] (-127)
1346  00                 [054] (-125)
1347  00                 [055] (-125)
1348  00                 [056] (-125)
1349  6C                 [057] (-125)
134A  00                 [058] (-125)
134B  00                 [059] (-125)
134C  00                 [060] (-125)
134D  6C                 [061] (-125)
134E  00                 [062] (-125)
134F  00                 [063] (-125)
1350  00                 [064] (-125)
1351  6C                 [065] (-124)
1352  00                 [066] (-124)
1353  00                 [067] (-124)
1354  00                 [068] (-124)
1355  6C                 [069] (-122)
1356  00                 [070] (-122)
1357  00                 [071] (-122)
1358  00                 [072] (-122)
1359  6D                 [073] (-121)
135A  00                 [074] (-121)
135B  00                 [075] (-121)
135C  00                 [076] (-121)
135D  6D                 [077] (-121)
135E  00                 [078] (-120)
135F  00                 [079] (-120)
1360  00                 [080] (-120)
1361  6D                 [081] (-120)
1362  00                 [082] (-117)
1363  00                 [083] (-115)
1364  00                 [084] (-115)
1365  6D                 [085] (-115)
1366  00                 [086] (-115)
1367  00                 [087] (-115)
1368  00                 [088] (-115)
1369  6D                 [089] (-115)
136A  00                 [090] (-115)
136B  00                 [091] (-115)
136C  00                 [092] (-115)
136D  6E                 [093] (-115)
136E  00                 [094] (-115)
136F  00                 [095] (-115)
1370  00                 [096] (-110)
1371  6E                 [097] (-110)
1372  00                 [098] (-115)
1373  00                 [099] (-110)
1374  00                 [100] (-108)
1375  6E                 [101] (-108)
1376  00                 [102] (-108)
1377  00                 [103] (-106)
1378  00                 [104] (-106)
1379  6E                 [105] (-106)
137A  00                 [106] (-106)
137B  00                 [107] (-106)
137C  00                 [108] (-105)
137D  70                 [109] (-105)
137E  00                 [110] (-105)
137F  00                 [111] (-104)
1380  00                 [112] (-104)
1381  70                 [113] (-104)
1382  00                 [114] (-104)
1383  00                 [115] (-103)
1384  00                 [116] (-103)
1385  70                 [117] (-103)
1386  00                 [118] (-101)
1387  00                 [119] (-101)
1388  00                 [120] (-101)
1389  70                 [121] (-101)
138A  00                 [122] (-101)
138B  00                 [123] (-100)
138C  00                 [124] (-100)
138D  70                 [125] (-100)
138E  00                 [126] (-99)
138F  00                 [127] (-99)
1390  00                 [128] (-99)
1391  71                 [129] (-99)
1392  00                 [130] (-97)
                         * locals:
1519  00                 sizelocvars (0)
                         * upvalues:
151A  00                 sizeupvalues (0)
                         ** end of function **

                         
151B                     ** function [4] definition (level 2)
                         ** start of function **
151B  00                 string size (0)
                         source name: (none)
151D  01                 line defined (160)
151E  E8                 last line defined (232)
151F  01                 nups (4)
1520  04                 numparams (0)
1521  00                 is_vararg (0)
1522  00                 maxstacksize (32)
                         * code:
1525  02                 sizecode (277)
1526  1D000000           [001] getglobal  0   0        ; gBackgroundRegion
152A  24404000           [002] self       0   0   257  ; -1485896174
152E  9D800000           [003] getglobal  2   2        ; -332969190
1532  D9C00000           [004] loadk      3   3        ; "Kubrow2"
1536  A2000001           [005] call       2   2   0  
153A  22800000           [006] call       0   0   2  
153E  4E004100           [007] gettable   1   0   260  ; 0
1542  9D400100           [008] getglobal  2   5        ; 572299008
1546  D9800100           [009] loadk      3   6        ; 0
154A  19C10100           [010] loadk      4   7        ; 0
154E  59810100           [011] loadk      5   6        ; 0
1552  A2800002           [012] call       2   4   2  
1556  DD000200           [013] getglobal  3   8        ; 508519041
155A  19810100           [014] loadk      4   6        ; 0
155E  59410200           [015] loadk      5   9        ; 0
1562  99810100           [016] loadk      6   6        ; 0
1566  E2800002           [017] call       3   4   2  
156A  1D810200           [018] getglobal  4   10       ; 1074689893
156E  52018000           [019] move       5   1      
1572  22810001           [020] call       4   2   2  
1576  18410000           [021] test       4       1    ; to [23] if false
157A  1A400180           [022] jmp        6            ; to [29]
157E  24C1C200           [023] self       4   1   267  ; 1839670529
1582  22810001           [024] call       4   2   2  
1586  92000002           [025] move       2   4      
158A  2401C300           [026] self       4   1   268  ; -231049143
158E  22810001           [027] call       4   2   2  
1592  D2000002           [028] move       3   4      
1596  1D410300           [029] getglobal  4   13       ; 1672515847
159A  53010000           [030] getupval   5   0      
159E  22010101           [031] call       4   2   4  
15A2  1A403C80           [032] jmp        242          ; to [275]
15A6  5D820300           [033] getglobal  9   14       ; 2083004503
15AA  93028000           [034] getupval   10  1      
15AE  8EC24305           [035] gettable   10  10  271  ; -132701534
15B2  DD820200           [036] getglobal  11  10       ; 1074689893
15B6  0E034404           [037] gettable   12  8   272  ; "mDominantTraits"
15BA  0E434406           [038] gettable   12  12  273  ; "mBodyType"
15BE  E2820001           [039] call       11  2   2  
15C2  1D830400           [040] getglobal  12  18       ; defaultPetBodyType
15C6  4E034404           [041] gettable   13  8   272  ; "mDominantTraits"
15CA  4E43C406           [042] gettable   13  13  273  ; "mBodyType"
15CE  A2020002           [043] call       10  4   0  
15D2  62820000           [044] call       9   0   2  
15D6  9D820300           [045] getglobal  10  14       ; 2083004503
15DA  D3028000           [046] getupval   11  1      
15DE  CEC2C305           [047] gettable   11  11  271  ; -132701534
15E2  1D830200           [048] getglobal  12  10       ; 1074689893
15E6  4E034404           [049] gettable   13  8   272  ; "mDominantTraits"
15EA  4EC3C406           [050] gettable   13  13  275  ; "mFurPattern"
15EE  22830001           [051] call       12  2   2  
15F2  5D030500           [052] getglobal  13  20       ; defaultPetPattern
15F6  8E034404           [053] gettable   14  8   272  ; "mDominantTraits"
15FA  8EC34407           [054] gettable   14  14  275  ; "mFurPattern"
15FE  E2020002           [055] call       11  4   0  
1602  A2820000           [056] call       10  0   2  
1606  DD820300           [057] getglobal  11  14       ; 2083004503
160A  13038000           [058] getupval   12  1      
160E  0EC34306           [059] gettable   12  12  271  ; -132701534
1612  5D830200           [060] getglobal  13  10       ; 1074689893
1616  8E034404           [061] gettable   14  8   272  ; "mDominantTraits"
161A  8E434507           [062] gettable   14  14  277  ; "mHead"
161E  62830001           [063] call       13  2   2  
1622  86030007           [064] loadnil    14  14     
1626  CE034404           [065] gettable   15  8   272  ; "mDominantTraits"
162A  CE43C507           [066] gettable   15  15  277  ; "mHead"
162E  22030002           [067] call       12  4   0  
1632  E2820000           [068] call       11  0   2  
1636  1D830300           [069] getglobal  12  14       ; 2083004503
163A  53038000           [070] getupval   13  1      
163E  4EC3C306           [071] gettable   13  13  271  ; -132701534
1642  9D830200           [072] getglobal  14  10       ; 1074689893
1646  CE034404           [073] gettable   15  8   272  ; "mDominantTraits"
164A  CE83C507           [074] gettable   15  15  278  ; "mTail"
164E  A2830001           [075] call       14  2   2  
1652  C6038007           [076] loadnil    15  15     
1656  0E044404           [077] gettable   16  8   272  ; "mDominantTraits"
165A  0E844508           [078] gettable   16  16  278  ; "mTail"
165E  62030002           [079] call       13  4   0  
1662  22830000           [080] call       12  0   2  
1666  5DC30500           [081] getglobal  13  23       ; -895206725
166A  8E034404           [082] gettable   14  8   272  ; "mDominantTraits"
166E  8E034607           [083] gettable   14  14  280  ; "mPersonality"
1672  62830001           [084] call       13  2   2  
1676  9D830200           [085] getglobal  14  10       ; 1074689893
167A  D2038006           [086] move       15  13     
167E  A2830001           [087] call       14  2   2  
1682  98430000           [088] test       14      1    ; to [90] if false
1686  1A002E80           [089] jmp        185          ; to [275]
168A  9D830300           [090] getglobal  14  14       ; 2083004503
168E  E443C604           [091] self       15  9   281  ; -1348043987
1692  4E844604           [092] gettable   17  8   282  ; "mIsMale"
1696  97040000           [093] loadbool   18  0   0    ; false
169A  E2030002           [094] call       15  4   0  
169E  A2830000           [095] call       14  0   2  
16A2  C6038007           [096] loadnil    15  15     
16A6  24C4C606           [097] self       16  13  283  ; -1957065004
16AA  93040001           [098] getupval   18  2      
16AE  22848001           [099] call       16  3   2  
16B2  18040000           [100] test       16      0    ; to [102] if true
16B6  1A000180           [101] jmp        5            ; to [107]
16BA  1DC40500           [102] getglobal  16  23       ; -895206725
16BE  59040700           [103] loadk      17  28       ; "/Lotus/Types/Friendly/Pets/KubrowPetAvatar"
16C2  22840001           [104] call       16  2   2  
16C6  D2030008           [105] move       15  16     
16CA  1AC00080           [106] jmp        4            ; to [111]
16CE  1DC40500           [107] getglobal  16  23       ; -895206725
16D2  59440700           [108] loadk      17  29       ; "/Lotus/Types/Friendly/Pets/CatbrowPetAvatar"
16D6  22840001           [109] call       16  2   2  
16DA  D2030008           [110] move       15  16     
16DE  1D040000           [111] getglobal  16  0        ; gBackgroundRegion
16E2  24844708           [112] self       16  16  286  ; -1110225722
16E6  92048007           [113] move       18  15     
16EA  D2040001           [114] move       19  2      
16EE  12058001           [115] move       20  3      
16F2  22848002           [116] call       16  5   2  
16F6  64C44708           [117] self       17  16  287  ; 1786666898
16FA  CE044804           [118] gettable   19  8   288  ; "mSize"
16FE  62448001           [119] call       17  3   1  
1702  64444808           [120] self       17  16  289  ; 1479835399
1706  DD840300           [121] getglobal  19  14       ; 2083004503
170A  12058006           [122] move       20  13     
170E  E2840001           [123] call       19  2   2  
1712  17058000           [124] loadbool   20  1   0    ; true
1716  62840002           [125] call       17  4   2  
171A  A444C608           [126] self       18  17  281  ; -1348043987
171E  A2840001           [127] call       18  2   2  
1722  E4844809           [128] self       19  18  290  ; 67885531
1726  52050007           [129] move       21  14     
172A  9DC50800           [130] getglobal  22  35       ; Lotus_Game
172E  8E05490B           [131] gettable   22  22  292  ; "Helmet"
1732  E2440002           [132] call       19  4   1  
1736  E4844809           [133] self       19  18  290  ; 67885531
173A  52050005           [134] move       21  10     
173E  9DC50800           [135] getglobal  22  35       ; Lotus_Game
1742  8E45490B           [136] gettable   22  22  293  ; "BodySkin"
1746  E2440002           [137] call       19  4   1  
174A  DD840200           [138] getglobal  19  10       ; 1074689893
174E  12058005           [139] move       20  11     
1752  E2840001           [140] call       19  2   2  
1756  D8440000           [141] test       19      1    ; to [143] if false
175A  1A000180           [142] jmp        5            ; to [148]
175E  E4844809           [143] self       19  18  290  ; 67885531
1762  52058005           [144] move       21  11     
1766  9DC50800           [145] getglobal  22  35       ; Lotus_Game
176A  8E85490B           [146] gettable   22  22  294  ; "ArmRight"
176E  E2440002           [147] call       19  4   1  
1772  DD840200           [148] getglobal  19  10       ; 1074689893
1776  12050006           [149] move       20  12     
177A  E2840001           [150] call       19  2   2  
177E  D8440000           [151] test       19      1    ; to [153] if false
1782  1A000180           [152] jmp        5            ; to [158]
1786  E4844809           [153] self       19  18  290  ; 67885531
178A  52050006           [154] move       21  12     
178E  9DC50800           [155] getglobal  22  35       ; Lotus_Game
1792  8EC5490B           [156] gettable   22  22  295  ; "LegRight"
1796  E2440002           [157] call       19  4   1  
179A  CB040002           [158] newtable   19  4   0    ; array=4, hash=0
179E  13058000           [159] getupval   20  1      
17A2  0EC5430A           [160] gettable   20  20  271  ; -132701534
17A6  5D850200           [161] getglobal  21  10       ; 1074689893
17AA  8E054404           [162] gettable   22  8   272  ; "mDominantTraits"
17AE  8E054A0B           [163] gettable   22  22  296  ; "mBaseColor"
17B2  62850001           [164] call       21  2   2  
17B6  9D450A00           [165] getglobal  22  41       ; defaultPetColors
17BA  8E05410B           [166] gettable   22  22  260  ; 0
17BE  CE054404           [167] gettable   23  8   272  ; "mDominantTraits"
17C2  CE05CA0B           [168] gettable   23  23  296  ; "mBaseColor"
17C6  22850002           [169] call       20  4   2  
17CA  53058000           [170] getupval   21  1      
17CE  4EC5C30A           [171] gettable   21  21  271  ; -132701534
17D2  9D850200           [172] getglobal  22  10       ; 1074689893
17D6  CE054404           [173] gettable   23  8   272  ; "mDominantTraits"
17DA  CE85CA0B           [174] gettable   23  23  298  ; "mSecondaryColor"
17DE  A2850001           [175] call       22  2   2  
17E2  DD450A00           [176] getglobal  23  41       ; defaultPetColors
17E6  CEC5C10B           [177] gettable   23  23  263  ; 0
17EA  0E064404           [178] gettable   24  8   272  ; "mDominantTraits"
17EE  0E864A0C           [179] gettable   24  24  298  ; "mSecondaryColor"
17F2  62850002           [180] call       21  4   2  
17F6  93058000           [181] getupval   22  1      
17FA  8EC5430B           [182] gettable   22  22  271  ; -132701534
17FE  DD850200           [183] getglobal  23  10       ; 1074689893
1802  0E064404           [184] gettable   24  8   272  ; "mDominantTraits"
1806  0EC64A0C           [185] gettable   24  24  299  ; "mTertiaryColor"
180A  E2850001           [186] call       23  2   2  
180E  1D460A00           [187] getglobal  24  41       ; defaultPetColors
1812  0E064B0C           [188] gettable   24  24  300  ; 0
1816  4E064404           [189] gettable   25  8   272  ; "mDominantTraits"
181A  4EC6CA0C           [190] gettable   25  25  299  ; "mTertiaryColor"
181E  A2850002           [191] call       22  4   2  
1822  D3058000           [192] getupval   23  1      
1826  CEC5C30B           [193] gettable   23  23  271  ; -132701534
182A  1D860200           [194] getglobal  24  10       ; 1074689893
182E  4E064404           [195] gettable   25  8   272  ; "mDominantTraits"
1832  4E46CB0C           [196] gettable   25  25  301  ; "mAccentColor"
1836  22860001           [197] call       24  2   2  
183A  5D460A00           [198] getglobal  25  41       ; defaultPetColors
183E  4E86CB0C           [199] gettable   25  25  302  ; 0
1842  8E064404           [200] gettable   26  8   272  ; "mDominantTraits"
1846  8E464B0D           [201] gettable   26  26  301  ; "mAccentColor"
184A  E2850002           [202] call       23  4   2  
184E  13068000           [203] getupval   24  1      
1852  0EC6430C           [204] gettable   24  24  271  ; -132701534
1856  5D860200           [205] getglobal  25  10       ; 1074689893
185A  8E064404           [206] gettable   26  8   272  ; "mDominantTraits"
185E  8EC64B0D           [207] gettable   26  26  303  ; "mEyeColor"
1862  62860001           [208] call       25  2   2  
1866  9D460A00           [209] getglobal  26  41       ; defaultPetColors
186A  8E064C0D           [210] gettable   26  26  304  ; 0
186E  CE064404           [211] gettable   27  8   272  ; "mDominantTraits"
1872  CEC6CB0D           [212] gettable   27  27  303  ; "mEyeColor"
1876  22060002           [213] call       24  4   0  
187A  DB440000           [214] setlist    19  0   1    ; index 1 to top
187E  24C5C606           [215] self       20  13  283  ; -1957065004
1882  93050001           [216] getupval   22  2      
1886  22858001           [217] call       20  3   2  
188A  18050000           [218] test       20      0    ; to [220] if true
188E  1AC00280           [219] jmp        12           ; to [232]
1892  13058000           [220] getupval   20  1      
1896  0EC5430A           [221] gettable   20  20  271  ; -132701534
189A  5D850200           [222] getglobal  21  10       ; 1074689893
189E  8E054404           [223] gettable   22  8   272  ; "mDominantTraits"
18A2  8EC54B0B           [224] gettable   22  22  303  ; "mEyeColor"
18A6  62850001           [225] call       21  2   2  
18AA  9D450A00           [226] getglobal  22  41       ; defaultPetColors
18AE  8E054C0B           [227] gettable   22  22  304  ; 0
18B2  CE054404           [228] gettable   23  8   272  ; "mDominantTraits"
18B6  CEC5CB0B           [229] gettable   23  23  303  ; "mEyeColor"
18BA  22850002           [230] call       20  4   2  
18BE  CC040597           [231] settable   19  302 20   ; 0
18C2  1DC50800           [232] getglobal  20  35       ; Lotus_Game
18C6  0E454C0A           [233] gettable   20  20  305  ; -552268994
18CA  22858000           [234] call       20  1   2  
18CE  5D450300           [235] getglobal  21  13       ; 1672515847
18D2  92058009           [236] move       22  19     
18D6  62050101           [237] call       21  2   4  
18DA  1A400480           [238] jmp        18           ; to [257]
18DE  9D860300           [239] getglobal  26  14       ; 2083004503
18E2  D206800C           [240] move       27  25     
18E6  A2860001           [241] call       26  2   2  
18EA  DD860200           [242] getglobal  27  10       ; 1074689893
18EE  1207000D           [243] move       28  26     
18F2  E2860001           [244] call       27  2   2  
18F6  D8460000           [245] test       27      1    ; to [247] if false
18FA  1A400280           [246] jmp        10           ; to [257]
18FE  E4864C0D           [247] self       27  26  306  ; -576482948
1902  E2860001           [248] call       27  2   2  
1906  24C74C0A           [249] self       28  20  307  ; -1881992366
190A  8D07410C           [250] sub        30  24  260  ; 0
190E  D207800D           [251] move       31  27     
1912  22470002           [252] call       28  4   1  
1916  24074D0A           [253] self       28  20  308  ; -1037856321
191A  8D07410C           [254] sub        30  24  260  ; 0
191E  D7078000           [255] loadbool   31  1   0    ; true
1922  22470002           [256] call       28  4   1  
1926  56850000           [257] tforloop   21      2    ; to [259] if exit
192A  1AC0FA7F           [258] jmp        -20          ; to [239]
192E  24474D09           [259] self       28  18  309  ; -1708889336
1932  9DC70800           [260] getglobal  30  35       ; Lotus_Game
1936  8E874D0F           [261] gettable   30  30  310  ; "PrimaryColors"
193A  D207000A           [262] move       31  20     
193E  22470002           [263] call       28  4   1  
1942  24C7CD08           [264] self       28  17  311  ; -1038992139
1946  92070009           [265] move       30  18     
194A  22478001           [266] call       28  3   1  
194E  24074E08           [267] self       28  16  312  ; 2109594123
1952  97070000           [268] loadbool   30  0   0    ; false
1956  22478001           [269] call       28  3   1  
195A  1D470E00           [270] getglobal  28  57       ; table
195E  0E874E0E           [271] gettable   28  28  314  ; -431682403
1962  53078001           [272] getupval   29  3      
1966  92070008           [273] move       30  16     
196A  22478001           [274] call       28  3   1  
196E  16810000           [275] tforloop   4       2    ; to [277] if exit
1972  1AC0C27F           [276] jmp        -244         ; to [33]
1976  1E008000           [277] return     0   1      
                         * constants:
197A  3B                 sizek (59)
197B  04                 const type 4
197C  12                 string size (18)
197D  674261636B67726F+  "gBackgro"
1985  756E64526567696F+  "undRegio"
198D  6E00               "n\0"
                         const [0]: "gBackgroundRegion"
198F  01                 const type 3
1990  12066FA7           const [1]: (-1485896174)
1994  01                 const type 3
1995  1A4B27EC           const [2]: (-332969190)
1999  04                 const type 4
199A  08                 string size (8)
199B  4B7562726F773200   "Kubrow2\0"
                         const [3]: "Kubrow2"
19A3  03                 const type 3
19A4  0000803F           const [4]: (0)
19A8  01                 const type 3
19A9  00971C22           const [5]: (572299008)
19AD  03                 const type 3
19AE  00000000           const [6]: (0)
19B2  03                 const type 3
19B3  00000040           const [7]: (0)
19B7  01                 const type 3
19B8  81624F1E           const [8]: (508519041)
19BC  03                 const type 3
19BD  0000B442           const [9]: (0)
19C1  01                 const type 3
19C2  65770E40           const [10]: (1074689893)
19C6  01                 const type 3
19C7  0125A76D           const [11]: (1839670529)
19CB  01                 const type 3
19CC  49783AF2           const [12]: (-231049143)
19D0  01                 const type 3
19D1  0791B063           const [13]: (1672515847)
19D5  01                 const type 3
19D6  5720287C           const [14]: (2083004503)
19DA  01                 const type 3
19DB  A22217F8           const [15]: (-132701534)
19DF  04                 const type 4
19E0  10                 string size (16)
19E1  6D446F6D696E616E+  "mDominan"
19E9  7454726169747300   "tTraits\0"
                         const [16]: "mDominantTraits"
19F1  04                 const type 4
19F2  0A                 string size (10)
19F3  6D426F6479547970+  "mBodyTyp"
19FB  6500               "e\0"
                         const [17]: "mBodyType"
19FD  04                 const type 4
19FE  13                 string size (19)
19FF  64656661756C7450+  "defaultP"
1A07  6574426F64795479+  "etBodyTy"
1A0F  706500             "pe\0"
                         const [18]: "defaultPetBodyType"
1A12  04                 const type 4
1A13  0C                 string size (12)
1A14  6D46757250617474+  "mFurPatt"
1A1C  65726E00           "ern\0"
                         const [19]: "mFurPattern"
1A20  04                 const type 4
1A21  12                 string size (18)
1A22  64656661756C7450+  "defaultP"
1A2A  6574506174746572+  "etPatter"
1A32  6E00               "n\0"
                         const [20]: "defaultPetPattern"
1A34  04                 const type 4
1A35  06                 string size (6)
1A36  6D4865616400       "mHead\0"
                         const [21]: "mHead"
1A3C  04                 const type 4
1A3D  06                 string size (6)
1A3E  6D5461696C00       "mTail\0"
                         const [22]: "mTail"
1A44  01                 const type 3
1A45  BB3AA4CA           const [23]: (-895206725)
1A49  04                 const type 4
1A4A  0D                 string size (13)
1A4B  6D506572736F6E61+  "mPersona"
1A53  6C69747900         "lity\0"
                         const [24]: "mPersonality"
1A58  01                 const type 3
1A59  2D7BA6AF           const [25]: (-1348043987)
1A5D  04                 const type 4
1A5E  08                 string size (8)
1A5F  6D49734D616C6500   "mIsMale\0"
                         const [26]: "mIsMale"
1A67  01                 const type 3
1A68  D48E598B           const [27]: (-1957065004)
1A6C  04                 const type 4
1A6D  2B                 string size (43)
1A6E  2F4C6F7475732F54+  "/Lotus/T"
1A76  797065732F467269+  "ypes/Fri"
1A7E  656E646C792F5065+  "endly/Pe"
1A86  74732F4B7562726F+  "ts/Kubro"
1A8E  7750657441766174+  "wPetAvat"
1A96  617200             "ar\0"
                         const [28]: "/Lotus/Types/Friendly/Pets/KubrowPetAvatar"
1A99  04                 const type 4
1A9A  2C                 string size (44)
1A9B  2F4C6F7475732F54+  "/Lotus/T"
1AA3  797065732F467269+  "ypes/Fri"
1AAB  656E646C792F5065+  "endly/Pe"
1AB3  74732F4361746272+  "ts/Catbr"
1ABB  6F77506574417661+  "owPetAva"
1AC3  74617200           "tar\0"
                         const [29]: "/Lotus/Types/Friendly/Pets/CatbrowPetAvatar"
1AC7  01                 const type 3
1AC8  C64CD3BD           const [30]: (-1110225722)
1ACC  01                 const type 3
1ACD  925F7E6A           const [31]: (1786666898)
1AD1  04                 const type 4
1AD2  06                 string size (6)
1AD3  6D53697A6500       "mSize\0"
                         const [32]: "mSize"
1AD9  01                 const type 3
1ADA  077F3458           const [33]: (1479835399)
1ADE  01                 const type 3
1ADF  DBD90B04           const [34]: (67885531)
1AE3  04                 const type 4
1AE4  0B                 string size (11)
1AE5  4C6F7475735F4761+  "Lotus_Ga"
1AED  6D6500             "me\0"
                         const [35]: "Lotus_Game"
1AF0  04                 const type 4
1AF1  07                 string size (7)
1AF2  48656C6D657400     "Helmet\0"
                         const [36]: "Helmet"
1AF9  04                 const type 4
1AFA  09                 string size (9)
1AFB  426F6479536B696E+  "BodySkin"
1B03  00                 "\0"
                         const [37]: "BodySkin"
1B04  04                 const type 4
1B05  09                 string size (9)
1B06  41726D5269676874+  "ArmRight"
1B0E  00                 "\0"
                         const [38]: "ArmRight"
1B0F  04                 const type 4
1B10  09                 string size (9)
1B11  4C65675269676874+  "LegRight"
1B19  00                 "\0"
                         const [39]: "LegRight"
1B1A  04                 const type 4
1B1B  0B                 string size (11)
1B1C  6D42617365436F6C+  "mBaseCol"
1B24  6F7200             "or\0"
                         const [40]: "mBaseColor"
1B27  04                 const type 4
1B28  11                 string size (17)
1B29  64656661756C7450+  "defaultP"
1B31  6574436F6C6F7273+  "etColors"
1B39  00                 "\0"
                         const [41]: "defaultPetColors"
1B3A  04                 const type 4
1B3B  10                 string size (16)
1B3C  6D5365636F6E6461+  "mSeconda"
1B44  7279436F6C6F7200   "ryColor\0"
                         const [42]: "mSecondaryColor"
1B4C  04                 const type 4
1B4D  0F                 string size (15)
1B4E  6D54657274696172+  "mTertiar"
1B56  79436F6C6F7200     "yColor\0"
                         const [43]: "mTertiaryColor"
1B5D  03                 const type 3
1B5E  00004040           const [44]: (0)
1B62  04                 const type 4
1B63  0D                 string size (13)
1B64  6D416363656E7443+  "mAccentC"
1B6C  6F6C6F7200         "olor\0"
                         const [45]: "mAccentColor"
1B71  03                 const type 3
1B72  00008040           const [46]: (0)
1B76  04                 const type 4
1B77  0A                 string size (10)
1B78  6D457965436F6C6F+  "mEyeColo"
1B80  7200               "r\0"
                         const [47]: "mEyeColor"
1B82  03                 const type 3
1B83  0000A040           const [48]: (0)
1B87  01                 const type 3
1B88  3E0B15DF           const [49]: (-552268994)
1B8C  01                 const type 3
1B8D  7C91A3DD           const [50]: (-576482948)
1B91  01                 const type 3
1B92  5213D38F           const [51]: (-1881992366)
1B96  01                 const type 3
1B97  BF9123C2           const [52]: (-1037856321)
1B9B  01                 const type 3
1B9C  086B249A           const [53]: (-1708889336)
1BA0  04                 const type 4
1BA1  0E                 string size (14)
1BA2  5072696D61727943+  "PrimaryC"
1BAA  6F6C6F727300       "olors\0"
                         const [54]: "PrimaryColors"
1BB0  01                 const type 3
1BB1  F53C12C2           const [55]: (-1038992139)
1BB5  01                 const type 3
1BB6  0BDABD7D           const [56]: (2109594123)
1BBA  04                 const type 4
1BBB  06                 string size (6)
1BBC  7461626C6500       "table\0"
                         const [57]: "table"
1BC2  01                 const type 3
1BC3  9D0C45E6           const [58]: (-431682403)
                         * functions:
1BC7  00                 sizep (0)
                         * lines:
1BC9  02                 sizelineinfo (277)
                         [pc] (line)
1BCA  A1                 [001] (-95)
1BCB  00                 [002] (-95)
1BCC  00                 [003] (-95)
1BCD  00                 [004] (-95)
1BCE  A1                 [005] (-95)
1BCF  00                 [006] (-95)
1BD0  00                 [007] (-94)
1BD1  00                 [008] (-92)
1BD2  A1                 [009] (-92)
1BD3  00                 [010] (-92)
1BD4  00                 [011] (-92)
1BD5  00                 [012] (-92)
1BD6  A1                 [013] (-91)
1BD7  00                 [014] (-91)
1BD8  00                 [015] (-91)
1BD9  00                 [016] (-91)
1BDA  A1                 [017] (-91)
1BDB  00                 [018] (-89)
1BDC  00                 [019] (-89)
1BDD  00                 [020] (-89)
1BDE  A1                 [021] (-89)
1BDF  00                 [022] (-89)
1BE0  00                 [023] (-88)
1BE1  00                 [024] (-88)
1BE2  A2                 [025] (-88)
1BE3  00                 [026] (-87)
1BE4  00                 [027] (-87)
1BE5  00                 [028] (-87)
1BE6  A4                 [029] (-84)
1BE7  00                 [030] (-84)
1BE8  00                 [031] (-84)
1BE9  00                 [032] (-84)
1BEA  A4                 [033] (-83)
1BEB  00                 [034] (-83)
1BEC  00                 [035] (-83)
1BED  00                 [036] (-83)
1BEE  A4                 [037] (-83)
1BEF  00                 [038] (-83)
1BF0  00                 [039] (-83)
1BF1  00                 [040] (-83)
1BF2  A4                 [041] (-83)
1BF3  00                 [042] (-83)
1BF4  00                 [043] (-83)
1BF5  00                 [044] (-83)
1BF6  A4                 [045] (-82)
1BF7  00                 [046] (-82)
1BF8  00                 [047] (-82)
1BF9  00                 [048] (-82)
1BFA  A5                 [049] (-82)
1BFB  00                 [050] (-82)
1BFC  00                 [051] (-82)
1BFD  00                 [052] (-82)
1BFE  A5                 [053] (-82)
1BFF  00                 [054] (-82)
1C00  00                 [055] (-82)
1C01  00                 [056] (-82)
1C02  A5                 [057] (-81)
1C03  00                 [058] (-81)
1C04  00                 [059] (-81)
1C05  00                 [060] (-81)
1C06  A5                 [061] (-81)
1C07  00                 [062] (-81)
1C08  00                 [063] (-81)
1C09  00                 [064] (-81)
1C0A  A5                 [065] (-81)
1C0B  00                 [066] (-81)
1C0C  00                 [067] (-81)
1C0D  00                 [068] (-81)
1C0E  A7                 [069] (-80)
1C0F  00                 [070] (-80)
1C10  00                 [071] (-80)
1C11  00                 [072] (-80)
1C12  A7                 [073] (-80)
1C13  00                 [074] (-80)
1C14  00                 [075] (-80)
1C15  00                 [076] (-80)
1C16  A7                 [077] (-80)
1C17  00                 [078] (-80)
1C18  00                 [079] (-80)
1C19  00                 [080] (-80)
1C1A  A7                 [081] (-79)
1C1B  00                 [082] (-79)
1C1C  00                 [083] (-79)
1C1D  00                 [084] (-79)
1C1E  A7                 [085] (-77)
1C1F  00                 [086] (-77)
1C20  00                 [087] (-77)
1C21  00                 [088] (-77)
1C22  A8                 [089] (-77)
1C23  00                 [090] (-76)
1C24  00                 [091] (-76)
1C25  00                 [092] (-76)
1C26  A8                 [093] (-76)
1C27  00                 [094] (-76)
1C28  00                 [095] (-76)
1C29  00                 [096] (-74)
1C2A  A8                 [097] (-73)
1C2B  00                 [098] (-73)
1C2C  00                 [099] (-73)
1C2D  00                 [100] (-73)
1C2E  A9                 [101] (-73)
1C2F  00                 [102] (-72)
1C30  00                 [103] (-72)
1C31  00                 [104] (-72)
1C32  A9                 [105] (-72)
1C33  00                 [106] (-72)
1C34  00                 [107] (-70)
1C35  00                 [108] (-70)
1C36  A9                 [109] (-70)
1C37  00                 [110] (-70)
1C38  00                 [111] (-68)
1C39  00                 [112] (-68)
1C3A  AC                 [113] (-68)
1C3B  00                 [114] (-68)
1C3C  00                 [115] (-68)
1C3D  00                 [116] (-68)
1C3E  AC                 [117] (-66)
1C3F  00                 [118] (-66)
1C40  00                 [119] (-66)
1C41  00                 [120] (-64)
1C42  AC                 [121] (-64)
1C43  00                 [122] (-64)
1C44  00                 [123] (-64)
1C45  00                 [124] (-64)
1C46  AC                 [125] (-64)
1C47  00                 [126] (-63)
1C48  00                 [127] (-63)
1C49  00                 [128] (-62)
1C4A  AD                 [129] (-62)
1C4B  00                 [130] (-62)
1C4C  00                 [131] (-62)
1C4D  00                 [132] (-62)
1C4E  AD                 [133] (-61)
1C4F  00                 [134] (-61)
1C50  00                 [135] (-61)
1C51  00                 [136] (-61)
1C52  AD                 [137] (-61)
1C53  00                 [138] (-60)
1C54  00                 [139] (-60)
1C55  00                 [140] (-60)
1C56  AD                 [141] (-60)
1C57  00                 [142] (-60)
1C58  00                 [143] (-59)
1C59  00                 [144] (-59)
1C5A  AD                 [145] (-59)
1C5B  00                 [146] (-59)
1C5C  00                 [147] (-59)
1C5D  00                 [148] (-57)
1C5E  AD                 [149] (-57)
1C5F  00                 [150] (-57)
1C60  00                 [151] (-57)
1C61  00                 [152] (-57)
1C62  AD                 [153] (-56)
1C63  00                 [154] (-56)
1C64  00                 [155] (-56)
1C65  00                 [156] (-56)
1C66  AD                 [157] (-56)
1C67  00                 [158] (-53)
1C68  00                 [159] (-52)
1C69  00                 [160] (-52)
1C6A  AD                 [161] (-52)
1C6B  00                 [162] (-52)
1C6C  00                 [163] (-52)
1C6D  00                 [164] (-52)
1C6E  AD                 [165] (-52)
1C6F  00                 [166] (-52)
1C70  00                 [167] (-52)
1C71  00                 [168] (-52)
1C72  AD                 [169] (-52)
1C73  00                 [170] (-51)
1C74  00                 [171] (-51)
1C75  00                 [172] (-51)
1C76  AD                 [173] (-51)
1C77  00                 [174] (-51)
1C78  00                 [175] (-51)
1C79  00                 [176] (-51)
1C7A  AE                 [177] (-51)
1C7B  00                 [178] (-51)
1C7C  00                 [179] (-51)
1C7D  00                 [180] (-51)
1C7E  AE                 [181] (-50)
1C7F  00                 [182] (-50)
1C80  00                 [183] (-50)
1C81  00                 [184] (-50)
1C82  AE                 [185] (-50)
1C83  00                 [186] (-50)
1C84  00                 [187] (-50)
1C85  00                 [188] (-50)
1C86  AE                 [189] (-50)
1C87  00                 [190] (-50)
1C88  00                 [191] (-50)
1C89  00                 [192] (-49)
1C8A  AE                 [193] (-49)
1C8B  00                 [194] (-49)
1C8C  00                 [195] (-49)
1C8D  00                 [196] (-49)
1C8E  AE                 [197] (-49)
1C8F  00                 [198] (-49)
1C90  00                 [199] (-49)
1C91  00                 [200] (-49)
1C92  AE                 [201] (-49)
1C93  00                 [202] (-49)
1C94  00                 [203] (-48)
1C95  00                 [204] (-48)
1C96  AE                 [205] (-48)
1C97  00                 [206] (-48)
1C98  00                 [207] (-48)
1C99  00                 [208] (-48)
1C9A  AE                 [209] (-48)
1C9B  00                 [210] (-48)
1C9C  00                 [211] (-48)
1C9D  00                 [212] (-48)
1C9E  AE                 [213] (-48)
1C9F  00                 [214] (-47)
1CA0  00                 [215] (-45)
1CA1  00                 [216] (-45)
1CA2  AE                 [217] (-45)
1CA3  00                 [218] (-45)
1CA4  00                 [219] (-45)
1CA5  00                 [220] (-44)
1CA6  AE                 [221] (-44)
1CA7  00                 [222] (-44)
1CA8  00                 [223] (-44)
1CA9  00                 [224] (-44)
1CAA  AF                 [225] (-44)
1CAB  00                 [226] (-44)
1CAC  00                 [227] (-44)
1CAD  00                 [228] (-44)
1CAE  AF                 [229] (-44)
1CAF  00                 [230] (-44)
1CB0  00                 [231] (-44)
1CB1  00                 [232] (-41)
1CB2  AF                 [233] (-41)
1CB3  00                 [234] (-41)
1CB4  00                 [235] (-40)
1CB5  00                 [236] (-40)
1CB6  AF                 [237] (-40)
1CB7  00                 [238] (-40)
1CB8  00                 [239] (-39)
1CB9  00                 [240] (-39)
1CBA  AF                 [241] (-39)
1CBB  00                 [242] (-38)
1CBC  00                 [243] (-38)
1CBD  00                 [244] (-38)
1CBE  AF                 [245] (-38)
1CBF  00                 [246] (-38)
1CC0  00                 [247] (-37)
1CC1  00                 [248] (-37)
1CC2  AF                 [249] (-36)
1CC3  00                 [250] (-36)
1CC4  00                 [251] (-36)
1CC5  00                 [252] (-36)
1CC6  AF                 [253] (-35)
1CC7  00                 [254] (-35)
1CC8  00                 [255] (-35)
1CC9  00                 [256] (-35)
1CCA  AF                 [257] (-40)
1CCB  00                 [258] (-34)
1CCC  00                 [259] (-32)
1CCD  00                 [260] (-32)
1CCE  AF                 [261] (-32)
1CCF  00                 [262] (-32)
1CD0  00                 [263] (-32)
1CD1  00                 [264] (-30)
1CD2  AF                 [265] (-30)
1CD3  00                 [266] (-30)
1CD4  00                 [267] (-28)
1CD5  00                 [268] (-28)
1CD6  AF                 [269] (-28)
1CD7  00                 [270] (-27)
1CD8  00                 [271] (-27)
1CD9  00                 [272] (-27)
1CDA  B0                 [273] (-27)
1CDB  00                 [274] (-27)
1CDC  00                 [275] (-84)
1CDD  00                 [276] (-26)
1CDE  B0                 [277] (-24)
                         * locals:
201E  00                 sizelocvars (0)
                         * upvalues:
201F  00                 sizeupvalues (0)
                         ** end of function **

                         
2020                     ** function [5] definition (level 2)
                         ** start of function **
2020  00                 string size (0)
                         source name: (none)
2022  01                 line defined (234)
2023  EF                 last line defined (239)
2024  01                 nups (0)
2025  00                 numparams (3)
2026  03                 is_vararg (0)
2027  00                 maxstacksize (6)
                         * code:
2029  0A                 sizecode (10)
202A  CE000001           [01] gettable   3   2   0  
fail op	35
202E  2300C001           [02] close      0  
2032  1A400180           [03] jmp        6            ; to [10]
2036  8C404000           [04] settable   2   0   257  ; 1
203A  DD800000           [05] getglobal  3   2        ; table
203E  CEC0C001           [06] gettable   3   3   259  ; -431682403
2042  12018000           [07] move       4   1      
2046  52010000           [08] move       5   0      
204A  E2408001           [09] call       3   3   1  
204E  1E008000           [10] return     0   1      
                         * constants:
2052  04                 sizek (4)
2053  00                 const type 0
                         const [0]: nil
2054  01                 const type 3
2055  01000000           const [1]: (1)
2059  04                 const type 4
205A  06                 string size (6)
205B  7461626C6500       "table\0"
                         const [2]: "table"
2061  01                 const type 3
2062  9D0C45E6           const [3]: (-431682403)
                         * functions:
2066  00                 sizep (0)
                         * lines:
2067  0A                 sizelineinfo (10)
                         [pc] (line)
2068  EB                 [01] (-21)
2069  00                 [02] (-21)
206A  00                 [03] (-21)
206B  00                 [04] (-20)
206C  EB                 [05] (-19)
206D  00                 [06] (-19)
206E  00                 [07] (-19)
206F  00                 [08] (-19)
2070  EB                 [09] (-19)
2071  00                 [10] (-17)
                         * locals:
2090  00                 sizelocvars (0)
                         * upvalues:
2091  00                 sizeupvalues (0)
                         ** end of function **

                         
2092                     ** function [6] definition (level 2)
                         ** start of function **
2092  00                 string size (0)
                         source name: (none)
2094  01                 line defined (241)
2095  AD                 last line defined (301)
2096  02                 nups (4)
2097  04                 numparams (0)
2098  00                 is_vararg (0)
2099  00                 maxstacksize (35)
                         * code:
209C  01                 sizecode (225)
209D  0B000000           [001] newtable   0   0   0    ; array=0, hash=0
20A1  4B000000           [002] newtable   1   0   0    ; array=0, hash=0
20A5  93000000           [003] getupval   2   0      
20A9  8E004001           [004] gettable   2   2   256  ; "Pass"
fail op	35
20AD  23404001           [005] close      0  
20B1  1A802780           [006] jmp        159          ; to [166]
20B5  86008001           [007] loadnil    2   3      
20B9  19410000           [008] loadk      4   1        ; 0
20BD  59810000           [009] loadk      5   2        ; 0
20C1  99410000           [010] loadk      6   1        ; 0
20C5  10C10480           [011] forprep    4   20       ; to [32]
20C9  1DC20000           [012] getglobal  8   3        ; gBackgroundRegion
20CD  24024104           [013] self       8   8   260  ; -1485896174
20D1  9D420100           [014] getglobal  10  5        ; -332969190
20D5  D9820100           [015] loadk      11  6        ; "Kubrow"
20D9  1DC30100           [016] getglobal  12  7        ; -1615931716
20DD  52038003           [017] move       13  7      
20E1  22830001           [018] call       12  2   2  
20E5  C2028305           [019] concat     11  11  12 
20E9  A2020001           [020] call       10  2   0  
20ED  22820000           [021] call       8   0   2  
20F1  92000004           [022] move       2   8      
20F5  CE404001           [023] gettable   3   2   257  ; 0
20F9  1D020200           [024] getglobal  8   8        ; 1074689893
20FD  52028001           [025] move       9   3      
2101  22820001           [026] call       8   2   2  
2105  18420000           [027] test       8       1    ; to [29] if false
2109  1A800080           [028] jmp        3            ; to [32]
210D  2442C201           [029] self       8   3   265  ; 2109594123
2111  97020000           [030] loadbool   10  0   0    ; false
2115  22428001           [031] call       8   3   1  
2119  1481FA7F           [032] forloop    4   -21      ; to [12] if loop
211D  1D820200           [033] getglobal  8   10       ; 1672515847
2121  53028000           [034] getupval   9   1      
2125  22020101           [035] call       8   2   4  
2129  1AC01C80           [036] jmp        116          ; to [153]
212D  5D030200           [037] getglobal  13  8        ; 1074689893
2131  8EC34206           [038] gettable   14  12  267  ; "mDominantTraits"
2135  8E034307           [039] gettable   14  14  268  ; "mBodyType"
2139  62830001           [040] call       13  2   2  
213D  58030000           [041] test       13      0    ; to [43] if true
2141  1AC00180           [042] jmp        8            ; to [51]
2145  53030001           [043] getupval   13  2      
2149  9D430300           [044] getglobal  14  13       ; defaultPetBodyType
214D  A4834307           [045] self       14  14  270  ; 455421500
2151  A2830001           [046] call       14  2   2  
2155  D2030000           [047] move       15  0      
2159  12048000           [048] move       16  1      
215D  62430002           [049] call       13  4   1  
2161  1AC00180           [050] jmp        8            ; to [59]
2165  53030001           [051] getupval   13  2      
2169  8EC34206           [052] gettable   14  12  267  ; "mDominantTraits"
216D  8E034307           [053] gettable   14  14  268  ; "mBodyType"
2171  A4834307           [054] self       14  14  270  ; 455421500
2175  A2830001           [055] call       14  2   2  
2179  D2030000           [056] move       15  0      
217D  12048000           [057] move       16  1      
2181  62430002           [058] call       13  4   1  
2185  5D030200           [059] getglobal  13  8        ; 1074689893
2189  8EC34206           [060] gettable   14  12  267  ; "mDominantTraits"
218D  8EC34307           [061] gettable   14  14  271  ; "mFurPattern"
2191  62830001           [062] call       13  2   2  
2195  58030000           [063] test       13      0    ; to [65] if true
2199  1AC00180           [064] jmp        8            ; to [73]
219D  53030001           [065] getupval   13  2      
21A1  9D030400           [066] getglobal  14  16       ; defaultPetPattern
21A5  A4834307           [067] self       14  14  270  ; 455421500
21A9  A2830001           [068] call       14  2   2  
21AD  D2030000           [069] move       15  0      
21B1  12048000           [070] move       16  1      
21B5  62430002           [071] call       13  4   1  
21B9  1AC00180           [072] jmp        8            ; to [81]
21BD  53030001           [073] getupval   13  2      
21C1  8EC34206           [074] gettable   14  12  267  ; "mDominantTraits"
21C5  8EC34307           [075] gettable   14  14  271  ; "mFurPattern"
21C9  A4834307           [076] self       14  14  270  ; 455421500
21CD  A2830001           [077] call       14  2   2  
21D1  D2030000           [078] move       15  0      
21D5  12048000           [079] move       16  1      
21D9  62430002           [080] call       13  4   1  
21DD  5D030200           [081] getglobal  13  8        ; 1074689893
21E1  8EC34206           [082] gettable   14  12  267  ; "mDominantTraits"
21E5  8E434407           [083] gettable   14  14  273  ; "mHead"
21E9  62830001           [084] call       13  2   2  
21ED  58430000           [085] test       13      1    ; to [87] if false
21F1  1AC00180           [086] jmp        8            ; to [95]
21F5  53030001           [087] getupval   13  2      
21F9  8EC34206           [088] gettable   14  12  267  ; "mDominantTraits"
21FD  8E434407           [089] gettable   14  14  273  ; "mHead"
2201  A4834307           [090] self       14  14  270  ; 455421500
2205  A2830001           [091] call       14  2   2  
2209  D2030000           [092] move       15  0      
220D  12048000           [093] move       16  1      
2211  62430002           [094] call       13  4   1  
2215  5D030200           [095] getglobal  13  8        ; 1074689893
2219  8EC34206           [096] gettable   14  12  267  ; "mDominantTraits"
221D  8E834407           [097] gettable   14  14  274  ; "mTail"
2221  62830001           [098] call       13  2   2  
2225  58430000           [099] test       13      1    ; to [101] if false
2229  1AC00180           [100] jmp        8            ; to [109]
222D  53030001           [101] getupval   13  2      
2231  8EC34206           [102] gettable   14  12  267  ; "mDominantTraits"
2235  8E834407           [103] gettable   14  14  274  ; "mTail"
2239  A4834307           [104] self       14  14  270  ; 455421500
223D  A2830001           [105] call       14  2   2  
2241  D2030000           [106] move       15  0      
2245  12048000           [107] move       16  1      
2249  62430002           [108] call       13  4   1  
224D  4B038002           [109] newtable   13  5   0    ; array=5, hash=0
2251  99C30400           [110] loadk      14  19       ; "mBaseColor"
2255  D9030500           [111] loadk      15  20       ; "mSecondaryColor"
2259  19440500           [112] loadk      16  21       ; "mTertiaryColor"
225D  59840500           [113] loadk      17  22       ; "mAccentColor"
2261  99C40500           [114] loadk      18  23       ; "mEyeColor"
2265  5B438002           [115] setlist    13  5   1    ; index 1 to 5
2269  9D830200           [116] getglobal  14  10       ; 1672515847
226D  D2038006           [117] move       15  13     
2271  A2030101           [118] call       14  2   4  
2275  1A800580           [119] jmp        23           ; to [143]
2279  DD040200           [120] getglobal  19  8        ; 1074689893
227D  0EC54206           [121] gettable   20  12  267  ; "mDominantTraits"
2281  0E85040A           [122] gettable   20  20  18 
2285  E2840001           [123] call       19  2   2  
2289  D8040000           [124] test       19      0    ; to [126] if true
228D  1A000280           [125] jmp        9            ; to [135]
2291  D3040001           [126] getupval   19  2      
2295  1D050600           [127] getglobal  20  24       ; defaultPetColors
2299  0E45040A           [128] gettable   20  20  17 
229D  2485430A           [129] self       20  20  270  ; 455421500
22A1  22850001           [130] call       20  2   2  
22A5  52050000           [131] move       21  0      
22A9  92058000           [132] move       22  1      
22AD  E2440002           [133] call       19  4   1  
22B1  1AC00180           [134] jmp        8            ; to [143]
22B5  D3040001           [135] getupval   19  2      
22B9  0EC54206           [136] gettable   20  12  267  ; "mDominantTraits"
22BD  0E85040A           [137] gettable   20  20  18 
22C1  2485430A           [138] self       20  20  270  ; 455421500
22C5  22850001           [139] call       20  2   2  
22C9  52050000           [140] move       21  0      
22CD  92058000           [141] move       22  1      
22D1  E2440002           [142] call       19  4   1  
22D5  96830000           [143] tforloop   14      2    ; to [145] if exit
22D9  1A80F97F           [144] jmp        -25          ; to [120]
22DD  D3040001           [145] getupval   19  2      
22E1  0EC54206           [146] gettable   20  12  267  ; "mDominantTraits"
22E5  0E45460A           [147] gettable   20  20  281  ; "mPersonality"
22E9  2485430A           [148] self       20  20  270  ; 455421500
22ED  22850001           [149] call       20  2   2  
22F1  52050000           [150] move       21  0      
22F5  92058000           [151] move       22  1      
22F9  E2440002           [152] call       19  4   1  
22FD  16820000           [153] tforloop   8       2    ; to [155] if exit
2301  1A40E27F           [154] jmp        -118         ; to [37]
2305  DD840600           [155] getglobal  19  26       ; table
2309  CEC4C609           [156] gettable   19  19  283  ; -431682403
230D  12050000           [157] move       20  0      
2311  59050700           [158] loadk      21  28       ; "/Lotus/Types/Friendly/Pets/KubrowPetAvatar"
2315  E2448001           [159] call       19  3   1  
2319  DD840600           [160] getglobal  19  26       ; table
231D  CEC4C609           [161] gettable   19  19  283  ; -431682403
2321  12050000           [162] move       20  0      
2325  59450700           [163] loadk      21  29       ; "/Lotus/Types/Friendly/Pets/CatbrowPetAvatar"
2329  E2448001           [164] call       19  3   1  
232D  1A000D80           [165] jmp        53           ; to [219]
2331  DD840200           [166] getglobal  19  10       ; 1672515847
2335  13058000           [167] getupval   20  1      
2339  E2040101           [168] call       19  2   4  
233D  1A800B80           [169] jmp        47           ; to [217]
2341  1D860700           [170] getglobal  24  30       ; 2083004503
2345  53068001           [171] getupval   25  3      
2349  4EC6C70C           [172] gettable   25  25  287  ; -132701534
234D  9D060200           [173] getglobal  26  8        ; 1074689893
2351  CEC6C20B           [174] gettable   27  23  267  ; "mDominantTraits"
2355  CE06C30D           [175] gettable   27  27  268  ; "mBodyType"
2359  A2860001           [176] call       26  2   2  
235D  DD460300           [177] getglobal  27  13       ; defaultPetBodyType
2361  0EC7C20B           [178] gettable   28  23  267  ; "mDominantTraits"
2365  0E07430E           [179] gettable   28  28  268  ; "mBodyType"
2369  62060002           [180] call       25  4   0  
236D  22860000           [181] call       24  0   2  
2371  5D860700           [182] getglobal  25  30       ; 2083004503
2375  8EC6C20B           [183] gettable   26  23  267  ; "mDominantTraits"
2379  8E46460D           [184] gettable   26  26  281  ; "mPersonality"
237D  62860001           [185] call       25  2   2  
2381  93060001           [186] getupval   26  2      
2385  E406480C           [187] self       27  24  288  ; -1348043987
2389  4E47C80B           [188] gettable   29  23  289  ; "mIsMale"
238D  97070000           [189] loadbool   30  0   0    ; false
2391  E2860002           [190] call       27  4   2  
2395  E486C30D           [191] self       27  27  270  ; 455421500
2399  E2860001           [192] call       27  2   2  
239D  12070000           [193] move       28  0      
23A1  52078000           [194] move       29  1      
23A5  A2460002           [195] call       26  4   1  
23A9  99860800           [196] loadk      26  34       ; 0
23AD  DDC60800           [197] getglobal  27  35       ; Lotus_Game
23B1  CE06C90D           [198] gettable   27  27  292  ; "MAX_SlotName"
23B5  CD46C00D           [199] sub        27  27  257  ; 0
23B9  19470000           [200] loadk      28  1        ; 0
23BD  90460380           [201] forprep    26  14       ; to [216]
23C1  A447C90C           [202] self       30  25  293  ; 1911080885
23C5  1208800E           [203] move       32  29     
23C9  A2878001           [204] call       30  3   2  
23CD  DD070200           [205] getglobal  31  8        ; 1074689893
23D1  1208000F           [206] move       32  30     
23D5  E2870001           [207] call       31  2   2  
23D9  D8470000           [208] test       31      1    ; to [210] if false
23DD  1A400180           [209] jmp        6            ; to [216]
23E1  D3070001           [210] getupval   31  2      
23E5  2488430F           [211] self       32  30  270  ; 455421500
23E9  22880001           [212] call       32  2   2  
23ED  52080000           [213] move       33  0      
23F1  92088000           [214] move       34  1      
23F5  E2470002           [215] call       31  4   1  
23F9  9406FC7F           [216] forloop    26  -15      ; to [202] if loop
23FD  D6840000           [217] tforloop   19      2    ; to [219] if exit
2401  1A80F37F           [218] jmp        -49          ; to [170]
2405  D3070000           [219] getupval   31  0      
2409  1DC80900           [220] getglobal  32  39       ; UISys
240D  0E084A10           [221] gettable   32  32  296  ; 1151030240
2411  52080000           [222] move       33  0      
2415  22880001           [223] call       32  2   2  
2419  CC070893           [224] settable   31  294 32   ; "Loader"
241D  1E008000           [225] return     0   1      
                         * constants:
2421  29                 sizek (41)
2422  04                 const type 4
2423  05                 string size (5)
2424  5061737300         "Pass\0"
                         const [0]: "Pass"
2429  03                 const type 3
242A  0000803F           const [1]: (0)
242E  03                 const type 3
242F  00000040           const [2]: (0)
2433  04                 const type 4
2434  12                 string size (18)
2435  674261636B67726F+  "gBackgro"
243D  756E64526567696F+  "undRegio"
2445  6E00               "n\0"
                         const [3]: "gBackgroundRegion"
2447  01                 const type 3
2448  12066FA7           const [4]: (-1485896174)
244C  01                 const type 3
244D  1A4B27EC           const [5]: (-332969190)
2451  04                 const type 4
2452  07                 string size (7)
2453  4B7562726F7700     "Kubrow\0"
                         const [6]: "Kubrow"
245A  01                 const type 3
245B  BCD6AE9F           const [7]: (-1615931716)
245F  01                 const type 3
2460  65770E40           const [8]: (1074689893)
2464  01                 const type 3
2465  0BDABD7D           const [9]: (2109594123)
2469  01                 const type 3
246A  0791B063           const [10]: (1672515847)
246E  04                 const type 4
246F  10                 string size (16)
2470  6D446F6D696E616E+  "mDominan"
2478  7454726169747300   "tTraits\0"
                         const [11]: "mDominantTraits"
2480  04                 const type 4
2481  0A                 string size (10)
2482  6D426F6479547970+  "mBodyTyp"
248A  6500               "e\0"
                         const [12]: "mBodyType"
248C  04                 const type 4
248D  13                 string size (19)
248E  64656661756C7450+  "defaultP"
2496  6574426F64795479+  "etBodyTy"
249E  706500             "pe\0"
                         const [13]: "defaultPetBodyType"
24A1  01                 const type 3
24A2  3C2E251B           const [14]: (455421500)
24A6  04                 const type 4
24A7  0C                 string size (12)
24A8  6D46757250617474+  "mFurPatt"
24B0  65726E00           "ern\0"
                         const [15]: "mFurPattern"
24B4  04                 const type 4
24B5  12                 string size (18)
24B6  64656661756C7450+  "defaultP"
24BE  6574506174746572+  "etPatter"
24C6  6E00               "n\0"
                         const [16]: "defaultPetPattern"
24C8  04                 const type 4
24C9  06                 string size (6)
24CA  6D4865616400       "mHead\0"
                         const [17]: "mHead"
24D0  04                 const type 4
24D1  06                 string size (6)
24D2  6D5461696C00       "mTail\0"
                         const [18]: "mTail"
24D8  04                 const type 4
24D9  0B                 string size (11)
24DA  6D42617365436F6C+  "mBaseCol"
24E2  6F7200             "or\0"
                         const [19]: "mBaseColor"
24E5  04                 const type 4
24E6  10                 string size (16)
24E7  6D5365636F6E6461+  "mSeconda"
24EF  7279436F6C6F7200   "ryColor\0"
                         const [20]: "mSecondaryColor"
24F7  04                 const type 4
24F8  0F                 string size (15)
24F9  6D54657274696172+  "mTertiar"
2501  79436F6C6F7200     "yColor\0"
                         const [21]: "mTertiaryColor"
2508  04                 const type 4
2509  0D                 string size (13)
250A  6D416363656E7443+  "mAccentC"
2512  6F6C6F7200         "olor\0"
                         const [22]: "mAccentColor"
2517  04                 const type 4
2518  0A                 string size (10)
2519  6D457965436F6C6F+  "mEyeColo"
2521  7200               "r\0"
                         const [23]: "mEyeColor"
2523  04                 const type 4
2524  11                 string size (17)
2525  64656661756C7450+  "defaultP"
252D  6574436F6C6F7273+  "etColors"
2535  00                 "\0"
                         const [24]: "defaultPetColors"
2536  04                 const type 4
2537  0D                 string size (13)
2538  6D506572736F6E61+  "mPersona"
2540  6C69747900         "lity\0"
                         const [25]: "mPersonality"
2545  04                 const type 4
2546  06                 string size (6)
2547  7461626C6500       "table\0"
                         const [26]: "table"
254D  01                 const type 3
254E  9D0C45E6           const [27]: (-431682403)
2552  04                 const type 4
2553  2B                 string size (43)
2554  2F4C6F7475732F54+  "/Lotus/T"
255C  797065732F467269+  "ypes/Fri"
2564  656E646C792F5065+  "endly/Pe"
256C  74732F4B7562726F+  "ts/Kubro"
2574  7750657441766174+  "wPetAvat"
257C  617200             "ar\0"
                         const [28]: "/Lotus/Types/Friendly/Pets/KubrowPetAvatar"
257F  04                 const type 4
2580  2C                 string size (44)
2581  2F4C6F7475732F54+  "/Lotus/T"
2589  797065732F467269+  "ypes/Fri"
2591  656E646C792F5065+  "endly/Pe"
2599  74732F4361746272+  "ts/Catbr"
25A1  6F77506574417661+  "owPetAva"
25A9  74617200           "tar\0"
                         const [29]: "/Lotus/Types/Friendly/Pets/CatbrowPetAvatar"
25AD  01                 const type 3
25AE  5720287C           const [30]: (2083004503)
25B2  01                 const type 3
25B3  A22217F8           const [31]: (-132701534)
25B7  01                 const type 3
25B8  2D7BA6AF           const [32]: (-1348043987)
25BC  04                 const type 4
25BD  08                 string size (8)
25BE  6D49734D616C6500   "mIsMale\0"
                         const [33]: "mIsMale"
25C6  03                 const type 3
25C7  00000000           const [34]: (0)
25CB  04                 const type 4
25CC  0B                 string size (11)
25CD  4C6F7475735F4761+  "Lotus_Ga"
25D5  6D6500             "me\0"
                         const [35]: "Lotus_Game"
25D8  04                 const type 4
25D9  0D                 string size (13)
25DA  4D41585F536C6F74+  "MAX_Slot"
25E2  4E616D6500         "Name\0"
                         const [36]: "MAX_SlotName"
25E7  01                 const type 3
25E8  B5C7E871           const [37]: (1911080885)
25EC  04                 const type 4
25ED  07                 string size (7)
25EE  4C6F6164657200     "Loader\0"
                         const [38]: "Loader"
25F5  04                 const type 4
25F6  06                 string size (6)
25F7  554953797300       "UISys\0"
                         const [39]: "UISys"
25FD  01                 const type 3
25FE  E0539B44           const [40]: (1151030240)
                         * functions:
2602  00                 sizep (0)
                         * lines:
2604  01                 sizelineinfo (225)
                         [pc] (line)
2605  F2                 [001] (-14)
2606  00                 [002] (-13)
2607  00                 [003] (-12)
2608  00                 [004] (-12)
2609  F3                 [005] (-12)
260A  00                 [006] (-12)
260B  00                 [007] (-11)
260C  00                 [008] (-9)
260D  F4                 [009] (-9)
260E  00                 [010] (-9)
260F  00                 [011] (-9)
2610  00                 [012] (-8)
2611  F4                 [013] (-8)
2612  00                 [014] (-8)
2613  00                 [015] (-8)
2614  00                 [016] (-8)
2615  F4                 [017] (-8)
2616  00                 [018] (-8)
2617  00                 [019] (-8)
2618  00                 [020] (-8)
2619  F4                 [021] (-8)
261A  00                 [022] (-8)
261B  00                 [023] (-7)
261C  00                 [024] (-6)
261D  F5                 [025] (-6)
261E  00                 [026] (-6)
261F  00                 [027] (-6)
2620  00                 [028] (-6)
2621  F7                 [029] (-5)
2622  00                 [030] (-5)
2623  00                 [031] (-5)
2624  00                 [032] (-9)
2625  F7                 [033] (-2)
2626  00                 [034] (-2)
2627  00                 [035] (-2)
2628  00                 [036] (-2)
2629  F7                 [037] (-1)
262A  00                 [038] (-1)
262B  00                 [039] (-1)
262C  00                 [040] (-1)
262D  F7                 [041] (-1)
262E  00                 [042] (-1)
262F  00                 [043] (0)
2630  00                 [044] (0)
2631  F8                 [045] (0)
2632  00                 [046] (0)
2633  00                 [047] (0)
2634  00                 [048] (0)
2635  F8                 [049] (0)
2636  00                 [050] (0)
2637  00                 [051] (2)
2638  00                 [052] (2)
2639  F8                 [053] (2)
263A  00                 [054] (2)
263B  00                 [055] (2)
263C  00                 [056] (2)
263D  F8                 [057] (2)
263E  00                 [058] (2)
263F  00                 [059] (4)
2640  00                 [060] (4)
2641  F8                 [061] (4)
2642  00                 [062] (4)
2643  00                 [063] (4)
2644  00                 [064] (4)
2645  F8                 [065] (5)
2646  00                 [066] (5)
2647  00                 [067] (5)
2648  00                 [068] (5)
2649  F8                 [069] (5)
264A  00                 [070] (5)
264B  00                 [071] (5)
264C  00                 [072] (5)
264D  F8                 [073] (7)
264E  00                 [074] (7)
264F  00                 [075] (7)
2650  00                 [076] (7)
2651  F8                 [077] (7)
2652  00                 [078] (7)
2653  00                 [079] (7)
2654  00                 [080] (7)
2655  F8                 [081] (9)
2656  00                 [082] (9)
2657  00                 [083] (9)
2658  00                 [084] (9)
2659  F8                 [085] (9)
265A  00                 [086] (9)
265B  00                 [087] (10)
265C  00                 [088] (10)
265D  F9                 [089] (10)
265E  00                 [090] (10)
265F  00                 [091] (10)
2660  00                 [092] (10)
2661  FA                 [093] (10)
2662  00                 [094] (10)
2663  00                 [095] (12)
2664  00                 [096] (12)
2665  FA                 [097] (12)
2666  00                 [098] (12)
2667  00                 [099] (12)
2668  00                 [100] (12)
2669  FA                 [101] (13)
266A  00                 [102] (13)
266B  00                 [103] (13)
266C  00                 [104] (13)
266D  FA                 [105] (13)
266E  00                 [106] (13)
266F  00                 [107] (13)
2670  00                 [108] (13)
2671  FA                 [109] (16)
2672  00                 [110] (16)
2673  00                 [111] (16)
2674  00                 [112] (16)
2675  FB                 [113] (16)
2676  00                 [114] (16)
2677  00                 [115] (16)
2678  00                 [116] (17)
2679  FB                 [117] (17)
267A  00                 [118] (17)
267B  00                 [119] (17)
267C  00                 [120] (18)
267D  FB                 [121] (18)
267E  00                 [122] (18)
267F  00                 [123] (18)
2680  00                 [124] (18)
2681  F7                 [125] (18)
2682  00                 [126] (19)
2683  00                 [127] (19)
2684  00                 [128] (19)
2685  FE                 [129] (19)
2686  00                 [130] (19)
2687  00                 [131] (19)
2688  00                 [132] (19)
2689  FE                 [133] (19)
268A  00                 [134] (19)
268B  00                 [135] (21)
268C  00                 [136] (21)
268D  FE                 [137] (21)
268E  00                 [138] (21)
268F  00                 [139] (21)
2690  00                 [140] (21)
2691  FE                 [141] (21)
2692  00                 [142] (21)
2693  00                 [143] (17)
2694  00                 [144] (22)
2695  FF                 [145] (25)
2696  00                 [146] (25)
2697  00                 [147] (25)
2698  00                 [148] (25)
2699  FF                 [149] (25)
269A  00                 [150] (25)
269B  00                 [151] (25)
269C  00                 [152] (25)
269D  FF                 [153] (-2)
269E  00                 [154] (25)
269F  00                 [155] (28)
26A0  00                 [156] (28)
26A1  FF                 [157] (28)
26A2  00                 [158] (28)
26A3  00                 [159] (28)
26A4  00                 [160] (29)
26A5  FF                 [161] (29)
26A6  00                 [162] (29)
26A7  00                 [163] (29)
26A8  00                 [164] (29)
26A9  FF                 [165] (29)
26AA  00                 [166] (31)
26AB  00                 [167] (31)
26AC  00                 [168] (31)
26AD  00                 [169] (31)
26AE  01                 [170] (32)
26AF  00                 [171] (32)
26B0  00                 [172] (32)
26B1  00                 [173] (32)
26B2  01                 [174] (32)
26B3  00                 [175] (32)
26B4  00                 [176] (32)
26B5  00                 [177] (32)
26B6  01                 [178] (32)
26B7  00                 [179] (32)
26B8  00                 [180] (32)
26B9  00                 [181] (32)
26BA  01                 [182] (33)
26BB  00                 [183] (33)
26BC  00                 [184] (33)
26BD  00                 [185] (33)
26BE  01                 [186] (34)
26BF  00                 [187] (34)
26C0  00                 [188] (34)
26C1  00                 [189] (34)
26C2  01                 [190] (34)
26C3  00                 [191] (34)
26C4  00                 [192] (34)
26C5  00                 [193] (34)
26C6  01                 [194] (34)
26C7  00                 [195] (34)
26C8  00                 [196] (36)
26C9  00                 [197] (36)
26CA  01                 [198] (36)
26CB  00                 [199] (36)
26CC  00                 [200] (36)
26CD  02                 [201] (36)
26CE  01                 [202] (37)
26CF  00                 [203] (37)
26D0  00                 [204] (37)
26D1  02                 [205] (38)
26D2  01                 [206] (38)
26D3  00                 [207] (38)
26D4  00                 [208] (38)
26D5  02                 [209] (38)
26D6  01                 [210] (39)
26D7  00                 [211] (39)
26D8  00                 [212] (39)
26D9  02                 [213] (39)
26DA  01                 [214] (39)
26DB  00                 [215] (39)
26DC  00                 [216] (36)
26DD  02                 [217] (31)
26DE  01                 [218] (41)
26DF  00                 [219] (44)
26E0  00                 [220] (44)
26E1  02                 [221] (44)
26E2  01                 [222] (44)
26E3  00                 [223] (44)
26E4  00                 [224] (44)
26E5  02                 [225] (45)
                         * locals:
2989  00                 sizelocvars (0)
                         * upvalues:
298A  00                 sizeupvalues (0)
                         ** end of function **

                         
298B                     ** function [7] definition (level 2)
                         ** start of function **
298B  00                 string size (0)
                         source name: (none)
298D  02                 line defined (303)
298E  C1                 last line defined (321)
298F  02                 nups (4)
2990  04                 numparams (1)
2991  01                 is_vararg (0)
2992  00                 maxstacksize (5)
                         * code:
2994  22                 sizecode (34)
2995  9D000000           [01] getglobal  2   0        ; 1074689893
2999  D2000000           [02] move       3   0      
299D  A2800001           [03] call       2   2   2  
29A1  98400000           [04] test       2       1    ; to [6] if false
29A5  1A800180           [05] jmp        7            ; to [13]
29A9  A4404000           [06] self       2   0   257  ; -1957065004
29AD  1D810000           [07] getglobal  4   2        ; levelType
29B1  A2808001           [08] call       2   3   2  
29B5  98000000           [09] test       2       0    ; to [11] if true
29B9  1A400080           [10] jmp        2            ; to [13]
29BD  52000000           [11] move       1   0      
29C1  1AC00180           [12] jmp        8            ; to [21]
29C5  9D000000           [13] getglobal  2   0        ; 1074689893
29C9  D2000000           [14] move       3   0      
29CD  A2800001           [15] call       2   2   2  
29D1  98400000           [16] test       2       1    ; to [18] if false
29D5  1A800080           [17] jmp        3            ; to [21]
29D9  A4C04000           [18] self       2   0   259  ; 676713831
29DD  A2800001           [19] call       2   2   2  
29E1  4E004101           [20] gettable   1   2   260  ; "level"
29E5  97008000           [21] loadbool   2   1   0    ; true
fail op	8
29E9  88000000           [22] setupval   2   0      
29ED  93008000           [23] getupval   2   1      
fail op	35
29F1  23808000           [24] close      0  
29F5  1A000080           [25] jmp        1            ; to [27]
29F9  1E008000           [26] return     0   1      
fail op	8
29FD  48008000           [27] setupval   1   1      
2A01  97008000           [28] loadbool   2   1   0    ; true
fail op	8
2A05  88000001           [29] setupval   2   2      
2A09  93008001           [30] getupval   2   3      
2A0D  A4404101           [31] self       2   2   261  ; 252425949
2A11  12018000           [32] move       4   1      
2A15  A2408001           [33] call       2   3   1  
2A19  1E008000           [34] return     0   1      
                         * constants:
2A1D  06                 sizek (6)
2A1E  01                 const type 3
2A1F  65770E40           const [0]: (1074689893)
2A23  01                 const type 3
2A24  D48E598B           const [1]: (-1957065004)
2A28  04                 const type 4
2A29  0A                 string size (10)
2A2A  6C6576656C547970+  "levelTyp"
2A32  6500               "e\0"
                         const [2]: "levelType"
2A34  01                 const type 3
2A35  67D55528           const [3]: (676713831)
2A39  04                 const type 4
2A3A  06                 string size (6)
2A3B  6C6576656C00       "level\0"
                         const [4]: "level"
2A41  01                 const type 3
2A42  DDB60B0F           const [5]: (252425949)
                         * functions:
2A46  00                 sizep (0)
                         * lines:
2A47  22                 sizelineinfo (34)
                         [pc] (line)
2A48  31                 [01] (49)
2A49  01                 [02] (49)
2A4A  00                 [03] (49)
2A4B  00                 [04] (49)
2A4C  31                 [05] (49)
2A4D  01                 [06] (49)
2A4E  00                 [07] (49)
2A4F  00                 [08] (49)
2A50  31                 [09] (49)
2A51  01                 [10] (49)
2A52  00                 [11] (50)
2A53  00                 [12] (50)
2A54  31                 [13] (51)
2A55  01                 [14] (51)
2A56  00                 [15] (51)
2A57  00                 [16] (51)
2A58  31                 [17] (51)
2A59  01                 [18] (52)
2A5A  00                 [19] (52)
2A5B  00                 [20] (52)
2A5C  31                 [21] (55)
2A5D  01                 [22] (55)
2A5E  00                 [23] (57)
2A5F  00                 [24] (57)
2A60  31                 [25] (57)
2A61  01                 [26] (58)
2A62  00                 [27] (60)
2A63  00                 [28] (62)
2A64  31                 [29] (62)
2A65  01                 [30] (64)
2A66  00                 [31] (64)
2A67  00                 [32] (64)
2A68  31                 [33] (64)
2A69  01                 [34] (65)
                         * locals:
2AD0  00                 sizelocvars (0)
                         * upvalues:
2AD1  00                 sizeupvalues (0)
                         ** end of function **

                         
2AD2                     ** function [8] definition (level 2)
                         ** start of function **
2AD2  00                 string size (0)
                         source name: (none)
2AD4  02                 line defined (323)
2AD5  DC                 last line defined (348)
2AD6  02                 nups (2)
2AD7  02                 numparams (1)
2AD8  01                 is_vararg (0)
2AD9  00                 maxstacksize (6)
                         * code:
2ADB  2F                 sizecode (47)
2ADC  5D000000           [01] getglobal  1   0        ; _T
2AE0  93000000           [02] getupval   2   0      
2AE4  4C808080           [03] settable   1   257 2    ; "mPulseBG"
2AE8  53000000           [04] getupval   1   0      
fail op	35
2AEC  2380C000           [05] close      0  
2AF0  1A000080           [06] jmp        1            ; to [8]
2AF4  1E008000           [07] return     0   1      
2AF8  57000000           [08] loadbool   1   0   0    ; false
2AFC  93000000           [09] getupval   2   0      
fail op	21
2B00  15C04001           [10] concat     0   2   259
2B04  1A000080           [11] jmp        1            ; to [13]
2B08  57008000           [12] loadbool   1   1   0    ; true
2B0C  93000000           [13] getupval   2   0      
2B10  C4004100           [14] mul        3   0   260  ; 0
2B14  83C00001           [15] add        2   2   3  
fail op	8
2B18  88000000           [16] setupval   2   0      
2B1C  58000000           [17] test       1       0    ; to [19] if true
2B20  1A400280           [18] jmp        10           ; to [29]
2B24  93000000           [19] getupval   2   0      
fail op	21
2B28  15808081           [20] concat     0   259 2  
2B2C  1A800180           [21] jmp        7            ; to [29]
2B30  99C00000           [22] loadk      2   3        ; 0
fail op	8
2B34  88000000           [23] setupval   2   0      
2B38  9D400100           [24] getglobal  2   5        ; gFlashMgr
2B3C  A4804101           [25] self       2   2   262  ; -991492797
2B40  A2400001           [26] call       2   2   1  
2B44  86000001           [27] loadnil    2   2      
fail op	8
2B48  88008000           [28] setupval   2   1      
2B4C  93000000           [29] getupval   2   0      
fail op	21
2B50  15808083           [30] concat     0   263 2  
2B54  1A800180           [31] jmp        7            ; to [39]
2B58  86000001           [32] loadnil    2   2      
fail op	8
2B5C  88000000           [33] setupval   2   0      
2B60  9D000200           [34] getglobal  2   8        ; mMovie
2B64  A4404201           [35] self       2   2   265  ; -403402525
2B68  19C10000           [36] loadk      4   3        ; 0
2B6C  A2408001           [37] call       2   3   1  
2B70  1E008000           [38] return     0   1      
2B74  9D000200           [39] getglobal  2   8        ; mMovie
2B78  A4404201           [40] self       2   2   265  ; -403402525
2B7C  1D810200           [41] getglobal  4   10       ; math
2B80  0EC14202           [42] gettable   4   4   267  ; -113279800
2B84  53010000           [43] getupval   5   0      
2B88  22810001           [44] call       4   2   2  
2B8C  0D018183           [45] sub        4   263 4    ; 0
2B90  A2408001           [46] call       2   3   1  
2B94  1E008000           [47] return     0   1      
                         * constants:
2B98  0C                 sizek (12)
2B99  04                 const type 4
2B9A  03                 string size (3)
2B9B  5F5400             "_T\0"
                         const [0]: "_T"
2B9E  04                 const type 4
2B9F  09                 string size (9)
2BA0  6D50756C73654247+  "mPulseBG"
2BA8  00                 "\0"
                         const [1]: "mPulseBG"
2BA9  00                 const type 0
                         const [2]: nil
2BAA  03                 const type 3
2BAB  00000000           const [3]: (0)
2BAF  03                 const type 3
2BB0  00008040           const [4]: (0)
2BB4  04                 const type 4
2BB5  0A                 string size (10)
2BB6  67466C6173684D67+  "gFlashMg"
2BBE  7200               "r\0"
                         const [5]: "gFlashMgr"
2BC0  01                 const type 3
2BC1  4305E7C4           const [6]: (-991492797)
2BC5  03                 const type 3
2BC6  0000803F           const [7]: (0)
2BCA  04                 const type 4
2BCB  07                 string size (7)
2BCC  6D4D6F76696500     "mMovie\0"
                         const [8]: "mMovie"
2BD3  01                 const type 3
2BD4  E390F4E7           const [9]: (-403402525)
2BD8  04                 const type 4
2BD9  05                 string size (5)
2BDA  6D61746800         "math\0"
                         const [10]: "math"
2BDF  01                 const type 3
2BE0  C87C3FF9           const [11]: (-113279800)
                         * functions:
2BE4  00                 sizep (0)
                         * lines:
2BE5  2F                 sizelineinfo (47)
                         [pc] (line)
2BE6  44                 [01] (68)
2BE7  01                 [02] (68)
2BE8  00                 [03] (68)
2BE9  00                 [04] (69)
2BEA  44                 [05] (69)
2BEB  01                 [06] (69)
2BEC  00                 [07] (70)
2BED  00                 [08] (73)
2BEE  44                 [09] (74)
2BEF  01                 [10] (74)
2BF0  00                 [11] (74)
2BF1  00                 [12] (75)
2BF2  45                 [13] (78)
2BF3  01                 [14] (78)
2BF4  00                 [15] (78)
2BF5  00                 [16] (78)
2BF6  45                 [17] (79)
2BF7  01                 [18] (79)
2BF8  00                 [19] (79)
2BF9  00                 [20] (79)
2BFA  45                 [21] (79)
2BFB  01                 [22] (80)
2BFC  00                 [23] (80)
2BFD  00                 [24] (81)
2BFE  46                 [25] (81)
2BFF  01                 [26] (81)
2C00  00                 [27] (82)
2C01  00                 [28] (82)
2C02  49                 [29] (85)
2C03  01                 [30] (85)
2C04  00                 [31] (85)
2C05  00                 [32] (86)
2C06  4A                 [33] (86)
2C07  01                 [34] (87)
2C08  00                 [35] (87)
2C09  00                 [36] (87)
2C0A  4A                 [37] (87)
2C0B  01                 [38] (88)
2C0C  00                 [39] (91)
2C0D  00                 [40] (91)
2C0E  4A                 [41] (91)
2C0F  01                 [42] (91)
2C10  00                 [43] (91)
2C11  00                 [44] (91)
2C12  4B                 [45] (91)
2C13  01                 [46] (91)
2C14  00                 [47] (92)
                         * locals:
2CA2  00                 sizelocvars (0)
                         * upvalues:
2CA3  00                 sizeupvalues (0)
                         ** end of function **

                         
2CA4                     ** function [9] definition (level 2)
                         ** start of function **
2CA4  00                 string size (0)
                         source name: (none)
2CA6  02                 line defined (350)
2CA7  F4                 last line defined (372)
2CA8  02                 nups (7)
2CA9  07                 numparams (1)
2CAA  01                 is_vararg (0)
2CAB  00                 maxstacksize (8)
                         * code:
2CAD  47                 sizecode (71)
2CAE  53000000           [01] getupval   1   0      
2CB2  92000000           [02] move       2   0      
2CB6  62400001           [03] call       1   2   1  
2CBA  53008000           [04] getupval   1   1      
2CBE  58000000           [05] test       1       0    ; to [7] if true
2CC2  1AC00A80           [06] jmp        44           ; to [51]
2CC6  53000001           [07] getupval   1   2      
2CCA  6400C000           [08] self       1   1   256  ; 729320363
2CCE  62800001           [09] call       1   2   2  
2CD2  58000000           [10] test       1       0    ; to [12] if true
2CD6  1A800980           [11] jmp        39           ; to [51]
2CDA  53008001           [12] getupval   1   3      
fail op	35
2CDE  2340C000           [13] close      0  
2CE2  1A000780           [14] jmp        29           ; to [44]
2CE6  53000002           [15] getupval   1   4      
fail op	35
2CEA  6380C000           [16] close      1  
2CEE  1A400680           [17] jmp        26           ; to [44]
2CF2  53000002           [18] getupval   1   4      
2CF6  64C0C000           [19] self       1   1   259  ; -988128099
2CFA  62800001           [20] call       1   2   2  
fail op	21
2CFE  15400082           [21] concat     0   260 1  
2D02  1A000580           [22] jmp        21           ; to [44]
2D06  57000000           [23] loadbool   1   0   0    ; false
fail op	8
2D0A  48008000           [24] setupval   1   1      
2D0E  53000001           [25] getupval   1   2      
2D12  6440C100           [26] self       1   1   261  ; 48435800
2D16  62400001           [27] call       1   2   1  
2D1A  53008002           [28] getupval   1   5      
2D1E  62408000           [29] call       1   1   1  
2D22  5D800100           [30] getglobal  1   6        ; 1390508688
2D26  9DC00100           [31] getglobal  2   7        ; mMovie
2D2A  D9000200           [32] loadk      3   8        ; "ImprintPanel"
2D2E  1D410200           [33] getglobal  4   9        ; UISys
2D32  0E814202           [34] gettable   4   4   266  ; "FlashInstance_LINEAR"
2D36  4B018000           [35] newtable   5   1   0    ; array=1, hash=0
2D3A  99C10200           [36] loadk      6   11       ; "_alpha"
2D3E  5B418000           [37] setlist    5   1   1    ; index 1 to 1
2D42  8B018000           [38] newtable   6   1   0    ; array=1, hash=0
2D46  D9010300           [39] loadk      7   12       ; 0
2D4A  9B418000           [40] setlist    6   1   1    ; index 1 to 1
2D4E  D9410300           [41] loadk      7   13       ; -102
2D52  62408003           [42] call       1   7   1  
2D56  1A800180           [43] jmp        7            ; to [51]
2D5A  59400000           [44] loadk      1   1        ; 0
fail op	8
2D5E  48008001           [45] setupval   1   3      
2D62  5DC00100           [46] getglobal  1   7        ; mMovie
2D66  6480C300           [47] self       1   1   270  ; -403402525
2D6A  D3008001           [48] getupval   3   3      
2D6E  62408001           [49] call       1   3   1  
2D72  1E008000           [50] return     0   1      
2D76  53000003           [51] getupval   1   6      
2D7A  58400000           [52] test       1       1    ; to [54] if false
2D7E  1A000480           [53] jmp        17           ; to [71]
2D82  53008001           [54] getupval   1   3      
fail op	21
2D86  15400082           [55] concat     0   260 1  
2D8A  1A400380           [56] jmp        14           ; to [71]
2D8E  5DC00300           [57] getglobal  1   15       ; math
2D92  4E00C400           [58] gettable   1   1   272  ; -1962864584
2D96  99000100           [59] loadk      2   4        ; 0
2D9A  D3008001           [60] getupval   3   3      
2D9E  1D410400           [61] getglobal  4   17       ; 1661359502
2DA2  22818000           [62] call       4   1   2  
2DA6  04414002           [63] mul        4   4   257  ; 0
2DAA  CD008101           [64] sub        3   3   4  
2DAE  62808001           [65] call       1   3   2  
fail op	8
2DB2  48008001           [66] setupval   1   3      
2DB6  5DC00100           [67] getglobal  1   7        ; mMovie
2DBA  6480C300           [68] self       1   1   270  ; -403402525
2DBE  D3008001           [69] getupval   3   3      
2DC2  62408001           [70] call       1   3   1  
2DC6  1E008000           [71] return     0   1      
                         * constants:
2DCA  12                 sizek (18)
2DCB  01                 const type 3
2DCC  AB8B782B           const [0]: (729320363)
2DD0  03                 const type 3
2DD1  0000803F           const [1]: (0)
2DD5  00                 const type 0
                         const [2]: nil
2DD6  01                 const type 3
2DD7  9D5C1AC5           const [3]: (-988128099)
2DDB  03                 const type 3
2DDC  00000000           const [4]: (0)
2DE0  01                 const type 3
2DE1  5812E302           const [5]: (48435800)
2DE5  01                 const type 3
2DE6  907AE152           const [6]: (1390508688)
2DEA  04                 const type 4
2DEB  07                 string size (7)
2DEC  6D4D6F76696500     "mMovie\0"
                         const [7]: "mMovie"
2DF3  04                 const type 4
2DF4  0D                 string size (13)
2DF5  496D7072696E7450+  "ImprintP"
2DFD  616E656C00         "anel\0"
                         const [8]: "ImprintPanel"
2E02  04                 const type 4
2E03  06                 string size (6)
2E04  554953797300       "UISys\0"
                         const [9]: "UISys"
2E0A  04                 const type 4
2E0B  15                 string size (21)
2E0C  466C617368496E73+  "FlashIns"
2E14  74616E63655F4C49+  "tance_LI"
2E1C  4E45415200         "NEAR\0"
                         const [10]: "FlashInstance_LINEAR"
2E21  04                 const type 4
2E22  07                 string size (7)
2E23  5F616C70686100     "_alpha\0"
                         const [11]: "_alpha"
2E2A  03                 const type 3
2E2B  0000C842           const [12]: (0)
2E2F  03                 const type 3
2E30  9A99193E           const [13]: (-102)
2E34  01                 const type 3
2E35  E390F4E7           const [14]: (-403402525)
2E39  04                 const type 4
2E3A  05                 string size (5)
2E3B  6D61746800         "math\0"
                         const [15]: "math"
2E40  01                 const type 3
2E41  3810018B           const [16]: (-1962864584)
2E45  01                 const type 3
2E46  8E550663           const [17]: (1661359502)
                         * functions:
2E4A  00                 sizep (0)
                         * lines:
2E4B  47                 sizelineinfo (71)
                         [pc] (line)
2E4C  5F                 [01] (95)
2E4D  01                 [02] (95)
2E4E  00                 [03] (95)
2E4F  00                 [04] (97)
2E50  5F                 [05] (97)
2E51  01                 [06] (97)
2E52  00                 [07] (98)
2E53  00                 [08] (98)
2E54  5F                 [09] (98)
2E55  01                 [10] (98)
2E56  00                 [11] (98)
2E57  00                 [12] (99)
2E58  61                 [13] (99)
2E59  01                 [14] (99)
2E5A  00                 [15] (99)
2E5B  00                 [16] (99)
2E5C  61                 [17] (99)
2E5D  01                 [18] (99)
2E5E  00                 [19] (99)
2E5F  00                 [20] (99)
2E60  61                 [21] (99)
2E61  01                 [22] (99)
2E62  00                 [23] (100)
2E63  00                 [24] (100)
2E64  62                 [25] (101)
2E65  01                 [26] (101)
2E66  00                 [27] (101)
2E67  00                 [28] (102)
2E68  62                 [29] (102)
2E69  01                 [30] (103)
2E6A  00                 [31] (103)
2E6B  00                 [32] (103)
2E6C  62                 [33] (103)
2E6D  01                 [34] (103)
2E6E  00                 [35] (103)
2E6F  00                 [36] (103)
2E70  62                 [37] (103)
2E71  01                 [38] (103)
2E72  00                 [39] (103)
2E73  00                 [40] (103)
2E74  62                 [41] (103)
2E75  01                 [42] (103)
2E76  00                 [43] (103)
2E77  00                 [44] (105)
2E78  63                 [45] (105)
2E79  01                 [46] (106)
2E7A  00                 [47] (106)
2E7B  00                 [48] (106)
2E7C  63                 [49] (106)
2E7D  01                 [50] (107)
2E7E  00                 [51] (112)
2E7F  00                 [52] (112)
2E80  63                 [53] (112)
2E81  01                 [54] (112)
2E82  00                 [55] (112)
2E83  00                 [56] (112)
2E84  63                 [57] (113)
2E85  01                 [58] (113)
2E86  00                 [59] (113)
2E87  00                 [60] (113)
2E88  63                 [61] (113)
2E89  01                 [62] (113)
2E8A  00                 [63] (113)
2E8B  00                 [64] (113)
2E8C  63                 [65] (113)
2E8D  01                 [66] (113)
2E8E  00                 [67] (114)
2E8F  00                 [68] (114)
2E90  63                 [69] (114)
2E91  01                 [70] (114)
2E92  00                 [71] (116)
                         * locals:
2F68  00                 sizelocvars (0)
                         * upvalues:
2F69  00                 sizeupvalues (0)
                         ** end of function **

                         
2F6A                     ** function [10] definition (level 2)
                         ** start of function **
2F6A  00                 string size (0)
                         source name: (none)
2F6C  02                 line defined (374)
2F6D  84                 last line defined (388)
2F6E  03                 nups (3)
2F6F  03                 numparams (0)
2F70  00                 is_vararg (0)
2F71  00                 maxstacksize (3)
                         * code:
2F73  27                 sizecode (39)
2F74  1D000000           [01] getglobal  0   0        ; gFlashMgr
2F78  24404000           [02] self       0   0   257  ; -991492797
2F7C  22400001           [03] call       0   2   1  
2F80  1D800000           [04] getglobal  0   2        ; _T
2F84  0C00C181           [05] settable   0   259 260  ; "KubrowPreviewOpen" 0
2F88  13000000           [06] getupval   0   0      
2F8C  0E404100           [07] gettable   0   0   261  ; -1262767739
2F90  57000000           [08] loadbool   1   0   0    ; false
2F94  22400001           [09] call       0   2   1  
2F98  1D800100           [10] getglobal  0   6        ; 1074689893
2F9C  53008000           [11] getupval   1   1      
2FA0  22800001           [12] call       0   2   2  
2FA4  18400000           [13] test       0       1    ; to [15] if false
2FA8  1A800280           [14] jmp        11           ; to [26]
2FAC  1D800100           [15] getglobal  0   6        ; 1074689893
2FB0  5D800000           [16] getglobal  1   2        ; _T
2FB4  93008000           [17] getupval   2   1      
2FB8  4E808000           [18] gettable   1   1   2  
2FBC  22800001           [19] call       0   2   2  
2FC0  18400000           [20] test       0       1    ; to [22] if false
2FC4  1AC00080           [21] jmp        4            ; to [26]
2FC8  1D800000           [22] getglobal  0   2        ; _T
2FCC  53008000           [23] getupval   1   1      
2FD0  0E400000           [24] gettable   0   0   1  
2FD4  22408000           [25] call       0   1   1  
2FD8  1D800100           [26] getglobal  0   6        ; 1074689893
2FDC  5D800000           [27] getglobal  1   2        ; _T
2FE0  4EC0C100           [28] gettable   1   1   263  ; "SetSquadOverlayTitle"
2FE4  22800001           [29] call       0   2   2  
2FE8  18400000           [30] test       0       1    ; to [32] if false
2FEC  1A800080           [31] jmp        3            ; to [35]
2FF0  1D800000           [32] getglobal  0   2        ; _T
2FF4  0E004200           [33] gettable   0   0   264  ; 1453523133
2FF8  22408000           [34] call       0   1   1  
2FFC  1D800000           [35] getglobal  0   2        ; _T
3000  0C80C284           [36] settable   0   265 266  ; "InfoPopup_Data" nil
3004  17008000           [37] loadbool   0   1   0    ; true
fail op	8
3008  08000001           [38] setupval   0   2      
300C  1E008000           [39] return     0   1      
                         * constants:
3010  0B                 sizek (11)
3011  04                 const type 4
3012  0A                 string size (10)
3013  67466C6173684D67+  "gFlashMg"
301B  7200               "r\0"
                         const [0]: "gFlashMgr"
301D  01                 const type 3
301E  4305E7C4           const [1]: (-991492797)
3022  04                 const type 4
3023  03                 string size (3)
3024  5F5400             "_T\0"
                         const [2]: "_T"
3027  04                 const type 4
3028  12                 string size (18)
3029  4B7562726F775072+  "KubrowPr"
3031  65766965774F7065+  "eviewOpe"
3039  6E00               "n\0"
                         const [3]: "KubrowPreviewOpen"
303B  01                 const type 3
303C  00000000           const [4]: (0)
3040  01                 const type 3
3041  85B1BBB4           const [5]: (-1262767739)
3045  01                 const type 3
3046  65770E40           const [6]: (1074689893)
304A  04                 const type 4
304B  15                 string size (21)
304C  5365745371756164+  "SetSquad"
3054  4F7665726C617954+  "OverlayT"
305C  69746C6500         "itle\0"
                         const [7]: "SetSquadOverlayTitle"
3061  01                 const type 3
3062  BD00A356           const [8]: (1453523133)
3066  04                 const type 4
3067  0F                 string size (15)
3068  496E666F506F7075+  "InfoPopu"
3070  705F4461746100     "p_Data\0"
                         const [9]: "InfoPopup_Data"
3077  00                 const type 0
                         const [10]: nil
                         * functions:
3078  00                 sizep (0)
                         * lines:
3079  27                 sizelineinfo (39)
                         [pc] (line)
307A  77                 [01] (119)
307B  01                 [02] (119)
307C  00                 [03] (119)
307D  00                 [04] (120)
307E  77                 [05] (120)
307F  01                 [06] (121)
3080  00                 [07] (121)
3081  00                 [08] (121)
3082  77                 [09] (121)
3083  01                 [10] (122)
3084  00                 [11] (122)
3085  00                 [12] (122)
3086  78                 [13] (122)
3087  01                 [14] (122)
3088  00                 [15] (122)
3089  00                 [16] (122)
308A  78                 [17] (122)
308B  01                 [18] (122)
308C  00                 [19] (122)
308D  00                 [20] (122)
308E  79                 [21] (122)
308F  01                 [22] (123)
3090  00                 [23] (123)
3091  00                 [24] (123)
3092  79                 [25] (123)
3093  01                 [26] (125)
3094  00                 [27] (125)
3095  00                 [28] (125)
3096  79                 [29] (125)
3097  01                 [30] (125)
3098  00                 [31] (125)
3099  00                 [32] (126)
309A  79                 [33] (126)
309B  01                 [34] (126)
309C  00                 [35] (-127)
309D  00                 [36] (-127)
309E  7A                 [37] (-125)
309F  01                 [38] (-125)
30A0  00                 [39] (-124)
                         * locals:
3116  00                 sizelocvars (0)
                         * upvalues:
3117  00                 sizeupvalues (0)
                         ** end of function **

                         
3118                     ** function [11] definition (level 2)
                         ** start of function **
3118  00                 string size (0)
                         source name: (none)
311A  03                 line defined (390)
311B  8A                 last line defined (394)
311C  03                 nups (2)
311D  02                 numparams (0)
311E  00                 is_vararg (0)
311F  00                 maxstacksize (2)
                         * code:
3121  06                 sizecode (6)
3122  13000000           [1] getupval   0   0      
3126  18400000           [2] test       0       1    ; to [4] if false
312A  1A400080           [3] jmp        2            ; to [6]
312E  13008000           [4] getupval   0   1      
3132  22408000           [5] call       0   1   1  
3136  1E008000           [6] return     0   1      
                         * constants:
313A  00                 sizek (0)
                         * functions:
313B  00                 sizep (0)
                         * lines:
313C  06                 sizelineinfo (6)
                         [pc] (line)
313D  87                 [1] (-121)
313E  01                 [2] (-121)
313F  00                 [3] (-121)
3140  00                 [4] (-120)
3141  87                 [5] (-120)
3142  01                 [6] (-118)
                         * locals:
3155  00                 sizelocvars (0)
                         * upvalues:
3156  00                 sizeupvalues (0)
                         ** end of function **

                         
3157                     ** function [12] definition (level 2)
                         ** start of function **
3157  00                 string size (0)
                         source name: (none)
3159  03                 line defined (396)
315A  9E                 last line defined (414)
315B  03                 nups (6)
315C  06                 numparams (0)
315D  00                 is_vararg (0)
315E  00                 maxstacksize (9)
                         * code:
3160  1E                 sizecode (30)
3161  17008000           [01] loadbool   0   1   0    ; true
fail op	8
3165  08000000           [02] setupval   0   0      
3169  13008000           [03] getupval   0   1      
316D  0E004000           [04] gettable   0   0   256  ; 630793108
3171  5D400000           [05] getglobal  1   1        ; _G
3175  4E80C000           [06] gettable   1   1   258  ; "UISound_Close"
3179  22400001           [07] call       0   2   1  
317D  13000001           [08] getupval   0   2      
3181  18400000           [09] test       0       1    ; to [11] if false
3185  1A400080           [10] jmp        2            ; to [13]
3189  13008001           [11] getupval   0   3      
318D  22408000           [12] call       0   1   1  
3191  1DC00000           [13] getglobal  0   3        ; 1390508688
3195  5D000100           [14] getglobal  1   4        ; mMovie
3199  99400100           [15] loadk      2   5        ; "_root"
319D  DD800100           [16] getglobal  3   6        ; UISys
31A1  CEC0C101           [17] gettable   3   3   263  ; "FlashInstance_LINEAR"
31A5  0B018000           [18] newtable   4   1   0    ; array=1, hash=0
31A9  59010200           [19] loadk      5   8        ; "_alpha"
31AD  1B418000           [20] setlist    4   1   1    ; index 1 to 1
31B1  4B018000           [21] newtable   5   1   0    ; array=1, hash=0
31B5  99410200           [22] loadk      6   9        ; 0
31B9  5B418000           [23] setlist    5   1   1    ; index 1 to 1
31BD  99810200           [24] loadk      6   10       ; 0
31C1  D9410200           [25] loadk      7   9        ; 0
31C5  25020000           [26] closure    8   0      
31C9  13000002           [27] getupval   0   4      
31CD  13008002           [28] getupval   0   5      
31D1  22408004           [29] call       0   9   1  
31D5  1E008000           [30] return     0   1      
                         * constants:
31D9  0B                 sizek (11)
31DA  01                 const type 3
31DB  94239925           const [0]: (630793108)
31DF  04                 const type 4
31E0  03                 string size (3)
31E1  5F4700             "_G\0"
                         const [1]: "_G"
31E4  04                 const type 4
31E5  0E                 string size (14)
31E6  5549536F756E645F+  "UISound_"
31EE  436C6F736500       "Close\0"
                         const [2]: "UISound_Close"
31F4  01                 const type 3
31F5  907AE152           const [3]: (1390508688)
31F9  04                 const type 4
31FA  07                 string size (7)
31FB  6D4D6F76696500     "mMovie\0"
                         const [4]: "mMovie"
3202  04                 const type 4
3203  06                 string size (6)
3204  5F726F6F7400       "_root\0"
                         const [5]: "_root"
320A  04                 const type 4
320B  06                 string size (6)
320C  554953797300       "UISys\0"
                         const [6]: "UISys"
3212  04                 const type 4
3213  15                 string size (21)
3214  466C617368496E73+  "FlashIns"
321C  74616E63655F4C49+  "tance_LI"
3224  4E45415200         "NEAR\0"
                         const [7]: "FlashInstance_LINEAR"
3229  04                 const type 4
322A  07                 string size (7)
322B  5F616C70686100     "_alpha\0"
                         const [8]: "_alpha"
3232  03                 const type 3
3233  00000000           const [9]: (0)
3237  03                 const type 3
3238  0000803E           const [10]: (0)
                         * functions:
323C  01                 sizep (1)
                         
323D                     ** function [0] definition (level 3)
                         ** start of function **
323D  00                 string size (0)
                         source name: (none)
323F  03                 line defined (405)
3240  9D                 last line defined (413)
3241  03                 nups (2)
3242  02                 numparams (0)
3243  00                 is_vararg (0)
3244  00                 maxstacksize (3)
                         * code:
3246  15                 sizecode (21)
3247  1D000000           [01] getglobal  0   0        ; 1074689893
324B  53000000           [02] getupval   1   0      
324F  22800001           [03] call       0   2   2  
3253  18400000           [04] test       0       1    ; to [6] if false
3257  1AC00280           [05] jmp        12           ; to [18]
325B  1D000000           [06] getglobal  0   0        ; 1074689893
325F  5D400000           [07] getglobal  1   1        ; _T
3263  93000000           [08] getupval   2   0      
3267  4E808000           [09] gettable   1   1   2  
326B  22800001           [10] call       0   2   2  
326F  18400000           [11] test       0       1    ; to [13] if false
3273  1A000180           [12] jmp        5            ; to [18]
3277  1D400000           [13] getglobal  0   1        ; _T
327B  53000000           [14] getupval   1   0      
327F  0E400000           [15] gettable   0   0   1  
3283  53008000           [16] getupval   1   1      
3287  22400001           [17] call       0   2   1  
328B  1D800000           [18] getglobal  0   2        ; mMovie
328F  24C04000           [19] self       0   0   259  ; -1517569684
3293  22400001           [20] call       0   2   1  
3297  1E008000           [21] return     0   1      
                         * constants:
329B  04                 sizek (4)
329C  01                 const type 3
329D  65770E40           const [0]: (1074689893)
32A1  04                 const type 4
32A2  03                 string size (3)
32A3  5F5400             "_T\0"
                         const [1]: "_T"
32A6  04                 const type 4
32A7  07                 string size (7)
32A8  6D4D6F76696500     "mMovie\0"
                         const [2]: "mMovie"
32AF  01                 const type 3
32B0  6CB98BA5           const [3]: (-1517569684)
                         * functions:
32B4  00                 sizep (0)
                         * lines:
32B5  15                 sizelineinfo (21)
                         [pc] (line)
32B6  96                 [01] (-106)
32B7  01                 [02] (-106)
32B8  00                 [03] (-106)
32B9  00                 [04] (-106)
32BA  96                 [05] (-106)
32BB  01                 [06] (-106)
32BC  00                 [07] (-106)
32BD  00                 [08] (-106)
32BE  96                 [09] (-106)
32BF  01                 [10] (-106)
32C0  00                 [11] (-106)
32C1  00                 [12] (-106)
32C2  96                 [13] (-105)
32C3  01                 [14] (-105)
32C4  00                 [15] (-105)
32C5  00                 [16] (-105)
32C6  96                 [17] (-105)
32C7  01                 [18] (-102)
32C8  00                 [19] (-102)
32C9  00                 [20] (-102)
32CA  96                 [21] (-99)
                         * locals:
330A  00                 sizelocvars (0)
                         * upvalues:
330B  00                 sizeupvalues (0)
                         ** end of function **

                         * lines:
330C  1E                 sizelineinfo (30)
                         [pc] (line)
330D  8D                 [01] (-115)
330E  01                 [02] (-115)
330F  00                 [03] (-114)
3310  00                 [04] (-114)
3311  8D                 [05] (-114)
3312  01                 [06] (-114)
3313  00                 [07] (-114)
3314  00                 [08] (-112)
3315  8E                 [09] (-112)
3316  01                 [10] (-112)
3317  00                 [11] (-111)
3318  00                 [12] (-111)
3319  8E                 [13] (-108)
331A  01                 [14] (-108)
331B  00                 [15] (-108)
331C  00                 [16] (-108)
331D  8E                 [17] (-108)
331E  01                 [18] (-108)
331F  00                 [19] (-108)
3320  00                 [20] (-108)
3321  8E                 [21] (-108)
3322  01                 [22] (-108)
3323  00                 [23] (-108)
3324  00                 [24] (-108)
3325  8E                 [25] (-108)
3326  01                 [26] (-99)
3327  00                 [27] (-99)
3328  00                 [28] (-99)
3329  90                 [29] (-108)
332A  01                 [30] (-98)
                         * locals:
3385  00                 sizelocvars (0)
                         * upvalues:
3386  00                 sizeupvalues (0)
                         ** end of function **

                         
3387                     ** function [13] definition (level 2)
                         ** start of function **
3387  00                 string size (0)
                         source name: (none)
3389  03                 line defined (416)
338A  A3                 last line defined (419)
338B  03                 nups (0)
338C  00                 numparams (1)
338D  01                 is_vararg (0)
338E  00                 maxstacksize (2)
                         * code:
3390  05                 sizecode (5)
3391  5D000000           [1] getglobal  1   0        ; _T
3395  4C008080           [2] settable   1   257 0    ; "mTrigger"
3399  57008000           [3] loadbool   1   1   0    ; true
339D  5E000001           [4] return     1   2      
33A1  1E008000           [5] return     0   1      
                         * constants:
33A5  02                 sizek (2)
33A6  04                 const type 4
33A7  03                 string size (3)
33A8  5F5400             "_T\0"
                         const [0]: "_T"
33AB  04                 const type 4
33AC  09                 string size (9)
33AD  6D54726967676572+  "mTrigger"
33B5  00                 "\0"
                         const [1]: "mTrigger"
                         * functions:
33B6  00                 sizep (0)
                         * lines:
33B7  05                 sizelineinfo (5)
                         [pc] (line)
33B8  A1                 [1] (-95)
33B9  01                 [2] (-95)
33BA  00                 [3] (-94)
33BB  00                 [4] (-94)
33BC  A1                 [5] (-93)
                         * locals:
33CC  00                 sizelocvars (0)
                         * upvalues:
33CD  00                 sizeupvalues (0)
                         ** end of function **

                         
33CE                     ** function [14] definition (level 2)
                         ** start of function **
33CE  00                 string size (0)
                         source name: (none)
33D0  03                 line defined (421)
33D1  AE                 last line defined (430)
33D2  03                 nups (4)
33D3  04                 numparams (1)
33D4  01                 is_vararg (0)
33D5  00                 maxstacksize (7)
                         * code:
33D7  13                 sizecode (19)
33D8  53000000           [01] getupval   1   0      
33DC  4E00C000           [02] gettable   1   1   256  ; 630793108
33E0  9D400000           [03] getglobal  2   1        ; _G
33E4  8E804001           [04] gettable   2   2   258  ; "UISound_Select"
33E8  62400001           [05] call       1   2   1  
33EC  46008000           [06] loadnil    1   1      
33F0  93008000           [07] getupval   2   1      
33F4  D3000001           [08] getupval   3   2      
33F8  8EC00001           [09] gettable   2   2   3  
fail op	8
33FC  08000001           [10] setupval   0   2      
3400  D3008000           [11] getupval   3   1      
3404  13010001           [12] getupval   4   2      
3408  4E008101           [13] gettable   1   3   4  
340C  D3008001           [14] getupval   3   3      
3410  12018000           [15] move       4   1      
3414  52010001           [16] move       5   2      
3418  97010000           [17] loadbool   6   0   0    ; false
341C  E2400002           [18] call       3   4   1  
3420  1E008000           [19] return     0   1      
                         * constants:
3424  03                 sizek (3)
3425  01                 const type 3
3426  94239925           const [0]: (630793108)
342A  04                 const type 4
342B  03                 string size (3)
342C  5F4700             "_G\0"
                         const [1]: "_G"
342F  04                 const type 4
3430  0F                 string size (15)
3431  5549536F756E645F+  "UISound_"
3439  53656C65637400     "Select\0"
                         const [2]: "UISound_Select"
                         * functions:
3440  00                 sizep (0)
                         * lines:
3441  13                 sizelineinfo (19)
                         [pc] (line)
3442  A6                 [01] (-90)
3443  01                 [02] (-90)
3444  00                 [03] (-90)
3445  00                 [04] (-90)
3446  A6                 [05] (-90)
3447  01                 [06] (-88)
3448  00                 [07] (-87)
3449  00                 [08] (-87)
344A  A6                 [09] (-87)
344B  01                 [10] (-86)
344C  00                 [11] (-84)
344D  00                 [12] (-84)
344E  A6                 [13] (-84)
344F  01                 [14] (-83)
3450  00                 [15] (-83)
3451  00                 [16] (-83)
3452  A6                 [17] (-83)
3453  01                 [18] (-83)
3454  00                 [19] (-82)
                         * locals:
348E  00                 sizelocvars (0)
                         * upvalues:
348F  00                 sizeupvalues (0)
                         ** end of function **

                         
3490                     ** function [15] definition (level 2)
                         ** start of function **
3490  00                 string size (0)
                         source name: (none)
3492  03                 line defined (432)
3493  B2                 last line defined (434)
3494  03                 nups (1)
3495  01                 numparams (1)
3496  01                 is_vararg (0)
3497  00                 maxstacksize (3)
                         * code:
3499  04                 sizecode (4)
349A  53000000           [1] getupval   1   0      
349E  92000000           [2] move       2   0      
34A2  62400001           [3] call       1   2   1  
34A6  1E008000           [4] return     0   1      
                         * constants:
34AA  00                 sizek (0)
                         * functions:
34AB  00                 sizep (0)
                         * lines:
34AC  04                 sizelineinfo (4)
                         [pc] (line)
34AD  B1                 [1] (-79)
34AE  01                 [2] (-79)
34AF  00                 [3] (-79)
34B0  00                 [4] (-78)
                         * locals:
34BD  00                 sizelocvars (0)
                         * upvalues:
34BE  00                 sizeupvalues (0)
                         ** end of function **

                         
34BF                     ** function [16] definition (level 2)
                         ** start of function **
34BF  00                 string size (0)
                         source name: (none)
34C1  03                 line defined (436)
34C2  C3                 last line defined (451)
34C3  03                 nups (7)
34C4  07                 numparams (0)
34C5  00                 is_vararg (0)
34C6  00                 maxstacksize (4)
                         * code:
34C8  24                 sizecode (36)
34C9  1D000000           [01] getglobal  0   0        ; 1074689893
34CD  53000000           [02] getupval   1   0      
34D1  93008000           [03] getupval   2   1      
34D5  4E808000           [04] gettable   1   1   2  
34D9  22800001           [05] call       0   2   2  
34DD  18400000           [06] test       0       1    ; to [8] if false
34E1  1A800180           [07] jmp        7            ; to [15]
34E5  13000001           [08] getupval   0   2      
34E9  46008000           [09] loadnil    1   1      
34ED  93000000           [10] getupval   2   0      
34F1  D3008000           [11] getupval   3   1      
34F5  8EC00001           [12] gettable   2   2   3  
34F9  D7000000           [13] loadbool   3   0   0    ; false
34FD  22400002           [14] call       0   4   1  
3501  1D400000           [15] getglobal  0   1        ; _T
3505  0E804000           [16] gettable   0   0   258  ; -270549122
3509  5DC00000           [17] getglobal  1   3        ; mMovie
350D  86000001           [18] loadnil    2   2      
3511  22408001           [19] call       0   3   1  
3515  13008001           [20] getupval   0   3      
3519  18000000           [21] test       0       0    ; to [23] if true
351D  1A800280           [22] jmp        11           ; to [34]
3521  06000000           [23] loadnil    0   0      
fail op	8
3525  08008001           [24] setupval   0   3      
3529  19000100           [25] loadk      0   4        ; 0
fail op	8
352D  08000002           [26] setupval   0   4      
3531  13008002           [27] getupval   0   5      
3535  5D400100           [28] getglobal  1   5        ; 1289681407
3539  62008000           [29] call       1   1   0  
353D  22400000           [30] call       0   0   1  
3541  1D800100           [31] getglobal  0   6        ; gFlashMgr
3545  24C04100           [32] self       0   0   263  ; -991492797
3549  22400001           [33] call       0   2   1  
354D  13000003           [34] getupval   0   6      
3551  22408000           [35] call       0   1   1  
3555  1E008000           [36] return     0   1      
                         * constants:
3559  08                 sizek (8)
355A  01                 const type 3
355B  65770E40           const [0]: (1074689893)
355F  04                 const type 4
3560  03                 string size (3)
3561  5F5400             "_T\0"
                         const [1]: "_T"
3564  01                 const type 3
3565  7EBFDFEF           const [2]: (-270549122)
3569  04                 const type 4
356A  07                 string size (7)
356B  6D4D6F76696500     "mMovie\0"
                         const [3]: "mMovie"
3572  03                 const type 3
3573  000080BF           const [4]: (0)
3577  01                 const type 3
3578  FFF9DE4C           const [5]: (1289681407)
357C  04                 const type 4
357D  0A                 string size (10)
357E  67466C6173684D67+  "gFlashMg"
3586  7200               "r\0"
                         const [6]: "gFlashMgr"
3588  01                 const type 3
3589  4305E7C4           const [7]: (-991492797)
                         * functions:
358D  00                 sizep (0)
                         * lines:
358E  24                 sizelineinfo (36)
                         [pc] (line)
358F  B5                 [01] (-75)
3590  01                 [02] (-75)
3591  00                 [03] (-75)
3592  00                 [04] (-75)
3593  B5                 [05] (-75)
3594  01                 [06] (-75)
3595  00                 [07] (-75)
3596  00                 [08] (-74)
3597  B5                 [09] (-74)
3598  01                 [10] (-74)
3599  00                 [11] (-74)
359A  00                 [12] (-74)
359B  B5                 [13] (-74)
359C  01                 [14] (-74)
359D  00                 [15] (-71)
359E  00                 [16] (-71)
359F  B5                 [17] (-71)
35A0  01                 [18] (-71)
35A1  00                 [19] (-71)
35A2  00                 [20] (-70)
35A3  B5                 [21] (-70)
35A4  01                 [22] (-70)
35A5  00                 [23] (-69)
35A6  00                 [24] (-69)
35A7  B5                 [25] (-68)
35A8  01                 [26] (-68)
35A9  00                 [27] (-66)
35AA  00                 [28] (-66)
35AB  B6                 [29] (-66)
35AC  01                 [30] (-66)
35AD  00                 [31] (-65)
35AE  00                 [32] (-65)
35AF  B6                 [33] (-65)
35B0  01                 [34] (-62)
35B1  00                 [35] (-62)
35B2  00                 [36] (-61)
                         * locals:
361F  00                 sizelocvars (0)
                         * upvalues:
3620  00                 sizeupvalues (0)
                         ** end of function **

                         
3621                     ** function [17] definition (level 2)
                         ** start of function **
3621  00                 string size (0)
                         source name: (none)
3623  03                 line defined (453)
3624  CC                 last line defined (460)
3625  03                 nups (3)
3626  03                 numparams (0)
3627  00                 is_vararg (0)
3628  00                 maxstacksize (2)
                         * code:
362A  10                 sizecode (16)
362B  1D000000           [01] getglobal  0   0        ; 1074689893
362F  53000000           [02] getupval   1   0      
3633  22800001           [03] call       0   2   2  
3637  18400000           [04] test       0       1    ; to [6] if false
363B  1AC00080           [05] jmp        4            ; to [10]
363F  13000000           [06] getupval   0   0      
3643  0E404000           [07] gettable   0   0   257  ; "mFocusedMenuElement"
fail op	35
3647  23804000           [08] close      0  
364B  1A000080           [09] jmp        1            ; to [11]
364F  1E008000           [10] return     0   1      
3653  13000000           [11] getupval   0   0      
3657  0E404000           [12] gettable   0   0   257  ; "mFocusedMenuElement"
fail op	8
365B  08008000           [13] setupval   0   1      
365F  13000001           [14] getupval   0   2      
3663  22408000           [15] call       0   1   1  
3667  1E008000           [16] return     0   1      
                         * constants:
366B  03                 sizek (3)
366C  01                 const type 3
366D  65770E40           const [0]: (1074689893)
3671  04                 const type 4
3672  14                 string size (20)
3673  6D466F6375736564+  "mFocused"
367B  4D656E75456C656D+  "MenuElem"
3683  656E7400           "ent\0"
                         const [1]: "mFocusedMenuElement"
3687  00                 const type 0
                         const [2]: nil
                         * functions:
3688  00                 sizep (0)
                         * lines:
3689  10                 sizelineinfo (16)
                         [pc] (line)
368A  C6                 [01] (-58)
368B  01                 [02] (-58)
368C  00                 [03] (-58)
368D  00                 [04] (-58)
368E  C6                 [05] (-58)
368F  01                 [06] (-58)
3690  00                 [07] (-58)
3691  00                 [08] (-58)
3692  C6                 [09] (-58)
3693  01                 [10] (-57)
3694  00                 [11] (-54)
3695  00                 [12] (-54)
3696  C6                 [13] (-54)
3697  01                 [14] (-53)
3698  00                 [15] (-53)
3699  00                 [16] (-52)
                         * locals:
36CA  00                 sizelocvars (0)
                         * upvalues:
36CB  00                 sizeupvalues (0)
                         ** end of function **

                         
36CC                     ** function [18] definition (level 2)
                         ** start of function **
36CC  00                 string size (0)
                         source name: (none)
36CE  03                 line defined (462)
36CF  D5                 last line defined (469)
36D0  03                 nups (4)
36D1  04                 numparams (0)
36D2  00                 is_vararg (0)
36D3  00                 maxstacksize (6)
                         * code:
36D5  28                 sizecode (40)
36D6  0B000000           [01] newtable   0   0   0    ; array=0, hash=0
36DA  53000000           [02] getupval   1   0      
36DE  58000000           [03] test       1       0    ; to [5] if true
36E2  1A400480           [04] jmp        18           ; to [23]
36E6  5D000000           [05] getglobal  1   0        ; 1074689893
36EA  93008000           [06] getupval   2   1      
36EE  62800001           [07] call       1   2   2  
36F2  58400000           [08] test       1       1    ; to [10] if false
36F6  1A000380           [09] jmp        13           ; to [23]
36FA  53008000           [10] getupval   1   1      
36FE  4E40C000           [11] gettable   1   1   257  ; "mFocusedMenuElement"
fail op	35
3702  6380C000           [12] close      1  
3706  1A000280           [13] jmp        9            ; to [23]
370A  5DC00000           [14] getglobal  1   3        ; table
370E  4E00C100           [15] gettable   1   1   260  ; -431682403
3712  92000000           [16] move       2   0      
3716  CBC00000           [17] newtable   3   0   3    ; array=0, hash=3
371A  CC80C182           [18] settable   3   261 262  ; "Label" "/Lotus/Language/Menu/SelectImprint"
371E  13010001           [19] getupval   4   2      
3722  CC008183           [20] settable   3   263 4    ; "CallBack"
3726  CC404284           [21] settable   3   264 265  ; "CallOut" "MENU_SELECT"
372A  62408001           [22] call       1   3   1  
372E  5DC00000           [23] getglobal  1   3        ; table
3732  4E00C100           [24] gettable   1   1   260  ; -431682403
3736  92000000           [25] move       2   0      
373A  CBC00000           [26] newtable   3   0   3    ; array=0, hash=3
373E  CC80C282           [27] settable   3   261 266  ; "Label" "/Lotus/Language/Menu/Exit"
3742  13018001           [28] getupval   4   3      
3746  CC008183           [29] settable   3   263 4    ; "CallBack"
374A  CCC04284           [30] settable   3   264 267  ; "CallOut" "MENU_CANCEL"
374E  62408001           [31] call       1   3   1  
3752  5D000300           [32] getglobal  1   12       ; _T
3756  4E40C300           [33] gettable   1   1   269  ; -270549122
375A  9D800300           [34] getglobal  2   14       ; mMovie
375E  D2000000           [35] move       3   0      
3762  1DC10300           [36] getglobal  4   15       ; 1802065273
3766  59010400           [37] loadk      5   16       ; 0
376A  22010001           [38] call       4   2   0  
376E  62400000           [39] call       1   0   1  
3772  1E008000           [40] return     0   1      
                         * constants:
3776  11                 sizek (17)
3777  01                 const type 3
3778  65770E40           const [0]: (1074689893)
377C  04                 const type 4
377D  14                 string size (20)
377E  6D466F6375736564+  "mFocused"
3786  4D656E75456C656D+  "MenuElem"
378E  656E7400           "ent\0"
                         const [1]: "mFocusedMenuElement"
3792  00                 const type 0
                         const [2]: nil
3793  04                 const type 4
3794  06                 string size (6)
3795  7461626C6500       "table\0"
                         const [3]: "table"
379B  01                 const type 3
379C  9D0C45E6           const [4]: (-431682403)
37A0  04                 const type 4
37A1  06                 string size (6)
37A2  4C6162656C00       "Label\0"
                         const [5]: "Label"
37A8  04                 const type 4
37A9  23                 string size (35)
37AA  2F4C6F7475732F4C+  "/Lotus/L"
37B2  616E67756167652F+  "anguage/"
37BA  4D656E752F53656C+  "Menu/Sel"
37C2  656374496D707269+  "ectImpri"
37CA  6E7400             "nt\0"
                         const [6]: "/Lotus/Language/Menu/SelectImprint"
37CD  04                 const type 4
37CE  09                 string size (9)
37CF  43616C6C4261636B+  "CallBack"
37D7  00                 "\0"
                         const [7]: "CallBack"
37D8  04                 const type 4
37D9  08                 string size (8)
37DA  43616C6C4F757400   "CallOut\0"
                         const [8]: "CallOut"
37E2  04                 const type 4
37E3  0C                 string size (12)
37E4  4D454E555F53454C+  "MENU_SEL"
37EC  45435400           "ECT\0"
                         const [9]: "MENU_SELECT"
37F0  04                 const type 4
37F1  1A                 string size (26)
37F2  2F4C6F7475732F4C+  "/Lotus/L"
37FA  616E67756167652F+  "anguage/"
3802  4D656E752F457869+  "Menu/Exi"
380A  7400               "t\0"
                         const [10]: "/Lotus/Language/Menu/Exit"
380C  04                 const type 4
380D  0C                 string size (12)
380E  4D454E555F43414E+  "MENU_CAN"
3816  43454C00           "CEL\0"
                         const [11]: "MENU_CANCEL"
381A  04                 const type 4
381B  03                 string size (3)
381C  5F5400             "_T\0"
                         const [12]: "_T"
381F  01                 const type 3
3820  7EBFDFEF           const [13]: (-270549122)
3824  04                 const type 4
3825  07                 string size (7)
3826  6D4D6F76696500     "mMovie\0"
                         const [14]: "mMovie"
382D  01                 const type 3
382E  7955696B           const [15]: (1802065273)
3832  03                 const type 3
3833  0000803F           const [16]: (0)
                         * functions:
3837  00                 sizep (0)
                         * lines:
3838  28                 sizelineinfo (40)
                         [pc] (line)
3839  CF                 [01] (-49)
383A  01                 [02] (-48)
383B  00                 [03] (-48)
383C  00                 [04] (-48)
383D  D0                 [05] (-48)
383E  01                 [06] (-48)
383F  00                 [07] (-48)
3840  00                 [08] (-48)
3841  D0                 [09] (-48)
3842  01                 [10] (-48)
3843  00                 [11] (-48)
3844  00                 [12] (-48)
3845  D0                 [13] (-48)
3846  01                 [14] (-47)
3847  00                 [15] (-47)
3848  00                 [16] (-47)
3849  D0                 [17] (-47)
384A  01                 [18] (-47)
384B  00                 [19] (-47)
384C  00                 [20] (-47)
384D  D0                 [21] (-47)
384E  01                 [22] (-47)
384F  00                 [23] (-45)
3850  00                 [24] (-45)
3851  D0                 [25] (-45)
3852  01                 [26] (-45)
3853  00                 [27] (-45)
3854  00                 [28] (-45)
3855  D0                 [29] (-45)
3856  01                 [30] (-45)
3857  00                 [31] (-45)
3858  00                 [32] (-44)
3859  D0                 [33] (-44)
385A  01                 [34] (-44)
385B  00                 [35] (-44)
385C  00                 [36] (-44)
385D  D0                 [37] (-44)
385E  01                 [38] (-44)
385F  00                 [39] (-44)
3860  00                 [40] (-43)
                         * locals:
38D9  00                 sizelocvars (0)
                         * upvalues:
38DA  00                 sizeupvalues (0)
                         ** end of function **

                         
38DB                     ** function [19] definition (level 2)
                         ** start of function **
38DB  00                 string size (0)
                         source name: (none)
38DD  03                 line defined (471)
38DE  DB                 last line defined (475)
38DF  03                 nups (1)
38E0  01                 numparams (1)
38E1  01                 is_vararg (0)
38E2  00                 maxstacksize (5)
                         * code:
38E4  0C                 sizecode (12)
38E5  5D000000           [01] getglobal  1   0        ; 1074689893
38E9  93000000           [02] getupval   2   0      
38ED  62800001           [03] call       1   2   2  
38F1  58400000           [04] test       1       1    ; to [6] if false
38F5  1A400180           [05] jmp        6            ; to [12]
38F9  53000000           [06] getupval   1   0      
38FD  6440C000           [07] self       1   1   257  ; -1967297336
3901  DD800000           [08] getglobal  3   2        ; -174740002
3905  12010000           [09] move       4   0      
3909  E2000001           [10] call       3   2   0  
390D  62400000           [11] call       1   0   1  
3911  1E008000           [12] return     0   1      
                         * constants:
3915  03                 sizek (3)
3916  01                 const type 3
3917  65770E40           const [0]: (1074689893)
391B  01                 const type 3
391C  C86CBD8A           const [1]: (-1967297336)
3920  01                 const type 3
3921  DEAD95F5           const [2]: (-174740002)
                         * functions:
3925  00                 sizep (0)
                         * lines:
3926  0C                 sizelineinfo (12)
                         [pc] (line)
3927  D8                 [01] (-40)
3928  01                 [02] (-40)
3929  00                 [03] (-40)
392A  00                 [04] (-40)
392B  D8                 [05] (-40)
392C  01                 [06] (-39)
392D  00                 [07] (-39)
392E  00                 [08] (-39)
392F  D8                 [09] (-39)
3930  01                 [10] (-39)
3931  00                 [11] (-39)
3932  00                 [12] (-37)
                         * locals:
3957  00                 sizelocvars (0)
                         * upvalues:
3958  00                 sizeupvalues (0)
                         ** end of function **

                         
3959                     ** function [20] definition (level 2)
                         ** start of function **
3959  00                 string size (0)
                         source name: (none)
395B  03                 line defined (477)
395C  E1                 last line defined (481)
395D  03                 nups (1)
395E  01                 numparams (1)
395F  01                 is_vararg (0)
3960  00                 maxstacksize (5)
                         * code:
3962  0C                 sizecode (12)
3963  5D000000           [01] getglobal  1   0        ; 1074689893
3967  93000000           [02] getupval   2   0      
396B  62800001           [03] call       1   2   2  
396F  58400000           [04] test       1       1    ; to [6] if false
3973  1A400180           [05] jmp        6            ; to [12]
3977  53000000           [06] getupval   1   0      
397B  6440C000           [07] self       1   1   257  ; 561426718
397F  DD800000           [08] getglobal  3   2        ; -174740002
3983  12010000           [09] move       4   0      
3987  E2000001           [10] call       3   2   0  
398B  62400000           [11] call       1   0   1  
398F  1E008000           [12] return     0   1      
                         * constants:
3993  03                 sizek (3)
3994  01                 const type 3
3995  65770E40           const [0]: (1074689893)
3999  01                 const type 3
399A  1EB17621           const [1]: (561426718)
399E  01                 const type 3
399F  DEAD95F5           const [2]: (-174740002)
                         * functions:
39A3  00                 sizep (0)
                         * lines:
39A4  0C                 sizelineinfo (12)
                         [pc] (line)
39A5  DE                 [01] (-34)
39A6  01                 [02] (-34)
39A7  00                 [03] (-34)
39A8  00                 [04] (-34)
39A9  DE                 [05] (-34)
39AA  01                 [06] (-33)
39AB  00                 [07] (-33)
39AC  00                 [08] (-33)
39AD  DE                 [09] (-33)
39AE  01                 [10] (-33)
39AF  00                 [11] (-33)
39B0  00                 [12] (-31)
                         * locals:
39D5  00                 sizelocvars (0)
                         * upvalues:
39D6  00                 sizeupvalues (0)
                         ** end of function **

                         
39D7                     ** function [21] definition (level 2)
                         ** start of function **
39D7  00                 string size (0)
                         source name: (none)
39D9  03                 line defined (483)
39DA  E7                 last line defined (487)
39DB  03                 nups (2)
39DC  02                 numparams (1)
39DD  01                 is_vararg (0)
39DE  00                 maxstacksize (5)
                         * code:
39E0  0F                 sizecode (15)
39E1  53000000           [01] getupval   1   0      
39E5  58400000           [02] test       1       1    ; to [4] if false
39E9  1A800280           [03] jmp        11           ; to [15]
39ED  5D000000           [04] getglobal  1   0        ; 1074689893
39F1  93008000           [05] getupval   2   1      
39F5  62800001           [06] call       1   2   2  
39F9  58400000           [07] test       1       1    ; to [9] if false
39FD  1A400180           [08] jmp        6            ; to [15]
3A01  53008000           [09] getupval   1   1      
3A05  6440C000           [10] self       1   1   257  ; 1002639746
3A09  DD800000           [11] getglobal  3   2        ; -174740002
3A0D  12010000           [12] move       4   0      
3A11  E2000001           [13] call       3   2   0  
3A15  62400000           [14] call       1   0   1  
3A19  1E008000           [15] return     0   1      
                         * constants:
3A1D  03                 sizek (3)
3A1E  01                 const type 3
3A1F  65770E40           const [0]: (1074689893)
3A23  01                 const type 3
3A24  8211C33B           const [1]: (1002639746)
3A28  01                 const type 3
3A29  DEAD95F5           const [2]: (-174740002)
                         * functions:
3A2D  00                 sizep (0)
                         * lines:
3A2E  0F                 sizelineinfo (15)
                         [pc] (line)
3A2F  E4                 [01] (-28)
3A30  01                 [02] (-28)
3A31  00                 [03] (-28)
3A32  00                 [04] (-28)
3A33  E4                 [05] (-28)
3A34  01                 [06] (-28)
3A35  00                 [07] (-28)
3A36  00                 [08] (-28)
3A37  E4                 [09] (-27)
3A38  01                 [10] (-27)
3A39  00                 [11] (-27)
3A3A  00                 [12] (-27)
3A3B  E4                 [13] (-27)
3A3C  01                 [14] (-27)
3A3D  00                 [15] (-25)
                         * locals:
3A6B  00                 sizelocvars (0)
                         * upvalues:
3A6C  00                 sizeupvalues (0)
                         ** end of function **

                         
3A6D                     ** function [22] definition (level 2)
                         ** start of function **
3A6D  00                 string size (0)
                         source name: (none)
3A6F  03                 line defined (489)
3A70  8A                 last line defined (522)
3A71  04                 nups (9)
3A72  09                 numparams (0)
3A73  00                 is_vararg (0)
3A74  00                 maxstacksize (3)
                         * code:
3A76  54                 sizecode (84)
3A77  13000000           [01] getupval   0   0      
3A7B  18000000           [02] test       0       0    ; to [4] if true
3A7F  1A000180           [03] jmp        5            ; to [9]
3A83  1D000000           [04] getglobal  0   0        ; 1074689893
3A87  5D400000           [05] getglobal  1   1        ; mMovie
3A8B  22800001           [06] call       0   2   2  
3A8F  18000000           [07] test       0       0    ; to [9] if true
3A93  1A000080           [08] jmp        1            ; to [10]
3A97  1E008000           [09] return     0   1      
3A9B  1D000000           [10] getglobal  0   0        ; 1074689893
3A9F  53008000           [11] getupval   1   1      
3AA3  22800001           [12] call       0   2   2  
3AA7  18400000           [13] test       0       1    ; to [15] if false
3AAB  1A000180           [14] jmp        5            ; to [20]
3AAF  13008000           [15] getupval   0   1      
3AB3  24804000           [16] self       0   0   258  ; -1938777623
3AB7  9DC00000           [17] getglobal  2   3        ; 1661359502
3ABB  A2008000           [18] call       2   1   0  
3ABF  22400000           [19] call       0   0   1  
3AC3  1D400000           [20] getglobal  0   1        ; mMovie
3AC7  24004100           [21] self       0   0   260  ; 135097114
3ACB  9DC00000           [22] getglobal  2   3        ; 1661359502
3ACF  A2008000           [23] call       2   1   0  
3AD3  22400000           [24] call       0   0   1  
3AD7  1D000000           [25] getglobal  0   0        ; 1074689893
3ADB  53000001           [26] getupval   1   2      
3ADF  22800001           [27] call       0   2   2  
3AE3  18400000           [28] test       0       1    ; to [30] if false
3AE7  1A800080           [29] jmp        3            ; to [33]
3AEB  13000001           [30] getupval   0   2      
3AEF  24804000           [31] self       0   0   258  ; -1938777623
3AF3  22400001           [32] call       0   2   1  
3AF7  1D000000           [33] getglobal  0   0        ; 1074689893
3AFB  53008001           [34] getupval   1   3      
3AFF  4E40C100           [35] gettable   1   1   261  ; "mScrollBar"
3B03  22800001           [36] call       0   2   2  
3B07  18400000           [37] test       0       1    ; to [39] if false
3B0B  1A400180           [38] jmp        6            ; to [45]
3B0F  13008001           [39] getupval   0   3      
3B13  0E404100           [40] gettable   0   0   261  ; "mScrollBar"
3B17  24804000           [41] self       0   0   258  ; -1938777623
3B1B  9DC00000           [42] getglobal  2   3        ; 1661359502
3B1F  A2008000           [43] call       2   1   0  
3B23  22400000           [44] call       0   0   1  
3B27  1D000000           [45] getglobal  0   0        ; 1074689893
3B2B  53000002           [46] getupval   1   4      
3B2F  4E80C100           [47] gettable   1   1   262  ; "Loader"
3B33  22800001           [48] call       0   2   2  
3B37  18400000           [49] test       0       1    ; to [51] if false
3B3B  1A000780           [50] jmp        29           ; to [80]
3B3F  13000002           [51] getupval   0   4      
3B43  0E804100           [52] gettable   0   0   262  ; "Loader"
3B47  24C04100           [53] self       0   0   263  ; -1344420604
3B4B  22800001           [54] call       0   2   2  
3B4F  18000000           [55] test       0       0    ; to [57] if true
3B53  1A800580           [56] jmp        23           ; to [80]
3B57  13000002           [57] getupval   0   4      
3B5B  0C004283           [58] settable   0   262 264  ; "Loader" nil
3B5F  13000002           [59] getupval   0   4      
3B63  0E404200           [60] gettable   0   0   265  ; "Pass"
fail op	35
3B67  23804200           [61] close      0  
3B6B  1A000180           [62] jmp        5            ; to [68]
3B6F  13000002           [63] getupval   0   4      
3B73  0CC0C284           [64] settable   0   265 267  ; "Pass" 0
3B77  13008002           [65] getupval   0   5      
3B7B  22408000           [66] call       0   1   1  
3B7F  1AC00280           [67] jmp        12           ; to [80]
3B83  13000003           [68] getupval   0   6      
3B87  22408000           [69] call       0   1   1  
3B8B  17000000           [70] loadbool   0   0   0    ; false
fail op	8
3B8F  08008003           [71] setupval   0   7      
3B93  13000001           [72] getupval   0   2      
3B97  24004300           [73] self       0   0   268  ; -492641364
3B9B  97000000           [74] loadbool   2   0   0    ; false
3B9F  22408001           [75] call       0   3   1  
3BA3  13008001           [76] getupval   0   3      
3BA7  24404300           [77] self       0   0   269  ; 1865581653
3BAB  99800200           [78] loadk      2   10       ; 0
3BAF  22408001           [79] call       0   3   1  
3BB3  13000004           [80] getupval   0   8      
3BB7  5D800300           [81] getglobal  1   14       ; 1289681407
3BBB  62008000           [82] call       1   1   0  
3BBF  22400000           [83] call       0   0   1  
3BC3  1E008000           [84] return     0   1      
                         * constants:
3BC7  0F                 sizek (15)
3BC8  01                 const type 3
3BC9  65770E40           const [0]: (1074689893)
3BCD  04                 const type 4
3BCE  07                 string size (7)
3BCF  6D4D6F76696500     "mMovie\0"
                         const [1]: "mMovie"
3BD6  01                 const type 3
3BD7  E999708C           const [2]: (-1938777623)
3BDB  01                 const type 3
3BDC  8E550663           const [3]: (1661359502)
3BE0  01                 const type 3
3BE1  1A6B0D08           const [4]: (135097114)
3BE5  04                 const type 4
3BE6  0B                 string size (11)
3BE7  6D5363726F6C6C42+  "mScrollB"
3BEF  617200             "ar\0"
                         const [5]: "mScrollBar"
3BF2  04                 const type 4
3BF3  07                 string size (7)
3BF4  4C6F6164657200     "Loader\0"
                         const [6]: "Loader"
3BFB  01                 const type 3
3BFC  04C5DDAF           const [7]: (-1344420604)
3C00  00                 const type 0
                         const [8]: nil
3C01  04                 const type 4
3C02  05                 string size (5)
3C03  5061737300         "Pass\0"
                         const [9]: "Pass"
3C08  03                 const type 3
3C09  0000803F           const [10]: (0)
3C0D  03                 const type 3
3C0E  00000040           const [11]: (0)
3C12  01                 const type 3
3C13  ACE3A2E2           const [12]: (-492641364)
3C17  01                 const type 3
3C18  5584326F           const [13]: (1865581653)
3C1C  01                 const type 3
3C1D  FFF9DE4C           const [14]: (1289681407)
                         * functions:
3C21  00                 sizep (0)
                         * lines:
3C22  54                 sizelineinfo (84)
                         [pc] (line)
3C23  EA                 [01] (-22)
3C24  01                 [02] (-22)
3C25  00                 [03] (-22)
3C26  00                 [04] (-22)
3C27  EA                 [05] (-22)
3C28  01                 [06] (-22)
3C29  00                 [07] (-22)
3C2A  00                 [08] (-22)
3C2B  EA                 [09] (-21)
3C2C  01                 [10] (-18)
3C2D  00                 [11] (-18)
3C2E  00                 [12] (-18)
3C2F  EA                 [13] (-18)
3C30  01                 [14] (-18)
3C31  00                 [15] (-17)
3C32  00                 [16] (-17)
3C33  EA                 [17] (-17)
3C34  01                 [18] (-17)
3C35  00                 [19] (-17)
3C36  00                 [20] (-14)
3C37  EA                 [21] (-14)
3C38  01                 [22] (-14)
3C39  00                 [23] (-14)
3C3A  00                 [24] (-14)
3C3B  EA                 [25] (-12)
3C3C  01                 [26] (-12)
3C3D  00                 [27] (-12)
3C3E  00                 [28] (-12)
3C3F  EA                 [29] (-12)
3C40  01                 [30] (-11)
3C41  00                 [31] (-11)
3C42  00                 [32] (-11)
3C43  EB                 [33] (-8)
3C44  01                 [34] (-8)
3C45  00                 [35] (-8)
3C46  00                 [36] (-8)
3C47  EE                 [37] (-8)
3C48  01                 [38] (-8)
3C49  00                 [39] (-7)
3C4A  00                 [40] (-7)
3C4B  EE                 [41] (-7)
3C4C  01                 [42] (-7)
3C4D  00                 [43] (-7)
3C4E  00                 [44] (-7)
3C4F  EE                 [45] (-4)
3C50  01                 [46] (-4)
3C51  00                 [47] (-4)
3C52  00                 [48] (-4)
3C53  EE                 [49] (-4)
3C54  01                 [50] (-4)
3C55  00                 [51] (-4)
3C56  00                 [52] (-4)
3C57  EE                 [53] (-4)
3C58  01                 [54] (-4)
3C59  00                 [55] (-4)
3C5A  00                 [56] (-4)
3C5B  EF                 [57] (-3)
3C5C  01                 [58] (-3)
3C5D  00                 [59] (-2)
3C5E  00                 [60] (-2)
3C5F  EF                 [61] (-2)
3C60  01                 [62] (-2)
3C61  00                 [63] (-1)
3C62  00                 [64] (-1)
3C63  EF                 [65] (0)
3C64  01                 [66] (0)
3C65  00                 [67] (0)
3C66  00                 [68] (2)
3C67  EF                 [69] (2)
3C68  01                 [70] (3)
3C69  00                 [71] (3)
3C6A  00                 [72] (4)
3C6B  EF                 [73] (4)
3C6C  01                 [74] (4)
3C6D  00                 [75] (4)
3C6E  00                 [76] (5)
3C6F  F2                 [77] (5)
3C70  01                 [78] (5)
3C71  00                 [79] (5)
3C72  00                 [80] (9)
3C73  F2                 [81] (9)
3C74  01                 [82] (9)
3C75  00                 [83] (9)
3C76  00                 [84] (10)
                         * locals:
3D73  00                 sizelocvars (0)
                         * upvalues:
3D74  00                 sizeupvalues (0)
                         ** end of function **

                         
3D75                     ** function [23] definition (level 2)
                         ** start of function **
3D75  00                 string size (0)
                         source name: (none)
3D77  04                 line defined (524)
3D78  A1                 last line defined (673)
3D79  05                 nups (8)
3D7A  08                 numparams (0)
3D7B  00                 is_vararg (0)
3D7C  00                 maxstacksize (7)
                         * code:
3D7E  62                 sizecode (98)
3D7F  1D000000           [01] getglobal  0   0        ; 849075268
3D83  59400000           [02] loadk      1   1        ; "Lotus.Interface.Components.CategorizedGrid"
3D87  22800001           [03] call       0   2   2  
3D8B  4E804000           [04] gettable   1   0   258  ; -1521463585
3D8F  9DC00000           [05] getglobal  2   3        ; mMovie
3D93  D9000100           [06] loadk      3   4        ; "ImprintPanel.Item1"
3D97  19410100           [07] loadk      4   5        ; 0
3D9B  59810100           [08] loadk      5   6        ; 0
3D9F  62808002           [09] call       1   5   2  
fail op	8
3DA3  48000000           [10] setupval   1   0      
3DA7  53000000           [11] getupval   1   0      
3DAB  64C0C100           [12] self       1   1   263  ; 236168549
3DAF  D9000200           [13] loadk      3   8        ; "MenuItemSelected"
3DB3  19410200           [14] loadk      4   9        ; "MenuItemFocused"
3DB7  59810200           [15] loadk      5   10       ; "MenuItemUnfocused"
3DBB  99C10200           [16] loadk      6   11       ; "MenuItemPressed"
3DBF  62400003           [17] call       1   6   1  
3DC3  53000000           [18] getupval   1   0      
3DC7  4C404386           [19] settable   1   268 269  ; "mShowLabels" 1
3DCB  53000000           [20] getupval   1   0      
3DCF  4CC04387           [21] settable   1   270 271  ; "mSelectedScale" 0
3DD3  53000000           [22] getupval   1   0      
3DD7  4C404488           [23] settable   1   272 273  ; "mScrollBarHorizontalOffset" nil
3DDB  53000000           [24] getupval   1   0      
3DDF  4CC04489           [25] settable   1   274 275  ; "ElementDimBuffer" 0
3DE3  53000000           [26] getupval   1   0      
3DE7  4C40458A           [27] settable   1   276 277  ; "ElementWidth" 0
3DEB  53000000           [28] getupval   1   0      
3DEF  4C40458B           [29] settable   1   278 277  ; "ElementHeight" 0
3DF3  53000000           [30] getupval   1   0      
3DF7  4C00C68B           [31] settable   1   279 280  ; "Width" 0
3DFB  53000000           [32] getupval   1   0      
3DFF  4C80C68C           [33] settable   1   281 282  ; "Height" 0
3E03  53008000           [34] getupval   1   1      
3E07  4EC0C600           [35] gettable   1   1   283  ; -1001113320
3E0B  9DC00000           [36] getglobal  2   3        ; mMovie
3E0F  D3000000           [37] getupval   3   0      
3E13  62408001           [38] call       1   3   1  
3E17  53000000           [39] getupval   1   0      
3E1B  6400C700           [40] self       1   1   284  ; 1035345719
3E1F  D9400700           [41] loadk      3   29       ; "ImprintPanel.ScrollBar"
3E23  19810700           [42] loadk      4   30       ; 0
3E27  62400002           [43] call       1   4   1  
3E2B  53000000           [44] getupval   1   0      
3E2F  64C0C700           [45] self       1   1   287  ; -104757962
3E33  62400001           [46] call       1   2   1  
3E37  53000000           [47] getupval   1   0      
3E3B  4C404390           [48] settable   1   288 269  ; "mScrollAlwaysVisible" 1
3E3F  53000000           [49] getupval   1   0      
3E43  4C80C890           [50] settable   1   289 290  ; "mWrapAroundNavigation" 0
3E47  53000000           [51] getupval   1   0      
3E4B  9D000900           [52] getglobal  2   36       ; visibleRangeRectangleMaterial
3E4F  4C808091           [53] settable   1   291 2    ; "RectangleVisibleRangeMaterial"
3E53  53000000           [54] getupval   1   0      
3E57  9D800900           [55] getglobal  2   38       ; visibleRangeMaterial
3E5B  4C808092           [56] settable   1   293 2    ; "VisibleRangeMaterial"
3E5F  53000000           [57] getupval   1   0      
3E63  9D000A00           [58] getglobal  2   40       ; visibleRangeTextMaterial
3E67  4C808093           [59] settable   1   295 2    ; "TextVisibleRangeMaterial"
3E6B  53000000           [60] getupval   1   0      
3E6F  A5000000           [61] closure    2   0      
3E73  13000001           [62] getupval   0   2      
3E77  4C808094           [63] settable   1   297 2    ; "AdditionalFilterFunction"
3E7B  53000000           [64] getupval   1   0      
3E7F  A5400000           [65] closure    2   1      
3E83  13008000           [66] getupval   0   1      
3E87  13000000           [67] getupval   0   0      
3E8B  4C800095           [68] settable   1   298 2    ; "mClipCreatedCallback"
3E8F  53000000           [69] getupval   1   0      
3E93  A5800000           [70] closure    2   2      
3E97  13000000           [71] getupval   0   0      
3E9B  13008000           [72] getupval   0   1      
3E9F  4C808095           [73] settable   1   299 2    ; "mElementDrawCallback"
3EA3  53000000           [74] getupval   1   0      
3EA7  A5C00000           [75] closure    2   3      
3EAB  13008001           [76] getupval   0   3      
3EAF  13000000           [77] getupval   0   0      
3EB3  13008000           [78] getupval   0   1      
3EB7  4C800096           [79] settable   1   300 2    ; "mOnFocusedCallback"
3EBB  53000000           [80] getupval   1   0      
3EBF  A5000100           [81] closure    2   4      
3EC3  13000000           [82] getupval   0   0      
3EC7  13008000           [83] getupval   0   1      
3ECB  4C808096           [84] settable   1   301 2    ; "mOnUnfocusedCallback"
3ECF  53000000           [85] getupval   1   0      
3ED3  A5400100           [86] closure    2   5      
3ED7  13000000           [87] getupval   0   0      
3EDB  13000002           [88] getupval   0   4      
3EDF  13008002           [89] getupval   0   5      
3EE3  13000003           [90] getupval   0   6      
3EE7  13008003           [91] getupval   0   7      
3EEB  13008001           [92] getupval   0   3      
3EEF  4C800097           [93] settable   1   302 2    ; "mOnSelectedCallback"
3EF3  53000000           [94] getupval   1   0      
3EF7  A5800100           [95] closure    2   6      
3EFB  13008001           [96] getupval   0   3      
3EFF  4C808097           [97] settable   1   303 2    ; "mOnPressedCallback"
3F03  1E008000           [98] return     0   1      
                         * constants:
3F07  30                 sizek (48)
3F08  01                 const type 3
3F09  44DC9B32           const [0]: (849075268)
3F0D  04                 const type 4
3F0E  2B                 string size (43)
3F0F  4C6F7475732E496E+  "Lotus.In"
3F17  746572666163652E+  "terface."
3F1F  436F6D706F6E656E+  "Componen"
3F27  74732E4361746567+  "ts.Categ"
3F2F  6F72697A65644772+  "orizedGr"
3F37  696400             "id\0"
                         const [1]: "Lotus.Interface.Components.CategorizedGrid"
3F3A  01                 const type 3
3F3B  DF4E50A5           const [2]: (-1521463585)
3F3F  04                 const type 4
3F40  07                 string size (7)
3F41  6D4D6F76696500     "mMovie\0"
                         const [3]: "mMovie"
3F48  04                 const type 4
3F49  13                 string size (19)
3F4A  496D7072696E7450+  "ImprintP"
3F52  616E656C2E497465+  "anel.Ite"
3F5A  6D3100             "m1\0"
                         const [4]: "ImprintPanel.Item1"
3F5D  03                 const type 3
3F5E  0000803F           const [5]: (0)
3F62  03                 const type 3
3F63  0000A040           const [6]: (0)
3F67  01                 const type 3
3F68  65A5130E           const [7]: (236168549)
3F6C  04                 const type 4
3F6D  11                 string size (17)
3F6E  4D656E754974656D+  "MenuItem"
3F76  53656C6563746564+  "Selected"
3F7E  00                 "\0"
                         const [8]: "MenuItemSelected"
3F7F  04                 const type 4
3F80  10                 string size (16)
3F81  4D656E754974656D+  "MenuItem"
3F89  466F637573656400   "Focused\0"
                         const [9]: "MenuItemFocused"
3F91  04                 const type 4
3F92  12                 string size (18)
3F93  4D656E754974656D+  "MenuItem"
3F9B  556E666F63757365+  "Unfocuse"
3FA3  6400               "d\0"
                         const [10]: "MenuItemUnfocused"
3FA5  04                 const type 4
3FA6  10                 string size (16)
3FA7  4D656E754974656D+  "MenuItem"
3FAF  5072657373656400   "Pressed\0"
                         const [11]: "MenuItemPressed"
3FB7  04                 const type 4
3FB8  0C                 string size (12)
3FB9  6D53686F774C6162+  "mShowLab"
3FC1  656C7300           "els\0"
                         const [12]: "mShowLabels"
3FC5  01                 const type 3
3FC6  01000000           const [13]: (1)
3FCA  04                 const type 4
3FCB  0F                 string size (15)
3FCC  6D53656C65637465+  "mSelecte"
3FD4  645363616C6500     "dScale\0"
                         const [14]: "mSelectedScale"
3FDB  03                 const type 3
3FDC  0000C842           const [15]: (0)
3FE0  04                 const type 4
3FE1  1B                 string size (27)
3FE2  6D5363726F6C6C42+  "mScrollB"
3FEA  6172486F72697A6F+  "arHorizo"
3FF2  6E74616C4F666673+  "ntalOffs"
3FFA  657400             "et\0"
                         const [16]: "mScrollBarHorizontalOffset"
3FFD  00                 const type 0
                         const [17]: nil
3FFE  04                 const type 4
3FFF  11                 string size (17)
4000  456C656D656E7444+  "ElementD"
4008  696D427566666572+  "imBuffer"
4010  00                 "\0"
                         const [18]: "ElementDimBuffer"
4011  03                 const type 3
4012  00002041           const [19]: (0)
4016  04                 const type 4
4017  0D                 string size (13)
4018  456C656D656E7457+  "ElementW"
4020  6964746800         "idth\0"
                         const [20]: "ElementWidth"
4025  03                 const type 3
4026  00002043           const [21]: (0)
402A  04                 const type 4
402B  0E                 string size (14)
402C  456C656D656E7448+  "ElementH"
4034  656967687400       "eight\0"
                         const [22]: "ElementHeight"
403A  04                 const type 4
403B  06                 string size (6)
403C  576964746800       "Width\0"
                         const [23]: "Width"
4042  03                 const type 3
4043  00004843           const [24]: (0)
4047  04                 const type 4
4048  07                 string size (7)
4049  48656967687400     "Height\0"
                         const [25]: "Height"
4050  03                 const type 3
4051  00004844           const [26]: (0)
4055  01                 const type 3
4056  183954C4           const [27]: (-1001113320)
405A  01                 const type 3
405B  371FB63D           const [28]: (1035345719)
405F  04                 const type 4
4060  17                 string size (23)
4061  496D7072696E7450+  "ImprintP"
4069  616E656C2E536372+  "anel.Scr"
4071  6F6C6C42617200     "ollBar\0"
                         const [29]: "ImprintPanel.ScrollBar"
4078  03                 const type 3
4079  000020C1           const [30]: (0)
407D  01                 const type 3
407E  3685C1F9           const [31]: (-104757962)
4082  04                 const type 4
4083  15                 string size (21)
4084  6D5363726F6C6C41+  "mScrollA"
408C  6C77617973566973+  "lwaysVis"
4094  69626C6500         "ible\0"
                         const [32]: "mScrollAlwaysVisible"
4099  04                 const type 4
409A  16                 string size (22)
409B  6D5772617041726F+  "mWrapAro"
40A3  756E644E61766967+  "undNavig"
40AB  6174696F6E00       "ation\0"
                         const [33]: "mWrapAroundNavigation"
40B1  01                 const type 3
40B2  00000000           const [34]: (0)
40B6  04                 const type 4
40B7  1E                 string size (30)
40B8  52656374616E676C+  "Rectangl"
40C0  6556697369626C65+  "eVisible"
40C8  52616E67654D6174+  "RangeMat"
40D0  657269616C00       "erial\0"
                         const [35]: "RectangleVisibleRangeMaterial"
40D6  04                 const type 4
40D7  1E                 string size (30)
40D8  76697369626C6552+  "visibleR"
40E0  616E676552656374+  "angeRect"
40E8  616E676C654D6174+  "angleMat"
40F0  657269616C00       "erial\0"
                         const [36]: "visibleRangeRectangleMaterial"
40F6  04                 const type 4
40F7  15                 string size (21)
40F8  56697369626C6552+  "VisibleR"
4100  616E67654D617465+  "angeMate"
4108  7269616C00         "rial\0"
                         const [37]: "VisibleRangeMaterial"
410D  04                 const type 4
410E  15                 string size (21)
410F  76697369626C6552+  "visibleR"
4117  616E67654D617465+  "angeMate"
411F  7269616C00         "rial\0"
                         const [38]: "visibleRangeMaterial"
4124  04                 const type 4
4125  19                 string size (25)
4126  5465787456697369+  "TextVisi"
412E  626C6552616E6765+  "bleRange"
4136  4D6174657269616C+  "Material"
413E  00                 "\0"
                         const [39]: "TextVisibleRangeMaterial"
413F  04                 const type 4
4140  19                 string size (25)
4141  76697369626C6552+  "visibleR"
4149  616E676554657874+  "angeText"
4151  4D6174657269616C+  "Material"
4159  00                 "\0"
                         const [40]: "visibleRangeTextMaterial"
415A  04                 const type 4
415B  19                 string size (25)
415C  4164646974696F6E+  "Addition"
4164  616C46696C746572+  "alFilter"
416C  46756E6374696F6E+  "Function"
4174  00                 "\0"
                         const [41]: "AdditionalFilterFunction"
4175  04                 const type 4
4176  15                 string size (21)
4177  6D436C6970437265+  "mClipCre"
417F  6174656443616C6C+  "atedCall"
4187  6261636B00         "back\0"
                         const [42]: "mClipCreatedCallback"
418C  04                 const type 4
418D  15                 string size (21)
418E  6D456C656D656E74+  "mElement"
4196  4472617743616C6C+  "DrawCall"
419E  6261636B00         "back\0"
                         const [43]: "mElementDrawCallback"
41A3  04                 const type 4
41A4  13                 string size (19)
41A5  6D4F6E466F637573+  "mOnFocus"
41AD  656443616C6C6261+  "edCallba"
41B5  636B00             "ck\0"
                         const [44]: "mOnFocusedCallback"
41B8  04                 const type 4
41B9  15                 string size (21)
41BA  6D4F6E556E666F63+  "mOnUnfoc"
41C2  7573656443616C6C+  "usedCall"
41CA  6261636B00         "back\0"
                         const [45]: "mOnUnfocusedCallback"
41CF  04                 const type 4
41D0  14                 string size (20)
41D1  6D4F6E53656C6563+  "mOnSelec"
41D9  74656443616C6C62+  "tedCallb"
41E1  61636B00           "ack\0"
                         const [46]: "mOnSelectedCallback"
41E5  04                 const type 4
41E6  13                 string size (19)
41E7  6D4F6E5072657373+  "mOnPress"
41EF  656443616C6C6261+  "edCallba"
41F7  636B00             "ck\0"
                         const [47]: "mOnPressedCallback"
                         * functions:
41FA  07                 sizep (7)
                         
41FB                     ** function [0] definition (level 3)
                         ** start of function **
41FB  00                 string size (0)
                         source name: (none)
41FD  04                 line defined (545)
41FE  AC                 last line defined (556)
41FF  04                 nups (1)
4200  01                 numparams (1)
4201  01                 is_vararg (0)
4202  00                 maxstacksize (6)
                         * code:
4204  25                 sizecode (37)
4205  4E004000           [01] gettable   1   0   256  ; "Filler"
4209  58000000           [02] test       1       0    ; to [4] if true
420D  1A400080           [03] jmp        2            ; to [6]
4211  57000000           [04] loadbool   1   0   0    ; false
4215  5E000001           [05] return     1   2      
4219  53000000           [06] getupval   1   0      
421D  4E40C000           [07] gettable   1   1   257  ; "mLabel"
fail op	35
4221  6380C000           [08] close      1  
4225  1AC00080           [09] jmp        4            ; to [14]
4229  53000000           [10] getupval   1   0      
422D  4E40C000           [11] gettable   1   1   257  ; "mLabel"
fail op	35
4231  23C0C000           [12] close      0  
4235  1A800080           [13] jmp        3            ; to [17]
4239  57000000           [14] loadbool   1   0   0    ; false
423D  5E000001           [15] return     1   2      
4241  1AC00480           [16] jmp        20           ; to [37]
4245  5D000100           [17] getglobal  1   4        ; string
4249  4E40C100           [18] gettable   1   1   261  ; -565905820
424D  9D000100           [19] getglobal  2   4        ; string
4251  8E804101           [20] gettable   2   2   262  ; -1110387163
4255  CEC04100           [21] gettable   3   0   263  ; "Name"
4259  A2800001           [22] call       2   2   2  
425D  DD000100           [23] getglobal  3   4        ; string
4261  CE80C101           [24] gettable   3   3   262  ; -1110387163
4265  13010000           [25] getupval   4   0      
4269  0E414002           [26] gettable   4   4   257  ; "mLabel"
426D  E2800001           [27] call       3   2   2  
4271  19010200           [28] loadk      4   8        ; 0
4275  57018000           [29] loadbool   5   1   0    ; true
4279  62808002           [30] call       1   5   2  
fail op	35
427D  2380C000           [31] close      0  
4281  1A000080           [32] jmp        1            ; to [34]
4285  57400000           [33] loadbool   1   0   1    ; false, to [35]
4289  57008000           [34] loadbool   1   1   0    ; true
fail op	9
428D  89008000           [35] settable   2   1   0  
4291  9E000001           [36] return     2   2      
4295  1E008000           [37] return     0   1      
                         * constants:
4299  09                 sizek (9)
429A  04                 const type 4
429B  07                 string size (7)
429C  46696C6C657200     "Filler\0"
                         const [0]: "Filler"
42A3  04                 const type 4
42A4  07                 string size (7)
42A5  6D4C6162656C00     "mLabel\0"
                         const [1]: "mLabel"
42AC  00                 const type 0
                         const [2]: nil
42AD  04                 const type 4
42AE  01                 string size (0)
                         const [3]: ""
42B0  04                 const type 4
42B1  07                 string size (7)
42B2  737472696E6700     "string\0"
                         const [4]: "string"
42B9  01                 const type 3
42BA  64F644DE           const [5]: (-565905820)
42BE  01                 const type 3
42BF  25D6D0BD           const [6]: (-1110387163)
42C3  04                 const type 4
42C4  05                 string size (5)
42C5  4E616D6500         "Name\0"
                         const [7]: "Name"
42CA  03                 const type 3
42CB  0000803F           const [8]: (0)
                         * functions:
42CF  00                 sizep (0)
                         * lines:
42D0  25                 sizelineinfo (37)
                         [pc] (line)
42D1  22                 [01] (34)
42D2  02                 [02] (34)
42D3  00                 [03] (34)
42D4  00                 [04] (35)
42D5  22                 [05] (35)
42D6  02                 [06] (38)
42D7  00                 [07] (38)
42D8  00                 [08] (38)
42D9  22                 [09] (38)
42DA  02                 [10] (38)
42DB  00                 [11] (38)
42DC  00                 [12] (38)
42DD  23                 [13] (38)
42DE  02                 [14] (39)
42DF  00                 [15] (39)
42E0  00                 [16] (39)
42E1  23                 [17] (41)
42E2  02                 [18] (41)
42E3  00                 [19] (41)
42E4  00                 [20] (41)
42E5  26                 [21] (41)
42E6  02                 [22] (41)
42E7  00                 [23] (41)
42E8  00                 [24] (41)
42E9  26                 [25] (41)
42EA  02                 [26] (41)
42EB  00                 [27] (41)
42EC  00                 [28] (41)
42ED  26                 [29] (41)
42EE  02                 [30] (41)
42EF  00                 [31] (41)
42F0  00                 [32] (41)
42F1  26                 [33] (41)
42F2  02                 [34] (41)
42F3  00                 [35] (42)
42F4  00                 [36] (42)
42F5  26                 [37] (44)
                         * locals:
4365  00                 sizelocvars (0)
                         * upvalues:
4366  00                 sizeupvalues (0)
                         ** end of function **

                         
4367                     ** function [1] definition (level 3)
                         ** start of function **
4367  00                 string size (0)
                         source name: (none)
4369  04                 line defined (558)
436A  B0                 last line defined (560)
436B  04                 nups (2)
436C  02                 numparams (2)
436D  02                 is_vararg (0)
436E  00                 maxstacksize (6)
                         * code:
4370  07                 sizecode (7)
4371  93000000           [1] getupval   2   0      
4375  8E004001           [2] gettable   2   2   256  ; 1000090404
4379  DD400000           [3] getglobal  3   1        ; mMovie
437D  13018000           [4] getupval   4   1      
4381  52010000           [5] move       5   0      
4385  A2400002           [6] call       2   4   1  
4389  1E008000           [7] return     0   1      
                         * constants:
438D  02                 sizek (2)
438E  01                 const type 3
438F  242B9C3B           const [0]: (1000090404)
4393  04                 const type 4
4394  07                 string size (7)
4395  6D4D6F76696500     "mMovie\0"
                         const [1]: "mMovie"
                         * functions:
439C  00                 sizep (0)
                         * lines:
439D  07                 sizelineinfo (7)
                         [pc] (line)
439E  2F                 [1] (47)
439F  02                 [2] (47)
43A0  00                 [3] (47)
43A1  00                 [4] (47)
43A2  2F                 [5] (47)
43A3  02                 [6] (47)
43A4  00                 [7] (48)
                         * locals:
43BA  00                 sizelocvars (0)
                         * upvalues:
43BB  00                 sizeupvalues (0)
                         ** end of function **

                         
43BC                     ** function [2] definition (level 3)
                         ** start of function **
43BC  00                 string size (0)
                         source name: (none)
43BE  04                 line defined (562)
43BF  B9                 last line defined (569)
43C0  04                 nups (2)
43C1  02                 numparams (1)
43C2  01                 is_vararg (0)
43C3  00                 maxstacksize (10)
                         * code:
43C5  24                 sizecode (36)
43C6  53000000           [01] getupval   1   0      
43CA  6400C000           [02] self       1   1   256  ; -1749775947
43CE  62800001           [03] call       1   2   2  
fail op	35
43D2  6340C000           [04] close      1  
43D6  1AC00080           [05] jmp        4            ; to [10]
43DA  8E80C000           [06] gettable   2   1   258  ; "Id"
43DE  CE804000           [07] gettable   3   0   258  ; "Id"
fail op	35
43E2  63C00001           [08] close      1  
43E6  1A000080           [09] jmp        1            ; to [11]
43EA  97400000           [10] loadbool   2   0   1    ; false, to [12]
43EE  97008000           [11] loadbool   2   1   0    ; true
43F2  D3000000           [12] getupval   3   0      
43F6  CEC0C001           [13] gettable   3   3   259  ; "mFocusedMenuElement"
fail op	35
43FA  6340C001           [14] close      1  
43FE  1A400180           [15] jmp        6            ; to [22]
4402  D3000000           [16] getupval   3   0      
4406  CEC0C001           [17] gettable   3   3   259  ; "mFocusedMenuElement"
440A  CE80C001           [18] gettable   3   3   258  ; "Id"
440E  0E814000           [19] gettable   4   0   258  ; "Id"
fail op	35
4412  63008101           [20] close      1  
4416  1A000080           [21] jmp        1            ; to [23]
441A  D7400000           [22] loadbool   3   0   1    ; false, to [24]
441E  D7008000           [23] loadbool   3   1   0    ; true
4422  0BC10000           [24] newtable   4   0   3    ; array=0, hash=3
4426  0C810082           [25] settable   4   260 2    ; "IsFocused"
442A  0CC18082           [26] settable   4   261 3    ; "IsSelected"
442E  4EC14100           [27] gettable   5   0   263  ; "Filler"
4432  0C410183           [28] settable   4   262 5    ; "IsFiller"
4436  53018000           [29] getupval   5   1      
443A  4E01C202           [30] gettable   5   5   264  ; 1503902066
443E  9D410200           [31] getglobal  6   9        ; mMovie
4442  D3010000           [32] getupval   7   0      
4446  12020000           [33] move       8   0      
444A  52020002           [34] move       9   4      
444E  62418002           [35] call       5   5   1  
4452  1E008000           [36] return     0   1      
                         * constants:
4456  0A                 sizek (10)
4457  01                 const type 3
4458  B589B497           const [0]: (-1749775947)
445C  00                 const type 0
                         const [1]: nil
445D  04                 const type 4
445E  03                 string size (3)
445F  496400             "Id\0"
                         const [2]: "Id"
4462  04                 const type 4
4463  14                 string size (20)
4464  6D466F6375736564+  "mFocused"
446C  4D656E75456C656D+  "MenuElem"
4474  656E7400           "ent\0"
                         const [3]: "mFocusedMenuElement"
4478  04                 const type 4
4479  0A                 string size (10)
447A  4973466F63757365+  "IsFocuse"
4482  6400               "d\0"
                         const [4]: "IsFocused"
4484  04                 const type 4
4485  0B                 string size (11)
4486  497353656C656374+  "IsSelect"
448E  656400             "ed\0"
                         const [5]: "IsSelected"
4491  04                 const type 4
4492  09                 string size (9)
4493  497346696C6C6572+  "IsFiller"
449B  00                 "\0"
                         const [6]: "IsFiller"
449C  04                 const type 4
449D  07                 string size (7)
449E  46696C6C657200     "Filler\0"
                         const [7]: "Filler"
44A5  01                 const type 3
44A6  72B9A359           const [8]: (1503902066)
44AA  04                 const type 4
44AB  07                 string size (7)
44AC  6D4D6F76696500     "mMovie\0"
                         const [9]: "mMovie"
                         * functions:
44B3  00                 sizep (0)
                         * lines:
44B4  24                 sizelineinfo (36)
                         [pc] (line)
44B5  33                 [01] (51)
44B6  02                 [02] (51)
44B7  00                 [03] (51)
44B8  00                 [04] (52)
44B9  33                 [05] (52)
44BA  02                 [06] (52)
44BB  00                 [07] (52)
44BC  00                 [08] (52)
44BD  33                 [09] (52)
44BE  02                 [10] (52)
44BF  00                 [11] (52)
44C0  00                 [12] (53)
44C1  34                 [13] (53)
44C2  02                 [14] (53)
44C3  00                 [15] (53)
44C4  00                 [16] (53)
44C5  34                 [17] (53)
44C6  02                 [18] (53)
44C7  00                 [19] (53)
44C8  00                 [20] (53)
44C9  34                 [21] (53)
44CA  02                 [22] (53)
44CB  00                 [23] (53)
44CC  00                 [24] (55)
44CD  34                 [25] (55)
44CE  02                 [26] (55)
44CF  00                 [27] (55)
44D0  00                 [28] (55)
44D1  34                 [29] (56)
44D2  02                 [30] (56)
44D3  00                 [31] (56)
44D4  00                 [32] (56)
44D5  34                 [33] (56)
44D6  02                 [34] (56)
44D7  00                 [35] (56)
44D8  00                 [36] (57)
                         * locals:
4545  00                 sizelocvars (0)
                         * upvalues:
4546  00                 sizeupvalues (0)
                         ** end of function **

                         
4547                     ** function [3] definition (level 3)
                         ** start of function **
4547  00                 string size (0)
                         source name: (none)
4549  04                 line defined (571)
454A  F0                 last line defined (624)
454B  04                 nups (3)
454C  03                 numparams (1)
454D  01                 is_vararg (0)
454E  00                 maxstacksize (13)
                         * code:
4551  01                 sizecode (148)
4552  4E004000           [001] gettable   1   0   256  ; "mClipName"
fail op	35
4556  6340C000           [002] close      1  
455A  1A800080           [003] jmp        3            ; to [7]
455E  4E804000           [004] gettable   1   0   258  ; "Filler"
4562  58000000           [005] test       1       0    ; to [7] if true
4566  1A000080           [006] jmp        1            ; to [8]
456A  1E008000           [007] return     0   1      
456E  53000000           [008] getupval   1   0      
4572  4EC0C000           [009] gettable   1   1   259  ; 630793108
4576  9D000100           [010] getglobal  2   4        ; _G
457A  8E404101           [011] gettable   2   2   261  ; "UISound_Focus"
457E  62400001           [012] call       1   2   1  
4582  53008000           [013] getupval   1   1      
4586  4E80C100           [014] gettable   1   1   262  ; "mFocusedMenuElement"
fail op	35
458A  6340C000           [015] close      1  
458E  1A400180           [016] jmp        6            ; to [23]
4592  53008000           [017] getupval   1   1      
4596  4E80C100           [018] gettable   1   1   262  ; "mFocusedMenuElement"
459A  4EC0C100           [019] gettable   1   1   263  ; "Id"
459E  8EC04100           [020] gettable   2   0   263  ; "Id"
fail op	35
45A2  63808000           [021] close      1  
45A6  1A000080           [022] jmp        1            ; to [24]
45AA  57400000           [023] loadbool   1   0   1    ; false, to [25]
45AE  57008000           [024] loadbool   1   1   0    ; true
45B2  93000001           [025] getupval   2   2      
45B6  8E004201           [026] gettable   2   2   264  ; 81281438
45BA  DD400200           [027] getglobal  3   9        ; mMovie
45BE  13018000           [028] getupval   4   1      
45C2  52010000           [029] move       5   0      
45C6  8B810000           [030] newtable   6   0   2    ; array=0, hash=2
45CA  8CC14285           [031] settable   6   266 267  ; "IsFocused" 1
45CE  8C410086           [032] settable   6   268 1    ; "IsSelected"
45D2  A2408002           [033] call       2   5   1  
45D6  8B000100           [034] newtable   2   0   4    ; array=0, hash=4
45DA  8CC0C286           [035] settable   2   269 267  ; "CustomEntry" 1
45DE  DDC00300           [036] getglobal  3   15       ; string
45E2  CE00C401           [037] gettable   3   3   272  ; 1671193642
45E6  0E814300           [038] gettable   4   0   270  ; "Name"
45EA  E2800001           [039] call       3   2   2  
45EE  8CC00087           [040] settable   2   270 3    ; "Name"
45F2  DD400200           [041] getglobal  3   9        ; mMovie
45F6  E480C401           [042] self       3   3   274  ; 98241492
45FA  59C10400           [043] loadk      5   19       ; "/Lotus/Language/Menu/ImprintDesc"
45FE  97010000           [044] loadbool   6   0   0    ; false
4602  E2800002           [045] call       3   4   2  
4606  8CC08088           [046] settable   2   273 3    ; "LocalizedDesc"
460A  CB000000           [047] newtable   3   0   0    ; array=0, hash=0
460E  8CC0008A           [048] settable   2   276 3    ; "MetaData"
4612  D3000001           [049] getupval   3   2      
4616  CE40C501           [050] gettable   3   3   277  ; 1284490972
461A  1D410200           [051] getglobal  4   9        ; mMovie
461E  52010001           [052] move       5   2      
4622  9D810500           [053] getglobal  6   22       ; -174740002
4626  DD410200           [054] getglobal  7   9        ; mMovie
462A  E4C1C503           [055] self       7   7   279  ; 1803241227
462E  4E024000           [056] gettable   9   0   256  ; "mClipName"
4632  99020600           [057] loadk      10  24       ; "_screenX"
4636  E2010002           [058] call       7   4   0  
463A  A2810000           [059] call       6   0   2  
463E  DD810500           [060] getglobal  7   22       ; -174740002
4642  1D420200           [061] getglobal  8   9        ; mMovie
4646  24C24504           [062] self       8   8   279  ; 1803241227
464A  8E024000           [063] gettable   10  0   256  ; "mClipName"
464E  D9420600           [064] loadk      11  25       ; "_screenY"
4652  22020002           [065] call       8   4   0  
4656  E2810000           [066] call       7   0   2  
465A  13028000           [067] getupval   8   1      
465E  0E824604           [068] gettable   8   8   282  ; "ElementWidth"
4662  53028000           [069] getupval   9   1      
4666  4EC2C604           [070] gettable   9   9   283  ; "ElementHeight"
466A  E2408003           [071] call       3   7   1  
466E  CB000000           [072] newtable   3   0   0    ; array=0, hash=0
4672  13010001           [073] getupval   4   2      
4676  0E014702           [074] gettable   4   4   284  ; -1325205069
467A  53010001           [075] getupval   5   2      
467E  4E41C702           [076] gettable   5   5   285  ; "LABEL_TYPE_MISC_ITEM"
4682  9D410200           [077] getglobal  6   9        ; mMovie
4686  A4814403           [078] self       6   6   274  ; 98241492
468A  0E824700           [079] gettable   8   0   286  ; "PetTypeName"
468E  57020000           [080] loadbool   9   0   0    ; false
4692  A2010002           [081] call       6   4   0  
4696  22810000           [082] call       4   0   2  
469A  4E014800           [083] gettable   5   0   288  ; "PetIcon"
469E  0C41818F           [084] settable   4   287 5    ; "Icon"
46A2  0CC1C290           [085] settable   4   289 267  ; "IconTintLabelColor" 1
46A6  4E814802           [086] gettable   5   4   290  ; "IconDims"
46AA  4C01C991           [087] settable   5   291 292  ; "H" 0
46AE  4E414902           [088] gettable   5   4   293  ; "IconPos"
46B2  4CC14993           [089] settable   5   294 295  ; "Y" 0
46B6  0C014994           [090] settable   4   296 292  ; "LabelOffset" 0
46BA  5D410A00           [091] getglobal  5   41       ; table
46BE  4E81CA02           [092] gettable   5   5   298  ; -431682403
46C2  92018001           [093] move       6   3      
46C6  D2010002           [094] move       7   4      
46CA  62418001           [095] call       5   3   1  
46CE  46018002           [096] loadnil    5   5      
46D2  99C10A00           [097] loadk      6   43       ; ""
46D6  CE014B00           [098] gettable   7   0   300  ; "IsMale"
fail op	35
46DA  6340C003           [099] close      1  
46DE  1AC00380           [100] jmp        16           ; to [117]
46E2  D3010000           [101] getupval   7   0      
46E6  CE41CB03           [102] gettable   7   7   301  ; -132701534
46EA  0E024B00           [103] gettable   8   0   300  ; "IsMale"
46EE  59820B00           [104] loadk      9   46       ; "/Lotus/Language/Menu/KubrowMale"
46F2  99C20B00           [105] loadk      10  47       ; "/Lotus/Language/Menu/KubrowFemale"
46F6  E2810002           [106] call       7   4   2  
46FA  92018003           [107] move       6   7      
46FE  D3010000           [108] getupval   7   0      
4702  CE41CB03           [109] gettable   7   7   301  ; -132701534
4706  0E024B00           [110] gettable   8   0   300  ; "IsMale"
470A  5D020C00           [111] getglobal  9   48       ; genderTextures
470E  4E42CC04           [112] gettable   9   9   305  ; 0
4712  9D020C00           [113] getglobal  10  48       ; genderTextures
4716  8E824C05           [114] gettable   10  10  306  ; 0
471A  E2810002           [115] call       7   4   2  
471E  52018003           [116] move       5   7      
4722  D3010001           [117] getupval   7   2      
4726  CE01C703           [118] gettable   7   7   284  ; -1325205069
472A  13020001           [119] getupval   8   2      
472E  0E424704           [120] gettable   8   8   285  ; "LABEL_TYPE_MISC_ITEM"
4732  5D420200           [121] getglobal  9   9        ; mMovie
4736  6482C404           [122] self       9   9   274  ; 98241492
473A  D2020003           [123] move       11  6      
473E  17030000           [124] loadbool   12  0   0    ; false
4742  62020002           [125] call       9   4   0  
4746  E2810000           [126] call       7   0   2  
474A  CC41818F           [127] settable   7   287 5    ; "Icon"
474E  CCC1C290           [128] settable   7   289 267  ; "IconTintLabelColor" 1
4752  0E82C803           [129] gettable   8   7   290  ; "IconDims"
4756  0C02CD99           [130] settable   8   307 308  ; "W" 0
475A  0E82C803           [131] gettable   8   7   290  ; "IconDims"
475E  0C02CD91           [132] settable   8   291 308  ; "H" 0
4762  0E42C903           [133] gettable   8   7   293  ; "IconPos"
4766  0C424D93           [134] settable   8   294 309  ; "Y" 0
476A  CC014994           [135] settable   7   296 292  ; "LabelOffset" 0
476E  1D420A00           [136] getglobal  8   41       ; table
4772  0E824A04           [137] gettable   8   8   298  ; -431682403
4776  52028001           [138] move       9   3      
477A  92028003           [139] move       10  7      
477E  22428001           [140] call       8   3   1  
4782  0E024501           [141] gettable   8   2   276  ; "MetaData"
4786  0CC2009B           [142] settable   8   310 3    ; "CustomTags"
478A  1DC20D00           [143] getglobal  8   55       ; _T
478E  0C82009C           [144] settable   8   312 2    ; "InfoPopup_Data"
4792  1DC20D00           [145] getglobal  8   55       ; _T
4796  53028000           [146] getupval   9   1      
479A  0C42829C           [147] settable   8   313 9    ; "InfoPopup_Grid"
479E  1E008000           [148] return     0   1      
                         * constants:
47A2  3A                 sizek (58)
47A3  04                 const type 4
47A4  0A                 string size (10)
47A5  6D436C69704E616D+  "mClipNam"
47AD  6500               "e\0"
                         const [0]: "mClipName"
47AF  00                 const type 0
                         const [1]: nil
47B0  04                 const type 4
47B1  07                 string size (7)
47B2  46696C6C657200     "Filler\0"
                         const [2]: "Filler"
47B9  01                 const type 3
47BA  94239925           const [3]: (630793108)
47BE  04                 const type 4
47BF  03                 string size (3)
47C0  5F4700             "_G\0"
                         const [4]: "_G"
47C3  04                 const type 4
47C4  0E                 string size (14)
47C5  5549536F756E645F+  "UISound_"
47CD  466F63757300       "Focus\0"
                         const [5]: "UISound_Focus"
47D3  04                 const type 4
47D4  14                 string size (20)
47D5  6D466F6375736564+  "mFocused"
47DD  4D656E75456C656D+  "MenuElem"
47E5  656E7400           "ent\0"
                         const [6]: "mFocusedMenuElement"
47E9  04                 const type 4
47EA  03                 string size (3)
47EB  496400             "Id\0"
                         const [7]: "Id"
47EE  01                 const type 3
47EF  9E41D804           const [8]: (81281438)
47F3  04                 const type 4
47F4  07                 string size (7)
47F5  6D4D6F76696500     "mMovie\0"
                         const [9]: "mMovie"
47FC  04                 const type 4
47FD  0A                 string size (10)
47FE  4973466F63757365+  "IsFocuse"
4806  6400               "d\0"
                         const [10]: "IsFocused"
4808  01                 const type 3
4809  01000000           const [11]: (1)
480D  04                 const type 4
480E  0B                 string size (11)
480F  497353656C656374+  "IsSelect"
4817  656400             "ed\0"
                         const [12]: "IsSelected"
481A  04                 const type 4
481B  0C                 string size (12)
481C  437573746F6D456E+  "CustomEn"
4824  74727900           "try\0"
                         const [13]: "CustomEntry"
4828  04                 const type 4
4829  05                 string size (5)
482A  4E616D6500         "Name\0"
                         const [14]: "Name"
482F  04                 const type 4
4830  07                 string size (7)
4831  737472696E6700     "string\0"
                         const [15]: "string"
4838  01                 const type 3
4839  2A649C63           const [16]: (1671193642)
483D  04                 const type 4
483E  0E                 string size (14)
483F  4C6F63616C697A65+  "Localize"
4847  644465736300       "dDesc\0"
                         const [17]: "LocalizedDesc"
484D  01                 const type 3
484E  D40BDB05           const [18]: (98241492)
4852  04                 const type 4
4853  21                 string size (33)
4854  2F4C6F7475732F4C+  "/Lotus/L"
485C  616E67756167652F+  "anguage/"
4864  4D656E752F496D70+  "Menu/Imp"
486C  72696E7444657363+  "rintDesc"
4874  00                 "\0"
                         const [19]: "/Lotus/Language/Menu/ImprintDesc"
4875  04                 const type 4
4876  09                 string size (9)
4877  4D65746144617461+  "MetaData"
487F  00                 "\0"
                         const [20]: "MetaData"
4880  01                 const type 3
4881  DCC68F4C           const [21]: (1284490972)
4885  01                 const type 3
4886  DEAD95F5           const [22]: (-174740002)
488A  01                 const type 3
488B  0B477B6B           const [23]: (1803241227)
488F  04                 const type 4
4890  09                 string size (9)
4891  5F73637265656E58+  "_screenX"
4899  00                 "\0"
                         const [24]: "_screenX"
489A  04                 const type 4
489B  09                 string size (9)
489C  5F73637265656E59+  "_screenY"
48A4  00                 "\0"
                         const [25]: "_screenY"
48A5  04                 const type 4
48A6  0D                 string size (13)
48A7  456C656D656E7457+  "ElementW"
48AF  6964746800         "idth\0"
                         const [26]: "ElementWidth"
48B4  04                 const type 4
48B5  0E                 string size (14)
48B6  456C656D656E7448+  "ElementH"
48BE  656967687400       "eight\0"
                         const [27]: "ElementHeight"
48C4  01                 const type 3
48C5  B3F902B1           const [28]: (-1325205069)
48C9  04                 const type 4
48CA  15                 string size (21)
48CB  4C4142454C5F5459+  "LABEL_TY"
48D3  50455F4D4953435F+  "PE_MISC_"
48DB  4954454D00         "ITEM\0"
                         const [29]: "LABEL_TYPE_MISC_ITEM"
48E0  04                 const type 4
48E1  0C                 string size (12)
48E2  506574547970654E+  "PetTypeN"
48EA  616D6500           "ame\0"
                         const [30]: "PetTypeName"
48EE  04                 const type 4
48EF  05                 string size (5)
48F0  49636F6E00         "Icon\0"
                         const [31]: "Icon"
48F5  04                 const type 4
48F6  08                 string size (8)
48F7  50657449636F6E00   "PetIcon\0"
                         const [32]: "PetIcon"
48FF  04                 const type 4
4900  13                 string size (19)
4901  49636F6E54696E74+  "IconTint"
4909  4C6162656C436F6C+  "LabelCol"
4911  6F7200             "or\0"
                         const [33]: "IconTintLabelColor"
4914  04                 const type 4
4915  09                 string size (9)
4916  49636F6E44696D73+  "IconDims"
491E  00                 "\0"
                         const [34]: "IconDims"
491F  04                 const type 4
4920  02                 string size (2)
4921  4800               "H\0"
                         const [35]: "H"
4923  03                 const type 3
4924  00002042           const [36]: (0)
4928  04                 const type 4
4929  08                 string size (8)
492A  49636F6E506F7300   "IconPos\0"
                         const [37]: "IconPos"
4932  04                 const type 4
4933  02                 string size (2)
4934  5900               "Y\0"
                         const [38]: "Y"
4936  03                 const type 3
4937  000000C1           const [39]: (0)
493B  04                 const type 4
493C  0C                 string size (12)
493D  4C6162656C4F6666+  "LabelOff"
4945  73657400           "set\0"
                         const [40]: "LabelOffset"
4949  04                 const type 4
494A  06                 string size (6)
494B  7461626C6500       "table\0"
                         const [41]: "table"
4951  01                 const type 3
4952  9D0C45E6           const [42]: (-431682403)
4956  04                 const type 4
4957  01                 string size (0)
                         const [43]: ""
4959  04                 const type 4
495A  07                 string size (7)
495B  49734D616C6500     "IsMale\0"
                         const [44]: "IsMale"
4962  01                 const type 3
4963  A22217F8           const [45]: (-132701534)
4967  04                 const type 4
4968  20                 string size (32)
4969  2F4C6F7475732F4C+  "/Lotus/L"
4971  616E67756167652F+  "anguage/"
4979  4D656E752F4B7562+  "Menu/Kub"
4981  726F774D616C6500   "rowMale\0"
                         const [46]: "/Lotus/Language/Menu/KubrowMale"
4989  04                 const type 4
498A  22                 string size (34)
498B  2F4C6F7475732F4C+  "/Lotus/L"
4993  616E67756167652F+  "anguage/"
499B  4D656E752F4B7562+  "Menu/Kub"
49A3  726F7746656D616C+  "rowFemal"
49AB  6500               "e\0"
                         const [47]: "/Lotus/Language/Menu/KubrowFemale"
49AD  04                 const type 4
49AE  0F                 string size (15)
49AF  67656E6465725465+  "genderTe"
49B7  78747572657300     "xtures\0"
                         const [48]: "genderTextures"
49BE  03                 const type 3
49BF  00000040           const [49]: (0)
49C3  03                 const type 3
49C4  0000803F           const [50]: (0)
49C8  04                 const type 4
49C9  02                 string size (2)
49CA  5700               "W\0"
                         const [51]: "W"
49CC  03                 const type 3
49CD  00000C42           const [52]: (0)
49D1  03                 const type 3
49D2  0000A0C0           const [53]: (0)
49D6  04                 const type 4
49D7  0B                 string size (11)
49D8  437573746F6D5461+  "CustomTa"
49E0  677300             "gs\0"
                         const [54]: "CustomTags"
49E3  04                 const type 4
49E4  03                 string size (3)
49E5  5F5400             "_T\0"
                         const [55]: "_T"
49E8  04                 const type 4
49E9  0F                 string size (15)
49EA  496E666F506F7075+  "InfoPopu"
49F2  705F4461746100     "p_Data\0"
                         const [56]: "InfoPopup_Data"
49F9  04                 const type 4
49FA  0F                 string size (15)
49FB  496E666F506F7075+  "InfoPopu"
4A03  705F4772696400     "p_Grid\0"
                         const [57]: "InfoPopup_Grid"
                         * functions:
4A0A  00                 sizep (0)
                         * lines:
4A0C  01                 sizelineinfo (148)
                         [pc] (line)
4A0D  3C                 [001] (60)
4A0E  02                 [002] (60)
4A0F  00                 [003] (60)
4A10  00                 [004] (60)
4A11  3C                 [005] (60)
4A12  02                 [006] (60)
4A13  00                 [007] (61)
4A14  00                 [008] (63)
4A15  3C                 [009] (63)
4A16  02                 [010] (63)
4A17  00                 [011] (63)
4A18  00                 [012] (63)
4A19  3C                 [013] (65)
4A1A  02                 [014] (65)
4A1B  00                 [015] (65)
4A1C  00                 [016] (65)
4A1D  3C                 [017] (65)
4A1E  02                 [018] (65)
4A1F  00                 [019] (65)
4A20  00                 [020] (65)
4A21  3C                 [021] (65)
4A22  02                 [022] (65)
4A23  00                 [023] (65)
4A24  00                 [024] (65)
4A25  3D                 [025] (66)
4A26  02                 [026] (66)
4A27  00                 [027] (66)
4A28  00                 [028] (66)
4A29  3F                 [029] (66)
4A2A  02                 [030] (66)
4A2B  00                 [031] (66)
4A2C  00                 [032] (66)
4A2D  3F                 [033] (66)
4A2E  02                 [034] (68)
4A2F  00                 [035] (70)
4A30  00                 [036] (71)
4A31  3F                 [037] (71)
4A32  02                 [038] (71)
4A33  00                 [039] (71)
4A34  00                 [040] (71)
4A35  3F                 [041] (72)
4A36  02                 [042] (72)
4A37  00                 [043] (72)
4A38  00                 [044] (72)
4A39  3F                 [045] (72)
4A3A  02                 [046] (72)
4A3B  00                 [047] (73)
4A3C  00                 [048] (73)
4A3D  41                 [049] (76)
4A3E  02                 [050] (76)
4A3F  00                 [051] (76)
4A40  00                 [052] (76)
4A41  41                 [053] (77)
4A42  02                 [054] (77)
4A43  00                 [055] (77)
4A44  00                 [056] (77)
4A45  41                 [057] (77)
4A46  02                 [058] (77)
4A47  00                 [059] (77)
4A48  00                 [060] (78)
4A49  41                 [061] (78)
4A4A  02                 [062] (78)
4A4B  00                 [063] (78)
4A4C  00                 [064] (78)
4A4D  41                 [065] (78)
4A4E  02                 [066] (78)
4A4F  00                 [067] (79)
4A50  00                 [068] (79)
4A51  41                 [069] (80)
4A52  02                 [070] (80)
4A53  00                 [071] (76)
4A54  00                 [072] (82)
4A55  41                 [073] (84)
4A56  02                 [074] (84)
4A57  00                 [075] (84)
4A58  00                 [076] (84)
4A59  41                 [077] (84)
4A5A  02                 [078] (84)
4A5B  00                 [079] (84)
4A5C  00                 [080] (84)
4A5D  41                 [081] (84)
4A5E  02                 [082] (84)
4A5F  00                 [083] (85)
4A60  00                 [084] (85)
4A61  41                 [085] (86)
4A62  02                 [086] (87)
4A63  00                 [087] (87)
4A64  00                 [088] (88)
4A65  41                 [089] (88)
4A66  02                 [090] (89)
4A67  00                 [091] (90)
4A68  00                 [092] (90)
4A69  41                 [093] (90)
4A6A  02                 [094] (90)
4A6B  00                 [095] (90)
4A6C  00                 [096] (92)
4A6D  42                 [097] (93)
4A6E  02                 [098] (94)
4A6F  00                 [099] (94)
4A70  00                 [100] (94)
4A71  42                 [101] (95)
4A72  02                 [102] (95)
4A73  00                 [103] (95)
4A74  00                 [104] (95)
4A75  42                 [105] (95)
4A76  02                 [106] (95)
4A77  00                 [107] (95)
4A78  00                 [108] (96)
4A79  42                 [109] (96)
4A7A  02                 [110] (96)
4A7B  00                 [111] (96)
4A7C  00                 [112] (96)
4A7D  42                 [113] (96)
4A7E  02                 [114] (96)
4A7F  00                 [115] (96)
4A80  00                 [116] (96)
4A81  42                 [117] (99)
4A82  02                 [118] (99)
4A83  00                 [119] (99)
4A84  00                 [120] (99)
4A85  42                 [121] (99)
4A86  02                 [122] (99)
4A87  00                 [123] (99)
4A88  00                 [124] (99)
4A89  42                 [125] (99)
4A8A  02                 [126] (99)
4A8B  00                 [127] (100)
4A8C  00                 [128] (101)
4A8D  42                 [129] (102)
4A8E  02                 [130] (102)
4A8F  00                 [131] (103)
4A90  00                 [132] (103)
4A91  44                 [133] (104)
4A92  02                 [134] (104)
4A93  00                 [135] (105)
4A94  00                 [136] (106)
4A95  46                 [137] (106)
4A96  02                 [138] (106)
4A97  00                 [139] (106)
4A98  00                 [140] (106)
4A99  47                 [141] (108)
4A9A  02                 [142] (108)
4A9B  00                 [143] (110)
4A9C  00                 [144] (110)
4A9D  47                 [145] (111)
4A9E  02                 [146] (111)
4A9F  00                 [147] (111)
4AA0  00                 [148] (112)
                         * locals:
4C5D  00                 sizelocvars (0)
                         * upvalues:
4C5E  00                 sizeupvalues (0)
                         ** end of function **

                         
4C5F                     ** function [4] definition (level 3)
                         ** start of function **
4C5F  00                 string size (0)
                         source name: (none)
4C61  04                 line defined (626)
4C62  F9                 last line defined (633)
4C63  04                 nups (2)
4C64  02                 numparams (1)
4C65  01                 is_vararg (0)
4C66  00                 maxstacksize (7)
                         * code:
4C68  1D                 sizecode (29)
4C69  4E004000           [01] gettable   1   0   256  ; "mClipName"
fail op	35
4C6D  6340C000           [02] close      1  
4C71  1A800080           [03] jmp        3            ; to [7]
4C75  4E804000           [04] gettable   1   0   258  ; "Filler"
4C79  58000000           [05] test       1       0    ; to [7] if true
4C7D  1A000080           [06] jmp        1            ; to [8]
4C81  1E008000           [07] return     0   1      
4C85  53000000           [08] getupval   1   0      
4C89  4EC0C000           [09] gettable   1   1   259  ; "mFocusedMenuElement"
fail op	35
4C8D  6340C000           [10] close      1  
4C91  1A400180           [11] jmp        6            ; to [18]
4C95  53000000           [12] getupval   1   0      
4C99  4EC0C000           [13] gettable   1   1   259  ; "mFocusedMenuElement"
4C9D  4E00C100           [14] gettable   1   1   260  ; "Id"
4CA1  8E004100           [15] gettable   2   0   260  ; "Id"
fail op	35
4CA5  63808000           [16] close      1  
4CA9  1A000080           [17] jmp        1            ; to [19]
4CAD  57400000           [18] loadbool   1   0   1    ; false, to [20]
4CB1  57008000           [19] loadbool   1   1   0    ; true
4CB5  93008000           [20] getupval   2   1      
4CB9  8E404101           [21] gettable   2   2   261  ; 81281438
4CBD  DD800100           [22] getglobal  3   6        ; mMovie
4CC1  13010000           [23] getupval   4   0      
4CC5  52010000           [24] move       5   0      
4CC9  8B810000           [25] newtable   6   0   2    ; array=0, hash=2
4CCD  8C01C283           [26] settable   6   263 264  ; "IsFocused" 0
4CD1  8C418084           [27] settable   6   265 1    ; "IsSelected"
4CD5  A2408002           [28] call       2   5   1  
4CD9  1E008000           [29] return     0   1      
                         * constants:
4CDD  0A                 sizek (10)
4CDE  04                 const type 4
4CDF  0A                 string size (10)
4CE0  6D436C69704E616D+  "mClipNam"
4CE8  6500               "e\0"
                         const [0]: "mClipName"
4CEA  00                 const type 0
                         const [1]: nil
4CEB  04                 const type 4
4CEC  07                 string size (7)
4CED  46696C6C657200     "Filler\0"
                         const [2]: "Filler"
4CF4  04                 const type 4
4CF5  14                 string size (20)
4CF6  6D466F6375736564+  "mFocused"
4CFE  4D656E75456C656D+  "MenuElem"
4D06  656E7400           "ent\0"
                         const [3]: "mFocusedMenuElement"
4D0A  04                 const type 4
4D0B  03                 string size (3)
4D0C  496400             "Id\0"
                         const [4]: "Id"
4D0F  01                 const type 3
4D10  9E41D804           const [5]: (81281438)
4D14  04                 const type 4
4D15  07                 string size (7)
4D16  6D4D6F76696500     "mMovie\0"
                         const [6]: "mMovie"
4D1D  04                 const type 4
4D1E  0A                 string size (10)
4D1F  4973466F63757365+  "IsFocuse"
4D27  6400               "d\0"
                         const [7]: "IsFocused"
4D29  01                 const type 3
4D2A  00000000           const [8]: (0)
4D2E  04                 const type 4
4D2F  0B                 string size (11)
4D30  497353656C656374+  "IsSelect"
4D38  656400             "ed\0"
                         const [9]: "IsSelected"
                         * functions:
4D3B  00                 sizep (0)
                         * lines:
4D3C  1D                 sizelineinfo (29)
                         [pc] (line)
4D3D  73                 [01] (115)
4D3E  02                 [02] (115)
4D3F  00                 [03] (115)
4D40  00                 [04] (115)
4D41  73                 [05] (115)
4D42  02                 [06] (115)
4D43  00                 [07] (116)
4D44  00                 [08] (119)
4D45  73                 [09] (119)
4D46  02                 [10] (119)
4D47  00                 [11] (119)
4D48  00                 [12] (119)
4D49  73                 [13] (119)
4D4A  02                 [14] (119)
4D4B  00                 [15] (119)
4D4C  00                 [16] (119)
4D4D  73                 [17] (119)
4D4E  02                 [18] (119)
4D4F  00                 [19] (119)
4D50  00                 [20] (120)
4D51  73                 [21] (120)
4D52  02                 [22] (120)
4D53  00                 [23] (120)
4D54  00                 [24] (120)
4D55  74                 [25] (120)
4D56  02                 [26] (120)
4D57  00                 [27] (120)
4D58  00                 [28] (120)
4D59  77                 [29] (121)
                         * locals:
4DB1  00                 sizelocvars (0)
                         * upvalues:
4DB2  00                 sizeupvalues (0)
                         ** end of function **

                         
4DB3                     ** function [5] definition (level 3)
                         ** start of function **
4DB3  00                 string size (0)
                         source name: (none)
4DB5  04                 line defined (635)
4DB6  9C                 last line defined (668)
4DB7  05                 nups (6)
4DB8  06                 numparams (1)
4DB9  01                 is_vararg (0)
4DBA  00                 maxstacksize (5)
                         * code:
4DBC  59                 sizecode (89)
4DBD  4E004000           [01] gettable   1   0   256  ; "Filler"
4DC1  58000000           [02] test       1       0    ; to [4] if true
4DC5  1A000080           [03] jmp        1            ; to [5]
4DC9  1E008000           [04] return     0   1      
4DCD  53000000           [05] getupval   1   0      
4DD1  4E40C000           [06] gettable   1   1   257  ; "mFocusedMenuElement"
fail op	35
4DD5  6380C000           [07] close      1  
4DD9  1A800880           [08] jmp        35           ; to [44]
4DDD  53000000           [09] getupval   1   0      
4DE1  4E40C000           [10] gettable   1   1   257  ; "mFocusedMenuElement"
4DE5  4EC0C000           [11] gettable   1   1   259  ; "mClipName"
fail op	35
4DE9  6380C000           [12] close      1  
4DED  1A400780           [13] jmp        30           ; to [44]
4DF1  53000000           [14] getupval   1   0      
4DF5  4E40C000           [15] gettable   1   1   257  ; "mFocusedMenuElement"
4DF9  4E00C100           [16] gettable   1   1   260  ; "Id"
4DFD  8E004100           [17] gettable   2   0   260  ; "Id"
fail op	35
4E01  23808000           [18] close      0  
4E05  1AC00580           [19] jmp        24           ; to [44]
4E09  5D400100           [20] getglobal  1   5        ; 1491452635
4E0D  62808000           [21] call       1   1   2  
4E11  93008000           [22] getupval   2   1      
4E15  98000000           [23] test       2       0    ; to [25] if true
4E19  1A400380           [24] jmp        14           ; to [39]
4E1D  9D800100           [25] getglobal  2   6        ; Engine
4E21  8EC04101           [26] gettable   2   2   263  ; -1802437008
4E25  A2808000           [27] call       2   1   2  
4E29  98400000           [28] test       2       1    ; to [30] if false
4E2D  1A000180           [29] jmp        5            ; to [35]
4E31  93000000           [30] getupval   2   0      
4E35  8E004201           [31] gettable   2   2   264  ; "mPressTime"
4E39  8D808000           [32] sub        2   1   2  
fail op	21
4E3D  15404201           [33] concat     0   2   265
4E41  1AC00080           [34] jmp        4            ; to [39]
4E45  93000000           [35] getupval   2   0      
4E49  8C804284           [36] settable   2   264 266  ; "mPressTime" 0
4E4D  93000001           [37] getupval   2   2      
4E51  A2408000           [38] call       2   1   1  
4E55  93000000           [39] getupval   2   0      
4E59  DD400100           [40] getglobal  3   5        ; 1491452635
4E5D  E2808000           [41] call       3   1   2  
4E61  8CC00084           [42] settable   2   264 3    ; "mPressTime"
4E65  1E008000           [43] return     0   1      
4E69  93000000           [44] getupval   2   0      
4E6D  DD400100           [45] getglobal  3   5        ; 1491452635
4E71  E2808000           [46] call       3   1   2  
4E75  8CC00084           [47] settable   2   264 3    ; "mPressTime"
4E79  93000000           [48] getupval   2   0      
4E7D  8E404001           [49] gettable   2   2   257  ; "mFocusedMenuElement"
4E81  D3000000           [50] getupval   3   0      
4E85  CC008080           [51] settable   3   257 0    ; "mFocusedMenuElement"
4E89  DDC00200           [52] getglobal  3   11       ; 1074689893
4E8D  12010001           [53] move       4   2      
4E91  E2800001           [54] call       3   2   2  
4E95  D8400000           [55] test       3       1    ; to [57] if false
4E99  1A800180           [56] jmp        7            ; to [64]
4E9D  CEC04001           [57] gettable   3   2   259  ; "mClipName"
4EA1  D8000000           [58] test       3       0    ; to [60] if true
4EA5  1AC00080           [59] jmp        4            ; to [64]
4EA9  D3000000           [60] getupval   3   0      
4EAD  CE00C301           [61] gettable   3   3   268  ; -1552746934
4EB1  12010001           [62] move       4   2      
4EB5  E2400001           [63] call       3   2   1  
4EB9  DDC00200           [64] getglobal  3   11       ; 1074689893
4EBD  12010000           [65] move       4   0      
4EC1  E2800001           [66] call       3   2   2  
4EC5  D8400000           [67] test       3       1    ; to [69] if false
4EC9  1A800180           [68] jmp        7            ; to [76]
4ECD  CEC04000           [69] gettable   3   0   259  ; "mClipName"
4ED1  D8000000           [70] test       3       0    ; to [72] if true
4ED5  1AC00080           [71] jmp        4            ; to [76]
4ED9  D3000000           [72] getupval   3   0      
4EDD  CE00C301           [73] gettable   3   3   268  ; -1552746934
4EE1  12010000           [74] move       4   0      
4EE5  E2400001           [75] call       3   2   1  
4EE9  D3008000           [76] getupval   3   1      
4EED  D8000000           [77] test       3       0    ; to [79] if true
4EF1  1A400080           [78] jmp        2            ; to [81]
4EF5  D3008001           [79] getupval   3   3      
4EF9  E2408000           [80] call       3   1   1  
4EFD  D3000002           [81] getupval   3   4      
4F01  0E014100           [82] gettable   4   0   260  ; "Id"
4F05  E2400001           [83] call       3   2   1  
4F09  D3008002           [84] getupval   3   5      
4F0D  CE40C301           [85] gettable   3   3   269  ; 630793108
4F11  1D810300           [86] getglobal  4   14       ; _G
4F15  0EC14302           [87] gettable   4   4   271  ; "UISound_Select"
4F19  E2400001           [88] call       3   2   1  
4F1D  1E008000           [89] return     0   1      
                         * constants:
4F21  10                 sizek (16)
4F22  04                 const type 4
4F23  07                 string size (7)
4F24  46696C6C657200     "Filler\0"
                         const [0]: "Filler"
4F2B  04                 const type 4
4F2C  14                 string size (20)
4F2D  6D466F6375736564+  "mFocused"
4F35  4D656E75456C656D+  "MenuElem"
4F3D  656E7400           "ent\0"
                         const [1]: "mFocusedMenuElement"
4F41  00                 const type 0
                         const [2]: nil
4F42  04                 const type 4
4F43  0A                 string size (10)
4F44  6D436C69704E616D+  "mClipNam"
4F4C  6500               "e\0"
                         const [3]: "mClipName"
4F4E  04                 const type 4
4F4F  03                 string size (3)
4F50  496400             "Id\0"
                         const [4]: "Id"
4F53  01                 const type 3
4F54  DBC2E558           const [5]: (1491452635)
4F58  04                 const type 4
4F59  07                 string size (7)
4F5A  456E67696E6500     "Engine\0"
                         const [6]: "Engine"
4F61  01                 const type 3
4F62  70FE9094           const [7]: (-1802437008)
4F66  04                 const type 4
4F67  0B                 string size (11)
4F68  6D50726573735469+  "mPressTi"
4F70  6D6500             "me\0"
                         const [8]: "mPressTime"
4F73  03                 const type 3
4F74  0000003F           const [9]: (0)
4F78  03                 const type 3
4F79  00000000           const [10]: (0)
4F7D  01                 const type 3
4F7E  65770E40           const [11]: (1074689893)
4F82  01                 const type 3
4F83  4AF672A3           const [12]: (-1552746934)
4F87  01                 const type 3
4F88  94239925           const [13]: (630793108)
4F8C  04                 const type 4
4F8D  03                 string size (3)
4F8E  5F4700             "_G\0"
                         const [14]: "_G"
4F91  04                 const type 4
4F92  0F                 string size (15)
4F93  5549536F756E645F+  "UISound_"
4F9B  53656C65637400     "Select\0"
                         const [15]: "UISound_Select"
                         * functions:
4FA2  00                 sizep (0)
                         * lines:
4FA3  59                 sizelineinfo (89)
                         [pc] (line)
4FA4  7C                 [01] (124)
4FA5  02                 [02] (124)
4FA6  00                 [03] (124)
4FA7  00                 [04] (125)
4FA8  7C                 [05] (-128)
4FA9  02                 [06] (-128)
4FAA  00                 [07] (-128)
4FAB  00                 [08] (-128)
4FAC  7C                 [09] (-128)
4FAD  02                 [10] (-128)
4FAE  00                 [11] (-128)
4FAF  00                 [12] (-128)
4FB0  7D                 [13] (-128)
4FB1  02                 [14] (-127)
4FB2  00                 [15] (-127)
4FB3  00                 [16] (-127)
4FB4  80                 [17] (-127)
4FB5  02                 [18] (-127)
4FB6  00                 [19] (-127)
4FB7  00                 [20] (-126)
4FB8  80                 [21] (-126)
4FB9  02                 [22] (-125)
4FBA  00                 [23] (-125)
4FBB  00                 [24] (-125)
4FBC  80                 [25] (-125)
4FBD  02                 [26] (-125)
4FBE  00                 [27] (-125)
4FBF  00                 [28] (-125)
4FC0  80                 [29] (-125)
4FC1  02                 [30] (-125)
4FC2  00                 [31] (-125)
4FC3  00                 [32] (-125)
4FC4  80                 [33] (-125)
4FC5  02                 [34] (-125)
4FC6  00                 [35] (-124)
4FC7  00                 [36] (-124)
4FC8  80                 [37] (-123)
4FC9  02                 [38] (-123)
4FCA  00                 [39] (-121)
4FCB  00                 [40] (-121)
4FCC  80                 [41] (-121)
4FCD  02                 [42] (-121)
4FCE  00                 [43] (-120)
4FCF  00                 [44] (-116)
4FD0  80                 [45] (-116)
4FD1  02                 [46] (-116)
4FD2  00                 [47] (-116)
4FD3  00                 [48] (-115)
4FD4  80                 [49] (-115)
4FD5  02                 [50] (-114)
4FD6  00                 [51] (-114)
4FD7  00                 [52] (-113)
4FD8  81                 [53] (-113)
4FD9  02                 [54] (-113)
4FDA  00                 [55] (-113)
4FDB  00                 [56] (-113)
4FDC  81                 [57] (-113)
4FDD  02                 [58] (-113)
4FDE  00                 [59] (-113)
4FDF  00                 [60] (-112)
4FE0  81                 [61] (-112)
4FE1  02                 [62] (-112)
4FE2  00                 [63] (-112)
4FE3  00                 [64] (-110)
4FE4  81                 [65] (-110)
4FE5  02                 [66] (-110)
4FE6  00                 [67] (-110)
4FE7  00                 [68] (-110)
4FE8  81                 [69] (-110)
4FE9  02                 [70] (-110)
4FEA  00                 [71] (-110)
4FEB  00                 [72] (-109)
4FEC  81                 [73] (-109)
4FED  02                 [74] (-109)
4FEE  00                 [75] (-109)
4FEF  00                 [76] (-106)
4FF0  82                 [77] (-106)
4FF1  02                 [78] (-106)
4FF2  00                 [79] (-105)
4FF3  00                 [80] (-105)
4FF4  82                 [81] (-102)
4FF5  02                 [82] (-102)
4FF6  00                 [83] (-102)
4FF7  00                 [84] (-101)
4FF8  83                 [85] (-101)
4FF9  02                 [86] (-101)
4FFA  00                 [87] (-101)
4FFB  00                 [88] (-101)
4FFC  83                 [89] (-100)
                         * locals:
5108  00                 sizelocvars (0)
                         * upvalues:
5109  00                 sizeupvalues (0)
                         ** end of function **

                         
510A                     ** function [6] definition (level 3)
                         ** start of function **
510A  00                 string size (0)
                         source name: (none)
510C  05                 line defined (670)
510D  A0                 last line defined (672)
510E  05                 nups (1)
510F  01                 numparams (1)
5110  01                 is_vararg (0)
5111  00                 maxstacksize (3)
                         * code:
5113  06                 sizecode (6)
5114  53000000           [1] getupval   1   0      
5118  4E00C000           [2] gettable   1   1   256  ; 630793108
511C  9D400000           [3] getglobal  2   1        ; _G
5120  8E804001           [4] gettable   2   2   258  ; "UISound_Select"
5124  62400001           [5] call       1   2   1  
5128  1E008000           [6] return     0   1      
                         * constants:
512C  03                 sizek (3)
512D  01                 const type 3
512E  94239925           const [0]: (630793108)
5132  04                 const type 4
5133  03                 string size (3)
5134  5F4700             "_G\0"
                         const [1]: "_G"
5137  04                 const type 4
5138  0F                 string size (15)
5139  5549536F756E645F+  "UISound_"
5141  53656C65637400     "Select\0"
                         const [2]: "UISound_Select"
                         * functions:
5148  00                 sizep (0)
                         * lines:
5149  06                 sizelineinfo (6)
                         [pc] (line)
514A  9F                 [1] (-97)
514B  02                 [2] (-97)
514C  00                 [3] (-97)
514D  00                 [4] (-97)
514E  9F                 [5] (-97)
514F  02                 [6] (-96)
                         * locals:
5162  00                 sizelocvars (0)
                         * upvalues:
5163  00                 sizeupvalues (0)
                         ** end of function **

                         * lines:
5164  62                 sizelineinfo (98)
                         [pc] (line)
5165  0D                 [01] (13)
5166  02                 [02] (13)
5167  00                 [03] (13)
5168  00                 [04] (14)
5169  0D                 [05] (14)
516A  02                 [06] (14)
516B  00                 [07] (14)
516C  00                 [08] (14)
516D  0D                 [09] (14)
516E  02                 [10] (14)
516F  00                 [11] (15)
5170  00                 [12] (15)
5171  0E                 [13] (15)
5172  02                 [14] (15)
5173  00                 [15] (15)
5174  00                 [16] (15)
5175  0E                 [17] (15)
5176  02                 [18] (16)
5177  00                 [19] (16)
5178  00                 [20] (17)
5179  0E                 [21] (17)
517A  02                 [22] (18)
517B  00                 [23] (18)
517C  00                 [24] (19)
517D  0E                 [25] (19)
517E  02                 [26] (20)
517F  00                 [27] (20)
5180  00                 [28] (21)
5181  0E                 [29] (21)
5182  02                 [30] (22)
5183  00                 [31] (22)
5184  00                 [32] (23)
5185  0E                 [33] (23)
5186  02                 [34] (24)
5187  00                 [35] (24)
5188  00                 [36] (24)
5189  0E                 [37] (24)
518A  02                 [38] (24)
518B  00                 [39] (25)
518C  00                 [40] (25)
518D  0F                 [41] (25)
518E  02                 [42] (25)
518F  00                 [43] (25)
5190  00                 [44] (26)
5191  0F                 [45] (26)
5192  02                 [46] (26)
5193  00                 [47] (27)
5194  00                 [48] (27)
5195  0F                 [49] (28)
5196  02                 [50] (28)
5197  00                 [51] (29)
5198  00                 [52] (29)
5199  0F                 [53] (29)
519A  02                 [54] (30)
519B  00                 [55] (30)
519C  00                 [56] (30)
519D  0F                 [57] (31)
519E  02                 [58] (31)
519F  00                 [59] (31)
51A0  00                 [60] (32)
51A1  0F                 [61] (44)
51A2  02                 [62] (44)
51A3  00                 [63] (44)
51A4  00                 [64] (45)
51A5  0F                 [65] (48)
51A6  02                 [66] (48)
51A7  00                 [67] (48)
51A8  00                 [68] (48)
51A9  10                 [69] (49)
51AA  02                 [70] (57)
51AB  00                 [71] (57)
51AC  00                 [72] (57)
51AD  10                 [73] (57)
51AE  02                 [74] (58)
51AF  00                 [75] (112)
51B0  00                 [76] (112)
51B1  11                 [77] (112)
51B2  02                 [78] (112)
51B3  00                 [79] (112)
51B4  00                 [80] (113)
51B5  11                 [81] (121)
51B6  02                 [82] (121)
51B7  00                 [83] (121)
51B8  00                 [84] (121)
51B9  12                 [85] (122)
51BA  02                 [86] (-100)
51BB  00                 [87] (-100)
51BC  00                 [88] (-100)
51BD  12                 [89] (-100)
51BE  02                 [90] (-100)
51BF  00                 [91] (-100)
51C0  00                 [92] (-100)
51C1  13                 [93] (-100)
51C2  02                 [94] (-99)
51C3  00                 [95] (-96)
51C4  00                 [96] (-96)
51C5  13                 [97] (-96)
51C6  02                 [98] (-95)
                         * locals:
52ED  00                 sizelocvars (0)
                         * upvalues:
52EE  00                 sizeupvalues (0)
                         ** end of function **

                         
52EF                     ** function [24] definition (level 2)
                         ** start of function **
52EF  00                 string size (0)
                         source name: (none)
52F1  05                 line defined (675)
52F2  D2                 last line defined (722)
52F3  05                 nups (7)
52F4  07                 numparams (0)
52F5  00                 is_vararg (0)
52F6  00                 maxstacksize (27)
                         * code:
52F9  01                 sizecode (132)
52FA  13000000           [001] getupval   0   0      
fail op	35
52FE  23004000           [002] close      0  
5302  1A000180           [003] jmp        5            ; to [9]
5306  13008000           [004] getupval   0   1      
530A  24404000           [005] self       0   0   257  ; 1632191879
530E  99800000           [006] loadk      2   2        ; -51
5312  D3000001           [007] getupval   3   2      
5316  22400002           [008] call       0   4   1  
531A  1DC00000           [009] getglobal  0   3        ; 1074689893
531E  53000000           [010] getupval   1   0      
5322  22800001           [011] call       0   2   2  
5326  18400000           [012] test       0       1    ; to [14] if false
532A  1A401D80           [013] jmp        118          ; to [132]
532E  1DC00000           [014] getglobal  0   3        ; 1074689893
5332  5D000100           [015] getglobal  1   4        ; _T
5336  93000000           [016] getupval   2   0      
533A  4E808000           [017] gettable   1   1   2  
533E  22800001           [018] call       0   2   2  
5342  18400000           [019] test       0       1    ; to [21] if false
5346  1A801B80           [020] jmp        111          ; to [132]
534A  1D000100           [021] getglobal  0   4        ; _T
534E  53000000           [022] getupval   1   0      
5352  0E400000           [023] gettable   0   0   1  
5356  22808000           [024] call       0   1   2  
535A  59400100           [025] loadk      1   5        ; 0
535E  8A000000           [026] len        2   0      
5362  D9400100           [027] loadk      3   5        ; 0
5366  50801280           [028] forprep    1   75       ; to [104]
536A  4E010100           [029] gettable   5   0   4  
536E  4E81C102           [030] gettable   5   5   262  ; "Print"
5372  9DC10100           [031] getglobal  6   7        ; table
5376  8E014203           [032] gettable   6   6   264  ; -431682403
537A  D3018001           [033] getupval   7   3      
537E  12028002           [034] move       8   5      
5382  A2418001           [035] call       6   3   1  
5386  8E41C202           [036] gettable   6   5   265  ; "mDominantTraits"
538A  8E814203           [037] gettable   6   6   266  ; "mPersonality"
538E  CEC1C202           [038] gettable   7   5   267  ; "mName"
5392  1D020300           [039] getglobal  8   12       ; imprintTexture
5396  46020005           [040] loadnil    9   10     
539A  D9420300           [041] loadk      11  13       ; ""
539E  19430100           [042] loadk      12  5        ; 0
53A2  53030002           [043] getupval   13  4      
53A6  4A038006           [044] len        13  13     
53AA  99430100           [045] loadk      14  5        ; 0
53AE  10830980           [046] forprep    12  39       ; to [86]
53B2  13040002           [047] getupval   16  4      
53B6  0EC40308           [048] gettable   16  16  15 
53BA  4E844308           [049] gettable   17  16  270  ; "Type"
fail op	35
53BE  23808108           [050] close      0  
53C2  1A400880           [051] jmp        34           ; to [86]
53C6  CEC24308           [052] gettable   11  16  271  ; "Name"
fail op	35
53CA  2340C303           [053] close      0  
53CE  1A400180           [054] jmp        6            ; to [61]
53D2  5D040400           [055] getglobal  17  16       ; mMovie
53D6  6444C408           [056] self       17  17  273  ; 98241492
53DA  D2048005           [057] move       19  11     
53DE  17050000           [058] loadbool   20  0   0    ; false
53E2  62840002           [059] call       17  4   2  
53E6  D2018008           [060] move       7   17     
53EA  53048002           [061] getupval   17  5      
53EE  4E84C308           [062] gettable   17  17  270  ; "Type"
fail op	35
53F2  23808108           [063] close      0  
53F6  1A800280           [064] jmp        11           ; to [76]
53FA  9D820400           [065] getglobal  10  18       ; vampireKavatIcon
53FE  1DC20400           [066] getglobal  8   19       ; imprintVascaTexture
5402  5D040400           [067] getglobal  17  16       ; mMovie
5406  6444C408           [068] self       17  17  273  ; 98241492
540A  D9040500           [069] loadk      19  20       ; "/Lotus/Language/Pets/VascaDrawnImprintName"
540E  17050000           [070] loadbool   20  0   0    ; false
5412  4B450000           [071] newtable   21  0   1    ; array=0, hash=1
5416  4CC5818A           [072] settable   21  277 7    ; "NAME"
541A  62848002           [073] call       17  5   2  
541E  52028008           [074] move       9   17     
5422  1A800280           [075] jmp        11           ; to [87]
5426  8E824508           [076] gettable   10  16  278  ; "Icon"
542A  5D040400           [077] getglobal  17  16       ; mMovie
542E  6444C408           [078] self       17  17  273  ; 98241492
5432  D9C40500           [079] loadk      19  23       ; "/Lotus/Language/Items/ImprintedTraitPrintName"
5436  17050000           [080] loadbool   20  0   0    ; false
543A  4B450000           [081] newtable   21  0   1    ; array=0, hash=1
543E  4CC5818A           [082] settable   21  277 7    ; "NAME"
5442  62848002           [083] call       17  5   2  
5446  52028008           [084] move       9   17     
544A  1A000080           [085] jmp        1            ; to [87]
544E  14C3F57F           [086] forloop    12  -40      ; to [47] if loop
5452  53040003           [087] getupval   17  6      
5456  6404C608           [088] self       17  17  280  ; -1484936978
545A  CB440200           [089] newtable   19  0   9    ; array=0, hash=9
545E  CC84828C           [090] settable   19  281 10   ; "PetIcon"
5462  CCC4028D           [091] settable   19  282 11   ; "PetTypeName"
5466  0E050100           [092] gettable   20  0   4  
546A  0E05470A           [093] gettable   20  20  284  ; "Id"
546E  CC04858D           [094] settable   19  283 20   ; "ImprintId"
5472  CC44C18E           [095] settable   19  285 261  ; "Count" 0
5476  CC448287           [096] settable   19  271 9    ; "Name"
547A  CC840187           [097] settable   19  270 6    ; "Type"
547E  0EC5C702           [098] gettable   20  5   287  ; "mIsMale"
5482  CC04058F           [099] settable   19  286 20   ; "IsMale"
5486  CC04028B           [100] settable   19  278 8    ; "Icon"
548A  CC444890           [101] settable   19  288 289  ; "Themed" 1
548E  17058000           [102] loadbool   20  1   0    ; true
5492  62440002           [103] call       17  4   1  
5496  54C0EC7F           [104] forloop    1   -76      ; to [29] if loop
549A  5D840800           [105] getglobal  17  34       ; math
549E  4EC4C808           [106] gettable   17  17  291  ; -1124579617
54A2  93040003           [107] getupval   18  6      
54A6  8E044909           [108] gettable   18  18  292  ; "mRows"
54AA  D3040003           [109] getupval   19  6      
54AE  CE44C909           [110] gettable   19  19  293  ; "mUnfilteredElements"
54B2  CA048009           [111] len        19  19     
54B6  8DC40409           [112] sub        18  18  19 
54BA  D9840900           [113] loadk      19  38       ; 0
54BE  62848001           [114] call       17  3   2  
54C2  99440100           [115] loadk      18  5        ; 0
54C6  D2048008           [116] move       19  17     
54CA  19450100           [117] loadk      20  5        ; 0
54CE  90440180           [118] forprep    18  6        ; to [125]
54D2  93050003           [119] getupval   22  6      
54D6  A405460B           [120] self       22  22  280  ; -1484936978
54DA  0B460000           [121] newtable   24  0   1    ; array=0, hash=1
54DE  0C46C893           [122] settable   24  295 289  ; "Filler" 1
54E2  57068000           [123] loadbool   25  1   0    ; true
54E6  A2450002           [124] call       22  4   1  
54EA  9404FE7F           [125] forloop    18  -7       ; to [119] if loop
54EE  93050003           [126] getupval   22  6      
54F2  A4054A0B           [127] self       22  22  296  ; 1685109492
54F6  0606000C           [128] loadnil    24  24     
54FA  57068000           [129] loadbool   25  1   0    ; true
54FE  97068000           [130] loadbool   26  1   0    ; true
5502  A2458002           [131] call       22  5   1  
5506  1E008000           [132] return     0   1      
                         * constants:
550A  29                 sizek (41)
550B  00                 const type 0
                         const [0]: nil
550C  01                 const type 3
550D  87454961           const [1]: (1632191879)
5511  03                 const type 3
5512  CDCCCC3D           const [2]: (-51)
5516  01                 const type 3
5517  65770E40           const [3]: (1074689893)
551B  04                 const type 4
551C  03                 string size (3)
551D  5F5400             "_T\0"
                         const [4]: "_T"
5520  03                 const type 3
5521  0000803F           const [5]: (0)
5525  04                 const type 4
5526  06                 string size (6)
5527  5072696E7400       "Print\0"
                         const [6]: "Print"
552D  04                 const type 4
552E  06                 string size (6)
552F  7461626C6500       "table\0"
                         const [7]: "table"
5535  01                 const type 3
5536  9D0C45E6           const [8]: (-431682403)
553A  04                 const type 4
553B  10                 string size (16)
553C  6D446F6D696E616E+  "mDominan"
5544  7454726169747300   "tTraits\0"
                         const [9]: "mDominantTraits"
554C  04                 const type 4
554D  0D                 string size (13)
554E  6D506572736F6E61+  "mPersona"
5556  6C69747900         "lity\0"
                         const [10]: "mPersonality"
555B  04                 const type 4
555C  06                 string size (6)
555D  6D4E616D6500       "mName\0"
                         const [11]: "mName"
5563  04                 const type 4
5564  0F                 string size (15)
5565  696D7072696E7454+  "imprintT"
556D  65787475726500     "exture\0"
                         const [12]: "imprintTexture"
5574  04                 const type 4
5575  01                 string size (0)
                         const [13]: ""
5577  04                 const type 4
5578  05                 string size (5)
5579  5479706500         "Type\0"
                         const [14]: "Type"
557E  04                 const type 4
557F  05                 string size (5)
5580  4E616D6500         "Name\0"
                         const [15]: "Name"
5585  04                 const type 4
5586  07                 string size (7)
5587  6D4D6F76696500     "mMovie\0"
                         const [16]: "mMovie"
558E  01                 const type 3
558F  D40BDB05           const [17]: (98241492)
5593  04                 const type 4
5594  11                 string size (17)
5595  76616D706972654B+  "vampireK"
559D  6176617449636F6E+  "avatIcon"
55A5  00                 "\0"
                         const [18]: "vampireKavatIcon"
55A6  04                 const type 4
55A7  14                 string size (20)
55A8  696D7072696E7456+  "imprintV"
55B0  6173636154657874+  "ascaText"
55B8  75726500           "ure\0"
                         const [19]: "imprintVascaTexture"
55BC  04                 const type 4
55BD  2B                 string size (43)
55BE  2F4C6F7475732F4C+  "/Lotus/L"
55C6  616E67756167652F+  "anguage/"
55CE  506574732F566173+  "Pets/Vas"
55D6  6361447261776E49+  "caDrawnI"
55DE  6D7072696E744E61+  "mprintNa"
55E6  6D6500             "me\0"
                         const [20]: "/Lotus/Language/Pets/VascaDrawnImprintName"
55E9  04                 const type 4
55EA  05                 string size (5)
55EB  4E414D4500         "NAME\0"
                         const [21]: "NAME"
55F0  04                 const type 4
55F1  05                 string size (5)
55F2  49636F6E00         "Icon\0"
                         const [22]: "Icon"
55F7  04                 const type 4
55F8  2E                 string size (46)
55F9  2F4C6F7475732F4C+  "/Lotus/L"
5601  616E67756167652F+  "anguage/"
5609  4974656D732F496D+  "Items/Im"
5611  7072696E74656454+  "printedT"
5619  726169745072696E+  "raitPrin"
5621  744E616D6500       "tName\0"
                         const [23]: "/Lotus/Language/Items/ImprintedTraitPrintName"
5627  01                 const type 3
5628  EEA87DA7           const [24]: (-1484936978)
562C  04                 const type 4
562D  08                 string size (8)
562E  50657449636F6E00   "PetIcon\0"
                         const [25]: "PetIcon"
5636  04                 const type 4
5637  0C                 string size (12)
5638  506574547970654E+  "PetTypeN"
5640  616D6500           "ame\0"
                         const [26]: "PetTypeName"
5644  04                 const type 4
5645  0A                 string size (10)
5646  496D7072696E7449+  "ImprintI"
564E  6400               "d\0"
                         const [27]: "ImprintId"
5650  04                 const type 4
5651  03                 string size (3)
5652  496400             "Id\0"
                         const [28]: "Id"
5655  04                 const type 4
5656  06                 string size (6)
5657  436F756E7400       "Count\0"
                         const [29]: "Count"
565D  04                 const type 4
565E  07                 string size (7)
565F  49734D616C6500     "IsMale\0"
                         const [30]: "IsMale"
5666  04                 const type 4
5667  08                 string size (8)
5668  6D49734D616C6500   "mIsMale\0"
                         const [31]: "mIsMale"
5670  04                 const type 4
5671  07                 string size (7)
5672  5468656D656400     "Themed\0"
                         const [32]: "Themed"
5679  01                 const type 3
567A  01000000           const [33]: (1)
567E  04                 const type 4
567F  05                 string size (5)
5680  6D61746800         "math\0"
                         const [34]: "math"
5685  01                 const type 3
5686  DF46F8BC           const [35]: (-1124579617)
568A  04                 const type 4
568B  06                 string size (6)
568C  6D526F777300       "mRows\0"
                         const [36]: "mRows"
5692  04                 const type 4
5693  14                 string size (20)
5694  6D556E66696C7465+  "mUnfilte"
569C  726564456C656D65+  "redEleme"
56A4  6E747300           "nts\0"
                         const [37]: "mUnfilteredElements"
56A8  03                 const type 3
56A9  00000000           const [38]: (0)
56AD  04                 const type 4
56AE  07                 string size (7)
56AF  46696C6C657200     "Filler\0"
                         const [39]: "Filler"
56B6  01                 const type 3
56B7  F4BA7064           const [40]: (1685109492)
                         * functions:
56BB  00                 sizep (0)
                         * lines:
56BD  01                 sizelineinfo (132)
                         [pc] (line)
56BE  A4                 [001] (-92)
56BF  02                 [002] (-92)
56C0  00                 [003] (-92)
56C1  00                 [004] (-91)
56C2  A4                 [005] (-91)
56C3  02                 [006] (-91)
56C4  00                 [007] (-91)
56C5  00                 [008] (-91)
56C6  A4                 [009] (-88)
56C7  02                 [010] (-88)
56C8  00                 [011] (-88)
56C9  00                 [012] (-88)
56CA  A5                 [013] (-88)
56CB  02                 [014] (-88)
56CC  00                 [015] (-88)
56CD  00                 [016] (-88)
56CE  A5                 [017] (-88)
56CF  02                 [018] (-88)
56D0  00                 [019] (-88)
56D1  00                 [020] (-88)
56D2  A5                 [021] (-86)
56D3  02                 [022] (-86)
56D4  00                 [023] (-86)
56D5  00                 [024] (-86)
56D6  A5                 [025] (-85)
56D7  02                 [026] (-85)
56D8  00                 [027] (-85)
56D9  00                 [028] (-85)
56DA  A5                 [029] (-84)
56DB  02                 [030] (-84)
56DC  00                 [031] (-83)
56DD  00                 [032] (-83)
56DE  A8                 [033] (-83)
56DF  02                 [034] (-83)
56E0  00                 [035] (-83)
56E1  00                 [036] (-82)
56E2  A8                 [037] (-82)
56E3  02                 [038] (-81)
56E4  00                 [039] (-80)
56E5  00                 [040] (-79)
56E6  A8                 [041] (-77)
56E7  02                 [042] (-76)
56E8  00                 [043] (-76)
56E9  00                 [044] (-76)
56EA  A8                 [045] (-76)
56EB  02                 [046] (-76)
56EC  00                 [047] (-75)
56ED  00                 [048] (-75)
56EE  A8                 [049] (-74)
56EF  02                 [050] (-74)
56F0  00                 [051] (-74)
56F1  00                 [052] (-73)
56F2  A8                 [053] (-71)
56F3  02                 [054] (-71)
56F4  00                 [055] (-70)
56F5  00                 [056] (-70)
56F6  A8                 [057] (-70)
56F7  02                 [058] (-70)
56F8  00                 [059] (-70)
56F9  00                 [060] (-70)
56FA  A8                 [061] (-67)
56FB  02                 [062] (-67)
56FC  00                 [063] (-67)
56FD  00                 [064] (-67)
56FE  A8                 [065] (-66)
56FF  02                 [066] (-65)
5700  00                 [067] (-64)
5701  00                 [068] (-64)
5702  A8                 [069] (-64)
5703  02                 [070] (-64)
5704  00                 [071] (-64)
5705  00                 [072] (-64)
5706  A8                 [073] (-64)
5707  02                 [074] (-64)
5708  00                 [075] (-64)
5709  00                 [076] (-62)
570A  A8                 [077] (-61)
570B  02                 [078] (-61)
570C  00                 [079] (-61)
570D  00                 [080] (-61)
570E  AA                 [081] (-61)
570F  02                 [082] (-61)
5710  00                 [083] (-61)
5711  00                 [084] (-61)
5712  AA                 [085] (-59)
5713  02                 [086] (-76)
5714  00                 [087] (-55)
5715  00                 [088] (-55)
5716  AA                 [089] (-55)
5717  02                 [090] (-55)
5718  00                 [091] (-55)
5719  00                 [092] (-55)
571A  AA                 [093] (-55)
571B  02                 [094] (-55)
571C  00                 [095] (-55)
571D  00                 [096] (-55)
571E  AB                 [097] (-55)
571F  02                 [098] (-55)
5720  00                 [099] (-55)
5721  00                 [100] (-55)
5722  AB                 [101] (-55)
5723  02                 [102] (-55)
5724  00                 [103] (-55)
5725  00                 [104] (-85)
5726  AB                 [105] (-52)
5727  02                 [106] (-52)
5728  00                 [107] (-52)
5729  00                 [108] (-52)
572A  AB                 [109] (-52)
572B  02                 [110] (-52)
572C  00                 [111] (-52)
572D  00                 [112] (-52)
572E  AC                 [113] (-52)
572F  02                 [114] (-52)
5730  00                 [115] (-51)
5731  00                 [116] (-51)
5732  AC                 [117] (-51)
5733  02                 [118] (-51)
5734  00                 [119] (-50)
5735  00                 [120] (-50)
5736  AD                 [121] (-50)
5737  02                 [122] (-50)
5738  00                 [123] (-50)
5739  00                 [124] (-50)
573A  AD                 [125] (-51)
573B  02                 [126] (-48)
573C  00                 [127] (-48)
573D  00                 [128] (-48)
573E  AD                 [129] (-48)
573F  02                 [130] (-48)
5740  00                 [131] (-48)
5741  00                 [132] (-46)
                         * locals:
58CE  00                 sizelocvars (0)
                         * upvalues:
58CF  00                 sizeupvalues (0)
                         ** end of function **

                         
58D0                     ** function [25] definition (level 2)
                         ** start of function **
58D0  00                 string size (0)
                         source name: (none)
58D2  05                 line defined (724)
58D3  E5                 last line defined (741)
58D4  05                 nups (2)
58D5  02                 numparams (0)
58D6  00                 is_vararg (0)
58D7  00                 maxstacksize (14)
                         * code:
58D9  39                 sizecode (57)
58DA  1D000000           [01] getglobal  0   0        ; 1074689893
58DE  53000000           [02] getupval   1   0      
58E2  22800001           [03] call       0   2   2  
58E6  18000000           [04] test       0       0    ; to [6] if true
58EA  1A000080           [05] jmp        1            ; to [7]
58EE  1E008000           [06] return     0   1      
58F2  13000000           [07] getupval   0   0      
58F6  0E404000           [08] gettable   0   0   257  ; "mRows"
58FA  53000000           [09] getupval   1   0      
58FE  4E80C000           [10] gettable   1   1   258  ; "mRowSeparation"
5902  04400000           [11] mul        0   0   1  
5906  0DC04000           [12] sub        0   0   259  ; 0
590A  5D000100           [13] getglobal  1   4        ; -174740002
590E  9D400100           [14] getglobal  2   5        ; mMovie
5912  A4804101           [15] self       2   2   262  ; 1803241227
5916  19C10100           [16] loadk      4   7        ; "ImprintPanel"
591A  59010200           [17] loadk      5   8        ; "_y"
591E  A2000002           [18] call       2   4   0  
5922  62800000           [19] call       1   0   2  
5926  93008000           [20] getupval   2   1      
592A  8E404201           [21] gettable   2   2   265  ; -1736116097
592E  DD400100           [22] getglobal  3   5        ; mMovie
5932  12010000           [23] move       4   0      
5936  A2808001           [24] call       2   3   2  
593A  D3008000           [25] getupval   3   1      
593E  CE80C201           [26] gettable   3   3   266  ; 1704170870
5942  1D410100           [27] getglobal  4   5        ; mMovie
5946  5CC14200           [28] div        5   0   267  ; 0
594A  43418100           [29] add        5   1   5  
594E  E2808001           [30] call       3   3   2  
5952  0B018001           [31] newtable   4   3   0    ; array=3, hash=0
5956  5D010300           [32] getglobal  5   12       ; visibleRangeRectangleMaterial
595A  9D410300           [33] getglobal  6   13       ; visibleRangeMaterial
595E  DD810300           [34] getglobal  7   14       ; visibleRangeTextMaterial
5962  1B418001           [35] setlist    4   3   1    ; index 1 to 3
5966  5DC10300           [36] getglobal  5   15       ; 248503575
596A  92010002           [37] move       6   4      
596E  62010101           [38] call       5   2   4  
5972  1A800380           [39] jmp        15           ; to [55]
5976  A402C404           [40] self       10  9   272  ; -1795477990
597A  1D430400           [41] getglobal  12  17       ; Lotus_Game
597E  0E834406           [42] gettable   12  12  274  ; "VISIBILITY_SIZE"
5982  52030001           [43] move       13  2      
5986  A2420002           [44] call       10  4   1  
598A  A402C404           [45] self       10  9   272  ; -1795477990
598E  1D430400           [46] getglobal  12  17       ; Lotus_Game
5992  0EC34406           [47] gettable   12  12  275  ; "VISIBILITY_CENTER"
5996  52038001           [48] move       13  3      
599A  A2420002           [49] call       10  4   1  
599E  A402C404           [50] self       10  9   272  ; -1795477990
59A2  1D430400           [51] getglobal  12  17       ; Lotus_Game
59A6  0E034506           [52] gettable   12  12  276  ; "VISIBILITY_FADE_SIZE"
59AA  59430500           [53] loadk      13  21       ; 10
59AE  A2420002           [54] call       10  4   1  
59B2  56810000           [55] tforloop   5       2    ; to [57] if exit
59B6  1A80FB7F           [56] jmp        -17          ; to [40]
59BA  1E008000           [57] return     0   1      
                         * constants:
59BE  16                 sizek (22)
59BF  01                 const type 3
59C0  65770E40           const [0]: (1074689893)
59C4  04                 const type 4
59C5  06                 string size (6)
59C6  6D526F777300       "mRows\0"
                         const [1]: "mRows"
59CC  04                 const type 4
59CD  0F                 string size (15)
59CE  6D526F7753657061+  "mRowSepa"
59D6  726174696F6E00     "ration\0"
                         const [2]: "mRowSeparation"
59DD  03                 const type 3
59DE  00002041           const [3]: (0)
59E2  01                 const type 3
59E3  DEAD95F5           const [4]: (-174740002)
59E7  04                 const type 4
59E8  07                 string size (7)
59E9  6D4D6F76696500     "mMovie\0"
                         const [5]: "mMovie"
59F0  01                 const type 3
59F1  0B477B6B           const [6]: (1803241227)
59F5  04                 const type 4
59F6  0D                 string size (13)
59F7  496D7072696E7450+  "ImprintP"
59FF  616E656C00         "anel\0"
                         const [7]: "ImprintPanel"
5A04  04                 const type 4
5A05  03                 string size (3)
5A06  5F7900             "_y\0"
                         const [8]: "_y"
5A09  01                 const type 3
5A0A  7FF88498           const [9]: (-1736116097)
5A0E  01                 const type 3
5A0F  76959365           const [10]: (1704170870)
5A13  03                 const type 3
5A14  00000040           const [11]: (0)
5A18  04                 const type 4
5A19  1E                 string size (30)
5A1A  76697369626C6552+  "visibleR"
5A22  616E676552656374+  "angeRect"
5A2A  616E676C654D6174+  "angleMat"
5A32  657269616C00       "erial\0"
                         const [12]: "visibleRangeRectangleMaterial"
5A38  04                 const type 4
5A39  15                 string size (21)
5A3A  76697369626C6552+  "visibleR"
5A42  616E67654D617465+  "angeMate"
5A4A  7269616C00         "rial\0"
                         const [13]: "visibleRangeMaterial"
5A4F  04                 const type 4
5A50  19                 string size (25)
5A51  76697369626C6552+  "visibleR"
5A59  616E676554657874+  "angeText"
5A61  4D6174657269616C+  "Material"
5A69  00                 "\0"
                         const [14]: "visibleRangeTextMaterial"
5A6A  01                 const type 3
5A6B  17DDCF0E           const [15]: (248503575)
5A6F  01                 const type 3
5A70  1A2EFB94           const [16]: (-1795477990)
5A74  04                 const type 4
5A75  0B                 string size (11)
5A76  4C6F7475735F4761+  "Lotus_Ga"
5A7E  6D6500             "me\0"
                         const [17]: "Lotus_Game"
5A81  04                 const type 4
5A82  10                 string size (16)
5A83  5649534942494C49+  "VISIBILI"
5A8B  54595F53495A4500   "TY_SIZE\0"
                         const [18]: "VISIBILITY_SIZE"
5A93  04                 const type 4
5A94  12                 string size (18)
5A95  5649534942494C49+  "VISIBILI"
5A9D  54595F43454E5445+  "TY_CENTE"
5AA5  5200               "R\0"
                         const [19]: "VISIBILITY_CENTER"
5AA7  04                 const type 4
5AA8  15                 string size (21)
5AA9  5649534942494C49+  "VISIBILI"
5AB1  54595F464144455F+  "TY_FADE_"
5AB9  53495A4500         "SIZE\0"
                         const [20]: "VISIBILITY_FADE_SIZE"
5ABE  03                 const type 3
5ABF  0AD7A33B           const [21]: (10)
                         * functions:
5AC3  00                 sizep (0)
                         * lines:
5AC4  39                 sizelineinfo (57)
                         [pc] (line)
5AC5  D5                 [01] (-43)
5AC6  02                 [02] (-43)
5AC7  00                 [03] (-43)
5AC8  00                 [04] (-43)
5AC9  D5                 [05] (-43)
5ACA  02                 [06] (-42)
5ACB  00                 [07] (-39)
5ACC  00                 [08] (-39)
5ACD  D5                 [09] (-39)
5ACE  02                 [10] (-39)
5ACF  00                 [11] (-39)
5AD0  00                 [12] (-39)
5AD1  D5                 [13] (-38)
5AD2  02                 [14] (-38)
5AD3  00                 [15] (-38)
5AD4  00                 [16] (-38)
5AD5  D5                 [17] (-38)
5AD6  02                 [18] (-38)
5AD7  00                 [19] (-38)
5AD8  00                 [20] (-36)
5AD9  D6                 [21] (-36)
5ADA  02                 [22] (-36)
5ADB  00                 [23] (-36)
5ADC  00                 [24] (-36)
5ADD  D9                 [25] (-35)
5ADE  02                 [26] (-35)
5ADF  00                 [27] (-35)
5AE0  00                 [28] (-35)
5AE1  D9                 [29] (-35)
5AE2  02                 [30] (-35)
5AE3  00                 [31] (-33)
5AE4  00                 [32] (-33)
5AE5  D9                 [33] (-33)
5AE6  02                 [34] (-33)
5AE7  00                 [35] (-33)
5AE8  00                 [36] (-32)
5AE9  D9                 [37] (-32)
5AEA  02                 [38] (-32)
5AEB  00                 [39] (-32)
5AEC  00                 [40] (-31)
5AED  D9                 [41] (-31)
5AEE  02                 [42] (-31)
5AEF  00                 [43] (-31)
5AF0  00                 [44] (-31)
5AF1  D9                 [45] (-30)
5AF2  02                 [46] (-30)
5AF3  00                 [47] (-30)
5AF4  00                 [48] (-30)
5AF5  DA                 [49] (-30)
5AF6  02                 [50] (-29)
5AF7  00                 [51] (-29)
5AF8  00                 [52] (-29)
5AF9  DA                 [53] (-29)
5AFA  02                 [54] (-29)
5AFB  00                 [55] (-32)
5AFC  00                 [56] (-29)
5AFD  DA                 [57] (-27)
                         * locals:
5BA9  00                 sizelocvars (0)
                         * upvalues:
5BAA  00                 sizeupvalues (0)
                         ** end of function **

                         
5BAB                     ** function [26] definition (level 2)
                         ** start of function **
5BAB  00                 string size (0)
                         source name: (none)
5BAD  05                 line defined (743)
5BAE  F0                 last line defined (752)
5BAF  05                 nups (2)
5BB0  02                 numparams (1)
5BB1  01                 is_vararg (0)
5BB2  00                 maxstacksize (8)
                         * code:
5BB4  1A                 sizecode (26)
5BB5  59000000           [01] loadk      1   0        ; "/Lotus/Language/Menu/CompanionImprints"
5BB9  93000000           [02] getupval   2   0      
5BBD  98000000           [03] test       2       0    ; to [5] if true
5BC1  1A000080           [04] jmp        1            ; to [6]
5BC5  59400000           [05] loadk      1   1        ; "/Lotus/Language/Menu/SelectImprint"
5BC9  9D800000           [06] getglobal  2   2        ; 1074689893
5BCD  DDC00000           [07] getglobal  3   3        ; _T
5BD1  CE00C101           [08] gettable   3   3   260  ; "SetSquadOverlayTitle"
5BD5  A2800001           [09] call       2   2   2  
5BD9  98400000           [10] test       2       1    ; to [12] if false
5BDD  1A400380           [11] jmp        14           ; to [26]
5BE1  9DC00000           [12] getglobal  2   3        ; _T
5BE5  8E404101           [13] gettable   2   2   261  ; 1453523133
5BE9  DD800100           [14] getglobal  3   6        ; mMovie
5BED  E4C0C101           [15] self       3   3   263  ; 98241492
5BF1  53018000           [16] getupval   5   1      
5BF5  97010000           [17] loadbool   6   0   0    ; false
5BF9  E2800002           [18] call       3   4   2  
5BFD  1D810100           [19] getglobal  4   6        ; mMovie
5C01  24C14102           [20] self       4   4   263  ; 98241492
5C05  92018000           [21] move       6   1      
5C09  D7010000           [22] loadbool   7   0   0    ; false
5C0D  22810002           [23] call       4   4   2  
5C11  52010000           [24] move       5   0      
5C15  A2400002           [25] call       2   4   1  
5C19  1E008000           [26] return     0   1      
                         * constants:
5C1D  08                 sizek (8)
5C1E  04                 const type 4
5C1F  27                 string size (39)
5C20  2F4C6F7475732F4C+  "/Lotus/L"
5C28  616E67756167652F+  "anguage/"
5C30  4D656E752F436F6D+  "Menu/Com"
5C38  70616E696F6E496D+  "panionIm"
5C40  7072696E747300     "prints\0"
                         const [0]: "/Lotus/Language/Menu/CompanionImprints"
5C47  04                 const type 4
5C48  23                 string size (35)
5C49  2F4C6F7475732F4C+  "/Lotus/L"
5C51  616E67756167652F+  "anguage/"
5C59  4D656E752F53656C+  "Menu/Sel"
5C61  656374496D707269+  "ectImpri"
5C69  6E7400             "nt\0"
                         const [1]: "/Lotus/Language/Menu/SelectImprint"
5C6C  01                 const type 3
5C6D  65770E40           const [2]: (1074689893)
5C71  04                 const type 4
5C72  03                 string size (3)
5C73  5F5400             "_T\0"
                         const [3]: "_T"
5C76  04                 const type 4
5C77  15                 string size (21)
5C78  5365745371756164+  "SetSquad"
5C80  4F7665726C617954+  "OverlayT"
5C88  69746C6500         "itle\0"
                         const [4]: "SetSquadOverlayTitle"
5C8D  01                 const type 3
5C8E  BD00A356           const [5]: (1453523133)
5C92  04                 const type 4
5C93  07                 string size (7)
5C94  6D4D6F76696500     "mMovie\0"
                         const [6]: "mMovie"
5C9B  01                 const type 3
5C9C  D40BDB05           const [7]: (98241492)
                         * functions:
5CA0  00                 sizep (0)
                         * lines:
5CA1  1A                 sizelineinfo (26)
                         [pc] (line)
5CA2  E8                 [01] (-24)
5CA3  02                 [02] (-23)
5CA4  00                 [03] (-23)
5CA5  00                 [04] (-23)
5CA6  E9                 [05] (-22)
5CA7  02                 [06] (-19)
5CA8  00                 [07] (-19)
5CA9  00                 [08] (-19)
5CAA  E9                 [09] (-19)
5CAB  02                 [10] (-19)
5CAC  00                 [11] (-19)
5CAD  00                 [12] (-18)
5CAE  E9                 [13] (-18)
5CAF  02                 [14] (-18)
5CB0  00                 [15] (-18)
5CB1  00                 [16] (-18)
5CB2  EA                 [17] (-18)
5CB3  02                 [18] (-18)
5CB4  00                 [19] (-18)
5CB5  00                 [20] (-18)
5CB6  ED                 [21] (-18)
5CB7  02                 [22] (-18)
5CB8  00                 [23] (-18)
5CB9  00                 [24] (-18)
5CBA  ED                 [25] (-18)
5CBB  02                 [26] (-16)
                         * locals:
5D0A  00                 sizelocvars (0)
                         * upvalues:
5D0B  00                 sizeupvalues (0)
                         ** end of function **

                         
5D0C                     ** function [27] definition (level 2)
                         ** start of function **
5D0C  00                 string size (0)
                         source name: (none)
5D0E  05                 line defined (754)
5D0F  D3                 last line defined (851)
5D10  06                 nups (20)
5D11  14                 numparams (0)
5D12  00                 is_vararg (0)
5D13  00                 maxstacksize (17)
                         * code:
5D16  01                 sizecode (218)
5D17  1D000000           [001] getglobal  0   0        ; 849075268
5D1B  59400000           [002] loadk      1   1        ; "Lotus.Interface.Libs.TimerMgr"
5D1F  22800001           [003] call       0   2   2  
5D23  4E804000           [004] gettable   1   0   258  ; -1029178688
5D27  62808000           [005] call       1   1   2  
fail op	8
5D2B  48000000           [006] setupval   1   0      
5D2F  5DC00000           [007] getglobal  1   3        ; _T
5D33  4C404182           [008] settable   1   260 261  ; "KubrowPreviewOpen" 1
5D37  53008000           [009] getupval   1   1      
5D3B  4E80C100           [010] gettable   1   1   262  ; -1262767739
5D3F  97008000           [011] loadbool   2   1   0    ; true
5D43  62400001           [012] call       1   2   1  
5D47  53008001           [013] getupval   1   3      
5D4B  4EC0C100           [014] gettable   1   1   263  ; 1191123516
5D4F  9D000200           [015] getglobal  2   8        ; mMovie
5D53  62800001           [016] call       1   2   2  
fail op	8
5D57  48000001           [017] setupval   1   2      
5D5B  53000001           [018] getupval   1   2      
5D5F  6440C200           [019] self       1   1   265  ; -1716902634
5D63  DD000200           [020] getglobal  3   8        ; mMovie
5D67  19810200           [021] loadk      4   10       ; "ImprintPanel"
5D6B  4B010001           [022] newtable   5   2   0    ; array=2, hash=0
5D6F  93010001           [023] getupval   6   2      
5D73  8EC14203           [024] gettable   6   6   267  ; "ANCHOR_H_LEFT"
5D77  D3010001           [025] getupval   7   2      
5D7B  CE01C303           [026] gettable   7   7   268  ; "ANCHOR_V_TOP"
5D7F  5B410001           [027] setlist    5   2   1    ; index 1 to 2
5D83  62408002           [028] call       1   5   1  
5D87  53000001           [029] getupval   1   2      
5D8B  6440C300           [030] self       1   1   269  ; -1938777623
5D8F  DD000200           [031] getglobal  3   8        ; mMovie
5D93  E480C301           [032] self       3   3   270  ; -174729759
5D97  E2800001           [033] call       3   2   2  
5D9B  1D010200           [034] getglobal  4   8        ; mMovie
5D9F  24C14302           [035] self       4   4   271  ; -301556379
5DA3  22010001           [036] call       4   2   0  
5DA7  62400000           [037] call       1   0   1  
5DAB  57000000           [038] loadbool   1   0   0    ; false
5DAF  9D000400           [039] getglobal  2   16       ; 1074689893
5DB3  DD400400           [040] getglobal  3   17       ; gPlayerProfileMgr
5DB7  E480C401           [041] self       3   3   274  ; 569342746
5DBB  59C10400           [042] loadk      5   19       ; 0
5DBF  E2008001           [043] call       3   3   0  
5DC3  A2800000           [044] call       2   0   2  
5DC7  98400000           [045] test       2       1    ; to [47] if false
5DCB  1AC00480           [046] jmp        20           ; to [67]
5DCF  9D400400           [047] getglobal  2   17       ; gPlayerProfileMgr
5DD3  A4804401           [048] self       2   2   274  ; 569342746
5DD7  19C10400           [049] loadk      4   19       ; 0
5DDB  A2808001           [050] call       2   3   2  
5DDF  A4004501           [051] self       2   2   276  ; 1699680402
5DE3  A2800001           [052] call       2   2   2  
fail op	8
5DE7  88000002           [053] setupval   2   4      
5DEB  58000000           [054] test       1       0    ; to [56] if true
5DEF  1A800280           [055] jmp        11           ; to [67]
5DF3  9D400500           [056] getglobal  2   21       ; table
5DF7  8E804501           [057] gettable   2   2   278  ; -431682403
5DFB  D3008002           [058] getupval   3   5      
5DFF  13010002           [059] getupval   4   4      
5E03  24C14502           [060] self       4   4   279  ; 1865287165
5E07  22810001           [061] call       4   2   2  
5E0B  24014602           [062] self       4   4   280  ; 892650483
5E0F  22810001           [063] call       4   2   2  
5E13  0E414602           [064] gettable   4   4   281  ; 0
5E17  0E814602           [065] gettable   4   4   282  ; "mDetails"
5E1B  A2408001           [066] call       2   3   1  
5E1F  99400600           [067] loadk      2   25       ; 0
5E23  D3000003           [068] getupval   3   6      
5E27  CA008001           [069] len        3   3      
5E2B  19410600           [070] loadk      4   25       ; 0
5E2F  90000180           [071] forprep    2   5        ; to [77]
5E33  93010003           [072] getupval   6   6      
5E37  8E410103           [073] gettable   6   6   5  
5E3B  DD010700           [074] getglobal  7   28       ; temperamentTextures
5E3F  CE418103           [075] gettable   7   7   5  
5E43  8CC1818D           [076] settable   6   283 7    ; "Icon"
5E47  9440FE7F           [077] forloop    2   -6       ; to [72] if loop
5E4B  93018003           [078] getupval   6   7      
5E4F  A2418000           [079] call       6   1   1  
5E53  93010004           [080] getupval   6   8      
5E57  8E414703           [081] gettable   6   6   285  ; 630793108
5E5B  DD810700           [082] getglobal  7   30       ; _G
5E5F  CEC1C703           [083] gettable   7   7   287  ; "UISound_Open"
5E63  A2410001           [084] call       6   2   1  
5E67  93018004           [085] getupval   6   9      
fail op	35
5E6B  23004803           [086] close      0  
5E6F  1A800180           [087] jmp        7            ; to [95]
5E73  9D010000           [088] getglobal  6   0        ; 849075268
5E77  D9410800           [089] loadk      7   33       ; "Lotus.Interface.Libs.DioramaLoader"
5E7B  A2810001           [090] call       6   2   2  
5E7F  CE814803           [091] gettable   7   6   290  ; -1069406678
5E83  1D020200           [092] getglobal  8   8        ; mMovie
5E87  E2810001           [093] call       7   2   2  
fail op	8
5E8B  C8018004           [094] setupval   7   9      
5E8F  D3010005           [095] getupval   7   10     
5E93  E2418000           [096] call       7   1   1  
5E97  DD010200           [097] getglobal  7   8        ; mMovie
5E9B  E4C1C803           [098] self       7   7   291  ; 471456102
5E9F  59020900           [099] loadk      9   36       ; "InterpAnchor"
5EA3  99420900           [100] loadk      10  37       ; "text"
5EA7  D9820900           [101] loadk      11  38       ; ""
5EAB  E2418002           [102] call       7   5   1  
5EAF  DD010000           [103] getglobal  7   0        ; 849075268
5EB3  19C20900           [104] loadk      8   39       ; "Lotus.Interface.Components.ThemedSpinner"
5EB7  E2810001           [105] call       7   2   2  
5EBB  0EC2C103           [106] gettable   8   7   263  ; 1191123516
5EBF  5D020200           [107] getglobal  9   8        ; mMovie
5EC3  99020A00           [108] loadk      10  40       ; "Spinner"
5EC7  22828001           [109] call       8   3   2  
fail op	8
5ECB  08028005           [110] setupval   8   11     
5ECF  13028005           [111] getupval   8   11     
5ED3  24424A04           [112] self       8   8   297  ; -492641364
5ED7  97028000           [113] loadbool   10  1   0    ; true
5EDB  22428001           [114] call       8   3   1  
5EDF  1D020200           [115] getglobal  8   8        ; mMovie
5EE3  24C24804           [116] self       8   8   291  ; 471456102
5EE7  99820200           [117] loadk      10  10       ; "ImprintPanel"
5EEB  D9820A00           [118] loadk      11  42       ; "_alpha"
5EEF  19C30400           [119] loadk      12  19       ; 0
5EF3  22428002           [120] call       8   5   1  
5EF7  13020006           [121] getupval   8   12     
5EFB  22428000           [122] call       8   1   1  
5EFF  13028006           [123] getupval   8   13     
5F03  22428000           [124] call       8   1   1  
5F07  1D020200           [125] getglobal  8   8        ; mMovie
5F0B  24C24A04           [126] self       8   8   299  ; 98241492
5F0F  99020B00           [127] loadk      10  44       ; "/Lotus/Language/Menu/SearchPrompt"
5F13  D7020000           [128] loadbool   11  0   0    ; false
5F17  22820002           [129] call       8   4   2  
5F1B  5D020000           [130] getglobal  9   0        ; 849075268
5F1F  99420B00           [131] loadk      10  45       ; "Lotus.Interface.Components.ThemedInputField"
5F23  62820001           [132] call       9   2   2  
5F27  8EC2C104           [133] gettable   10  9   263  ; 1191123516
5F2B  DD020200           [134] getglobal  11  8        ; mMovie
5F2F  19830B00           [135] loadk      12  46       ; "ImprintPanel.SearchBox"
5F33  46030007           [136] loadnil    13  14     
5F37  D9C30B00           [137] loadk      15  47       ; "<MENU_LTHUMB>"
5F3B  A2820003           [138] call       10  6   2  
fail op	8
5F3F  88020007           [139] setupval   10  14     
5F43  93020007           [140] getupval   10  14     
5F47  A4024C05           [141] self       10  10  304  ; 2026214587
5F4B  13030007           [142] getupval   12  14     
5F4F  0E434C06           [143] gettable   12  12  305  ; "TYPE"
5F53  0E834C06           [144] gettable   12  12  306  ; "PLAIN"
5F57  52030004           [145] move       13  8      
5F5B  92030004           [146] move       14  8      
5F5F  A2428002           [147] call       10  5   1  
5F63  93020007           [148] getupval   10  14     
5F67  8C02CD99           [149] settable   10  307 308  ; "mMinSize" 0
5F6B  93020007           [150] getupval   10  14     
5F6F  8C02CD9A           [151] settable   10  309 308  ; "mMaxSize" 0
5F73  93020007           [152] getupval   10  14     
5F77  8CC24D9B           [153] settable   10  310 311  ; "mTextBuffer" 0
5F7B  93020007           [154] getupval   10  14     
5F7F  DD820700           [155] getglobal  11  30       ; _G
5F83  CE42CE05           [156] gettable   11  11  313  ; "UITexture_Search"
5F87  8CC2029C           [157] settable   10  312 11   ; "mAltButtonIcon"
5F8B  93020007           [158] getupval   10  14     
5F8F  8C42419D           [159] settable   10  314 261  ; "mAltButtonVisible" 1
5F93  93020007           [160] getupval   10  14     
5F97  8C02C89D           [161] settable   10  315 288  ; "mUnfocusedUnderlineColorOverride" nil
5F9B  93020007           [162] getupval   10  14     
5F9F  D3020007           [163] getupval   11  14     
5FA3  CE42CF05           [164] gettable   11  11  317  ; "InputFieldTextChanged"
5FA7  8CC2029E           [165] settable   10  316 11   ; "BaseInputFieldTextChanged"
5FAB  93020007           [166] getupval   10  14     
5FAF  E5020000           [167] closure    11  0      
5FB3  13008007           [168] getupval   0   15     
5FB7  8CC2829E           [169] settable   10  317 11   ; "InputFieldTextChanged"
5FBB  93020007           [170] getupval   10  14     
5FBF  D3020007           [171] getupval   11  14     
5FC3  CEC2CF05           [172] gettable   11  11  319  ; "OnGamepadTransition"
5FC7  8CC2029F           [173] settable   10  318 11   ; "BaseOnGamepadTransition"
5FCB  93020007           [174] getupval   10  14     
5FCF  E5420000           [175] closure    11  1      
5FD3  8CC2829F           [176] settable   10  319 11   ; "OnGamepadTransition"
5FD7  93020007           [177] getupval   10  14     
5FDB  A4025005           [178] self       10  10  320  ; 928782246
5FDF  19030B00           [179] loadk      12  44       ; "/Lotus/Language/Menu/SearchPrompt"
5FE3  A2428001           [180] call       10  3   1  
5FE7  93020007           [181] getupval   10  14     
5FEB  A4425005           [182] self       10  10  321  ; 1685109492
5FEF  A2420001           [183] call       10  2   1  
5FF3  93020008           [184] getupval   10  16     
5FF7  A2428000           [185] call       10  1   1  
5FFB  9D821000           [186] getglobal  10  66       ; 1390508688
5FFF  DD020200           [187] getglobal  11  8        ; mMovie
6003  19C31000           [188] loadk      12  67       ; "_root"
6007  5D031100           [189] getglobal  13  68       ; UISys
600B  4E43D106           [190] gettable   13  13  325  ; "FlashInstance_LINEAR"
600F  8B038000           [191] newtable   14  1   0    ; array=1, hash=0
6013  D9830A00           [192] loadk      15  42       ; "_alpha"
6017  9B438000           [193] setlist    14  1   1    ; index 1 to 1
601B  CB038000           [194] newtable   15  1   0    ; array=1, hash=0
601F  19841100           [195] loadk      16  70       ; 0
6023  DB438000           [196] setlist    15  1   1    ; index 1 to 1
6027  19C41100           [197] loadk      16  71       ; 0
602B  A2428003           [198] call       10  7   1  
602F  97028000           [199] loadbool   10  1   0    ; true
fail op	8
6033  88028008           [200] setupval   10  17     
6037  9D020200           [201] getglobal  10  8        ; mMovie
603B  A4025205           [202] self       10  10  328  ; -403402525
603F  19C30400           [203] loadk      12  19       ; 0
6043  A2428001           [204] call       10  3   1  
6047  97028000           [205] loadbool   10  1   0    ; true
604B  98020000           [206] test       10      0    ; to [208] if true
604F  1AC00180           [207] jmp        8            ; to [216]
6053  DD020400           [208] getglobal  11  16       ; 1074689893
6057  1D431200           [209] getglobal  12  73       ; kubrowDiorama
605B  E2820001           [210] call       11  2   2  
605F  D8420000           [211] test       11      1    ; to [213] if false
6063  1A800080           [212] jmp        3            ; to [216]
6067  D3020009           [213] getupval   11  18     
606B  1D431200           [214] getglobal  12  73       ; kubrowDiorama
606F  E2420001           [215] call       11  2   1  
6073  D7020000           [216] loadbool   11  0   0    ; false
fail op	8
6077  C8028009           [217] setupval   11  19     
607B  1E008000           [218] return     0   1      
                         * constants:
607F  4A                 sizek (74)
6080  01                 const type 3
6081  44DC9B32           const [0]: (849075268)
6085  04                 const type 4
6086  1E                 string size (30)
6087  4C6F7475732E496E+  "Lotus.In"
608F  746572666163652E+  "terface."
6097  4C6962732E54696D+  "Libs.Tim"
609F  65724D677200       "erMgr\0"
                         const [1]: "Lotus.Interface.Libs.TimerMgr"
60A5  01                 const type 3
60A6  C0FAA7C2           const [2]: (-1029178688)
60AA  04                 const type 4
60AB  03                 string size (3)
60AC  5F5400             "_T\0"
                         const [3]: "_T"
60AF  04                 const type 4
60B0  12                 string size (18)
60B1  4B7562726F775072+  "KubrowPr"
60B9  65766965774F7065+  "eviewOpe"
60C1  6E00               "n\0"
                         const [4]: "KubrowPreviewOpen"
60C3  01                 const type 3
60C4  01000000           const [5]: (1)
60C8  01                 const type 3
60C9  85B1BBB4           const [6]: (-1262767739)
60CD  01                 const type 3
60CE  3C1AFF46           const [7]: (1191123516)
60D2  04                 const type 4
60D3  07                 string size (7)
60D4  6D4D6F76696500     "mMovie\0"
                         const [8]: "mMovie"
60DB  01                 const type 3
60DC  1625AA99           const [9]: (-1716902634)
60E0  04                 const type 4
60E1  0D                 string size (13)
60E2  496D7072696E7450+  "ImprintP"
60EA  616E656C00         "anel\0"
                         const [10]: "ImprintPanel"
60EF  04                 const type 4
60F0  0E                 string size (14)
60F1  414E43484F525F48+  "ANCHOR_H"
60F9  5F4C45465400       "_LEFT\0"
                         const [11]: "ANCHOR_H_LEFT"
60FF  04                 const type 4
6100  0D                 string size (13)
6101  414E43484F525F56+  "ANCHOR_V"
6109  5F544F5000         "_TOP\0"
                         const [12]: "ANCHOR_V_TOP"
610E  01                 const type 3
610F  E999708C           const [13]: (-1938777623)
6113  01                 const type 3
6114  E1D595F5           const [14]: (-174729759)
6118  01                 const type 3
6119  659D06EE           const [15]: (-301556379)
611D  01                 const type 3
611E  65770E40           const [16]: (1074689893)
6122  04                 const type 4
6123  12                 string size (18)
6124  67506C6179657250+  "gPlayerP"
612C  726F66696C654D67+  "rofileMg"
6134  7200               "r\0"
                         const [17]: "gPlayerProfileMgr"
6136  01                 const type 3
6137  1A7BEF21           const [18]: (569342746)
613B  03                 const type 3
613C  00000000           const [19]: (0)
6140  01                 const type 3
6141  92104F65           const [20]: (1699680402)
6145  04                 const type 4
6146  06                 string size (6)
6147  7461626C6500       "table\0"
                         const [21]: "table"
614D  01                 const type 3
614E  9D0C45E6           const [22]: (-431682403)
6152  01                 const type 3
6153  FD052E6F           const [23]: (1865287165)
6157  01                 const type 3
6158  F3C33435           const [24]: (892650483)
615C  03                 const type 3
615D  0000803F           const [25]: (0)
6161  04                 const type 4
6162  09                 string size (9)
6163  6D44657461696C73+  "mDetails"
616B  00                 "\0"
                         const [26]: "mDetails"
616C  04                 const type 4
616D  05                 string size (5)
616E  49636F6E00         "Icon\0"
                         const [27]: "Icon"
6173  04                 const type 4
6174  14                 string size (20)
6175  74656D706572616D+  "temperam"
617D  656E745465787475+  "entTextu"
6185  72657300           "res\0"
                         const [28]: "temperamentTextures"
6189  01                 const type 3
618A  94239925           const [29]: (630793108)
618E  04                 const type 4
618F  03                 string size (3)
6190  5F4700             "_G\0"
                         const [30]: "_G"
6193  04                 const type 4
6194  0D                 string size (13)
6195  5549536F756E645F+  "UISound_"
619D  4F70656E00         "Open\0"
                         const [31]: "UISound_Open"
61A2  00                 const type 0
                         const [32]: nil
61A3  04                 const type 4
61A4  23                 string size (35)
61A5  4C6F7475732E496E+  "Lotus.In"
61AD  746572666163652E+  "terface."
61B5  4C6962732E44696F+  "Libs.Dio"
61BD  72616D614C6F6164+  "ramaLoad"
61C5  657200             "er\0"
                         const [33]: "Lotus.Interface.Libs.DioramaLoader"
61C8  01                 const type 3
61C9  2A2642C0           const [34]: (-1069406678)
61CD  01                 const type 3
61CE  66D9191C           const [35]: (471456102)
61D2  04                 const type 4
61D3  0D                 string size (13)
61D4  496E74657270416E+  "InterpAn"
61DC  63686F7200         "chor\0"
                         const [36]: "InterpAnchor"
61E1  04                 const type 4
61E2  05                 string size (5)
61E3  7465787400         "text\0"
                         const [37]: "text"
61E8  04                 const type 4
61E9  01                 string size (0)
                         const [38]: ""
61EB  04                 const type 4
61EC  29                 string size (41)
61ED  4C6F7475732E496E+  "Lotus.In"
61F5  746572666163652E+  "terface."
61FD  436F6D706F6E656E+  "Componen"
6205  74732E5468656D65+  "ts.Theme"
620D  645370696E6E6572+  "dSpinner"
6215  00                 "\0"
                         const [39]: "Lotus.Interface.Components.ThemedSpinner"
6216  04                 const type 4
6217  08                 string size (8)
6218  5370696E6E657200   "Spinner\0"
                         const [40]: "Spinner"
6220  01                 const type 3
6221  ACE3A2E2           const [41]: (-492641364)
6225  04                 const type 4
6226  07                 string size (7)
6227  5F616C70686100     "_alpha\0"
                         const [42]: "_alpha"
622E  01                 const type 3
622F  D40BDB05           const [43]: (98241492)
6233  04                 const type 4
6234  22                 string size (34)
6235  2F4C6F7475732F4C+  "/Lotus/L"
623D  616E67756167652F+  "anguage/"
6245  4D656E752F536561+  "Menu/Sea"
624D  72636850726F6D70+  "rchPromp"
6255  7400               "t\0"
                         const [44]: "/Lotus/Language/Menu/SearchPrompt"
6257  04                 const type 4
6258  2C                 string size (44)
6259  4C6F7475732E496E+  "Lotus.In"
6261  746572666163652E+  "terface."
6269  436F6D706F6E656E+  "Componen"
6271  74732E5468656D65+  "ts.Theme"
6279  64496E7075744669+  "dInputFi"
6281  656C6400           "eld\0"
                         const [45]: "Lotus.Interface.Components.ThemedInputField"
6285  04                 const type 4
6286  17                 string size (23)
6287  496D7072696E7450+  "ImprintP"
628F  616E656C2E536561+  "anel.Sea"
6297  726368426F7800     "rchBox\0"
                         const [46]: "ImprintPanel.SearchBox"
629E  04                 const type 4
629F  0E                 string size (14)
62A0  3C4D454E555F4C54+  "<MENU_LT"
62A8  48554D423E00       "HUMB>\0"
                         const [47]: "<MENU_LTHUMB>"
62AE  01                 const type 3
62AF  BB94C578           const [48]: (2026214587)
62B3  04                 const type 4
62B4  05                 string size (5)
62B5  5459504500         "TYPE\0"
                         const [49]: "TYPE"
62BA  04                 const type 4
62BB  06                 string size (6)
62BC  504C41494E00       "PLAIN\0"
                         const [50]: "PLAIN"
62C2  04                 const type 4
62C3  09                 string size (9)
62C4  6D4D696E53697A65+  "mMinSize"
62CC  00                 "\0"
                         const [51]: "mMinSize"
62CD  03                 const type 3
62CE  00003443           const [52]: (0)
62D2  04                 const type 4
62D3  09                 string size (9)
62D4  6D4D617853697A65+  "mMaxSize"
62DC  00                 "\0"
                         const [53]: "mMaxSize"
62DD  04                 const type 4
62DE  0C                 string size (12)
62DF  6D54657874427566+  "mTextBuf"
62E7  66657200           "fer\0"
                         const [54]: "mTextBuffer"
62EB  03                 const type 3
62EC  00008040           const [55]: (0)
62F0  04                 const type 4
62F1  0F                 string size (15)
62F2  6D416C7442757474+  "mAltButt"
62FA  6F6E49636F6E00     "onIcon\0"
                         const [56]: "mAltButtonIcon"
6301  04                 const type 4
6302  11                 string size (17)
6303  5549546578747572+  "UITextur"
630B  655F536561726368+  "e_Search"
6313  00                 "\0"
                         const [57]: "UITexture_Search"
6314  04                 const type 4
6315  12                 string size (18)
6316  6D416C7442757474+  "mAltButt"
631E  6F6E56697369626C+  "onVisibl"
6326  6500               "e\0"
                         const [58]: "mAltButtonVisible"
6328  04                 const type 4
6329  21                 string size (33)
632A  6D556E666F637573+  "mUnfocus"
6332  6564556E6465726C+  "edUnderl"
633A  696E65436F6C6F72+  "ineColor"
6342  4F76657272696465+  "Override"
634A  00                 "\0"
                         const [59]: "mUnfocusedUnderlineColorOverride"
634B  04                 const type 4
634C  1A                 string size (26)
634D  42617365496E7075+  "BaseInpu"
6355  744669656C645465+  "tFieldTe"
635D  78744368616E6765+  "xtChange"
6365  6400               "d\0"
                         const [60]: "BaseInputFieldTextChanged"
6367  04                 const type 4
6368  16                 string size (22)
6369  496E707574466965+  "InputFie"
6371  6C64546578744368+  "ldTextCh"
6379  616E67656400       "anged\0"
                         const [61]: "InputFieldTextChanged"
637F  04                 const type 4
6380  18                 string size (24)
6381  426173654F6E4761+  "BaseOnGa"
6389  6D65706164547261+  "mepadTra"
6391  6E736974696F6E00   "nsition\0"
                         const [62]: "BaseOnGamepadTransition"
6399  04                 const type 4
639A  14                 string size (20)
639B  4F6E47616D657061+  "OnGamepa"
63A3  645472616E736974+  "dTransit"
63AB  696F6E00           "ion\0"
                         const [63]: "OnGamepadTransition"
63AF  01                 const type 3
63B0  A6175C37           const [64]: (928782246)
63B4  01                 const type 3
63B5  F4BA7064           const [65]: (1685109492)
63B9  01                 const type 3
63BA  907AE152           const [66]: (1390508688)
63BE  04                 const type 4
63BF  06                 string size (6)
63C0  5F726F6F7400       "_root\0"
                         const [67]: "_root"
63C6  04                 const type 4
63C7  06                 string size (6)
63C8  554953797300       "UISys\0"
                         const [68]: "UISys"
63CE  04                 const type 4
63CF  15                 string size (21)
63D0  466C617368496E73+  "FlashIns"
63D8  74616E63655F4C49+  "tance_LI"
63E0  4E45415200         "NEAR\0"
                         const [69]: "FlashInstance_LINEAR"
63E5  03                 const type 3
63E6  0000C842           const [70]: (0)
63EA  03                 const type 3
63EB  0000803E           const [71]: (0)
63EF  01                 const type 3
63F0  E390F4E7           const [72]: (-403402525)
63F4  04                 const type 4
63F5  0E                 string size (14)
63F6  6B7562726F774469+  "kubrowDi"
63FE  6F72616D6100       "orama\0"
                         const [73]: "kubrowDiorama"
                         * functions:
6404  02                 sizep (2)
                         
6405                     ** function [0] definition (level 3)
                         ** start of function **
6405  00                 string size (0)
                         source name: (none)
6407  06                 line defined (810)
6408  B7                 last line defined (823)
6409  06                 nups (1)
640A  01                 numparams (2)
640B  02                 is_vararg (0)
640C  00                 maxstacksize (9)
                         * code:
640E  29                 sizecode (41)
640F  8E004000           [01] gettable   2   0   256  ; "mLabel"
6413  E4404000           [02] self       3   0   257  ; 1996076261
6417  52018000           [03] move       5   1      
641B  E2408001           [04] call       3   3   1  
641F  CE004000           [05] gettable   3   0   256  ; "mLabel"
fail op	35
6423  2380C001           [06] close      0  
6427  1AC00080           [07] jmp        4            ; to [12]
642B  DDC00000           [08] getglobal  3   3        ; _G
642F  CE00C101           [09] gettable   3   3   260  ; "UITexture_Search"
6433  D8400000           [10] test       3       1    ; to [12] if false
6437  1A400080           [11] jmp        2            ; to [14]
643B  DDC00000           [12] getglobal  3   3        ; _G
643F  CE40C101           [13] gettable   3   3   261  ; "UITexture_ClearSearch"
6443  0E814100           [14] gettable   4   0   262  ; "mAltButtonicon"
fail op	35
6447  63C00002           [15] close      1  
644B  1AC00180           [16] jmp        8            ; to [25]
644F  0CC00083           [17] settable   0   262 3    ; "mAltButtonicon"
6453  0EC14100           [18] gettable   4   0   263  ; "mMovie"
6457  24014202           [19] self       4   4   264  ; 643307062
645B  8E414200           [20] gettable   6   0   265  ; "mClipName"
645F  D9810200           [21] loadk      7   10       ; ".BtnAlt"
6463  82C10103           [22] concat     6   6   7  
6467  D2018001           [23] move       7   3      
646B  22410002           [24] call       4   4   1  
646F  0E014000           [25] gettable   4   0   256  ; "mLabel"
fail op	35
6473  63000101           [26] close      1  
6477  1A000380           [27] jmp        13           ; to [41]
647B  13010000           [28] getupval   4   0      
fail op	35
647F  63C04202           [29] close      1  
6483  1A400280           [30] jmp        10           ; to [41]
6487  13010000           [31] getupval   4   0      
648B  0C414386           [32] settable   4   268 269  ; "mMuteGridOpenSound" 1
648F  13010000           [33] getupval   4   0      
6493  24814302           [34] self       4   4   270  ; 1685109492
6497  86010003           [35] loadnil    6   6      
649B  D7018000           [36] loadbool   7   1   0    ; true
649F  17028000           [37] loadbool   8   1   0    ; true
64A3  22418002           [38] call       4   5   1  
64A7  13010000           [39] getupval   4   0      
64AB  0CC14386           [40] settable   4   268 271  ; "mMuteGridOpenSound" 0
64AF  1E008000           [41] return     0   1      
                         * constants:
64B3  10                 sizek (16)
64B4  04                 const type 4
64B5  07                 string size (7)
64B6  6D4C6162656C00     "mLabel\0"
                         const [0]: "mLabel"
64BD  01                 const type 3
64BE  E5B4F976           const [1]: (1996076261)
64C2  04                 const type 4
64C3  01                 string size (0)
                         const [2]: ""
64C5  04                 const type 4
64C6  03                 string size (3)
64C7  5F4700             "_G\0"
                         const [3]: "_G"
64CA  04                 const type 4
64CB  11                 string size (17)
64CC  5549546578747572+  "UITextur"
64D4  655F536561726368+  "e_Search"
64DC  00                 "\0"
                         const [4]: "UITexture_Search"
64DD  04                 const type 4
64DE  16                 string size (22)
64DF  5549546578747572+  "UITextur"
64E7  655F436C65617253+  "e_ClearS"
64EF  656172636800       "earch\0"
                         const [5]: "UITexture_ClearSearch"
64F5  04                 const type 4
64F6  0F                 string size (15)
64F7  6D416C7442757474+  "mAltButt"
64FF  6F6E69636F6E00     "onicon\0"
                         const [6]: "mAltButtonicon"
6506  04                 const type 4
6507  07                 string size (7)
6508  6D4D6F76696500     "mMovie\0"
                         const [7]: "mMovie"
650F  01                 const type 3
6510  36165826           const [8]: (643307062)
6514  04                 const type 4
6515  0A                 string size (10)
6516  6D436C69704E616D+  "mClipNam"
651E  6500               "e\0"
                         const [9]: "mClipName"
6520  04                 const type 4
6521  08                 string size (8)
6522  2E42746E416C7400   ".BtnAlt\0"
                         const [10]: ".BtnAlt"
652A  00                 const type 0
                         const [11]: nil
652B  04                 const type 4
652C  13                 string size (19)
652D  6D4D757465477269+  "mMuteGri"
6535  644F70656E536F75+  "dOpenSou"
653D  6E6400             "nd\0"
                         const [12]: "mMuteGridOpenSound"
6540  01                 const type 3
6541  01000000           const [13]: (1)
6545  01                 const type 3
6546  F4BA7064           const [14]: (1685109492)
654A  01                 const type 3
654B  00000000           const [15]: (0)
                         * functions:
654F  00                 sizep (0)
                         * lines:
6550  29                 sizelineinfo (41)
                         [pc] (line)
6551  2B                 [01] (43)
6552  03                 [02] (44)
6553  00                 [03] (44)
6554  00                 [04] (44)
6555  2C                 [05] (45)
6556  03                 [06] (45)
6557  00                 [07] (45)
6558  00                 [08] (45)
6559  2C                 [09] (45)
655A  03                 [10] (45)
655B  00                 [11] (45)
655C  00                 [12] (45)
655D  2C                 [13] (45)
655E  03                 [14] (46)
655F  00                 [15] (46)
6560  00                 [16] (46)
6561  2D                 [17] (47)
6562  03                 [18] (48)
6563  00                 [19] (48)
6564  00                 [20] (48)
6565  2D                 [21] (48)
6566  03                 [22] (48)
6567  00                 [23] (48)
6568  00                 [24] (48)
6569  2D                 [25] (50)
656A  03                 [26] (50)
656B  00                 [27] (50)
656C  00                 [28] (50)
656D  2D                 [29] (50)
656E  03                 [30] (50)
656F  00                 [31] (51)
6570  00                 [32] (51)
6571  2D                 [33] (52)
6572  03                 [34] (52)
6573  00                 [35] (52)
6574  00                 [36] (52)
6575  2D                 [37] (52)
6576  03                 [38] (52)
6577  00                 [39] (53)
6578  00                 [40] (53)
6579  2D                 [41] (55)
                         * locals:
65F5  00                 sizelocvars (0)
                         * upvalues:
65F6  00                 sizeupvalues (0)
                         ** end of function **

                         
65F7                     ** function [1] definition (level 3)
                         ** start of function **
65F7  00                 string size (0)
                         source name: (none)
65F9  06                 line defined (826)
65FA  BF                 last line defined (831)
65FB  06                 nups (0)
65FC  00                 numparams (1)
65FD  01                 is_vararg (0)
65FE  00                 maxstacksize (8)
                         * code:
6600  0F                 sizecode (15)
6601  64004000           [01] self       1   0   256  ; 1696355553
6605  62400001           [02] call       1   2   1  
6609  5D400000           [03] getglobal  1   1        ; Engine
660D  4E80C000           [04] gettable   1   1   258  ; -1802437008
6611  62808000           [05] call       1   1   2  
fail op	9
6615  49008000           [06] settable   1   1   0  
6619  0C408081           [07] settable   0   259 1    ; "mAltButtonVisible"
661D  9D000100           [08] getglobal  2   4        ; mMovie
6621  A4404101           [09] self       2   2   261  ; -2013161817
6625  0E814100           [10] gettable   4   0   262  ; "mClipName"
6629  59C10100           [11] loadk      5   7        ; "BtnAlt"
662D  99010200           [12] loadk      6   8        ; "_visible"
6631  D2018000           [13] move       7   1      
6635  A2400003           [14] call       2   6   1  
6639  1E008000           [15] return     0   1      
                         * constants:
663D  09                 sizek (9)
663E  01                 const type 3
663F  E1541C65           const [0]: (1696355553)
6643  04                 const type 4
6644  07                 string size (7)
6645  456E67696E6500     "Engine\0"
                         const [1]: "Engine"
664C  01                 const type 3
664D  70FE9094           const [2]: (-1802437008)
6651  04                 const type 4
6652  12                 string size (18)
6653  6D416C7442757474+  "mAltButt"
665B  6F6E56697369626C+  "onVisibl"
6663  6500               "e\0"
                         const [3]: "mAltButtonVisible"
6665  04                 const type 4
6666  07                 string size (7)
6667  6D4D6F76696500     "mMovie\0"
                         const [4]: "mMovie"
666E  01                 const type 3
666F  A7960188           const [5]: (-2013161817)
6673  04                 const type 4
6674  0A                 string size (10)
6675  6D436C69704E616D+  "mClipNam"
667D  6500               "e\0"
                         const [6]: "mClipName"
667F  04                 const type 4
6680  07                 string size (7)
6681  42746E416C7400     "BtnAlt\0"
                         const [7]: "BtnAlt"
6688  04                 const type 4
6689  09                 string size (9)
668A  5F76697369626C65+  "_visible"
6692  00                 "\0"
                         const [8]: "_visible"
                         * functions:
6693  00                 sizep (0)
                         * lines:
6694  0F                 sizelineinfo (15)
                         [pc] (line)
6695  3B                 [01] (59)
6696  03                 [02] (59)
6697  00                 [03] (60)
6698  00                 [04] (60)
6699  3B                 [05] (60)
669A  03                 [06] (60)
669B  00                 [07] (61)
669C  00                 [08] (62)
669D  3C                 [09] (62)
669E  03                 [10] (62)
669F  00                 [11] (62)
66A0  00                 [12] (62)
66A1  3C                 [13] (62)
66A2  03                 [14] (62)
66A3  00                 [15] (63)
                         * locals:
66D1  00                 sizelocvars (0)
                         * upvalues:
66D2  00                 sizeupvalues (0)
                         ** end of function **

                         * lines:
66D4  01                 sizelineinfo (218)
                         [pc] (line)
66D5  F3                 [001] (-13)
66D6  02                 [002] (-13)
66D7  00                 [003] (-13)
66D8  00                 [004] (-12)
66D9  F3                 [005] (-12)
66DA  02                 [006] (-12)
66DB  00                 [007] (-10)
66DC  00                 [008] (-10)
66DD  F3                 [009] (-9)
66DE  02                 [010] (-9)
66DF  00                 [011] (-9)
66E0  00                 [012] (-9)
66E1  F4                 [013] (-7)
66E2  02                 [014] (-7)
66E3  00                 [015] (-7)
66E4  00                 [016] (-7)
66E5  F4                 [017] (-7)
66E6  02                 [018] (-6)
66E7  00                 [019] (-6)
66E8  00                 [020] (-6)
66E9  F4                 [021] (-6)
66EA  02                 [022] (-6)
66EB  00                 [023] (-6)
66EC  00                 [024] (-6)
66ED  F6                 [025] (-6)
66EE  02                 [026] (-6)
66EF  00                 [027] (-6)
66F0  00                 [028] (-6)
66F1  F6                 [029] (-5)
66F2  02                 [030] (-5)
66F3  00                 [031] (-5)
66F4  00                 [032] (-5)
66F5  F7                 [033] (-5)
66F6  02                 [034] (-5)
66F7  00                 [035] (-5)
66F8  00                 [036] (-5)
66F9  F7                 [037] (-5)
66FA  02                 [038] (-3)
66FB  00                 [039] (-2)
66FC  00                 [040] (-2)
66FD  F7                 [041] (-2)
66FE  02                 [042] (-2)
66FF  00                 [043] (-2)
6700  00                 [044] (-2)
6701  F7                 [045] (-2)
6702  02                 [046] (-2)
6703  00                 [047] (-1)
6704  00                 [048] (-1)
6705  F9                 [049] (-1)
6706  02                 [050] (-1)
6707  00                 [051] (-1)
6708  00                 [052] (-1)
6709  F9                 [053] (-1)
670A  02                 [054] (0)
670B  00                 [055] (0)
670C  00                 [056] (1)
670D  F9                 [057] (1)
670E  02                 [058] (1)
670F  00                 [059] (1)
6710  00                 [060] (1)
6711  F9                 [061] (1)
6712  02                 [062] (1)
6713  00                 [063] (1)
6714  00                 [064] (1)
6715  F9                 [065] (1)
6716  02                 [066] (1)
6717  00                 [067] (5)
6718  00                 [068] (5)
6719  FA                 [069] (5)
671A  02                 [070] (5)
671B  00                 [071] (5)
671C  00                 [072] (6)
671D  FA                 [073] (6)
671E  02                 [074] (6)
671F  00                 [075] (6)
6720  00                 [076] (6)
6721  FA                 [077] (5)
6722  02                 [078] (9)
6723  00                 [079] (9)
6724  00                 [080] (11)
6725  FA                 [081] (11)
6726  02                 [082] (11)
6727  00                 [083] (11)
6728  00                 [084] (11)
6729  FA                 [085] (13)
672A  02                 [086] (13)
672B  00                 [087] (13)
672C  00                 [088] (14)
672D  FA                 [089] (14)
672E  02                 [090] (14)
672F  00                 [091] (15)
6730  00                 [092] (15)
6731  FA                 [093] (15)
6732  02                 [094] (15)
6733  00                 [095] (18)
6734  00                 [096] (18)
6735  FA                 [097] (19)
6736  02                 [098] (19)
6737  00                 [099] (19)
6738  00                 [100] (19)
6739  FA                 [101] (19)
673A  02                 [102] (19)
673B  00                 [103] (21)
673C  00                 [104] (21)
673D  FA                 [105] (21)
673E  02                 [106] (22)
673F  00                 [107] (22)
6740  00                 [108] (22)
6741  FA                 [109] (22)
6742  02                 [110] (22)
6743  00                 [111] (23)
6744  00                 [112] (23)
6745  FB                 [113] (23)
6746  02                 [114] (23)
6747  00                 [115] (25)
6748  00                 [116] (25)
6749  FB                 [117] (25)
674A  02                 [118] (25)
674B  00                 [119] (25)
674C  00                 [120] (25)
674D  FB                 [121] (27)
674E  02                 [122] (27)
674F  00                 [123] (28)
6750  00                 [124] (28)
6751  FB                 [125] (30)
6752  02                 [126] (30)
6753  00                 [127] (30)
6754  00                 [128] (30)
6755  FB                 [129] (30)
6756  02                 [130] (31)
6757  00                 [131] (31)
6758  00                 [132] (31)
6759  FB                 [133] (32)
675A  02                 [134] (32)
675B  00                 [135] (32)
675C  00                 [136] (32)
675D  FB                 [137] (32)
675E  02                 [138] (32)
675F  00                 [139] (32)
6760  00                 [140] (33)
6761  FB                 [141] (33)
6762  02                 [142] (33)
6763  00                 [143] (33)
6764  00                 [144] (33)
6765  FB                 [145] (33)
6766  02                 [146] (33)
6767  00                 [147] (33)
6768  00                 [148] (34)
6769  FD                 [149] (34)
676A  02                 [150] (35)
676B  00                 [151] (35)
676C  00                 [152] (36)
676D  FE                 [153] (36)
676E  02                 [154] (37)
676F  00                 [155] (37)
6770  00                 [156] (37)
6771  FE                 [157] (37)
6772  02                 [158] (38)
6773  00                 [159] (38)
6774  00                 [160] (39)
6775  FE                 [161] (39)
6776  02                 [162] (40)
6777  00                 [163] (40)
6778  00                 [164] (40)
6779  FE                 [165] (40)
677A  02                 [166] (41)
677B  00                 [167] (55)
677C  00                 [168] (55)
677D  FE                 [169] (55)
677E  02                 [170] (56)
677F  00                 [171] (56)
6780  00                 [172] (56)
6781  FE                 [173] (56)
6782  02                 [174] (57)
6783  00                 [175] (63)
6784  00                 [176] (63)
6785  FE                 [177] (64)
6786  02                 [178] (64)
6787  00                 [179] (64)
6788  00                 [180] (64)
6789  FE                 [181] (65)
678A  02                 [182] (65)
678B  00                 [183] (65)
678C  00                 [184] (67)
678D  FF                 [185] (67)
678E  02                 [186] (69)
678F  00                 [187] (69)
6790  00                 [188] (69)
6791  FF                 [189] (69)
6792  02                 [190] (69)
6793  00                 [191] (69)
6794  00                 [192] (69)
6795  FF                 [193] (69)
6796  02                 [194] (69)
6797  00                 [195] (69)
6798  00                 [196] (69)
6799  FF                 [197] (69)
679A  02                 [198] (69)
679B  00                 [199] (71)
679C  00                 [200] (71)
679D  FF                 [201] (72)
679E  02                 [202] (72)
679F  00                 [203] (72)
67A0  00                 [204] (72)
67A1  FF                 [205] (74)
67A2  02                 [206] (75)
67A3  00                 [207] (75)
67A4  00                 [208] (76)
67A5  FF                 [209] (76)
67A6  02                 [210] (76)
67A7  00                 [211] (76)
67A8  00                 [212] (76)
67A9  00                 [213] (77)
67AA  03                 [214] (77)
67AB  00                 [215] (77)
67AC  00                 [216] (82)
67AD  00                 [217] (82)
67AE  03                 [218] (83)
                         * locals:
6A3D  00                 sizelocvars (0)
                         * upvalues:
6A3E  00                 sizeupvalues (0)
                         ** end of function **

                         
6A3F                     ** function [28] definition (level 2)
                         ** start of function **
6A3F  00                 string size (0)
                         source name: (none)
6A41  06                 line defined (853)
6A42  D7                 last line defined (855)
6A43  06                 nups (1)
6A44  01                 numparams (0)
6A45  00                 is_vararg (0)
6A46  00                 maxstacksize (2)
                         * code:
6A48  03                 sizecode (3)
6A49  13000000           [1] getupval   0   0      
6A4D  22408000           [2] call       0   1   1  
6A51  1E008000           [3] return     0   1      
                         * constants:
6A55  00                 sizek (0)
                         * functions:
6A56  00                 sizep (0)
                         * lines:
6A57  03                 sizelineinfo (3)
                         [pc] (line)
6A58  56                 [1] (86)
6A59  03                 [2] (86)
6A5A  00                 [3] (87)
                         * locals:
6A64  00                 sizelocvars (0)
                         * upvalues:
6A65  00                 sizeupvalues (0)
                         ** end of function **

                         
6A66                     ** function [29] definition (level 2)
                         ** start of function **
6A66  00                 string size (0)
                         source name: (none)
6A68  06                 line defined (857)
6A69  DE                 last line defined (862)
6A6A  06                 nups (2)
6A6B  02                 numparams (0)
6A6C  00                 is_vararg (0)
6A6D  00                 maxstacksize (2)
                         * code:
6A6F  0C                 sizecode (12)
6A70  13000000           [01] getupval   0   0      
6A74  18400000           [02] test       0       1    ; to [4] if false
6A78  1A400180           [03] jmp        6            ; to [10]
6A7C  1D000000           [04] getglobal  0   0        ; _T
6A80  0E404000           [05] gettable   0   0   257  ; "KubrowPreviewOpen"
6A84  18000000           [06] test       0       0    ; to [8] if true
6A88  1A400080           [07] jmp        2            ; to [10]
6A8C  13008000           [08] getupval   0   1      
6A90  22408000           [09] call       0   1   1  
6A94  17000000           [10] loadbool   0   0   0    ; false
6A98  1E000001           [11] return     0   2      
6A9C  1E008000           [12] return     0   1      
                         * constants:
6AA0  02                 sizek (2)
6AA1  04                 const type 4
6AA2  03                 string size (3)
6AA3  5F5400             "_T\0"
                         const [0]: "_T"
6AA6  04                 const type 4
6AA7  12                 string size (18)
6AA8  4B7562726F775072+  "KubrowPr"
6AB0  65766965774F7065+  "eviewOpe"
6AB8  6E00               "n\0"
                         const [1]: "KubrowPreviewOpen"
                         * functions:
6ABA  00                 sizep (0)
                         * lines:
6ABB  0C                 sizelineinfo (12)
                         [pc] (line)
6ABC  5A                 [01] (90)
6ABD  03                 [02] (90)
6ABE  00                 [03] (90)
6ABF  00                 [04] (90)
6AC0  5A                 [05] (90)
6AC1  03                 [06] (90)
6AC2  00                 [07] (90)
6AC3  00                 [08] (91)
6AC4  5A                 [09] (91)
6AC5  03                 [10] (93)
6AC6  00                 [11] (93)
6AC7  00                 [12] (94)
                         * locals:
6AEC  00                 sizelocvars (0)
                         * upvalues:
6AED  00                 sizeupvalues (0)
                         ** end of function **

                         
6AEE                     ** function [30] definition (level 2)
                         ** start of function **
6AEE  00                 string size (0)
                         source name: (none)
6AF0  06                 line defined (865)
6AF1  E5                 last line defined (869)
6AF2  06                 nups (3)
6AF3  03                 numparams (0)
6AF4  00                 is_vararg (0)
6AF5  00                 maxstacksize (2)
                         * code:
6AF7  09                 sizecode (9)
6AF8  13000000           [1] getupval   0   0      
6AFC  18400000           [2] test       0       1    ; to [4] if false
6B00  1A000180           [3] jmp        5            ; to [9]
6B04  13008000           [4] getupval   0   1      
6B08  18000000           [5] test       0       0    ; to [7] if true
6B0C  1A400080           [6] jmp        2            ; to [9]
6B10  13000001           [7] getupval   0   2      
6B14  22408000           [8] call       0   1   1  
6B18  1E008000           [9] return     0   1      
                         * constants:
6B1C  00                 sizek (0)
                         * functions:
6B1D  00                 sizep (0)
                         * lines:
6B1E  09                 sizelineinfo (9)
                         [pc] (line)
6B1F  62                 [1] (98)
6B20  03                 [2] (98)
6B21  00                 [3] (98)
6B22  00                 [4] (98)
6B23  62                 [5] (98)
6B24  03                 [6] (98)
6B25  00                 [7] (99)
6B26  00                 [8] (99)
6B27  62                 [9] (101)
                         * locals:
6B43  00                 sizelocvars (0)
                         * upvalues:
6B44  00                 sizeupvalues (0)
                         ** end of function **

                         
6B45                     ** function [31] definition (level 2)
                         ** start of function **
6B45  00                 string size (0)
                         source name: (none)
6B47  06                 line defined (871)
6B48  ED                 last line defined (877)
6B49  06                 nups (2)
6B4A  02                 numparams (2)
6B4B  02                 is_vararg (0)
6B4C  00                 maxstacksize (6)
                         * code:
6B4E  0D                 sizecode (13)
6B4F  93000000           [01] getupval   2   0      
6B53  A2408000           [02] call       2   1   1  
6B57  9D000000           [03] getglobal  2   0        ; 1074689893
6B5B  D3008000           [04] getupval   3   1      
6B5F  A2800001           [05] call       2   2   2  
6B63  98400000           [06] test       2       1    ; to [8] if false
6B67  1A000180           [07] jmp        5            ; to [13]
6B6B  93008000           [08] getupval   2   1      
6B6F  A4404001           [09] self       2   2   257  ; -1938777623
6B73  12010000           [10] move       4   0      
6B77  52018000           [11] move       5   1      
6B7B  A2400002           [12] call       2   4   1  
6B7F  1E008000           [13] return     0   1      
                         * constants:
6B83  02                 sizek (2)
6B84  01                 const type 3
6B85  65770E40           const [0]: (1074689893)
6B89  01                 const type 3
6B8A  E999708C           const [1]: (-1938777623)
                         * functions:
6B8E  00                 sizep (0)
                         * lines:
6B8F  0D                 sizelineinfo (13)
                         [pc] (line)
6B90  68                 [01] (104)
6B91  03                 [02] (104)
6B92  00                 [03] (106)
6B93  00                 [04] (106)
6B94  68                 [05] (106)
6B95  03                 [06] (106)
6B96  00                 [07] (106)
6B97  00                 [08] (107)
6B98  6A                 [09] (107)
6B99  03                 [10] (107)
6B9A  00                 [11] (107)
6B9B  00                 [12] (107)
6B9C  6A                 [13] (109)
                         * locals:
6BC4  00                 sizelocvars (0)
                         * upvalues:
6BC5  00                 sizeupvalues (0)
                         ** end of function **

                         
6BC6                     ** function [32] definition (level 2)
                         ** start of function **
6BC6  00                 string size (0)
                         source name: (none)
6BC8  06                 line defined (881)
6BC9  F3                 last line defined (883)
6BCA  06                 nups (1)
6BCB  01                 numparams (0)
6BCC  00                 is_vararg (0)
6BCD  00                 maxstacksize (2)
                         * code:
6BCF  06                 sizecode (6)
6BD0  13000000           [1] getupval   0   0      
6BD4  0E004000           [2] gettable   0   0   256  ; 630793108
6BD8  5D400000           [3] getglobal  1   1        ; _G
6BDC  4E80C000           [4] gettable   1   1   258  ; "UISound_Focus"
6BE0  22400001           [5] call       0   2   1  
6BE4  1E008000           [6] return     0   1      
                         * constants:
6BE8  03                 sizek (3)
6BE9  01                 const type 3
6BEA  94239925           const [0]: (630793108)
6BEE  04                 const type 4
6BEF  03                 string size (3)
6BF0  5F4700             "_G\0"
                         const [1]: "_G"
6BF3  04                 const type 4
6BF4  0E                 string size (14)
6BF5  5549536F756E645F+  "UISound_"
6BFD  466F63757300       "Focus\0"
                         const [2]: "UISound_Focus"
                         * functions:
6C03  00                 sizep (0)
                         * lines:
6C04  06                 sizelineinfo (6)
                         [pc] (line)
6C05  72                 [1] (114)
6C06  03                 [2] (114)
6C07  00                 [3] (114)
6C08  00                 [4] (114)
6C09  72                 [5] (114)
6C0A  03                 [6] (115)
                         * locals:
6C1D  00                 sizelocvars (0)
                         * upvalues:
6C1E  00                 sizeupvalues (0)
                         ** end of function **

                         
6C1F                     ** function [33] definition (level 2)
                         ** start of function **
6C1F  00                 string size (0)
                         source name: (none)
6C21  06                 line defined (886)
6C22  FA                 last line defined (890)
6C23  06                 nups (1)
6C24  01                 numparams (1)
6C25  01                 is_vararg (0)
6C26  00                 maxstacksize (5)
                         * code:
6C28  0C                 sizecode (12)
6C29  5D000000           [01] getglobal  1   0        ; 1074689893
6C2D  93000000           [02] getupval   2   0      
6C31  62800001           [03] call       1   2   2  
6C35  58400000           [04] test       1       1    ; to [6] if false
6C39  1A400180           [05] jmp        6            ; to [12]
6C3D  53000000           [06] getupval   1   0      
6C41  6440C000           [07] self       1   1   257  ; -1967297336
6C45  DD800000           [08] getglobal  3   2        ; -174740002
6C49  12010000           [09] move       4   0      
6C4D  E2000001           [10] call       3   2   0  
6C51  62400000           [11] call       1   0   1  
6C55  1E008000           [12] return     0   1      
                         * constants:
6C59  03                 sizek (3)
6C5A  01                 const type 3
6C5B  65770E40           const [0]: (1074689893)
6C5F  01                 const type 3
6C60  C86CBD8A           const [1]: (-1967297336)
6C64  01                 const type 3
6C65  DEAD95F5           const [2]: (-174740002)
                         * functions:
6C69  00                 sizep (0)
                         * lines:
6C6A  0C                 sizelineinfo (12)
                         [pc] (line)
6C6B  77                 [01] (119)
6C6C  03                 [02] (119)
6C6D  00                 [03] (119)
6C6E  00                 [04] (119)
6C6F  77                 [05] (119)
6C70  03                 [06] (120)
6C71  00                 [07] (120)
6C72  00                 [08] (120)
6C73  77                 [09] (120)
6C74  03                 [10] (120)
6C75  00                 [11] (120)
6C76  00                 [12] (122)
                         * locals:
6C9B  00                 sizelocvars (0)
                         * upvalues:
6C9C  00                 sizeupvalues (0)
                         ** end of function **

                         
6C9D                     ** function [34] definition (level 2)
                         ** start of function **
6C9D  00                 string size (0)
                         source name: (none)
6C9F  06                 line defined (892)
6CA0  80                 last line defined (896)
6CA1  07                 nups (1)
6CA2  01                 numparams (1)
6CA3  01                 is_vararg (0)
6CA4  00                 maxstacksize (5)
                         * code:
6CA6  0C                 sizecode (12)
6CA7  5D000000           [01] getglobal  1   0        ; 1074689893
6CAB  93000000           [02] getupval   2   0      
6CAF  62800001           [03] call       1   2   2  
6CB3  58400000           [04] test       1       1    ; to [6] if false
6CB7  1A400180           [05] jmp        6            ; to [12]
6CBB  53000000           [06] getupval   1   0      
6CBF  6440C000           [07] self       1   1   257  ; 561426718
6CC3  DD800000           [08] getglobal  3   2        ; -174740002
6CC7  12010000           [09] move       4   0      
6CCB  E2000001           [10] call       3   2   0  
6CCF  62400000           [11] call       1   0   1  
6CD3  1E008000           [12] return     0   1      
                         * constants:
6CD7  03                 sizek (3)
6CD8  01                 const type 3
6CD9  65770E40           const [0]: (1074689893)
6CDD  01                 const type 3
6CDE  1EB17621           const [1]: (561426718)
6CE2  01                 const type 3
6CE3  DEAD95F5           const [2]: (-174740002)
                         * functions:
6CE7  00                 sizep (0)
                         * lines:
6CE8  0C                 sizelineinfo (12)
                         [pc] (line)
6CE9  7D                 [01] (125)
6CEA  03                 [02] (125)
6CEB  00                 [03] (125)
6CEC  00                 [04] (125)
6CED  7D                 [05] (125)
6CEE  03                 [06] (126)
6CEF  00                 [07] (126)
6CF0  00                 [08] (126)
6CF1  7D                 [09] (126)
6CF2  03                 [10] (126)
6CF3  00                 [11] (126)
6CF4  00                 [12] (-128)
                         * locals:
6D19  00                 sizelocvars (0)
                         * upvalues:
6D1A  00                 sizeupvalues (0)
                         ** end of function **

                         
6D1B                     ** function [35] definition (level 2)
                         ** start of function **
6D1B  00                 string size (0)
                         source name: (none)
6D1D  07                 line defined (898)
6D1E  86                 last line defined (902)
6D1F  07                 nups (2)
6D20  02                 numparams (1)
6D21  01                 is_vararg (0)
6D22  00                 maxstacksize (5)
                         * code:
6D24  10                 sizecode (16)
6D25  53000000           [01] getupval   1   0      
6D29  58400000           [02] test       1       1    ; to [4] if false
6D2D  1AC00280           [03] jmp        12           ; to [16]
6D31  5D000000           [04] getglobal  1   0        ; 1074689893
6D35  93008000           [05] getupval   2   1      
6D39  62800001           [06] call       1   2   2  
6D3D  58400000           [07] test       1       1    ; to [9] if false
6D41  1A800180           [08] jmp        7            ; to [16]
6D45  53008000           [09] getupval   1   1      
6D49  6440C000           [10] self       1   1   257  ; 1002639746
6D4D  DD800000           [11] getglobal  3   2        ; -174740002
6D51  12010000           [12] move       4   0      
6D55  E2800001           [13] call       3   2   2  
6D59  17018000           [14] loadbool   4   1   0    ; true
6D5D  62400002           [15] call       1   4   1  
6D61  1E008000           [16] return     0   1      
                         * constants:
6D65  03                 sizek (3)
6D66  01                 const type 3
6D67  65770E40           const [0]: (1074689893)
6D6B  01                 const type 3
6D6C  8211C33B           const [1]: (1002639746)
6D70  01                 const type 3
6D71  DEAD95F5           const [2]: (-174740002)
                         * functions:
6D75  00                 sizep (0)
                         * lines:
6D76  10                 sizelineinfo (16)
                         [pc] (line)
6D77  83                 [01] (-125)
6D78  03                 [02] (-125)
6D79  00                 [03] (-125)
6D7A  00                 [04] (-125)
6D7B  83                 [05] (-125)
6D7C  03                 [06] (-125)
6D7D  00                 [07] (-125)
6D7E  00                 [08] (-125)
6D7F  83                 [09] (-124)
6D80  03                 [10] (-124)
6D81  00                 [11] (-124)
6D82  00                 [12] (-124)
6D83  83                 [13] (-124)
6D84  03                 [14] (-124)
6D85  00                 [15] (-124)
6D86  00                 [16] (-122)
                         * locals:
6DB7  00                 sizelocvars (0)
                         * upvalues:
6DB8  00                 sizeupvalues (0)
                         ** end of function **

                         
6DB9                     ** function [36] definition (level 2)
                         ** start of function **
6DB9  00                 string size (0)
                         source name: (none)
6DBB  07                 line defined (904)
6DBC  8C                 last line defined (908)
6DBD  07                 nups (2)
6DBE  02                 numparams (1)
6DBF  01                 is_vararg (0)
6DC0  00                 maxstacksize (5)
                         * code:
6DC2  0F                 sizecode (15)
6DC3  53000000           [01] getupval   1   0      
6DC7  58400000           [02] test       1       1    ; to [4] if false
6DCB  1A800280           [03] jmp        11           ; to [15]
6DCF  5D000000           [04] getglobal  1   0        ; 1074689893
6DD3  93008000           [05] getupval   2   1      
6DD7  62800001           [06] call       1   2   2  
6DDB  58400000           [07] test       1       1    ; to [9] if false
6DDF  1A400180           [08] jmp        6            ; to [15]
6DE3  53008000           [09] getupval   1   1      
6DE7  6440C000           [10] self       1   1   257  ; 146425179
6DEB  DD800000           [11] getglobal  3   2        ; -174740002
6DEF  12010000           [12] move       4   0      
6DF3  E2000001           [13] call       3   2   0  
6DF7  62400000           [14] call       1   0   1  
6DFB  1E008000           [15] return     0   1      
                         * constants:
6DFF  03                 sizek (3)
6E00  01                 const type 3
6E01  65770E40           const [0]: (1074689893)
6E05  01                 const type 3
6E06  5B45BA08           const [1]: (146425179)
6E0A  01                 const type 3
6E0B  DEAD95F5           const [2]: (-174740002)
                         * functions:
6E0F  00                 sizep (0)
                         * lines:
6E10  0F                 sizelineinfo (15)
                         [pc] (line)
6E11  89                 [01] (-119)
6E12  03                 [02] (-119)
6E13  00                 [03] (-119)
6E14  00                 [04] (-119)
6E15  89                 [05] (-119)
6E16  03                 [06] (-119)
6E17  00                 [07] (-119)
6E18  00                 [08] (-119)
6E19  89                 [09] (-118)
6E1A  03                 [10] (-118)
6E1B  00                 [11] (-118)
6E1C  00                 [12] (-118)
6E1D  89                 [13] (-118)
6E1E  03                 [14] (-118)
6E1F  00                 [15] (-116)
                         * locals:
6E4D  00                 sizelocvars (0)
                         * upvalues:
6E4E  00                 sizeupvalues (0)
                         ** end of function **

                         
6E4F                     ** function [37] definition (level 2)
                         ** start of function **
6E4F  00                 string size (0)
                         source name: (none)
6E51  07                 line defined (910)
6E52  95                 last line defined (917)
6E53  07                 nups (2)
6E54  02                 numparams (2)
6E55  02                 is_vararg (0)
6E56  00                 maxstacksize (7)
                         * code:
6E58  15                 sizecode (21)
6E59  93000000           [01] getupval   2   0      
fail op	35
6E5D  63004001           [02] close      1  
6E61  1A000480           [03] jmp        17           ; to [21]
6E65  93000000           [04] getupval   2   0      
6E69  8E404001           [05] gettable   2   2   257  ; "mScrollBar"
6E6D  D3008000           [06] getupval   3   1      
6E71  D8400000           [07] test       3       1    ; to [9] if false
6E75  1AC00280           [08] jmp        12           ; to [21]
6E79  DD800000           [09] getglobal  3   2        ; 1074689893
6E7D  12010001           [10] move       4   2      
6E81  E2800001           [11] call       3   2   2  
6E85  D8400000           [12] test       3       1    ; to [14] if false
6E89  1A800180           [13] jmp        7            ; to [21]
6E8D  E4C04001           [14] self       3   2   259  ; -1622081655
6E91  5D010100           [15] getglobal  5   4        ; -174740002
6E95  92018000           [16] move       6   1      
6E99  62810001           [17] call       5   2   2  
6E9D  9D410100           [18] getglobal  6   5        ; _G
6EA1  8E814103           [19] gettable   6   6   262  ; "UISound_Scroll"
6EA5  E2400002           [20] call       3   4   1  
6EA9  1E008000           [21] return     0   1      
                         * constants:
6EAD  07                 sizek (7)
6EAE  00                 const type 0
                         const [0]: nil
6EAF  04                 const type 4
6EB0  0B                 string size (11)
6EB1  6D5363726F6C6C42+  "mScrollB"
6EB9  617200             "ar\0"
                         const [1]: "mScrollBar"
6EBC  01                 const type 3
6EBD  65770E40           const [2]: (1074689893)
6EC1  01                 const type 3
6EC2  89FF509F           const [3]: (-1622081655)
6EC6  01                 const type 3
6EC7  DEAD95F5           const [4]: (-174740002)
6ECB  04                 const type 4
6ECC  03                 string size (3)
6ECD  5F4700             "_G\0"
                         const [5]: "_G"
6ED0  04                 const type 4
6ED1  0F                 string size (15)
6ED2  5549536F756E645F+  "UISound_"
6EDA  5363726F6C6C00     "Scroll\0"
                         const [6]: "UISound_Scroll"
                         * functions:
6EE1  00                 sizep (0)
                         * lines:
6EE2  15                 sizelineinfo (21)
                         [pc] (line)
6EE3  8F                 [01] (-113)
6EE4  03                 [02] (-113)
6EE5  00                 [03] (-113)
6EE6  00                 [04] (-112)
6EE7  8F                 [05] (-112)
6EE8  03                 [06] (-111)
6EE9  00                 [07] (-111)
6EEA  00                 [08] (-111)
6EEB  8F                 [09] (-111)
6EEC  03                 [10] (-111)
6EED  00                 [11] (-111)
6EEE  00                 [12] (-111)
6EEF  90                 [13] (-111)
6EF0  03                 [14] (-110)
6EF1  00                 [15] (-110)
6EF2  00                 [16] (-110)
6EF3  90                 [17] (-110)
6EF4  03                 [18] (-110)
6EF5  00                 [19] (-110)
6EF6  00                 [20] (-110)
6EF7  91                 [21] (-107)
                         * locals:
6F37  00                 sizelocvars (0)
                         * upvalues:
6F38  00                 sizeupvalues (0)
                         ** end of function **

                         
6F39                     ** function [38] definition (level 2)
                         ** start of function **
6F39  00                 string size (0)
                         source name: (none)
6F3B  07                 line defined (919)
6F3C  9B                 last line defined (923)
6F3D  07                 nups (3)
6F3E  03                 numparams (1)
6F3F  01                 is_vararg (0)
6F40  00                 maxstacksize (3)
                         * code:
6F42  0B                 sizecode (11)
fail op	35
6F43  63004000           [01] close      1  
6F47  1A000080           [02] jmp        1            ; to [4]
6F4B  57400000           [03] loadbool   1   0   1    ; false, to [5]
6F4F  57008000           [04] loadbool   1   1   0    ; true
fail op	8
6F53  48000000           [05] setupval   1   0      
6F57  53008000           [06] getupval   1   1      
6F5B  97008000           [07] loadbool   2   1   0    ; true
6F5F  62400001           [08] call       1   2   1  
6F63  53000001           [09] getupval   1   2      
6F67  62408000           [10] call       1   1   1  
6F6B  1E008000           [11] return     0   1      
                         * constants:
6F6F  01                 sizek (1)
6F70  04                 const type 4
6F71  05                 string size (5)
6F72  7472756500         "true\0"
                         const [0]: "true"
                         * functions:
6F77  00                 sizep (0)
                         * lines:
6F78  0B                 sizelineinfo (11)
                         [pc] (line)
6F79  98                 [01] (-104)
6F7A  03                 [02] (-104)
6F7B  00                 [03] (-104)
6F7C  00                 [04] (-104)
6F7D  98                 [05] (-104)
6F7E  03                 [06] (-103)
6F7F  00                 [07] (-103)
6F80  00                 [08] (-103)
6F81  98                 [09] (-102)
6F82  03                 [10] (-102)
6F83  00                 [11] (-101)
                         * locals:
6FA5  00                 sizelocvars (0)
                         * upvalues:
6FA6  00                 sizeupvalues (0)
                         ** end of function **

                         
6FA7                     ** function [39] definition (level 2)
                         ** start of function **
6FA7  00                 string size (0)
                         source name: (none)
6FA9  07                 line defined (925)
6FAA  9F                 last line defined (927)
6FAB  07                 nups (1)
6FAC  01                 numparams (1)
6FAD  01                 is_vararg (0)
6FAE  00                 maxstacksize (2)
                         * code:
6FB0  02                 sizecode (2)
fail op	8
6FB1  08000000           [1] setupval   0   0      
6FB5  1E008000           [2] return     0   1      
                         * constants:
6FB9  00                 sizek (0)
                         * functions:
6FBA  00                 sizep (0)
                         * lines:
6FBB  02                 sizelineinfo (2)
                         [pc] (line)
6FBC  9E                 [1] (-98)
6FBD  03                 [2] (-97)
                         * locals:
6FC4  00                 sizelocvars (0)
                         * upvalues:
6FC5  00                 sizeupvalues (0)
                         ** end of function **

                         
6FC6                     ** function [40] definition (level 2)
                         ** start of function **
6FC6  00                 string size (0)
                         source name: (none)
6FC8  07                 line defined (929)
6FC9  A3                 last line defined (931)
6FCA  07                 nups (1)
6FCB  01                 numparams (1)
6FCC  01                 is_vararg (0)
6FCD  00                 maxstacksize (2)
                         * code:
6FCF  02                 sizecode (2)
fail op	8
6FD0  08000000           [1] setupval   0   0      
6FD4  1E008000           [2] return     0   1      
                         * constants:
6FD8  00                 sizek (0)
                         * functions:
6FD9  00                 sizep (0)
                         * lines:
6FDA  02                 sizelineinfo (2)
                         [pc] (line)
6FDB  A2                 [1] (-94)
6FDC  03                 [2] (-93)
                         * locals:
6FE3  00                 sizelocvars (0)
                         * upvalues:
6FE4  00                 sizeupvalues (0)
                         ** end of function **

                         
6FE5                     ** function [41] definition (level 2)
                         ** start of function **
6FE5  00                 string size (0)
                         source name: (none)
6FE7  07                 line defined (933)
6FE8  A7                 last line defined (935)
6FE9  07                 nups (1)
6FEA  01                 numparams (1)
6FEB  01                 is_vararg (0)
6FEC  00                 maxstacksize (2)
                         * code:
6FEE  02                 sizecode (2)
fail op	8
6FEF  08000000           [1] setupval   0   0      
6FF3  1E008000           [2] return     0   1      
                         * constants:
6FF7  00                 sizek (0)
                         * functions:
6FF8  00                 sizep (0)
                         * lines:
6FF9  02                 sizelineinfo (2)
                         [pc] (line)
6FFA  A6                 [1] (-90)
6FFB  03                 [2] (-89)
                         * locals:
7002  00                 sizelocvars (0)
                         * upvalues:
7003  00                 sizeupvalues (0)
                         ** end of function **

                         
7004                     ** function [42] definition (level 2)
                         ** start of function **
7004  00                 string size (0)
                         source name: (none)
7006  07                 line defined (937)
7007  AD                 last line defined (941)
7008  07                 nups (2)
7009  02                 numparams (1)
700A  01                 is_vararg (0)
700B  00                 maxstacksize (3)
                         * code:
700D  05                 sizecode (5)
fail op	8
700E  08000000           [1] setupval   0   0      
7012  53008000           [2] getupval   1   1      
7016  97008000           [3] loadbool   2   1   0    ; true
701A  62400001           [4] call       1   2   1  
701E  1E008000           [5] return     0   1      
                         * constants:
7022  00                 sizek (0)
                         * functions:
7023  00                 sizep (0)
                         * lines:
7024  05                 sizelineinfo (5)
                         [pc] (line)
7025  AA                 [1] (-86)
7026  03                 [2] (-84)
7027  00                 [3] (-84)
7028  00                 [4] (-84)
7029  AC                 [5] (-83)
                         * locals:
7039  00                 sizelocvars (0)
                         * upvalues:
703A  00                 sizeupvalues (0)
                         ** end of function **

                         
703B                     ** function [43] definition (level 2)
                         ** start of function **
703B  00                 string size (0)
                         source name: (none)
703D  07                 line defined (943)
703E  B1                 last line defined (945)
703F  07                 nups (0)
7040  00                 numparams (0)
7041  00                 is_vararg (0)
7042  00                 maxstacksize (2)
                         * code:
7044  03                 sizecode (3)
7045  17008000           [1] loadbool   0   1   0    ; true
7049  1E000001           [2] return     0   2      
704D  1E008000           [3] return     0   1      
                         * constants:
7051  00                 sizek (0)
                         * functions:
7052  00                 sizep (0)
                         * lines:
7053  03                 sizelineinfo (3)
                         [pc] (line)
7054  B0                 [1] (-80)
7055  03                 [2] (-80)
7056  00                 [3] (-79)
                         * locals:
7060  00                 sizelocvars (0)
                         * upvalues:
7061  00                 sizeupvalues (0)
                         ** end of function **

                         * lines:
7063  02                 sizelineinfo (338)
                         [pc] (line)
7064  13                 [001] (19)
7065  00                 [002] (19)
7066  00                 [003] (19)
7067  00                 [004] (20)
7068  13                 [005] (20)
7069  00                 [006] (20)
706A  00                 [007] (22)
706B  00                 [008] (22)
706C  13                 [009] (22)
706D  00                 [010] (23)
706E  00                 [011] (23)
706F  00                 [012] (23)
7070  14                 [013] (24)
7071  00                 [014] (24)
7072  00                 [015] (24)
7073  00                 [016] (26)
7074  14                 [017] (26)
7075  00                 [018] (26)
7076  00                 [019] (29)
7077  00                 [020] (30)
7078  14                 [021] (31)
7079  00                 [022] (32)
707A  00                 [023] (33)
707B  00                 [024] (37)
707C  16                 [025] (38)
707D  00                 [026] (40)
707E  00                 [027] (42)
707F  00                 [028] (43)
7080  16                 [029] (43)
7081  00                 [030] (43)
7082  00                 [031] (45)
7083  00                 [032] (46)
7084  16                 [033] (48)
7085  00                 [034] (49)
7086  00                 [035] (51)
7087  00                 [036] (53)
7088  17                 [037] (54)
7089  00                 [038] (55)
708A  00                 [039] (62)
708B  00                 [040] (64)
708C  17                 [041] (64)
708D  00                 [042] (64)
708E  00                 [043] (66)
708F  00                 [044] (66)
7090  17                 [045] (66)
7091  00                 [046] (66)
7092  00                 [047] (66)
7093  00                 [048] (66)
7094  18                 [049] (68)
7095  00                 [050] (68)
7096  00                 [051] (68)
7097  00                 [052] (69)
7098  18                 [053] (69)
7099  00                 [054] (69)
709A  00                 [055] (69)
709B  00                 [056] (69)
709C  18                 [057] (69)
709D  00                 [058] (69)
709E  00                 [059] (69)
709F  00                 [060] (70)
70A0  1A                 [061] (70)
70A1  00                 [062] (70)
70A2  00                 [063] (70)
70A3  00                 [064] (70)
70A4  1A                 [065] (70)
70A5  00                 [066] (71)
70A6  00                 [067] (71)
70A7  00                 [068] (71)
70A8  1A                 [069] (71)
70A9  00                 [070] (71)
70AA  00                 [071] (71)
70AB  00                 [072] (72)
70AC  1D                 [073] (72)
70AD  00                 [074] (72)
70AE  00                 [075] (72)
70AF  00                 [076] (72)
70B0  1E                 [077] (72)
70B1  00                 [078] (73)
70B2  00                 [079] (73)
70B3  00                 [080] (73)
70B4  1F                 [081] (73)
70B5  00                 [082] (73)
70B6  00                 [083] (73)
70B7  00                 [084] (74)
70B8  20                 [085] (74)
70B9  00                 [086] (74)
70BA  00                 [087] (74)
70BB  00                 [088] (74)
70BC  21                 [089] (74)
70BD  00                 [090] (75)
70BE  00                 [091] (75)
70BF  00                 [092] (75)
70C0  25                 [093] (75)
70C1  00                 [094] (75)
70C2  00                 [095] (75)
70C3  00                 [096] (76)
70C4  26                 [097] (76)
70C5  00                 [098] (76)
70C6  00                 [099] (76)
70C7  00                 [100] (76)
70C8  28                 [101] (77)
70C9  00                 [102] (77)
70CA  00                 [103] (79)
70CB  00                 [104] (81)
70CC  2A                 [105] (81)
70CD  00                 [106] (81)
70CE  00                 [107] (82)
70CF  00                 [108] (82)
70D0  2B                 [109] (82)
70D1  00                 [110] (86)
70D2  00                 [111] (86)
70D3  00                 [112] (86)
70D4  2B                 [113] (84)
70D5  00                 [114] (96)
70D6  00                 [115] (96)
70D7  00                 [116] (96)
70D8  2B                 [117] (102)
70D9  00                 [118] (102)
70DA  00                 [119] (-97)
70DB  00                 [120] (-97)
70DC  2D                 [121] (-97)
70DD  00                 [122] (-97)
70DE  00                 [123] (-97)
70DF  00                 [124] (-24)
70E0  2E                 [125] (-24)
70E1  00                 [126] (-24)
70E2  00                 [127] (-24)
70E3  00                 [128] (-24)
70E4  30                 [129] (-17)
70E5  00                 [130] (45)
70E6  00                 [131] (45)
70E7  00                 [132] (45)
70E8  31                 [133] (45)
70E9  00                 [134] (45)
70EA  00                 [135] (65)
70EB  00                 [136] (65)
70EC  33                 [137] (65)
70ED  00                 [138] (65)
70EE  00                 [139] (65)
70EF  00                 [140] (92)
70F0  35                 [141] (92)
70F1  00                 [142] (92)
70F2  00                 [143] (116)
70F3  00                 [144] (116)
70F4  36                 [145] (116)
70F5  00                 [146] (116)
70F6  00                 [147] (116)
70F7  00                 [148] (116)
70F8  37                 [149] (116)
70F9  00                 [150] (116)
70FA  00                 [151] (-124)
70FB  00                 [152] (-124)
70FC  3E                 [153] (-124)
70FD  00                 [154] (-124)
70FE  00                 [155] (-118)
70FF  00                 [156] (-118)
7100  40                 [157] (-118)
7101  00                 [158] (-118)
7102  00                 [159] (-122)
7103  00                 [160] (-98)
7104  40                 [161] (-98)
7105  00                 [162] (-98)
7106  00                 [163] (-98)
7107  00                 [164] (-98)
7108  40                 [165] (-98)
7109  00                 [166] (-98)
710A  00                 [167] (-93)
710B  00                 [168] (-93)
710C  42                 [169] (-96)
710D  00                 [170] (-82)
710E  00                 [171] (-82)
710F  00                 [172] (-82)
7110  42                 [173] (-82)
7111  00                 [174] (-82)
7112  00                 [175] (-78)
7113  00                 [176] (-78)
7114  42                 [177] (-61)
7115  00                 [178] (-61)
7116  00                 [179] (-61)
7117  00                 [180] (-61)
7118  42                 [181] (-61)
7119  00                 [182] (-61)
711A  00                 [183] (-61)
711B  00                 [184] (-61)
711C  42                 [185] (-52)
711D  00                 [186] (-52)
711E  00                 [187] (-52)
711F  00                 [188] (-52)
7120  42                 [189] (-43)
7121  00                 [190] (-43)
7122  00                 [191] (-43)
7123  00                 [192] (-43)
7124  44                 [193] (-43)
7125  00                 [194] (-37)
7126  00                 [195] (-37)
7127  00                 [196] (-37)
7128  44                 [197] (-41)
7129  00                 [198] (-31)
712A  00                 [199] (-31)
712B  00                 [200] (-31)
712C  44                 [201] (-35)
712D  00                 [202] (-25)
712E  00                 [203] (-25)
712F  00                 [204] (-25)
7130  45                 [205] (-25)
7131  00                 [206] (-29)
7132  00                 [207] (10)
7133  00                 [208] (10)
7134  45                 [209] (10)
7135  00                 [210] (10)
7136  00                 [211] (10)
7137  00                 [212] (10)
7138  45                 [213] (10)
7139  00                 [214] (10)
713A  00                 [215] (10)
713B  00                 [216] (10)
713C  45                 [217] (10)
713D  00                 [218] (-23)
713E  00                 [219] (-95)
713F  00                 [220] (-95)
7140  45                 [221] (-95)
7141  00                 [222] (-95)
7142  00                 [223] (-95)
7143  00                 [224] (-95)
7144  45                 [225] (-95)
7145  00                 [226] (-95)
7146  00                 [227] (-95)
7147  00                 [228] (-46)
7148  45                 [229] (-46)
7149  00                 [230] (-46)
714A  00                 [231] (-46)
714B  00                 [232] (-46)
714C  45                 [233] (-46)
714D  00                 [234] (-46)
714E  00                 [235] (-46)
714F  00                 [236] (-27)
7150  46                 [237] (-27)
7151  00                 [238] (-27)
7152  00                 [239] (-16)
7153  00                 [240] (-16)
7154  46                 [241] (-16)
7155  00                 [242] (83)
7156  00                 [243] (83)
7157  00                 [244] (83)
7158  46                 [245] (83)
7159  00                 [246] (83)
715A  00                 [247] (83)
715B  00                 [248] (83)
715C  46                 [249] (83)
715D  00                 [250] (83)
715E  00                 [251] (83)
715F  00                 [252] (83)
7160  46                 [253] (83)
7161  00                 [254] (83)
7162  00                 [255] (83)
7163  00                 [256] (83)
7164  46                 [257] (83)
7165  00                 [258] (83)
7166  00                 [259] (83)
7167  00                 [260] (83)
7168  47                 [261] (83)
7169  00                 [262] (83)
716A  00                 [263] (83)
716B  00                 [264] (-14)
716C  47                 [265] (87)
716D  00                 [266] (87)
716E  00                 [267] (87)
716F  00                 [268] (85)
7170  47                 [269] (94)
7171  00                 [270] (94)
7172  00                 [271] (94)
7173  00                 [272] (94)
7174  47                 [273] (89)
7175  00                 [274] (101)
7176  00                 [275] (101)
7177  00                 [276] (101)
7178  47                 [277] (101)
7179  00                 [278] (101)
717A  00                 [279] (97)
717B  00                 [280] (109)
717C  47                 [281] (109)
717D  00                 [282] (109)
717E  00                 [283] (109)
717F  00                 [284] (103)
7180  48                 [285] (115)
7181  00                 [286] (115)
7182  00                 [287] (115)
7183  00                 [288] (113)
7184  48                 [289] (122)
7185  00                 [290] (122)
7186  00                 [291] (122)
7187  00                 [292] (118)
7188  48                 [293] (-128)
7189  00                 [294] (-128)
718A  00                 [295] (-128)
718B  00                 [296] (124)
718C  48                 [297] (-122)
718D  00                 [298] (-122)
718E  00                 [299] (-122)
718F  00                 [300] (-122)
7190  48                 [301] (-126)
7191  00                 [302] (-116)
7192  00                 [303] (-116)
7193  00                 [304] (-116)
7194  48                 [305] (-116)
7195  00                 [306] (-120)
7196  00                 [307] (-107)
7197  00                 [308] (-107)
7198  49                 [309] (-107)
7199  00                 [310] (-107)
719A  00                 [311] (-114)
719B  00                 [312] (-101)
719C  49                 [313] (-101)
719D  00                 [314] (-101)
719E  00                 [315] (-101)
719F  00                 [316] (-101)
71A0  49                 [317] (-105)
71A1  00                 [318] (-97)
71A2  00                 [319] (-97)
71A3  00                 [320] (-97)
71A4  49                 [321] (-99)
71A5  00                 [322] (-93)
71A6  00                 [323] (-93)
71A7  00                 [324] (-93)
71A8  49                 [325] (-95)
71A9  00                 [326] (-89)
71AA  00                 [327] (-89)
71AB  00                 [328] (-89)
71AC  49                 [329] (-91)
71AD  00                 [330] (-83)
71AE  00                 [331] (-83)
71AF  00                 [332] (-83)
71B0  4A                 [333] (-83)
71B1  00                 [334] (-87)
71B2  00                 [335] (-79)
71B3  00                 [336] (-79)
71B4  4A                 [337] (-81)
71B5  00                 [338] (-79)
                         * locals:
75AC  00                 sizelocvars (0)
                         * upvalues:
75AD  00                 sizeupvalues (0)
                         ** end of function **

75AE                     ** end of chunk **
