1	C:\wlua_dump\path\Lotus\InterfaceSyndicateDogTagTradeIn.lua
Pos   Hex Data           Description or Code
------------------------------------------------------------------------
0000                     ** source chunk: C:\wlua_dump\path\Lotus\InterfaceSyndicateDogTagTradeIn.lua
                         ** global header start **
0000  7F                 header signature: ""
0001  00                 version (major:minor hex digits)
0002  00                 format (0=official)
0003  00                 endianness (1=little endian)
0004  00                 size of int (bytes)
0005  00                 size of size_t (bytes)
0006  02                 size of Instruction (bytes)
0007  38                 size of number (bytes)
0008  C5                 integral (1=integral)
4197
                         * number type: single
                         * x86 standard (32-bit, little endian, doubles)
                         ** global header end **
/Lotus/Syndicates/Ostron/CetusSyndicate
/Lotus/Syndicates/Ostron/QuillsSyndicate
Lotus.Interface.LotusUtilities
EE.Interface.Utilities
Lotus.Interface.SyndicateUtilities

/Lotus/Types/Items/SyndicateDogTags/KelaEventDogTag
EMPTY_SYMBOL
IsInputBlocked
TransitionOut
OnRedeemAllComplete
ConfirmRedeeemAll
RedeemAll
ConfirmRedeemPartial
Initialize
ConfirmKelaDogTag
Update
GoBack
Shutdown
PurchaseButtonFocused
PurchaseButtonUnfocused
PurchaseButtonPressed
IncreaseCount
DecreaseCount
ConcludeDonation
onKeyDown_MENU_LTRIGGER2
onKeyDown_MENU_RTRIGGER2
onViewportSizeChanged
InputFieldFocused
InputFieldUnfocused
onKeyDown_MENU_LEFT_FROM_ANALOG
onKeyDown_MENU_RIGHT_FROM_ANALOG
OpenDogTagTradeInMenu
onRawInputEvent
onKeyDown_MENU_MOUSE_Z
onKeyDown_HIDE_PAUSE_MENU
OnGamepadTransition
MenuItemPressed
MenuItemFocused
MenuItemUnfocused
mMovie
_G
UISound_DialogClose
DogTagExitNoSale
EMPTY_SYMBOL
mMovie
_root
UISys
FlashInstance_SMOOTH_STEP
_alpha
_z
table
Label
/Lotus/Language/Menu/Exit
CallBack
CallOut
MENU_CANCEL
_T
SetButtons
mMovie
mMovie
GoBack

/Lotus/Language/Syndicates/NeutralTitle
level
string
mMovie
titleLoc
Syndicate.RepIndicator.CurrentRank.text
<p><font size="24">
<REPUTATION>
</font><font size="18" color="#808080"> / 
</font></p>
Syndicate.RepIndicator.Reputation
text
Syndicate.RepIndicator.Progress.Back
_width
math
Syndicate.RepIndicator.Progress.Front
_x
_color
_G
UIColor_NegativeReputation
UIColor_PositiveReputation
Syndicate.RepIndicator.Progress.Projected
_visible
DogTagRedeemed
EMPTY_SYMBOL
Donated
mClipName
.RepCount
mMovie
_visible
math
StandingBonus
.txt
text
 
_x
_y
UISys
FlashInstance_SMOOTH_STEP
_alpha
_z
Count
mForceRedraw
mMovie
particleTallyFX
UISys
FlashInstance_SMOOTH_STEP
_alpha
mMovie
_visible
_z
Engine
CI_SELECT
gPlayerProfileMgr
OnRedeemAllComplete
redeemSounds
Lotus_Game
mAffiliationTag
math
/Lotus/Language/Menu/Syndicates_ReputationOverflow
STANDING_LIMIT_BIN_NONE
MAX_DailyStandingLimitBin
gPlayerProfileMgr
/Lotus/Language/Menu/Syndicates_DogTag_DailyLimit_Reached
_RedeemAll: No player profile
mMovie
/Lotus/Language/Menu/Syndicates_DogTag_StandingWasteWarning
STANDING
ConfirmRedeemPartial
table
Name
Rep
other
multiplier

 
string

/Lotus/Language/Menu/StandingChangeConfirm
CHANGES
ConfirmRedeeemAll
Donated
StandingBonus
ItemType
Rep
Engine
CI_SELECT
mItemType
mStanding
mTag
EMPTY_SYMBOL
Name
mMovie
Icon
ItemType
Count
Donated
StandingBonus
gPlayerProfileMgr
mElements
mItemCount
EMPTY_SYMBOL
openSounds
loopingSounds
string
mMovie
Syndicate.Name
verticalAlignment
center
text
Syndicate.Description.text
Title
SubTitle

Syndicate.LargeLogo
Syndicate.MediumLogo
Syndicate.SmallLogo
alpha
_color
_alpha
Syndicate.Bg
Syndicate.Panel.Shadow
UISys
FlashInstance_SMOOTH_STEP
_z
Syndicate.Panel.BackShadow
Syndicate
_root
FlashInstance_LINEAR
gPlayerProfileMgr
mItemType
mItemCount
mMovie
Syndicate.Panel.Shadow
UISys
FlashInstance_SMOOTH_STEP
_z
Syndicate.Panel.BackShadow
EMPTY_SYMBOL
mMovie
mMovie
MedallionsTotal
text
 
ReputationTotal
/Lotus/Language/Menu/Syndicates_TotalReputaion_DailyLimit
count
limit
/Lotus/Language/Menu/Syndicates_TotalReputaion
/Lotus/Language/Menu/RedeemAll
mLabel
/Lotus/Language/Menu/NoMedallionsToRedeem
dogtagname
Donated
StandingBonus
EE.Interface.Components.Grid
mMovie
DogTag
MenuItemPressed
MenuItemFocused
MenuItemUnfocused
mColumnSeparation
mRowSeparation
mWrapAroundNavigation
mElementTransitionTime
mElementDelayTime
mTransitionInDeltaY
mTransitionOutDeltaY
ScrollBar
CalculateX
CalculateY
mOnFocusedCallback
mOnUnfocusedCallback
mOnSelectedCallback
mElementDrawCallback
UpdateCounts
SetupPreInterpolationValues
GetInterpolationProperties
mInitialX
mRowSeparation
mSmoothScroll
mInitialY
Engine
_G
UISound_Focus
mClipName
mMovie
.Bg
RectEdgeColor
UIColorObject_Yellow
r
g
b
mClipName
Engine
mMovie
.Bg
RectEdgeColor
_G
UIColorObject_White
r
g
b
mMovie
mClipName
.Bg
listRectVisRangeMaterial
RectInnerColor
_G
UIColorObject_DarkBlue
r
g
b
RectEdgeColor
UIColorObject_White
Name
verticalAlignment
center
.Name
text
.Icon
Icon
Counter.Count
type
Engine
dynamic
input
.Counter.Bg
Id
UIColorObject_Yellow
.Counter.Left.Tf.text
<MENU_LTRIGGER2>
.Counter.Right.Tf.text
<MENU_RTRIGGER2>
Counter.Plus
_visible
Counter.Minus
Counter.Left
Counter.Right
.RepCount
_z
_alpha
Total.UnlockArrows
SecondaryBg
Counter.Plus.Btn
Counter.Plus.Bg
Counter.Plus.Pip1
Counter.Plus.Pip2
Counter.Minus.Btn
Counter.Minus.Bg
Counter.Minus.Pip1
.
listVisRangeMaterial
Total.Medallions
Total.Count
RepCount.txt
Available
Counter.Right.Tf
Counter.Left.Tf
listTextVisRangeMaterial
mMovie
mClipName
.Available.text
/Lotus/Language/Menu/CountDialog_AvailableStock
STOCK
Count
Donated
math
.Total.Medallions
text
textWidth
Total.UnlockArrows
_x
Total.Count
.Total.Count
 
StandingBonus
Total
.Counter.Count
mMovie
mClipName
_z
_alpha
_z
mMovie
listRectVisRangeMaterial
Lotus_Game
VISIBILITY_SIZE
VISIBILITY_CENTER
listVisRangeMaterial
listTextVisRangeMaterial
_T
gGameRules
SetSyndicateForDogTag
mMovie
_root
_alpha
Bluer
_G
UISound_DialogOpen
TopBg.Left
TopBg.Middle
TopBg.Right
SecondaryBg
Lotus.Interface.Libs.DioramaLoader
<REPUTATION_SMALL>
Lotus.Interface.Components.Button
RedeemBtn
/Lotus/Language/Menu/NoMedallionsToRedeem
RedeemAll
<MENU_SELECT>
mAlignment
center
mWidth
Engine
CI_SELECT
_T
ShowImpactMessage
/Lotus/Language/Syndicates/Syndicates_EventItemRedeemedMessage
AMOUNT
Lotus_Game
mAffiliationTag
gPlayerProfileMgr
OnRedeemAllComplete
mMovie
Engine
dialogType
OkCancel
locString
/Lotus/Language/Syndicates/Syndicates_TradeInEventItem
ITEM
ConfirmKelaDogTag
mMovie
_T
_T
gGameRules
_G
UISound_Focus
mMovie
DetailedPanel.PurchasePanel.Background
_color
UIColor_Yellow
mMovie
DetailedPanel.PurchasePanel.Background
_color
_G
UIColor_White
mClipName
Count
Donated
_G
UISound_Focus
Donated
mForceRedraw
StandingBonus
_G
UISound_Focus
Id
Id
mMovie
Bluer
Donated
math
StandingBonus
/Lotus/Language/Menu/Syndicate_DogTag_DonationCapped
mMovie
mClipName
.Counter.Count
text
mClipName
Donated
mMovie
.Counter.Count
text

0
math
Count
UP
DOWN
gFlashMgr
thisMovie
_T
syndicate
kelaDogTagQueryVO
kelaDogTagConfirmVO
0
string
_ENTER
mMovie
mScrollBar
_G
UISound_Scroll
mMovie
                         
0001                     ** function [0] definition (level 1)
                         ** start of function **
0001  00                 string size (0)
                         source name: (none)
0002  00                 line defined (0)
0003  00                 last line defined (0)
0004  00                 nups (0)
0005  00                 numparams (0)
0006  02                 is_vararg (2)
0007  38                 maxstacksize (56)
                         * code:
0009  02                 sizecode (325)
000A  5D000000           [001] getglobal  1   0        ; 738251817
000E  99400000           [002] loadk      2   1        ; "/Lotus/Syndicates/Ostron/CetusSyndicate"
0012  62800001           [003] call       1   2   2  
0016  9D000000           [004] getglobal  2   0        ; 738251817
001A  D9800000           [005] loadk      3   2        ; "/Lotus/Syndicates/Ostron/QuillsSyndicate"
001E  A2800001           [006] call       2   2   2  
0022  D9C00000           [007] loadk      3   3        ; 0
0026  1D010100           [008] getglobal  4   4        ; 849075268
002A  59410100           [009] loadk      5   5        ; "Lotus.Interface.LotusUtilities"
002E  22810001           [010] call       4   2   2  
0032  5D010100           [011] getglobal  5   4        ; 849075268
0036  99810100           [012] loadk      6   6        ; "EE.Interface.Utilities"
003A  62810001           [013] call       5   2   2  
003E  9D010100           [014] getglobal  6   4        ; 849075268
0042  D9C10100           [015] loadk      7   7        ; "Lotus.Interface.SyndicateUtilities"
0046  A2810001           [016] call       6   2   2  
004A  D7010000           [017] loadbool   7   0   0    ; false
004E  17020000           [018] loadbool   8   0   0    ; false
0052  46020005           [019] loadnil    9   10     
0056  D7020000           [020] loadbool   11  0   0    ; false
005A  06038006           [021] loadnil    12  13     
005E  99030200           [022] loadk      14  8        ; ""
0062  C6038008           [023] loadnil    15  17     
0066  99440200           [024] loadk      18  9        ; 0
006A  D9440200           [025] loadk      19  9        ; 0
006E  17050000           [026] loadbool   20  0   0    ; false
0072  59450200           [027] loadk      21  9        ; 0
0076  99450200           [028] loadk      22  9        ; 0
007A  C605000C           [029] loadnil    23  24     
007E  57060000           [030] loadbool   25  0   0    ; false
0082  9D860200           [031] getglobal  26  10       ; 2083004503
0086  D9C60200           [032] loadk      27  11       ; "/Lotus/Types/Items/SyndicateDogTags/KelaEventDogTag"
008A  A2860001           [033] call       26  2   2  
008E  C606800E           [034] loadnil    27  29     
0092  97070000           [035] loadbool   30  0   0    ; false
0096  C607800F           [036] loadnil    31  31     
009A  19080300           [037] loadk      32  12       ; 0
009E  57080000           [038] loadbool   33  0   0    ; false
00A2  9D480300           [039] getglobal  34  13       ; EMPTY_SYMBOL
00A6  D7080000           [040] loadbool   35  0   0    ; false
00AA  06090012           [041] loadnil    36  36     
00AE  65090000           [042] closure    37  0      
00B2  12008003           [043] move       0   7      
00B6  60890300           [044] setglobal  37  14       ; IsInputBlocked
00BA  60C90300           [045] setglobal  37  15       ; 1877468992
00BE  65490000           [046] closure    37  1      
00C2  A5890000           [047] closure    38  2      
00C6  12008003           [048] move       0   7      
00CA  12008002           [049] move       0   5      
00CE  12000000           [050] move       0   0      
00D2  1200000C           [051] move       0   24     
00D6  12008011           [052] move       0   35     
00DA  12000011           [053] move       0   34     
00DE  12000003           [054] move       0   6      
00E2  12008012           [055] move       0   37     
00E6  E5C90000           [056] closure    39  3      
00EA  12000013           [057] move       0   38     
00EE  E0090400           [058] setglobal  39  16       ; TransitionOut
00F2  E0490400           [059] setglobal  39  17       ; 1888989620
00F6  E5090100           [060] closure    39  4      
00FA  254A0100           [061] closure    40  5      
00FE  12000002           [062] move       0   4      
0102  1200000C           [063] move       0   24     
0106  12008002           [064] move       0   5      
010A  12000006           [065] move       0   12     
010E  1200800A           [066] move       0   21     
0112  658A0100           [067] closure    41  6      
0116  12008011           [068] move       0   35     
011A  1200000C           [069] move       0   24     
011E  12000011           [070] move       0   34     
0122  12000003           [071] move       0   6      
0126  12008004           [072] move       0   9      
012A  12000007           [073] move       0   14     
012E  12008002           [074] move       0   5      
0132  1200000B           [075] move       0   22     
0136  12000002           [076] move       0   4      
013A  1200800A           [077] move       0   21     
013E  12000014           [078] move       0   40     
0142  608A0400           [079] setglobal  41  18       ; OnRedeemAllComplete
0146  60CA0400           [080] setglobal  41  19       ; 668168799
014A  65CA0100           [081] closure    41  7      
014E  1200800B           [082] move       0   23     
0152  12008001           [083] move       0   3      
0156  12008002           [084] move       0   5      
015A  600A0500           [085] setglobal  41  20       ; ConfirmRedeeemAll
015E  604A0500           [086] setglobal  41  21       ; -1922418645
0162  650A0200           [087] closure    41  8      
0166  1200800B           [088] move       0   23     
016A  1200000C           [089] move       0   24     
016E  1200000B           [090] move       0   22     
0172  12008004           [091] move       0   9      
0176  12000002           [092] move       0   4      
017A  1200800C           [093] move       0   25     
017E  12008002           [094] move       0   5      
0182  A54A0200           [095] closure    42  9      
0186  12008014           [096] move       0   41     
018A  A08A0500           [097] setglobal  42  22       ; RedeemAll
018E  A0CA0500           [098] setglobal  42  23       ; 1599311362
0192  A58A0200           [099] closure    42  10     
0196  12008014           [100] move       0   41     
019A  A00A0600           [101] setglobal  42  24       ; ConfirmRedeemPartial
019E  A04A0600           [102] setglobal  42  25       ; -105762185
01A2  A5CA0200           [103] closure    42  11     
01A6  1200000C           [104] move       0   24     
01AA  1200000D           [105] move       0   26     
01AE  12000010           [106] move       0   32     
01B2  12000011           [107] move       0   34     
01B6  12008004           [108] move       0   9      
01BA  E50A0300           [109] closure    43  12     
01BE  1200000C           [110] move       0   24     
01C2  1200800C           [111] move       0   25     
01C6  1200800D           [112] move       0   27     
01CA  1200000E           [113] move       0   28     
01CE  12000011           [114] move       0   34     
01D2  12000015           [115] move       0   42     
01D6  12008000           [116] move       0   1      
01DA  12000001           [117] move       0   2      
01DE  12008001           [118] move       0   3      
01E2  12008002           [119] move       0   5      
01E6  12000000           [120] move       0   0      
01EA  12000014           [121] move       0   40     
01EE  12000004           [122] move       0   8      
01F2  1200000D           [123] move       0   26     
01F6  1200800F           [124] move       0   31     
01FA  1200000F           [125] move       0   30     
01FE  254B0300           [126] closure    44  13     
0202  1200000C           [127] move       0   24     
0206  12000011           [128] move       0   34     
020A  658B0300           [129] closure    45  14     
020E  12008004           [130] move       0   9      
0212  12000002           [131] move       0   4      
0216  1200000C           [132] move       0   24     
021A  12008002           [133] move       0   5      
021E  12000016           [134] move       0   44     
0222  1200800C           [135] move       0   25     
0226  12000007           [136] move       0   14     
022A  12008006           [137] move       0   13     
022E  A5CB0300           [138] closure    46  15     
0232  12008004           [139] move       0   9      
0236  12008002           [140] move       0   5      
023A  12008016           [141] move       0   45     
023E  12000007           [142] move       0   14     
0242  E50B0400           [143] closure    47  16     
0246  12008007           [144] move       0   15     
024A  254C0400           [145] closure    48  17     
024E  12008002           [146] move       0   5      
0252  658C0400           [147] closure    49  18     
0256  12008015           [148] move       0   43     
025A  12000002           [149] move       0   4      
025E  12008001           [150] move       0   3      
0262  12008002           [151] move       0   5      
0266  12008007           [152] move       0   15     
026A  12000007           [153] move       0   14     
026E  12000017           [154] move       0   46     
0272  12000018           [155] move       0   48     
0276  12008006           [156] move       0   13     
027A  12008013           [157] move       0   39     
027E  608C0600           [158] setglobal  49  26       ; Initialize
0282  60CC0600           [159] setglobal  49  27       ; 1650753590
0286  65CC0400           [160] closure    49  19     
028A  1200800E           [161] move       0   29     
028E  12008010           [162] move       0   33     
0292  1200800F           [163] move       0   31     
0296  12008002           [164] move       0   5      
029A  1200000E           [165] move       0   28     
029E  12000010           [166] move       0   32     
02A2  1200800B           [167] move       0   23     
02A6  1200000C           [168] move       0   24     
02AA  1200000D           [169] move       0   26     
02AE  600C0700           [170] setglobal  49  28       ; ConfirmKelaDogTag
02B2  604C0700           [171] setglobal  49  29       ; 695676551
02B6  650C0500           [172] closure    49  20     
02BA  1200800E           [173] move       0   29     
02BE  1200000F           [174] move       0   30     
02C2  1200800F           [175] move       0   31     
02C6  1200000D           [176] move       0   26     
02CA  12008002           [177] move       0   5      
02CE  12008010           [178] move       0   33     
02D2  12000005           [179] move       0   10     
02D6  12008005           [180] move       0   11     
02DA  12008017           [181] move       0   47     
02DE  12000003           [182] move       0   6      
02E2  608C0700           [183] setglobal  49  30       ; Update
02E6  60CC0700           [184] setglobal  49  31       ; -1938777623
02EA  654C0500           [185] closure    49  21     
02EE  12008003           [186] move       0   7      
02F2  12000013           [187] move       0   38     
02F6  600C0800           [188] setglobal  49  32       ; GoBack
02FA  604C0800           [189] setglobal  49  33       ; 1865219458
02FE  658C0500           [190] closure    49  22     
0302  608C0800           [191] setglobal  49  34       ; Shutdown
0306  60CC0800           [192] setglobal  49  35       ; 1012367267
030A  65CC0500           [193] closure    49  23     
030E  12008003           [194] move       0   7      
0312  12008002           [195] move       0   5      
0316  600C0900           [196] setglobal  49  36       ; PurchaseButtonFocused
031A  604C0900           [197] setglobal  49  37       ; 793028375
031E  650C0600           [198] closure    49  24     
0322  608C0900           [199] setglobal  49  38       ; PurchaseButtonUnfocused
0326  60CC0900           [200] setglobal  49  39       ; 719910871
032A  654C0600           [201] closure    49  25     
032E  12008003           [202] move       0   7      
0332  600C0A00           [203] setglobal  49  40       ; PurchaseButtonPressed
0336  604C0A00           [204] setglobal  49  41       ; 1799845588
033A  658C0600           [205] closure    49  26     
033E  12008003           [206] move       0   7      
0342  12008004           [207] move       0   9      
0346  12000012           [208] move       0   36     
034A  12008002           [209] move       0   5      
034E  12000008           [210] move       0   16     
0352  12008008           [211] move       0   17     
0356  12000009           [212] move       0   18     
035A  12008009           [213] move       0   19     
035E  A5CC0600           [214] closure    50  27     
0362  12008003           [215] move       0   7      
0366  12008004           [216] move       0   9      
036A  1200800A           [217] move       0   21     
036E  12000014           [218] move       0   40     
0372  12008002           [219] move       0   5      
0376  12000008           [220] move       0   16     
037A  12008008           [221] move       0   17     
037E  12000009           [222] move       0   18     
0382  12008009           [223] move       0   19     
0386  E50C0700           [224] closure    51  28     
038A  12008018           [225] move       0   49     
038E  E08C0A00           [226] setglobal  51  42       ; IncreaseCount
0392  E0CC0A00           [227] setglobal  51  43       ; 1095110507
0396  E54C0700           [228] closure    51  29     
039A  12000019           [229] move       0   50     
039E  E00C0B00           [230] setglobal  51  44       ; DecreaseCount
03A2  E04C0B00           [231] setglobal  51  45       ; -1408429621
03A6  E58C0700           [232] closure    51  30     
03AA  12008008           [233] move       0   17     
03AE  25CD0700           [234] closure    52  31     
03B2  12008019           [235] move       0   51     
03B6  208D0B00           [236] setglobal  52  46       ; ConcludeDonation
03BA  20CD0B00           [237] setglobal  52  47       ; -2011427449
03BE  250D0800           [238] closure    52  32     
03C2  12008004           [239] move       0   9      
03C6  12000019           [240] move       0   50     
03CA  200D0C00           [241] setglobal  52  48       ; onKeyDown_MENU_LTRIGGER2
03CE  204D0C00           [242] setglobal  52  49       ; -1680304416
03D2  254D0800           [243] closure    52  33     
03D6  12008004           [244] move       0   9      
03DA  12008018           [245] move       0   49     
03DE  208D0C00           [246] setglobal  52  50       ; onKeyDown_MENU_RTRIGGER2
03E2  20CD0C00           [247] setglobal  52  51       ; 266665867
03E6  258D0800           [248] closure    52  34     
03EA  12000002           [249] move       0   4      
03EE  12000018           [250] move       0   48     
03F2  200D0D00           [251] setglobal  52  52       ; onViewportSizeChanged
03F6  204D0D00           [252] setglobal  52  53       ; 982516775
03FA  25CD0800           [253] closure    52  35     
03FE  1200000A           [254] move       0   20     
0402  208D0D00           [255] setglobal  52  54       ; InputFieldFocused
0406  20CD0D00           [256] setglobal  52  55       ; 2022110437
040A  25090900           [257] closure    36  36     
040E  12000002           [258] move       0   4      
0412  1200000C           [259] move       0   24     
0416  1200800C           [260] move       0   25     
041A  1200800A           [261] move       0   21     
041E  12008002           [262] move       0   5      
0422  12000014           [263] move       0   40     
0426  12008004           [264] move       0   9      
042A  254D0900           [265] closure    52  37     
042E  12008004           [266] move       0   9      
0432  12000012           [267] move       0   36     
0436  658D0900           [268] closure    53  38     
043A  1200001A           [269] move       0   52     
043E  1200000A           [270] move       0   20     
0442  600D0E00           [271] setglobal  53  56       ; InputFieldUnfocused
0446  604D0E00           [272] setglobal  53  57       ; 1908652742
044A  65CD0900           [273] closure    53  39     
044E  12008004           [274] move       0   9      
0452  A50D0A00           [275] closure    54  40     
0456  12008004           [276] move       0   9      
045A  E54D0A00           [277] closure    55  41     
045E  1200801A           [278] move       0   53     
0462  E08D0E00           [279] setglobal  55  58       ; onKeyDown_MENU_LEFT_FROM_ANALOG
0466  E0CD0E00           [280] setglobal  55  59       ; 2124621137
046A  E58D0A00           [281] closure    55  42     
046E  1200001B           [282] move       0   54     
0472  E00D0F00           [283] setglobal  55  60       ; onKeyDown_MENU_RIGHT_FROM_ANALOG
0476  E04D0F00           [284] setglobal  55  61       ; -2136329722
047A  E5CD0A00           [285] closure    55  43     
047E  E08D0F00           [286] setglobal  55  62       ; OpenDogTagTradeInMenu
0482  E0CD0F00           [287] setglobal  55  63       ; -1083137018
0486  E50D0B00           [288] closure    55  44     
048A  12008003           [289] move       0   7      
048E  1200000A           [290] move       0   20     
0492  1200001A           [291] move       0   52     
0496  E00D1000           [292] setglobal  55  64       ; onRawInputEvent
049A  E04D1000           [293] setglobal  55  65       ; 290863379
049E  E54D0B00           [294] closure    55  45     
04A2  12008003           [295] move       0   7      
04A6  12008004           [296] move       0   9      
04AA  E08D1000           [297] setglobal  55  66       ; onKeyDown_MENU_MOUSE_Z
04AE  E0CD1000           [298] setglobal  55  67       ; 1458230185
04B2  E58D0B00           [299] closure    55  46     
04B6  12008003           [300] move       0   7      
04BA  12000013           [301] move       0   38     
04BE  E00D1100           [302] setglobal  55  68       ; onKeyDown_HIDE_PAUSE_MENU
04C2  E04D1100           [303] setglobal  55  69       ; -1518645360
04C6  E5CD0B00           [304] closure    55  47     
04CA  12008006           [305] move       0   13     
04CE  12008003           [306] move       0   7      
04D2  12008004           [307] move       0   9      
04D6  E08D1100           [308] setglobal  55  70       ; OnGamepadTransition
04DA  E0CD1100           [309] setglobal  55  71       ; -1729825229
04DE  E50D0C00           [310] closure    55  48     
04E2  12008003           [311] move       0   7      
04E6  12008004           [312] move       0   9      
04EA  E00D1200           [313] setglobal  55  72       ; MenuItemPressed
04EE  E04D1200           [314] setglobal  55  73       ; 590751827
04F2  E54D0C00           [315] closure    55  49     
04F6  12008003           [316] move       0   7      
04FA  12008004           [317] move       0   9      
04FE  E08D1200           [318] setglobal  55  74       ; MenuItemFocused
0502  E0CD1200           [319] setglobal  55  75       ; -2010164486
0506  E58D0C00           [320] closure    55  50     
050A  12008003           [321] move       0   7      
050E  12008004           [322] move       0   9      
0512  E00D1300           [323] setglobal  55  76       ; MenuItemUnfocused
0516  E04D1300           [324] setglobal  55  77       ; -1418434452
051A  1E008000           [325] return     0   1      
                         * constants:
051E  4E                 sizek (78)
051F  01                 const type 3
0520  29D4002C           const [0]: (738251817)
0524  04                 const type 4
0525  28                 string size (40)
0526  2F4C6F7475732F53+  "/Lotus/S"
052E  796E646963617465+  "yndicate"
0536  732F4F7374726F6E+  "s/Ostron"
053E  2F43657475735379+  "/CetusSy"
0546  6E64696361746500   "ndicate\0"
                         const [1]: "/Lotus/Syndicates/Ostron/CetusSyndicate"
054E  04                 const type 4
054F  29                 string size (41)
0550  2F4C6F7475732F53+  "/Lotus/S"
0558  796E646963617465+  "yndicate"
0560  732F4F7374726F6E+  "s/Ostron"
0568  2F5175696C6C7353+  "/QuillsS"
0570  796E646963617465+  "yndicate"
0578  00                 "\0"
                         const [2]: "/Lotus/Syndicates/Ostron/QuillsSyndicate"
0579  03                 const type 3
057A  0000803F           const [3]: (0)
057E  01                 const type 3
057F  44DC9B32           const [4]: (849075268)
0583  04                 const type 4
0584  1F                 string size (31)
0585  4C6F7475732E496E+  "Lotus.In"
058D  746572666163652E+  "terface."
0595  4C6F747573557469+  "LotusUti"
059D  6C697469657300     "lities\0"
                         const [5]: "Lotus.Interface.LotusUtilities"
05A4  04                 const type 4
05A5  17                 string size (23)
05A6  45452E496E746572+  "EE.Inter"
05AE  666163652E557469+  "face.Uti"
05B6  6C697469657300     "lities\0"
                         const [6]: "EE.Interface.Utilities"
05BD  04                 const type 4
05BE  23                 string size (35)
05BF  4C6F7475732E496E+  "Lotus.In"
05C7  746572666163652E+  "terface."
05CF  53796E6469636174+  "Syndicat"
05D7  655574696C697469+  "eUtiliti"
05DF  657300             "es\0"
                         const [7]: "Lotus.Interface.SyndicateUtilities"
05E2  04                 const type 4
05E3  01                 string size (0)
                         const [8]: ""
05E5  03                 const type 3
05E6  00000000           const [9]: (0)
05EA  01                 const type 3
05EB  5720287C           const [10]: (2083004503)
05EF  04                 const type 4
05F0  34                 string size (52)
05F1  2F4C6F7475732F54+  "/Lotus/T"
05F9  797065732F497465+  "ypes/Ite"
0601  6D732F53796E6469+  "ms/Syndi"
0609  63617465446F6754+  "cateDogT"
0611  6167732F4B656C61+  "ags/Kela"
0619  4576656E74446F67+  "EventDog"
0621  54616700           "Tag\0"
                         const [11]: "/Lotus/Types/Items/SyndicateDogTags/KelaEventDogTag"
0625  03                 const type 3
0626  00401C46           const [12]: (0)
062A  04                 const type 4
062B  0D                 string size (13)
062C  454D5054595F5359+  "EMPTY_SY"
0634  4D424F4C00         "MBOL\0"
                         const [13]: "EMPTY_SYMBOL"
0639  04                 const type 4
063A  0F                 string size (15)
063B  4973496E70757442+  "IsInputB"
0643  6C6F636B656400     "locked\0"
                         const [14]: "IsInputBlocked"
064A  01                 const type 3
064B  40E7E76F           const [15]: (1877468992)
064F  04                 const type 4
0650  0E                 string size (14)
0651  5472616E73697469+  "Transiti"
0659  6F6E4F757400       "onOut\0"
                         const [16]: "TransitionOut"
065F  01                 const type 3
0660  B4B19770           const [17]: (1888989620)
0664  04                 const type 4
0665  14                 string size (20)
0666  4F6E52656465656D+  "OnRedeem"
066E  416C6C436F6D706C+  "AllCompl"
0676  65746500           "ete\0"
                         const [18]: "OnRedeemAllComplete"
067A  01                 const type 3
067B  5F72D327           const [19]: (668168799)
067F  04                 const type 4
0680  12                 string size (18)
0681  436F6E6669726D52+  "ConfirmR"
0689  65646565656D416C+  "edeeemAl"
0691  6C00               "l\0"
                         const [20]: "ConfirmRedeeemAll"
0693  01                 const type 3
0694  2B386A8D           const [21]: (-1922418645)
0698  04                 const type 4
0699  0A                 string size (10)
069A  52656465656D416C+  "RedeemAl"
06A2  6C00               "l\0"
                         const [22]: "RedeemAll"
06A4  01                 const type 3
06A5  028E535F           const [23]: (1599311362)
06A9  04                 const type 4
06AA  15                 string size (21)
06AB  436F6E6669726D52+  "ConfirmR"
06B3  656465656D506172+  "edeemPar"
06BB  7469616C00         "tial\0"
                         const [24]: "ConfirmRedeemPartial"
06C0  01                 const type 3
06C1  7732B2F9           const [25]: (-105762185)
06C5  04                 const type 4
06C6  0B                 string size (11)
06C7  496E697469616C69+  "Initiali"
06CF  7A6500             "ze\0"
                         const [26]: "Initialize"
06D2  01                 const type 3
06D3  36806462           const [27]: (1650753590)
06D7  04                 const type 4
06D8  12                 string size (18)
06D9  436F6E6669726D4B+  "ConfirmK"
06E1  656C61446F675461+  "elaDogTa"
06E9  6700               "g\0"
                         const [28]: "ConfirmKelaDogTag"
06EB  01                 const type 3
06EC  872E7729           const [29]: (695676551)
06F0  04                 const type 4
06F1  07                 string size (7)
06F2  55706461746500     "Update\0"
                         const [30]: "Update"
06F9  01                 const type 3
06FA  E999708C           const [31]: (-1938777623)
06FE  04                 const type 4
06FF  07                 string size (7)
0700  476F4261636B00     "GoBack\0"
                         const [32]: "GoBack"
0707  01                 const type 3
0708  82FD2C6F           const [33]: (1865219458)
070C  04                 const type 4
070D  09                 string size (9)
070E  53687574646F776E+  "Shutdown"
0716  00                 "\0"
                         const [34]: "Shutdown"
0717  01                 const type 3
0718  A37F573C           const [35]: (1012367267)
071C  04                 const type 4
071D  16                 string size (22)
071E  5075726368617365+  "Purchase"
0726  427574746F6E466F+  "ButtonFo"
072E  637573656400       "cused\0"
                         const [36]: "PurchaseButtonFocused"
0734  01                 const type 3
0735  17A7442F           const [37]: (793028375)
0739  04                 const type 4
073A  18                 string size (24)
073B  5075726368617365+  "Purchase"
0743  427574746F6E556E+  "ButtonUn"
074B  666F637573656400   "focused\0"
                         const [38]: "PurchaseButtonUnfocused"
0753  01                 const type 3
0754  D7F7E82A           const [39]: (719910871)
0758  04                 const type 4
0759  16                 string size (22)
075A  5075726368617365+  "Purchase"
0762  427574746F6E5072+  "ButtonPr"
076A  657373656400       "essed\0"
                         const [40]: "PurchaseButtonPressed"
0770  01                 const type 3
0771  D476476B           const [41]: (1799845588)
0775  04                 const type 4
0776  0E                 string size (14)
0777  496E637265617365+  "Increase"
077F  436F756E7400       "Count\0"
                         const [42]: "IncreaseCount"
0785  01                 const type 3
0786  6B0F4641           const [43]: (1095110507)
078A  04                 const type 4
078B  0E                 string size (14)
078C  4465637265617365+  "Decrease"
0794  436F756E7400       "Count\0"
                         const [44]: "DecreaseCount"
079A  01                 const type 3
079B  CB110DAC           const [45]: (-1408429621)
079F  04                 const type 4
07A0  11                 string size (17)
07A1  436F6E636C756465+  "Conclude"
07A9  446F6E6174696F6E+  "Donation"
07B1  00                 "\0"
                         const [46]: "ConcludeDonation"
07B2  01                 const type 3
07B3  870D1C88           const [47]: (-2011427449)
07B7  04                 const type 4
07B8  19                 string size (25)
07B9  6F6E4B6579446F77+  "onKeyDow"
07C1  6E5F4D454E555F4C+  "n_MENU_L"
07C9  5452494747455232+  "TRIGGER2"
07D1  00                 "\0"
                         const [48]: "onKeyDown_MENU_LTRIGGER2"
07D2  01                 const type 3
07D3  E096D89B           const [49]: (-1680304416)
07D7  04                 const type 4
07D8  19                 string size (25)
07D9  6F6E4B6579446F77+  "onKeyDow"
07E1  6E5F4D454E555F52+  "n_MENU_R"
07E9  5452494747455232+  "TRIGGER2"
07F1  00                 "\0"
                         const [50]: "onKeyDown_MENU_RTRIGGER2"
07F2  01                 const type 3
07F3  8BFFE40F           const [51]: (266665867)
07F7  04                 const type 4
07F8  16                 string size (22)
07F9  6F6E56696577706F+  "onViewpo"
0801  727453697A654368+  "rtSizeCh"
0809  616E67656400       "anged\0"
                         const [52]: "onViewportSizeChanged"
080F  01                 const type 3
0810  2704903A           const [53]: (982516775)
0814  04                 const type 4
0815  12                 string size (18)
0816  496E707574466965+  "InputFie"
081E  6C64466F63757365+  "ldFocuse"
0826  6400               "d\0"
                         const [54]: "InputFieldFocused"
0828  01                 const type 3
0829  E5F48678           const [55]: (2022110437)
082D  04                 const type 4
082E  14                 string size (20)
082F  496E707574466965+  "InputFie"
0837  6C64556E666F6375+  "ldUnfocu"
083F  73656400           "sed\0"
                         const [56]: "InputFieldUnfocused"
0843  01                 const type 3
0844  C6BAC371           const [57]: (1908652742)
0848  04                 const type 4
0849  20                 string size (32)
084A  6F6E4B6579446F77+  "onKeyDow"
0852  6E5F4D454E555F4C+  "n_MENU_L"
085A  4546545F46524F4D+  "EFT_FROM"
0862  5F414E414C4F4700   "_ANALOG\0"
                         const [58]: "onKeyDown_MENU_LEFT_FROM_ANALOG"
086A  01                 const type 3
086B  5125A37E           const [59]: (2124621137)
086F  04                 const type 4
0870  21                 string size (33)
0871  6F6E4B6579446F77+  "onKeyDow"
0879  6E5F4D454E555F52+  "n_MENU_R"
0881  494748545F46524F+  "IGHT_FRO"
0889  4D5F414E414C4F47+  "M_ANALOG"
0891  00                 "\0"
                         const [60]: "onKeyDown_MENU_RIGHT_FROM_ANALOG"
0892  01                 const type 3
0893  0632AA80           const [61]: (-2136329722)
0897  04                 const type 4
0898  16                 string size (22)
0899  4F70656E446F6754+  "OpenDogT"
08A1  6167547261646549+  "agTradeI"
08A9  6E4D656E7500       "nMenu\0"
                         const [62]: "OpenDogTagTradeInMenu"
08AF  01                 const type 3
08B0  06A470BF           const [63]: (-1083137018)
08B4  04                 const type 4
08B5  10                 string size (16)
08B6  6F6E526177496E70+  "onRawInp"
08BE  75744576656E7400   "utEvent\0"
                         const [64]: "onRawInputEvent"
08C6  01                 const type 3
08C7  13395611           const [65]: (290863379)
08CB  04                 const type 4
08CC  17                 string size (23)
08CD  6F6E4B6579446F77+  "onKeyDow"
08D5  6E5F4D454E555F4D+  "n_MENU_M"
08DD  4F5553455F5A00     "OUSE_Z\0"
                         const [66]: "onKeyDown_MENU_MOUSE_Z"
08E4  01                 const type 3
08E5  A9D3EA56           const [67]: (1458230185)
08E9  04                 const type 4
08EA  1A                 string size (26)
08EB  6F6E4B6579446F77+  "onKeyDow"
08F3  6E5F484944455F50+  "n_HIDE_P"
08FB  415553455F4D454E+  "AUSE_MEN"
0903  5500               "U\0"
                         const [68]: "onKeyDown_HIDE_PAUSE_MENU"
0905  01                 const type 3
0906  904F7BA5           const [69]: (-1518645360)
090A  04                 const type 4
090B  14                 string size (20)
090C  4F6E47616D657061+  "OnGamepa"
0914  645472616E736974+  "dTransit"
091C  696F6E00           "ion\0"
                         const [70]: "OnGamepadTransition"
0920  01                 const type 3
0921  33F6E498           const [71]: (-1729825229)
0925  04                 const type 4
0926  10                 string size (16)
0927  4D656E754974656D+  "MenuItem"
092F  5072657373656400   "Pressed\0"
                         const [72]: "MenuItemPressed"
0937  01                 const type 3
0938  53283623           const [73]: (590751827)
093C  04                 const type 4
093D  10                 string size (16)
093E  4D656E754974656D+  "MenuItem"
0946  466F637573656400   "Focused\0"
                         const [74]: "MenuItemFocused"
094E  01                 const type 3
094F  FA522F88           const [75]: (-2010164486)
0953  04                 const type 4
0954  12                 string size (18)
0955  4D656E754974656D+  "MenuItem"
095D  556E666F63757365+  "Unfocuse"
0965  6400               "d\0"
                         const [76]: "MenuItemUnfocused"
0967  01                 const type 3
0968  6C6874AB           const [77]: (-1418434452)
                         * functions:
096C  33                 sizep (51)
                         
096D                     ** function [0] definition (level 2)
                         ** start of function **
096D  00                 string size (0)
                         source name: (none)
096E  42                 line defined (66)
096F  44                 last line defined (68)
0970  01                 nups (1)
0971  00                 numparams (0)
0972  00                 is_vararg (0)
0973  02                 maxstacksize (2)
                         * code:
0974  03                 sizecode (3)
0975  13000000           [1] getupval   0   0      
0979  1E000001           [2] return     0   2      
097D  1E008000           [3] return     0   1      
                         * constants:
0981  00                 sizek (0)
                         * functions:
0982  00                 sizep (0)
                         * lines:
0983  03                 sizelineinfo (3)
                         [pc] (line)
0984  43                 [1] (67)
0985  00                 [2] (67)
0986  00                 [3] (68)
                         * locals:
0990  00                 sizelocvars (0)
                         * upvalues:
0991  00                 sizeupvalues (0)
                         ** end of function **

                         
0992                     ** function [1] definition (level 2)
                         ** start of function **
0992  00                 string size (0)
                         source name: (none)
0993  47                 line defined (71)
0994  49                 last line defined (73)
0995  00                 nups (0)
0996  00                 numparams (0)
0997  00                 is_vararg (0)
0998  02                 maxstacksize (2)
                         * code:
0999  04                 sizecode (4)
099A  1D000000           [1] getglobal  0   0        ; mMovie
099E  24404000           [2] self       0   0   257  ; -1517569684
09A2  22400001           [3] call       0   2   1  
09A6  1E008000           [4] return     0   1      
                         * constants:
09AA  02                 sizek (2)
09AB  04                 const type 4
09AC  07                 string size (7)
09AD  6D4D6F76696500     "mMovie\0"
                         const [0]: "mMovie"
09B4  01                 const type 3
09B5  6CB98BA5           const [1]: (-1517569684)
                         * functions:
09B9  00                 sizep (0)
                         * lines:
09BA  04                 sizelineinfo (4)
                         [pc] (line)
09BB  48                 [1] (72)
09BC  00                 [2] (72)
09BD  00                 [3] (72)
09BE  00                 [4] (73)
                         * locals:
09CB  00                 sizelocvars (0)
                         * upvalues:
09CC  00                 sizeupvalues (0)
                         ** end of function **

                         
09CD                     ** function [2] definition (level 2)
                         ** start of function **
09CD  00                 string size (0)
                         source name: (none)
09CE  4B                 line defined (75)
09CF  5D                 last line defined (93)
09D0  08                 nups (8)
09D1  00                 numparams (0)
09D2  00                 is_vararg (0)
09D3  0A                 maxstacksize (10)
                         * code:
09D4  3F                 sizecode (63)
09D5  17008000           [01] loadbool   0   1   0    ; true
fail op	8
09D9  08000000           [02] setupval   0   0      
09DD  13008000           [03] getupval   0   1      
09E1  0E004000           [04] gettable   0   0   256  ; 630793108
09E5  5D400000           [05] getglobal  1   1        ; _G
09E9  4E80C000           [06] gettable   1   1   258  ; "UISound_DialogClose"
09ED  22400001           [07] call       0   2   1  
09F1  1DC00000           [08] getglobal  0   3        ; 1074689893
09F5  53000001           [09] getupval   1   2      
09F9  22800001           [10] call       0   2   2  
09FD  18400000           [11] test       0       1    ; to [13] if false
0A01  1AC00080           [12] jmp        4            ; to [17]
0A05  13000001           [13] getupval   0   2      
0A09  24004100           [14] self       0   0   260  ; 675444810
0A0D  97008000           [15] loadbool   2   1   0    ; true
0A11  22408001           [16] call       0   3   1  
0A15  1DC00000           [17] getglobal  0   3        ; 1074689893
0A19  53008001           [18] getupval   1   3      
0A1D  22800001           [19] call       0   2   2  
0A21  18400000           [20] test       0       1    ; to [22] if false
0A25  1A400480           [21] jmp        18           ; to [40]
0A29  13000002           [22] getupval   0   4      
0A2D  18400000           [23] test       0       1    ; to [25] if false
0A31  1A800380           [24] jmp        15           ; to [40]
0A35  19400100           [25] loadk      0   5        ; "DogTagExitNoSale"
0A39  53008002           [26] getupval   1   5      
0A3D  9D800100           [27] getglobal  2   6        ; EMPTY_SYMBOL
fail op	35
0A41  63808000           [28] close      1  
0A45  1A000180           [29] jmp        5            ; to [35]
0A49  52000000           [30] move       1   0      
0A4D  93008002           [31] getupval   2   5      
0A51  A4C04101           [32] self       2   2   263  ; 1590141906
0A55  A2800001           [33] call       2   2   2  
0A59  02808000           [34] concat     0   1   2  
0A5D  53000003           [35] getupval   1   6      
0A61  4E00C200           [36] gettable   1   1   264  ; 816310460
0A65  93008001           [37] getupval   2   3      
0A69  D2000000           [38] move       3   0      
0A6D  62408001           [39] call       1   3   1  
0A71  53008000           [40] getupval   1   1      
0A75  4E40C200           [41] gettable   1   1   265  ; -617354062
0A79  9D800200           [42] getglobal  2   10       ; mMovie
0A7D  D9C00200           [43] loadk      3   11       ; 0
0A81  19010300           [44] loadk      4   12       ; 0
0A85  62400002           [45] call       1   4   1  
0A89  5D400300           [46] getglobal  1   13       ; 1390508688
0A8D  9D800200           [47] getglobal  2   10       ; mMovie
0A91  D9800300           [48] loadk      3   14       ; "_root"
0A95  1DC10300           [49] getglobal  4   15       ; UISys
0A99  0E014402           [50] gettable   4   4   272  ; "FlashInstance_SMOOTH_STEP"
0A9D  4B010001           [51] newtable   5   2   0    ; array=2, hash=0
0AA1  99410400           [52] loadk      6   17       ; "_alpha"
0AA5  D9810400           [53] loadk      7   18       ; "_z"
0AA9  5B410001           [54] setlist    5   2   1    ; index 1 to 2
0AAD  8B010001           [55] newtable   6   2   0    ; array=2, hash=0
0AB1  D9C10200           [56] loadk      7   11       ; 0
0AB5  19C20400           [57] loadk      8   19       ; 0
0AB9  9B410001           [58] setlist    6   2   1    ; index 1 to 2
0ABD  D9010300           [59] loadk      7   12       ; 0
0AC1  19C20200           [60] loadk      8   11       ; 0
0AC5  53028003           [61] getupval   9   7      
0AC9  62408004           [62] call       1   9   1  
0ACD  1E008000           [63] return     0   1      
                         * constants:
0AD1  14                 sizek (20)
0AD2  01                 const type 3
0AD3  94239925           const [0]: (630793108)
0AD7  04                 const type 4
0AD8  03                 string size (3)
0AD9  5F4700             "_G\0"
                         const [1]: "_G"
0ADC  04                 const type 4
0ADD  14                 string size (20)
0ADE  5549536F756E645F+  "UISound_"
0AE6  4469616C6F67436C+  "DialogCl"
0AEE  6F736500           "ose\0"
                         const [2]: "UISound_DialogClose"
0AF2  01                 const type 3
0AF3  65770E40           const [3]: (1074689893)
0AF7  01                 const type 3
0AF8  4A784228           const [4]: (675444810)
0AFC  04                 const type 4
0AFD  11                 string size (17)
0AFE  446F675461674578+  "DogTagEx"
0B06  69744E6F53616C65+  "itNoSale"
0B0E  00                 "\0"
                         const [5]: "DogTagExitNoSale"
0B0F  04                 const type 4
0B10  0D                 string size (13)
0B11  454D5054595F5359+  "EMPTY_SY"
0B19  4D424F4C00         "MBOL\0"
                         const [6]: "EMPTY_SYMBOL"
0B1E  01                 const type 3
0B1F  D2A3C75E           const [7]: (1590141906)
0B23  01                 const type 3
0B24  BCE8A730           const [8]: (816310460)
0B28  01                 const type 3
0B29  B2EC33DB           const [9]: (-617354062)
0B2D  04                 const type 4
0B2E  07                 string size (7)
0B2F  6D4D6F76696500     "mMovie\0"
                         const [10]: "mMovie"
0B36  03                 const type 3
0B37  00000000           const [11]: (0)
0B3B  03                 const type 3
0B3C  0000803E           const [12]: (0)
0B40  01                 const type 3
0B41  907AE152           const [13]: (1390508688)
0B45  04                 const type 4
0B46  06                 string size (6)
0B47  5F726F6F7400       "_root\0"
                         const [14]: "_root"
0B4D  04                 const type 4
0B4E  06                 string size (6)
0B4F  554953797300       "UISys\0"
                         const [15]: "UISys"
0B55  04                 const type 4
0B56  1A                 string size (26)
0B57  466C617368496E73+  "FlashIns"
0B5F  74616E63655F534D+  "tance_SM"
0B67  4F4F54485F535445+  "OOTH_STE"
0B6F  5000               "P\0"
                         const [16]: "FlashInstance_SMOOTH_STEP"
0B71  04                 const type 4
0B72  07                 string size (7)
0B73  5F616C70686100     "_alpha\0"
                         const [17]: "_alpha"
0B7A  04                 const type 4
0B7B  03                 string size (3)
0B7C  5F7A00             "_z\0"
                         const [18]: "_z"
0B7F  03                 const type 3
0B80  00409C45           const [19]: (0)
                         * functions:
0B84  00                 sizep (0)
                         * lines:
0B85  3F                 sizelineinfo (63)
                         [pc] (line)
0B86  4C                 [01] (76)
0B87  00                 [02] (76)
0B88  00                 [03] (77)
0B89  00                 [04] (77)
0B8A  4C                 [05] (77)
0B8B  00                 [06] (77)
0B8C  00                 [07] (77)
0B8D  00                 [08] (78)
0B8E  4D                 [09] (78)
0B8F  00                 [10] (78)
0B90  00                 [11] (78)
0B91  00                 [12] (78)
0B92  4D                 [13] (79)
0B93  00                 [14] (79)
0B94  00                 [15] (79)
0B95  00                 [16] (79)
0B96  4D                 [17] (82)
0B97  00                 [18] (82)
0B98  00                 [19] (82)
0B99  00                 [20] (82)
0B9A  4D                 [21] (82)
0B9B  00                 [22] (82)
0B9C  00                 [23] (82)
0B9D  00                 [24] (82)
0B9E  4D                 [25] (83)
0B9F  00                 [26] (84)
0BA0  00                 [27] (84)
0BA1  00                 [28] (84)
0BA2  4E                 [29] (84)
0BA3  00                 [30] (85)
0BA4  00                 [31] (85)
0BA5  00                 [32] (85)
0BA6  4E                 [33] (85)
0BA7  00                 [34] (85)
0BA8  00                 [35] (88)
0BA9  00                 [36] (88)
0BAA  4E                 [37] (88)
0BAB  00                 [38] (88)
0BAC  00                 [39] (88)
0BAD  00                 [40] (91)
0BAE  4E                 [41] (91)
0BAF  00                 [42] (91)
0BB0  00                 [43] (91)
0BB1  00                 [44] (91)
0BB2  4E                 [45] (91)
0BB3  00                 [46] (92)
0BB4  00                 [47] (92)
0BB5  00                 [48] (92)
0BB6  4F                 [49] (92)
0BB7  00                 [50] (92)
0BB8  00                 [51] (92)
0BB9  00                 [52] (92)
0BBA  4F                 [53] (92)
0BBB  00                 [54] (92)
0BBC  00                 [55] (92)
0BBD  00                 [56] (92)
0BBE  4F                 [57] (92)
0BBF  00                 [58] (92)
0BC0  00                 [59] (92)
0BC1  00                 [60] (92)
0BC2  4F                 [61] (92)
0BC3  00                 [62] (92)
0BC4  00                 [63] (93)
                         * locals:
0C82  00                 sizelocvars (0)
                         * upvalues:
0C83  00                 sizeupvalues (0)
                         ** end of function **

                         
0C84                     ** function [3] definition (level 2)
                         ** start of function **
0C84  00                 string size (0)
                         source name: (none)
0C85  5F                 line defined (95)
0C86  61                 last line defined (97)
0C87  01                 nups (1)
0C88  00                 numparams (0)
0C89  00                 is_vararg (0)
0C8A  02                 maxstacksize (2)
                         * code:
0C8B  03                 sizecode (3)
0C8C  13000000           [1] getupval   0   0      
0C90  22408000           [2] call       0   1   1  
0C94  1E008000           [3] return     0   1      
                         * constants:
0C98  00                 sizek (0)
                         * functions:
0C99  00                 sizep (0)
                         * lines:
0C9A  03                 sizelineinfo (3)
                         [pc] (line)
0C9B  60                 [1] (96)
0C9C  00                 [2] (96)
0C9D  00                 [3] (97)
                         * locals:
0CA7  00                 sizelocvars (0)
                         * upvalues:
0CA8  00                 sizeupvalues (0)
                         ** end of function **

                         
0CA9                     ** function [4] definition (level 2)
                         ** start of function **
0CA9  00                 string size (0)
                         source name: (none)
0CAA  63                 line defined (99)
0CAB  6B                 last line defined (107)
0CAC  00                 nups (0)
0CAD  00                 numparams (0)
0CAE  00                 is_vararg (0)
0CAF  06                 maxstacksize (6)
                         * code:
0CB0  19                 sizecode (25)
0CB1  0B000000           [01] newtable   0   0   0    ; array=0, hash=0
0CB5  5D000000           [02] getglobal  1   0        ; table
0CB9  4E40C000           [03] gettable   1   1   257  ; -431682403
0CBD  92000000           [04] move       2   0      
0CC1  CBC00000           [05] newtable   3   0   3    ; array=0, hash=3
0CC5  CCC04081           [06] settable   3   258 259  ; "Label" "/Lotus/Language/Menu/Exit"
0CC9  25010000           [07] closure    4   0      
0CCD  CC000182           [08] settable   3   260 4    ; "CallBack"
0CD1  CC80C182           [09] settable   3   261 262  ; "CallOut" "MENU_CANCEL"
0CD5  62408001           [10] call       1   3   1  
0CD9  5DC00100           [11] getglobal  1   7        ; 1074689893
0CDD  9D000200           [12] getglobal  2   8        ; _T
0CE1  8E404201           [13] gettable   2   2   265  ; "SetButtons"
0CE5  62800001           [14] call       1   2   2  
0CE9  58400000           [15] test       1       1    ; to [17] if false
0CED  1AC00180           [16] jmp        8            ; to [25]
0CF1  5D000200           [17] getglobal  1   8        ; _T
0CF5  4E80C200           [18] gettable   1   1   266  ; -270549122
0CF9  9DC00200           [19] getglobal  2   11       ; mMovie
0CFD  D2000000           [20] move       3   0      
0D01  1D010300           [21] getglobal  4   12       ; 1802065273
0D05  59410300           [22] loadk      5   13       ; 0
0D09  22010001           [23] call       4   2   0  
0D0D  62400000           [24] call       1   0   1  
0D11  1E008000           [25] return     0   1      
                         * constants:
0D15  0E                 sizek (14)
0D16  04                 const type 4
0D17  06                 string size (6)
0D18  7461626C6500       "table\0"
                         const [0]: "table"
0D1E  01                 const type 3
0D1F  9D0C45E6           const [1]: (-431682403)
0D23  04                 const type 4
0D24  06                 string size (6)
0D25  4C6162656C00       "Label\0"
                         const [2]: "Label"
0D2B  04                 const type 4
0D2C  1A                 string size (26)
0D2D  2F4C6F7475732F4C+  "/Lotus/L"
0D35  616E67756167652F+  "anguage/"
0D3D  4D656E752F457869+  "Menu/Exi"
0D45  7400               "t\0"
                         const [3]: "/Lotus/Language/Menu/Exit"
0D47  04                 const type 4
0D48  09                 string size (9)
0D49  43616C6C4261636B+  "CallBack"
0D51  00                 "\0"
                         const [4]: "CallBack"
0D52  04                 const type 4
0D53  08                 string size (8)
0D54  43616C6C4F757400   "CallOut\0"
                         const [5]: "CallOut"
0D5C  04                 const type 4
0D5D  0C                 string size (12)
0D5E  4D454E555F43414E+  "MENU_CAN"
0D66  43454C00           "CEL\0"
                         const [6]: "MENU_CANCEL"
0D6A  01                 const type 3
0D6B  65770E40           const [7]: (1074689893)
0D6F  04                 const type 4
0D70  03                 string size (3)
0D71  5F5400             "_T\0"
                         const [8]: "_T"
0D74  04                 const type 4
0D75  0B                 string size (11)
0D76  536574427574746F+  "SetButto"
0D7E  6E7300             "ns\0"
                         const [9]: "SetButtons"
0D81  01                 const type 3
0D82  7EBFDFEF           const [10]: (-270549122)
0D86  04                 const type 4
0D87  07                 string size (7)
0D88  6D4D6F76696500     "mMovie\0"
                         const [11]: "mMovie"
0D8F  01                 const type 3
0D90  7955696B           const [12]: (1802065273)
0D94  03                 const type 3
0D95  0000803F           const [13]: (0)
                         * functions:
0D99  01                 sizep (1)
                         
0D9A                     ** function [0] definition (level 3)
                         ** start of function **
0D9A  00                 string size (0)
                         source name: (none)
0D9B  66                 line defined (102)
0D9C  66                 last line defined (102)
0D9D  00                 nups (0)
0D9E  00                 numparams (0)
0D9F  00                 is_vararg (0)
0DA0  04                 maxstacksize (4)
                         * code:
0DA1  06                 sizecode (6)
0DA2  1D000000           [1] getglobal  0   0        ; mMovie
0DA6  24404000           [2] self       0   0   257  ; 1167009705
0DAA  99800000           [3] loadk      2   2        ; "GoBack"
0DAE  D9C00000           [4] loadk      3   3        ; ""
0DB2  22400002           [5] call       0   4   1  
0DB6  1E008000           [6] return     0   1      
                         * constants:
0DBA  04                 sizek (4)
0DBB  04                 const type 4
0DBC  07                 string size (7)
0DBD  6D4D6F76696500     "mMovie\0"
                         const [0]: "mMovie"
0DC4  01                 const type 3
0DC5  A9278F45           const [1]: (1167009705)
0DC9  04                 const type 4
0DCA  07                 string size (7)
0DCB  476F4261636B00     "GoBack\0"
                         const [2]: "GoBack"
0DD2  04                 const type 4
0DD3  01                 string size (0)
                         const [3]: ""
                         * functions:
0DD5  00                 sizep (0)
                         * lines:
0DD6  06                 sizelineinfo (6)
                         [pc] (line)
0DD7  66                 [1] (102)
0DD8  00                 [2] (102)
0DD9  00                 [3] (102)
0DDA  00                 [4] (102)
0DDB  66                 [5] (102)
0DDC  00                 [6] (102)
                         * locals:
0DEF  00                 sizelocvars (0)
                         * upvalues:
0DF0  00                 sizeupvalues (0)
                         ** end of function **

                         * lines:
0DF1  19                 sizelineinfo (25)
                         [pc] (line)
0DF2  64                 [01] (100)
0DF3  00                 [02] (102)
0DF4  00                 [03] (102)
0DF5  00                 [04] (102)
0DF6  66                 [05] (102)
0DF7  00                 [06] (102)
0DF8  00                 [07] (102)
0DF9  00                 [08] (102)
0DFA  66                 [09] (102)
0DFB  00                 [10] (102)
0DFC  00                 [11] (104)
0DFD  00                 [12] (104)
0DFE  66                 [13] (104)
0DFF  00                 [14] (104)
0E00  00                 [15] (104)
0E01  00                 [16] (104)
0E02  66                 [17] (105)
0E03  00                 [18] (105)
0E04  00                 [19] (105)
0E05  00                 [20] (105)
0E06  66                 [21] (105)
0E07  00                 [22] (105)
0E08  00                 [23] (105)
0E09  00                 [24] (105)
0E0A  66                 [25] (107)
                         * locals:
0E56  00                 sizelocvars (0)
                         * upvalues:
0E57  00                 sizeupvalues (0)
                         ** end of function **

                         
0E58                     ** function [5] definition (level 2)
                         ** start of function **
0E58  00                 string size (0)
                         source name: (none)
0E59  6E                 line defined (110)
0E5A  9E                 last line defined (158)
0E5B  01                 nups (5)
0E5C  05                 numparams (0)
0E5D  00                 is_vararg (0)
0E5E  00                 maxstacksize (20)
                         * code:
0E61  01                 sizecode (201)
0E62  13000000           [001] getupval   0   0      
0E66  0E004000           [002] gettable   0   0   256  ; 387904467
0E6A  53008000           [003] getupval   1   1      
0E6E  22400101           [004] call       0   2   5  
0E72  19410000           [005] loadk      4   1        ; "/Lotus/Language/Syndicates/NeutralTitle"
0E76  5D810000           [006] getglobal  5   2        ; 1672515847
0E7A  93018000           [007] getupval   6   1      
0E7E  A4C14003           [008] self       6   6   259  ; -250348069
0E82  A2010001           [009] call       6   2   0  
0E86  62010100           [010] call       5   0   4  
0E8A  1A400380           [011] jmp        14           ; to [26]
0E8E  8E02C104           [012] gettable   10  9   260  ; "level"
fail op	35
0E92  23800200           [013] close      0  
0E96  1A800280           [014] jmp        11           ; to [26]
0E9A  9D420100           [015] getglobal  10  5        ; string
0E9E  8E824105           [016] gettable   10  10  262  ; 1671193642
0EA2  DDC20100           [017] getglobal  11  7        ; mMovie
0EA6  E402C205           [018] self       11  11  264  ; 98241492
0EAA  4E43C204           [019] gettable   13  9   265  ; "titleLoc"
0EAE  6483C206           [020] self       13  13  266  ; 1590141906
0EB2  62830001           [021] call       13  2   2  
0EB6  97030000           [022] loadbool   14  0   0    ; false
0EBA  E2020002           [023] call       11  4   0  
0EBE  A2820000           [024] call       10  0   2  
0EC2  12010005           [025] move       4   10     
0EC6  56810000           [026] tforloop   5       2    ; to [28] if exit
0ECA  1AC0FB7F           [027] jmp        -16          ; to [12]
0ECE  9DC20100           [028] getglobal  10  7        ; mMovie
0ED2  A4C24205           [029] self       10  10  267  ; 386043535
0ED6  19030300           [030] loadk      12  12       ; "Syndicate.RepIndicator.CurrentRank.text"
0EDA  52030002           [031] move       13  4      
0EDE  A2420002           [032] call       10  4   1  
0EE2  99420300           [033] loadk      10  13       ; "<p><font size=\"24\">"
0EE6  DDC20100           [034] getglobal  11  7        ; mMovie
0EEA  E402C205           [035] self       11  11  264  ; 98241492
0EEE  59830300           [036] loadk      13  14       ; "<REPUTATION>"
0EF2  97038000           [037] loadbool   14  1   0    ; true
0EF6  E2820002           [038] call       11  4   2  
0EFA  13030001           [039] getupval   12  2      
0EFE  0EC34306           [040] gettable   12  12  271  ; 2115597333
0F02  52038000           [041] move       13  1      
0F06  22830001           [042] call       12  2   2  
0F0A  59030400           [043] loadk      13  16       ; "</font><font size=\"18\" color=\"#808080\"> / "
0F0E  93030001           [044] getupval   14  2      
0F12  8EC34307           [045] gettable   14  14  271  ; 2115597333
0F16  D2030001           [046] move       15  2      
0F1A  A2830001           [047] call       14  2   2  
0F1E  D9430400           [048] loadk      15  17       ; "</font></p>"
0F22  82C20305           [049] concat     10  10  15 
0F26  DDC20100           [050] getglobal  11  7        ; mMovie
0F2A  E482C405           [051] self       11  11  274  ; -693657623
0F2E  59C30400           [052] loadk      13  19       ; "Syndicate.RepIndicator.Reputation"
0F32  99030500           [053] loadk      14  20       ; "text"
0F36  D2030005           [054] move       15  10     
0F3A  E2428002           [055] call       11  5   1  
0F3E  D3028001           [056] getupval   11  3      
fail op	35
0F42  2340C505           [057] close      0  
0F46  1A000280           [058] jmp        9            ; to [68]
0F4A  DD820500           [059] getglobal  11  22       ; -174740002
0F4E  1DC30100           [060] getglobal  12  7        ; mMovie
0F52  24C34506           [061] self       12  12  279  ; 1803241227
0F56  99030600           [062] loadk      14  24       ; "Syndicate.RepIndicator.Progress.Back"
0F5A  D9430600           [063] loadk      15  25       ; "_width"
0F5E  22030002           [064] call       12  4   0  
0F62  E2820000           [065] call       11  0   2  
0F66  CD82C605           [066] sub        11  11  282  ; 0
fail op	8
0F6A  C8028001           [067] setupval   11  3      
0F6E  DDC20600           [068] getglobal  11  27       ; 1668611480
0F72  13030002           [069] getupval   12  4      
0F76  59030700           [070] loadk      13  28       ; 0
0F7A  93030001           [071] getupval   14  2      
0F7E  8E434707           [072] gettable   14  14  285  ; -132701534
fail op	21
0F82  55004701           [073] concat     1   2   284
0F86  1A000080           [074] jmp        1            ; to [76]
0F8A  D7430000           [075] loadbool   15  0   1    ; false, to [77]
0F8E  D7038000           [076] loadbool   15  1   0    ; true
0F92  1D840700           [077] getglobal  16  30       ; math
0F96  0EC44708           [078] gettable   16  16  287  ; -113279800
0F9A  52048000           [079] move       17  1      
0F9E  22840001           [080] call       16  2   2  
0FA2  52040001           [081] move       17  2      
0FA6  A2030002           [082] call       14  4   0  
0FAA  E2820000           [083] call       11  0   2  
0FAE  1DC30600           [084] getglobal  12  27       ; 1668611480
0FB2  5D830700           [085] getglobal  13  30       ; math
0FB6  4EC3C706           [086] gettable   13  13  287  ; -113279800
0FBA  9C838000           [087] div        14  1   2  
0FBE  62830001           [088] call       13  2   2  
0FC2  93038001           [089] getupval   14  3      
0FC6  44838306           [090] mul        13  13  14 
0FCA  99030800           [091] loadk      14  32       ; 111
0FCE  D3038001           [092] getupval   15  3      
0FD2  22830002           [093] call       12  4   2  
0FD6  52030006           [094] move       13  12     
fail op	21
0FDA  15004701           [095] concat     0   2   284
0FDE  1AC00280           [096] jmp        12           ; to [109]
0FE2  9DC30600           [097] getglobal  14  27       ; 1668611480
0FE6  DD830700           [098] getglobal  15  30       ; math
0FEA  CEC3C707           [099] gettable   15  15  287  ; -113279800
0FEE  1C848005           [100] div        16  11  2  
0FF2  53048001           [101] getupval   17  3      
0FF6  04440408           [102] mul        16  16  17 
0FFA  03040406           [103] add        16  12  16 
0FFE  E2830001           [104] call       15  2   2  
1002  19040800           [105] loadk      16  32       ; 111
1006  53048001           [106] getupval   17  3      
100A  A2830002           [107] call       14  4   2  
100E  52030007           [108] move       13  14     
1012  9DC30100           [109] getglobal  14  7        ; mMovie
1016  A4434807           [110] self       14  14  289  ; 471456102
101A  19840800           [111] loadk      16  34       ; "Syndicate.RepIndicator.Progress.Front"
101E  59440600           [112] loadk      17  25       ; "_width"
1022  92048006           [113] move       18  13     
1026  A2438002           [114] call       14  5   1  
fail op	21
102A  15004701           [115] concat     0   2   284
102E  1AC00380           [116] jmp        16           ; to [133]
1032  9DC30100           [117] getglobal  14  7        ; mMovie
1036  A4434807           [118] self       14  14  289  ; 471456102
103A  19840800           [119] loadk      16  34       ; "Syndicate.RepIndicator.Progress.Front"
103E  59C40800           [120] loadk      17  35       ; "_x"
1042  93048001           [121] getupval   18  3      
1046  8D440309           [122] sub        18  18  13 
104A  83044909           [123] add        18  18  292  ; 0
104E  A2438002           [124] call       14  5   1  
1052  9DC30100           [125] getglobal  14  7        ; mMovie
1056  A4434807           [126] self       14  14  289  ; 471456102
105A  19840800           [127] loadk      16  34       ; "Syndicate.RepIndicator.Progress.Front"
105E  59440900           [128] loadk      17  37       ; "_color"
1062  9D840900           [129] getglobal  18  38       ; _G
1066  8EC44909           [130] gettable   18  18  295  ; "UIColor_NegativeReputation"
106A  A2438002           [131] call       14  5   1  
106E  1A000380           [132] jmp        13           ; to [146]
1072  9DC30100           [133] getglobal  14  7        ; mMovie
1076  A4434807           [134] self       14  14  289  ; 471456102
107A  19840800           [135] loadk      16  34       ; "Syndicate.RepIndicator.Progress.Front"
107E  59C40800           [136] loadk      17  35       ; "_x"
1082  99040900           [137] loadk      18  36       ; 0
1086  A2438002           [138] call       14  5   1  
108A  9DC30100           [139] getglobal  14  7        ; mMovie
108E  A4434807           [140] self       14  14  289  ; 471456102
1092  19840800           [141] loadk      16  34       ; "Syndicate.RepIndicator.Progress.Front"
1096  59440900           [142] loadk      17  37       ; "_color"
109A  9D840900           [143] getglobal  18  38       ; _G
109E  8E044A09           [144] gettable   18  18  296  ; "UIColor_PositiveReputation"
10A2  A2438002           [145] call       14  5   1  
fail op	21
10A6  15C0028E           [146] concat     0   284 11 
10AA  1A800B80           [147] jmp        47           ; to [195]
fail op	21
10AE  15004701           [148] concat     0   2   284
10B2  1A000580           [149] jmp        21           ; to [171]
10B6  9DC30100           [150] getglobal  14  7        ; mMovie
10BA  A4434807           [151] self       14  14  289  ; 471456102
10BE  19440A00           [152] loadk      16  41       ; "Syndicate.RepIndicator.Progress.Projected"
10C2  59C40800           [153] loadk      17  35       ; "_x"
10C6  93048001           [154] getupval   18  3      
10CA  8D040309           [155] sub        18  18  12 
10CE  83044909           [156] add        18  18  292  ; 0
10D2  A2438002           [157] call       14  5   1  
10D6  9DC30100           [158] getglobal  14  7        ; mMovie
10DA  A4434807           [159] self       14  14  289  ; 471456102
10DE  19440A00           [160] loadk      16  41       ; "Syndicate.RepIndicator.Progress.Projected"
10E2  59440600           [161] loadk      17  25       ; "_width"
10E6  92040006           [162] move       18  12     
10EA  A2438002           [163] call       14  5   1  
10EE  9DC30100           [164] getglobal  14  7        ; mMovie
10F2  A4434807           [165] self       14  14  289  ; 471456102
10F6  19440A00           [166] loadk      16  41       ; "Syndicate.RepIndicator.Progress.Projected"
10FA  59840A00           [167] loadk      17  42       ; "_visible"
10FE  97048000           [168] loadbool   18  1   0    ; true
1102  A2438002           [169] call       14  5   1  
1106  1A400780           [170] jmp        30           ; to [201]
110A  9DC30600           [171] getglobal  14  27       ; 1668611480
110E  DD830700           [172] getglobal  15  30       ; math
1112  CEC3C707           [173] gettable   15  15  287  ; -113279800
1116  03C48200           [174] add        16  1   11 
111A  1C840008           [175] div        16  16  2  
111E  E2830001           [176] call       15  2   2  
1122  13048001           [177] getupval   16  3      
1126  C4038407           [178] mul        15  15  16 
112A  19040800           [179] loadk      16  32       ; 111
112E  53048001           [180] getupval   17  3      
1132  A2830002           [181] call       14  4   2  
1136  DDC30100           [182] getglobal  15  7        ; mMovie
113A  E443C807           [183] self       15  15  289  ; 471456102
113E  59440A00           [184] loadk      17  41       ; "Syndicate.RepIndicator.Progress.Projected"
1142  99440600           [185] loadk      18  25       ; "_width"
1146  D2040007           [186] move       19  14     
114A  E2438002           [187] call       15  5   1  
114E  DDC30100           [188] getglobal  15  7        ; mMovie
1152  E443C807           [189] self       15  15  289  ; 471456102
1156  59440A00           [190] loadk      17  41       ; "Syndicate.RepIndicator.Progress.Projected"
115A  99840A00           [191] loadk      18  42       ; "_visible"
115E  D7048000           [192] loadbool   19  1   0    ; true
1162  E2438002           [193] call       15  5   1  
1166  1A400180           [194] jmp        6            ; to [201]
116A  DDC30100           [195] getglobal  15  7        ; mMovie
116E  E443C807           [196] self       15  15  289  ; 471456102
1172  59440A00           [197] loadk      17  41       ; "Syndicate.RepIndicator.Progress.Projected"
1176  99840A00           [198] loadk      18  42       ; "_visible"
117A  D7040000           [199] loadbool   19  0   0    ; false
117E  E2438002           [200] call       15  5   1  
1182  1E008000           [201] return     0   1      
                         * constants:
1186  2B                 sizek (43)
1187  01                 const type 3
1188  D3F31E17           const [0]: (387904467)
118C  04                 const type 4
118D  28                 string size (40)
118E  2F4C6F7475732F4C+  "/Lotus/L"
1196  616E67756167652F+  "anguage/"
119E  53796E6469636174+  "Syndicat"
11A6  65732F4E65757472+  "es/Neutr"
11AE  616C5469746C6500   "alTitle\0"
                         const [1]: "/Lotus/Language/Syndicates/NeutralTitle"
11B6  01                 const type 3
11B7  0791B063           const [2]: (1672515847)
11BB  01                 const type 3
11BC  DBFD13F1           const [3]: (-250348069)
11C0  04                 const type 4
11C1  06                 string size (6)
11C2  6C6576656C00       "level\0"
                         const [4]: "level"
11C8  04                 const type 4
11C9  07                 string size (7)
11CA  737472696E6700     "string\0"
                         const [5]: "string"
11D1  01                 const type 3
11D2  2A649C63           const [6]: (1671193642)
11D6  04                 const type 4
11D7  07                 string size (7)
11D8  6D4D6F76696500     "mMovie\0"
                         const [7]: "mMovie"
11DF  01                 const type 3
11E0  D40BDB05           const [8]: (98241492)
11E4  04                 const type 4
11E5  09                 string size (9)
11E6  7469746C654C6F63+  "titleLoc"
11EE  00                 "\0"
                         const [9]: "titleLoc"
11EF  01                 const type 3
11F0  D2A3C75E           const [10]: (1590141906)
11F4  01                 const type 3
11F5  8F8E0217           const [11]: (386043535)
11F9  04                 const type 4
11FA  28                 string size (40)
11FB  53796E6469636174+  "Syndicat"
1203  652E526570496E64+  "e.RepInd"
120B  696361746F722E43+  "icator.C"
1213  757272656E745261+  "urrentRa"
121B  6E6B2E7465787400   "nk.text\0"
                         const [12]: "Syndicate.RepIndicator.CurrentRank.text"
1223  04                 const type 4
1224  14                 string size (20)
1225  3C703E3C666F6E74+  "<p><font"
122D  2073697A653D2232+  " size=\"2"
1235  34223E00           "4\">\0"
                         const [13]: "<p><font size=\"24\">"
1239  04                 const type 4
123A  0D                 string size (13)
123B  3C52455055544154+  "<REPUTAT"
1243  494F4E3E00         "ION>\0"
                         const [14]: "<REPUTATION>"
1248  01                 const type 3
1249  1574197E           const [15]: (2115597333)
124D  04                 const type 4
124E  2B                 string size (43)
124F  3C2F666F6E743E3C+  "</font><"
1257  666F6E742073697A+  "font siz"
125F  653D223138222063+  "e=\"18\" c"
1267  6F6C6F723D222338+  "olor=\"#8"
126F  3038303830223E20+  "08080\"> "
1277  2F2000             "/ \0"
                         const [16]: "</font><font size=\"18\" color=\"#808080\"> / "
127A  04                 const type 4
127B  0C                 string size (12)
127C  3C2F666F6E743E3C+  "</font><"
1284  2F703E00           "/p>\0"
                         const [17]: "</font></p>"
1288  01                 const type 3
1289  E99FA7D6           const [18]: (-693657623)
128D  04                 const type 4
128E  22                 string size (34)
128F  53796E6469636174+  "Syndicat"
1297  652E526570496E64+  "e.RepInd"
129F  696361746F722E52+  "icator.R"
12A7  657075746174696F+  "eputatio"
12AF  6E00               "n\0"
                         const [19]: "Syndicate.RepIndicator.Reputation"
12B1  04                 const type 4
12B2  05                 string size (5)
12B3  7465787400         "text\0"
                         const [20]: "text"
12B8  00                 const type 0
                         const [21]: nil
12B9  01                 const type 3
12BA  DEAD95F5           const [22]: (-174740002)
12BE  01                 const type 3
12BF  0B477B6B           const [23]: (1803241227)
12C3  04                 const type 4
12C4  25                 string size (37)
12C5  53796E6469636174+  "Syndicat"
12CD  652E526570496E64+  "e.RepInd"
12D5  696361746F722E50+  "icator.P"
12DD  726F67726573732E+  "rogress."
12E5  4261636B00         "Back\0"
                         const [24]: "Syndicate.RepIndicator.Progress.Back"
12EA  04                 const type 4
12EB  07                 string size (7)
12EC  5F776964746800     "_width\0"
                         const [25]: "_width"
12F3  03                 const type 3
12F4  00000040           const [26]: (0)
12F8  01                 const type 3
12F9  98FD7463           const [27]: (1668611480)
12FD  03                 const type 3
12FE  00000000           const [28]: (0)
1302  01                 const type 3
1303  A22217F8           const [29]: (-132701534)
1307  04                 const type 4
1308  05                 string size (5)
1309  6D61746800         "math\0"
                         const [30]: "math"
130E  01                 const type 3
130F  C87C3FF9           const [31]: (-113279800)
1313  03                 const type 3
1314  6F12833A           const [32]: (111)
1318  01                 const type 3
1319  66D9191C           const [33]: (471456102)
131D  04                 const type 4
131E  26                 string size (38)
131F  53796E6469636174+  "Syndicat"
1327  652E526570496E64+  "e.RepInd"
132F  696361746F722E50+  "icator.P"
1337  726F67726573732E+  "rogress."
133F  46726F6E7400       "Front\0"
                         const [34]: "Syndicate.RepIndicator.Progress.Front"
1345  04                 const type 4
1346  03                 string size (3)
1347  5F7800             "_x\0"
                         const [35]: "_x"
134A  03                 const type 3
134B  0000803F           const [36]: (0)
134F  04                 const type 4
1350  07                 string size (7)
1351  5F636F6C6F7200     "_color\0"
                         const [37]: "_color"
1358  04                 const type 4
1359  03                 string size (3)
135A  5F4700             "_G\0"
                         const [38]: "_G"
135D  04                 const type 4
135E  1B                 string size (27)
135F  5549436F6C6F725F+  "UIColor_"
1367  4E65676174697665+  "Negative"
136F  5265707574617469+  "Reputati"
1377  6F6E00             "on\0"
                         const [39]: "UIColor_NegativeReputation"
137A  04                 const type 4
137B  1B                 string size (27)
137C  5549436F6C6F725F+  "UIColor_"
1384  506F736974697665+  "Positive"
138C  5265707574617469+  "Reputati"
1394  6F6E00             "on\0"
                         const [40]: "UIColor_PositiveReputation"
1397  04                 const type 4
1398  2A                 string size (42)
1399  53796E6469636174+  "Syndicat"
13A1  652E526570496E64+  "e.RepInd"
13A9  696361746F722E50+  "icator.P"
13B1  726F67726573732E+  "rogress."
13B9  50726F6A65637465+  "Projecte"
13C1  6400               "d\0"
                         const [41]: "Syndicate.RepIndicator.Progress.Projected"
13C3  04                 const type 4
13C4  09                 string size (9)
13C5  5F76697369626C65+  "_visible"
13CD  00                 "\0"
                         const [42]: "_visible"
                         * functions:
13CE  00                 sizep (0)
                         * lines:
13D0  01                 sizelineinfo (201)
                         [pc] (line)
13D1  6F                 [001] (111)
13D2  00                 [002] (111)
13D3  00                 [003] (111)
13D4  00                 [004] (111)
13D5  6F                 [005] (113)
13D6  00                 [006] (114)
13D7  00                 [007] (114)
13D8  00                 [008] (114)
13D9  6F                 [009] (114)
13DA  00                 [010] (114)
13DB  00                 [011] (114)
13DC  00                 [012] (115)
13DD  6F                 [013] (115)
13DE  00                 [014] (115)
13DF  00                 [015] (116)
13E0  00                 [016] (116)
13E1  71                 [017] (116)
13E2  00                 [018] (116)
13E3  00                 [019] (116)
13E4  00                 [020] (116)
13E5  72                 [021] (116)
13E6  00                 [022] (116)
13E7  00                 [023] (116)
13E8  00                 [024] (116)
13E9  72                 [025] (116)
13EA  00                 [026] (114)
13EB  00                 [027] (117)
13EC  00                 [028] (119)
13ED  72                 [029] (119)
13EE  00                 [030] (119)
13EF  00                 [031] (119)
13F0  00                 [032] (119)
13F1  72                 [033] (121)
13F2  00                 [034] (121)
13F3  00                 [035] (121)
13F4  00                 [036] (121)
13F5  72                 [037] (121)
13F6  00                 [038] (121)
13F7  00                 [039] (121)
13F8  00                 [040] (121)
13F9  72                 [041] (121)
13FA  00                 [042] (121)
13FB  00                 [043] (121)
13FC  00                 [044] (121)
13FD  73                 [045] (121)
13FE  00                 [046] (121)
13FF  00                 [047] (121)
1400  00                 [048] (121)
1401  73                 [049] (121)
1402  00                 [050] (122)
1403  00                 [051] (122)
1404  00                 [052] (122)
1405  73                 [053] (122)
1406  00                 [054] (122)
1407  00                 [055] (122)
1408  00                 [056] (124)
1409  74                 [057] (124)
140A  00                 [058] (124)
140B  00                 [059] (125)
140C  00                 [060] (125)
140D  74                 [061] (125)
140E  00                 [062] (125)
140F  00                 [063] (125)
1410  00                 [064] (125)
1411  74                 [065] (125)
1412  00                 [066] (125)
1413  00                 [067] (125)
1414  00                 [068] (-128)
1415  74                 [069] (-128)
1416  00                 [070] (-128)
1417  00                 [071] (-128)
1418  00                 [072] (-128)
1419  74                 [073] (-128)
141A  00                 [074] (-128)
141B  00                 [075] (-128)
141C  00                 [076] (-128)
141D  74                 [077] (-128)
141E  00                 [078] (-128)
141F  00                 [079] (-128)
1420  00                 [080] (-128)
1421  74                 [081] (-128)
1422  00                 [082] (-128)
1423  00                 [083] (-128)
1424  00                 [084] (-127)
1425  74                 [085] (-127)
1426  00                 [086] (-127)
1427  00                 [087] (-127)
1428  00                 [088] (-127)
1429  74                 [089] (-127)
142A  00                 [090] (-127)
142B  00                 [091] (-127)
142C  00                 [092] (-127)
142D  74                 [093] (-127)
142E  00                 [094] (-126)
142F  00                 [095] (-125)
1430  00                 [096] (-125)
1431  74                 [097] (-124)
1432  00                 [098] (-124)
1433  00                 [099] (-124)
1434  00                 [100] (-124)
1435  72                 [101] (-124)
1436  00                 [102] (-124)
1437  00                 [103] (-124)
1438  00                 [104] (-124)
1439  75                 [105] (-124)
143A  00                 [106] (-124)
143B  00                 [107] (-124)
143C  00                 [108] (-124)
143D  77                 [109] (-121)
143E  00                 [110] (-121)
143F  00                 [111] (-121)
1440  00                 [112] (-121)
1441  77                 [113] (-121)
1442  00                 [114] (-121)
1443  00                 [115] (-120)
1444  00                 [116] (-120)
1445  77                 [117] (-119)
1446  00                 [118] (-119)
1447  00                 [119] (-119)
1448  00                 [120] (-119)
1449  77                 [121] (-119)
144A  00                 [122] (-119)
144B  00                 [123] (-119)
144C  00                 [124] (-119)
144D  77                 [125] (-118)
144E  00                 [126] (-118)
144F  00                 [127] (-118)
1450  00                 [128] (-118)
1451  79                 [129] (-118)
1452  00                 [130] (-118)
1453  00                 [131] (-118)
1454  00                 [132] (-118)
1455  79                 [133] (-116)
1456  00                 [134] (-116)
1457  00                 [135] (-116)
1458  00                 [136] (-116)
1459  79                 [137] (-116)
145A  00                 [138] (-116)
145B  00                 [139] (-115)
145C  00                 [140] (-115)
145D  79                 [141] (-115)
145E  00                 [142] (-115)
145F  00                 [143] (-115)
1460  00                 [144] (-115)
1461  79                 [145] (-115)
1462  00                 [146] (-112)
1463  00                 [147] (-112)
1464  00                 [148] (-111)
1465  79                 [149] (-111)
1466  00                 [150] (-110)
1467  00                 [151] (-110)
1468  00                 [152] (-110)
1469  79                 [153] (-110)
146A  00                 [154] (-110)
146B  00                 [155] (-110)
146C  00                 [156] (-110)
146D  79                 [157] (-110)
146E  00                 [158] (-109)
146F  00                 [159] (-109)
1470  00                 [160] (-109)
1471  79                 [161] (-109)
1472  00                 [162] (-109)
1473  00                 [163] (-109)
1474  00                 [164] (-108)
1475  79                 [165] (-108)
1476  00                 [166] (-108)
1477  00                 [167] (-108)
1478  00                 [168] (-108)
1479  79                 [169] (-108)
147A  00                 [170] (-108)
147B  00                 [171] (-106)
147C  00                 [172] (-106)
147D  79                 [173] (-106)
147E  00                 [174] (-106)
147F  00                 [175] (-106)
1480  00                 [176] (-106)
1481  79                 [177] (-106)
1482  00                 [178] (-106)
1483  00                 [179] (-106)
1484  00                 [180] (-106)
1485  79                 [181] (-106)
1486  00                 [182] (-104)
1487  00                 [183] (-104)
1488  00                 [184] (-104)
1489  79                 [185] (-104)
148A  00                 [186] (-104)
148B  00                 [187] (-104)
148C  00                 [188] (-103)
148D  79                 [189] (-103)
148E  00                 [190] (-103)
148F  00                 [191] (-103)
1490  00                 [192] (-103)
1491  79                 [193] (-103)
1492  00                 [194] (-102)
1493  00                 [195] (-100)
1494  00                 [196] (-100)
1495  7A                 [197] (-100)
1496  00                 [198] (-100)
1497  00                 [199] (-100)
1498  00                 [200] (-100)
1499  7A                 [201] (-98)
                         * locals:
16F5  00                 sizelocvars (0)
                         * upvalues:
16F6  00                 sizeupvalues (0)
                         ** end of function **

                         
16F7                     ** function [6] definition (level 2)
                         ** start of function **
16F7  00                 string size (0)
                         source name: (none)
16F9  01                 line defined (161)
16FA  D9                 last line defined (217)
16FB  01                 nups (11)
16FC  0B                 numparams (2)
16FD  02                 is_vararg (0)
16FE  00                 maxstacksize (7)
                         * code:
1700  2B                 sizecode (43)
1701  18400000           [01] test       0       1    ; to [3] if false
1705  1A000080           [02] jmp        1            ; to [4]
1709  1E008000           [03] return     0   1      
170D  97008000           [04] loadbool   2   1   0    ; true
fail op	8
1711  88000000           [05] setupval   2   0      
1715  9D000000           [06] getglobal  2   0        ; 1074689893
1719  D3008000           [07] getupval   3   1      
171D  A2800001           [08] call       2   2   2  
1721  98400000           [09] test       2       1    ; to [11] if false
1725  1A800380           [10] jmp        15           ; to [26]
1729  99400000           [11] loadk      2   1        ; "DogTagRedeemed"
172D  D3000001           [12] getupval   3   2      
1731  1D810000           [13] getglobal  4   2        ; EMPTY_SYMBOL
fail op	35
1735  63008101           [14] close      1  
1739  1A000180           [15] jmp        5            ; to [21]
173D  D2000001           [16] move       3   2      
1741  13010001           [17] getupval   4   2      
1745  24C14002           [18] self       4   4   259  ; 1590141906
1749  22810001           [19] call       4   2   2  
174D  82008101           [20] concat     2   3   4  
1751  D3008001           [21] getupval   3   3      
1755  CE00C101           [22] gettable   3   3   260  ; 816310460
1759  13018000           [23] getupval   4   1      
175D  52010001           [24] move       5   2      
1761  E2408001           [25] call       3   3   1  
1765  D9400100           [26] loadk      3   5        ; 0
1769  13010002           [27] getupval   4   4      
176D  24814102           [28] self       4   4   262  ; -1658822453
1771  A5010000           [29] closure    6   0      
1775  13008002           [30] getupval   0   5      
1779  13000003           [31] getupval   0   6      
177D  13008003           [32] getupval   0   7      
1781  13000004           [33] getupval   0   8      
1785  12008001           [34] move       0   3      
1789  22418001           [35] call       4   3   1  
178D  13010002           [36] getupval   4   4      
1791  24C14102           [37] self       4   4   263  ; 1685109492
1795  22410001           [38] call       4   2   1  
1799  19410100           [39] loadk      4   5        ; 0
fail op	8
179D  08018004           [40] setupval   4   9      
17A1  13010005           [41] getupval   4   10     
17A5  22418000           [42] call       4   1   1  
17A9  1E008000           [43] return     0   1      
                         * constants:
17AD  08                 sizek (8)
17AE  01                 const type 3
17AF  65770E40           const [0]: (1074689893)
17B3  04                 const type 4
17B4  0F                 string size (15)
17B5  446F675461675265+  "DogTagRe"
17BD  6465656D656400     "deemed\0"
                         const [1]: "DogTagRedeemed"
17C4  04                 const type 4
17C5  0D                 string size (13)
17C6  454D5054595F5359+  "EMPTY_SY"
17CE  4D424F4C00         "MBOL\0"
                         const [2]: "EMPTY_SYMBOL"
17D3  01                 const type 3
17D4  D2A3C75E           const [3]: (1590141906)
17D8  01                 const type 3
17D9  BCE8A730           const [4]: (816310460)
17DD  03                 const type 3
17DE  00000000           const [5]: (0)
17E2  01                 const type 3
17E3  CB60209D           const [6]: (-1658822453)
17E7  01                 const type 3
17E8  F4BA7064           const [7]: (1685109492)
                         * functions:
17EC  01                 sizep (1)
                         
17ED                     ** function [0] definition (level 3)
                         ** start of function **
17ED  00                 string size (0)
                         source name: (none)
17EF  01                 line defined (178)
17F0  D3                 last line defined (211)
17F1  01                 nups (5)
17F2  05                 numparams (1)
17F3  01                 is_vararg (0)
17F4  00                 maxstacksize (15)
                         * code:
17F6  52                 sizecode (82)
17F7  4E004000           [01] gettable   1   0   256  ; "Donated"
fail op	21
17FB  15408080           [02] concat     0   257 1  
17FF  1A401380           [03] jmp        78           ; to [82]
1803  4E804000           [04] gettable   1   0   258  ; "mClipName"
fail op	35
1807  63C0C000           [05] close      1  
180B  1A401080           [06] jmp        66           ; to [73]
180F  4E804000           [07] gettable   1   0   258  ; "mClipName"
1813  99000100           [08] loadk      2   4        ; ".RepCount"
1817  42808000           [09] concat     1   1   2  
181B  9D400100           [10] getglobal  2   5        ; mMovie
181F  A4804101           [11] self       2   2   262  ; 471456102
1823  12018000           [12] move       4   1      
1827  59C10100           [13] loadk      5   7        ; "_visible"
182B  97018000           [14] loadbool   6   1   0    ; true
182F  A2408002           [15] call       2   5   1  
1833  9D000200           [16] getglobal  2   8        ; math
1837  8E404201           [17] gettable   2   2   265  ; -113279800
183B  CE004000           [18] gettable   3   0   256  ; "Donated"
183F  0E814200           [19] gettable   4   0   266  ; "StandingBonus"
1843  C4008101           [20] mul        3   3   4  
1847  A2800001           [21] call       2   2   2  
184B  DD400100           [22] getglobal  3   5        ; mMovie
184F  E4C0C201           [23] self       3   3   267  ; -693657623
1853  52018000           [24] move       5   1      
1857  99010300           [25] loadk      6   12       ; ".txt"
185B  42818102           [26] concat     5   5   6  
185F  99410300           [27] loadk      6   13       ; "text"
1863  D3010000           [28] getupval   7   0      
1867  19820300           [29] loadk      8   14       ; " "
186B  53028000           [30] getupval   9   1      
186F  4EC2C304           [31] gettable   9   9   271  ; 2115597333
1873  92020001           [32] move       10  2      
1877  D9420000           [33] loadk      11  1        ; 0
187B  62828001           [34] call       9   3   2  
187F  C2418203           [35] concat     7   7   9  
1883  E2408002           [36] call       3   5   1  
1887  D3000001           [37] getupval   3   2      
188B  CD808001           [38] sub        3   3   2  
fail op	8
188F  C8000001           [39] setupval   3   2      
1893  DD400100           [40] getglobal  3   5        ; mMovie
1897  E400C401           [41] self       3   3   272  ; 1803241227
189B  4E814000           [42] gettable   5   0   258  ; "mClipName"
189F  99410400           [43] loadk      6   17       ; "_x"
18A3  E2800002           [44] call       3   4   2  
18A7  1D410100           [45] getglobal  4   5        ; mMovie
18AB  24014402           [46] self       4   4   272  ; 1803241227
18AF  8E814000           [47] gettable   6   0   258  ; "mClipName"
18B3  D9810400           [48] loadk      7   18       ; "_y"
18B7  22810002           [49] call       4   4   2  
18BB  65010000           [50] closure    5   0      
18BF  13008001           [51] getupval   0   3      
18C3  12008001           [52] move       0   3      
18C7  12000002           [53] move       0   4      
18CB  12008000           [54] move       0   1      
18CF  9DC10400           [55] getglobal  6   19       ; 1390508688
18D3  DD410100           [56] getglobal  7   5        ; mMovie
18D7  12028000           [57] move       8   1      
18DB  5D020500           [58] getglobal  9   20       ; UISys
18DF  4E42C504           [59] gettable   9   9   277  ; "FlashInstance_SMOOTH_STEP"
18E3  8B020001           [60] newtable   10  2   0    ; array=2, hash=0
18E7  D9820500           [61] loadk      11  22       ; "_alpha"
18EB  19C30500           [62] loadk      12  23       ; "_z"
18EF  9B420001           [63] setlist    10  2   1    ; index 1 to 2
18F3  CB020001           [64] newtable   11  2   0    ; array=2, hash=0
18F7  19030600           [65] loadk      12  24       ; 0
18FB  59430000           [66] loadk      13  1        ; 0
18FF  DB420001           [67] setlist    11  2   1    ; index 1 to 2
1903  19430600           [68] loadk      12  25       ; -51
1907  53030002           [69] getupval   13  4      
190B  92038002           [70] move       14  5      
190F  A2418004           [71] call       6   9   1  
1913  51000000           [72] close      1  
1917  4E804600           [73] gettable   1   0   282  ; "Count"
191B  8E004000           [74] gettable   2   0   256  ; "Donated"
191F  4D808000           [75] sub        1   1   2  
1923  0C40008D           [76] settable   0   282 1    ; "Count"
1927  0C404080           [77] settable   0   256 257  ; "Donated" 0
192B  0C00C78D           [78] settable   0   283 284  ; "mForceRedraw" 1
192F  53000002           [79] getupval   1   4      
1933  4340C700           [80] add        1   1   285  ; 0
fail op	8
1937  48000002           [81] setupval   1   4      
193B  1E008000           [82] return     0   1      
                         * constants:
193F  1E                 sizek (30)
1940  04                 const type 4
1941  08                 string size (8)
1942  446F6E6174656400   "Donated\0"
                         const [0]: "Donated"
194A  03                 const type 3
194B  00000000           const [1]: (0)
194F  04                 const type 4
1950  0A                 string size (10)
1951  6D436C69704E616D+  "mClipNam"
1959  6500               "e\0"
                         const [2]: "mClipName"
195B  00                 const type 0
                         const [3]: nil
195C  04                 const type 4
195D  0A                 string size (10)
195E  2E526570436F756E+  ".RepCoun"
1966  7400               "t\0"
                         const [4]: ".RepCount"
1968  04                 const type 4
1969  07                 string size (7)
196A  6D4D6F76696500     "mMovie\0"
                         const [5]: "mMovie"
1971  01                 const type 3
1972  66D9191C           const [6]: (471456102)
1976  04                 const type 4
1977  09                 string size (9)
1978  5F76697369626C65+  "_visible"
1980  00                 "\0"
                         const [7]: "_visible"
1981  04                 const type 4
1982  05                 string size (5)
1983  6D61746800         "math\0"
                         const [8]: "math"
1988  01                 const type 3
1989  C87C3FF9           const [9]: (-113279800)
198D  04                 const type 4
198E  0E                 string size (14)
198F  5374616E64696E67+  "Standing"
1997  426F6E757300       "Bonus\0"
                         const [10]: "StandingBonus"
199D  01                 const type 3
199E  E99FA7D6           const [11]: (-693657623)
19A2  04                 const type 4
19A3  05                 string size (5)
19A4  2E74787400         ".txt\0"
                         const [12]: ".txt"
19A9  04                 const type 4
19AA  05                 string size (5)
19AB  7465787400         "text\0"
                         const [13]: "text"
19B0  04                 const type 4
19B1  02                 string size (2)
19B2  2000               " \0"
                         const [14]: " "
19B4  01                 const type 3
19B5  1574197E           const [15]: (2115597333)
19B9  01                 const type 3
19BA  0B477B6B           const [16]: (1803241227)
19BE  04                 const type 4
19BF  03                 string size (3)
19C0  5F7800             "_x\0"
                         const [17]: "_x"
19C3  04                 const type 4
19C4  03                 string size (3)
19C5  5F7900             "_y\0"
                         const [18]: "_y"
19C8  01                 const type 3
19C9  907AE152           const [19]: (1390508688)
19CD  04                 const type 4
19CE  06                 string size (6)
19CF  554953797300       "UISys\0"
                         const [20]: "UISys"
19D5  04                 const type 4
19D6  1A                 string size (26)
19D7  466C617368496E73+  "FlashIns"
19DF  74616E63655F534D+  "tance_SM"
19E7  4F4F54485F535445+  "OOTH_STE"
19EF  5000               "P\0"
                         const [21]: "FlashInstance_SMOOTH_STEP"
19F1  04                 const type 4
19F2  07                 string size (7)
19F3  5F616C70686100     "_alpha\0"
                         const [22]: "_alpha"
19FA  04                 const type 4
19FB  03                 string size (3)
19FC  5F7A00             "_z\0"
                         const [23]: "_z"
19FF  03                 const type 3
1A00  0000C842           const [24]: (0)
1A04  03                 const type 3
1A05  CDCCCC3E           const [25]: (-51)
1A09  04                 const type 4
1A0A  06                 string size (6)
1A0B  436F756E7400       "Count\0"
                         const [26]: "Count"
1A11  04                 const type 4
1A12  0D                 string size (13)
1A13  6D466F7263655265+  "mForceRe"
1A1B  6472617700         "draw\0"
                         const [27]: "mForceRedraw"
1A20  01                 const type 3
1A21  01000000           const [28]: (1)
1A25  03                 const type 3
1A26  0000003F           const [29]: (0)
                         * functions:
1A2A  01                 sizep (1)
                         
1A2B                     ** function [0] definition (level 4)
                         ** start of function **
1A2B  00                 string size (0)
                         source name: (none)
1A2D  01                 line defined (193)
1A2E  C9                 last line defined (201)
1A2F  01                 nups (4)
1A30  04                 numparams (0)
1A31  00                 is_vararg (0)
1A32  00                 maxstacksize (9)
                         * code:
1A34  18                 sizecode (24)
1A35  13000000           [01] getupval   0   0      
1A39  0E004000           [02] gettable   0   0   256  ; -1154517407
1A3D  5D400000           [03] getglobal  1   1        ; mMovie
1A41  9D800000           [04] getglobal  2   2        ; particleTallyFX
1A45  D3008000           [05] getupval   3   1      
1A49  13010001           [06] getupval   4   2      
1A4D  22408002           [07] call       0   5   1  
1A51  1DC00000           [08] getglobal  0   3        ; 1390508688
1A55  5D400000           [09] getglobal  1   1        ; mMovie
1A59  93008001           [10] getupval   2   3      
1A5D  DD000100           [11] getglobal  3   4        ; UISys
1A61  CE40C101           [12] gettable   3   3   261  ; "FlashInstance_SMOOTH_STEP"
1A65  0B018000           [13] newtable   4   1   0    ; array=1, hash=0
1A69  59810100           [14] loadk      5   6        ; "_alpha"
1A6D  1B418000           [15] setlist    4   1   1    ; index 1 to 1
1A71  4B018000           [16] newtable   5   1   0    ; array=1, hash=0
1A75  99C10100           [17] loadk      6   7        ; 0
1A79  5B418000           [18] setlist    5   1   1    ; index 1 to 1
1A7D  99010200           [19] loadk      6   8        ; 0
1A81  D9010200           [20] loadk      7   8        ; 0
1A85  25020000           [21] closure    8   0      
1A89  13008001           [22] getupval   0   3      
1A8D  22408004           [23] call       0   9   1  
1A91  1E008000           [24] return     0   1      
                         * constants:
1A95  09                 sizek (9)
1A96  01                 const type 3
1A97  61762FBB           const [0]: (-1154517407)
1A9B  04                 const type 4
1A9C  07                 string size (7)
1A9D  6D4D6F76696500     "mMovie\0"
                         const [1]: "mMovie"
1AA4  04                 const type 4
1AA5  10                 string size (16)
1AA6  7061727469636C65+  "particle"
1AAE  54616C6C79465800   "TallyFX\0"
                         const [2]: "particleTallyFX"
1AB6  01                 const type 3
1AB7  907AE152           const [3]: (1390508688)
1ABB  04                 const type 4
1ABC  06                 string size (6)
1ABD  554953797300       "UISys\0"
                         const [4]: "UISys"
1AC3  04                 const type 4
1AC4  1A                 string size (26)
1AC5  466C617368496E73+  "FlashIns"
1ACD  74616E63655F534D+  "tance_SM"
1AD5  4F4F54485F535445+  "OOTH_STE"
1ADD  5000               "P\0"
                         const [5]: "FlashInstance_SMOOTH_STEP"
1ADF  04                 const type 4
1AE0  07                 string size (7)
1AE1  5F616C70686100     "_alpha\0"
                         const [6]: "_alpha"
1AE8  03                 const type 3
1AE9  00000000           const [7]: (0)
1AED  03                 const type 3
1AEE  0000803F           const [8]: (0)
                         * functions:
1AF2  01                 sizep (1)
                         
1AF3                     ** function [0] definition (level 5)
                         ** start of function **
1AF3  00                 string size (0)
                         source name: (none)
1AF5  01                 line defined (197)
1AF6  C8                 last line defined (200)
1AF7  01                 nups (1)
1AF8  01                 numparams (0)
1AF9  00                 is_vararg (0)
1AFA  00                 maxstacksize (5)
                         * code:
1AFC  0D                 sizecode (13)
1AFD  1D000000           [01] getglobal  0   0        ; mMovie
1B01  24404000           [02] self       0   0   257  ; 471456102
1B05  93000000           [03] getupval   2   0      
1B09  D9800000           [04] loadk      3   2        ; "_visible"
1B0D  17010000           [05] loadbool   4   0   0    ; false
1B11  22408002           [06] call       0   5   1  
1B15  1D000000           [07] getglobal  0   0        ; mMovie
1B19  24404000           [08] self       0   0   257  ; 471456102
1B1D  93000000           [09] getupval   2   0      
1B21  D9C00000           [10] loadk      3   3        ; "_z"
1B25  19010100           [11] loadk      4   4        ; 0
1B29  22408002           [12] call       0   5   1  
1B2D  1E008000           [13] return     0   1      
                         * constants:
1B31  05                 sizek (5)
1B32  04                 const type 4
1B33  07                 string size (7)
1B34  6D4D6F76696500     "mMovie\0"
                         const [0]: "mMovie"
1B3B  01                 const type 3
1B3C  66D9191C           const [1]: (471456102)
1B40  04                 const type 4
1B41  09                 string size (9)
1B42  5F76697369626C65+  "_visible"
1B4A  00                 "\0"
                         const [2]: "_visible"
1B4B  04                 const type 4
1B4C  03                 string size (3)
1B4D  5F7A00             "_z\0"
                         const [3]: "_z"
1B50  03                 const type 3
1B51  00401CC6           const [4]: (0)
                         * functions:
1B55  00                 sizep (0)
                         * lines:
1B56  0D                 sizelineinfo (13)
                         [pc] (line)
1B57  C6                 [01] (-58)
1B58  00                 [02] (-58)
1B59  00                 [03] (-58)
1B5A  00                 [04] (-58)
1B5B  C6                 [05] (-58)
1B5C  00                 [06] (-58)
1B5D  00                 [07] (-57)
1B5E  00                 [08] (-57)
1B5F  C6                 [09] (-57)
1B60  00                 [10] (-57)
1B61  00                 [11] (-57)
1B62  00                 [12] (-57)
1B63  C6                 [13] (-56)
                         * locals:
1B8B  00                 sizelocvars (0)
                         * upvalues:
1B8C  00                 sizeupvalues (0)
                         ** end of function **

                         * lines:
1B8D  18                 sizelineinfo (24)
                         [pc] (line)
1B8E  C2                 [01] (-62)
1B8F  00                 [02] (-62)
1B90  00                 [03] (-62)
1B91  00                 [04] (-62)
1B92  C2                 [05] (-62)
1B93  00                 [06] (-62)
1B94  00                 [07] (-62)
1B95  00                 [08] (-60)
1B96  C2                 [09] (-60)
1B97  00                 [10] (-60)
1B98  00                 [11] (-60)
1B99  00                 [12] (-60)
1B9A  C2                 [13] (-60)
1B9B  00                 [14] (-60)
1B9C  00                 [15] (-60)
1B9D  00                 [16] (-60)
1B9E  C2                 [17] (-60)
1B9F  00                 [18] (-60)
1BA0  00                 [19] (-60)
1BA1  00                 [20] (-60)
1BA2  C2                 [21] (-56)
1BA3  00                 [22] (-56)
1BA4  00                 [23] (-60)
1BA5  00                 [24] (-55)
                         * locals:
1BEE  00                 sizelocvars (0)
                         * upvalues:
1BEF  00                 sizeupvalues (0)
                         ** end of function **

                         * lines:
1BF0  52                 sizelineinfo (82)
                         [pc] (line)
1BF1  B3                 [01] (-77)
1BF2  00                 [02] (-77)
1BF3  00                 [03] (-77)
1BF4  00                 [04] (-76)
1BF5  B3                 [05] (-76)
1BF6  00                 [06] (-76)
1BF7  00                 [07] (-75)
1BF8  00                 [08] (-75)
1BF9  B3                 [09] (-75)
1BFA  00                 [10] (-73)
1BFB  00                 [11] (-73)
1BFC  00                 [12] (-73)
1BFD  B4                 [13] (-73)
1BFE  00                 [14] (-73)
1BFF  00                 [15] (-73)
1C00  00                 [16] (-71)
1C01  B4                 [17] (-71)
1C02  00                 [18] (-71)
1C03  00                 [19] (-71)
1C04  00                 [20] (-71)
1C05  B4                 [21] (-71)
1C06  00                 [22] (-70)
1C07  00                 [23] (-70)
1C08  00                 [24] (-70)
1C09  B5                 [25] (-70)
1C0A  00                 [26] (-70)
1C0B  00                 [27] (-70)
1C0C  00                 [28] (-70)
1C0D  B5                 [29] (-70)
1C0E  00                 [30] (-70)
1C0F  00                 [31] (-70)
1C10  00                 [32] (-70)
1C11  B5                 [33] (-70)
1C12  00                 [34] (-70)
1C13  00                 [35] (-70)
1C14  00                 [36] (-70)
1C15  B7                 [37] (-69)
1C16  00                 [38] (-69)
1C17  00                 [39] (-69)
1C18  00                 [40] (-67)
1C19  B7                 [41] (-67)
1C1A  00                 [42] (-67)
1C1B  00                 [43] (-67)
1C1C  00                 [44] (-67)
1C1D  B7                 [45] (-66)
1C1E  00                 [46] (-66)
1C1F  00                 [47] (-66)
1C20  00                 [48] (-66)
1C21  B7                 [49] (-66)
1C22  00                 [50] (-55)
1C23  00                 [51] (-55)
1C24  00                 [52] (-55)
1C25  B7                 [53] (-55)
1C26  00                 [54] (-55)
1C27  00                 [55] (-54)
1C28  00                 [56] (-54)
1C29  B7                 [57] (-54)
1C2A  00                 [58] (-54)
1C2B  00                 [59] (-54)
1C2C  00                 [60] (-54)
1C2D  B9                 [61] (-54)
1C2E  00                 [62] (-54)
1C2F  00                 [63] (-54)
1C30  00                 [64] (-54)
1C31  B9                 [65] (-54)
1C32  00                 [66] (-54)
1C33  00                 [67] (-54)
1C34  00                 [68] (-54)
1C35  B9                 [69] (-54)
1C36  00                 [70] (-54)
1C37  00                 [71] (-54)
1C38  00                 [72] (-54)
1C39  B9                 [73] (-51)
1C3A  00                 [74] (-51)
1C3B  00                 [75] (-51)
1C3C  00                 [76] (-51)
1C3D  B9                 [77] (-49)
1C3E  00                 [78] (-48)
1C3F  00                 [79] (-47)
1C40  00                 [80] (-47)
1C41  B9                 [81] (-47)
1C42  00                 [82] (-45)
                         * locals:
1D39  00                 sizelocvars (0)
                         * upvalues:
1D3A  00                 sizeupvalues (0)
                         ** end of function **

                         * lines:
1D3B  2B                 sizelineinfo (43)
                         [pc] (line)
1D3C  A2                 [01] (-94)
1D3D  00                 [02] (-94)
1D3E  00                 [03] (-93)
1D3F  00                 [04] (-90)
1D40  A2                 [05] (-90)
1D41  00                 [06] (-89)
1D42  00                 [07] (-89)
1D43  00                 [08] (-89)
1D44  A3                 [09] (-89)
1D45  00                 [10] (-89)
1D46  00                 [11] (-88)
1D47  00                 [12] (-87)
1D48  A6                 [13] (-87)
1D49  00                 [14] (-87)
1D4A  00                 [15] (-87)
1D4B  00                 [16] (-86)
1D4C  A6                 [17] (-86)
1D4D  00                 [18] (-86)
1D4E  00                 [19] (-86)
1D4F  00                 [20] (-86)
1D50  A7                 [21] (-83)
1D51  00                 [22] (-83)
1D52  00                 [23] (-83)
1D53  00                 [24] (-83)
1D54  A7                 [25] (-83)
1D55  00                 [26] (-80)
1D56  00                 [27] (-79)
1D57  00                 [28] (-79)
1D58  A7                 [29] (-45)
1D59  00                 [30] (-45)
1D5A  00                 [31] (-45)
1D5B  00                 [32] (-45)
1D5C  A7                 [33] (-45)
1D5D  00                 [34] (-45)
1D5E  00                 [35] (-79)
1D5F  00                 [36] (-43)
1D60  A7                 [37] (-43)
1D61  00                 [38] (-43)
1D62  00                 [39] (-42)
1D63  00                 [40] (-42)
1D64  A8                 [41] (-40)
1D65  00                 [42] (-40)
1D66  00                 [43] (-39)
                         * locals:
1DE8  00                 sizelocvars (0)
                         * upvalues:
1DE9  00                 sizeupvalues (0)
                         ** end of function **

                         
1DEA                     ** function [7] definition (level 2)
                         ** start of function **
1DEA  00                 string size (0)
                         source name: (none)
1DEC  01                 line defined (219)
1DED  E6                 last line defined (230)
1DEE  01                 nups (3)
1DEF  03                 numparams (1)
1DF0  01                 is_vararg (0)
1DF1  00                 maxstacksize (7)
                         * code:
1DF3  1E                 sizecode (30)
1DF4  5D000000           [01] getglobal  1   0        ; -174740002
1DF8  92000000           [02] move       2   0      
1DFC  62800001           [03] call       1   2   2  
1E00  9D400000           [04] getglobal  2   1        ; Engine
1E04  8E804001           [05] gettable   2   2   258  ; "CI_SELECT"
fail op	35
1E08  23808000           [06] close      0  
1E0C  1A400580           [07] jmp        22           ; to [30]
1E10  5DC00000           [08] getglobal  1   3        ; gPlayerProfileMgr
1E14  6400C100           [09] self       1   1   260  ; 569342746
1E18  D9400100           [10] loadk      3   5        ; 0
1E1C  62808001           [11] call       1   3   2  
1E20  A480C100           [12] self       2   1   262  ; 1699680402
1E24  A2800001           [13] call       2   2   2  
1E28  E4C04101           [14] self       3   2   263  ; 1023371593
1E2C  53010000           [15] getupval   5   0      
1E30  99010200           [16] loadk      6   8        ; "OnRedeemAllComplete"
1E34  E2400002           [17] call       3   4   1  
1E38  DD400200           [18] getglobal  3   9        ; redeemSounds
1E3C  13018000           [19] getupval   4   1      
1E40  CE008101           [20] gettable   3   3   4  
1E44  1D810200           [21] getglobal  4   10       ; 1074689893
1E48  52018001           [22] move       5   3      
1E4C  22810001           [23] call       4   2   2  
1E50  18410000           [24] test       4       1    ; to [26] if false
1E54  1AC00080           [25] jmp        4            ; to [30]
1E58  13010001           [26] getupval   4   2      
1E5C  0EC14202           [27] gettable   4   4   267  ; 630793108
1E60  52018001           [28] move       5   3      
1E64  22410001           [29] call       4   2   1  
1E68  1E008000           [30] return     0   1      
                         * constants:
1E6C  0C                 sizek (12)
1E6D  01                 const type 3
1E6E  DEAD95F5           const [0]: (-174740002)
1E72  04                 const type 4
1E73  07                 string size (7)
1E74  456E67696E6500     "Engine\0"
                         const [1]: "Engine"
1E7B  04                 const type 4
1E7C  0A                 string size (10)
1E7D  43495F53454C4543+  "CI_SELEC"
1E85  5400               "T\0"
                         const [2]: "CI_SELECT"
1E87  04                 const type 4
1E88  12                 string size (18)
1E89  67506C6179657250+  "gPlayerP"
1E91  726F66696C654D67+  "rofileMg"
1E99  7200               "r\0"
                         const [3]: "gPlayerProfileMgr"
1E9B  01                 const type 3
1E9C  1A7BEF21           const [4]: (569342746)
1EA0  03                 const type 3
1EA1  00000000           const [5]: (0)
1EA5  01                 const type 3
1EA6  92104F65           const [6]: (1699680402)
1EAA  01                 const type 3
1EAB  4969FF3C           const [7]: (1023371593)
1EAF  04                 const type 4
1EB0  14                 string size (20)
1EB1  4F6E52656465656D+  "OnRedeem"
1EB9  416C6C436F6D706C+  "AllCompl"
1EC1  65746500           "ete\0"
                         const [8]: "OnRedeemAllComplete"
1EC5  04                 const type 4
1EC6  0D                 string size (13)
1EC7  72656465656D536F+  "redeemSo"
1ECF  756E647300         "unds\0"
                         const [9]: "redeemSounds"
1ED4  01                 const type 3
1ED5  65770E40           const [10]: (1074689893)
1ED9  01                 const type 3
1EDA  94239925           const [11]: (630793108)
                         * functions:
1EDE  00                 sizep (0)
                         * lines:
1EDF  1E                 sizelineinfo (30)
                         [pc] (line)
1EE0  DC                 [01] (-36)
1EE1  00                 [02] (-36)
1EE2  00                 [03] (-36)
1EE3  00                 [04] (-36)
1EE4  DC                 [05] (-36)
1EE5  00                 [06] (-36)
1EE6  00                 [07] (-36)
1EE7  00                 [08] (-35)
1EE8  DC                 [09] (-35)
1EE9  00                 [10] (-35)
1EEA  00                 [11] (-35)
1EEB  00                 [12] (-34)
1EEC  DC                 [13] (-34)
1EED  00                 [14] (-33)
1EEE  00                 [15] (-33)
1EEF  00                 [16] (-33)
1EF0  DC                 [17] (-33)
1EF1  00                 [18] (-31)
1EF2  00                 [19] (-31)
1EF3  00                 [20] (-31)
1EF4  DC                 [21] (-30)
1EF5  00                 [22] (-30)
1EF6  00                 [23] (-30)
1EF7  00                 [24] (-30)
1EF8  DC                 [25] (-30)
1EF9  00                 [26] (-29)
1EFA  00                 [27] (-29)
1EFB  00                 [28] (-29)
1EFC  DD                 [29] (-29)
1EFD  00                 [30] (-26)
                         * locals:
1F58  00                 sizelocvars (0)
                         * upvalues:
1F59  00                 sizeupvalues (0)
                         ** end of function **

                         
1F5A                     ** function [8] definition (level 2)
                         ** start of function **
1F5A  00                 string size (0)
                         source name: (none)
1F5C  01                 line defined (232)
1F5D  B0                 last line defined (304)
1F5E  02                 nups (7)
1F5F  07                 numparams (1)
1F60  01                 is_vararg (0)
1F61  00                 maxstacksize (34)
                         * code:
1F64  01                 sizecode (190)
1F65  5D000000           [001] getglobal  1   0        ; Lotus_Game
1F69  4E40C000           [002] gettable   1   1   257  ; 1225582471
1F6D  62808000           [003] call       1   1   2  
fail op	8
1F71  48000000           [004] setupval   1   0      
1F75  53000000           [005] getupval   1   0      
1F79  93008000           [006] getupval   2   1      
1F7D  A4C04001           [007] self       2   2   259  ; -420413565
1F81  A2800001           [008] call       2   2   2  
1F85  4C800081           [009] settable   1   258 2    ; "mAffiliationTag"
1F89  59000100           [010] loadk      1   4        ; 0
fail op	8
1F8D  48000001           [011] setupval   1   2      
1F91  53008001           [012] getupval   1   3      
1F95  6440C100           [013] self       1   1   261  ; -1658822453
1F99  E5000000           [014] closure    3   0      
1F9D  13000001           [015] getupval   0   2      
1FA1  13000000           [016] getupval   0   0      
1FA5  62408001           [017] call       1   3   1  
1FA9  53000002           [018] getupval   1   4      
1FAD  4E80C100           [019] gettable   1   1   262  ; 387904467
1FB1  93008000           [020] getupval   2   1      
1FB5  62800101           [021] call       1   2   6  
1FB9  93018002           [022] getupval   6   5      
1FBD  98410000           [023] test       6       1    ; to [25] if false
1FC1  1A000280           [024] jmp        9            ; to [34]
fail op	21
1FC5  1500C101           [025] concat     0   3   260
1FC9  1A400180           [026] jmp        6            ; to [33]
1FCD  9DC10100           [027] getglobal  6   7        ; math
1FD1  8E014203           [028] gettable   6   6   264  ; -113279800
1FD5  D2010001           [029] move       7   2      
1FD9  A2810001           [030] call       6   2   2  
1FDD  52010003           [031] move       5   6      
1FE1  1A000080           [032] jmp        1            ; to [34]
1FE5  4D818001           [033] sub        5   3   2  
1FE9  18400000           [034] test       0       1    ; to [36] if false
1FED  1A400F80           [035] jmp        62           ; to [98]
fail op	35
1FF1  2300C102           [036] close      0  
1FF5  1A800980           [037] jmp        39           ; to [77]
1FF9  99410200           [038] loadk      6   9        ; "/Lotus/Language/Menu/Syndicates_ReputationOverflow"
1FFD  D3018000           [039] getupval   7   1      
2001  E481C203           [040] self       7   7   266  ; -5754287
2005  E2810001           [041] call       7   2   2  
2009  1D020000           [042] getglobal  8   0        ; Lotus_Game
200D  0EC24204           [043] gettable   8   8   267  ; "STANDING_LIMIT_BIN_NONE"
fail op	21
2011  15C00104           [044] concat     0   8   7  
2015  1A000680           [045] jmp        25           ; to [71]
2019  1D020000           [046] getglobal  8   0        ; Lotus_Game
201D  0E024304           [047] gettable   8   8   268  ; "MAX_DailyStandingLimitBin"
fail op	21
2021  15008203           [048] concat     0   7   8  
2025  1A000580           [049] jmp        21           ; to [71]
2029  1D420300           [050] getglobal  8   13       ; gPlayerProfileMgr
202D  24824304           [051] self       8   8   270  ; 569342746
2031  99020100           [052] loadk      10  4        ; 0
2035  22828001           [053] call       8   3   2  
2039  5DC20300           [054] getglobal  9   15       ; 1074689893
203D  92020004           [055] move       10  8      
2041  62820001           [056] call       9   2   2  
2045  58420000           [057] test       9       1    ; to [59] if false
2049  1A000280           [058] jmp        9            ; to [68]
204D  64024404           [059] self       9   8   272  ; 1699680402
2051  62820001           [060] call       9   2   2  
2055  A442C404           [061] self       10  9   273  ; 2041672695
2059  12038003           [062] move       12  7      
205D  A2828001           [063] call       10  3   2  
fail op	35
2061  23004105           [064] close      0  
2065  1A000180           [065] jmp        5            ; to [71]
2069  99810400           [066] loadk      6   18       ; "/Lotus/Language/Menu/Syndicates_DogTag_DailyLimit_Reached"
206D  1A800080           [067] jmp        3            ; to [71]
2071  DDC20400           [068] getglobal  11  19       ; -1817107093
2075  19030500           [069] loadk      12  20       ; "_RedeemAll: No player profile"
2079  E2420001           [070] call       11  2   1  
207D  D3020003           [071] getupval   11  6      
2081  CE42C505           [072] gettable   11  11  277  ; 955055712
2085  12030003           [073] move       12  6      
2089  E2420001           [074] call       11  2   1  
208D  1E008000           [075] return     0   1      
2091  1A000580           [076] jmp        21           ; to [98]
2095  D3020001           [077] getupval   11  2      
fail op	21
2099  15C08202           [078] concat     0   5   11 
209D  1A400480           [079] jmp        18           ; to [98]
20A1  DD820500           [080] getglobal  11  22       ; mMovie
20A5  E4C2C505           [081] self       11  11  279  ; 98241492
20A9  59030600           [082] loadk      13  24       ; "/Lotus/Language/Menu/Syndicates_DogTag_StandingWasteWarning"
20AD  97038000           [083] loadbool   14  1   0    ; true
20B1  CB430000           [084] newtable   15  0   1    ; array=0, hash=1
20B5  13040003           [085] getupval   16  6      
20B9  0E844608           [086] gettable   16  16  282  ; 2115597333
20BD  53040001           [087] getupval   17  2      
20C1  4D448108           [088] sub        17  17  5  
20C5  22840001           [089] call       16  2   2  
20C9  CC03848C           [090] settable   15  281 16   ; "STANDING"
20CD  E2828002           [091] call       11  5   2  
20D1  13030003           [092] getupval   12  6      
20D5  0EC34606           [093] gettable   12  12  283  ; 479758160
20D9  52038005           [094] move       13  11     
20DD  99030700           [095] loadk      14  28       ; "ConfirmRedeemPartial"
20E1  22438001           [096] call       12  3   1  
20E5  1E008000           [097] return     0   1      
20E9  13030001           [098] getupval   12  2      
20ED  5DC30100           [099] getglobal  13  7        ; math
20F1  4E43C706           [100] gettable   13  13  285  ; 1710846250
20F5  93030001           [101] getupval   14  2      
20F9  D2038002           [102] move       15  5      
20FD  62838001           [103] call       13  3   2  
fail op	8
2101  48030001           [104] setupval   13  2      
2105  4B030000           [105] newtable   13  0   0    ; array=0, hash=0
2109  9D830700           [106] getglobal  14  30       ; table
210D  8EC34707           [107] gettable   14  14  287  ; -431682403
2111  D2038006           [108] move       15  13     
2115  0B840000           [109] newtable   16  0   2    ; array=0, hash=2
2119  53048000           [110] getupval   17  1      
211D  6444C808           [111] self       17  17  289  ; -93925502
2121  62840001           [112] call       17  2   2  
2125  0C440490           [113] settable   16  288 17   ; "Name"
2129  53040001           [114] getupval   17  2      
212D  0C440491           [115] settable   16  290 17   ; "Rep"
2131  A2438001           [116] call       14  3   1  
2135  9DC30800           [117] getglobal  14  35       ; 1672515847
2139  D3038000           [118] getupval   15  1      
213D  E403C907           [119] self       15  15  292  ; 1126420146
2141  E2030001           [120] call       15  2   0  
2145  A2030100           [121] call       14  0   4  
2149  1A000580           [122] jmp        21           ; to [144]
214D  DDC40300           [123] getglobal  19  15       ; 1074689893
2151  0E454909           [124] gettable   20  18  293  ; "other"
2155  E2840001           [125] call       19  2   2  
2159  D8440000           [126] test       19      1    ; to [128] if false
215D  1AC00380           [127] jmp        16           ; to [144]
2161  DD840900           [128] getglobal  19  38       ; 2083004503
2165  0E454909           [129] gettable   20  18  293  ; "other"
2169  24C5490A           [130] self       20  20  295  ; 455421500
216D  22050001           [131] call       20  2   0  
2171  E2840000           [132] call       19  0   2  
2175  1D850700           [133] getglobal  20  30       ; table
2179  0EC5470A           [134] gettable   20  20  287  ; -431682403
217D  52058006           [135] move       21  13     
2181  8B850000           [136] newtable   22  0   2    ; array=0, hash=2
2185  E445C809           [137] self       23  19  289  ; -93925502
2189  E2850001           [138] call       23  2   2  
218D  8CC50590           [139] settable   22  288 23   ; "Name"
2191  CE054A09           [140] gettable   23  18  296  ; "multiplier"
2195  C4C50506           [141] mul        23  12  23 
2199  8CC50591           [142] settable   22  290 23   ; "Rep"
219D  22458001           [143] call       20  3   1  
21A1  96830000           [144] tforloop   14      2    ; to [146] if exit
21A5  1A00FA7F           [145] jmp        -23          ; to [123]
21A9  1D850700           [146] getglobal  20  30       ; table
21AD  0E454A0A           [147] gettable   20  20  297  ; -1513783280
21B1  52058006           [148] move       21  13     
21B5  A5450000           [149] closure    22  1      
21B9  22458001           [150] call       20  3   1  
21BD  19850A00           [151] loadk      20  42       ; ""
21C1  5DC50800           [152] getglobal  21  35       ; 1672515847
21C5  92058006           [153] move       22  13     
21C9  62050101           [154] call       21  2   4  
21CD  1A800480           [155] jmp        19           ; to [175]
21D1  9206000A           [156] move       26  20     
21D5  D3060003           [157] getupval   27  6      
21D9  CE86C60D           [158] gettable   27  27  282  ; 2115597333
21DD  0E87C80C           [159] gettable   28  25  290  ; "Rep"
21E1  59070100           [160] loadk      29  4        ; 0
21E5  E2868001           [161] call       27  3   2  
21E9  19C70A00           [162] loadk      28  43       ; " "
21ED  5D070B00           [163] getglobal  29  44       ; string
21F1  4E47CB0E           [164] gettable   29  29  301  ; 1671193642
21F5  9D870500           [165] getglobal  30  22       ; mMovie
21F9  A4C7450F           [166] self       30  30  279  ; 98241492
21FD  0E08C80C           [167] gettable   32  25  288  ; "Name"
2201  24884B10           [168] self       32  32  302  ; 1590141906
2205  22880001           [169] call       32  2   2  
2209  57080000           [170] loadbool   33  0   0    ; false
220D  A2070002           [171] call       30  4   0  
2211  62870000           [172] call       29  0   2  
2215  99C70B00           [173] loadk      30  47       ; "\r"
2219  0285070D           [174] concat     20  26  30 
221D  56850000           [175] tforloop   21      2    ; to [177] if exit
2221  1A80FA7F           [176] jmp        -21          ; to [156]
2225  9D860500           [177] getglobal  26  22       ; mMovie
2229  A4C6450D           [178] self       26  26  279  ; 98241492
222D  19070C00           [179] loadk      28  48       ; "/Lotus/Language/Menu/StandingChangeConfirm"
2231  57070000           [180] loadbool   29  0   0    ; false
2235  8B470000           [181] newtable   30  0   1    ; array=0, hash=1
2239  8C078598           [182] settable   30  305 20   ; "CHANGES"
223D  A2868002           [183] call       26  5   2  
2241  1205000D           [184] move       20  26     
2245  93060003           [185] getupval   26  6      
2249  8EC6460D           [186] gettable   26  26  283  ; 479758160
224D  D206000A           [187] move       27  20     
2251  19870C00           [188] loadk      28  50       ; "ConfirmRedeeemAll"
2255  A2468001           [189] call       26  3   1  
2259  1E008000           [190] return     0   1      
                         * constants:
225D  33                 sizek (51)
225E  04                 const type 4
225F  0B                 string size (11)
2260  4C6F7475735F4761+  "Lotus_Ga"
2268  6D6500             "me\0"
                         const [0]: "Lotus_Game"
226B  01                 const type 3
226C  87E70C49           const [1]: (1225582471)
2270  04                 const type 4
2271  10                 string size (16)
2272  6D416666696C6961+  "mAffilia"
227A  74696F6E54616700   "tionTag\0"
                         const [2]: "mAffiliationTag"
2282  01                 const type 3
2283  83FFF0E6           const [3]: (-420413565)
2287  03                 const type 3
2288  00000000           const [4]: (0)
228C  01                 const type 3
228D  CB60209D           const [5]: (-1658822453)
2291  01                 const type 3
2292  D3F31E17           const [6]: (387904467)
2296  04                 const type 4
2297  05                 string size (5)
2298  6D61746800         "math\0"
                         const [7]: "math"
229D  01                 const type 3
229E  C87C3FF9           const [8]: (-113279800)
22A2  04                 const type 4
22A3  33                 string size (51)
22A4  2F4C6F7475732F4C+  "/Lotus/L"
22AC  616E67756167652F+  "anguage/"
22B4  4D656E752F53796E+  "Menu/Syn"
22BC  646963617465735F+  "dicates_"
22C4  5265707574617469+  "Reputati"
22CC  6F6E4F766572666C+  "onOverfl"
22D4  6F7700             "ow\0"
                         const [9]: "/Lotus/Language/Menu/Syndicates_ReputationOverflow"
22D7  01                 const type 3
22D8  5132A8FF           const [10]: (-5754287)
22DC  04                 const type 4
22DD  18                 string size (24)
22DE  5354414E44494E47+  "STANDING"
22E6  5F4C494D49545F42+  "_LIMIT_B"
22EE  494E5F4E4F4E4500   "IN_NONE\0"
                         const [11]: "STANDING_LIMIT_BIN_NONE"
22F6  04                 const type 4
22F7  1A                 string size (26)
22F8  4D41585F4461696C+  "MAX_Dail"
2300  795374616E64696E+  "yStandin"
2308  674C696D69744269+  "gLimitBi"
2310  6E00               "n\0"
                         const [12]: "MAX_DailyStandingLimitBin"
2312  04                 const type 4
2313  12                 string size (18)
2314  67506C6179657250+  "gPlayerP"
231C  726F66696C654D67+  "rofileMg"
2324  7200               "r\0"
                         const [13]: "gPlayerProfileMgr"
2326  01                 const type 3
2327  1A7BEF21           const [14]: (569342746)
232B  01                 const type 3
232C  65770E40           const [15]: (1074689893)
2330  01                 const type 3
2331  92104F65           const [16]: (1699680402)
2335  01                 const type 3
2336  F773B179           const [17]: (2041672695)
233A  04                 const type 4
233B  3A                 string size (58)
233C  2F4C6F7475732F4C+  "/Lotus/L"
2344  616E67756167652F+  "anguage/"
234C  4D656E752F53796E+  "Menu/Syn"
2354  646963617465735F+  "dicates_"
235C  446F675461675F44+  "DogTag_D"
2364  61696C794C696D69+  "ailyLimi"
236C  745F526561636865+  "t_Reache"
2374  6400               "d\0"
                         const [18]: "/Lotus/Language/Menu/Syndicates_DogTag_DailyLimit_Reached"
2376  01                 const type 3
2377  6B25B193           const [19]: (-1817107093)
237B  04                 const type 4
237C  1E                 string size (30)
237D  5F52656465656D41+  "_RedeemA"
2385  6C6C3A204E6F2070+  "ll: No p"
238D  6C61796572207072+  "layer pr"
2395  6F66696C6500       "ofile\0"
                         const [20]: "_RedeemAll: No player profile"
239B  01                 const type 3
239C  60FEEC38           const [21]: (955055712)
23A0  04                 const type 4
23A1  07                 string size (7)
23A2  6D4D6F76696500     "mMovie\0"
                         const [22]: "mMovie"
23A9  01                 const type 3
23AA  D40BDB05           const [23]: (98241492)
23AE  04                 const type 4
23AF  3C                 string size (60)
23B0  2F4C6F7475732F4C+  "/Lotus/L"
23B8  616E67756167652F+  "anguage/"
23C0  4D656E752F53796E+  "Menu/Syn"
23C8  646963617465735F+  "dicates_"
23D0  446F675461675F53+  "DogTag_S"
23D8  74616E64696E6757+  "tandingW"
23E0  617374655761726E+  "asteWarn"
23E8  696E6700           "ing\0"
                         const [24]: "/Lotus/Language/Menu/Syndicates_DogTag_StandingWasteWarning"
23EC  04                 const type 4
23ED  09                 string size (9)
23EE  5354414E44494E47+  "STANDING"
23F6  00                 "\0"
                         const [25]: "STANDING"
23F7  01                 const type 3
23F8  1574197E           const [26]: (2115597333)
23FC  01                 const type 3
23FD  5087981C           const [27]: (479758160)
2401  04                 const type 4
2402  15                 string size (21)
2403  436F6E6669726D52+  "ConfirmR"
240B  656465656D506172+  "edeemPar"
2413  7469616C00         "tial\0"
                         const [28]: "ConfirmRedeemPartial"
2418  01                 const type 3
2419  2A71F965           const [29]: (1710846250)
241D  04                 const type 4
241E  06                 string size (6)
241F  7461626C6500       "table\0"
                         const [30]: "table"
2425  01                 const type 3
2426  9D0C45E6           const [31]: (-431682403)
242A  04                 const type 4
242B  05                 string size (5)
242C  4E616D6500         "Name\0"
                         const [32]: "Name"
2431  01                 const type 3
2432  82CF66FA           const [33]: (-93925502)
2436  04                 const type 4
2437  04                 string size (4)
2438  52657000           "Rep\0"
                         const [34]: "Rep"
243C  01                 const type 3
243D  0791B063           const [35]: (1672515847)
2441  01                 const type 3
2442  B2CE2343           const [36]: (1126420146)
2446  04                 const type 4
2447  06                 string size (6)
2448  6F7468657200       "other\0"
                         const [37]: "other"
244E  01                 const type 3
244F  5720287C           const [38]: (2083004503)
2453  01                 const type 3
2454  3C2E251B           const [39]: (455421500)
2458  04                 const type 4
2459  0B                 string size (11)
245A  6D756C7469706C69+  "multipli"
2462  657200             "er\0"
                         const [40]: "multiplier"
2465  01                 const type 3
2466  1080C5A5           const [41]: (-1513783280)
246A  04                 const type 4
246B  01                 string size (0)
                         const [42]: ""
246D  04                 const type 4
246E  02                 string size (2)
246F  2000               " \0"
                         const [43]: " "
2471  04                 const type 4
2472  07                 string size (7)
2473  737472696E6700     "string\0"
                         const [44]: "string"
247A  01                 const type 3
247B  2A649C63           const [45]: (1671193642)
247F  01                 const type 3
2480  D2A3C75E           const [46]: (1590141906)
2484  04                 const type 4
2485  02                 string size (2)
2486  0D00               "\r\0"
                         const [47]: "\r"
2488  04                 const type 4
2489  2B                 string size (43)
248A  2F4C6F7475732F4C+  "/Lotus/L"
2492  616E67756167652F+  "anguage/"
249A  4D656E752F537461+  "Menu/Sta"
24A2  6E64696E67436861+  "ndingCha"
24AA  6E6765436F6E6669+  "ngeConfi"
24B2  726D00             "rm\0"
                         const [48]: "/Lotus/Language/Menu/StandingChangeConfirm"
24B5  04                 const type 4
24B6  08                 string size (8)
24B7  4348414E47455300   "CHANGES\0"
                         const [49]: "CHANGES"
24BF  04                 const type 4
24C0  12                 string size (18)
24C1  436F6E6669726D52+  "ConfirmR"
24C9  65646565656D416C+  "edeeemAl"
24D1  6C00               "l\0"
                         const [50]: "ConfirmRedeeemAll"
                         * functions:
24D3  02                 sizep (2)
                         
24D4                     ** function [0] definition (level 3)
                         ** start of function **
24D4  00                 string size (0)
                         source name: (none)
24D6  01                 line defined (237)
24D7  F2                 last line defined (242)
24D8  01                 nups (2)
24D9  02                 numparams (1)
24DA  01                 is_vararg (0)
24DB  00                 maxstacksize (5)
                         * code:
24DD  0F                 sizecode (15)
24DE  4E004000           [01] gettable   1   0   256  ; "Donated"
fail op	21
24E2  15408080           [02] concat     0   257 1  
24E6  1A800280           [03] jmp        11           ; to [15]
24EA  53000000           [04] getupval   1   0      
24EE  8E004000           [05] gettable   2   0   256  ; "Donated"
24F2  CE804000           [06] gettable   3   0   258  ; "StandingBonus"
24F6  84C00001           [07] mul        2   2   3  
24FA  43808000           [08] add        1   1   2  
fail op	8
24FE  48000000           [09] setupval   1   0      
2502  53008000           [10] getupval   1   1      
2506  64C0C000           [11] self       1   1   259  ; 304667022
250A  CE004100           [12] gettable   3   0   260  ; "ItemType"
250E  0E014000           [13] gettable   4   0   256  ; "Donated"
2512  62400002           [14] call       1   4   1  
2516  1E008000           [15] return     0   1      
                         * constants:
251A  05                 sizek (5)
251B  04                 const type 4
251C  08                 string size (8)
251D  446F6E6174656400   "Donated\0"
                         const [0]: "Donated"
2525  03                 const type 3
2526  00000000           const [1]: (0)
252A  04                 const type 4
252B  0E                 string size (14)
252C  5374616E64696E67+  "Standing"
2534  426F6E757300       "Bonus\0"
                         const [2]: "StandingBonus"
253A  01                 const type 3
253B  8ED92812           const [3]: (304667022)
253F  04                 const type 4
2540  09                 string size (9)
2541  4974656D54797065+  "ItemType"
2549  00                 "\0"
                         const [4]: "ItemType"
                         * functions:
254A  00                 sizep (0)
                         * lines:
254B  0F                 sizelineinfo (15)
                         [pc] (line)
254C  EE                 [01] (-18)
254D  00                 [02] (-18)
254E  00                 [03] (-18)
254F  00                 [04] (-17)
2550  EE                 [05] (-17)
2551  00                 [06] (-17)
2552  00                 [07] (-17)
2553  00                 [08] (-17)
2554  EE                 [09] (-17)
2555  00                 [10] (-16)
2556  00                 [11] (-16)
2557  00                 [12] (-16)
2558  EF                 [13] (-16)
2559  00                 [14] (-16)
255A  00                 [15] (-14)
                         * locals:
2588  00                 sizelocvars (0)
                         * upvalues:
2589  00                 sizeupvalues (0)
                         ** end of function **

                         
258A                     ** function [1] definition (level 3)
                         ** start of function **
258A  00                 string size (0)
                         source name: (none)
258C  02                 line defined (292)
258D  A6                 last line defined (294)
258E  02                 nups (0)
258F  00                 numparams (2)
2590  02                 is_vararg (0)
2591  00                 maxstacksize (4)
                         * code:
2593  08                 sizecode (8)
2594  8E004000           [1] gettable   2   0   256  ; "Rep"
2598  CE00C000           [2] gettable   3   1   256  ; "Rep"
fail op	21
259C  55808001           [3] concat     1   3   2  
25A0  1A000080           [4] jmp        1            ; to [6]
25A4  97400000           [5] loadbool   2   0   1    ; false, to [7]
25A8  97008000           [6] loadbool   2   1   0    ; true
25AC  9E000001           [7] return     2   2      
25B0  1E008000           [8] return     0   1      
                         * constants:
25B4  01                 sizek (1)
25B5  04                 const type 4
25B6  04                 string size (4)
25B7  52657000           "Rep\0"
                         const [0]: "Rep"
                         * functions:
25BB  00                 sizep (0)
                         * lines:
25BC  08                 sizelineinfo (8)
                         [pc] (line)
25BD  25                 [1] (37)
25BE  01                 [2] (37)
25BF  00                 [3] (37)
25C0  00                 [4] (37)
25C1  25                 [5] (37)
25C2  01                 [6] (37)
25C3  00                 [7] (37)
25C4  00                 [8] (38)
                         * locals:
25DD  00                 sizelocvars (0)
                         * upvalues:
25DE  00                 sizeupvalues (0)
                         ** end of function **

                         * lines:
25E0  01                 sizelineinfo (190)
                         [pc] (line)
25E1  E9                 [001] (-23)
25E2  00                 [002] (-23)
25E3  00                 [003] (-23)
25E4  00                 [004] (-23)
25E5  E9                 [005] (-22)
25E6  00                 [006] (-22)
25E7  00                 [007] (-22)
25E8  00                 [008] (-22)
25E9  E9                 [009] (-22)
25EA  00                 [010] (-21)
25EB  00                 [011] (-21)
25EC  00                 [012] (-20)
25ED  E9                 [013] (-20)
25EE  00                 [014] (-14)
25EF  00                 [015] (-14)
25F0  00                 [016] (-14)
25F1  EA                 [017] (-20)
25F2  00                 [018] (-12)
25F3  00                 [019] (-12)
25F4  00                 [020] (-12)
25F5  EA                 [021] (-12)
25F6  00                 [022] (-11)
25F7  00                 [023] (-11)
25F8  00                 [024] (-11)
25F9  EA                 [025] (-10)
25FA  00                 [026] (-10)
25FB  00                 [027] (-9)
25FC  00                 [028] (-9)
25FD  EA                 [029] (-9)
25FE  00                 [030] (-9)
25FF  00                 [031] (-9)
2600  00                 [032] (-9)
2601  EA                 [033] (-7)
2602  00                 [034] (-4)
2603  00                 [035] (-4)
2604  00                 [036] (-3)
2605  EB                 [037] (-3)
2606  00                 [038] (-1)
2607  00                 [039] (0)
2608  00                 [040] (0)
2609  EB                 [041] (0)
260A  00                 [042] (1)
260B  00                 [043] (1)
260C  00                 [044] (1)
260D  EC                 [045] (1)
260E  00                 [046] (1)
260F  00                 [047] (1)
2610  00                 [048] (1)
2611  EC                 [049] (1)
2612  00                 [050] (2)
2613  00                 [051] (2)
2614  00                 [052] (2)
2615  F2                 [053] (2)
2616  00                 [054] (3)
2617  00                 [055] (3)
2618  00                 [056] (3)
2619  F2                 [057] (3)
261A  00                 [058] (3)
261B  00                 [059] (4)
261C  00                 [060] (4)
261D  F2                 [061] (5)
261E  00                 [062] (5)
261F  00                 [063] (5)
2620  00                 [064] (6)
2621  EC                 [065] (6)
2622  00                 [066] (7)
2623  00                 [067] (8)
2624  00                 [068] (10)
2625  F4                 [069] (10)
2626  00                 [070] (10)
2627  00                 [071] (13)
2628  00                 [072] (13)
2629  F4                 [073] (13)
262A  00                 [074] (13)
262B  00                 [075] (15)
262C  00                 [076] (15)
262D  F4                 [077] (16)
262E  00                 [078] (16)
262F  00                 [079] (16)
2630  00                 [080] (18)
2631  F4                 [081] (18)
2632  00                 [082] (18)
2633  00                 [083] (18)
2634  00                 [084] (18)
2635  F5                 [085] (18)
2636  00                 [086] (18)
2637  00                 [087] (18)
2638  00                 [088] (18)
2639  F5                 [089] (18)
263A  00                 [090] (18)
263B  00                 [091] (18)
263C  00                 [092] (19)
263D  F5                 [093] (19)
263E  00                 [094] (19)
263F  00                 [095] (19)
2640  00                 [096] (19)
2641  F6                 [097] (20)
2642  00                 [098] (24)
2643  00                 [099] (25)
2644  00                 [100] (25)
2645  F6                 [101] (25)
2646  00                 [102] (25)
2647  00                 [103] (25)
2648  00                 [104] (25)
2649  F7                 [105] (27)
264A  00                 [106] (28)
264B  00                 [107] (28)
264C  00                 [108] (28)
264D  F7                 [109] (28)
264E  00                 [110] (28)
264F  00                 [111] (28)
2650  00                 [112] (28)
2651  F7                 [113] (28)
2652  00                 [114] (28)
2653  00                 [115] (28)
2654  00                 [116] (28)
2655  F7                 [117] (29)
2656  00                 [118] (29)
2657  00                 [119] (29)
2658  00                 [120] (29)
2659  F7                 [121] (29)
265A  00                 [122] (29)
265B  00                 [123] (30)
265C  00                 [124] (30)
265D  F7                 [125] (30)
265E  00                 [126] (30)
265F  00                 [127] (30)
2660  00                 [128] (31)
2661  F9                 [129] (31)
2662  00                 [130] (31)
2663  00                 [131] (31)
2664  00                 [132] (31)
2665  FC                 [133] (32)
2666  00                 [134] (32)
2667  00                 [135] (32)
2668  00                 [136] (32)
2669  FC                 [137] (32)
266A  00                 [138] (32)
266B  00                 [139] (32)
266C  00                 [140] (32)
266D  FD                 [141] (32)
266E  00                 [142] (32)
266F  00                 [143] (32)
2670  00                 [144] (29)
2671  FD                 [145] (33)
2672  00                 [146] (35)
2673  00                 [147] (35)
2674  00                 [148] (35)
2675  FF                 [149] (38)
2676  00                 [150] (35)
2677  00                 [151] (40)
2678  00                 [152] (41)
2679  00                 [153] (41)
267A  01                 [154] (41)
267B  00                 [155] (41)
267C  00                 [156] (42)
267D  00                 [157] (42)
267E  01                 [158] (42)
267F  00                 [159] (42)
2680  00                 [160] (42)
2681  00                 [161] (42)
2682  01                 [162] (42)
2683  00                 [163] (42)
2684  00                 [164] (42)
2685  01                 [165] (42)
2686  01                 [166] (42)
2687  00                 [167] (42)
2688  00                 [168] (42)
2689  01                 [169] (42)
268A  01                 [170] (42)
268B  00                 [171] (42)
268C  00                 [172] (42)
268D  01                 [173] (42)
268E  01                 [174] (42)
268F  00                 [175] (41)
2690  00                 [176] (42)
2691  01                 [177] (45)
2692  01                 [178] (45)
2693  00                 [179] (45)
2694  00                 [180] (45)
2695  01                 [181] (45)
2696  01                 [182] (45)
2697  00                 [183] (45)
2698  00                 [184] (45)
2699  01                 [185] (47)
269A  01                 [186] (47)
269B  00                 [187] (47)
269C  00                 [188] (47)
269D  01                 [189] (47)
269E  01                 [190] (48)
                         * locals:
28D9  00                 sizelocvars (0)
                         * upvalues:
28DA  00                 sizeupvalues (0)
                         ** end of function **

                         
28DB                     ** function [9] definition (level 2)
                         ** start of function **
28DB  00                 string size (0)
                         source name: (none)
28DD  02                 line defined (306)
28DE  B4                 last line defined (308)
28DF  02                 nups (1)
28E0  01                 numparams (0)
28E1  00                 is_vararg (0)
28E2  00                 maxstacksize (2)
                         * code:
28E4  03                 sizecode (3)
28E5  13000000           [1] getupval   0   0      
28E9  22408000           [2] call       0   1   1  
28ED  1E008000           [3] return     0   1      
                         * constants:
28F1  00                 sizek (0)
                         * functions:
28F2  00                 sizep (0)
                         * lines:
28F3  03                 sizelineinfo (3)
                         [pc] (line)
28F4  33                 [1] (51)
28F5  01                 [2] (51)
28F6  00                 [3] (52)
                         * locals:
2900  00                 sizelocvars (0)
                         * upvalues:
2901  00                 sizeupvalues (0)
                         ** end of function **

                         
2902                     ** function [10] definition (level 2)
                         ** start of function **
2902  00                 string size (0)
                         source name: (none)
2904  02                 line defined (310)
2905  BA                 last line defined (314)
2906  02                 nups (1)
2907  01                 numparams (1)
2908  01                 is_vararg (0)
2909  00                 maxstacksize (3)
                         * code:
290B  0B                 sizecode (11)
290C  5D000000           [01] getglobal  1   0        ; -174740002
2910  92000000           [02] move       2   0      
2914  62800001           [03] call       1   2   2  
2918  9D400000           [04] getglobal  2   1        ; Engine
291C  8E804001           [05] gettable   2   2   258  ; "CI_SELECT"
fail op	35
2920  23808000           [06] close      0  
2924  1A800080           [07] jmp        3            ; to [11]
2928  53000000           [08] getupval   1   0      
292C  97008000           [09] loadbool   2   1   0    ; true
2930  62400001           [10] call       1   2   1  
2934  1E008000           [11] return     0   1      
                         * constants:
2938  03                 sizek (3)
2939  01                 const type 3
293A  DEAD95F5           const [0]: (-174740002)
293E  04                 const type 4
293F  07                 string size (7)
2940  456E67696E6500     "Engine\0"
                         const [1]: "Engine"
2947  04                 const type 4
2948  0A                 string size (10)
2949  43495F53454C4543+  "CI_SELEC"
2951  5400               "T\0"
                         const [2]: "CI_SELECT"
                         * functions:
2953  00                 sizep (0)
                         * lines:
2954  0B                 sizelineinfo (11)
                         [pc] (line)
2955  37                 [01] (55)
2956  01                 [02] (55)
2957  00                 [03] (55)
2958  00                 [04] (55)
2959  37                 [05] (55)
295A  01                 [06] (55)
295B  00                 [07] (55)
295C  00                 [08] (56)
295D  37                 [09] (56)
295E  01                 [10] (56)
295F  00                 [11] (58)
                         * locals:
2981  00                 sizelocvars (0)
                         * upvalues:
2982  00                 sizeupvalues (0)
                         ** end of function **

                         
2983                     ** function [11] definition (level 2)
                         ** start of function **
2983  00                 string size (0)
                         source name: (none)
2985  02                 line defined (316)
2986  E0                 last line defined (352)
2987  02                 nups (5)
2988  05                 numparams (0)
2989  00                 is_vararg (0)
298A  00                 maxstacksize (23)
                         * code:
298C  60                 sizecode (96)
298D  13000000           [01] getupval   0   0      
2991  24004000           [02] self       0   0   256  ; 375279114
2995  22800001           [03] call       0   2   2  
2999  5D400000           [04] getglobal  1   1        ; 1672515847
299D  92000000           [05] move       2   0      
29A1  62000101           [06] call       1   2   4  
29A5  1A000C80           [07] jmp        49           ; to [57]
29A9  9D810000           [08] getglobal  6   2        ; 1074689893
29AD  CEC1C002           [09] gettable   7   5   259  ; "mItemType"
29B1  A2810001           [10] call       6   2   2  
29B5  98410000           [11] test       6       1    ; to [13] if false
29B9  1AC00A80           [12] jmp        44           ; to [57]
29BD  8EC1C002           [13] gettable   6   5   259  ; "mItemType"
29C1  A4014103           [14] self       6   6   260  ; -1957065004
29C5  13028000           [15] getupval   8   1      
29C9  A2818001           [16] call       6   3   2  
29CD  98010000           [17] test       6       0    ; to [19] if true
29D1  1A800080           [18] jmp        3            ; to [22]
29D5  8E41C102           [19] gettable   6   5   261  ; "mStanding"
fail op	8
29D9  88010001           [20] setupval   6   2      
29DD  1A800880           [21] jmp        35           ; to [57]
29E1  8E81C102           [22] gettable   6   5   262  ; "mTag"
29E5  DDC10100           [23] getglobal  7   7        ; EMPTY_SYMBOL
fail op	35
29E9  63C00103           [24] close      1  
29ED  1AC00080           [25] jmp        4            ; to [30]
29F1  8E81C102           [26] gettable   6   5   262  ; "mTag"
29F5  D3018001           [27] getupval   7   3      
fail op	35
29F9  23C00103           [28] close      0  
29FD  1A800680           [29] jmp        27           ; to [57]
2A01  9D010200           [30] getglobal  6   8        ; 2083004503
2A05  CEC1C002           [31] gettable   7   5   259  ; "mItemType"
2A09  A2810001           [32] call       6   2   2  
2A0D  CB010000           [33] newtable   7   0   0    ; array=0, hash=0
2A11  1D820200           [34] getglobal  8   10       ; mMovie
2A15  24C24204           [35] self       8   8   267  ; 98241492
2A19  9D020300           [36] getglobal  10  12       ; -1615931716
2A1D  E4424303           [37] self       11  6   269  ; 1634497718
2A21  E2020001           [38] call       11  2   0  
2A25  A2820000           [39] call       10  0   2  
2A29  D7020000           [40] loadbool   11  0   0    ; false
2A2D  22820002           [41] call       8   4   2  
2A31  CC018284           [42] settable   7   265 8    ; "Name"
2A35  24C24303           [43] self       8   6   271  ; -240553170
2A39  22820001           [44] call       8   2   2  
2A3D  CC010287           [45] settable   7   270 8    ; "Icon"
2A41  0EC2C002           [46] gettable   8   5   259  ; "mItemType"
2A45  CC010288           [47] settable   7   272 8    ; "ItemType"
2A49  CC81C488           [48] settable   7   273 274  ; "Count" 0
2A4D  CC81C489           [49] settable   7   275 274  ; "Donated" 0
2A51  0E42C102           [50] gettable   8   5   261  ; "mStanding"
2A55  CC01028A           [51] settable   7   276 8    ; "StandingBonus"
2A59  13020002           [52] getupval   8   4      
2A5D  24424504           [53] self       8   8   277  ; -1484936978
2A61  92028003           [54] move       10  7      
2A65  D7028000           [55] loadbool   11  1   0    ; true
2A69  22420002           [56] call       8   4   1  
2A6D  56800000           [57] tforloop   1       2    ; to [59] if exit
2A71  1A00F37F           [58] jmp        -51          ; to [8]
2A75  1D820500           [59] getglobal  8   22       ; gPlayerProfileMgr
2A79  24C24504           [60] self       8   8   279  ; 569342746
2A7D  99820400           [61] loadk      10  18       ; 0
2A81  22828001           [62] call       8   3   2  
2A85  64024604           [63] self       9   8   280  ; 1699680402
2A89  62820001           [64] call       9   2   2  
2A8D  A442C604           [65] self       10  9   281  ; 1865287165
2A91  A2820001           [66] call       10  2   2  
2A95  A4824605           [67] self       10  10  282  ; 858389503
2A99  A2820001           [68] call       10  2   2  
2A9D  DDC20600           [69] getglobal  11  27       ; 248503575
2AA1  12030005           [70] move       12  10     
2AA5  E2020101           [71] call       11  2   4  
2AA9  1A400480           [72] jmp        18           ; to [91]
2AAD  1D440000           [73] getglobal  16  1        ; 1672515847
2AB1  53040002           [74] getupval   17  4      
2AB5  4E04C708           [75] gettable   17  17  284  ; "mElements"
2AB9  22040101           [76] call       16  2   4  
2ABD  1A800280           [77] jmp        11           ; to [89]
2AC1  4EC5C007           [78] gettable   21  15  259  ; "mItemType"
2AC5  8E05440A           [79] gettable   22  20  272  ; "ItemType"
fail op	35
2AC9  2380850A           [80] close      0  
2ACD  1A800180           [81] jmp        7            ; to [89]
2AD1  4E45C707           [82] gettable   21  15  285  ; "mItemCount"
fail op	21
2AD5  15400589           [83] concat     0   274 21 
2AD9  1AC00080           [84] jmp        4            ; to [89]
2ADD  4E45440A           [85] gettable   21  20  273  ; "Count"
2AE1  8E45C707           [86] gettable   22  15  285  ; "mItemCount"
2AE5  4385850A           [87] add        21  21  22 
2AE9  0C458588           [88] settable   20  273 21   ; "Count"
2AED  16840000           [89] tforloop   16      2    ; to [91] if exit
2AF1  1A80FC7F           [90] jmp        -13          ; to [78]
2AF5  D6820000           [91] tforloop   11      2    ; to [93] if exit
2AF9  1AC0FA7F           [92] jmp        -20          ; to [73]
2AFD  53050002           [93] getupval   21  4      
2B01  6485C70A           [94] self       21  21  286  ; 1685109492
2B05  62450001           [95] call       21  2   1  
2B09  1E008000           [96] return     0   1      
                         * constants:
2B0D  1F                 sizek (31)
2B0E  01                 const type 3
2B0F  0A4E5E16           const [0]: (375279114)
2B13  01                 const type 3
2B14  0791B063           const [1]: (1672515847)
2B18  01                 const type 3
2B19  65770E40           const [2]: (1074689893)
2B1D  04                 const type 4
2B1E  0A                 string size (10)
2B1F  6D4974656D547970+  "mItemTyp"
2B27  6500               "e\0"
                         const [3]: "mItemType"
2B29  01                 const type 3
2B2A  D48E598B           const [4]: (-1957065004)
2B2E  04                 const type 4
2B2F  0A                 string size (10)
2B30  6D5374616E64696E+  "mStandin"
2B38  6700               "g\0"
                         const [5]: "mStanding"
2B3A  04                 const type 4
2B3B  05                 string size (5)
2B3C  6D54616700         "mTag\0"
                         const [6]: "mTag"
2B41  04                 const type 4
2B42  0D                 string size (13)
2B43  454D5054595F5359+  "EMPTY_SY"
2B4B  4D424F4C00         "MBOL\0"
                         const [7]: "EMPTY_SYMBOL"
2B50  01                 const type 3
2B51  5720287C           const [8]: (2083004503)
2B55  04                 const type 4
2B56  05                 string size (5)
2B57  4E616D6500         "Name\0"
                         const [9]: "Name"
2B5C  04                 const type 4
2B5D  07                 string size (7)
2B5E  6D4D6F76696500     "mMovie\0"
                         const [10]: "mMovie"
2B65  01                 const type 3
2B66  D40BDB05           const [11]: (98241492)
2B6A  01                 const type 3
2B6B  BCD6AE9F           const [12]: (-1615931716)
2B6F  01                 const type 3
2B70  B6746C61           const [13]: (1634497718)
2B74  04                 const type 4
2B75  05                 string size (5)
2B76  49636F6E00         "Icon\0"
                         const [14]: "Icon"
2B7B  01                 const type 3
2B7C  2E73A9F1           const [15]: (-240553170)
2B80  04                 const type 4
2B81  09                 string size (9)
2B82  4974656D54797065+  "ItemType"
2B8A  00                 "\0"
                         const [16]: "ItemType"
2B8B  04                 const type 4
2B8C  06                 string size (6)
2B8D  436F756E7400       "Count\0"
                         const [17]: "Count"
2B93  03                 const type 3
2B94  00000000           const [18]: (0)
2B98  04                 const type 4
2B99  08                 string size (8)
2B9A  446F6E6174656400   "Donated\0"
                         const [19]: "Donated"
2BA2  04                 const type 4
2BA3  0E                 string size (14)
2BA4  5374616E64696E67+  "Standing"
2BAC  426F6E757300       "Bonus\0"
                         const [20]: "StandingBonus"
2BB2  01                 const type 3
2BB3  EEA87DA7           const [21]: (-1484936978)
2BB7  04                 const type 4
2BB8  12                 string size (18)
2BB9  67506C6179657250+  "gPlayerP"
2BC1  726F66696C654D67+  "rofileMg"
2BC9  7200               "r\0"
                         const [22]: "gPlayerProfileMgr"
2BCB  01                 const type 3
2BCC  1A7BEF21           const [23]: (569342746)
2BD0  01                 const type 3
2BD1  92104F65           const [24]: (1699680402)
2BD5  01                 const type 3
2BD6  FD052E6F           const [25]: (1865287165)
2BDA  01                 const type 3
2BDB  FFFB2933           const [26]: (858389503)
2BDF  01                 const type 3
2BE0  17DDCF0E           const [27]: (248503575)
2BE4  04                 const type 4
2BE5  0A                 string size (10)
2BE6  6D456C656D656E74+  "mElement"
2BEE  7300               "s\0"
                         const [28]: "mElements"
2BF0  04                 const type 4
2BF1  0B                 string size (11)
2BF2  6D4974656D436F75+  "mItemCou"
2BFA  6E7400             "nt\0"
                         const [29]: "mItemCount"
2BFD  01                 const type 3
2BFE  F4BA7064           const [30]: (1685109492)
                         * functions:
2C02  00                 sizep (0)
                         * lines:
2C03  60                 sizelineinfo (96)
                         [pc] (line)
2C04  3D                 [01] (61)
2C05  01                 [02] (61)
2C06  00                 [03] (61)
2C07  00                 [04] (62)
2C08  3D                 [05] (62)
2C09  01                 [06] (62)
2C0A  00                 [07] (62)
2C0B  00                 [08] (63)
2C0C  3D                 [09] (63)
2C0D  01                 [10] (63)
2C0E  00                 [11] (63)
2C0F  00                 [12] (63)
2C10  3E                 [13] (64)
2C11  01                 [14] (64)
2C12  00                 [15] (64)
2C13  00                 [16] (64)
2C14  3E                 [17] (64)
2C15  01                 [18] (64)
2C16  00                 [19] (65)
2C17  00                 [20] (65)
2C18  3E                 [21] (65)
2C19  01                 [22] (67)
2C1A  00                 [23] (67)
2C1B  00                 [24] (67)
2C1C  3E                 [25] (67)
2C1D  01                 [26] (67)
2C1E  00                 [27] (67)
2C1F  00                 [28] (67)
2C20  3F                 [29] (67)
2C21  01                 [30] (68)
2C22  00                 [31] (68)
2C23  00                 [32] (68)
2C24  3F                 [33] (69)
2C25  01                 [34] (70)
2C26  00                 [35] (70)
2C27  00                 [36] (70)
2C28  3F                 [37] (70)
2C29  01                 [38] (70)
2C2A  00                 [39] (70)
2C2B  00                 [40] (70)
2C2C  3F                 [41] (70)
2C2D  01                 [42] (70)
2C2E  00                 [43] (71)
2C2F  00                 [44] (71)
2C30  3F                 [45] (71)
2C31  01                 [46] (72)
2C32  00                 [47] (72)
2C33  00                 [48] (73)
2C34  40                 [49] (74)
2C35  01                 [50] (75)
2C36  00                 [51] (75)
2C37  00                 [52] (77)
2C38  40                 [53] (77)
2C39  01                 [54] (77)
2C3A  00                 [55] (77)
2C3B  00                 [56] (77)
2C3C  40                 [57] (62)
2C3D  01                 [58] (80)
2C3E  00                 [59] (83)
2C3F  00                 [60] (83)
2C40  40                 [61] (83)
2C41  01                 [62] (83)
2C42  00                 [63] (84)
2C43  00                 [64] (84)
2C44  40                 [65] (86)
2C45  01                 [66] (86)
2C46  00                 [67] (86)
2C47  00                 [68] (86)
2C48  40                 [69] (87)
2C49  01                 [70] (87)
2C4A  00                 [71] (87)
2C4B  00                 [72] (87)
2C4C  41                 [73] (88)
2C4D  01                 [74] (88)
2C4E  00                 [75] (88)
2C4F  00                 [76] (88)
2C50  41                 [77] (88)
2C51  01                 [78] (89)
2C52  00                 [79] (89)
2C53  00                 [80] (89)
2C54  41                 [81] (89)
2C55  01                 [82] (89)
2C56  00                 [83] (89)
2C57  00                 [84] (89)
2C58  43                 [85] (90)
2C59  01                 [86] (90)
2C5A  00                 [87] (90)
2C5B  00                 [88] (90)
2C5C  43                 [89] (88)
2C5D  01                 [90] (91)
2C5E  00                 [91] (87)
2C5F  00                 [92] (92)
2C60  43                 [93] (95)
2C61  01                 [94] (95)
2C62  00                 [95] (95)
2C63  00                 [96] (96)
                         * locals:
2D84  00                 sizelocvars (0)
                         * upvalues:
2D85  00                 sizeupvalues (0)
                         ** end of function **

                         
2D86                     ** function [12] definition (level 2)
                         ** start of function **
2D86  00                 string size (0)
                         source name: (none)
2D88  02                 line defined (354)
2D89  B4                 last line defined (436)
2D8A  03                 nups (16)
2D8B  10                 numparams (4)
2D8C  04                 is_vararg (0)
2D8D  00                 maxstacksize (23)
                         * code:
2D90  02                 sizecode (281)
fail op	8
2D91  08000000           [001] setupval   0   0      
2D95  13010000           [002] getupval   4   0      
2D99  24014002           [003] self       4   4   256  ; -1467472139
2D9D  22810001           [004] call       4   2   2  
fail op	8
2DA1  08018000           [005] setupval   4   1      
fail op	8
2DA5  48000001           [006] setupval   1   2      
fail op	8
2DA9  88008001           [007] setupval   2   3      
fail op	8
2DAD  C8000002           [008] setupval   3   4      
2DB1  13010002           [009] getupval   4   4      
fail op	35
2DB5  23404002           [010] close      0  
2DB9  1A400080           [011] jmp        2            ; to [14]
2DBD  1D810000           [012] getglobal  4   2        ; EMPTY_SYMBOL
fail op	8
2DC1  08010002           [013] setupval   4   4      
2DC5  13018002           [014] getupval   4   5      
2DC9  22418000           [015] call       4   1   1  
2DCD  13010000           [016] getupval   4   0      
2DD1  53010003           [017] getupval   5   6      
fail op	35
2DD5  63400102           [018] close      1  
2DD9  1AC00080           [019] jmp        4            ; to [24]
2DDD  13010000           [020] getupval   4   0      
2DE1  53018003           [021] getupval   5   7      
fail op	35
2DE5  23400102           [022] close      0  
2DE9  1A000680           [023] jmp        25           ; to [49]
2DED  1DC10000           [024] getglobal  4   3        ; openSounds
2DF1  53010004           [025] getupval   5   8      
2DF5  0E410102           [026] gettable   4   4   5  
2DF9  5D010100           [027] getglobal  5   4        ; 1074689893
2DFD  92010002           [028] move       6   4      
2E01  62810001           [029] call       5   2   2  
2E05  58410000           [030] test       5       1    ; to [32] if false
2E09  1AC00080           [031] jmp        4            ; to [36]
2E0D  53018004           [032] getupval   5   9      
2E11  4E41C102           [033] gettable   5   5   261  ; 630793108
2E15  92010002           [034] move       6   4      
2E19  62410001           [035] call       5   2   1  
2E1D  5D810100           [036] getglobal  5   6        ; loopingSounds
2E21  93010004           [037] getupval   6   8      
2E25  4E818102           [038] gettable   5   5   6  
2E29  9D010100           [039] getglobal  6   4        ; 1074689893
2E2D  D2018002           [040] move       7   5      
2E31  A2810001           [041] call       6   2   2  
2E35  98410000           [042] test       6       1    ; to [44] if false
2E39  1A000180           [043] jmp        5            ; to [49]
2E3D  93018004           [044] getupval   6   9      
2E41  8E414103           [045] gettable   6   6   261  ; 630793108
2E45  D2018002           [046] move       7   5      
2E49  A2810001           [047] call       6   2   2  
fail op	8
2E4D  88010005           [048] setupval   6   10     
2E51  9DC10100           [049] getglobal  6   7        ; string
2E55  8E014203           [050] gettable   6   6   264  ; 1671193642
2E59  DD410200           [051] getglobal  7   9        ; mMovie
2E5D  E481C203           [052] self       7   7   266  ; 98241492
2E61  53020000           [053] getupval   9   0      
2E65  64C2C204           [054] self       9   9   267  ; -93925502
2E69  62820001           [055] call       9   2   2  
2E6D  6402C304           [056] self       9   9   268  ; 1590141906
2E71  62820001           [057] call       9   2   2  
2E75  97020000           [058] loadbool   10  0   0    ; false
2E79  E2010002           [059] call       7   4   0  
2E7D  A2810000           [060] call       6   0   2  
2E81  DD410200           [061] getglobal  7   9        ; mMovie
2E85  E441C303           [062] self       7   7   269  ; 471456102
2E89  59820300           [063] loadk      9   14       ; "Syndicate.Name"
2E8D  99C20300           [064] loadk      10  15       ; "verticalAlignment"
2E91  D9020400           [065] loadk      11  16       ; "center"
2E95  E2418002           [066] call       7   5   1  
2E99  DD410200           [067] getglobal  7   9        ; mMovie
2E9D  E441C403           [068] self       7   7   273  ; -693657623
2EA1  59820300           [069] loadk      9   14       ; "Syndicate.Name"
2EA5  99820400           [070] loadk      10  18       ; "text"
2EA9  D2020003           [071] move       11  6      
2EAD  E2418002           [072] call       7   5   1  
2EB1  DD410200           [073] getglobal  7   9        ; mMovie
2EB5  E4C1C403           [074] self       7   7   275  ; 386043535
2EB9  59020500           [075] loadk      9   20       ; "Syndicate.Description.text"
2EBD  93020000           [076] getupval   10  0      
2EC1  A4424505           [077] self       10  10  277  ; 61284127
2EC5  A2820001           [078] call       10  2   2  
2EC9  A4024305           [079] self       10  10  268  ; 1590141906
2ECD  A2020001           [080] call       10  2   0  
2ED1  E2410000           [081] call       7   0   1  
2ED5  DD410200           [082] getglobal  7   9        ; mMovie
2ED9  E441C403           [083] self       7   7   273  ; -693657623
2EDD  59820500           [084] loadk      9   22       ; "Title"
2EE1  99820400           [085] loadk      10  18       ; "text"
2EE5  D2020003           [086] move       11  6      
2EE9  E2418002           [087] call       7   5   1  
2EED  DD410200           [088] getglobal  7   9        ; mMovie
2EF1  E441C403           [089] self       7   7   273  ; -693657623
2EF5  59C20500           [090] loadk      9   23       ; "SubTitle"
2EF9  99820400           [091] loadk      10  18       ; "text"
2EFD  D9020600           [092] loadk      11  24       ; ""
2F01  E2418002           [093] call       7   5   1  
2F05  D3010000           [094] getupval   7   0      
2F09  E441C603           [095] self       7   7   281  ; -240553170
2F0D  E2810001           [096] call       7   2   2  
2F11  1D420200           [097] getglobal  8   9        ; mMovie
2F15  24824604           [098] self       8   8   282  ; 643307062
2F19  99C20600           [099] loadk      10  27       ; "Syndicate.LargeLogo"
2F1D  D2028003           [100] move       11  7      
2F21  22420002           [101] call       8   4   1  
2F25  1D420200           [102] getglobal  8   9        ; mMovie
2F29  24824604           [103] self       8   8   282  ; 643307062
2F2D  99020700           [104] loadk      10  28       ; "Syndicate.MediumLogo"
2F31  D2028003           [105] move       11  7      
2F35  22420002           [106] call       8   4   1  
2F39  1D420200           [107] getglobal  8   9        ; mMovie
2F3D  24824604           [108] self       8   8   282  ; 643307062
2F41  99420700           [109] loadk      10  29       ; "Syndicate.SmallLogo"
2F45  D2028003           [110] move       11  7      
2F49  22420002           [111] call       8   4   1  
2F4D  13020000           [112] getupval   8   0      
2F51  24824704           [113] self       8   8   286  ; 1672886084
2F55  22820001           [114] call       8   2   2  
2F59  24C24704           [115] self       8   8   287  ; 1201562292
2F5D  22820001           [116] call       8   2   2  
2F61  53020000           [117] getupval   9   0      
2F65  6402C804           [118] self       9   9   288  ; 86385465
2F69  62820001           [119] call       9   2   2  
2F6D  64C2C704           [120] self       9   9   287  ; 1201562292
2F71  62820001           [121] call       9   2   2  
2F75  93020000           [122] getupval   10  0      
2F79  A4824705           [123] self       10  10  286  ; 1672886084
2F7D  A2820001           [124] call       10  2   2  
2F81  8E424805           [125] gettable   10  10  289  ; "alpha"
2F85  9C824805           [126] div        10  10  290  ; 0
2F89  84C24805           [127] mul        10  10  291  ; 0
2F8D  D3020000           [128] getupval   11  0      
2F91  E402C805           [129] self       11  11  288  ; 86385465
2F95  E2820001           [130] call       11  2   2  
2F99  CE42C805           [131] gettable   11  11  289  ; "alpha"
2F9D  DC82C805           [132] div        11  11  290  ; 0
2FA1  C4C2C805           [133] mul        11  11  291  ; 0
2FA5  1D430200           [134] getglobal  12  9        ; mMovie
2FA9  24434306           [135] self       12  12  269  ; 471456102
2FAD  99430700           [136] loadk      14  29       ; "Syndicate.SmallLogo"
2FB1  D9030900           [137] loadk      15  36       ; "_color"
2FB5  12048004           [138] move       16  9      
2FB9  22438002           [139] call       12  5   1  
2FBD  1D430200           [140] getglobal  12  9        ; mMovie
2FC1  24434306           [141] self       12  12  269  ; 471456102
2FC5  99430700           [142] loadk      14  29       ; "Syndicate.SmallLogo"
2FC9  D9430900           [143] loadk      15  37       ; "_alpha"
2FCD  12048005           [144] move       16  11     
2FD1  22438002           [145] call       12  5   1  
2FD5  1D430200           [146] getglobal  12  9        ; mMovie
2FD9  24434306           [147] self       12  12  269  ; 471456102
2FDD  99030700           [148] loadk      14  28       ; "Syndicate.MediumLogo"
2FE1  D9430900           [149] loadk      15  37       ; "_alpha"
2FE5  19840900           [150] loadk      16  38       ; 0
2FE9  22438002           [151] call       12  5   1  
2FED  1D430200           [152] getglobal  12  9        ; mMovie
2FF1  24434306           [153] self       12  12  269  ; 471456102
2FF5  99C30600           [154] loadk      14  27       ; "Syndicate.LargeLogo"
2FF9  D9430900           [155] loadk      15  37       ; "_alpha"
2FFD  19840900           [156] loadk      16  38       ; 0
3001  22438002           [157] call       12  5   1  
3005  1D430200           [158] getglobal  12  9        ; mMovie
3009  24434306           [159] self       12  12  269  ; 471456102
300D  99C30900           [160] loadk      14  39       ; "Syndicate.Bg"
3011  D9030900           [161] loadk      15  36       ; "_color"
3015  12040004           [162] move       16  8      
3019  22438002           [163] call       12  5   1  
301D  1D430200           [164] getglobal  12  9        ; mMovie
3021  24434306           [165] self       12  12  269  ; 471456102
3025  99C30900           [166] loadk      14  39       ; "Syndicate.Bg"
3029  D9430900           [167] loadk      15  37       ; "_alpha"
302D  12040005           [168] move       16  10     
3031  22438002           [169] call       12  5   1  
3035  13038005           [170] getupval   12  11     
3039  22438000           [171] call       12  1   1  
303D  1D030A00           [172] getglobal  12  40       ; 1390508688
3041  5D430200           [173] getglobal  13  9        ; mMovie
3045  99430A00           [174] loadk      14  41       ; "Syndicate.Panel.Shadow"
3049  DD830A00           [175] getglobal  15  42       ; UISys
304D  CEC3CA07           [176] gettable   15  15  299  ; "FlashInstance_SMOOTH_STEP"
3051  0B048000           [177] newtable   16  1   0    ; array=1, hash=0
3055  59040B00           [178] loadk      17  44       ; "_z"
3059  1B448000           [179] setlist    16  1   1    ; index 1 to 1
305D  4B048000           [180] newtable   17  1   0    ; array=1, hash=0
3061  99440B00           [181] loadk      18  45       ; 0
3065  5B448000           [182] setlist    17  1   1    ; index 1 to 1
3069  99840B00           [183] loadk      18  46       ; 0
306D  D9C40B00           [184] loadk      19  47       ; 51
3071  22430004           [185] call       12  8   1  
3075  1D030A00           [186] getglobal  12  40       ; 1390508688
3079  5D430200           [187] getglobal  13  9        ; mMovie
307D  99030C00           [188] loadk      14  48       ; "Syndicate.Panel.BackShadow"
3081  DD830A00           [189] getglobal  15  42       ; UISys
3085  CEC3CA07           [190] gettable   15  15  299  ; "FlashInstance_SMOOTH_STEP"
3089  0B048000           [191] newtable   16  1   0    ; array=1, hash=0
308D  59040B00           [192] loadk      17  44       ; "_z"
3091  1B448000           [193] setlist    16  1   1    ; index 1 to 1
3095  4B048000           [194] newtable   17  1   0    ; array=1, hash=0
3099  99440C00           [195] loadk      18  49       ; 0
309D  5B448000           [196] setlist    17  1   1    ; index 1 to 1
30A1  99C40B00           [197] loadk      18  47       ; 51
30A5  D9840B00           [198] loadk      19  46       ; 0
30A9  25050000           [199] closure    20  0      
30AD  22438004           [200] call       12  9   1  
30B1  1D030A00           [201] getglobal  12  40       ; 1390508688
30B5  5D430200           [202] getglobal  13  9        ; mMovie
30B9  99830C00           [203] loadk      14  50       ; "Syndicate"
30BD  DD830A00           [204] getglobal  15  42       ; UISys
30C1  CEC3CA07           [205] gettable   15  15  299  ; "FlashInstance_SMOOTH_STEP"
30C5  0B048000           [206] newtable   16  1   0    ; array=1, hash=0
30C9  59440900           [207] loadk      17  37       ; "_alpha"
30CD  1B448000           [208] setlist    16  1   1    ; index 1 to 1
30D1  4B048000           [209] newtable   17  1   0    ; array=1, hash=0
30D5  99C40800           [210] loadk      18  35       ; 0
30D9  5B448000           [211] setlist    17  1   1    ; index 1 to 1
30DD  99840B00           [212] loadk      18  46       ; 0
30E1  22438003           [213] call       12  7   1  
30E5  1D030A00           [214] getglobal  12  40       ; 1390508688
30E9  5D430200           [215] getglobal  13  9        ; mMovie
30ED  99C30C00           [216] loadk      14  51       ; "_root"
30F1  DD830A00           [217] getglobal  15  42       ; UISys
30F5  CE03CD07           [218] gettable   15  15  308  ; "FlashInstance_LINEAR"
30F9  0B048000           [219] newtable   16  1   0    ; array=1, hash=0
30FD  59440900           [220] loadk      17  37       ; "_alpha"
3101  1B448000           [221] setlist    16  1   1    ; index 1 to 1
3105  4B048000           [222] newtable   17  1   0    ; array=1, hash=0
3109  99C40800           [223] loadk      18  35       ; 0
310D  5B448000           [224] setlist    17  1   1    ; index 1 to 1
3111  99440D00           [225] loadk      18  53       ; 0
3115  D9840D00           [226] loadk      19  54       ; 0
3119  22430004           [227] call       12  8   1  
311D  17038000           [228] loadbool   12  1   0    ; true
fail op	8
3121  08030006           [229] setupval   12  12     
3125  1D030100           [230] getglobal  12  4        ; 1074689893
3129  53038006           [231] getupval   13  13     
312D  22830001           [232] call       12  2   2  
3131  18430000           [233] test       12      1    ; to [235] if false
3135  1A400B80           [234] jmp        46           ; to [281]
3139  1D030100           [235] getglobal  12  4        ; 1074689893
313D  53030001           [236] getupval   13  2      
3141  22830001           [237] call       12  2   2  
3145  18430000           [238] test       12      1    ; to [240] if false
3149  1A000A80           [239] jmp        41           ; to [281]
314D  1DC30D00           [240] getglobal  12  55       ; gPlayerProfileMgr
3151  24034E06           [241] self       12  12  312  ; 569342746
3155  99830D00           [242] loadk      14  54       ; 0
3159  22838001           [243] call       12  3   2  
315D  64434E06           [244] self       13  12  313  ; 1699680402
3161  62830001           [245] call       13  2   2  
3165  A483CE06           [246] self       14  13  314  ; 1865287165
3169  A2830001           [247] call       14  2   2  
316D  A4C34E07           [248] self       14  14  315  ; 858389503
3171  A2830001           [249] call       14  2   2  
3175  DD030F00           [250] getglobal  15  60       ; 248503575
3179  12040007           [251] move       16  14     
317D  E2030101           [252] call       15  2   4  
3181  1A000680           [253] jmp        25           ; to [279]
3185  0E45CF09           [254] gettable   20  19  317  ; "mItemType"
3189  24854F0A           [255] self       20  20  318  ; -1957065004
318D  93058006           [256] getupval   22  13     
3191  22858001           [257] call       20  3   2  
3195  18050000           [258] test       20      0    ; to [260] if true
3199  1A800480           [259] jmp        19           ; to [279]
319D  0EC5CF09           [260] gettable   20  19  319  ; "mItemCount"
fail op	21
31A1  1500059B           [261] concat     0   310 20 
31A5  1AC00380           [262] jmp        16           ; to [279]
31A9  13058004           [263] getupval   20  9      
31AD  0E45410A           [264] gettable   20  20  261  ; 630793108
31B1  53050001           [265] getupval   21  2      
31B5  22850001           [266] call       20  2   2  
fail op	8
31B9  08050007           [267] setupval   20  14     
31BD  1D050100           [268] getglobal  20  4        ; 1074689893
31C1  53050007           [269] getupval   21  14     
31C5  22850001           [270] call       20  2   2  
31C9  18450000           [271] test       20      1    ; to [273] if false
31CD  1A400180           [272] jmp        6            ; to [279]
31D1  1D450200           [273] getglobal  20  9        ; mMovie
31D5  2405500A           [274] self       20  20  320  ; 1649906088
31D9  97050000           [275] loadbool   22  0   0    ; false
31DD  22458001           [276] call       20  3   1  
31E1  17058000           [277] loadbool   20  1   0    ; true
fail op	8
31E5  08058007           [278] setupval   20  15     
31E9  D6830000           [279] tforloop   15      2    ; to [281] if exit
31ED  1A00F97F           [280] jmp        -27          ; to [254]
31F1  1E008000           [281] return     0   1      
                         * constants:
31F5  41                 sizek (65)
31F6  01                 const type 3
31F7  F52688A8           const [0]: (-1467472139)
31FB  00                 const type 0
                         const [1]: nil
31FC  04                 const type 4
31FD  0D                 string size (13)
31FE  454D5054595F5359+  "EMPTY_SY"
3206  4D424F4C00         "MBOL\0"
                         const [2]: "EMPTY_SYMBOL"
320B  04                 const type 4
320C  0B                 string size (11)
320D  6F70656E536F756E+  "openSoun"
3215  647300             "ds\0"
                         const [3]: "openSounds"
3218  01                 const type 3
3219  65770E40           const [4]: (1074689893)
321D  01                 const type 3
321E  94239925           const [5]: (630793108)
3222  04                 const type 4
3223  0E                 string size (14)
3224  6C6F6F70696E6753+  "loopingS"
322C  6F756E647300       "ounds\0"
                         const [6]: "loopingSounds"
3232  04                 const type 4
3233  07                 string size (7)
3234  737472696E6700     "string\0"
                         const [7]: "string"
323B  01                 const type 3
323C  2A649C63           const [8]: (1671193642)
3240  04                 const type 4
3241  07                 string size (7)
3242  6D4D6F76696500     "mMovie\0"
                         const [9]: "mMovie"
3249  01                 const type 3
324A  D40BDB05           const [10]: (98241492)
324E  01                 const type 3
324F  82CF66FA           const [11]: (-93925502)
3253  01                 const type 3
3254  D2A3C75E           const [12]: (1590141906)
3258  01                 const type 3
3259  66D9191C           const [13]: (471456102)
325D  04                 const type 4
325E  0F                 string size (15)
325F  53796E6469636174+  "Syndicat"
3267  652E4E616D6500     "e.Name\0"
                         const [14]: "Syndicate.Name"
326E  04                 const type 4
326F  12                 string size (18)
3270  766572746963616C+  "vertical"
3278  416C69676E6D656E+  "Alignmen"
3280  7400               "t\0"
                         const [15]: "verticalAlignment"
3282  04                 const type 4
3283  07                 string size (7)
3284  63656E74657200     "center\0"
                         const [16]: "center"
328B  01                 const type 3
328C  E99FA7D6           const [17]: (-693657623)
3290  04                 const type 4
3291  05                 string size (5)
3292  7465787400         "text\0"
                         const [18]: "text"
3297  01                 const type 3
3298  8F8E0217           const [19]: (386043535)
329C  04                 const type 4
329D  1B                 string size (27)
329E  53796E6469636174+  "Syndicat"
32A6  652E446573637269+  "e.Descri"
32AE  7074696F6E2E7465+  "ption.te"
32B6  787400             "xt\0"
                         const [20]: "Syndicate.Description.text"
32B9  01                 const type 3
32BA  1F1FA703           const [21]: (61284127)
32BE  04                 const type 4
32BF  06                 string size (6)
32C0  5469746C6500       "Title\0"
                         const [22]: "Title"
32C6  04                 const type 4
32C7  09                 string size (9)
32C8  5375625469746C65+  "SubTitle"
32D0  00                 "\0"
                         const [23]: "SubTitle"
32D1  04                 const type 4
32D2  01                 string size (0)
                         const [24]: ""
32D4  01                 const type 3
32D5  2E73A9F1           const [25]: (-240553170)
32D9  01                 const type 3
32DA  36165826           const [26]: (643307062)
32DE  04                 const type 4
32DF  14                 string size (20)
32E0  53796E6469636174+  "Syndicat"
32E8  652E4C617267654C+  "e.LargeL"
32F0  6F676F00           "ogo\0"
                         const [27]: "Syndicate.LargeLogo"
32F4  04                 const type 4
32F5  15                 string size (21)
32F6  53796E6469636174+  "Syndicat"
32FE  652E4D656469756D+  "e.Medium"
3306  4C6F676F00         "Logo\0"
                         const [28]: "Syndicate.MediumLogo"
330B  04                 const type 4
330C  14                 string size (20)
330D  53796E6469636174+  "Syndicat"
3315  652E536D616C6C4C+  "e.SmallL"
331D  6F676F00           "ogo\0"
                         const [29]: "Syndicate.SmallLogo"
3321  01                 const type 3
3322  4437B663           const [30]: (1672886084)
3326  01                 const type 3
3327  B4629E47           const [31]: (1201562292)
332B  01                 const type 3
332C  39232605           const [32]: (86385465)
3330  04                 const type 4
3331  06                 string size (6)
3332  616C70686100       "alpha\0"
                         const [33]: "alpha"
3338  03                 const type 3
3339  00007F43           const [34]: (0)
333D  03                 const type 3
333E  0000C842           const [35]: (0)
3342  04                 const type 4
3343  07                 string size (7)
3344  5F636F6C6F7200     "_color\0"
                         const [36]: "_color"
334B  04                 const type 4
334C  07                 string size (7)
334D  5F616C70686100     "_alpha\0"
                         const [37]: "_alpha"
3354  03                 const type 3
3355  00004040           const [38]: (0)
3359  04                 const type 4
335A  0D                 string size (13)
335B  53796E6469636174+  "Syndicat"
3363  652E426700         "e.Bg\0"
                         const [39]: "Syndicate.Bg"
3368  01                 const type 3
3369  907AE152           const [40]: (1390508688)
336D  04                 const type 4
336E  17                 string size (23)
336F  53796E6469636174+  "Syndicat"
3377  652E50616E656C2E+  "e.Panel."
337F  536861646F7700     "Shadow\0"
                         const [41]: "Syndicate.Panel.Shadow"
3386  04                 const type 4
3387  06                 string size (6)
3388  554953797300       "UISys\0"
                         const [42]: "UISys"
338E  04                 const type 4
338F  1A                 string size (26)
3390  466C617368496E73+  "FlashIns"
3398  74616E63655F534D+  "tance_SM"
33A0  4F4F54485F535445+  "OOTH_STE"
33A8  5000               "P\0"
                         const [43]: "FlashInstance_SMOOTH_STEP"
33AA  04                 const type 4
33AB  03                 string size (3)
33AC  5F7A00             "_z\0"
                         const [44]: "_z"
33AF  03                 const type 3
33B0  00004843           const [45]: (0)
33B4  03                 const type 3
33B5  0000803E           const [46]: (0)
33B9  03                 const type 3
33BA  3333B33E           const [47]: (51)
33BE  04                 const type 4
33BF  1B                 string size (27)
33C0  53796E6469636174+  "Syndicat"
33C8  652E50616E656C2E+  "e.Panel."
33D0  4261636B53686164+  "BackShad"
33D8  6F7700             "ow\0"
                         const [48]: "Syndicate.Panel.BackShadow"
33DB  03                 const type 3
33DC  0000C843           const [49]: (0)
33E0  04                 const type 4
33E1  0A                 string size (10)
33E2  53796E6469636174+  "Syndicat"
33EA  6500               "e\0"
                         const [50]: "Syndicate"
33EC  04                 const type 4
33ED  06                 string size (6)
33EE  5F726F6F7400       "_root\0"
                         const [51]: "_root"
33F4  04                 const type 4
33F5  15                 string size (21)
33F6  466C617368496E73+  "FlashIns"
33FE  74616E63655F4C49+  "tance_LI"
3406  4E45415200         "NEAR\0"
                         const [52]: "FlashInstance_LINEAR"
340B  03                 const type 3
340C  0000003F           const [53]: (0)
3410  03                 const type 3
3411  00000000           const [54]: (0)
3415  04                 const type 4
3416  12                 string size (18)
3417  67506C6179657250+  "gPlayerP"
341F  726F66696C654D67+  "rofileMg"
3427  7200               "r\0"
                         const [55]: "gPlayerProfileMgr"
3429  01                 const type 3
342A  1A7BEF21           const [56]: (569342746)
342E  01                 const type 3
342F  92104F65           const [57]: (1699680402)
3433  01                 const type 3
3434  FD052E6F           const [58]: (1865287165)
3438  01                 const type 3
3439  FFFB2933           const [59]: (858389503)
343D  01                 const type 3
343E  17DDCF0E           const [60]: (248503575)
3442  04                 const type 4
3443  0A                 string size (10)
3444  6D4974656D547970+  "mItemTyp"
344C  6500               "e\0"
                         const [61]: "mItemType"
344E  01                 const type 3
344F  D48E598B           const [62]: (-1957065004)
3453  04                 const type 4
3454  0B                 string size (11)
3455  6D4974656D436F75+  "mItemCou"
345D  6E7400             "nt\0"
                         const [63]: "mItemCount"
3460  01                 const type 3
3461  A8915762           const [64]: (1649906088)
                         * functions:
3465  01                 sizep (1)
                         
3466                     ** function [0] definition (level 3)
                         ** start of function **
3466  00                 string size (0)
                         source name: (none)
3468  03                 line defined (410)
3469  9D                 last line defined (413)
346A  03                 nups (0)
346B  00                 numparams (0)
346C  00                 is_vararg (0)
346D  00                 maxstacksize (8)
                         * code:
346F  1D                 sizecode (29)
3470  1D000000           [01] getglobal  0   0        ; 1390508688
3474  5D400000           [02] getglobal  1   1        ; mMovie
3478  99800000           [03] loadk      2   2        ; "Syndicate.Panel.Shadow"
347C  DDC00000           [04] getglobal  3   3        ; UISys
3480  CE00C101           [05] gettable   3   3   260  ; "FlashInstance_SMOOTH_STEP"
3484  0B018000           [06] newtable   4   1   0    ; array=1, hash=0
3488  59410100           [07] loadk      5   5        ; "_z"
348C  1B418000           [08] setlist    4   1   1    ; index 1 to 1
3490  4B018000           [09] newtable   5   1   0    ; array=1, hash=0
3494  99810100           [10] loadk      6   6        ; 0
3498  5B418000           [11] setlist    5   1   1    ; index 1 to 1
349C  99C10100           [12] loadk      6   7        ; 0
34A0  D9010200           [13] loadk      7   8        ; -51
34A4  22400004           [14] call       0   8   1  
34A8  1D000000           [15] getglobal  0   0        ; 1390508688
34AC  5D400000           [16] getglobal  1   1        ; mMovie
34B0  99400200           [17] loadk      2   9        ; "Syndicate.Panel.BackShadow"
34B4  DDC00000           [18] getglobal  3   3        ; UISys
34B8  CE00C101           [19] gettable   3   3   260  ; "FlashInstance_SMOOTH_STEP"
34BC  0B018000           [20] newtable   4   1   0    ; array=1, hash=0
34C0  59410100           [21] loadk      5   5        ; "_z"
34C4  1B418000           [22] setlist    4   1   1    ; index 1 to 1
34C8  4B018000           [23] newtable   5   1   0    ; array=1, hash=0
34CC  99810100           [24] loadk      6   6        ; 0
34D0  5B418000           [25] setlist    5   1   1    ; index 1 to 1
34D4  99C10100           [26] loadk      6   7        ; 0
34D8  D9010200           [27] loadk      7   8        ; -51
34DC  22400004           [28] call       0   8   1  
34E0  1E008000           [29] return     0   1      
                         * constants:
34E4  0A                 sizek (10)
34E5  01                 const type 3
34E6  907AE152           const [0]: (1390508688)
34EA  04                 const type 4
34EB  07                 string size (7)
34EC  6D4D6F76696500     "mMovie\0"
                         const [1]: "mMovie"
34F3  04                 const type 4
34F4  17                 string size (23)
34F5  53796E6469636174+  "Syndicat"
34FD  652E50616E656C2E+  "e.Panel."
3505  536861646F7700     "Shadow\0"
                         const [2]: "Syndicate.Panel.Shadow"
350C  04                 const type 4
350D  06                 string size (6)
350E  554953797300       "UISys\0"
                         const [3]: "UISys"
3514  04                 const type 4
3515  1A                 string size (26)
3516  466C617368496E73+  "FlashIns"
351E  74616E63655F534D+  "tance_SM"
3526  4F4F54485F535445+  "OOTH_STE"
352E  5000               "P\0"
                         const [4]: "FlashInstance_SMOOTH_STEP"
3530  04                 const type 4
3531  03                 string size (3)
3532  5F7A00             "_z\0"
                         const [5]: "_z"
3535  03                 const type 3
3536  00000000           const [6]: (0)
353A  03                 const type 3
353B  0000803E           const [7]: (0)
353F  03                 const type 3
3540  CDCC9440           const [8]: (-51)
3544  04                 const type 4
3545  1B                 string size (27)
3546  53796E6469636174+  "Syndicat"
354E  652E50616E656C2E+  "e.Panel."
3556  4261636B53686164+  "BackShad"
355E  6F7700             "ow\0"
                         const [9]: "Syndicate.Panel.BackShadow"
                         * functions:
3561  00                 sizep (0)
                         * lines:
3562  1D                 sizelineinfo (29)
                         [pc] (line)
3563  9B                 [01] (-101)
3564  01                 [02] (-101)
3565  00                 [03] (-101)
3566  00                 [04] (-101)
3567  9B                 [05] (-101)
3568  01                 [06] (-101)
3569  00                 [07] (-101)
356A  00                 [08] (-101)
356B  9B                 [09] (-101)
356C  01                 [10] (-101)
356D  00                 [11] (-101)
356E  00                 [12] (-101)
356F  9B                 [13] (-101)
3570  01                 [14] (-101)
3571  00                 [15] (-100)
3572  00                 [16] (-100)
3573  9B                 [17] (-100)
3574  01                 [18] (-100)
3575  00                 [19] (-100)
3576  00                 [20] (-100)
3577  9B                 [21] (-100)
3578  01                 [22] (-100)
3579  00                 [23] (-100)
357A  00                 [24] (-100)
357B  9B                 [25] (-100)
357C  01                 [26] (-100)
357D  00                 [27] (-100)
357E  00                 [28] (-100)
357F  9B                 [29] (-99)
                         * locals:
35D7  00                 sizelocvars (0)
                         * upvalues:
35D8  00                 sizeupvalues (0)
                         ** end of function **

                         * lines:
35DA  02                 sizelineinfo (281)
                         [pc] (line)
35DB  63                 [001] (99)
35DC  01                 [002] (100)
35DD  00                 [003] (100)
35DE  00                 [004] (100)
35DF  64                 [005] (100)
35E0  01                 [006] (101)
35E1  00                 [007] (102)
35E2  00                 [008] (103)
35E3  64                 [009] (104)
35E4  01                 [010] (104)
35E5  00                 [011] (104)
35E6  00                 [012] (105)
35E7  64                 [013] (105)
35E8  01                 [014] (108)
35E9  00                 [015] (108)
35EA  00                 [016] (110)
35EB  64                 [017] (110)
35EC  01                 [018] (110)
35ED  00                 [019] (110)
35EE  00                 [020] (110)
35EF  65                 [021] (110)
35F0  01                 [022] (110)
35F1  00                 [023] (110)
35F2  00                 [024] (111)
35F3  66                 [025] (111)
35F4  01                 [026] (111)
35F5  00                 [027] (112)
35F6  00                 [028] (112)
35F7  67                 [029] (112)
35F8  01                 [030] (112)
35F9  00                 [031] (112)
35FA  00                 [032] (113)
35FB  68                 [033] (113)
35FC  01                 [034] (113)
35FD  00                 [035] (113)
35FE  00                 [036] (116)
35FF  68                 [037] (116)
3600  01                 [038] (116)
3601  00                 [039] (117)
3602  00                 [040] (117)
3603  68                 [041] (117)
3604  01                 [042] (117)
3605  00                 [043] (117)
3606  00                 [044] (118)
3607  69                 [045] (118)
3608  01                 [046] (118)
3609  00                 [047] (118)
360A  00                 [048] (118)
360B  69                 [049] (122)
360C  01                 [050] (122)
360D  00                 [051] (122)
360E  00                 [052] (122)
360F  6C                 [053] (122)
3610  01                 [054] (122)
3611  00                 [055] (122)
3612  00                 [056] (122)
3613  6C                 [057] (122)
3614  01                 [058] (122)
3615  00                 [059] (122)
3616  00                 [060] (122)
3617  6E                 [061] (123)
3618  01                 [062] (123)
3619  00                 [063] (123)
361A  00                 [064] (123)
361B  6E                 [065] (123)
361C  01                 [066] (123)
361D  00                 [067] (124)
361E  00                 [068] (124)
361F  6E                 [069] (124)
3620  01                 [070] (124)
3621  00                 [071] (124)
3622  00                 [072] (124)
3623  6E                 [073] (126)
3624  01                 [074] (126)
3625  00                 [075] (126)
3626  00                 [076] (126)
3627  6E                 [077] (126)
3628  01                 [078] (126)
3629  00                 [079] (126)
362A  00                 [080] (126)
362B  6E                 [081] (126)
362C  01                 [082] (-128)
362D  00                 [083] (-128)
362E  00                 [084] (-128)
362F  6E                 [085] (-128)
3630  01                 [086] (-128)
3631  00                 [087] (-128)
3632  00                 [088] (-126)
3633  6E                 [089] (-126)
3634  01                 [090] (-126)
3635  00                 [091] (-126)
3636  00                 [092] (-126)
3637  6F                 [093] (-126)
3638  01                 [094] (-124)
3639  00                 [095] (-124)
363A  00                 [096] (-124)
363B  6F                 [097] (-123)
363C  01                 [098] (-123)
363D  00                 [099] (-123)
363E  00                 [100] (-123)
363F  6F                 [101] (-123)
3640  01                 [102] (-122)
3641  00                 [103] (-122)
3642  00                 [104] (-122)
3643  70                 [105] (-122)
3644  01                 [106] (-122)
3645  00                 [107] (-121)
3646  00                 [108] (-121)
3647  70                 [109] (-121)
3648  01                 [110] (-121)
3649  00                 [111] (-121)
364A  00                 [112] (-119)
364B  70                 [113] (-119)
364C  01                 [114] (-119)
364D  00                 [115] (-119)
364E  00                 [116] (-119)
364F  70                 [117] (-118)
3650  01                 [118] (-118)
3651  00                 [119] (-118)
3652  00                 [120] (-118)
3653  70                 [121] (-118)
3654  01                 [122] (-117)
3655  00                 [123] (-117)
3656  00                 [124] (-117)
3657  71                 [125] (-117)
3658  01                 [126] (-117)
3659  00                 [127] (-117)
365A  00                 [128] (-116)
365B  71                 [129] (-116)
365C  01                 [130] (-116)
365D  00                 [131] (-116)
365E  00                 [132] (-116)
365F  71                 [133] (-116)
3660  01                 [134] (-114)
3661  00                 [135] (-114)
3662  00                 [136] (-114)
3663  71                 [137] (-114)
3664  01                 [138] (-114)
3665  00                 [139] (-114)
3666  00                 [140] (-113)
3667  74                 [141] (-113)
3668  01                 [142] (-113)
3669  00                 [143] (-113)
366A  00                 [144] (-113)
366B  74                 [145] (-113)
366C  01                 [146] (-112)
366D  00                 [147] (-112)
366E  00                 [148] (-112)
366F  74                 [149] (-112)
3670  01                 [150] (-112)
3671  00                 [151] (-112)
3672  00                 [152] (-111)
3673  75                 [153] (-111)
3674  01                 [154] (-111)
3675  00                 [155] (-111)
3676  00                 [156] (-111)
3677  75                 [157] (-111)
3678  01                 [158] (-109)
3679  00                 [159] (-109)
367A  00                 [160] (-109)
367B  75                 [161] (-109)
367C  01                 [162] (-109)
367D  00                 [163] (-109)
367E  00                 [164] (-108)
367F  75                 [165] (-108)
3680  01                 [166] (-108)
3681  00                 [167] (-108)
3682  00                 [168] (-108)
3683  75                 [169] (-108)
3684  01                 [170] (-106)
3685  00                 [171] (-106)
3686  00                 [172] (-104)
3687  76                 [173] (-104)
3688  01                 [174] (-104)
3689  00                 [175] (-104)
368A  00                 [176] (-104)
368B  76                 [177] (-104)
368C  01                 [178] (-104)
368D  00                 [179] (-104)
368E  00                 [180] (-104)
368F  76                 [181] (-104)
3690  01                 [182] (-104)
3691  00                 [183] (-104)
3692  00                 [184] (-104)
3693  76                 [185] (-104)
3694  01                 [186] (-103)
3695  00                 [187] (-103)
3696  00                 [188] (-103)
3697  76                 [189] (-103)
3698  01                 [190] (-103)
3699  00                 [191] (-103)
369A  00                 [192] (-103)
369B  7A                 [193] (-103)
369C  01                 [194] (-103)
369D  00                 [195] (-103)
369E  00                 [196] (-103)
369F  7A                 [197] (-103)
36A0  01                 [198] (-103)
36A1  00                 [199] (-99)
36A2  00                 [200] (-103)
36A3  7A                 [201] (-97)
36A4  01                 [202] (-97)
36A5  00                 [203] (-97)
36A6  00                 [204] (-97)
36A7  7A                 [205] (-97)
36A8  01                 [206] (-97)
36A9  00                 [207] (-97)
36AA  00                 [208] (-97)
36AB  7A                 [209] (-97)
36AC  01                 [210] (-97)
36AD  00                 [211] (-97)
36AE  00                 [212] (-97)
36AF  7A                 [213] (-97)
36B0  01                 [214] (-95)
36B1  00                 [215] (-95)
36B2  00                 [216] (-95)
36B3  7A                 [217] (-95)
36B4  01                 [218] (-95)
36B5  00                 [219] (-95)
36B6  00                 [220] (-95)
36B7  7A                 [221] (-95)
36B8  01                 [222] (-95)
36B9  00                 [223] (-95)
36BA  00                 [224] (-95)
36BB  7A                 [225] (-95)
36BC  01                 [226] (-95)
36BD  00                 [227] (-95)
36BE  00                 [228] (-93)
36BF  7A                 [229] (-93)
36C0  01                 [230] (-91)
36C1  00                 [231] (-91)
36C2  00                 [232] (-91)
36C3  7A                 [233] (-91)
36C4  01                 [234] (-91)
36C5  00                 [235] (-91)
36C6  00                 [236] (-91)
36C7  7A                 [237] (-91)
36C8  01                 [238] (-91)
36C9  00                 [239] (-91)
36CA  00                 [240] (-90)
36CB  7B                 [241] (-90)
36CC  01                 [242] (-90)
36CD  00                 [243] (-90)
36CE  00                 [244] (-89)
36CF  7B                 [245] (-89)
36D0  01                 [246] (-88)
36D1  00                 [247] (-88)
36D2  00                 [248] (-88)
36D3  7B                 [249] (-88)
36D4  01                 [250] (-87)
36D5  00                 [251] (-87)
36D6  00                 [252] (-87)
36D7  7B                 [253] (-87)
36D8  01                 [254] (-86)
36D9  00                 [255] (-86)
36DA  00                 [256] (-86)
36DB  7B                 [257] (-86)
36DC  01                 [258] (-86)
36DD  00                 [259] (-86)
36DE  00                 [260] (-86)
36DF  7B                 [261] (-86)
36E0  01                 [262] (-86)
36E1  00                 [263] (-85)
36E2  00                 [264] (-85)
36E3  7C                 [265] (-85)
36E4  01                 [266] (-85)
36E5  00                 [267] (-85)
36E6  00                 [268] (-84)
36E7  7C                 [269] (-84)
36E8  01                 [270] (-84)
36E9  00                 [271] (-84)
36EA  00                 [272] (-84)
36EB  7C                 [273] (-83)
36EC  01                 [274] (-83)
36ED  00                 [275] (-83)
36EE  00                 [276] (-83)
36EF  7C                 [277] (-82)
36F0  01                 [278] (-82)
36F1  00                 [279] (-87)
36F2  00                 [280] (-80)
36F3  7C                 [281] (-76)
                         * locals:
3A3F  00                 sizelocvars (0)
                         * upvalues:
3A40  00                 sizeupvalues (0)
                         ** end of function **

                         
3A41                     ** function [13] definition (level 2)
                         ** start of function **
3A41  00                 string size (0)
                         source name: (none)
3A43  03                 line defined (438)
3A44  BC                 last line defined (444)
3A45  03                 nups (2)
3A46  02                 numparams (0)
3A47  00                 is_vararg (0)
3A48  00                 maxstacksize (5)
                         * code:
3A4A  15                 sizecode (21)
3A4B  1D000000           [01] getglobal  0   0        ; -1615931716
3A4F  53000000           [02] getupval   1   0      
3A53  6440C000           [03] self       1   1   257  ; 2065377834
3A57  62000001           [04] call       1   2   0  
3A5B  22800000           [05] call       0   0   2  
3A5F  53008000           [06] getupval   1   1      
3A63  9D800000           [07] getglobal  2   2        ; EMPTY_SYMBOL
fail op	35
3A67  63808000           [08] close      1  
3A6B  1A000180           [09] jmp        5            ; to [15]
3A6F  52000000           [10] move       1   0      
3A73  93008000           [11] getupval   2   1      
3A77  A4C04001           [12] self       2   2   259  ; 1590141906
3A7B  A2800001           [13] call       2   2   2  
3A7F  02808000           [14] concat     0   1   2  
3A83  5D000100           [15] getglobal  1   4        ; mMovie
3A87  6440C100           [16] self       1   1   261  ; 98241492
3A8B  D2000000           [17] move       3   0      
3A8F  17010000           [18] loadbool   4   0   0    ; false
3A93  47000002           [19] tailcall   1   4   0  
3A97  5E000000           [20] return     1   0      
3A9B  1E008000           [21] return     0   1      
                         * constants:
3A9F  06                 sizek (6)
3AA0  01                 const type 3
3AA1  BCD6AE9F           const [0]: (-1615931716)
3AA5  01                 const type 3
3AA6  2A2A1B7B           const [1]: (2065377834)
3AAA  04                 const type 4
3AAB  0D                 string size (13)
3AAC  454D5054595F5359+  "EMPTY_SY"
3AB4  4D424F4C00         "MBOL\0"
                         const [2]: "EMPTY_SYMBOL"
3AB9  01                 const type 3
3ABA  D2A3C75E           const [3]: (1590141906)
3ABE  04                 const type 4
3ABF  07                 string size (7)
3AC0  6D4D6F76696500     "mMovie\0"
                         const [4]: "mMovie"
3AC7  01                 const type 3
3AC8  D40BDB05           const [5]: (98241492)
                         * functions:
3ACC  00                 sizep (0)
                         * lines:
3ACD  15                 sizelineinfo (21)
                         [pc] (line)
3ACE  B7                 [01] (-73)
3ACF  01                 [02] (-73)
3AD0  00                 [03] (-73)
3AD1  00                 [04] (-73)
3AD2  B7                 [05] (-73)
3AD3  01                 [06] (-72)
3AD4  00                 [07] (-72)
3AD5  00                 [08] (-72)
3AD6  B7                 [09] (-72)
3AD7  01                 [10] (-71)
3AD8  00                 [11] (-71)
3AD9  00                 [12] (-71)
3ADA  B7                 [13] (-71)
3ADB  01                 [14] (-71)
3ADC  00                 [15] (-69)
3ADD  00                 [16] (-69)
3ADE  B7                 [17] (-69)
3ADF  01                 [18] (-69)
3AE0  00                 [19] (-69)
3AE1  00                 [20] (-69)
3AE2  B8                 [21] (-68)
                         * locals:
3B22  00                 sizelocvars (0)
                         * upvalues:
3B23  00                 sizeupvalues (0)
                         ** end of function **

                         
3B24                     ** function [14] definition (level 2)
                         ** start of function **
3B24  00                 string size (0)
                         source name: (none)
3B26  03                 line defined (446)
3B27  E9                 last line defined (489)
3B28  03                 nups (8)
3B29  08                 numparams (0)
3B2A  00                 is_vararg (0)
3B2B  00                 maxstacksize (21)
                         * code:
3B2D  78                 sizecode (120)
3B2E  1D000000           [001] getglobal  0   0        ; 1074689893
3B32  53000000           [002] getupval   1   0      
3B36  22800001           [003] call       0   2   2  
3B3A  18000000           [004] test       0       0    ; to [6] if true
3B3E  1A000080           [005] jmp        1            ; to [7]
3B42  1E008000           [006] return     0   1      
3B46  13008000           [007] getupval   0   1      
3B4A  0E404000           [008] gettable   0   0   257  ; 387904467
3B4E  53000001           [009] getupval   1   2      
3B52  22800101           [010] call       0   2   6  
3B56  59810000           [011] loadk      5   2        ; 0
3B5A  99810000           [012] loadk      6   2        ; 0
3B5E  D3010000           [013] getupval   7   0      
3B62  E4C1C003           [014] self       7   7   259  ; -1658822453
3B66  65020000           [015] closure    9   0      
3B6A  12008002           [016] move       0   5      
3B6E  12000003           [017] move       0   6      
3B72  E2418001           [018] call       7   3   1  
3B76  D3018001           [019] getupval   7   3      
3B7A  CE01C103           [020] gettable   7   7   260  ; 2115597333
3B7E  12020003           [021] move       8   6      
3B82  59820000           [022] loadk      9   2        ; 0
3B86  E2818001           [023] call       7   3   2  
3B8A  92018003           [024] move       6   7      
3B8E  DD410100           [025] getglobal  7   5        ; mMovie
3B92  E481C103           [026] self       7   7   262  ; -693657623
3B96  59C20100           [027] loadk      9   7        ; "MedallionsTotal"
3B9A  99020200           [028] loadk      10  8        ; "text"
3B9E  DD420200           [029] getglobal  11  9        ; -1615931716
3BA2  12038002           [030] move       12  5      
3BA6  E2820001           [031] call       11  2   2  
3BAA  19830200           [032] loadk      12  10       ; " "
3BAE  53030002           [033] getupval   13  4      
3BB2  62838000           [034] call       13  1   2  
3BB6  C2428305           [035] concat     11  11  13 
3BBA  E2418002           [036] call       7   5   1  
3BBE  CD410001           [037] sub        7   2   1  
fail op	21
3BC2  15C00102           [038] concat     0   4   7  
3BC6  1A000680           [039] jmp        25           ; to [65]
3BCA  D3018002           [040] getupval   7   5      
3BCE  D8010000           [041] test       7       0    ; to [43] if true
3BD2  1A400580           [042] jmp        22           ; to [65]
3BD6  DD410100           [043] getglobal  7   5        ; mMovie
3BDA  E481C103           [044] self       7   7   262  ; -693657623
3BDE  59C20200           [045] loadk      9   11       ; "ReputationTotal"
3BE2  99020200           [046] loadk      10  8        ; "text"
3BE6  D3020003           [047] getupval   11  6      
3BEA  19830200           [048] loadk      12  10       ; " "
3BEE  5D430100           [049] getglobal  13  5        ; mMovie
3BF2  6403C306           [050] self       13  13  268  ; 98241492
3BF6  D9430300           [051] loadk      15  13       ; "/Lotus/Language/Menu/Syndicates_TotalReputaion_DailyLimit"
3BFA  17040000           [052] loadbool   16  0   0    ; false
3BFE  4B840000           [053] newtable   17  0   2    ; array=0, hash=2
3C02  4C840187           [054] settable   17  270 6    ; "count"
3C06  93048001           [055] getupval   18  3      
3C0A  8E044109           [056] gettable   18  18  260  ; 2115597333
3C0E  D2040002           [057] move       19  4      
3C12  19850000           [058] loadk      20  2        ; 0
3C16  A2848001           [059] call       18  3   2  
3C1A  4C848487           [060] settable   17  271 18   ; "limit"
3C1E  62838002           [061] call       13  5   2  
3C22  C2428305           [062] concat     11  11  13 
3C26  E2418002           [063] call       7   5   1  
3C2A  1A800380           [064] jmp        15           ; to [80]
3C2E  DD410100           [065] getglobal  7   5        ; mMovie
3C32  E481C103           [066] self       7   7   262  ; -693657623
3C36  59C20200           [067] loadk      9   11       ; "ReputationTotal"
3C3A  99020200           [068] loadk      10  8        ; "text"
3C3E  D3020003           [069] getupval   11  6      
3C42  19830200           [070] loadk      12  10       ; " "
3C46  5D430100           [071] getglobal  13  5        ; mMovie
3C4A  6403C306           [072] self       13  13  268  ; 98241492
3C4E  D9030400           [073] loadk      15  16       ; "/Lotus/Language/Menu/Syndicates_TotalReputaion"
3C52  17040000           [074] loadbool   16  0   0    ; false
3C56  4B440000           [075] newtable   17  0   1    ; array=0, hash=1
3C5A  4C840187           [076] settable   17  270 6    ; "count"
3C5E  62838002           [077] call       13  5   2  
3C62  C2428305           [078] concat     11  11  13 
3C66  E2418002           [079] call       7   5   1  
fail op	21
3C6A  15400181           [080] concat     0   258 5  
3C6E  1AC00480           [081] jmp        20           ; to [102]
3C72  DD010000           [082] getglobal  7   0        ; 1074689893
3C76  13028003           [083] getupval   8   7      
3C7A  E2810001           [084] call       7   2   2  
3C7E  D8410000           [085] test       7       1    ; to [87] if false
3C82  1A800380           [086] jmp        15           ; to [102]
3C86  D3018003           [087] getupval   7   7      
3C8A  E441C403           [088] self       7   7   273  ; -492641364
3C8E  57028000           [089] loadbool   9   1   0    ; true
3C92  E2418001           [090] call       7   3   1  
3C96  DD410100           [091] getglobal  7   5        ; mMovie
3C9A  E401C303           [092] self       7   7   268  ; 98241492
3C9E  59820400           [093] loadk      9   18       ; "/Lotus/Language/Menu/RedeemAll"
3CA2  97020000           [094] loadbool   10  0   0    ; false
3CA6  E2810002           [095] call       7   4   2  
3CAA  13028003           [096] getupval   8   7      
3CAE  0CC28189           [097] settable   8   275 7    ; "mLabel"
3CB2  13028003           [098] getupval   8   7      
3CB6  24024504           [099] self       8   8   276  ; 1685109492
3CBA  22420001           [100] call       8   2   1  
3CBE  1A400480           [101] jmp        18           ; to [120]
3CC2  13028003           [102] getupval   8   7      
3CC6  24424404           [103] self       8   8   273  ; -492641364
3CCA  97020000           [104] loadbool   10  0   0    ; false
3CCE  22428001           [105] call       8   3   1  
3CD2  1D420100           [106] getglobal  8   5        ; mMovie
3CD6  24024304           [107] self       8   8   268  ; 98241492
3CDA  99420500           [108] loadk      10  21       ; "/Lotus/Language/Menu/NoMedallionsToRedeem"
3CDE  D7020000           [109] loadbool   11  0   0    ; false
3CE2  0B430000           [110] newtable   12  0   1    ; array=0, hash=1
3CE6  53030002           [111] getupval   13  4      
3CEA  62838000           [112] call       13  1   2  
3CEE  0C43038B           [113] settable   12  278 13   ; "dogtagname"
3CF2  22828002           [114] call       8   5   2  
3CF6  53028003           [115] getupval   9   7      
3CFA  4C028289           [116] settable   9   275 8    ; "mLabel"
3CFE  53028003           [117] getupval   9   7      
3D02  6402C504           [118] self       9   9   276  ; 1685109492
3D06  62420001           [119] call       9   2   1  
3D0A  1E008000           [120] return     0   1      
                         * constants:
3D0E  17                 sizek (23)
3D0F  01                 const type 3
3D10  65770E40           const [0]: (1074689893)
3D14  01                 const type 3
3D15  D3F31E17           const [1]: (387904467)
3D19  03                 const type 3
3D1A  00000000           const [2]: (0)
3D1E  01                 const type 3
3D1F  CB60209D           const [3]: (-1658822453)
3D23  01                 const type 3
3D24  1574197E           const [4]: (2115597333)
3D28  04                 const type 4
3D29  07                 string size (7)
3D2A  6D4D6F76696500     "mMovie\0"
                         const [5]: "mMovie"
3D31  01                 const type 3
3D32  E99FA7D6           const [6]: (-693657623)
3D36  04                 const type 4
3D37  10                 string size (16)
3D38  4D6564616C6C696F+  "Medallio"
3D40  6E73546F74616C00   "nsTotal\0"
                         const [7]: "MedallionsTotal"
3D48  04                 const type 4
3D49  05                 string size (5)
3D4A  7465787400         "text\0"
                         const [8]: "text"
3D4F  01                 const type 3
3D50  BCD6AE9F           const [9]: (-1615931716)
3D54  04                 const type 4
3D55  02                 string size (2)
3D56  2000               " \0"
                         const [10]: " "
3D58  04                 const type 4
3D59  10                 string size (16)
3D5A  5265707574617469+  "Reputati"
3D62  6F6E546F74616C00   "onTotal\0"
                         const [11]: "ReputationTotal"
3D6A  01                 const type 3
3D6B  D40BDB05           const [12]: (98241492)
3D6F  04                 const type 4
3D70  3A                 string size (58)
3D71  2F4C6F7475732F4C+  "/Lotus/L"
3D79  616E67756167652F+  "anguage/"
3D81  4D656E752F53796E+  "Menu/Syn"
3D89  646963617465735F+  "dicates_"
3D91  546F74616C526570+  "TotalRep"
3D99  757461696F6E5F44+  "utaion_D"
3DA1  61696C794C696D69+  "ailyLimi"
3DA9  7400               "t\0"
                         const [13]: "/Lotus/Language/Menu/Syndicates_TotalReputaion_DailyLimit"
3DAB  04                 const type 4
3DAC  06                 string size (6)
3DAD  636F756E7400       "count\0"
                         const [14]: "count"
3DB3  04                 const type 4
3DB4  06                 string size (6)
3DB5  6C696D697400       "limit\0"
                         const [15]: "limit"
3DBB  04                 const type 4
3DBC  2F                 string size (47)
3DBD  2F4C6F7475732F4C+  "/Lotus/L"
3DC5  616E67756167652F+  "anguage/"
3DCD  4D656E752F53796E+  "Menu/Syn"
3DD5  646963617465735F+  "dicates_"
3DDD  546F74616C526570+  "TotalRep"
3DE5  757461696F6E00     "utaion\0"
                         const [16]: "/Lotus/Language/Menu/Syndicates_TotalReputaion"
3DEC  01                 const type 3
3DED  ACE3A2E2           const [17]: (-492641364)
3DF1  04                 const type 4
3DF2  1F                 string size (31)
3DF3  2F4C6F7475732F4C+  "/Lotus/L"
3DFB  616E67756167652F+  "anguage/"
3E03  4D656E752F526564+  "Menu/Red"
3E0B  65656D416C6C00     "eemAll\0"
                         const [18]: "/Lotus/Language/Menu/RedeemAll"
3E12  04                 const type 4
3E13  07                 string size (7)
3E14  6D4C6162656C00     "mLabel\0"
                         const [19]: "mLabel"
3E1B  01                 const type 3
3E1C  F4BA7064           const [20]: (1685109492)
3E20  04                 const type 4
3E21  2A                 string size (42)
3E22  2F4C6F7475732F4C+  "/Lotus/L"
3E2A  616E67756167652F+  "anguage/"
3E32  4D656E752F4E6F4D+  "Menu/NoM"
3E3A  6564616C6C696F6E+  "edallion"
3E42  73546F5265646565+  "sToRedee"
3E4A  6D00               "m\0"
                         const [21]: "/Lotus/Language/Menu/NoMedallionsToRedeem"
3E4C  04                 const type 4
3E4D  0B                 string size (11)
3E4E  646F677461676E61+  "dogtagna"
3E56  6D6500             "me\0"
                         const [22]: "dogtagname"
                         * functions:
3E59  01                 sizep (1)
                         
3E5A                     ** function [0] definition (level 3)
                         ** start of function **
3E5A  00                 string size (0)
                         source name: (none)
3E5C  03                 line defined (456)
3E5D  CD                 last line defined (461)
3E5E  03                 nups (2)
3E5F  02                 numparams (1)
3E60  01                 is_vararg (0)
3E61  00                 maxstacksize (4)
                         * code:
3E63  0E                 sizecode (14)
3E64  4E004000           [01] gettable   1   0   256  ; "Donated"
fail op	21
3E68  15408080           [02] concat     0   257 1  
3E6C  1A400280           [03] jmp        10           ; to [14]
3E70  53000000           [04] getupval   1   0      
3E74  8E004000           [05] gettable   2   0   256  ; "Donated"
3E78  43808000           [06] add        1   1   2  
fail op	8
3E7C  48000000           [07] setupval   1   0      
3E80  53008000           [08] getupval   1   1      
3E84  8E004000           [09] gettable   2   0   256  ; "Donated"
3E88  CE804000           [10] gettable   3   0   258  ; "StandingBonus"
3E8C  84C00001           [11] mul        2   2   3  
3E90  43808000           [12] add        1   1   2  
fail op	8
3E94  48008000           [13] setupval   1   1      
3E98  1E008000           [14] return     0   1      
                         * constants:
3E9C  03                 sizek (3)
3E9D  04                 const type 4
3E9E  08                 string size (8)
3E9F  446F6E6174656400   "Donated\0"
                         const [0]: "Donated"
3EA7  03                 const type 3
3EA8  00000000           const [1]: (0)
3EAC  04                 const type 4
3EAD  0E                 string size (14)
3EAE  5374616E64696E67+  "Standing"
3EB6  426F6E757300       "Bonus\0"
                         const [2]: "StandingBonus"
                         * functions:
3EBC  00                 sizep (0)
                         * lines:
3EBD  0E                 sizelineinfo (14)
                         [pc] (line)
3EBE  C9                 [01] (-55)
3EBF  01                 [02] (-55)
3EC0  00                 [03] (-55)
3EC1  00                 [04] (-54)
3EC2  C9                 [05] (-54)
3EC3  01                 [06] (-54)
3EC4  00                 [07] (-54)
3EC5  00                 [08] (-53)
3EC6  C9                 [09] (-53)
3EC7  01                 [10] (-53)
3EC8  00                 [11] (-53)
3EC9  00                 [12] (-53)
3ECA  CA                 [13] (-53)
3ECB  01                 [14] (-51)
                         * locals:
3EF6  00                 sizelocvars (0)
                         * upvalues:
3EF7  00                 sizeupvalues (0)
                         ** end of function **

                         * lines:
3EF8  78                 sizelineinfo (120)
                         [pc] (line)
3EF9  BF                 [001] (-65)
3EFA  01                 [002] (-65)
3EFB  00                 [003] (-65)
3EFC  00                 [004] (-65)
3EFD  BF                 [005] (-65)
3EFE  01                 [006] (-64)
3EFF  00                 [007] (-61)
3F00  00                 [008] (-61)
3F01  BF                 [009] (-61)
3F02  01                 [010] (-61)
3F03  00                 [011] (-59)
3F04  00                 [012] (-58)
3F05  BF                 [013] (-57)
3F06  01                 [014] (-57)
3F07  00                 [015] (-51)
3F08  00                 [016] (-51)
3F09  BF                 [017] (-51)
3F0A  01                 [018] (-57)
3F0B  00                 [019] (-48)
3F0C  00                 [020] (-48)
3F0D  C0                 [021] (-48)
3F0E  01                 [022] (-48)
3F0F  00                 [023] (-48)
3F10  00                 [024] (-48)
3F11  C3                 [025] (-47)
3F12  01                 [026] (-47)
3F13  00                 [027] (-47)
3F14  00                 [028] (-47)
3F15  C3                 [029] (-47)
3F16  01                 [030] (-47)
3F17  00                 [031] (-47)
3F18  00                 [032] (-47)
3F19  C3                 [033] (-47)
3F1A  01                 [034] (-47)
3F1B  00                 [035] (-47)
3F1C  00                 [036] (-47)
3F1D  C3                 [037] (-45)
3F1E  01                 [038] (-45)
3F1F  00                 [039] (-45)
3F20  00                 [040] (-45)
3F21  C5                 [041] (-45)
3F22  01                 [042] (-45)
3F23  00                 [043] (-44)
3F24  00                 [044] (-44)
3F25  C6                 [045] (-44)
3F26  01                 [046] (-44)
3F27  00                 [047] (-44)
3F28  00                 [048] (-44)
3F29  C7                 [049] (-44)
3F2A  01                 [050] (-44)
3F2B  00                 [051] (-44)
3F2C  00                 [052] (-44)
3F2D  C7                 [053] (-44)
3F2E  01                 [054] (-44)
3F2F  00                 [055] (-44)
3F30  00                 [056] (-44)
3F31  CD                 [057] (-44)
3F32  01                 [058] (-44)
3F33  00                 [059] (-44)
3F34  00                 [060] (-44)
3F35  CD                 [061] (-44)
3F36  01                 [062] (-44)
3F37  00                 [063] (-44)
3F38  00                 [064] (-44)
3F39  CD                 [065] (-42)
3F3A  01                 [066] (-42)
3F3B  00                 [067] (-42)
3F3C  00                 [068] (-42)
3F3D  C7                 [069] (-42)
3F3E  01                 [070] (-42)
3F3F  00                 [071] (-42)
3F40  00                 [072] (-42)
3F41  D0                 [073] (-42)
3F42  01                 [074] (-42)
3F43  00                 [075] (-42)
3F44  00                 [076] (-42)
3F45  D0                 [077] (-42)
3F46  01                 [078] (-42)
3F47  00                 [079] (-42)
3F48  00                 [080] (-39)
3F49  D0                 [081] (-39)
3F4A  01                 [082] (-39)
3F4B  00                 [083] (-39)
3F4C  00                 [084] (-39)
3F4D  D0                 [085] (-39)
3F4E  01                 [086] (-39)
3F4F  00                 [087] (-38)
3F50  00                 [088] (-38)
3F51  D0                 [089] (-38)
3F52  01                 [090] (-38)
3F53  00                 [091] (-36)
3F54  00                 [092] (-36)
3F55  D0                 [093] (-36)
3F56  01                 [094] (-36)
3F57  00                 [095] (-36)
3F58  00                 [096] (-35)
3F59  D1                 [097] (-35)
3F5A  01                 [098] (-33)
3F5B  00                 [099] (-33)
3F5C  00                 [100] (-33)
3F5D  D1                 [101] (-33)
3F5E  01                 [102] (-31)
3F5F  00                 [103] (-31)
3F60  00                 [104] (-31)
3F61  D1                 [105] (-31)
3F62  01                 [106] (-29)
3F63  00                 [107] (-29)
3F64  00                 [108] (-29)
3F65  D1                 [109] (-29)
3F66  01                 [110] (-29)
3F67  00                 [111] (-29)
3F68  00                 [112] (-29)
3F69  D1                 [113] (-29)
3F6A  01                 [114] (-29)
3F6B  00                 [115] (-28)
3F6C  00                 [116] (-28)
3F6D  D1                 [117] (-26)
3F6E  01                 [118] (-26)
3F6F  00                 [119] (-26)
3F70  00                 [120] (-23)
                         * locals:
40D9  00                 sizelocvars (0)
                         * upvalues:
40DA  00                 sizeupvalues (0)
                         ** end of function **

                         
40DB                     ** function [15] definition (level 2)
                         ** start of function **
40DB  00                 string size (0)
                         source name: (none)
40DD  03                 line defined (491)
40DE  FD                 last line defined (637)
40DF  04                 nups (4)
40E0  04                 numparams (0)
40E1  00                 is_vararg (0)
40E2  00                 maxstacksize (7)
                         * code:
40E4  49                 sizecode (73)
40E5  1D000000           [01] getglobal  0   0        ; 849075268
40E9  59400000           [02] loadk      1   1        ; "EE.Interface.Components.Grid"
40ED  22800001           [03] call       0   2   2  
40F1  4E804000           [04] gettable   1   0   258  ; -1703198922
40F5  9DC00000           [05] getglobal  2   3        ; mMovie
40F9  D9000100           [06] loadk      3   4        ; "DogTag"
40FD  06010002           [07] loadnil    4   4      
4101  59410100           [08] loadk      5   5        ; 0
4105  99810100           [09] loadk      6   6        ; 0
4109  62800003           [10] call       1   6   2  
fail op	8
410D  48000000           [11] setupval   1   0      
4111  53000000           [12] getupval   1   0      
4115  64C0C100           [13] self       1   1   263  ; 236168549
4119  D9000200           [14] loadk      3   8        ; "MenuItemPressed"
411D  19410200           [15] loadk      4   9        ; "MenuItemFocused"
4121  59810200           [16] loadk      5   10       ; "MenuItemUnfocused"
4125  62408002           [17] call       1   5   1  
4129  53000000           [18] getupval   1   0      
412D  4C00C385           [19] settable   1   267 268  ; "mColumnSeparation" 0
4131  53000000           [20] getupval   1   0      
4135  4C00C386           [21] settable   1   269 268  ; "mRowSeparation" 0
4139  53000000           [22] getupval   1   0      
413D  4CC04387           [23] settable   1   270 271  ; "mWrapAroundNavigation" 0
4141  53000000           [24] getupval   1   0      
4145  4C404488           [25] settable   1   272 273  ; "mElementTransitionTime" 51
4149  53000000           [26] getupval   1   0      
414D  4CC04489           [27] settable   1   274 275  ; "mElementDelayTime" -51
4151  53000000           [28] getupval   1   0      
4155  4C40458A           [29] settable   1   276 277  ; "mTransitionInDeltaY" 0
4159  53000000           [30] getupval   1   0      
415D  4C40458B           [31] settable   1   278 277  ; "mTransitionOutDeltaY" 0
4161  53000000           [32] getupval   1   0      
4165  64C0C500           [33] self       1   1   279  ; 1035345719
4169  D9000600           [34] loadk      3   24       ; "ScrollBar"
416D  19410600           [35] loadk      4   25       ; 0
4171  62400002           [36] call       1   4   1  
4175  53000000           [37] getupval   1   0      
4179  6480C600           [38] self       1   1   282  ; -104757962
417D  62400001           [39] call       1   2   1  
4181  53000000           [40] getupval   1   0      
4185  A5000000           [41] closure    2   0      
4189  4C80808D           [42] settable   1   283 2    ; "CalculateX"
418D  53000000           [43] getupval   1   0      
4191  A5400000           [44] closure    2   1      
4195  4C80008E           [45] settable   1   284 2    ; "CalculateY"
4199  53000000           [46] getupval   1   0      
419D  A5800000           [47] closure    2   2      
41A1  13008000           [48] getupval   0   1      
41A5  4C80808E           [49] settable   1   285 2    ; "mOnFocusedCallback"
41A9  53000000           [50] getupval   1   0      
41AD  A5C00000           [51] closure    2   3      
41B1  4C80008F           [52] settable   1   286 2    ; "mOnUnfocusedCallback"
41B5  53000000           [53] getupval   1   0      
41B9  A5000100           [54] closure    2   4      
41BD  4C80808F           [55] settable   1   287 2    ; "mOnSelectedCallback"
41C1  53000000           [56] getupval   1   0      
41C5  A5400100           [57] closure    2   5      
41C9  13008000           [58] getupval   0   1      
41CD  13000000           [59] getupval   0   0      
41D1  13000001           [60] getupval   0   2      
41D5  4C800090           [61] settable   1   288 2    ; "mElementDrawCallback"
41D9  53000000           [62] getupval   1   0      
41DD  A5800100           [63] closure    2   6      
41E1  13008001           [64] getupval   0   3      
41E5  13008000           [65] getupval   0   1      
41E9  4C808090           [66] settable   1   289 2    ; "UpdateCounts"
41ED  53000000           [67] getupval   1   0      
41F1  A5C00100           [68] closure    2   7      
41F5  4C800091           [69] settable   1   290 2    ; "SetupPreInterpolationValues"
41F9  53000000           [70] getupval   1   0      
41FD  A5000200           [71] closure    2   8      
4201  4C808091           [72] settable   1   291 2    ; "GetInterpolationProperties"
4205  1E008000           [73] return     0   1      
                         * constants:
4209  24                 sizek (36)
420A  01                 const type 3
420B  44DC9B32           const [0]: (849075268)
420F  04                 const type 4
4210  1D                 string size (29)
4211  45452E496E746572+  "EE.Inter"
4219  666163652E436F6D+  "face.Com"
4221  706F6E656E74732E+  "ponents."
4229  4772696400         "Grid\0"
                         const [1]: "EE.Interface.Components.Grid"
422E  01                 const type 3
422F  363F7B9A           const [2]: (-1703198922)
4233  04                 const type 4
4234  07                 string size (7)
4235  6D4D6F76696500     "mMovie\0"
                         const [3]: "mMovie"
423C  04                 const type 4
423D  07                 string size (7)
423E  446F6754616700     "DogTag\0"
                         const [4]: "DogTag"
4245  03                 const type 3
4246  0000803F           const [5]: (0)
424A  03                 const type 3
424B  00004040           const [6]: (0)
424F  01                 const type 3
4250  65A5130E           const [7]: (236168549)
4254  04                 const type 4
4255  10                 string size (16)
4256  4D656E754974656D+  "MenuItem"
425E  5072657373656400   "Pressed\0"
                         const [8]: "MenuItemPressed"
4266  04                 const type 4
4267  10                 string size (16)
4268  4D656E754974656D+  "MenuItem"
4270  466F637573656400   "Focused\0"
                         const [9]: "MenuItemFocused"
4278  04                 const type 4
4279  12                 string size (18)
427A  4D656E754974656D+  "MenuItem"
4282  556E666F63757365+  "Unfocuse"
428A  6400               "d\0"
                         const [10]: "MenuItemUnfocused"
428C  04                 const type 4
428D  12                 string size (18)
428E  6D436F6C756D6E53+  "mColumnS"
4296  657061726174696F+  "eparatio"
429E  6E00               "n\0"
                         const [11]: "mColumnSeparation"
42A0  03                 const type 3
42A1  0000C943           const [12]: (0)
42A5  04                 const type 4
42A6  0F                 string size (15)
42A7  6D526F7753657061+  "mRowSepa"
42AF  726174696F6E00     "ration\0"
                         const [13]: "mRowSeparation"
42B6  04                 const type 4
42B7  16                 string size (22)
42B8  6D5772617041726F+  "mWrapAro"
42C0  756E644E61766967+  "undNavig"
42C8  6174696F6E00       "ation\0"
                         const [14]: "mWrapAroundNavigation"
42CE  01                 const type 3
42CF  00000000           const [15]: (0)
42D3  04                 const type 4
42D4  17                 string size (23)
42D5  6D456C656D656E74+  "mElement"
42DD  5472616E73697469+  "Transiti"
42E5  6F6E54696D6500     "onTime\0"
                         const [16]: "mElementTransitionTime"
42EC  03                 const type 3
42ED  3333B33E           const [17]: (51)
42F1  04                 const type 4
42F2  12                 string size (18)
42F3  6D456C656D656E74+  "mElement"
42FB  44656C617954696D+  "DelayTim"
4303  6500               "e\0"
                         const [18]: "mElementDelayTime"
4305  03                 const type 3
4306  CDCCCC3D           const [19]: (-51)
430A  04                 const type 4
430B  14                 string size (20)
430C  6D5472616E736974+  "mTransit"
4314  696F6E496E44656C+  "ionInDel"
431C  74615900           "taY\0"
                         const [20]: "mTransitionInDeltaY"
4320  03                 const type 3
4321  00000000           const [21]: (0)
4325  04                 const type 4
4326  15                 string size (21)
4327  6D5472616E736974+  "mTransit"
432F  696F6E4F75744465+  "ionOutDe"
4337  6C74615900         "ltaY\0"
                         const [22]: "mTransitionOutDeltaY"
433C  01                 const type 3
433D  371FB63D           const [23]: (1035345719)
4341  04                 const type 4
4342  0A                 string size (10)
4343  5363726F6C6C4261+  "ScrollBa"
434B  7200               "r\0"
                         const [24]: "ScrollBar"
434D  03                 const type 3
434E  000040C1           const [25]: (0)
4352  01                 const type 3
4353  3685C1F9           const [26]: (-104757962)
4357  04                 const type 4
4358  0B                 string size (11)
4359  43616C63756C6174+  "Calculat"
4361  655800             "eX\0"
                         const [27]: "CalculateX"
4364  04                 const type 4
4365  0B                 string size (11)
4366  43616C63756C6174+  "Calculat"
436E  655900             "eY\0"
                         const [28]: "CalculateY"
4371  04                 const type 4
4372  13                 string size (19)
4373  6D4F6E466F637573+  "mOnFocus"
437B  656443616C6C6261+  "edCallba"
4383  636B00             "ck\0"
                         const [29]: "mOnFocusedCallback"
4386  04                 const type 4
4387  15                 string size (21)
4388  6D4F6E556E666F63+  "mOnUnfoc"
4390  7573656443616C6C+  "usedCall"
4398  6261636B00         "back\0"
                         const [30]: "mOnUnfocusedCallback"
439D  04                 const type 4
439E  14                 string size (20)
439F  6D4F6E53656C6563+  "mOnSelec"
43A7  74656443616C6C62+  "tedCallb"
43AF  61636B00           "ack\0"
                         const [31]: "mOnSelectedCallback"
43B3  04                 const type 4
43B4  15                 string size (21)
43B5  6D456C656D656E74+  "mElement"
43BD  4472617743616C6C+  "DrawCall"
43C5  6261636B00         "back\0"
                         const [32]: "mElementDrawCallback"
43CA  04                 const type 4
43CB  0D                 string size (13)
43CC  557064617465436F+  "UpdateCo"
43D4  756E747300         "unts\0"
                         const [33]: "UpdateCounts"
43D9  04                 const type 4
43DA  1C                 string size (28)
43DB  5365747570507265+  "SetupPre"
43E3  496E746572706F6C+  "Interpol"
43EB  6174696F6E56616C+  "ationVal"
43F3  75657300           "ues\0"
                         const [34]: "SetupPreInterpolationValues"
43F7  04                 const type 4
43F8  1B                 string size (27)
43F9  476574496E746572+  "GetInter"
4401  706F6C6174696F6E+  "polation"
4409  50726F7065727469+  "Properti"
4411  657300             "es\0"
                         const [35]: "GetInterpolationProperties"
                         * functions:
4414  09                 sizep (9)
                         
4415                     ** function [0] definition (level 3)
                         ** start of function **
4415  00                 string size (0)
                         source name: (none)
4417  03                 line defined (505)
4418  FF                 last line defined (511)
4419  03                 nups (0)
441A  00                 numparams (2)
441B  02                 is_vararg (0)
441C  00                 maxstacksize (6)
                         * code:
441E  13                 sizecode (19)
441F  8E004000           [01] gettable   2   0   256  ; "mInitialX"
4423  E4404000           [02] self       3   0   257  ; -1368813472
4427  52018000           [03] move       5   1      
442B  E2808001           [04] call       3   3   2  
442F  CD80C001           [05] sub        3   3   258  ; 0
4433  0EC14000           [06] gettable   4   0   259  ; "mRowSeparation"
4437  C4008101           [07] mul        3   3   4  
443B  83C00001           [08] add        2   2   3  
443F  CE004100           [09] gettable   3   0   260  ; "mSmoothScroll"
4443  D8000000           [10] test       3       0    ; to [12] if true
4447  1A400180           [11] jmp        6            ; to [18]
444B  E4404100           [12] self       3   0   261  ; 1495187523
444F  E2800001           [13] call       3   2   2  
4453  DF80C001           [14] mod        3   3   258  ; 0
4457  0EC14000           [15] gettable   4   0   259  ; "mRowSeparation"
445B  C4008101           [16] mul        3   3   4  
445F  8DC00001           [17] sub        2   2   3  
4463  9E000001           [18] return     2   2      
4467  1E008000           [19] return     0   1      
                         * constants:
446B  06                 sizek (6)
446C  04                 const type 4
446D  0A                 string size (10)
446E  6D496E697469616C+  "mInitial"
4476  5800               "X\0"
                         const [0]: "mInitialX"
4478  01                 const type 3
4479  609069AE           const [1]: (-1368813472)
447D  03                 const type 3
447E  0000803F           const [2]: (0)
4482  04                 const type 4
4483  0F                 string size (15)
4484  6D526F7753657061+  "mRowSepa"
448C  726174696F6E00     "ration\0"
                         const [3]: "mRowSeparation"
4493  04                 const type 4
4494  0E                 string size (14)
4495  6D536D6F6F746853+  "mSmoothS"
449D  63726F6C6C00       "croll\0"
                         const [4]: "mSmoothScroll"
44A3  01                 const type 3
44A4  43C01E59           const [5]: (1495187523)
                         * functions:
44A8  00                 sizep (0)
                         * lines:
44A9  13                 sizelineinfo (19)
                         [pc] (line)
44AA  FA                 [01] (-6)
44AB  01                 [02] (-6)
44AC  00                 [03] (-6)
44AD  00                 [04] (-6)
44AE  FA                 [05] (-6)
44AF  01                 [06] (-6)
44B0  00                 [07] (-6)
44B1  00                 [08] (-6)
44B2  FA                 [09] (-5)
44B3  01                 [10] (-5)
44B4  00                 [11] (-5)
44B5  00                 [12] (-4)
44B6  FA                 [13] (-4)
44B7  01                 [14] (-4)
44B8  00                 [15] (-4)
44B9  00                 [16] (-4)
44BA  FA                 [17] (-4)
44BB  01                 [18] (-2)
44BC  00                 [19] (-1)
                         * locals:
44F6  00                 sizelocvars (0)
                         * upvalues:
44F7  00                 sizeupvalues (0)
                         ** end of function **

                         
44F8                     ** function [1] definition (level 3)
                         ** start of function **
44F8  00                 string size (0)
                         source name: (none)
44FA  04                 line defined (514)
44FB  84                 last line defined (516)
44FC  04                 nups (0)
44FD  00                 numparams (2)
44FE  02                 is_vararg (0)
44FF  00                 maxstacksize (3)
                         * code:
4501  03                 sizecode (3)
4502  8E004000           [1] gettable   2   0   256  ; "mInitialY"
4506  9E000001           [2] return     2   2      
450A  1E008000           [3] return     0   1      
                         * constants:
450E  01                 sizek (1)
450F  04                 const type 4
4510  0A                 string size (10)
4511  6D496E697469616C+  "mInitial"
4519  5900               "Y\0"
                         const [0]: "mInitialY"
                         * functions:
451B  00                 sizep (0)
                         * lines:
451C  03                 sizelineinfo (3)
                         [pc] (line)
451D  03                 [1] (3)
451E  02                 [2] (3)
451F  00                 [3] (4)
                         * locals:
4529  00                 sizelocvars (0)
                         * upvalues:
452A  00                 sizeupvalues (0)
                         ** end of function **

                         
452B                     ** function [2] definition (level 3)
                         ** start of function **
452B  00                 string size (0)
                         source name: (none)
452D  04                 line defined (518)
452E  8E                 last line defined (526)
452F  04                 nups (1)
4530  01                 numparams (1)
4531  01                 is_vararg (0)
4532  00                 maxstacksize (9)
                         * code:
4534  1F                 sizecode (31)
4535  5D000000           [01] getglobal  1   0        ; Engine
4539  4E40C000           [02] gettable   1   1   257  ; -1802437008
453D  62808000           [03] call       1   1   2  
4541  58000000           [04] test       1       0    ; to [6] if true
4545  1A000680           [05] jmp        25           ; to [31]
4549  53000000           [06] getupval   1   0      
454D  4E80C000           [07] gettable   1   1   258  ; 630793108
4551  9DC00000           [08] getglobal  2   3        ; _G
4555  8E004101           [09] gettable   2   2   260  ; "UISound_Focus"
4559  62400001           [10] call       1   2   1  
455D  4E404100           [11] gettable   1   0   261  ; "mClipName"
fail op	35
4561  6380C100           [12] close      1  
4565  1A000480           [13] jmp        17           ; to [31]
4569  5DC00100           [14] getglobal  1   7        ; mMovie
456D  6400C200           [15] self       1   1   264  ; 808102703
4571  CE404100           [16] gettable   3   0   261  ; "mClipName"
4575  19410200           [17] loadk      4   9        ; ".Bg"
4579  C2008101           [18] concat     3   3   4  
457D  19810200           [19] loadk      4   10       ; "RectEdgeColor"
4581  5DC10000           [20] getglobal  5   3        ; _G
4585  4EC1C202           [21] gettable   5   5   267  ; "UIColorObject_Yellow"
4589  4E01C302           [22] gettable   5   5   268  ; "r"
458D  9DC10000           [23] getglobal  6   3        ; _G
4591  8EC14203           [24] gettable   6   6   267  ; "UIColorObject_Yellow"
4595  8E414303           [25] gettable   6   6   269  ; "g"
4599  DDC10000           [26] getglobal  7   3        ; _G
459D  CEC1C203           [27] gettable   7   7   267  ; "UIColorObject_Yellow"
45A1  CE81C303           [28] gettable   7   7   270  ; "b"
45A5  19C20300           [29] loadk      8   15       ; 0
45A9  62400004           [30] call       1   8   1  
45AD  1E008000           [31] return     0   1      
                         * constants:
45B1  10                 sizek (16)
45B2  04                 const type 4
45B3  07                 string size (7)
45B4  456E67696E6500     "Engine\0"
                         const [0]: "Engine"
45BB  01                 const type 3
45BC  70FE9094           const [1]: (-1802437008)
45C0  01                 const type 3
45C1  94239925           const [2]: (630793108)
45C5  04                 const type 4
45C6  03                 string size (3)
45C7  5F4700             "_G\0"
                         const [3]: "_G"
45CA  04                 const type 4
45CB  0E                 string size (14)
45CC  5549536F756E645F+  "UISound_"
45D4  466F63757300       "Focus\0"
                         const [4]: "UISound_Focus"
45DA  04                 const type 4
45DB  0A                 string size (10)
45DC  6D436C69704E616D+  "mClipNam"
45E4  6500               "e\0"
                         const [5]: "mClipName"
45E6  00                 const type 0
                         const [6]: nil
45E7  04                 const type 4
45E8  07                 string size (7)
45E9  6D4D6F76696500     "mMovie\0"
                         const [7]: "mMovie"
45F0  01                 const type 3
45F1  2FAB2A30           const [8]: (808102703)
45F5  04                 const type 4
45F6  04                 string size (4)
45F7  2E426700           ".Bg\0"
                         const [9]: ".Bg"
45FB  04                 const type 4
45FC  0E                 string size (14)
45FD  5265637445646765+  "RectEdge"
4605  436F6C6F7200       "Color\0"
                         const [10]: "RectEdgeColor"
460B  04                 const type 4
460C  15                 string size (21)
460D  5549436F6C6F724F+  "UIColorO"
4615  626A6563745F5965+  "bject_Ye"
461D  6C6C6F7700         "llow\0"
                         const [11]: "UIColorObject_Yellow"
4622  04                 const type 4
4623  02                 string size (2)
4624  7200               "r\0"
                         const [12]: "r"
4626  04                 const type 4
4627  02                 string size (2)
4628  6700               "g\0"
                         const [13]: "g"
462A  04                 const type 4
462B  02                 string size (2)
462C  6200               "b\0"
                         const [14]: "b"
462E  03                 const type 3
462F  0000803F           const [15]: (0)
                         * functions:
4633  00                 sizep (0)
                         * lines:
4634  1F                 sizelineinfo (31)
                         [pc] (line)
4635  07                 [01] (7)
4636  02                 [02] (7)
4637  00                 [03] (7)
4638  00                 [04] (7)
4639  07                 [05] (7)
463A  02                 [06] (8)
463B  00                 [07] (8)
463C  00                 [08] (8)
463D  07                 [09] (8)
463E  02                 [10] (8)
463F  00                 [11] (10)
4640  00                 [12] (10)
4641  07                 [13] (10)
4642  02                 [14] (11)
4643  00                 [15] (11)
4644  00                 [16] (11)
4645  07                 [17] (11)
4646  02                 [18] (11)
4647  00                 [19] (11)
4648  00                 [20] (11)
4649  08                 [21] (11)
464A  02                 [22] (11)
464B  00                 [23] (11)
464C  00                 [24] (11)
464D  08                 [25] (11)
464E  02                 [26] (11)
464F  00                 [27] (11)
4650  00                 [28] (11)
4651  08                 [29] (11)
4652  02                 [30] (11)
4653  00                 [31] (14)
                         * locals:
46B1  00                 sizelocvars (0)
                         * upvalues:
46B2  00                 sizeupvalues (0)
                         ** end of function **

                         
46B3                     ** function [3] definition (level 3)
                         ** start of function **
46B3  00                 string size (0)
                         source name: (none)
46B5  04                 line defined (528)
46B6  94                 last line defined (532)
46B7  04                 nups (0)
46B8  00                 numparams (1)
46B9  01                 is_vararg (0)
46BA  00                 maxstacksize (9)
                         * code:
46BC  1A                 sizecode (26)
46BD  4E004000           [01] gettable   1   0   256  ; "mClipName"
fail op	35
46C1  6340C000           [02] close      1  
46C5  1A400580           [03] jmp        22           ; to [26]
46C9  5D800000           [04] getglobal  1   2        ; Engine
46CD  4EC0C000           [05] gettable   1   1   259  ; -1802437008
46D1  62808000           [06] call       1   1   2  
46D5  58000000           [07] test       1       0    ; to [9] if true
46D9  1A000480           [08] jmp        17           ; to [26]
46DD  5D000100           [09] getglobal  1   4        ; mMovie
46E1  6440C100           [10] self       1   1   261  ; 808102703
46E5  CE004000           [11] gettable   3   0   256  ; "mClipName"
46E9  19810100           [12] loadk      4   6        ; ".Bg"
46ED  C2008101           [13] concat     3   3   4  
46F1  19C10100           [14] loadk      4   7        ; "RectEdgeColor"
46F5  5D010200           [15] getglobal  5   8        ; _G
46F9  4E41C202           [16] gettable   5   5   265  ; "UIColorObject_White"
46FD  4E81C202           [17] gettable   5   5   266  ; "r"
4701  9D010200           [18] getglobal  6   8        ; _G
4705  8E414203           [19] gettable   6   6   265  ; "UIColorObject_White"
4709  8EC14203           [20] gettable   6   6   267  ; "g"
470D  DD010200           [21] getglobal  7   8        ; _G
4711  CE41C203           [22] gettable   7   7   265  ; "UIColorObject_White"
4715  CE01C303           [23] gettable   7   7   268  ; "b"
4719  19420300           [24] loadk      8   13       ; -51
471D  62400004           [25] call       1   8   1  
4721  1E008000           [26] return     0   1      
                         * constants:
4725  0E                 sizek (14)
4726  04                 const type 4
4727  0A                 string size (10)
4728  6D436C69704E616D+  "mClipNam"
4730  6500               "e\0"
                         const [0]: "mClipName"
4732  00                 const type 0
                         const [1]: nil
4733  04                 const type 4
4734  07                 string size (7)
4735  456E67696E6500     "Engine\0"
                         const [2]: "Engine"
473C  01                 const type 3
473D  70FE9094           const [3]: (-1802437008)
4741  04                 const type 4
4742  07                 string size (7)
4743  6D4D6F76696500     "mMovie\0"
                         const [4]: "mMovie"
474A  01                 const type 3
474B  2FAB2A30           const [5]: (808102703)
474F  04                 const type 4
4750  04                 string size (4)
4751  2E426700           ".Bg\0"
                         const [6]: ".Bg"
4755  04                 const type 4
4756  0E                 string size (14)
4757  5265637445646765+  "RectEdge"
475F  436F6C6F7200       "Color\0"
                         const [7]: "RectEdgeColor"
4765  04                 const type 4
4766  03                 string size (3)
4767  5F4700             "_G\0"
                         const [8]: "_G"
476A  04                 const type 4
476B  14                 string size (20)
476C  5549436F6C6F724F+  "UIColorO"
4774  626A6563745F5768+  "bject_Wh"
477C  69746500           "ite\0"
                         const [9]: "UIColorObject_White"
4780  04                 const type 4
4781  02                 string size (2)
4782  7200               "r\0"
                         const [10]: "r"
4784  04                 const type 4
4785  02                 string size (2)
4786  6700               "g\0"
                         const [11]: "g"
4788  04                 const type 4
4789  02                 string size (2)
478A  6200               "b\0"
                         const [12]: "b"
478C  03                 const type 3
478D  CDCC4C3E           const [13]: (-51)
                         * functions:
4791  00                 sizep (0)
                         * lines:
4792  1A                 sizelineinfo (26)
                         [pc] (line)
4793  11                 [01] (17)
4794  02                 [02] (17)
4795  00                 [03] (17)
4796  00                 [04] (17)
4797  11                 [05] (17)
4798  02                 [06] (17)
4799  00                 [07] (17)
479A  00                 [08] (17)
479B  11                 [09] (18)
479C  02                 [10] (18)
479D  00                 [11] (18)
479E  00                 [12] (18)
479F  11                 [13] (18)
47A0  02                 [14] (18)
47A1  00                 [15] (18)
47A2  00                 [16] (18)
47A3  11                 [17] (18)
47A4  02                 [18] (18)
47A5  00                 [19] (18)
47A6  00                 [20] (18)
47A7  11                 [21] (18)
47A8  02                 [22] (18)
47A9  00                 [23] (18)
47AA  00                 [24] (18)
47AB  11                 [25] (18)
47AC  02                 [26] (20)
                         * locals:
47FB  00                 sizelocvars (0)
                         * upvalues:
47FC  00                 sizeupvalues (0)
                         ** end of function **

                         
47FD                     ** function [4] definition (level 3)
                         ** start of function **
47FD  00                 string size (0)
                         source name: (none)
47FF  04                 line defined (534)
4800  97                 last line defined (535)
4801  04                 nups (0)
4802  00                 numparams (1)
4803  01                 is_vararg (0)
4804  00                 maxstacksize (2)
                         * code:
4806  01                 sizecode (1)
4807  1E008000           [1] return     0   1      
                         * constants:
480B  00                 sizek (0)
                         * functions:
480C  00                 sizep (0)
                         * lines:
480D  01                 sizelineinfo (1)
                         [pc] (line)
480E  17                 [1] (23)
                         * locals:
4812  00                 sizelocvars (0)
                         * upvalues:
4813  00                 sizeupvalues (0)
                         ** end of function **

                         
4814                     ** function [5] definition (level 3)
                         ** start of function **
4814  00                 string size (0)
                         source name: (none)
4816  04                 line defined (537)
4817  E3                 last line defined (611)
4818  04                 nups (3)
4819  03                 numparams (1)
481A  01                 is_vararg (0)
481B  00                 maxstacksize (17)
                         * code:
481E  02                 sizecode (327)
481F  5D000000           [001] getglobal  1   0        ; mMovie
4823  6440C000           [002] self       1   1   257  ; 2115970775
4827  CE804000           [003] gettable   3   0   258  ; "mClipName"
482B  19C10000           [004] loadk      4   3        ; ".Bg"
482F  C2008101           [005] concat     3   3   4  
4833  1D010100           [006] getglobal  4   4        ; listRectVisRangeMaterial
4837  62400002           [007] call       1   4   1  
483B  5D000000           [008] getglobal  1   0        ; mMovie
483F  6440C100           [009] self       1   1   261  ; 808102703
4843  CE804000           [010] gettable   3   0   258  ; "mClipName"
4847  19C10000           [011] loadk      4   3        ; ".Bg"
484B  C2008101           [012] concat     3   3   4  
484F  19810100           [013] loadk      4   6        ; "RectInnerColor"
4853  5DC10100           [014] getglobal  5   7        ; _G
4857  4E01C202           [015] gettable   5   5   264  ; "UIColorObject_DarkBlue"
485B  4E41C202           [016] gettable   5   5   265  ; "r"
485F  9DC10100           [017] getglobal  6   7        ; _G
4863  8E014203           [018] gettable   6   6   264  ; "UIColorObject_DarkBlue"
4867  8E814203           [019] gettable   6   6   266  ; "g"
486B  DDC10100           [020] getglobal  7   7        ; _G
486F  CE01C203           [021] gettable   7   7   264  ; "UIColorObject_DarkBlue"
4873  CEC1C203           [022] gettable   7   7   267  ; "b"
4877  19020300           [023] loadk      8   12       ; -51
487B  62400004           [024] call       1   8   1  
487F  5D000000           [025] getglobal  1   0        ; mMovie
4883  6440C100           [026] self       1   1   261  ; 808102703
4887  CE804000           [027] gettable   3   0   258  ; "mClipName"
488B  19C10000           [028] loadk      4   3        ; ".Bg"
488F  C2008101           [029] concat     3   3   4  
4893  19410300           [030] loadk      4   13       ; "RectEdgeColor"
4897  5DC10100           [031] getglobal  5   7        ; _G
489B  4E81C302           [032] gettable   5   5   270  ; "UIColorObject_White"
489F  4E41C202           [033] gettable   5   5   265  ; "r"
48A3  9DC10100           [034] getglobal  6   7        ; _G
48A7  8E814303           [035] gettable   6   6   270  ; "UIColorObject_White"
48AB  8E814203           [036] gettable   6   6   266  ; "g"
48AF  DDC10100           [037] getglobal  7   7        ; _G
48B3  CE81C303           [038] gettable   7   7   270  ; "UIColorObject_White"
48B7  CEC1C203           [039] gettable   7   7   267  ; "b"
48BB  19C20300           [040] loadk      8   15       ; 0
48BF  62400004           [041] call       1   8   1  
48C3  5D000000           [042] getglobal  1   0        ; mMovie
48C7  6400C400           [043] self       1   1   272  ; -2013161817
48CB  CE804000           [044] gettable   3   0   258  ; "mClipName"
48CF  19410400           [045] loadk      4   17       ; "Name"
48D3  59810400           [046] loadk      5   18       ; "verticalAlignment"
48D7  99C10400           [047] loadk      6   19       ; "center"
48DB  62400003           [048] call       1   6   1  
48DF  5D000000           [049] getglobal  1   0        ; mMovie
48E3  6400C500           [050] self       1   1   276  ; -693657623
48E7  CE804000           [051] gettable   3   0   258  ; "mClipName"
48EB  19410500           [052] loadk      4   21       ; ".Name"
48EF  C2008101           [053] concat     3   3   4  
48F3  19810500           [054] loadk      4   22       ; "text"
48F7  4E414400           [055] gettable   5   0   273  ; "Name"
48FB  62408002           [056] call       1   5   1  
48FF  5D000000           [057] getglobal  1   0        ; mMovie
4903  64C0C500           [058] self       1   1   279  ; 643307062
4907  CE804000           [059] gettable   3   0   258  ; "mClipName"
490B  19010600           [060] loadk      4   24       ; ".Icon"
490F  C2008101           [061] concat     3   3   4  
4913  0E414600           [062] gettable   4   0   281  ; "Icon"
4917  62400002           [063] call       1   4   1  
491B  5D000000           [064] getglobal  1   0        ; mMovie
491F  6400C400           [065] self       1   1   272  ; -2013161817
4923  CE804000           [066] gettable   3   0   258  ; "mClipName"
4927  19810600           [067] loadk      4   26       ; "Counter.Count"
492B  59C10600           [068] loadk      5   27       ; "type"
492F  93010000           [069] getupval   6   0      
4933  8E014703           [070] gettable   6   6   284  ; -132701534
4937  DD410700           [071] getglobal  7   29       ; Engine
493B  CE81C703           [072] gettable   7   7   286  ; -1802437008
493F  E2818000           [073] call       7   1   2  
4943  19C20700           [074] loadk      8   31       ; "dynamic"
4947  59020800           [075] loadk      9   32       ; "input"
494B  A2010002           [076] call       6   4   0  
494F  62400000           [077] call       1   0   1  
4953  5D000000           [078] getglobal  1   0        ; mMovie
4957  6440C000           [079] self       1   1   257  ; 2115970775
495B  CE804000           [080] gettable   3   0   258  ; "mClipName"
495F  19410800           [081] loadk      4   33       ; ".Counter.Bg"
4963  C2008101           [082] concat     3   3   4  
4967  1D010100           [083] getglobal  4   4        ; listRectVisRangeMaterial
496B  62400002           [084] call       1   4   1  
496F  5D000000           [085] getglobal  1   0        ; mMovie
4973  6440C100           [086] self       1   1   261  ; 808102703
4977  CE804000           [087] gettable   3   0   258  ; "mClipName"
497B  19410800           [088] loadk      4   33       ; ".Counter.Bg"
497F  C2008101           [089] concat     3   3   4  
4983  19810100           [090] loadk      4   6        ; "RectInnerColor"
4987  5DC10100           [091] getglobal  5   7        ; _G
498B  4E81C302           [092] gettable   5   5   270  ; "UIColorObject_White"
498F  4E41C202           [093] gettable   5   5   265  ; "r"
4993  9DC10100           [094] getglobal  6   7        ; _G
4997  8E814303           [095] gettable   6   6   270  ; "UIColorObject_White"
499B  8E814203           [096] gettable   6   6   266  ; "g"
499F  DDC10100           [097] getglobal  7   7        ; _G
49A3  CE81C303           [098] gettable   7   7   270  ; "UIColorObject_White"
49A7  CEC1C203           [099] gettable   7   7   267  ; "b"
49AB  19820800           [100] loadk      8   34       ; -51
49AF  62400004           [101] call       1   8   1  
49B3  5D400700           [102] getglobal  1   29       ; Engine
49B7  4E80C700           [103] gettable   1   1   286  ; -1802437008
49BB  62808000           [104] call       1   1   2  
49BF  58000000           [105] test       1       0    ; to [107] if true
49C3  1A400380           [106] jmp        14           ; to [121]
49C7  53008000           [107] getupval   1   1      
49CB  64C0C800           [108] self       1   1   291  ; -1749775947
49CF  62800001           [109] call       1   2   2  
49D3  58000000           [110] test       1       0    ; to [112] if true
49D7  1A000280           [111] jmp        9            ; to [121]
49DB  4E004900           [112] gettable   1   0   292  ; "Id"
49DF  93008000           [113] getupval   2   1      
49E3  A4C04801           [114] self       2   2   291  ; -1749775947
49E7  A2800001           [115] call       2   2   2  
49EB  8E004901           [116] gettable   2   2   292  ; "Id"
fail op	35
49EF  63808000           [117] close      1  
49F3  1A000080           [118] jmp        1            ; to [120]
49F7  57400000           [119] loadbool   1   0   1    ; false, to [121]
49FB  57008000           [120] loadbool   1   1   0    ; true
49FF  58000000           [121] test       1       0    ; to [123] if true
4A03  1A400480           [122] jmp        18           ; to [141]
4A07  9D000000           [123] getglobal  2   0        ; mMovie
4A0B  A4404101           [124] self       2   2   261  ; 808102703
4A0F  0E814000           [125] gettable   4   0   258  ; "mClipName"
4A13  59C10000           [126] loadk      5   3        ; ".Bg"
4A17  02410102           [127] concat     4   4   5  
4A1B  59410300           [128] loadk      5   13       ; "RectEdgeColor"
4A1F  9DC10100           [129] getglobal  6   7        ; _G
4A23  8E414903           [130] gettable   6   6   293  ; "UIColorObject_Yellow"
4A27  8E414203           [131] gettable   6   6   265  ; "r"
4A2B  DDC10100           [132] getglobal  7   7        ; _G
4A2F  CE41C903           [133] gettable   7   7   293  ; "UIColorObject_Yellow"
4A33  CE81C203           [134] gettable   7   7   266  ; "g"
4A37  1DC20100           [135] getglobal  8   7        ; _G
4A3B  0E424904           [136] gettable   8   8   293  ; "UIColorObject_Yellow"
4A3F  0EC24204           [137] gettable   8   8   267  ; "b"
4A43  59820900           [138] loadk      9   38       ; 0
4A47  A2400004           [139] call       2   8   1  
4A4B  1A000480           [140] jmp        17           ; to [158]
4A4F  9D000000           [141] getglobal  2   0        ; mMovie
4A53  A4404101           [142] self       2   2   261  ; 808102703
4A57  0E814000           [143] gettable   4   0   258  ; "mClipName"
4A5B  59C10000           [144] loadk      5   3        ; ".Bg"
4A5F  02410102           [145] concat     4   4   5  
4A63  59410300           [146] loadk      5   13       ; "RectEdgeColor"
4A67  9DC10100           [147] getglobal  6   7        ; _G
4A6B  8E814303           [148] gettable   6   6   270  ; "UIColorObject_White"
4A6F  8E414203           [149] gettable   6   6   265  ; "r"
4A73  DDC10100           [150] getglobal  7   7        ; _G
4A77  CE81C303           [151] gettable   7   7   270  ; "UIColorObject_White"
4A7B  CE81C203           [152] gettable   7   7   266  ; "g"
4A7F  1DC20100           [153] getglobal  8   7        ; _G
4A83  0E824304           [154] gettable   8   8   270  ; "UIColorObject_White"
4A87  0EC24204           [155] gettable   8   8   267  ; "b"
4A8B  59020300           [156] loadk      9   12       ; -51
4A8F  A2400004           [157] call       2   8   1  
4A93  9D000000           [158] getglobal  2   0        ; mMovie
4A97  A4404101           [159] self       2   2   261  ; 808102703
4A9B  0E814000           [160] gettable   4   0   258  ; "mClipName"
4A9F  59410800           [161] loadk      5   33       ; ".Counter.Bg"
4AA3  02410102           [162] concat     4   4   5  
4AA7  59410300           [163] loadk      5   13       ; "RectEdgeColor"
4AAB  9DC10100           [164] getglobal  6   7        ; _G
4AAF  8E814303           [165] gettable   6   6   270  ; "UIColorObject_White"
4AB3  8E414203           [166] gettable   6   6   265  ; "r"
4AB7  DDC10100           [167] getglobal  7   7        ; _G
4ABB  CE81C303           [168] gettable   7   7   270  ; "UIColorObject_White"
4ABF  CE81C203           [169] gettable   7   7   266  ; "g"
4AC3  1DC20100           [170] getglobal  8   7        ; _G
4AC7  0E824304           [171] gettable   8   8   270  ; "UIColorObject_White"
4ACB  0EC24204           [172] gettable   8   8   267  ; "b"
4ACF  59C20900           [173] loadk      9   39       ; -51
4AD3  A2400004           [174] call       2   8   1  
4AD7  93008000           [175] getupval   2   1      
4ADB  A4004A01           [176] self       2   2   296  ; -465996416
4ADF  12010000           [177] move       4   0      
4AE3  A2408001           [178] call       2   3   1  
4AE7  93000001           [179] getupval   2   2      
4AEB  A2408000           [180] call       2   1   1  
4AEF  9D400700           [181] getglobal  2   29       ; Engine
4AF3  8E804701           [182] gettable   2   2   286  ; -1802437008
4AF7  A2808000           [183] call       2   1   2  
4AFB  98000000           [184] test       2       0    ; to [186] if true
4AFF  1A800A80           [185] jmp        43           ; to [229]
4B03  9D000000           [186] getglobal  2   0        ; mMovie
4B07  A4404A01           [187] self       2   2   297  ; 386043535
4B0B  0E814000           [188] gettable   4   0   258  ; "mClipName"
4B0F  59810A00           [189] loadk      5   42       ; ".Counter.Left.Tf.text"
4B13  02410102           [190] concat     4   4   5  
4B17  59C10A00           [191] loadk      5   43       ; "<MENU_LTRIGGER2>"
4B1B  A2400002           [192] call       2   4   1  
4B1F  9D000000           [193] getglobal  2   0        ; mMovie
4B23  A4404A01           [194] self       2   2   297  ; 386043535
4B27  0E814000           [195] gettable   4   0   258  ; "mClipName"
4B2B  59010B00           [196] loadk      5   44       ; ".Counter.Right.Tf.text"
4B2F  02410102           [197] concat     4   4   5  
4B33  59410B00           [198] loadk      5   45       ; "<MENU_RTRIGGER2>"
4B37  A2400002           [199] call       2   4   1  
4B3B  9D000000           [200] getglobal  2   0        ; mMovie
4B3F  A4004401           [201] self       2   2   272  ; -2013161817
4B43  0E814000           [202] gettable   4   0   258  ; "mClipName"
4B47  59810B00           [203] loadk      5   46       ; "Counter.Plus"
4B4B  99C10B00           [204] loadk      6   47       ; "_visible"
4B4F  D7010000           [205] loadbool   7   0   0    ; false
4B53  A2400003           [206] call       2   6   1  
4B57  9D000000           [207] getglobal  2   0        ; mMovie
4B5B  A4004401           [208] self       2   2   272  ; -2013161817
4B5F  0E814000           [209] gettable   4   0   258  ; "mClipName"
4B63  59010C00           [210] loadk      5   48       ; "Counter.Minus"
4B67  99C10B00           [211] loadk      6   47       ; "_visible"
4B6B  D7010000           [212] loadbool   7   0   0    ; false
4B6F  A2400003           [213] call       2   6   1  
4B73  9D000000           [214] getglobal  2   0        ; mMovie
4B77  A4004401           [215] self       2   2   272  ; -2013161817
4B7B  0E814000           [216] gettable   4   0   258  ; "mClipName"
4B7F  59410C00           [217] loadk      5   49       ; "Counter.Left"
4B83  99C10B00           [218] loadk      6   47       ; "_visible"
4B87  D7018000           [219] loadbool   7   1   0    ; true
4B8B  A2400003           [220] call       2   6   1  
4B8F  9D000000           [221] getglobal  2   0        ; mMovie
4B93  A4004401           [222] self       2   2   272  ; -2013161817
4B97  0E814000           [223] gettable   4   0   258  ; "mClipName"
4B9B  59810C00           [224] loadk      5   50       ; "Counter.Right"
4B9F  99C10B00           [225] loadk      6   47       ; "_visible"
4BA3  D7018000           [226] loadbool   7   1   0    ; true
4BA7  A2400003           [227] call       2   6   1  
4BAB  1AC00680           [228] jmp        28           ; to [257]
4BAF  9D000000           [229] getglobal  2   0        ; mMovie
4BB3  A4004401           [230] self       2   2   272  ; -2013161817
4BB7  0E814000           [231] gettable   4   0   258  ; "mClipName"
4BBB  59410C00           [232] loadk      5   49       ; "Counter.Left"
4BBF  99C10B00           [233] loadk      6   47       ; "_visible"
4BC3  D7010000           [234] loadbool   7   0   0    ; false
4BC7  A2400003           [235] call       2   6   1  
4BCB  9D000000           [236] getglobal  2   0        ; mMovie
4BCF  A4004401           [237] self       2   2   272  ; -2013161817
4BD3  0E814000           [238] gettable   4   0   258  ; "mClipName"
4BD7  59810C00           [239] loadk      5   50       ; "Counter.Right"
4BDB  99C10B00           [240] loadk      6   47       ; "_visible"
4BDF  D7010000           [241] loadbool   7   0   0    ; false
4BE3  A2400003           [242] call       2   6   1  
4BE7  9D000000           [243] getglobal  2   0        ; mMovie
4BEB  A4004401           [244] self       2   2   272  ; -2013161817
4BEF  0E814000           [245] gettable   4   0   258  ; "mClipName"
4BF3  59810B00           [246] loadk      5   46       ; "Counter.Plus"
4BF7  99C10B00           [247] loadk      6   47       ; "_visible"
4BFB  D7018000           [248] loadbool   7   1   0    ; true
4BFF  A2400003           [249] call       2   6   1  
4C03  9D000000           [250] getglobal  2   0        ; mMovie
4C07  A4004401           [251] self       2   2   272  ; -2013161817
4C0B  0E814000           [252] gettable   4   0   258  ; "mClipName"
4C0F  59010C00           [253] loadk      5   48       ; "Counter.Minus"
4C13  99C10B00           [254] loadk      6   47       ; "_visible"
4C17  D7018000           [255] loadbool   7   1   0    ; true
4C1B  A2400003           [256] call       2   6   1  
4C1F  8E804000           [257] gettable   2   0   258  ; "mClipName"
4C23  D9C00C00           [258] loadk      3   51       ; ".RepCount"
4C27  82C00001           [259] concat     2   2   3  
4C2B  DD000000           [260] getglobal  3   0        ; mMovie
4C2F  E400CD01           [261] self       3   3   308  ; 471456102
4C33  52010001           [262] move       5   2      
4C37  99C10B00           [263] loadk      6   47       ; "_visible"
4C3B  D7010000           [264] loadbool   7   0   0    ; false
4C3F  E2408002           [265] call       3   5   1  
4C43  DD000000           [266] getglobal  3   0        ; mMovie
4C47  E400CD01           [267] self       3   3   308  ; 471456102
4C4B  52010001           [268] move       5   2      
4C4F  99410D00           [269] loadk      6   53       ; "_z"
4C53  D9810D00           [270] loadk      7   54       ; 0
4C57  E2408002           [271] call       3   5   1  
4C5B  DD000000           [272] getglobal  3   0        ; mMovie
4C5F  E400CD01           [273] self       3   3   308  ; 471456102
4C63  52010001           [274] move       5   2      
4C67  99C10D00           [275] loadk      6   55       ; "_alpha"
4C6B  D9C10300           [276] loadk      7   15       ; 0
4C6F  E2408002           [277] call       3   5   1  
4C73  CB000005           [278] newtable   3   10  0    ; array=10, hash=0
4C77  19010E00           [279] loadk      4   56       ; "Total.UnlockArrows"
4C7B  59410600           [280] loadk      5   25       ; "Icon"
4C7F  99410E00           [281] loadk      6   57       ; "SecondaryBg"
4C83  D9810E00           [282] loadk      7   58       ; "Counter.Plus.Btn"
4C87  19C20E00           [283] loadk      8   59       ; "Counter.Plus.Bg"
4C8B  59020F00           [284] loadk      9   60       ; "Counter.Plus.Pip1"
4C8F  99420F00           [285] loadk      10  61       ; "Counter.Plus.Pip2"
4C93  D9820F00           [286] loadk      11  62       ; "Counter.Minus.Btn"
4C97  19C30F00           [287] loadk      12  63       ; "Counter.Minus.Bg"
4C9B  59031000           [288] loadk      13  64       ; "Counter.Minus.Pip1"
4C9F  DB400005           [289] setlist    3   10  1    ; index 1 to 10
4CA3  19810900           [290] loadk      4   38       ; 0
4CA7  4A018001           [291] len        5   3      
4CAB  99810900           [292] loadk      6   38       ; 0
4CAF  10C10180           [293] forprep    4   8        ; to [302]
4CB3  1D020000           [294] getglobal  8   0        ; mMovie
4CB7  24424004           [295] self       8   8   257  ; 2115970775
4CBB  8E824000           [296] gettable   10  0   258  ; "mClipName"
4CBF  D9421000           [297] loadk      11  65       ; "."
4CC3  0EC38101           [298] gettable   12  3   7  
4CC7  82020305           [299] concat     10  10  12 
4CCB  DD821000           [300] getglobal  11  66       ; listVisRangeMaterial
4CCF  22420002           [301] call       8   4   1  
4CD3  1481FD7F           [302] forloop    4   -9       ; to [294] if loop
4CD7  0B020004           [303] newtable   8   8   0    ; array=8, hash=0
4CDB  59420400           [304] loadk      9   17       ; "Name"
4CDF  99C21000           [305] loadk      10  67       ; "Total.Medallions"
4CE3  D9021100           [306] loadk      11  68       ; "Total.Count"
4CE7  19431100           [307] loadk      12  69       ; "RepCount.txt"
4CEB  59831100           [308] loadk      13  70       ; "Available"
4CEF  99830600           [309] loadk      14  26       ; "Counter.Count"
4CF3  D9C31100           [310] loadk      15  71       ; "Counter.Right.Tf"
4CF7  19041200           [311] loadk      16  72       ; "Counter.Left.Tf"
4CFB  1B420004           [312] setlist    8   8   1    ; index 1 to 8
4CFF  D2000004           [313] move       3   8      
4D03  19820900           [314] loadk      8   38       ; 0
4D07  4A028001           [315] len        9   3      
4D0B  99820900           [316] loadk      10  38       ; 0
4D0F  10C20180           [317] forprep    8   8        ; to [326]
4D13  1D030000           [318] getglobal  12  0        ; mMovie
4D17  24434006           [319] self       12  12  257  ; 2115970775
4D1B  8E834000           [320] gettable   14  0   258  ; "mClipName"
4D1F  D9431000           [321] loadk      15  65       ; "."
4D23  0EC48201           [322] gettable   16  3   11 
4D27  82030407           [323] concat     14  14  16 
4D2B  DD431200           [324] getglobal  15  73       ; listTextVisRangeMaterial
4D2F  22430002           [325] call       12  4   1  
4D33  1482FD7F           [326] forloop    8   -9       ; to [318] if loop
4D37  1E008000           [327] return     0   1      
                         * constants:
4D3B  4A                 sizek (74)
4D3C  04                 const type 4
4D3D  07                 string size (7)
4D3E  6D4D6F76696500     "mMovie\0"
                         const [0]: "mMovie"
4D45  01                 const type 3
4D46  D7261F7E           const [1]: (2115970775)
4D4A  04                 const type 4
4D4B  0A                 string size (10)
4D4C  6D436C69704E616D+  "mClipNam"
4D54  6500               "e\0"
                         const [2]: "mClipName"
4D56  04                 const type 4
4D57  04                 string size (4)
4D58  2E426700           ".Bg\0"
                         const [3]: ".Bg"
4D5C  04                 const type 4
4D5D  19                 string size (25)
4D5E  6C69737452656374+  "listRect"
4D66  56697352616E6765+  "VisRange"
4D6E  4D6174657269616C+  "Material"
4D76  00                 "\0"
                         const [4]: "listRectVisRangeMaterial"
4D77  01                 const type 3
4D78  2FAB2A30           const [5]: (808102703)
4D7C  04                 const type 4
4D7D  0F                 string size (15)
4D7E  52656374496E6E65+  "RectInne"
4D86  72436F6C6F7200     "rColor\0"
                         const [6]: "RectInnerColor"
4D8D  04                 const type 4
4D8E  03                 string size (3)
4D8F  5F4700             "_G\0"
                         const [7]: "_G"
4D92  04                 const type 4
4D93  17                 string size (23)
4D94  5549436F6C6F724F+  "UIColorO"
4D9C  626A6563745F4461+  "bject_Da"
4DA4  726B426C756500     "rkBlue\0"
                         const [8]: "UIColorObject_DarkBlue"
4DAB  04                 const type 4
4DAC  02                 string size (2)
4DAD  7200               "r\0"
                         const [9]: "r"
4DAF  04                 const type 4
4DB0  02                 string size (2)
4DB1  6700               "g\0"
                         const [10]: "g"
4DB3  04                 const type 4
4DB4  02                 string size (2)
4DB5  6200               "b\0"
                         const [11]: "b"
4DB7  03                 const type 3
4DB8  CDCC4C3E           const [12]: (-51)
4DBC  04                 const type 4
4DBD  0E                 string size (14)
4DBE  5265637445646765+  "RectEdge"
4DC6  436F6C6F7200       "Color\0"
                         const [13]: "RectEdgeColor"
4DCC  04                 const type 4
4DCD  14                 string size (20)
4DCE  5549436F6C6F724F+  "UIColorO"
4DD6  626A6563745F5768+  "bject_Wh"
4DDE  69746500           "ite\0"
                         const [14]: "UIColorObject_White"
4DE2  03                 const type 3
4DE3  00000000           const [15]: (0)
4DE7  01                 const type 3
4DE8  A7960188           const [16]: (-2013161817)
4DEC  04                 const type 4
4DED  05                 string size (5)
4DEE  4E616D6500         "Name\0"
                         const [17]: "Name"
4DF3  04                 const type 4
4DF4  12                 string size (18)
4DF5  766572746963616C+  "vertical"
4DFD  416C69676E6D656E+  "Alignmen"
4E05  7400               "t\0"
                         const [18]: "verticalAlignment"
4E07  04                 const type 4
4E08  07                 string size (7)
4E09  63656E74657200     "center\0"
                         const [19]: "center"
4E10  01                 const type 3
4E11  E99FA7D6           const [20]: (-693657623)
4E15  04                 const type 4
4E16  06                 string size (6)
4E17  2E4E616D6500       ".Name\0"
                         const [21]: ".Name"
4E1D  04                 const type 4
4E1E  05                 string size (5)
4E1F  7465787400         "text\0"
                         const [22]: "text"
4E24  01                 const type 3
4E25  36165826           const [23]: (643307062)
4E29  04                 const type 4
4E2A  06                 string size (6)
4E2B  2E49636F6E00       ".Icon\0"
                         const [24]: ".Icon"
4E31  04                 const type 4
4E32  05                 string size (5)
4E33  49636F6E00         "Icon\0"
                         const [25]: "Icon"
4E38  04                 const type 4
4E39  0E                 string size (14)
4E3A  436F756E7465722E+  "Counter."
4E42  436F756E7400       "Count\0"
                         const [26]: "Counter.Count"
4E48  04                 const type 4
4E49  05                 string size (5)
4E4A  7479706500         "type\0"
                         const [27]: "type"
4E4F  01                 const type 3
4E50  A22217F8           const [28]: (-132701534)
4E54  04                 const type 4
4E55  07                 string size (7)
4E56  456E67696E6500     "Engine\0"
                         const [29]: "Engine"
4E5D  01                 const type 3
4E5E  70FE9094           const [30]: (-1802437008)
4E62  04                 const type 4
4E63  08                 string size (8)
4E64  64796E616D696300   "dynamic\0"
                         const [31]: "dynamic"
4E6C  04                 const type 4
4E6D  06                 string size (6)
4E6E  696E70757400       "input\0"
                         const [32]: "input"
4E74  04                 const type 4
4E75  0C                 string size (12)
4E76  2E436F756E746572+  ".Counter"
4E7E  2E426700           ".Bg\0"
                         const [33]: ".Counter.Bg"
4E82  03                 const type 3
4E83  CDCC4C3D           const [34]: (-51)
4E87  01                 const type 3
4E88  B589B497           const [35]: (-1749775947)
4E8C  04                 const type 4
4E8D  03                 string size (3)
4E8E  496400             "Id\0"
                         const [36]: "Id"
4E91  04                 const type 4
4E92  15                 string size (21)
4E93  5549436F6C6F724F+  "UIColorO"
4E9B  626A6563745F5965+  "bject_Ye"
4EA3  6C6C6F7700         "llow\0"
                         const [37]: "UIColorObject_Yellow"
4EA8  03                 const type 3
4EA9  0000803F           const [38]: (0)
4EAD  03                 const type 3
4EAE  CDCCCC3D           const [39]: (-51)
4EB2  01                 const type 3
4EB3  807539E4           const [40]: (-465996416)
4EB7  01                 const type 3
4EB8  8F8E0217           const [41]: (386043535)
4EBC  04                 const type 4
4EBD  16                 string size (22)
4EBE  2E436F756E746572+  ".Counter"
4EC6  2E4C6566742E5466+  ".Left.Tf"
4ECE  2E7465787400       ".text\0"
                         const [42]: ".Counter.Left.Tf.text"
4ED4  04                 const type 4
4ED5  11                 string size (17)
4ED6  3C4D454E555F4C54+  "<MENU_LT"
4EDE  524947474552323E+  "RIGGER2>"
4EE6  00                 "\0"
                         const [43]: "<MENU_LTRIGGER2>"
4EE7  04                 const type 4
4EE8  17                 string size (23)
4EE9  2E436F756E746572+  ".Counter"
4EF1  2E52696768742E54+  ".Right.T"
4EF9  662E7465787400     "f.text\0"
                         const [44]: ".Counter.Right.Tf.text"
4F00  04                 const type 4
4F01  11                 string size (17)
4F02  3C4D454E555F5254+  "<MENU_RT"
4F0A  524947474552323E+  "RIGGER2>"
4F12  00                 "\0"
                         const [45]: "<MENU_RTRIGGER2>"
4F13  04                 const type 4
4F14  0D                 string size (13)
4F15  436F756E7465722E+  "Counter."
4F1D  506C757300         "Plus\0"
                         const [46]: "Counter.Plus"
4F22  04                 const type 4
4F23  09                 string size (9)
4F24  5F76697369626C65+  "_visible"
4F2C  00                 "\0"
                         const [47]: "_visible"
4F2D  04                 const type 4
4F2E  0E                 string size (14)
4F2F  436F756E7465722E+  "Counter."
4F37  4D696E757300       "Minus\0"
                         const [48]: "Counter.Minus"
4F3D  04                 const type 4
4F3E  0D                 string size (13)
4F3F  436F756E7465722E+  "Counter."
4F47  4C65667400         "Left\0"
                         const [49]: "Counter.Left"
4F4C  04                 const type 4
4F4D  0E                 string size (14)
4F4E  436F756E7465722E+  "Counter."
4F56  526967687400       "Right\0"
                         const [50]: "Counter.Right"
4F5C  04                 const type 4
4F5D  0A                 string size (10)
4F5E  2E526570436F756E+  ".RepCoun"
4F66  7400               "t\0"
                         const [51]: ".RepCount"
4F68  01                 const type 3
4F69  66D9191C           const [52]: (471456102)
4F6D  04                 const type 4
4F6E  03                 string size (3)
4F6F  5F7A00             "_z\0"
                         const [53]: "_z"
4F72  03                 const type 3
4F73  00401CC6           const [54]: (0)
4F77  04                 const type 4
4F78  07                 string size (7)
4F79  5F616C70686100     "_alpha\0"
                         const [55]: "_alpha"
4F80  04                 const type 4
4F81  13                 string size (19)
4F82  546F74616C2E556E+  "Total.Un"
4F8A  6C6F636B4172726F+  "lockArro"
4F92  777300             "ws\0"
                         const [56]: "Total.UnlockArrows"
4F95  04                 const type 4
4F96  0C                 string size (12)
4F97  5365636F6E646172+  "Secondar"
4F9F  79426700           "yBg\0"
                         const [57]: "SecondaryBg"
4FA3  04                 const type 4
4FA4  11                 string size (17)
4FA5  436F756E7465722E+  "Counter."
4FAD  506C75732E42746E+  "Plus.Btn"
4FB5  00                 "\0"
                         const [58]: "Counter.Plus.Btn"
4FB6  04                 const type 4
4FB7  10                 string size (16)
4FB8  436F756E7465722E+  "Counter."
4FC0  506C75732E426700   "Plus.Bg\0"
                         const [59]: "Counter.Plus.Bg"
4FC8  04                 const type 4
4FC9  12                 string size (18)
4FCA  436F756E7465722E+  "Counter."
4FD2  506C75732E506970+  "Plus.Pip"
4FDA  3100               "1\0"
                         const [60]: "Counter.Plus.Pip1"
4FDC  04                 const type 4
4FDD  12                 string size (18)
4FDE  436F756E7465722E+  "Counter."
4FE6  506C75732E506970+  "Plus.Pip"
4FEE  3200               "2\0"
                         const [61]: "Counter.Plus.Pip2"
4FF0  04                 const type 4
4FF1  12                 string size (18)
4FF2  436F756E7465722E+  "Counter."
4FFA  4D696E75732E4274+  "Minus.Bt"
5002  6E00               "n\0"
                         const [62]: "Counter.Minus.Btn"
5004  04                 const type 4
5005  11                 string size (17)
5006  436F756E7465722E+  "Counter."
500E  4D696E75732E4267+  "Minus.Bg"
5016  00                 "\0"
                         const [63]: "Counter.Minus.Bg"
5017  04                 const type 4
5018  13                 string size (19)
5019  436F756E7465722E+  "Counter."
5021  4D696E75732E5069+  "Minus.Pi"
5029  703100             "p1\0"
                         const [64]: "Counter.Minus.Pip1"
502C  04                 const type 4
502D  02                 string size (2)
502E  2E00               ".\0"
                         const [65]: "."
5030  04                 const type 4
5031  15                 string size (21)
5032  6C69737456697352+  "listVisR"
503A  616E67654D617465+  "angeMate"
5042  7269616C00         "rial\0"
                         const [66]: "listVisRangeMaterial"
5047  04                 const type 4
5048  11                 string size (17)
5049  546F74616C2E4D65+  "Total.Me"
5051  64616C6C696F6E73+  "dallions"
5059  00                 "\0"
                         const [67]: "Total.Medallions"
505A  04                 const type 4
505B  0C                 string size (12)
505C  546F74616C2E436F+  "Total.Co"
5064  756E7400           "unt\0"
                         const [68]: "Total.Count"
5068  04                 const type 4
5069  0D                 string size (13)
506A  526570436F756E74+  "RepCount"
5072  2E74787400         ".txt\0"
                         const [69]: "RepCount.txt"
5077  04                 const type 4
5078  0A                 string size (10)
5079  417661696C61626C+  "Availabl"
5081  6500               "e\0"
                         const [70]: "Available"
5083  04                 const type 4
5084  11                 string size (17)
5085  436F756E7465722E+  "Counter."
508D  52696768742E5466+  "Right.Tf"
5095  00                 "\0"
                         const [71]: "Counter.Right.Tf"
5096  04                 const type 4
5097  10                 string size (16)
5098  436F756E7465722E+  "Counter."
50A0  4C6566742E546600   "Left.Tf\0"
                         const [72]: "Counter.Left.Tf"
50A8  04                 const type 4
50A9  19                 string size (25)
50AA  6C69737454657874+  "listText"
50B2  56697352616E6765+  "VisRange"
50BA  4D6174657269616C+  "Material"
50C2  00                 "\0"
                         const [73]: "listTextVisRangeMaterial"
                         * functions:
50C3  00                 sizep (0)
                         * lines:
50C5  02                 sizelineinfo (327)
                         [pc] (line)
50C6  1A                 [001] (26)
50C7  02                 [002] (26)
50C8  00                 [003] (26)
50C9  00                 [004] (26)
50CA  1A                 [005] (26)
50CB  02                 [006] (26)
50CC  00                 [007] (26)
50CD  00                 [008] (27)
50CE  1A                 [009] (27)
50CF  02                 [010] (27)
50D0  00                 [011] (27)
50D1  00                 [012] (27)
50D2  1A                 [013] (27)
50D3  02                 [014] (27)
50D4  00                 [015] (27)
50D5  00                 [016] (27)
50D6  1A                 [017] (27)
50D7  02                 [018] (27)
50D8  00                 [019] (27)
50D9  00                 [020] (27)
50DA  1A                 [021] (27)
50DB  02                 [022] (27)
50DC  00                 [023] (27)
50DD  00                 [024] (27)
50DE  1A                 [025] (28)
50DF  02                 [026] (28)
50E0  00                 [027] (28)
50E1  00                 [028] (28)
50E2  1B                 [029] (28)
50E3  02                 [030] (28)
50E4  00                 [031] (28)
50E5  00                 [032] (28)
50E6  1B                 [033] (28)
50E7  02                 [034] (28)
50E8  00                 [035] (28)
50E9  00                 [036] (28)
50EA  1B                 [037] (28)
50EB  02                 [038] (28)
50EC  00                 [039] (28)
50ED  00                 [040] (28)
50EE  1B                 [041] (28)
50EF  02                 [042] (30)
50F0  00                 [043] (30)
50F1  00                 [044] (30)
50F2  1B                 [045] (30)
50F3  02                 [046] (30)
50F4  00                 [047] (30)
50F5  00                 [048] (30)
50F6  1B                 [049] (31)
50F7  02                 [050] (31)
50F8  00                 [051] (31)
50F9  00                 [052] (31)
50FA  1B                 [053] (31)
50FB  02                 [054] (31)
50FC  00                 [055] (31)
50FD  00                 [056] (31)
50FE  1B                 [057] (32)
50FF  02                 [058] (32)
5100  00                 [059] (32)
5101  00                 [060] (32)
5102  1B                 [061] (32)
5103  02                 [062] (32)
5104  00                 [063] (32)
5105  00                 [064] (34)
5106  1B                 [065] (34)
5107  02                 [066] (34)
5108  00                 [067] (34)
5109  00                 [068] (34)
510A  1B                 [069] (34)
510B  02                 [070] (34)
510C  00                 [071] (34)
510D  00                 [072] (34)
510E  1B                 [073] (34)
510F  02                 [074] (34)
5110  00                 [075] (34)
5111  00                 [076] (34)
5112  1B                 [077] (34)
5113  02                 [078] (35)
5114  00                 [079] (35)
5115  00                 [080] (35)
5116  1B                 [081] (35)
5117  02                 [082] (35)
5118  00                 [083] (35)
5119  00                 [084] (35)
511A  1B                 [085] (36)
511B  02                 [086] (36)
511C  00                 [087] (36)
511D  00                 [088] (36)
511E  1B                 [089] (36)
511F  02                 [090] (36)
5120  00                 [091] (36)
5121  00                 [092] (36)
5122  1B                 [093] (36)
5123  02                 [094] (36)
5124  00                 [095] (36)
5125  00                 [096] (36)
5126  1C                 [097] (36)
5127  02                 [098] (36)
5128  00                 [099] (36)
5129  00                 [100] (36)
512A  1C                 [101] (36)
512B  02                 [102] (38)
512C  00                 [103] (38)
512D  00                 [104] (38)
512E  1C                 [105] (38)
512F  02                 [106] (38)
5130  00                 [107] (38)
5131  00                 [108] (38)
5132  1C                 [109] (38)
5133  02                 [110] (38)
5134  00                 [111] (38)
5135  00                 [112] (38)
5136  1C                 [113] (38)
5137  02                 [114] (38)
5138  00                 [115] (38)
5139  00                 [116] (38)
513A  1C                 [117] (38)
513B  02                 [118] (38)
513C  00                 [119] (38)
513D  00                 [120] (38)
513E  1C                 [121] (39)
513F  02                 [122] (39)
5140  00                 [123] (40)
5141  00                 [124] (40)
5142  1C                 [125] (40)
5143  02                 [126] (40)
5144  00                 [127] (40)
5145  00                 [128] (40)
5146  1C                 [129] (40)
5147  02                 [130] (40)
5148  00                 [131] (40)
5149  00                 [132] (40)
514A  1C                 [133] (40)
514B  02                 [134] (40)
514C  00                 [135] (40)
514D  00                 [136] (40)
514E  1C                 [137] (40)
514F  02                 [138] (40)
5150  00                 [139] (40)
5151  00                 [140] (40)
5152  1C                 [141] (42)
5153  02                 [142] (42)
5154  00                 [143] (42)
5155  00                 [144] (42)
5156  1C                 [145] (42)
5157  02                 [146] (42)
5158  00                 [147] (42)
5159  00                 [148] (42)
515A  1C                 [149] (42)
515B  02                 [150] (42)
515C  00                 [151] (42)
515D  00                 [152] (42)
515E  1C                 [153] (42)
515F  02                 [154] (42)
5160  00                 [155] (42)
5161  00                 [156] (42)
5162  1C                 [157] (42)
5163  02                 [158] (45)
5164  00                 [159] (45)
5165  00                 [160] (45)
5166  1C                 [161] (45)
5167  02                 [162] (45)
5168  00                 [163] (45)
5169  00                 [164] (45)
516A  1E                 [165] (45)
516B  02                 [166] (45)
516C  00                 [167] (45)
516D  00                 [168] (45)
516E  1E                 [169] (45)
516F  02                 [170] (45)
5170  00                 [171] (45)
5171  00                 [172] (45)
5172  1E                 [173] (45)
5173  02                 [174] (45)
5174  00                 [175] (46)
5175  00                 [176] (46)
5176  1E                 [177] (46)
5177  02                 [178] (46)
5178  00                 [179] (48)
5179  00                 [180] (48)
517A  1E                 [181] (50)
517B  02                 [182] (50)
517C  00                 [183] (50)
517D  00                 [184] (50)
517E  1E                 [185] (50)
517F  02                 [186] (51)
5180  00                 [187] (51)
5181  00                 [188] (51)
5182  1E                 [189] (51)
5183  02                 [190] (51)
5184  00                 [191] (51)
5185  00                 [192] (51)
5186  1F                 [193] (52)
5187  02                 [194] (52)
5188  00                 [195] (52)
5189  00                 [196] (52)
518A  1F                 [197] (52)
518B  02                 [198] (52)
518C  00                 [199] (52)
518D  00                 [200] (53)
518E  1F                 [201] (53)
518F  02                 [202] (53)
5190  00                 [203] (53)
5191  00                 [204] (53)
5192  1F                 [205] (53)
5193  02                 [206] (53)
5194  00                 [207] (54)
5195  00                 [208] (54)
5196  1F                 [209] (54)
5197  02                 [210] (54)
5198  00                 [211] (54)
5199  00                 [212] (54)
519A  1F                 [213] (54)
519B  02                 [214] (55)
519C  00                 [215] (55)
519D  00                 [216] (55)
519E  1F                 [217] (55)
519F  02                 [218] (55)
51A0  00                 [219] (55)
51A1  00                 [220] (55)
51A2  1F                 [221] (56)
51A3  02                 [222] (56)
51A4  00                 [223] (56)
51A5  00                 [224] (56)
51A6  20                 [225] (56)
51A7  02                 [226] (56)
51A8  00                 [227] (56)
51A9  00                 [228] (56)
51AA  20                 [229] (58)
51AB  02                 [230] (58)
51AC  00                 [231] (58)
51AD  00                 [232] (58)
51AE  20                 [233] (58)
51AF  02                 [234] (58)
51B0  00                 [235] (58)
51B1  00                 [236] (59)
51B2  20                 [237] (59)
51B3  02                 [238] (59)
51B4  00                 [239] (59)
51B5  00                 [240] (59)
51B6  20                 [241] (59)
51B7  02                 [242] (59)
51B8  00                 [243] (60)
51B9  00                 [244] (60)
51BA  20                 [245] (60)
51BB  02                 [246] (60)
51BC  00                 [247] (60)
51BD  00                 [248] (60)
51BE  20                 [249] (60)
51BF  02                 [250] (61)
51C0  00                 [251] (61)
51C1  00                 [252] (61)
51C2  22                 [253] (61)
51C3  02                 [254] (61)
51C4  00                 [255] (61)
51C5  00                 [256] (61)
51C6  22                 [257] (64)
51C7  02                 [258] (64)
51C8  00                 [259] (64)
51C9  00                 [260] (65)
51CA  22                 [261] (65)
51CB  02                 [262] (65)
51CC  00                 [263] (65)
51CD  00                 [264] (65)
51CE  22                 [265] (65)
51CF  02                 [266] (66)
51D0  00                 [267] (66)
51D1  00                 [268] (66)
51D2  22                 [269] (66)
51D3  02                 [270] (66)
51D4  00                 [271] (66)
51D5  00                 [272] (67)
51D6  22                 [273] (67)
51D7  02                 [274] (67)
51D8  00                 [275] (67)
51D9  00                 [276] (67)
51DA  22                 [277] (67)
51DB  02                 [278] (69)
51DC  00                 [279] (71)
51DD  00                 [280] (72)
51DE  22                 [281] (73)
51DF  02                 [282] (74)
51E0  00                 [283] (75)
51E1  00                 [284] (76)
51E2  22                 [285] (77)
51E3  02                 [286] (78)
51E4  00                 [287] (79)
51E5  00                 [288] (81)
51E6  22                 [289] (81)
51E7  02                 [290] (82)
51E8  00                 [291] (82)
51E9  00                 [292] (82)
51EA  22                 [293] (82)
51EB  02                 [294] (83)
51EC  00                 [295] (83)
51ED  00                 [296] (83)
51EE  22                 [297] (83)
51EF  02                 [298] (83)
51F0  00                 [299] (83)
51F1  00                 [300] (83)
51F2  22                 [301] (83)
51F3  02                 [302] (82)
51F4  00                 [303] (85)
51F5  00                 [304] (87)
51F6  22                 [305] (88)
51F7  02                 [306] (89)
51F8  00                 [307] (90)
51F9  00                 [308] (91)
51FA  23                 [309] (92)
51FB  02                 [310] (93)
51FC  00                 [311] (95)
51FD  00                 [312] (95)
51FE  23                 [313] (95)
51FF  02                 [314] (96)
5200  00                 [315] (96)
5201  00                 [316] (96)
5202  23                 [317] (96)
5203  02                 [318] (97)
5204  00                 [319] (97)
5205  00                 [320] (97)
5206  23                 [321] (97)
5207  02                 [322] (97)
5208  00                 [323] (97)
5209  00                 [324] (97)
520A  23                 [325] (97)
520B  02                 [326] (96)
520C  00                 [327] (99)
                         * locals:
55E2  00                 sizelocvars (0)
                         * upvalues:
55E3  00                 sizeupvalues (0)
                         ** end of function **

                         
55E4                     ** function [6] definition (level 3)
                         ** start of function **
55E4  00                 string size (0)
                         source name: (none)
55E6  04                 line defined (613)
55E7  F4                 last line defined (628)
55E8  04                 nups (2)
55E9  02                 numparams (2)
55EA  02                 is_vararg (0)
55EB  00                 maxstacksize (13)
                         * code:
55ED  60                 sizecode (96)
55EE  9D000000           [01] getglobal  2   0        ; mMovie
55F2  A4404001           [02] self       2   2   257  ; 386043535
55F6  0E81C000           [03] gettable   4   1   258  ; "mClipName"
55FA  59C10000           [04] loadk      5   3        ; ".Available.text"
55FE  02410102           [05] concat     4   4   5  
5602  59010100           [06] loadk      5   4        ; "/Lotus/Language/Menu/CountDialog_AvailableStock"
5606  8B410000           [07] newtable   6   0   1    ; array=0, hash=1
560A  CE81C100           [08] gettable   7   1   262  ; "Count"
560E  0EC2C100           [09] gettable   8   1   263  ; "Donated"
5612  CD018203           [10] sub        7   7   8  
5616  8CC18182           [11] settable   6   261 7    ; "STOCK"
561A  A2408002           [12] call       2   5   1  
561E  9D000200           [13] getglobal  2   8        ; math
5622  8E404201           [14] gettable   2   2   265  ; -1962864584
5626  CEC0C100           [15] gettable   3   1   263  ; "Donated"
562A  19810200           [16] loadk      4   10       ; 0
562E  A2808001           [17] call       2   3   2  
5632  D9C00200           [18] loadk      3   11       ; 0
5636  1D010000           [19] getglobal  4   0        ; mMovie
563A  24014302           [20] self       4   4   268  ; -693657623
563E  8E81C000           [21] gettable   6   1   258  ; "mClipName"
5642  D9410300           [22] loadk      7   13       ; ".Total.Medallions"
5646  82C10103           [23] concat     6   6   7  
564A  D9810300           [24] loadk      7   14       ; "text"
564E  12020001           [25] move       8   2      
5652  22418002           [26] call       4   5   1  
5656  1DC10300           [27] getglobal  4   15       ; -174740002
565A  5D010000           [28] getglobal  5   0        ; mMovie
565E  6401C402           [29] self       5   5   272  ; 1803241227
5662  CE81C000           [30] gettable   7   1   258  ; "mClipName"
5666  19420300           [31] loadk      8   13       ; ".Total.Medallions"
566A  C2018203           [32] concat     7   7   8  
566E  19420400           [33] loadk      8   17       ; "textWidth"
5672  62010002           [34] call       5   4   0  
5676  22810000           [35] call       4   0   2  
567A  D2000002           [36] move       3   4      
567E  1D010000           [37] getglobal  4   0        ; mMovie
5682  24814402           [38] self       4   4   274  ; -2013161817
5686  8E81C000           [39] gettable   6   1   258  ; "mClipName"
568A  D9C10400           [40] loadk      7   19       ; "Total.UnlockArrows"
568E  19020500           [41] loadk      8   20       ; "_x"
5692  52028001           [42] move       9   3      
5696  22410003           [43] call       4   6   1  
569A  C340C501           [44] add        3   3   277  ; 0
569E  1D010000           [45] getglobal  4   0        ; mMovie
56A2  24814402           [46] self       4   4   274  ; -2013161817
56A6  8E81C000           [47] gettable   6   1   258  ; "mClipName"
56AA  D9810500           [48] loadk      7   22       ; "Total.Count"
56AE  19020500           [49] loadk      8   20       ; "_x"
56B2  52028001           [50] move       9   3      
56B6  22410003           [51] call       4   6   1  
56BA  1D010000           [52] getglobal  4   0        ; mMovie
56BE  24014302           [53] self       4   4   268  ; -693657623
56C2  8E81C000           [54] gettable   6   1   258  ; "mClipName"
56C6  D9C10500           [55] loadk      7   23       ; ".Total.Count"
56CA  82C10103           [56] concat     6   6   7  
56CE  D9810300           [57] loadk      7   14       ; "text"
56D2  13020000           [58] getupval   8   0      
56D6  59020600           [59] loadk      9   24       ; " "
56DA  93028000           [60] getupval   10  1      
56DE  8E424605           [61] gettable   10  10  281  ; 2115597333
56E2  CE82C600           [62] gettable   11  1   282  ; "StandingBonus"
56E6  C4C20201           [63] mul        11  2   11 
56EA  19C30200           [64] loadk      12  11       ; 0
56EE  A2828001           [65] call       10  3   2  
56F2  02820204           [66] concat     8   8   10 
56F6  22418002           [67] call       4   5   1  
56FA  1DC10300           [68] getglobal  4   15       ; -174740002
56FE  5D010000           [69] getglobal  5   0        ; mMovie
5702  6401C402           [70] self       5   5   272  ; 1803241227
5706  CE81C000           [71] gettable   7   1   258  ; "mClipName"
570A  19C20500           [72] loadk      8   23       ; ".Total.Count"
570E  C2018203           [73] concat     7   7   8  
5712  19420400           [74] loadk      8   17       ; "textWidth"
5716  62010002           [75] call       5   4   0  
571A  22810000           [76] call       4   0   2  
571E  C3008101           [77] add        3   3   4  
5722  1D010000           [78] getglobal  4   0        ; mMovie
5726  24814402           [79] self       4   4   274  ; -2013161817
572A  8E81C000           [80] gettable   6   1   258  ; "mClipName"
572E  D9C10600           [81] loadk      7   27       ; "Total"
5732  19020500           [82] loadk      8   20       ; "_x"
fail op	0
5736  40028001           [83] move       9   3      
573A  4402C704           [84] mul        9   9   284  ; 0
573E  22410003           [85] call       4   6   1  
5742  1D010000           [86] getglobal  4   0        ; mMovie
5746  24014302           [87] self       4   4   268  ; -693657623
574A  8E81C000           [88] gettable   6   1   258  ; "mClipName"
574E  D9410700           [89] loadk      7   29       ; ".Counter.Count"
5752  82C10103           [90] concat     6   6   7  
5756  D9810300           [91] loadk      7   14       ; "text"
575A  1D820700           [92] getglobal  8   30       ; -1615931716
575E  4EC2C100           [93] gettable   9   1   263  ; "Donated"
5762  22020001           [94] call       8   2   0  
5766  22410000           [95] call       4   0   1  
576A  1E008000           [96] return     0   1      
                         * constants:
576E  1F                 sizek (31)
576F  04                 const type 4
5770  07                 string size (7)
5771  6D4D6F76696500     "mMovie\0"
                         const [0]: "mMovie"
5778  01                 const type 3
5779  8F8E0217           const [1]: (386043535)
577D  04                 const type 4
577E  0A                 string size (10)
577F  6D436C69704E616D+  "mClipNam"
5787  6500               "e\0"
                         const [2]: "mClipName"
5789  04                 const type 4
578A  10                 string size (16)
578B  2E417661696C6162+  ".Availab"
5793  6C652E7465787400   "le.text\0"
                         const [3]: ".Available.text"
579B  04                 const type 4
579C  30                 string size (48)
579D  2F4C6F7475732F4C+  "/Lotus/L"
57A5  616E67756167652F+  "anguage/"
57AD  4D656E752F436F75+  "Menu/Cou"
57B5  6E744469616C6F67+  "ntDialog"
57BD  5F417661696C6162+  "_Availab"
57C5  6C6553746F636B00   "leStock\0"
                         const [4]: "/Lotus/Language/Menu/CountDialog_AvailableStock"
57CD  04                 const type 4
57CE  06                 string size (6)
57CF  53544F434B00       "STOCK\0"
                         const [5]: "STOCK"
57D5  04                 const type 4
57D6  06                 string size (6)
57D7  436F756E7400       "Count\0"
                         const [6]: "Count"
57DD  04                 const type 4
57DE  08                 string size (8)
57DF  446F6E6174656400   "Donated\0"
                         const [7]: "Donated"
57E7  04                 const type 4
57E8  05                 string size (5)
57E9  6D61746800         "math\0"
                         const [8]: "math"
57EE  01                 const type 3
57EF  3810018B           const [9]: (-1962864584)
57F3  03                 const type 3
57F4  0000803F           const [10]: (0)
57F8  03                 const type 3
57F9  00000000           const [11]: (0)
57FD  01                 const type 3
57FE  E99FA7D6           const [12]: (-693657623)
5802  04                 const type 4
5803  12                 string size (18)
5804  2E546F74616C2E4D+  ".Total.M"
580C  6564616C6C696F6E+  "edallion"
5814  7300               "s\0"
                         const [13]: ".Total.Medallions"
5816  04                 const type 4
5817  05                 string size (5)
5818  7465787400         "text\0"
                         const [14]: "text"
581D  01                 const type 3
581E  DEAD95F5           const [15]: (-174740002)
5822  01                 const type 3
5823  0B477B6B           const [16]: (1803241227)
5827  04                 const type 4
5828  0A                 string size (10)
5829  7465787457696474+  "textWidt"
5831  6800               "h\0"
                         const [17]: "textWidth"
5833  01                 const type 3
5834  A7960188           const [18]: (-2013161817)
5838  04                 const type 4
5839  13                 string size (19)
583A  546F74616C2E556E+  "Total.Un"
5842  6C6F636B4172726F+  "lockArro"
584A  777300             "ws\0"
                         const [19]: "Total.UnlockArrows"
584D  04                 const type 4
584E  03                 string size (3)
584F  5F7800             "_x\0"
                         const [20]: "_x"
5852  03                 const type 3
5853  0000F041           const [21]: (0)
5857  04                 const type 4
5858  0C                 string size (12)
5859  546F74616C2E436F+  "Total.Co"
5861  756E7400           "unt\0"
                         const [22]: "Total.Count"
5865  04                 const type 4
5866  0D                 string size (13)
5867  2E546F74616C2E43+  ".Total.C"
586F  6F756E7400         "ount\0"
                         const [23]: ".Total.Count"
5874  04                 const type 4
5875  02                 string size (2)
5876  2000               " \0"
                         const [24]: " "
5878  01                 const type 3
5879  1574197E           const [25]: (2115597333)
587D  04                 const type 4
587E  0E                 string size (14)
587F  5374616E64696E67+  "Standing"
5887  426F6E757300       "Bonus\0"
                         const [26]: "StandingBonus"
588D  04                 const type 4
588E  06                 string size (6)
588F  546F74616C00       "Total\0"
                         const [27]: "Total"
5895  03                 const type 3
5896  0000003F           const [28]: (0)
589A  04                 const type 4
589B  0F                 string size (15)
589C  2E436F756E746572+  ".Counter"
58A4  2E436F756E7400     ".Count\0"
                         const [29]: ".Counter.Count"
58AB  01                 const type 3
58AC  BCD6AE9F           const [30]: (-1615931716)
                         * functions:
58B0  00                 sizep (0)
                         * lines:
58B1  60                 sizelineinfo (96)
                         [pc] (line)
58B2  66                 [01] (102)
58B3  02                 [02] (102)
58B4  00                 [03] (102)
58B5  00                 [04] (102)
58B6  66                 [05] (102)
58B7  02                 [06] (102)
58B8  00                 [07] (102)
58B9  00                 [08] (102)
58BA  66                 [09] (102)
58BB  02                 [10] (102)
58BC  00                 [11] (102)
58BD  00                 [12] (102)
58BE  66                 [13] (103)
58BF  02                 [14] (103)
58C0  00                 [15] (103)
58C1  00                 [16] (103)
58C2  66                 [17] (103)
58C3  02                 [18] (104)
58C4  00                 [19] (105)
58C5  00                 [20] (105)
58C6  66                 [21] (105)
58C7  02                 [22] (105)
58C8  00                 [23] (105)
58C9  00                 [24] (105)
58CA  66                 [25] (105)
58CB  02                 [26] (105)
58CC  00                 [27] (106)
58CD  00                 [28] (106)
58CE  66                 [29] (106)
58CF  02                 [30] (106)
58D0  00                 [31] (106)
58D1  00                 [32] (106)
58D2  66                 [33] (106)
58D3  02                 [34] (106)
58D4  00                 [35] (106)
58D5  00                 [36] (106)
58D6  66                 [37] (107)
58D7  02                 [38] (107)
58D8  00                 [39] (107)
58D9  00                 [40] (107)
58DA  66                 [41] (107)
58DB  02                 [42] (107)
58DC  00                 [43] (107)
58DD  00                 [44] (108)
58DE  66                 [45] (109)
58DF  02                 [46] (109)
58E0  00                 [47] (109)
58E1  00                 [48] (109)
58E2  67                 [49] (109)
58E3  02                 [50] (109)
58E4  00                 [51] (109)
58E5  00                 [52] (110)
58E6  67                 [53] (110)
58E7  02                 [54] (110)
58E8  00                 [55] (110)
58E9  00                 [56] (110)
58EA  67                 [57] (110)
58EB  02                 [58] (110)
58EC  00                 [59] (110)
58ED  00                 [60] (110)
58EE  67                 [61] (110)
58EF  02                 [62] (110)
58F0  00                 [63] (110)
58F1  00                 [64] (110)
58F2  67                 [65] (110)
58F3  02                 [66] (110)
58F4  00                 [67] (110)
58F5  00                 [68] (111)
58F6  68                 [69] (111)
58F7  02                 [70] (111)
58F8  00                 [71] (111)
58F9  00                 [72] (111)
58FA  69                 [73] (111)
58FB  02                 [74] (111)
58FC  00                 [75] (111)
58FD  00                 [76] (111)
58FE  69                 [77] (111)
58FF  02                 [78] (113)
5900  00                 [79] (113)
5901  00                 [80] (113)
5902  69                 [81] (113)
5903  02                 [82] (113)
5904  00                 [83] (113)
5905  00                 [84] (113)
5906  69                 [85] (113)
5907  02                 [86] (115)
5908  00                 [87] (115)
5909  00                 [88] (115)
590A  69                 [89] (115)
590B  02                 [90] (115)
590C  00                 [91] (115)
590D  00                 [92] (115)
590E  69                 [93] (115)
590F  02                 [94] (115)
5910  00                 [95] (115)
5911  00                 [96] (116)
                         * locals:
5A32  00                 sizelocvars (0)
                         * upvalues:
5A33  00                 sizeupvalues (0)
                         ** end of function **

                         
5A34                     ** function [7] definition (level 3)
                         ** start of function **
5A34  00                 string size (0)
                         source name: (none)
5A36  04                 line defined (630)
5A37  F8                 last line defined (632)
5A38  04                 nups (0)
5A39  00                 numparams (2)
5A3A  02                 is_vararg (0)
5A3B  00                 maxstacksize (7)
                         * code:
5A3D  07                 sizecode (7)
5A3E  8E004000           [1] gettable   2   0   256  ; "mMovie"
5A42  A4404001           [2] self       2   2   257  ; 471456102
5A46  0E81C000           [3] gettable   4   1   258  ; "mClipName"
5A4A  59C10000           [4] loadk      5   3        ; "_z"
5A4E  99010100           [5] loadk      6   4        ; 0
5A52  A2408002           [6] call       2   5   1  
5A56  1E008000           [7] return     0   1      
                         * constants:
5A5A  05                 sizek (5)
5A5B  04                 const type 4
5A5C  07                 string size (7)
5A5D  6D4D6F76696500     "mMovie\0"
                         const [0]: "mMovie"
5A64  01                 const type 3
5A65  66D9191C           const [1]: (471456102)
5A69  04                 const type 4
5A6A  0A                 string size (10)
5A6B  6D436C69704E616D+  "mClipNam"
5A73  6500               "e\0"
                         const [2]: "mClipName"
5A75  04                 const type 4
5A76  03                 string size (3)
5A77  5F7A00             "_z\0"
                         const [3]: "_z"
5A7A  03                 const type 3
5A7B  00401CC6           const [4]: (0)
                         * functions:
5A7F  00                 sizep (0)
                         * lines:
5A80  07                 sizelineinfo (7)
                         [pc] (line)
5A81  77                 [1] (119)
5A82  02                 [2] (119)
5A83  00                 [3] (119)
5A84  00                 [4] (119)
5A85  77                 [5] (119)
5A86  02                 [6] (119)
5A87  00                 [7] (120)
                         * locals:
5A9D  00                 sizelocvars (0)
                         * upvalues:
5A9E  00                 sizeupvalues (0)
                         ** end of function **

                         
5A9F                     ** function [8] definition (level 3)
                         ** start of function **
5A9F  00                 string size (0)
                         source name: (none)
5AA1  04                 line defined (634)
5AA2  FC                 last line defined (636)
5AA3  04                 nups (0)
5AA4  00                 numparams (2)
5AA5  02                 is_vararg (0)
5AA6  00                 maxstacksize (6)
                         * code:
5AA8  0A                 sizecode (10)
5AA9  8B000001           [01] newtable   2   2   0    ; array=2, hash=0
5AAD  D9000000           [02] loadk      3   0        ; "_alpha"
5AB1  19410000           [03] loadk      4   1        ; "_z"
5AB5  9B400001           [04] setlist    2   2   1    ; index 1 to 2
5AB9  CB000001           [05] newtable   3   2   0    ; array=2, hash=0
5ABD  19810000           [06] loadk      4   2        ; 0
5AC1  59C10000           [07] loadk      5   3        ; 0
5AC5  DB400001           [08] setlist    3   2   1    ; index 1 to 2
5AC9  9E008001           [09] return     2   3      
5ACD  1E008000           [10] return     0   1      
                         * constants:
5AD1  04                 sizek (4)
5AD2  04                 const type 4
5AD3  07                 string size (7)
5AD4  5F616C70686100     "_alpha\0"
                         const [0]: "_alpha"
5ADB  04                 const type 4
5ADC  03                 string size (3)
5ADD  5F7A00             "_z\0"
                         const [1]: "_z"
5AE0  03                 const type 3
5AE1  0000C842           const [2]: (0)
5AE5  03                 const type 3
5AE6  00000000           const [3]: (0)
                         * functions:
5AEA  00                 sizep (0)
                         * lines:
5AEB  0A                 sizelineinfo (10)
                         [pc] (line)
5AEC  7B                 [01] (123)
5AED  02                 [02] (123)
5AEE  00                 [03] (123)
5AEF  00                 [04] (123)
5AF0  7B                 [05] (123)
5AF1  02                 [06] (123)
5AF2  00                 [07] (123)
5AF3  00                 [08] (123)
5AF4  7B                 [09] (123)
5AF5  02                 [10] (124)
                         * locals:
5B14  00                 sizelocvars (0)
                         * upvalues:
5B15  00                 sizeupvalues (0)
                         ** end of function **

                         * lines:
5B16  49                 sizelineinfo (73)
                         [pc] (line)
5B17  EC                 [01] (-20)
5B18  01                 [02] (-20)
5B19  00                 [03] (-20)
5B1A  00                 [04] (-19)
5B1B  EC                 [05] (-19)
5B1C  01                 [06] (-19)
5B1D  00                 [07] (-19)
5B1E  00                 [08] (-19)
5B1F  EC                 [09] (-19)
5B20  01                 [10] (-19)
5B21  00                 [11] (-19)
5B22  00                 [12] (-18)
5B23  ED                 [13] (-18)
5B24  01                 [14] (-18)
5B25  00                 [15] (-18)
5B26  00                 [16] (-18)
5B27  ED                 [17] (-18)
5B28  01                 [18] (-17)
5B29  00                 [19] (-17)
5B2A  00                 [20] (-16)
5B2B  ED                 [21] (-16)
5B2C  01                 [22] (-15)
5B2D  00                 [23] (-15)
5B2E  00                 [24] (-14)
5B2F  ED                 [25] (-14)
5B30  01                 [26] (-13)
5B31  00                 [27] (-13)
5B32  00                 [28] (-12)
5B33  ED                 [29] (-12)
5B34  01                 [30] (-11)
5B35  00                 [31] (-11)
5B36  00                 [32] (-10)
5B37  ED                 [33] (-10)
5B38  01                 [34] (-10)
5B39  00                 [35] (-10)
5B3A  00                 [36] (-10)
5B3B  ED                 [37] (-9)
5B3C  01                 [38] (-9)
5B3D  00                 [39] (-9)
5B3E  00                 [40] (-8)
5B3F  ED                 [41] (-1)
5B40  01                 [42] (-1)
5B41  00                 [43] (1)
5B42  00                 [44] (4)
5B43  EE                 [45] (4)
5B44  01                 [46] (5)
5B45  00                 [47] (14)
5B46  00                 [48] (14)
5B47  EE                 [49] (14)
5B48  01                 [50] (15)
5B49  00                 [51] (20)
5B4A  00                 [52] (20)
5B4B  EE                 [53] (21)
5B4C  01                 [54] (23)
5B4D  00                 [55] (23)
5B4E  00                 [56] (24)
5B4F  EE                 [57] (99)
5B50  01                 [58] (99)
5B51  00                 [59] (99)
5B52  00                 [60] (99)
5B53  EE                 [61] (99)
5B54  01                 [62] (100)
5B55  00                 [63] (116)
5B56  00                 [64] (116)
5B57  EE                 [65] (116)
5B58  01                 [66] (116)
5B59  00                 [67] (117)
5B5A  00                 [68] (120)
5B5B  EF                 [69] (120)
5B5C  01                 [70] (121)
5B5D  00                 [71] (124)
5B5E  00                 [72] (124)
5B5F  EF                 [73] (125)
                         * locals:
5C3B  00                 sizelocvars (0)
                         * upvalues:
5C3C  00                 sizeupvalues (0)
                         ** end of function **

                         
5C3D                     ** function [16] definition (level 2)
                         ** start of function **
5C3D  00                 string size (0)
                         source name: (none)
5C3F  04                 line defined (639)
5C40  85                 last line defined (645)
5C41  05                 nups (1)
5C42  01                 numparams (0)
5C43  00                 is_vararg (0)
5C44  00                 maxstacksize (2)
                         * code:
5C46  0E                 sizecode (14)
5C47  13000000           [01] getupval   0   0      
5C4B  24004000           [02] self       0   0   256  ; 739620187
5C4F  22800001           [03] call       0   2   2  
5C53  18000000           [04] test       0       0    ; to [6] if true
5C57  1AC00180           [05] jmp        8            ; to [14]
5C5B  13000000           [06] getupval   0   0      
5C5F  24404000           [07] self       0   0   257  ; 729320363
5C63  22800001           [08] call       0   2   2  
5C67  18000000           [09] test       0       0    ; to [11] if true
5C6B  1A800080           [10] jmp        3            ; to [14]
5C6F  13000000           [11] getupval   0   0      
5C73  24804000           [12] self       0   0   258  ; 48435800
5C77  22400001           [13] call       0   2   1  
5C7B  1E008000           [14] return     0   1      
                         * constants:
5C7F  03                 sizek (3)
5C80  01                 const type 3
5C81  5BB5152C           const [0]: (739620187)
5C85  01                 const type 3
5C86  AB8B782B           const [1]: (729320363)
5C8A  01                 const type 3
5C8B  5812E302           const [2]: (48435800)
                         * functions:
5C8F  00                 sizep (0)
                         * lines:
5C90  0E                 sizelineinfo (14)
                         [pc] (line)
5C91  80                 [01] (-128)
5C92  02                 [02] (-128)
5C93  00                 [03] (-128)
5C94  00                 [04] (-128)
5C95  80                 [05] (-128)
5C96  02                 [06] (-127)
5C97  00                 [07] (-127)
5C98  00                 [08] (-127)
5C99  80                 [09] (-127)
5C9A  02                 [10] (-127)
5C9B  00                 [11] (-126)
5C9C  00                 [12] (-126)
5C9D  80                 [13] (-126)
5C9E  02                 [14] (-123)
                         * locals:
5CC9  00                 sizelocvars (0)
                         * upvalues:
5CCA  00                 sizeupvalues (0)
                         ** end of function **

                         
5CCB                     ** function [17] definition (level 2)
                         ** start of function **
5CCB  00                 string size (0)
                         source name: (none)
5CCD  05                 line defined (647)
5CCE  93                 last line defined (659)
5CCF  05                 nups (1)
5CD0  01                 numparams (0)
5CD1  00                 is_vararg (0)
5CD2  00                 maxstacksize (6)
                         * code:
5CD4  31                 sizecode (49)
5CD5  13000000           [01] getupval   0   0      
5CD9  0E004000           [02] gettable   0   0   256  ; -1736116097
5CDD  5D400000           [03] getglobal  1   1        ; mMovie
5CE1  99800000           [04] loadk      2   2        ; 0
5CE5  D7008000           [05] loadbool   3   1   0    ; true
5CE9  22800002           [06] call       0   4   2  
5CED  53000000           [07] getupval   1   0      
5CF1  4EC0C000           [08] gettable   1   1   259  ; 1704170870
5CF5  9D400000           [09] getglobal  2   1        ; mMovie
5CF9  D9000100           [10] loadk      3   4        ; 0
5CFD  17018000           [11] loadbool   4   1   0    ; true
5D01  62800002           [12] call       1   4   2  
5D05  9D400100           [13] getglobal  2   5        ; listRectVisRangeMaterial
5D09  A4804101           [14] self       2   2   262  ; -1795477990
5D0D  1DC10100           [15] getglobal  4   7        ; Lotus_Game
5D11  0E014202           [16] gettable   4   4   264  ; "VISIBILITY_SIZE"
5D15  52010000           [17] move       5   0      
5D19  A2400002           [18] call       2   4   1  
5D1D  9D400100           [19] getglobal  2   5        ; listRectVisRangeMaterial
5D21  A4804101           [20] self       2   2   262  ; -1795477990
5D25  1DC10100           [21] getglobal  4   7        ; Lotus_Game
5D29  0E414202           [22] gettable   4   4   265  ; "VISIBILITY_CENTER"
5D2D  52018000           [23] move       5   1      
5D31  A2400002           [24] call       2   4   1  
5D35  9D800200           [25] getglobal  2   10       ; listVisRangeMaterial
5D39  A4804101           [26] self       2   2   262  ; -1795477990
5D3D  1DC10100           [27] getglobal  4   7        ; Lotus_Game
5D41  0E014202           [28] gettable   4   4   264  ; "VISIBILITY_SIZE"
5D45  52010000           [29] move       5   0      
5D49  A2400002           [30] call       2   4   1  
5D4D  9D800200           [31] getglobal  2   10       ; listVisRangeMaterial
5D51  A4804101           [32] self       2   2   262  ; -1795477990
5D55  1DC10100           [33] getglobal  4   7        ; Lotus_Game
5D59  0E414202           [34] gettable   4   4   265  ; "VISIBILITY_CENTER"
5D5D  52018000           [35] move       5   1      
5D61  A2400002           [36] call       2   4   1  
5D65  9DC00200           [37] getglobal  2   11       ; listTextVisRangeMaterial
5D69  A4804101           [38] self       2   2   262  ; -1795477990
5D6D  1DC10100           [39] getglobal  4   7        ; Lotus_Game
5D71  0E014202           [40] gettable   4   4   264  ; "VISIBILITY_SIZE"
5D75  52010000           [41] move       5   0      
5D79  A2400002           [42] call       2   4   1  
5D7D  9DC00200           [43] getglobal  2   11       ; listTextVisRangeMaterial
5D81  A4804101           [44] self       2   2   262  ; -1795477990
5D85  1DC10100           [45] getglobal  4   7        ; Lotus_Game
5D89  0E414202           [46] gettable   4   4   265  ; "VISIBILITY_CENTER"
5D8D  52018000           [47] move       5   1      
5D91  A2400002           [48] call       2   4   1  
5D95  1E008000           [49] return     0   1      
                         * constants:
5D99  0C                 sizek (12)
5D9A  01                 const type 3
5D9B  7FF88498           const [0]: (-1736116097)
5D9F  04                 const type 4
5DA0  07                 string size (7)
5DA1  6D4D6F76696500     "mMovie\0"
                         const [1]: "mMovie"
5DA8  03                 const type 3
5DA9  00609544           const [2]: (0)
5DAD  01                 const type 3
5DAE  76959365           const [3]: (1704170870)
5DB2  03                 const type 3
5DB3  00006644           const [4]: (0)
5DB7  04                 const type 4
5DB8  19                 string size (25)
5DB9  6C69737452656374+  "listRect"
5DC1  56697352616E6765+  "VisRange"
5DC9  4D6174657269616C+  "Material"
5DD1  00                 "\0"
                         const [5]: "listRectVisRangeMaterial"
5DD2  01                 const type 3
5DD3  1A2EFB94           const [6]: (-1795477990)
5DD7  04                 const type 4
5DD8  0B                 string size (11)
5DD9  4C6F7475735F4761+  "Lotus_Ga"
5DE1  6D6500             "me\0"
                         const [7]: "Lotus_Game"
5DE4  04                 const type 4
5DE5  10                 string size (16)
5DE6  5649534942494C49+  "VISIBILI"
5DEE  54595F53495A4500   "TY_SIZE\0"
                         const [8]: "VISIBILITY_SIZE"
5DF6  04                 const type 4
5DF7  12                 string size (18)
5DF8  5649534942494C49+  "VISIBILI"
5E00  54595F43454E5445+  "TY_CENTE"
5E08  5200               "R\0"
                         const [9]: "VISIBILITY_CENTER"
5E0A  04                 const type 4
5E0B  15                 string size (21)
5E0C  6C69737456697352+  "listVisR"
5E14  616E67654D617465+  "angeMate"
5E1C  7269616C00         "rial\0"
                         const [10]: "listVisRangeMaterial"
5E21  04                 const type 4
5E22  19                 string size (25)
5E23  6C69737454657874+  "listText"
5E2B  56697352616E6765+  "VisRange"
5E33  4D6174657269616C+  "Material"
5E3B  00                 "\0"
                         const [11]: "listTextVisRangeMaterial"
                         * functions:
5E3C  00                 sizep (0)
                         * lines:
5E3D  31                 sizelineinfo (49)
                         [pc] (line)
5E3E  88                 [01] (-120)
5E3F  02                 [02] (-120)
5E40  00                 [03] (-120)
5E41  00                 [04] (-120)
5E42  88                 [05] (-120)
5E43  02                 [06] (-120)
5E44  00                 [07] (-119)
5E45  00                 [08] (-119)
5E46  88                 [09] (-119)
5E47  02                 [10] (-119)
5E48  00                 [11] (-119)
5E49  00                 [12] (-119)
5E4A  88                 [13] (-115)
5E4B  02                 [14] (-115)
5E4C  00                 [15] (-115)
5E4D  00                 [16] (-115)
5E4E  88                 [17] (-115)
5E4F  02                 [18] (-115)
5E50  00                 [19] (-114)
5E51  00                 [20] (-114)
5E52  88                 [21] (-114)
5E53  02                 [22] (-114)
5E54  00                 [23] (-114)
5E55  00                 [24] (-114)
5E56  89                 [25] (-113)
5E57  02                 [26] (-113)
5E58  00                 [27] (-113)
5E59  00                 [28] (-113)
5E5A  89                 [29] (-113)
5E5B  02                 [30] (-113)
5E5C  00                 [31] (-112)
5E5D  00                 [32] (-112)
5E5E  89                 [33] (-112)
5E5F  02                 [34] (-112)
5E60  00                 [35] (-112)
5E61  00                 [36] (-112)
5E62  89                 [37] (-111)
5E63  02                 [38] (-111)
5E64  00                 [39] (-111)
5E65  00                 [40] (-111)
5E66  89                 [41] (-111)
5E67  02                 [42] (-111)
5E68  00                 [43] (-110)
5E69  00                 [44] (-110)
5E6A  89                 [45] (-110)
5E6B  02                 [46] (-110)
5E6C  00                 [47] (-110)
5E6D  00                 [48] (-110)
5E6E  8D                 [49] (-109)
                         * locals:
5F02  00                 sizelocvars (0)
                         * upvalues:
5F03  00                 sizeupvalues (0)
                         ** end of function **

                         
5F04                     ** function [18] definition (level 2)
                         ** start of function **
5F04  00                 string size (0)
                         source name: (none)
5F06  05                 line defined (661)
5F07  BE                 last line defined (702)
5F08  05                 nups (10)
5F09  0A                 numparams (0)
5F0A  00                 is_vararg (0)
5F0B  00                 maxstacksize (11)
                         * code:
5F0D  70                 sizecode (112)
5F0E  1D000000           [001] getglobal  0   0        ; _T
5F12  0E404000           [002] gettable   0   0   257  ; -1898916515
5F16  22408000           [003] call       0   1   1  
5F1A  1D800000           [004] getglobal  0   2        ; gGameRules
5F1E  24C04000           [005] self       0   0   259  ; 1861369943
5F22  97008000           [006] loadbool   2   1   0    ; true
5F26  22408001           [007] call       0   3   1  
5F2A  1D000000           [008] getglobal  0   0        ; _T
5F2E  53000000           [009] getupval   1   0      
5F32  0C400082           [010] settable   0   260 1    ; "SetSyndicateForDogTag"
5F36  1D400100           [011] getglobal  0   5        ; mMovie
5F3A  24804100           [012] self       0   0   262  ; 471456102
5F3E  99C00100           [013] loadk      2   7        ; "_root"
5F42  D9000200           [014] loadk      3   8        ; "_alpha"
5F46  19410200           [015] loadk      4   9        ; 0
5F4A  22408002           [016] call       0   5   1  
5F4E  13008000           [017] getupval   0   1      
5F52  0E804200           [018] gettable   0   0   266  ; -1152582673
5F56  5D400100           [019] getglobal  1   5        ; mMovie
5F5A  99C00200           [020] loadk      2   11       ; "Bluer"
5F5E  22408001           [021] call       0   3   1  
5F62  13008000           [022] getupval   0   1      
5F66  0E004300           [023] gettable   0   0   268  ; -1434426343
5F6A  22808000           [024] call       0   1   2  
fail op	8
5F6E  08000001           [025] setupval   0   2      
5F72  1D400100           [026] getglobal  0   5        ; mMovie
5F76  24404300           [027] self       0   0   269  ; -1207691278
5F7A  97000000           [028] loadbool   2   0   0    ; false
5F7E  22408001           [029] call       0   3   1  
5F82  1D400100           [030] getglobal  0   5        ; mMovie
5F86  24804300           [031] self       0   0   270  ; 1800181858
5F8A  97008000           [032] loadbool   2   1   0    ; true
5F8E  22408001           [033] call       0   3   1  
5F92  13008001           [034] getupval   0   3      
5F96  0EC04300           [035] gettable   0   0   271  ; 630793108
5F9A  5D000400           [036] getglobal  1   16       ; _G
5F9E  4E40C400           [037] gettable   1   1   273  ; "UISound_DialogOpen"
5FA2  22400001           [038] call       0   2   1  
5FA6  13008000           [039] getupval   0   1      
5FAA  0E804400           [040] gettable   0   0   274  ; -1522946490
5FAE  5D400100           [041] getglobal  1   5        ; mMovie
5FB2  99C00400           [042] loadk      2   19       ; "TopBg.Left"
5FB6  22408001           [043] call       0   3   1  
5FBA  13008000           [044] getupval   0   1      
5FBE  0E804400           [045] gettable   0   0   274  ; -1522946490
5FC2  5D400100           [046] getglobal  1   5        ; mMovie
5FC6  99000500           [047] loadk      2   20       ; "TopBg.Middle"
5FCA  22408001           [048] call       0   3   1  
5FCE  13008000           [049] getupval   0   1      
5FD2  0E804400           [050] gettable   0   0   274  ; -1522946490
5FD6  5D400100           [051] getglobal  1   5        ; mMovie
5FDA  99400500           [052] loadk      2   21       ; "TopBg.Right"
5FDE  22408001           [053] call       0   3   1  
5FE2  13008000           [054] getupval   0   1      
5FE6  0E804400           [055] gettable   0   0   274  ; -1522946490
5FEA  5D400100           [056] getglobal  1   5        ; mMovie
5FEE  99800500           [057] loadk      2   22       ; "SecondaryBg"
5FF2  22408001           [058] call       0   3   1  
5FF6  1DC00500           [059] getglobal  0   23       ; 849075268
5FFA  59000600           [060] loadk      1   24       ; "Lotus.Interface.Libs.DioramaLoader"
5FFE  22800001           [061] call       0   2   2  
6002  4E404600           [062] gettable   1   0   281  ; -1069406678
6006  9D400100           [063] getglobal  2   5        ; mMovie
600A  62800001           [064] call       1   2   2  
fail op	8
600E  48000002           [065] setupval   1   4      
6012  5D400100           [066] getglobal  1   5        ; mMovie
6016  6480C600           [067] self       1   1   282  ; 98241492
601A  D9C00600           [068] loadk      3   27       ; "<REPUTATION_SMALL>"
601E  17018000           [069] loadbool   4   1   0    ; true
6022  62800002           [070] call       1   4   2  
fail op	8
6026  48008002           [071] setupval   1   5      
602A  53000003           [072] getupval   1   6      
602E  62408000           [073] call       1   1   1  
6032  53008003           [074] getupval   1   7      
6036  62408000           [075] call       1   1   1  
603A  5DC00500           [076] getglobal  1   23       ; 849075268
603E  99000700           [077] loadk      2   28       ; "Lotus.Interface.Components.Button"
6042  62800001           [078] call       1   2   2  
6046  8E40C700           [079] gettable   2   1   285  ; -231553440
604A  DD400100           [080] getglobal  3   5        ; mMovie
604E  19810700           [081] loadk      4   30       ; "RedeemBtn"
6052  59C10700           [082] loadk      5   31       ; "/Lotus/Language/Menu/NoMedallionsToRedeem"
6056  99010800           [083] loadk      6   32       ; "RedeemAll"
605A  D9410800           [084] loadk      7   33       ; "<MENU_SELECT>"
605E  06028004           [085] loadnil    8   9      
6062  97028000           [086] loadbool   10  1   0    ; true
6066  A2808004           [087] call       2   9   2  
fail op	8
606A  88000004           [088] setupval   2   8      
606E  93000004           [089] getupval   2   8      
6072  8CC04891           [090] settable   2   290 291  ; "mAlignment" "center"
6076  93000004           [091] getupval   2   8      
607A  8C404992           [092] settable   2   292 293  ; "mWidth" 0
607E  93000004           [093] getupval   2   8      
6082  A4804901           [094] self       2   2   294  ; -492641364
6086  17010000           [095] loadbool   4   0   0    ; false
608A  A2408001           [096] call       2   3   1  
608E  93000004           [097] getupval   2   8      
6092  A4C04901           [098] self       2   2   295  ; 1685109492
6096  A2400001           [099] call       2   2   1  
609A  9D400100           [100] getglobal  2   5        ; mMovie
609E  A4004A01           [101] self       2   2   296  ; -266877948
60A2  19410200           [102] loadk      4   9        ; 0
60A6  A2408001           [103] call       2   3   1  
60AA  93008001           [104] getupval   2   3      
60AE  8E404A01           [105] gettable   2   2   297  ; -617354062
60B2  DD400100           [106] getglobal  3   5        ; mMovie
60B6  19810A00           [107] loadk      4   42       ; 102
60BA  59C10A00           [108] loadk      5   43       ; 51
60BE  A2400002           [109] call       2   4   1  
60C2  93008004           [110] getupval   2   9      
60C6  A2408000           [111] call       2   1   1  
60CA  1E008000           [112] return     0   1      
                         * constants:
60CE  2C                 sizek (44)
60CF  04                 const type 4
60D0  03                 string size (3)
60D1  5F5400             "_T\0"
                         const [0]: "_T"
60D4  01                 const type 3
60D5  5DD5D08E           const [1]: (-1898916515)
60D9  04                 const type 4
60DA  0B                 string size (11)
60DB  6747616D6552756C+  "gGameRul"
60E3  657300             "es\0"
                         const [2]: "gGameRules"
60E6  01                 const type 3
60E7  5740F26E           const [3]: (1861369943)
60EB  04                 const type 4
60EC  16                 string size (22)
60ED  53657453796E6469+  "SetSyndi"
60F5  63617465466F7244+  "cateForD"
60FD  6F6754616700       "ogTag\0"
                         const [4]: "SetSyndicateForDogTag"
6103  04                 const type 4
6104  07                 string size (7)
6105  6D4D6F76696500     "mMovie\0"
                         const [5]: "mMovie"
610C  01                 const type 3
610D  66D9191C           const [6]: (471456102)
6111  04                 const type 4
6112  06                 string size (6)
6113  5F726F6F7400       "_root\0"
                         const [7]: "_root"
6119  04                 const type 4
611A  07                 string size (7)
611B  5F616C70686100     "_alpha\0"
                         const [8]: "_alpha"
6122  03                 const type 3
6123  00000000           const [9]: (0)
6127  01                 const type 3
6128  EFFB4CBB           const [10]: (-1152582673)
612C  04                 const type 4
612D  06                 string size (6)
612E  426C75657200       "Bluer\0"
                         const [11]: "Bluer"
6134  01                 const type 3
6135  196480AA           const [12]: (-1434426343)
6139  01                 const type 3
613A  F21704B8           const [13]: (-1207691278)
613E  01                 const type 3
613F  62984C6B           const [14]: (1800181858)
6143  01                 const type 3
6144  94239925           const [15]: (630793108)
6148  04                 const type 4
6149  03                 string size (3)
614A  5F4700             "_G\0"
                         const [16]: "_G"
614D  04                 const type 4
614E  13                 string size (19)
614F  5549536F756E645F+  "UISound_"
6157  4469616C6F674F70+  "DialogOp"
615F  656E00             "en\0"
                         const [17]: "UISound_DialogOpen"
6162  01                 const type 3
6163  46AE39A5           const [18]: (-1522946490)
6167  04                 const type 4
6168  0B                 string size (11)
6169  546F7042672E4C65+  "TopBg.Le"
6171  667400             "ft\0"
                         const [19]: "TopBg.Left"
6174  04                 const type 4
6175  0D                 string size (13)
6176  546F7042672E4D69+  "TopBg.Mi"
617E  64646C6500         "ddle\0"
                         const [20]: "TopBg.Middle"
6183  04                 const type 4
6184  0C                 string size (12)
6185  546F7042672E5269+  "TopBg.Ri"
618D  67687400           "ght\0"
                         const [21]: "TopBg.Right"
6191  04                 const type 4
6192  0C                 string size (12)
6193  5365636F6E646172+  "Secondar"
619B  79426700           "yBg\0"
                         const [22]: "SecondaryBg"
619F  01                 const type 3
61A0  44DC9B32           const [23]: (849075268)
61A4  04                 const type 4
61A5  23                 string size (35)
61A6  4C6F7475732E496E+  "Lotus.In"
61AE  746572666163652E+  "terface."
61B6  4C6962732E44696F+  "Libs.Dio"
61BE  72616D614C6F6164+  "ramaLoad"
61C6  657200             "er\0"
                         const [24]: "Lotus.Interface.Libs.DioramaLoader"
61C9  01                 const type 3
61CA  2A2642C0           const [25]: (-1069406678)
61CE  01                 const type 3
61CF  D40BDB05           const [26]: (98241492)
61D3  04                 const type 4
61D4  13                 string size (19)
61D5  3C52455055544154+  "<REPUTAT"
61DD  494F4E5F534D414C+  "ION_SMAL"
61E5  4C3E00             "L>\0"
                         const [27]: "<REPUTATION_SMALL>"
61E8  04                 const type 4
61E9  22                 string size (34)
61EA  4C6F7475732E496E+  "Lotus.In"
61F2  746572666163652E+  "terface."
61FA  436F6D706F6E656E+  "Componen"
6202  74732E427574746F+  "ts.Butto"
620A  6E00               "n\0"
                         const [28]: "Lotus.Interface.Components.Button"
620C  01                 const type 3
620D  60C632F2           const [29]: (-231553440)
6211  04                 const type 4
6212  0A                 string size (10)
6213  52656465656D4274+  "RedeemBt"
621B  6E00               "n\0"
                         const [30]: "RedeemBtn"
621D  04                 const type 4
621E  2A                 string size (42)
621F  2F4C6F7475732F4C+  "/Lotus/L"
6227  616E67756167652F+  "anguage/"
622F  4D656E752F4E6F4D+  "Menu/NoM"
6237  6564616C6C696F6E+  "edallion"
623F  73546F5265646565+  "sToRedee"
6247  6D00               "m\0"
                         const [31]: "/Lotus/Language/Menu/NoMedallionsToRedeem"
6249  04                 const type 4
624A  0A                 string size (10)
624B  52656465656D416C+  "RedeemAl"
6253  6C00               "l\0"
                         const [32]: "RedeemAll"
6255  04                 const type 4
6256  0E                 string size (14)
6257  3C4D454E555F5345+  "<MENU_SE"
625F  4C4543543E00       "LECT>\0"
                         const [33]: "<MENU_SELECT>"
6265  04                 const type 4
6266  0B                 string size (11)
6267  6D416C69676E6D65+  "mAlignme"
626F  6E7400             "nt\0"
                         const [34]: "mAlignment"
6272  04                 const type 4
6273  07                 string size (7)
6274  63656E74657200     "center\0"
                         const [35]: "center"
627B  04                 const type 4
627C  07                 string size (7)
627D  6D576964746800     "mWidth\0"
                         const [36]: "mWidth"
6284  03                 const type 3
6285  00809544           const [37]: (0)
6289  01                 const type 3
628A  ACE3A2E2           const [38]: (-492641364)
628E  01                 const type 3
628F  F4BA7064           const [39]: (1685109492)
6293  01                 const type 3
6294  04C417F0           const [40]: (-266877948)
6298  01                 const type 3
6299  B2EC33DB           const [41]: (-617354062)
629D  03                 const type 3
629E  6666663F           const [42]: (102)
62A2  03                 const type 3
62A3  3333B33E           const [43]: (51)
                         * functions:
62A7  00                 sizep (0)
                         * lines:
62A8  70                 sizelineinfo (112)
                         [pc] (line)
62A9  96                 [001] (-106)
62AA  02                 [002] (-106)
62AB  00                 [003] (-106)
62AC  00                 [004] (-105)
62AD  96                 [005] (-105)
62AE  02                 [006] (-105)
62AF  00                 [007] (-105)
62B0  00                 [008] (-103)
62B1  96                 [009] (-103)
62B2  02                 [010] (-103)
62B3  00                 [011] (-101)
62B4  00                 [012] (-101)
62B5  97                 [013] (-101)
62B6  02                 [014] (-101)
62B7  00                 [015] (-101)
62B8  00                 [016] (-101)
62B9  97                 [017] (-99)
62BA  02                 [018] (-99)
62BB  00                 [019] (-99)
62BC  00                 [020] (-99)
62BD  97                 [021] (-99)
62BE  02                 [022] (-97)
62BF  00                 [023] (-97)
62C0  00                 [024] (-97)
62C1  97                 [025] (-97)
62C2  02                 [026] (-95)
62C3  00                 [027] (-95)
62C4  00                 [028] (-95)
62C5  99                 [029] (-95)
62C6  02                 [030] (-94)
62C7  00                 [031] (-94)
62C8  00                 [032] (-94)
62C9  99                 [033] (-94)
62CA  02                 [034] (-92)
62CB  00                 [035] (-92)
62CC  00                 [036] (-92)
62CD  99                 [037] (-92)
62CE  02                 [038] (-92)
62CF  00                 [039] (-90)
62D0  00                 [040] (-90)
62D1  9B                 [041] (-90)
62D2  02                 [042] (-90)
62D3  00                 [043] (-90)
62D4  00                 [044] (-89)
62D5  9B                 [045] (-89)
62D6  02                 [046] (-89)
62D7  00                 [047] (-89)
62D8  00                 [048] (-89)
62D9  9B                 [049] (-88)
62DA  02                 [050] (-88)
62DB  00                 [051] (-88)
62DC  00                 [052] (-88)
62DD  9B                 [053] (-88)
62DE  02                 [054] (-86)
62DF  00                 [055] (-86)
62E0  00                 [056] (-86)
62E1  9B                 [057] (-86)
62E2  02                 [058] (-86)
62E3  00                 [059] (-84)
62E4  00                 [060] (-84)
62E5  9B                 [061] (-84)
62E6  02                 [062] (-83)
62E7  00                 [063] (-83)
62E8  00                 [064] (-83)
62E9  9D                 [065] (-83)
62EA  02                 [066] (-81)
62EB  00                 [067] (-81)
62EC  00                 [068] (-81)
62ED  9D                 [069] (-81)
62EE  02                 [070] (-81)
62EF  00                 [071] (-81)
62F0  00                 [072] (-79)
62F1  9D                 [073] (-79)
62F2  02                 [074] (-78)
62F3  00                 [075] (-78)
62F4  00                 [076] (-76)
62F5  9D                 [077] (-76)
62F6  02                 [078] (-76)
62F7  00                 [079] (-75)
62F8  00                 [080] (-75)
62F9  9D                 [081] (-75)
62FA  02                 [082] (-75)
62FB  00                 [083] (-75)
62FC  00                 [084] (-75)
62FD  9F                 [085] (-75)
62FE  02                 [086] (-75)
62FF  00                 [087] (-75)
6300  00                 [088] (-75)
6301  9F                 [089] (-74)
6302  02                 [090] (-74)
6303  00                 [091] (-73)
6304  00                 [092] (-73)
6305  9F                 [093] (-72)
6306  02                 [094] (-72)
6307  00                 [095] (-72)
6308  00                 [096] (-72)
6309  9F                 [097] (-71)
630A  02                 [098] (-71)
630B  00                 [099] (-71)
630C  00                 [100] (-69)
630D  A1                 [101] (-69)
630E  02                 [102] (-69)
630F  00                 [103] (-69)
6310  00                 [104] (-68)
6311  A1                 [105] (-68)
6312  02                 [106] (-68)
6313  00                 [107] (-68)
6314  00                 [108] (-68)
6315  A1                 [109] (-68)
6316  02                 [110] (-67)
6317  00                 [111] (-67)
6318  00                 [112] (-66)
                         * locals:
6469  00                 sizelocvars (0)
                         * upvalues:
646A  00                 sizeupvalues (0)
                         ** end of function **

                         
646B                     ** function [19] definition (level 2)
                         ** start of function **
646B  00                 string size (0)
                         source name: (none)
646D  05                 line defined (704)
646E  D6                 last line defined (726)
646F  05                 nups (9)
6470  09                 numparams (1)
6471  01                 is_vararg (0)
6472  00                 maxstacksize (8)
                         * code:
6474  43                 sizecode (67)
fail op	8
6475  48000000           [01] setupval   1   0      
6479  57008000           [02] loadbool   1   1   0    ; true
fail op	8
647D  48008000           [03] setupval   1   1      
6481  5D000000           [04] getglobal  1   0        ; -174740002
6485  92000000           [05] move       2   0      
6489  62800001           [06] call       1   2   2  
648D  9D400000           [07] getglobal  2   1        ; Engine
6491  8E804001           [08] gettable   2   2   258  ; "CI_SELECT"
fail op	35
6495  23808000           [09] close      0  
6499  1AC00C80           [10] jmp        52           ; to [63]
649D  53008001           [11] getupval   1   3      
64A1  4EC0C000           [12] gettable   1   1   259  ; 630793108
64A5  93000002           [13] getupval   2   4      
64A9  62800001           [14] call       1   2   2  
fail op	8
64AD  48000001           [15] setupval   1   2      
64B1  5D000100           [16] getglobal  1   4        ; _T
64B5  4E40C100           [17] gettable   1   1   261  ; "ShowImpactMessage"
64B9  58000000           [18] test       1       0    ; to [20] if true
64BD  1A400480           [19] jmp        18           ; to [38]
64C1  5D800100           [20] getglobal  1   6        ; -421772368
64C5  99C00100           [21] loadk      2   7        ; "/Lotus/Language/Syndicates/Syndicates_EventItemRedeemedMessage"
64C9  CB400000           [22] newtable   3   0   1    ; array=0, hash=1
64CD  13018001           [23] getupval   4   3      
64D1  0E414202           [24] gettable   4   4   265  ; 2115597333
64D5  53018002           [25] getupval   5   5      
64D9  99810200           [26] loadk      6   10       ; 0
64DD  22818001           [27] call       4   3   2  
64E1  CC000184           [28] settable   3   264 4    ; "AMOUNT"
64E5  62808001           [29] call       1   3   2  
64E9  9D000100           [30] getglobal  2   4        ; _T
64ED  8EC04201           [31] gettable   2   2   267  ; -1553752463
64F1  D2008000           [32] move       3   1      
64F5  19010300           [33] loadk      4   12       ; 0
64F9  57018000           [34] loadbool   5   1   0    ; true
64FD  86010003           [35] loadnil    6   6      
6501  D7010000           [36] loadbool   7   0   0    ; false
6505  A2400003           [37] call       2   6   1  
6509  9D400300           [38] getglobal  2   13       ; Lotus_Game
650D  8E804301           [39] gettable   2   2   270  ; 1225582471
6511  A2808000           [40] call       2   1   2  
fail op	8
6515  88000003           [41] setupval   2   6      
6519  93000003           [42] getupval   2   6      
651D  D3008003           [43] getupval   3   7      
6521  E400C401           [44] self       3   3   272  ; -420413565
6525  E2800001           [45] call       3   2   2  
6529  8CC08087           [46] settable   2   271 3    ; "mAffiliationTag"
652D  93000003           [47] getupval   2   6      
6531  A4404401           [48] self       2   2   273  ; 304667022
6535  13010004           [49] getupval   4   8      
6539  59810400           [50] loadk      5   18       ; 0
653D  A2400002           [51] call       2   4   1  
6541  9DC00400           [52] getglobal  2   19       ; gPlayerProfileMgr
6545  A4004501           [53] self       2   2   276  ; 569342746
6549  19810200           [54] loadk      4   10       ; 0
654D  A2808001           [55] call       2   3   2  
6551  E4404501           [56] self       3   2   277  ; 1699680402
6555  E2800001           [57] call       3   2   2  
6559  2481C501           [58] self       4   3   278  ; 1023371593
655D  93010003           [59] getupval   6   6      
6561  D9C10500           [60] loadk      7   23       ; "OnRedeemAllComplete"
6565  22410002           [61] call       4   4   1  
6569  1AC00080           [62] jmp        4            ; to [67]
656D  1D010600           [63] getglobal  4   24       ; mMovie
6571  24414602           [64] self       4   4   281  ; 1649906088
6575  97018000           [65] loadbool   6   1   0    ; true
6579  22418001           [66] call       4   3   1  
657D  1E008000           [67] return     0   1      
                         * constants:
6581  1A                 sizek (26)
6582  01                 const type 3
6583  DEAD95F5           const [0]: (-174740002)
6587  04                 const type 4
6588  07                 string size (7)
6589  456E67696E6500     "Engine\0"
                         const [1]: "Engine"
6590  04                 const type 4
6591  0A                 string size (10)
6592  43495F53454C4543+  "CI_SELEC"
659A  5400               "T\0"
                         const [2]: "CI_SELECT"
659C  01                 const type 3
659D  94239925           const [3]: (630793108)
65A1  04                 const type 4
65A2  03                 string size (3)
65A3  5F5400             "_T\0"
                         const [4]: "_T"
65A6  04                 const type 4
65A7  12                 string size (18)
65A8  53686F77496D7061+  "ShowImpa"
65B0  63744D6573736167+  "ctMessag"
65B8  6500               "e\0"
                         const [5]: "ShowImpactMessage"
65BA  01                 const type 3
65BB  B043DCE6           const [6]: (-421772368)
65BF  04                 const type 4
65C0  3F                 string size (63)
65C1  2F4C6F7475732F4C+  "/Lotus/L"
65C9  616E67756167652F+  "anguage/"
65D1  53796E6469636174+  "Syndicat"
65D9  65732F53796E6469+  "es/Syndi"
65E1  63617465735F4576+  "cates_Ev"
65E9  656E744974656D52+  "entItemR"
65F1  656465656D65644D+  "edeemedM"
65F9  65737361676500     "essage\0"
                         const [7]: "/Lotus/Language/Syndicates/Syndicates_EventItemRedeemedMessage"
6600  04                 const type 4
6601  07                 string size (7)
6602  414D4F554E5400     "AMOUNT\0"
                         const [8]: "AMOUNT"
6609  01                 const type 3
660A  1574197E           const [9]: (2115597333)
660E  03                 const type 3
660F  00000000           const [10]: (0)
6613  01                 const type 3
6614  719E63A3           const [11]: (-1553752463)
6618  03                 const type 3
6619  0000C040           const [12]: (0)
661D  04                 const type 4
661E  0B                 string size (11)
661F  4C6F7475735F4761+  "Lotus_Ga"
6627  6D6500             "me\0"
                         const [13]: "Lotus_Game"
662A  01                 const type 3
662B  87E70C49           const [14]: (1225582471)
662F  04                 const type 4
6630  10                 string size (16)
6631  6D416666696C6961+  "mAffilia"
6639  74696F6E54616700   "tionTag\0"
                         const [15]: "mAffiliationTag"
6641  01                 const type 3
6642  83FFF0E6           const [16]: (-420413565)
6646  01                 const type 3
6647  8ED92812           const [17]: (304667022)
664B  03                 const type 3
664C  0000803F           const [18]: (0)
6650  04                 const type 4
6651  12                 string size (18)
6652  67506C6179657250+  "gPlayerP"
665A  726F66696C654D67+  "rofileMg"
6662  7200               "r\0"
                         const [19]: "gPlayerProfileMgr"
6664  01                 const type 3
6665  1A7BEF21           const [20]: (569342746)
6669  01                 const type 3
666A  92104F65           const [21]: (1699680402)
666E  01                 const type 3
666F  4969FF3C           const [22]: (1023371593)
6673  04                 const type 4
6674  14                 string size (20)
6675  4F6E52656465656D+  "OnRedeem"
667D  416C6C436F6D706C+  "AllCompl"
6685  65746500           "ete\0"
                         const [23]: "OnRedeemAllComplete"
6689  04                 const type 4
668A  07                 string size (7)
668B  6D4D6F76696500     "mMovie\0"
                         const [24]: "mMovie"
6692  01                 const type 3
6693  A8915762           const [25]: (1649906088)
                         * functions:
6697  00                 sizep (0)
                         * lines:
6698  43                 sizelineinfo (67)
                         [pc] (line)
6699  C1                 [01] (-63)
669A  02                 [02] (-62)
669B  00                 [03] (-62)
669C  00                 [04] (-60)
669D  C2                 [05] (-60)
669E  02                 [06] (-60)
669F  00                 [07] (-60)
66A0  00                 [08] (-60)
66A1  C2                 [09] (-60)
66A2  02                 [10] (-60)
66A3  00                 [11] (-59)
66A4  00                 [12] (-59)
66A5  C4                 [13] (-59)
66A6  02                 [14] (-59)
66A7  00                 [15] (-59)
66A8  00                 [16] (-58)
66A9  C4                 [17] (-58)
66AA  02                 [18] (-58)
66AB  00                 [19] (-58)
66AC  00                 [20] (-57)
66AD  C4                 [21] (-57)
66AE  02                 [22] (-57)
66AF  00                 [23] (-57)
66B0  00                 [24] (-57)
66B1  C4                 [25] (-57)
66B2  02                 [26] (-57)
66B3  00                 [27] (-57)
66B4  00                 [28] (-57)
66B5  C4                 [29] (-57)
66B6  02                 [30] (-56)
66B7  00                 [31] (-56)
66B8  00                 [32] (-56)
66B9  C4                 [33] (-56)
66BA  02                 [34] (-56)
66BB  00                 [35] (-56)
66BC  00                 [36] (-56)
66BD  C4                 [37] (-56)
66BE  02                 [38] (-52)
66BF  00                 [39] (-52)
66C0  00                 [40] (-52)
66C1  C5                 [41] (-52)
66C2  02                 [42] (-51)
66C3  00                 [43] (-51)
66C4  00                 [44] (-51)
66C5  C5                 [45] (-51)
66C6  02                 [46] (-51)
66C7  00                 [47] (-50)
66C8  00                 [48] (-50)
66C9  C5                 [49] (-50)
66CA  02                 [50] (-50)
66CB  00                 [51] (-50)
66CC  00                 [52] (-48)
66CD  C5                 [53] (-48)
66CE  02                 [54] (-48)
66CF  00                 [55] (-48)
66D0  00                 [56] (-47)
66D1  C5                 [57] (-47)
66D2  02                 [58] (-46)
66D3  00                 [59] (-46)
66D4  00                 [60] (-46)
66D5  C6                 [61] (-46)
66D6  02                 [62] (-46)
66D7  00                 [63] (-44)
66D8  00                 [64] (-44)
66D9  C6                 [65] (-44)
66DA  02                 [66] (-44)
66DB  00                 [67] (-42)
                         * locals:
67A5  00                 sizelocvars (0)
                         * upvalues:
67A6  00                 sizeupvalues (0)
                         ** end of function **

                         
67A7                     ** function [20] definition (level 2)
                         ** start of function **
67A7  00                 string size (0)
                         source name: (none)
67A9  05                 line defined (728)
67AA  F5                 last line defined (757)
67AB  05                 nups (10)
67AC  0A                 numparams (0)
67AD  00                 is_vararg (0)
67AE  00                 maxstacksize (8)
                         * code:
67B0  59                 sizecode (89)
67B1  13000000           [01] getupval   0   0      
67B5  18400000           [02] test       0       1    ; to [4] if false
67B9  1AC00180           [03] jmp        8            ; to [12]
67BD  13008000           [04] getupval   0   1      
67C1  18400000           [05] test       0       1    ; to [7] if false
67C5  1A000180           [06] jmp        5            ; to [12]
67C9  1D000000           [07] getglobal  0   0        ; 1074689893
67CD  53000001           [08] getupval   1   2      
67D1  22800001           [09] call       0   2   2  
67D5  18400000           [10] test       0       1    ; to [12] if false
67D9  1AC00980           [11] jmp        40           ; to [52]
67DD  13008000           [12] getupval   0   1      
67E1  18000000           [13] test       0       0    ; to [15] if true
67E5  1A800880           [14] jmp        35           ; to [50]
67E9  1D000000           [15] getglobal  0   0        ; 1074689893
67ED  53000001           [16] getupval   1   2      
67F1  22800001           [17] call       0   2   2  
67F5  18000000           [18] test       0       0    ; to [20] if true
67F9  1A400780           [19] jmp        30           ; to [50]
67FD  1D400000           [20] getglobal  0   1        ; Engine
6801  0E804000           [21] gettable   0   0   258  ; -227457219
6805  22808000           [22] call       0   1   2  
6809  5D400000           [23] getglobal  1   1        ; Engine
680D  4E00C100           [24] gettable   1   1   260  ; "OkCancel"
6811  0C408081           [25] settable   0   259 1    ; "dialogType"
6815  5D800100           [26] getglobal  1   6        ; -421772368
6819  99C00100           [27] loadk      2   7        ; "/Lotus/Language/Syndicates/Syndicates_TradeInEventItem"
681D  CB400000           [28] newtable   3   0   1    ; array=0, hash=1
6821  1D810100           [29] getglobal  4   6        ; -421772368
6825  5D410200           [30] getglobal  5   9        ; -1615931716
6829  93018001           [31] getupval   6   3      
682D  A4814203           [32] self       6   6   266  ; 1634497718
6831  A2010001           [33] call       6   2   0  
6835  62810000           [34] call       5   0   2  
6839  86010003           [35] loadnil    6   6      
683D  22818001           [36] call       4   3   2  
6841  CC000184           [37] settable   3   264 4    ; "ITEM"
6845  62808001           [38] call       1   3   2  
6849  0C408082           [39] settable   0   261 1    ; "locString"
684D  64C04200           [40] self       1   0   267  ; 1772396888
6851  D9000300           [41] loadk      3   12       ; "ConfirmKelaDogTag"
6855  62408001           [42] call       1   3   1  
6859  53000002           [43] getupval   1   4      
685D  4E40C300           [44] gettable   1   1   269  ; -2098155246
6861  92000000           [45] move       2   0      
6865  62800001           [46] call       1   2   2  
fail op	8
6869  48000000           [47] setupval   1   0      
686D  57000000           [48] loadbool   1   0   0    ; false
fail op	8
6871  48008000           [49] setupval   1   1      
6875  1E008000           [50] return     0   1      
6879  1A000280           [51] jmp        9            ; to [61]
687D  53008002           [52] getupval   1   5      
6881  58000000           [53] test       1       0    ; to [55] if true
6885  1A400180           [54] jmp        6            ; to [61]
6889  57000000           [55] loadbool   1   0   0    ; false
fail op	8
688D  48008002           [56] setupval   1   5      
6891  5D800300           [57] getglobal  1   14       ; mMovie
6895  64C0C300           [58] self       1   1   271  ; 1649906088
6899  D7008000           [59] loadbool   3   1   0    ; true
689D  62408001           [60] call       1   3   1  
68A1  5D800300           [61] getglobal  1   14       ; mMovie
68A5  6400C400           [62] self       1   1   272  ; 135097114
68A9  DD400400           [63] getglobal  3   17       ; 1289681407
68AD  E2008000           [64] call       3   1   0  
68B1  62400000           [65] call       1   0   1  
68B5  53000003           [66] getupval   1   6      
fail op	35
68B9  6380C400           [67] close      1  
68BD  1A800380           [68] jmp        15           ; to [84]
68C1  5D000000           [69] getglobal  1   0        ; 1074689893
68C5  9DC00400           [70] getglobal  2   19       ; _T
68C9  D3000003           [71] getupval   3   6      
68CD  8EC00001           [72] gettable   2   2   3  
68D1  62800001           [73] call       1   2   2  
68D5  58400000           [74] test       1       1    ; to [76] if false
68D9  1AC00180           [75] jmp        8            ; to [84]
68DD  5DC00400           [76] getglobal  1   19       ; _T
68E1  93000003           [77] getupval   2   6      
68E5  4E808000           [78] gettable   1   1   2  
68E9  9D800300           [79] getglobal  2   14       ; mMovie
68ED  D3008003           [80] getupval   3   7      
68F1  62408001           [81] call       1   3   1  
68F5  57008000           [82] loadbool   1   1   0    ; true
fail op	8
68F9  48008003           [83] setupval   1   7      
68FD  53000004           [84] getupval   1   8      
6901  62408000           [85] call       1   1   1  
6905  53008004           [86] getupval   1   9      
6909  4E00C500           [87] gettable   1   1   276  ; 2037147949
690D  62408000           [88] call       1   1   1  
6911  1E008000           [89] return     0   1      
                         * constants:
6915  15                 sizek (21)
6916  01                 const type 3
6917  65770E40           const [0]: (1074689893)
691B  04                 const type 4
691C  07                 string size (7)
691D  456E67696E6500     "Engine\0"
                         const [1]: "Engine"
6924  01                 const type 3
6925  3D4771F2           const [2]: (-227457219)
6929  04                 const type 4
692A  0B                 string size (11)
692B  6469616C6F675479+  "dialogTy"
6933  706500             "pe\0"
                         const [3]: "dialogType"
6936  04                 const type 4
6937  09                 string size (9)
6938  4F6B43616E63656C+  "OkCancel"
6940  00                 "\0"
                         const [4]: "OkCancel"
6941  04                 const type 4
6942  0A                 string size (10)
6943  6C6F63537472696E+  "locStrin"
694B  6700               "g\0"
                         const [5]: "locString"
694D  01                 const type 3
694E  B043DCE6           const [6]: (-421772368)
6952  04                 const type 4
6953  37                 string size (55)
6954  2F4C6F7475732F4C+  "/Lotus/L"
695C  616E67756167652F+  "anguage/"
6964  53796E6469636174+  "Syndicat"
696C  65732F53796E6469+  "es/Syndi"
6974  63617465735F5472+  "cates_Tr"
697C  616465496E457665+  "adeInEve"
6984  6E744974656D00     "ntItem\0"
                         const [7]: "/Lotus/Language/Syndicates/Syndicates_TradeInEventItem"
698B  04                 const type 4
698C  05                 string size (5)
698D  4954454D00         "ITEM\0"
                         const [8]: "ITEM"
6992  01                 const type 3
6993  BCD6AE9F           const [9]: (-1615931716)
6997  01                 const type 3
6998  B6746C61           const [10]: (1634497718)
699C  01                 const type 3
699D  58A1A469           const [11]: (1772396888)
69A1  04                 const type 4
69A2  12                 string size (18)
69A3  436F6E6669726D4B+  "ConfirmK"
69AB  656C61446F675461+  "elaDogTa"
69B3  6700               "g\0"
                         const [12]: "ConfirmKelaDogTag"
69B5  01                 const type 3
69B6  12B1F082           const [13]: (-2098155246)
69BA  04                 const type 4
69BB  07                 string size (7)
69BC  6D4D6F76696500     "mMovie\0"
                         const [14]: "mMovie"
69C3  01                 const type 3
69C4  A8915762           const [15]: (1649906088)
69C8  01                 const type 3
69C9  1A6B0D08           const [16]: (135097114)
69CD  01                 const type 3
69CE  FFF9DE4C           const [17]: (1289681407)
69D2  00                 const type 0
                         const [18]: nil
69D3  04                 const type 4
69D4  03                 string size (3)
69D5  5F5400             "_T\0"
                         const [19]: "_T"
69D8  01                 const type 3
69D9  2D696C79           const [20]: (2037147949)
                         * functions:
69DD  00                 sizep (0)
                         * lines:
69DE  59                 sizelineinfo (89)
                         [pc] (line)
69DF  DA                 [01] (-38)
69E0  02                 [02] (-38)
69E1  00                 [03] (-38)
69E2  00                 [04] (-38)
69E3  DA                 [05] (-38)
69E4  02                 [06] (-38)
69E5  00                 [07] (-38)
69E6  00                 [08] (-38)
69E7  DA                 [09] (-38)
69E8  02                 [10] (-38)
69E9  00                 [11] (-38)
69EA  00                 [12] (-37)
69EB  DA                 [13] (-37)
69EC  02                 [14] (-37)
69ED  00                 [15] (-37)
69EE  00                 [16] (-37)
69EF  DA                 [17] (-37)
69F0  02                 [18] (-37)
69F1  00                 [19] (-37)
69F2  00                 [20] (-36)
69F3  DA                 [21] (-36)
69F4  02                 [22] (-36)
69F5  00                 [23] (-35)
69F6  00                 [24] (-35)
69F7  DA                 [25] (-35)
69F8  02                 [26] (-34)
69F9  00                 [27] (-34)
69FA  00                 [28] (-34)
69FB  DA                 [29] (-34)
69FC  02                 [30] (-34)
69FD  00                 [31] (-34)
69FE  00                 [32] (-34)
69FF  DA                 [33] (-34)
6A00  02                 [34] (-34)
6A01  00                 [35] (-34)
6A02  00                 [36] (-34)
6A03  DA                 [37] (-34)
6A04  02                 [38] (-34)
6A05  00                 [39] (-34)
6A06  00                 [40] (-33)
6A07  DA                 [41] (-33)
6A08  02                 [42] (-33)
6A09  00                 [43] (-31)
6A0A  00                 [44] (-31)
6A0B  DB                 [45] (-31)
6A0C  02                 [46] (-31)
6A0D  00                 [47] (-31)
6A0E  00                 [48] (-30)
6A0F  DB                 [49] (-30)
6A10  02                 [50] (-28)
6A11  00                 [51] (-28)
6A12  00                 [52] (-27)
6A13  DB                 [53] (-27)
6A14  02                 [54] (-27)
6A15  00                 [55] (-26)
6A16  00                 [56] (-26)
6A17  DB                 [57] (-25)
6A18  02                 [58] (-25)
6A19  00                 [59] (-25)
6A1A  00                 [60] (-25)
6A1B  DB                 [61] (-22)
6A1C  02                 [62] (-22)
6A1D  00                 [63] (-22)
6A1E  00                 [64] (-22)
6A1F  DB                 [65] (-22)
6A20  02                 [66] (-20)
6A21  00                 [67] (-20)
6A22  00                 [68] (-20)
6A23  DB                 [69] (-20)
6A24  02                 [70] (-20)
6A25  00                 [71] (-20)
6A26  00                 [72] (-20)
6A27  DB                 [73] (-20)
6A28  02                 [74] (-20)
6A29  00                 [75] (-20)
6A2A  00                 [76] (-19)
6A2B  DC                 [77] (-19)
6A2C  02                 [78] (-19)
6A2D  00                 [79] (-19)
6A2E  00                 [80] (-19)
6A2F  DC                 [81] (-19)
6A30  02                 [82] (-17)
6A31  00                 [83] (-17)
6A32  00                 [84] (-14)
6A33  DC                 [85] (-14)
6A34  02                 [86] (-12)
6A35  00                 [87] (-12)
6A36  00                 [88] (-12)
6A37  DD                 [89] (-11)
                         * locals:
6B43  00                 sizelocvars (0)
                         * upvalues:
6B44  00                 sizeupvalues (0)
                         ** end of function **

                         
6B45                     ** function [21] definition (level 2)
                         ** start of function **
6B45  00                 string size (0)
                         source name: (none)
6B47  05                 line defined (759)
6B48  FD                 last line defined (765)
6B49  05                 nups (2)
6B4A  02                 numparams (0)
6B4B  00                 is_vararg (0)
6B4C  00                 maxstacksize (2)
                         * code:
6B4E  07                 sizecode (7)
6B4F  13000000           [1] getupval   0   0      
6B53  18000000           [2] test       0       0    ; to [4] if true
6B57  1A000080           [3] jmp        1            ; to [5]
6B5B  1E008000           [4] return     0   1      
6B5F  13008000           [5] getupval   0   1      
6B63  22408000           [6] call       0   1   1  
6B67  1E008000           [7] return     0   1      
                         * constants:
6B6B  00                 sizek (0)
                         * functions:
6B6C  00                 sizep (0)
                         * lines:
6B6D  07                 sizelineinfo (7)
                         [pc] (line)
6B6E  F8                 [1] (-8)
6B6F  02                 [2] (-8)
6B70  00                 [3] (-8)
6B71  00                 [4] (-7)
6B72  F8                 [5] (-4)
6B73  02                 [6] (-4)
6B74  00                 [7] (-3)
                         * locals:
6B8A  00                 sizelocvars (0)
                         * upvalues:
6B8B  00                 sizeupvalues (0)
                         ** end of function **

                         
6B8C                     ** function [22] definition (level 2)
                         ** start of function **
6B8C  00                 string size (0)
                         source name: (none)
6B8E  05                 line defined (767)
6B8F  84                 last line defined (772)
6B90  06                 nups (0)
6B91  00                 numparams (0)
6B92  00                 is_vararg (0)
6B93  00                 maxstacksize (3)
                         * code:
6B95  0D                 sizecode (13)
6B96  1D000000           [01] getglobal  0   0        ; _T
6B9A  0E404000           [02] gettable   0   0   257  ; 1170981787
6B9E  22408000           [03] call       0   1   1  
6BA2  1D800000           [04] getglobal  0   2        ; 1074689893
6BA6  5DC00000           [05] getglobal  1   3        ; gGameRules
6BAA  22800001           [06] call       0   2   2  
6BAE  18400000           [07] test       0       1    ; to [9] if false
6BB2  1AC00080           [08] jmp        4            ; to [13]
6BB6  1DC00000           [09] getglobal  0   3        ; gGameRules
6BBA  24004100           [10] self       0   0   260  ; 1861369943
6BBE  97000000           [11] loadbool   2   0   0    ; false
6BC2  22408001           [12] call       0   3   1  
6BC6  1E008000           [13] return     0   1      
                         * constants:
6BCA  05                 sizek (5)
6BCB  04                 const type 4
6BCC  03                 string size (3)
6BCD  5F5400             "_T\0"
                         const [0]: "_T"
6BD0  01                 const type 3
6BD1  9BC3CB45           const [1]: (1170981787)
6BD5  01                 const type 3
6BD6  65770E40           const [2]: (1074689893)
6BDA  04                 const type 4
6BDB  0B                 string size (11)
6BDC  6747616D6552756C+  "gGameRul"
6BE4  657300             "es\0"
                         const [3]: "gGameRules"
6BE7  01                 const type 3
6BE8  5740F26E           const [4]: (1861369943)
                         * functions:
6BEC  00                 sizep (0)
                         * lines:
6BED  0D                 sizelineinfo (13)
                         [pc] (line)
6BEE  00                 [01] (0)
6BEF  03                 [02] (0)
6BF0  00                 [03] (0)
6BF1  00                 [04] (1)
6BF2  00                 [05] (1)
6BF3  03                 [06] (1)
6BF4  00                 [07] (1)
6BF5  00                 [08] (1)
6BF6  00                 [09] (2)
6BF7  03                 [10] (2)
6BF8  00                 [11] (2)
6BF9  00                 [12] (2)
6BFA  01                 [13] (4)
                         * locals:
6C22  00                 sizelocvars (0)
                         * upvalues:
6C23  00                 sizeupvalues (0)
                         ** end of function **

                         
6C24                     ** function [23] definition (level 2)
                         ** start of function **
6C24  00                 string size (0)
                         source name: (none)
6C26  06                 line defined (774)
6C27  8C                 last line defined (780)
6C28  06                 nups (2)
6C29  02                 numparams (1)
6C2A  01                 is_vararg (0)
6C2B  00                 maxstacksize (6)
                         * code:
6C2D  10                 sizecode (16)
6C2E  53000000           [01] getupval   1   0      
6C32  58400000           [02] test       1       1    ; to [4] if false
6C36  1AC00280           [03] jmp        12           ; to [16]
6C3A  53008000           [04] getupval   1   1      
6C3E  4E00C000           [05] gettable   1   1   256  ; 630793108
6C42  9D400000           [06] getglobal  2   1        ; _G
6C46  8E804001           [07] gettable   2   2   258  ; "UISound_Focus"
6C4A  62400001           [08] call       1   2   1  
6C4E  5DC00000           [09] getglobal  1   3        ; mMovie
6C52  6400C100           [10] self       1   1   260  ; 471456102
6C56  D9400100           [11] loadk      3   5        ; "DetailedPanel.PurchasePanel.Background"
6C5A  19810100           [12] loadk      4   6        ; "_color"
6C5E  5D410000           [13] getglobal  5   1        ; _G
6C62  4EC1C102           [14] gettable   5   5   263  ; "UIColor_Yellow"
6C66  62408002           [15] call       1   5   1  
6C6A  1E008000           [16] return     0   1      
                         * constants:
6C6E  08                 sizek (8)
6C6F  01                 const type 3
6C70  94239925           const [0]: (630793108)
6C74  04                 const type 4
6C75  03                 string size (3)
6C76  5F4700             "_G\0"
                         const [1]: "_G"
6C79  04                 const type 4
6C7A  0E                 string size (14)
6C7B  5549536F756E645F+  "UISound_"
6C83  466F63757300       "Focus\0"
                         const [2]: "UISound_Focus"
6C89  04                 const type 4
6C8A  07                 string size (7)
6C8B  6D4D6F76696500     "mMovie\0"
                         const [3]: "mMovie"
6C92  01                 const type 3
6C93  66D9191C           const [4]: (471456102)
6C97  04                 const type 4
6C98  27                 string size (39)
6C99  44657461696C6564+  "Detailed"
6CA1  50616E656C2E5075+  "Panel.Pu"
6CA9  7263686173655061+  "rchasePa"
6CB1  6E656C2E4261636B+  "nel.Back"
6CB9  67726F756E6400     "ground\0"
                         const [5]: "DetailedPanel.PurchasePanel.Background"
6CC0  04                 const type 4
6CC1  07                 string size (7)
6CC2  5F636F6C6F7200     "_color\0"
                         const [6]: "_color"
6CC9  04                 const type 4
6CCA  0F                 string size (15)
6CCB  5549436F6C6F725F+  "UIColor_"
6CD3  59656C6C6F7700     "Yellow\0"
                         const [7]: "UIColor_Yellow"
                         * functions:
6CDA  00                 sizep (0)
                         * lines:
6CDB  10                 sizelineinfo (16)
                         [pc] (line)
6CDC  07                 [01] (7)
6CDD  03                 [02] (7)
6CDE  00                 [03] (7)
6CDF  00                 [04] (8)
6CE0  07                 [05] (8)
6CE1  03                 [06] (8)
6CE2  00                 [07] (8)
6CE3  00                 [08] (8)
6CE4  07                 [09] (10)
6CE5  03                 [10] (10)
6CE6  00                 [11] (10)
6CE7  00                 [12] (10)
6CE8  08                 [13] (10)
6CE9  03                 [14] (10)
6CEA  00                 [15] (10)
6CEB  00                 [16] (12)
                         * locals:
6D1C  00                 sizelocvars (0)
                         * upvalues:
6D1D  00                 sizeupvalues (0)
                         ** end of function **

                         
6D1E                     ** function [24] definition (level 2)
                         ** start of function **
6D1E  00                 string size (0)
                         source name: (none)
6D20  06                 line defined (782)
6D21  90                 last line defined (784)
6D22  06                 nups (0)
6D23  00                 numparams (1)
6D24  01                 is_vararg (0)
6D25  00                 maxstacksize (6)
                         * code:
6D27  08                 sizecode (8)
6D28  5D000000           [1] getglobal  1   0        ; mMovie
6D2C  6440C000           [2] self       1   1   257  ; 471456102
6D30  D9800000           [3] loadk      3   2        ; "DetailedPanel.PurchasePanel.Background"
6D34  19C10000           [4] loadk      4   3        ; "_color"
6D38  5D010100           [5] getglobal  5   4        ; _G
6D3C  4E41C102           [6] gettable   5   5   261  ; "UIColor_White"
6D40  62408002           [7] call       1   5   1  
6D44  1E008000           [8] return     0   1      
                         * constants:
6D48  06                 sizek (6)
6D49  04                 const type 4
6D4A  07                 string size (7)
6D4B  6D4D6F76696500     "mMovie\0"
                         const [0]: "mMovie"
6D52  01                 const type 3
6D53  66D9191C           const [1]: (471456102)
6D57  04                 const type 4
6D58  27                 string size (39)
6D59  44657461696C6564+  "Detailed"
6D61  50616E656C2E5075+  "Panel.Pu"
6D69  7263686173655061+  "rchasePa"
6D71  6E656C2E4261636B+  "nel.Back"
6D79  67726F756E6400     "ground\0"
                         const [2]: "DetailedPanel.PurchasePanel.Background"
6D80  04                 const type 4
6D81  07                 string size (7)
6D82  5F636F6C6F7200     "_color\0"
                         const [3]: "_color"
6D89  04                 const type 4
6D8A  03                 string size (3)
6D8B  5F4700             "_G\0"
                         const [4]: "_G"
6D8E  04                 const type 4
6D8F  0E                 string size (14)
6D90  5549436F6C6F725F+  "UIColor_"
6D98  576869746500       "White\0"
                         const [5]: "UIColor_White"
                         * functions:
6D9E  00                 sizep (0)
                         * lines:
6D9F  08                 sizelineinfo (8)
                         [pc] (line)
6DA0  0F                 [1] (15)
6DA1  03                 [2] (15)
6DA2  00                 [3] (15)
6DA3  00                 [4] (15)
6DA4  0F                 [5] (15)
6DA5  03                 [6] (15)
6DA6  00                 [7] (15)
6DA7  00                 [8] (16)
                         * locals:
6DC0  00                 sizelocvars (0)
                         * upvalues:
6DC1  00                 sizeupvalues (0)
                         ** end of function **

                         
6DC2                     ** function [25] definition (level 2)
                         ** start of function **
6DC2  00                 string size (0)
                         source name: (none)
6DC4  06                 line defined (786)
6DC5  96                 last line defined (790)
6DC6  06                 nups (1)
6DC7  01                 numparams (1)
6DC8  01                 is_vararg (0)
6DC9  00                 maxstacksize (2)
                         * code:
6DCB  05                 sizecode (5)
6DCC  53000000           [1] getupval   1   0      
6DD0  58000000           [2] test       1       0    ; to [4] if true
6DD4  1A000080           [3] jmp        1            ; to [5]
6DD8  1E008000           [4] return     0   1      
6DDC  1E008000           [5] return     0   1      
                         * constants:
6DE0  00                 sizek (0)
                         * functions:
6DE1  00                 sizep (0)
                         * lines:
6DE2  05                 sizelineinfo (5)
                         [pc] (line)
6DE3  13                 [1] (19)
6DE4  03                 [2] (19)
6DE5  00                 [3] (19)
6DE6  00                 [4] (20)
6DE7  13                 [5] (22)
                         * locals:
6DF7  00                 sizelocvars (0)
                         * upvalues:
6DF8  00                 sizeupvalues (0)
                         ** end of function **

                         
6DF9                     ** function [26] definition (level 2)
                         ** start of function **
6DF9  00                 string size (0)
                         source name: (none)
6DFB  06                 line defined (792)
6DFC  A6                 last line defined (806)
6DFD  06                 nups (8)
6DFE  08                 numparams (1)
6DFF  01                 is_vararg (0)
6E00  00                 maxstacksize (6)
                         * code:
6E02  29                 sizecode (41)
6E03  53000000           [01] getupval   1   0      
6E07  58400000           [02] test       1       1    ; to [4] if false
6E0B  1A000980           [03] jmp        37           ; to [41]
6E0F  53008000           [04] getupval   1   1      
6E13  6400C000           [05] self       1   1   256  ; 991780788
6E17  D2000000           [06] move       3   0      
6E1B  62808001           [07] call       1   3   2  
6E1F  93008000           [08] getupval   2   1      
6E23  A4404001           [09] self       2   2   257  ; -681678822
6E27  12018000           [10] move       4   1      
6E2B  A2808001           [11] call       2   3   2  
6E2F  98000000           [12] test       2       0    ; to [14] if true
6E33  1AC00280           [13] jmp        12           ; to [26]
6E37  CE804001           [14] gettable   3   2   258  ; "mClipName"
6E3B  D8000000           [15] test       3       0    ; to [17] if true
6E3F  1A000280           [16] jmp        9            ; to [26]
6E43  CEC04001           [17] gettable   3   2   259  ; "Count"
6E47  0E014101           [18] gettable   4   2   260  ; "Donated"
fail op	21
6E4B  15C00002           [19] concat     0   4   3  
6E4F  1A000180           [20] jmp        5            ; to [26]
6E53  D3000001           [21] getupval   3   2      
6E57  12010001           [22] move       4   2      
6E5B  4E014101           [23] gettable   5   2   260  ; "Donated"
6E5F  4341C102           [24] add        5   5   261  ; 0
6E63  E2408001           [25] call       3   3   1  
6E67  D3008001           [26] getupval   3   3      
6E6B  CE80C101           [27] gettable   3   3   262  ; 630793108
6E6F  1DC10100           [28] getglobal  4   7        ; _G
6E73  0E014202           [29] gettable   4   4   264  ; "UISound_Focus"
6E77  E2400001           [30] call       3   2   1  
6E7B  DD400200           [31] getglobal  3   9        ; -174740002
6E7F  12010000           [32] move       4   0      
6E83  E2800001           [33] call       3   2   2  
fail op	8
6E87  C8000002           [34] setupval   3   4      
6E8B  D9400100           [35] loadk      3   5        ; 0
fail op	8
6E8F  C8008002           [36] setupval   3   5      
6E93  D9800200           [37] loadk      3   10       ; 0
fail op	8
6E97  C8000003           [38] setupval   3   6      
6E9B  D9C00200           [39] loadk      3   11       ; -102
fail op	8
6E9F  C8008003           [40] setupval   3   7      
6EA3  1E008000           [41] return     0   1      
                         * constants:
6EA7  0C                 sizek (12)
6EA8  01                 const type 3
6EA9  B45F1D3B           const [0]: (991780788)
6EAD  01                 const type 3
6EAE  1A685ED7           const [1]: (-681678822)
6EB2  04                 const type 4
6EB3  0A                 string size (10)
6EB4  6D436C69704E616D+  "mClipNam"
6EBC  6500               "e\0"
                         const [2]: "mClipName"
6EBE  04                 const type 4
6EBF  06                 string size (6)
6EC0  436F756E7400       "Count\0"
                         const [3]: "Count"
6EC6  04                 const type 4
6EC7  08                 string size (8)
6EC8  446F6E6174656400   "Donated\0"
                         const [4]: "Donated"
6ED0  03                 const type 3
6ED1  0000803F           const [5]: (0)
6ED5  01                 const type 3
6ED6  94239925           const [6]: (630793108)
6EDA  04                 const type 4
6EDB  03                 string size (3)
6EDC  5F4700             "_G\0"
                         const [7]: "_G"
6EDF  04                 const type 4
6EE0  0E                 string size (14)
6EE1  5549536F756E645F+  "UISound_"
6EE9  466F63757300       "Focus\0"
                         const [8]: "UISound_Focus"
6EEF  01                 const type 3
6EF0  DEAD95F5           const [9]: (-174740002)
6EF4  03                 const type 3
6EF5  00000000           const [10]: (0)
6EF9  03                 const type 3
6EFA  9A99193F           const [11]: (-102)
                         * functions:
6EFE  00                 sizep (0)
                         * lines:
6EFF  29                 sizelineinfo (41)
                         [pc] (line)
6F00  19                 [01] (25)
6F01  03                 [02] (25)
6F02  00                 [03] (25)
6F03  00                 [04] (26)
6F04  19                 [05] (26)
6F05  03                 [06] (26)
6F06  00                 [07] (26)
6F07  00                 [08] (27)
6F08  19                 [09] (27)
6F09  03                 [10] (27)
6F0A  00                 [11] (27)
6F0B  00                 [12] (28)
6F0C  1A                 [13] (28)
6F0D  03                 [14] (28)
6F0E  00                 [15] (28)
6F0F  00                 [16] (28)
6F10  1A                 [17] (28)
6F11  03                 [18] (28)
6F12  00                 [19] (28)
6F13  00                 [20] (28)
6F14  1A                 [21] (29)
6F15  03                 [22] (29)
6F16  00                 [23] (29)
6F17  00                 [24] (29)
6F18  1A                 [25] (29)
6F19  03                 [26] (32)
6F1A  00                 [27] (32)
6F1B  00                 [28] (32)
6F1C  1B                 [29] (32)
6F1D  03                 [30] (32)
6F1E  00                 [31] (33)
6F1F  00                 [32] (33)
6F20  1B                 [33] (33)
6F21  03                 [34] (33)
6F22  00                 [35] (34)
6F23  00                 [36] (34)
6F24  1B                 [37] (35)
6F25  03                 [38] (35)
6F26  00                 [39] (36)
6F27  00                 [40] (36)
6F28  1B                 [41] (38)
                         * locals:
6FA4  00                 sizelocvars (0)
                         * upvalues:
6FA5  00                 sizeupvalues (0)
                         ** end of function **

                         
6FA6                     ** function [27] definition (level 2)
                         ** start of function **
6FA6  00                 string size (0)
                         source name: (none)
6FA8  06                 line defined (808)
6FA9  BD                 last line defined (829)
6FAA  06                 nups (9)
6FAB  09                 numparams (1)
6FAC  01                 is_vararg (0)
6FAD  00                 maxstacksize (5)
                         * code:
6FAF  2D                 sizecode (45)
6FB0  53000000           [01] getupval   1   0      
6FB4  58400000           [02] test       1       1    ; to [4] if false
6FB8  1A000A80           [03] jmp        41           ; to [45]
6FBC  53008000           [04] getupval   1   1      
6FC0  6400C000           [05] self       1   1   256  ; 991780788
6FC4  D2000000           [06] move       3   0      
6FC8  62808001           [07] call       1   3   2  
6FCC  93008000           [08] getupval   2   1      
6FD0  A4404001           [09] self       2   2   257  ; -681678822
6FD4  12018000           [10] move       4   1      
6FD8  A2808001           [11] call       2   3   2  
6FDC  98000000           [12] test       2       0    ; to [14] if true
6FE0  1AC00380           [13] jmp        16           ; to [30]
6FE4  CE804001           [14] gettable   3   2   258  ; "Donated"
fail op	21
6FE8  15C08081           [15] concat     0   259 3  
6FEC  1A000380           [16] jmp        13           ; to [30]
6FF0  CE804001           [17] gettable   3   2   258  ; "Donated"
6FF4  CD00C101           [18] sub        3   3   260  ; 0
6FF8  8CC00081           [19] settable   2   258 3    ; "Donated"
6FFC  8C80C182           [20] settable   2   261 262  ; "mForceRedraw" 1
7000  D3000001           [21] getupval   3   2      
7004  0EC14101           [22] gettable   4   2   263  ; "StandingBonus"
7008  CD008101           [23] sub        3   3   4  
fail op	8
700C  C8000001           [24] setupval   3   2      
7010  D3008001           [25] getupval   3   3      
7014  E2408000           [26] call       3   1   1  
7018  D3008000           [27] getupval   3   1      
701C  E400C201           [28] self       3   3   264  ; 1685109492
7020  E2400001           [29] call       3   2   1  
7024  D3000002           [30] getupval   3   4      
7028  CE40C201           [31] gettable   3   3   265  ; 630793108
702C  1D810200           [32] getglobal  4   10       ; _G
7030  0EC14202           [33] gettable   4   4   267  ; "UISound_Focus"
7034  E2400001           [34] call       3   2   1  
7038  DD000300           [35] getglobal  3   12       ; -174740002
703C  12010000           [36] move       4   0      
7040  E2800001           [37] call       3   2   2  
fail op	8
7044  C8008002           [38] setupval   3   5      
7048  D9400300           [39] loadk      3   13       ; 0
fail op	8
704C  C8000003           [40] setupval   3   6      
7050  D9C00000           [41] loadk      3   3        ; 0
fail op	8
7054  C8008003           [42] setupval   3   7      
7058  D9800300           [43] loadk      3   14       ; -102
fail op	8
705C  C8000004           [44] setupval   3   8      
7060  1E008000           [45] return     0   1      
                         * constants:
7064  0F                 sizek (15)
7065  01                 const type 3
7066  B45F1D3B           const [0]: (991780788)
706A  01                 const type 3
706B  1A685ED7           const [1]: (-681678822)
706F  04                 const type 4
7070  08                 string size (8)
7071  446F6E6174656400   "Donated\0"
                         const [2]: "Donated"
7079  03                 const type 3
707A  00000000           const [3]: (0)
707E  03                 const type 3
707F  0000803F           const [4]: (0)
7083  04                 const type 4
7084  0D                 string size (13)
7085  6D466F7263655265+  "mForceRe"
708D  6472617700         "draw\0"
                         const [5]: "mForceRedraw"
7092  01                 const type 3
7093  01000000           const [6]: (1)
7097  04                 const type 4
7098  0E                 string size (14)
7099  5374616E64696E67+  "Standing"
70A1  426F6E757300       "Bonus\0"
                         const [7]: "StandingBonus"
70A7  01                 const type 3
70A8  F4BA7064           const [8]: (1685109492)
70AC  01                 const type 3
70AD  94239925           const [9]: (630793108)
70B1  04                 const type 4
70B2  03                 string size (3)
70B3  5F4700             "_G\0"
                         const [10]: "_G"
70B6  04                 const type 4
70B7  0E                 string size (14)
70B8  5549536F756E645F+  "UISound_"
70C0  466F63757300       "Focus\0"
                         const [11]: "UISound_Focus"
70C6  01                 const type 3
70C7  DEAD95F5           const [12]: (-174740002)
70CB  03                 const type 3
70CC  000080BF           const [13]: (0)
70D0  03                 const type 3
70D1  9A99193F           const [14]: (-102)
                         * functions:
70D5  00                 sizep (0)
                         * lines:
70D6  2D                 sizelineinfo (45)
                         [pc] (line)
70D7  29                 [01] (41)
70D8  03                 [02] (41)
70D9  00                 [03] (41)
70DA  00                 [04] (42)
70DB  29                 [05] (42)
70DC  03                 [06] (42)
70DD  00                 [07] (42)
70DE  00                 [08] (43)
70DF  29                 [09] (43)
70E0  03                 [10] (43)
70E1  00                 [11] (43)
70E2  00                 [12] (44)
70E3  2A                 [13] (44)
70E4  03                 [14] (44)
70E5  00                 [15] (44)
70E6  00                 [16] (44)
70E7  2A                 [17] (46)
70E8  03                 [18] (46)
70E9  00                 [19] (46)
70EA  00                 [20] (47)
70EB  2A                 [21] (49)
70EC  03                 [22] (49)
70ED  00                 [23] (49)
70EE  00                 [24] (49)
70EF  2A                 [25] (51)
70F0  03                 [26] (51)
70F1  00                 [27] (52)
70F2  00                 [28] (52)
70F3  2B                 [29] (52)
70F4  03                 [30] (55)
70F5  00                 [31] (55)
70F6  00                 [32] (55)
70F7  2B                 [33] (55)
70F8  03                 [34] (55)
70F9  00                 [35] (56)
70FA  00                 [36] (56)
70FB  2B                 [37] (56)
70FC  03                 [38] (56)
70FD  00                 [39] (57)
70FE  00                 [40] (57)
70FF  2B                 [41] (58)
7100  03                 [42] (58)
7101  00                 [43] (59)
7102  00                 [44] (59)
7103  2C                 [45] (61)
                         * locals:
718B  00                 sizelocvars (0)
                         * upvalues:
718C  00                 sizeupvalues (0)
                         ** end of function **

                         
718D                     ** function [28] definition (level 2)
                         ** start of function **
718D  00                 string size (0)
                         source name: (none)
718F  06                 line defined (831)
7190  C1                 last line defined (833)
7191  06                 nups (1)
7192  01                 numparams (1)
7193  01                 is_vararg (0)
7194  00                 maxstacksize (4)
                         * code:
7196  06                 sizecode (6)
7197  53000000           [1] getupval   1   0      
719B  9D000000           [2] getglobal  2   0        ; -174740002
719F  D2000000           [3] move       3   0      
71A3  A2000001           [4] call       2   2   0  
71A7  62400000           [5] call       1   0   1  
71AB  1E008000           [6] return     0   1      
                         * constants:
71AF  01                 sizek (1)
71B0  01                 const type 3
71B1  DEAD95F5           const [0]: (-174740002)
                         * functions:
71B5  00                 sizep (0)
                         * lines:
71B6  06                 sizelineinfo (6)
                         [pc] (line)
71B7  40                 [1] (64)
71B8  03                 [2] (64)
71B9  00                 [3] (64)
71BA  00                 [4] (64)
71BB  40                 [5] (64)
71BC  03                 [6] (65)
                         * locals:
71CF  00                 sizelocvars (0)
                         * upvalues:
71D0  00                 sizeupvalues (0)
                         ** end of function **

                         
71D1                     ** function [29] definition (level 2)
                         ** start of function **
71D1  00                 string size (0)
                         source name: (none)
71D3  06                 line defined (835)
71D4  C5                 last line defined (837)
71D5  06                 nups (1)
71D6  01                 numparams (1)
71D7  01                 is_vararg (0)
71D8  00                 maxstacksize (4)
                         * code:
71DA  06                 sizecode (6)
71DB  53000000           [1] getupval   1   0      
71DF  9D000000           [2] getglobal  2   0        ; -174740002
71E3  D2000000           [3] move       3   0      
71E7  A2000001           [4] call       2   2   0  
71EB  62400000           [5] call       1   0   1  
71EF  1E008000           [6] return     0   1      
                         * constants:
71F3  01                 sizek (1)
71F4  01                 const type 3
71F5  DEAD95F5           const [0]: (-174740002)
                         * functions:
71F9  00                 sizep (0)
                         * lines:
71FA  06                 sizelineinfo (6)
                         [pc] (line)
71FB  44                 [1] (68)
71FC  03                 [2] (68)
71FD  00                 [3] (68)
71FE  00                 [4] (68)
71FF  44                 [5] (68)
7200  03                 [6] (69)
                         * locals:
7213  00                 sizelocvars (0)
                         * upvalues:
7214  00                 sizeupvalues (0)
                         ** end of function **

                         
7215                     ** function [30] definition (level 2)
                         ** start of function **
7215  00                 string size (0)
                         source name: (none)
7217  06                 line defined (840)
7218  CA                 last line defined (842)
7219  06                 nups (1)
721A  01                 numparams (0)
721B  00                 is_vararg (0)
721C  00                 maxstacksize (2)
                         * code:
721E  02                 sizecode (2)
fail op	8
721F  08000000           [1] setupval   0   0      
7223  1E008000           [2] return     0   1      
                         * constants:
7227  00                 sizek (0)
                         * functions:
7228  00                 sizep (0)
                         * lines:
7229  02                 sizelineinfo (2)
                         [pc] (line)
722A  49                 [1] (73)
722B  03                 [2] (74)
                         * locals:
7232  00                 sizelocvars (0)
                         * upvalues:
7233  00                 sizeupvalues (0)
                         ** end of function **

                         
7234                     ** function [31] definition (level 2)
                         ** start of function **
7234  00                 string size (0)
                         source name: (none)
7236  06                 line defined (844)
7237  CE                 last line defined (846)
7238  06                 nups (1)
7239  01                 numparams (0)
723A  00                 is_vararg (0)
723B  00                 maxstacksize (2)
                         * code:
723D  03                 sizecode (3)
723E  13000000           [1] getupval   0   0      
7242  22408000           [2] call       0   1   1  
7246  1E008000           [3] return     0   1      
                         * constants:
724A  00                 sizek (0)
                         * functions:
724B  00                 sizep (0)
                         * lines:
724C  03                 sizelineinfo (3)
                         [pc] (line)
724D  4D                 [1] (77)
724E  03                 [2] (77)
724F  00                 [3] (78)
                         * locals:
7259  00                 sizelocvars (0)
                         * upvalues:
725A  00                 sizeupvalues (0)
                         ** end of function **

                         
725B                     ** function [32] definition (level 2)
                         ** start of function **
725B  00                 string size (0)
                         source name: (none)
725D  06                 line defined (848)
725E  D8                 last line defined (856)
725F  06                 nups (2)
7260  02                 numparams (0)
7261  00                 is_vararg (0)
7262  00                 maxstacksize (3)
                         * code:
7264  13                 sizecode (19)
7265  1D000000           [01] getglobal  0   0        ; 1074689893
7269  53000000           [02] getupval   1   0      
726D  22800001           [03] call       0   2   2  
7271  18400000           [04] test       0       1    ; to [6] if false
7275  1A800280           [05] jmp        11           ; to [17]
7279  13000000           [06] getupval   0   0      
727D  24404000           [07] self       0   0   257  ; -1749775947
7281  22800001           [08] call       0   2   2  
7285  5D000000           [09] getglobal  1   0        ; 1074689893
7289  92000000           [10] move       2   0      
728D  62800001           [11] call       1   2   2  
7291  58400000           [12] test       1       1    ; to [14] if false
7295  1A800080           [13] jmp        3            ; to [17]
7299  53008000           [14] getupval   1   1      
729D  8E804000           [15] gettable   2   0   258  ; "Id"
72A1  62400001           [16] call       1   2   1  
72A5  57008000           [17] loadbool   1   1   0    ; true
72A9  5E000001           [18] return     1   2      
72AD  1E008000           [19] return     0   1      
                         * constants:
72B1  03                 sizek (3)
72B2  01                 const type 3
72B3  65770E40           const [0]: (1074689893)
72B7  01                 const type 3
72B8  B589B497           const [1]: (-1749775947)
72BC  04                 const type 4
72BD  03                 string size (3)
72BE  496400             "Id\0"
                         const [2]: "Id"
                         * functions:
72C1  00                 sizep (0)
                         * lines:
72C2  13                 sizelineinfo (19)
                         [pc] (line)
72C3  51                 [01] (81)
72C4  03                 [02] (81)
72C5  00                 [03] (81)
72C6  00                 [04] (81)
72C7  51                 [05] (81)
72C8  03                 [06] (82)
72C9  00                 [07] (82)
72CA  00                 [08] (82)
72CB  51                 [09] (83)
72CC  03                 [10] (83)
72CD  00                 [11] (83)
72CE  00                 [12] (83)
72CF  51                 [13] (83)
72D0  03                 [14] (84)
72D1  00                 [15] (84)
72D2  00                 [16] (84)
72D3  51                 [17] (87)
72D4  03                 [18] (87)
72D5  00                 [19] (88)
                         * locals:
730F  00                 sizelocvars (0)
                         * upvalues:
7310  00                 sizeupvalues (0)
                         ** end of function **

                         
7311                     ** function [33] definition (level 2)
                         ** start of function **
7311  00                 string size (0)
                         source name: (none)
7313  06                 line defined (858)
7314  E2                 last line defined (866)
7315  06                 nups (2)
7316  02                 numparams (0)
7317  00                 is_vararg (0)
7318  00                 maxstacksize (3)
                         * code:
731A  13                 sizecode (19)
731B  1D000000           [01] getglobal  0   0        ; 1074689893
731F  53000000           [02] getupval   1   0      
7323  22800001           [03] call       0   2   2  
7327  18400000           [04] test       0       1    ; to [6] if false
732B  1A800280           [05] jmp        11           ; to [17]
732F  13000000           [06] getupval   0   0      
7333  24404000           [07] self       0   0   257  ; -1749775947
7337  22800001           [08] call       0   2   2  
733B  5D000000           [09] getglobal  1   0        ; 1074689893
733F  92000000           [10] move       2   0      
7343  62800001           [11] call       1   2   2  
7347  58400000           [12] test       1       1    ; to [14] if false
734B  1A800080           [13] jmp        3            ; to [17]
734F  53008000           [14] getupval   1   1      
7353  8E804000           [15] gettable   2   0   258  ; "Id"
7357  62400001           [16] call       1   2   1  
735B  57008000           [17] loadbool   1   1   0    ; true
735F  5E000001           [18] return     1   2      
7363  1E008000           [19] return     0   1      
                         * constants:
7367  03                 sizek (3)
7368  01                 const type 3
7369  65770E40           const [0]: (1074689893)
736D  01                 const type 3
736E  B589B497           const [1]: (-1749775947)
7372  04                 const type 4
7373  03                 string size (3)
7374  496400             "Id\0"
                         const [2]: "Id"
                         * functions:
7377  00                 sizep (0)
                         * lines:
7378  13                 sizelineinfo (19)
                         [pc] (line)
7379  5B                 [01] (91)
737A  03                 [02] (91)
737B  00                 [03] (91)
737C  00                 [04] (91)
737D  5B                 [05] (91)
737E  03                 [06] (92)
737F  00                 [07] (92)
7380  00                 [08] (92)
7381  5B                 [09] (93)
7382  03                 [10] (93)
7383  00                 [11] (93)
7384  00                 [12] (93)
7385  5B                 [13] (93)
7386  03                 [14] (94)
7387  00                 [15] (94)
7388  00                 [16] (94)
7389  5B                 [17] (97)
738A  03                 [18] (97)
738B  00                 [19] (98)
                         * locals:
73C5  00                 sizelocvars (0)
                         * upvalues:
73C6  00                 sizeupvalues (0)
                         ** end of function **

                         
73C7                     ** function [34] definition (level 2)
                         ** start of function **
73C7  00                 string size (0)
                         source name: (none)
73C9  06                 line defined (868)
73CA  E8                 last line defined (872)
73CB  06                 nups (2)
73CC  02                 numparams (2)
73CD  02                 is_vararg (0)
73CE  00                 maxstacksize (5)
                         * code:
73D0  08                 sizecode (8)
73D1  93000000           [1] getupval   2   0      
73D5  8E004001           [2] gettable   2   2   256  ; -1152582673
73D9  DD400000           [3] getglobal  3   1        ; mMovie
73DD  19810000           [4] loadk      4   2        ; "Bluer"
73E1  A2408001           [5] call       2   3   1  
73E5  93008000           [6] getupval   2   1      
73E9  A2408000           [7] call       2   1   1  
73ED  1E008000           [8] return     0   1      
                         * constants:
73F1  03                 sizek (3)
73F2  01                 const type 3
73F3  EFFB4CBB           const [0]: (-1152582673)
73F7  04                 const type 4
73F8  07                 string size (7)
73F9  6D4D6F76696500     "mMovie\0"
                         const [1]: "mMovie"
7400  04                 const type 4
7401  06                 string size (6)
7402  426C75657200       "Bluer\0"
                         const [2]: "Bluer"
                         * functions:
7408  00                 sizep (0)
                         * lines:
7409  08                 sizelineinfo (8)
                         [pc] (line)
740A  65                 [1] (101)
740B  03                 [2] (101)
740C  00                 [3] (101)
740D  00                 [4] (101)
740E  65                 [5] (101)
740F  03                 [6] (103)
7410  00                 [7] (103)
7411  00                 [8] (104)
                         * locals:
742A  00                 sizelocvars (0)
                         * upvalues:
742B  00                 sizeupvalues (0)
                         ** end of function **

                         
742C                     ** function [35] definition (level 2)
                         ** start of function **
742C  00                 string size (0)
                         source name: (none)
742E  06                 line defined (874)
742F  EC                 last line defined (876)
7430  06                 nups (1)
7431  01                 numparams (1)
7432  01                 is_vararg (0)
7433  00                 maxstacksize (2)
                         * code:
7435  02                 sizecode (2)
fail op	8
7436  08000000           [1] setupval   0   0      
743A  1E008000           [2] return     0   1      
                         * constants:
743E  00                 sizek (0)
                         * functions:
743F  00                 sizep (0)
                         * lines:
7440  02                 sizelineinfo (2)
                         [pc] (line)
7441  6B                 [1] (107)
7442  03                 [2] (108)
                         * locals:
7449  00                 sizelocvars (0)
                         * upvalues:
744A  00                 sizeupvalues (0)
                         ** end of function **

                         
744B                     ** function [36] definition (level 2)
                         ** start of function **
744B  00                 string size (0)
                         source name: (none)
744D  06                 line defined (878)
744E  88                 last line defined (904)
744F  07                 nups (7)
7450  07                 numparams (2)
7451  02                 is_vararg (0)
7452  00                 maxstacksize (16)
                         * code:
7454  43                 sizecode (67)
7455  8E004000           [01] gettable   2   0   256  ; "Donated"
7459  D3000000           [02] getupval   3   0      
745D  CE40C001           [03] gettable   3   3   257  ; 387904467
7461  13018000           [04] getupval   4   1      
7465  E2800101           [05] call       3   2   6  
7469  13020001           [06] getupval   8   2      
746D  18420000           [07] test       8       1    ; to [9] if false
7471  1A000280           [08] jmp        9            ; to [18]
fail op	21
7475  1580C002           [09] concat     0   5   258
7479  1A400180           [10] jmp        6            ; to [17]
747D  1DC20000           [11] getglobal  8   3        ; math
7481  0E024104           [12] gettable   8   8   260  ; -113279800
7485  52020002           [13] move       9   4      
7489  22820001           [14] call       8   2   2  
748D  D2010004           [15] move       7   8      
7491  1A000080           [16] jmp        1            ; to [18]
7495  CD018102           [17] sub        7   5   4  
7499  13028001           [18] getupval   8   3      
749D  4E424100           [19] gettable   9   0   261  ; "StandingBonus"
74A1  44420201           [20] mul        9   2   9  
74A5  0D420204           [21] sub        8   8   9  
74A9  5DC20000           [22] getglobal  9   3        ; math
74AD  4E82C104           [23] gettable   9   9   262  ; -1962864584
74B1  9DC20000           [24] getglobal  10  3        ; math
74B5  8EC24105           [25] gettable   10  10  263  ; -1124579617
74B9  CD028203           [26] sub        11  7   8  
74BD  0E434100           [27] gettable   12  0   261  ; "StandingBonus"
74C1  DC028305           [28] div        11  11  12 
74C5  A2820001           [29] call       10  2   2  
74C9  D9820000           [30] loadk      11  2        ; 0
74CD  62828001           [31] call       9   3   2  
fail op	21
74D1  15408004           [32] concat     0   9   1  
74D5  1AC00080           [33] jmp        4            ; to [38]
74D9  93020002           [34] getupval   10  4      
74DD  8E024205           [35] gettable   10  10  264  ; 185724978
74E1  D9420200           [36] loadk      11  9        ; "/Lotus/Language/Menu/Syndicate_DogTag_DonationCapped"
74E5  A2420001           [37] call       10  2   1  
74E9  9DC20000           [38] getglobal  10  3        ; math
74ED  8E824205           [39] gettable   10  10  266  ; 1710846250
74F1  D2028000           [40] move       11  1      
74F5  12038004           [41] move       12  9      
74F9  A2828001           [42] call       10  3   2  
74FD  52000005           [43] move       1   10     
7501  9DC20200           [44] getglobal  10  11       ; mMovie
7505  A4024305           [45] self       10  10  268  ; -693657623
7509  0E434300           [46] gettable   12  0   269  ; "mClipName"
750D  59830300           [47] loadk      13  14       ; ".Counter.Count"
7511  02430306           [48] concat     12  12  13 
7515  59C30300           [49] loadk      13  15       ; "text"
7519  9D030400           [50] getglobal  14  16       ; -1615931716
751D  D2038000           [51] move       15  1      
7521  A2030001           [52] call       14  2   0  
7525  A2420000           [53] call       10  0   1  
7529  0C400080           [54] settable   0   256 1    ; "Donated"
752D  93028001           [55] getupval   10  3      
7531  CD828000           [56] sub        11  1   2  
7535  0E434100           [57] gettable   12  0   261  ; "StandingBonus"
7539  C4028305           [58] mul        11  11  12 
753D  83C20205           [59] add        10  10  11 
fail op	8
7541  88028001           [60] setupval   10  3      
7545  93028002           [61] getupval   10  5      
7549  A2428000           [62] call       10  1   1  
754D  93020003           [63] getupval   10  6      
7551  8E424405           [64] gettable   10  10  273  ; -1552746934
7555  D2020000           [65] move       11  0      
7559  A2420001           [66] call       10  2   1  
755D  1E008000           [67] return     0   1      
                         * constants:
7561  12                 sizek (18)
7562  04                 const type 4
7563  08                 string size (8)
7564  446F6E6174656400   "Donated\0"
                         const [0]: "Donated"
756C  01                 const type 3
756D  D3F31E17           const [1]: (387904467)
7571  03                 const type 3
7572  00000000           const [2]: (0)
7576  04                 const type 4
7577  05                 string size (5)
7578  6D61746800         "math\0"
                         const [3]: "math"
757D  01                 const type 3
757E  C87C3FF9           const [4]: (-113279800)
7582  04                 const type 4
7583  0E                 string size (14)
7584  5374616E64696E67+  "Standing"
758C  426F6E757300       "Bonus\0"
                         const [5]: "StandingBonus"
7592  01                 const type 3
7593  3810018B           const [6]: (-1962864584)
7597  01                 const type 3
7598  DF46F8BC           const [7]: (-1124579617)
759C  01                 const type 3
759D  32F0110B           const [8]: (185724978)
75A1  04                 const type 4
75A2  35                 string size (53)
75A3  2F4C6F7475732F4C+  "/Lotus/L"
75AB  616E67756167652F+  "anguage/"
75B3  4D656E752F53796E+  "Menu/Syn"
75BB  6469636174655F44+  "dicate_D"
75C3  6F675461675F446F+  "ogTag_Do"
75CB  6E6174696F6E4361+  "nationCa"
75D3  7070656400         "pped\0"
                         const [9]: "/Lotus/Language/Menu/Syndicate_DogTag_DonationCapped"
75D8  01                 const type 3
75D9  2A71F965           const [10]: (1710846250)
75DD  04                 const type 4
75DE  07                 string size (7)
75DF  6D4D6F76696500     "mMovie\0"
                         const [11]: "mMovie"
75E6  01                 const type 3
75E7  E99FA7D6           const [12]: (-693657623)
75EB  04                 const type 4
75EC  0A                 string size (10)
75ED  6D436C69704E616D+  "mClipNam"
75F5  6500               "e\0"
                         const [13]: "mClipName"
75F7  04                 const type 4
75F8  0F                 string size (15)
75F9  2E436F756E746572+  ".Counter"
7601  2E436F756E7400     ".Count\0"
                         const [14]: ".Counter.Count"
7608  04                 const type 4
7609  05                 string size (5)
760A  7465787400         "text\0"
                         const [15]: "text"
760F  01                 const type 3
7610  BCD6AE9F           const [16]: (-1615931716)
7614  01                 const type 3
7615  4AF672A3           const [17]: (-1552746934)
                         * functions:
7619  00                 sizep (0)
                         * lines:
761A  43                 sizelineinfo (67)
                         [pc] (line)
761B  6F                 [01] (111)
761C  03                 [02] (112)
761D  00                 [03] (112)
761E  00                 [04] (112)
761F  70                 [05] (112)
7620  03                 [06] (113)
7621  00                 [07] (113)
7622  00                 [08] (113)
7623  70                 [09] (114)
7624  03                 [10] (114)
7625  00                 [11] (115)
7626  00                 [12] (115)
7627  70                 [13] (115)
7628  03                 [14] (115)
7629  00                 [15] (115)
762A  00                 [16] (115)
762B  70                 [17] (117)
762C  03                 [18] (122)
762D  00                 [19] (122)
762E  00                 [20] (122)
762F  71                 [21] (122)
7630  03                 [22] (123)
7631  00                 [23] (123)
7632  00                 [24] (123)
7633  71                 [25] (123)
7634  03                 [26] (123)
7635  00                 [27] (123)
7636  00                 [28] (123)
7637  71                 [29] (123)
7638  03                 [30] (123)
7639  00                 [31] (123)
763A  00                 [32] (124)
763B  72                 [33] (124)
763C  03                 [34] (125)
763D  00                 [35] (125)
763E  00                 [36] (125)
763F  72                 [37] (125)
7640  03                 [38] (127)
7641  00                 [39] (127)
7642  00                 [40] (127)
7643  73                 [41] (127)
7644  03                 [42] (127)
7645  00                 [43] (127)
7646  00                 [44] (-127)
7647  73                 [45] (-127)
7648  03                 [46] (-127)
7649  00                 [47] (-127)
764A  00                 [48] (-127)
764B  73                 [49] (-127)
764C  03                 [50] (-127)
764D  00                 [51] (-127)
764E  00                 [52] (-127)
764F  73                 [53] (-127)
7650  03                 [54] (-126)
7651  00                 [55] (-124)
7652  00                 [56] (-124)
7653  73                 [57] (-124)
7654  03                 [58] (-124)
7655  00                 [59] (-124)
7656  00                 [60] (-124)
7657  73                 [61] (-123)
7658  03                 [62] (-123)
7659  00                 [63] (-121)
765A  00                 [64] (-121)
765B  75                 [65] (-121)
765C  03                 [66] (-121)
765D  00                 [67] (-120)
                         * locals:
7727  00                 sizelocvars (0)
                         * upvalues:
7728  00                 sizeupvalues (0)
                         ** end of function **

                         
7729                     ** function [37] definition (level 2)
                         ** start of function **
7729  00                 string size (0)
                         source name: (none)
772B  07                 line defined (906)
772C  B0                 last line defined (944)
772D  07                 nups (2)
772E  02                 numparams (1)
772F  01                 is_vararg (0)
7730  00                 maxstacksize (11)
                         * code:
7732  4B                 sizecode (75)
7733  53000000           [01] getupval   1   0      
7737  6400C000           [02] self       1   1   256  ; 991780788
773B  DD400000           [03] getglobal  3   1        ; -174740002
773F  12010000           [04] move       4   0      
7743  E2000001           [05] call       3   2   0  
7747  62800000           [06] call       1   0   2  
774B  9D800000           [07] getglobal  2   2        ; 1074689893
774F  D2008000           [08] move       3   1      
7753  A2800001           [09] call       2   2   2  
7757  98400000           [10] test       2       1    ; to [12] if false
775B  1A800F80           [11] jmp        63           ; to [75]
775F  93000000           [12] getupval   2   0      
7763  A4C04001           [13] self       2   2   259  ; -681678822
7767  12018000           [14] move       4   1      
776B  A2808001           [15] call       2   3   2  
776F  CE004101           [16] gettable   3   2   260  ; "mClipName"
fail op	35
7773  2340C101           [17] close      0  
7777  1A000080           [18] jmp        1            ; to [20]
777B  1E008000           [19] return     0   1      
777F  CE804101           [20] gettable   3   2   262  ; "Donated"
7783  1DC10100           [21] getglobal  4   7        ; mMovie
7787  24014202           [22] self       4   4   264  ; 1803241227
778B  8E014101           [23] gettable   6   2   260  ; "mClipName"
778F  D9410200           [24] loadk      7   9        ; ".Counter.Count"
7793  82C10103           [25] concat     6   6   7  
7797  D9810200           [26] loadk      7   10       ; "text"
779B  22810002           [27] call       4   4   2  
fail op	35
779F  23C04202           [28] close      0  
77A3  1A000280           [29] jmp        9            ; to [39]
77A7  5DC10100           [30] getglobal  5   7        ; mMovie
77AB  6401C302           [31] self       5   5   268  ; -693657623
77AF  CE014101           [32] gettable   7   2   260  ; "mClipName"
77B3  19420200           [33] loadk      8   9        ; ".Counter.Count"
77B7  C2018203           [34] concat     7   7   8  
77BB  19820200           [35] loadk      8   10       ; "text"
77BF  59420300           [36] loadk      9   13       ; "0"
77C3  62418002           [37] call       5   5   1  
77C7  19810300           [38] loadk      4   14       ; 0
77CB  5D410000           [39] getglobal  5   1        ; -174740002
77CF  92010002           [40] move       6   4      
77D3  62810001           [41] call       5   2   2  
77D7  12018002           [42] move       4   5      
fail op	35
77DB  23404102           [43] close      0  
77DF  1A000080           [44] jmp        1            ; to [46]
77E3  12018001           [45] move       4   3      
77E7  5DC10300           [46] getglobal  5   15       ; math
77EB  4E01C402           [47] gettable   5   5   272  ; -150971781
77EF  92010002           [48] move       6   4      
77F3  62810001           [49] call       5   2   2  
77F7  12018002           [50] move       4   5      
77FB  5DC10100           [51] getglobal  5   7        ; mMovie
77FF  6401C302           [52] self       5   5   268  ; -693657623
7803  CE014101           [53] gettable   7   2   260  ; "mClipName"
7807  19420200           [54] loadk      8   9        ; ".Counter.Count"
780B  C2018203           [55] concat     7   7   8  
780F  19820200           [56] loadk      8   10       ; "text"
7813  5D420400           [57] getglobal  9   17       ; -1615931716
7817  92020002           [58] move       10  4      
781B  62020001           [59] call       9   2   0  
781F  62410000           [60] call       5   0   1  
fail op	35
7823  23C00002           [61] close      0  
7827  1A000080           [62] jmp        1            ; to [64]
782B  1E008000           [63] return     0   1      
fail op	21
782F  15804302           [64] concat     0   4   270
7833  1A000080           [65] jmp        1            ; to [67]
7837  19810300           [66] loadk      4   14       ; 0
783B  4E814401           [67] gettable   5   2   274  ; "Count"
fail op	21
783F  15008102           [68] concat     0   5   4  
7843  1A000080           [69] jmp        1            ; to [71]
7847  0E814401           [70] gettable   4   2   274  ; "Count"
784B  53018000           [71] getupval   5   1      
784F  92010001           [72] move       6   2      
7853  D2010002           [73] move       7   4      
7857  62418001           [74] call       5   3   1  
785B  1E008000           [75] return     0   1      
                         * constants:
785F  13                 sizek (19)
7860  01                 const type 3
7861  B45F1D3B           const [0]: (991780788)
7865  01                 const type 3
7866  DEAD95F5           const [1]: (-174740002)
786A  01                 const type 3
786B  65770E40           const [2]: (1074689893)
786F  01                 const type 3
7870  1A685ED7           const [3]: (-681678822)
7874  04                 const type 4
7875  0A                 string size (10)
7876  6D436C69704E616D+  "mClipNam"
787E  6500               "e\0"
                         const [4]: "mClipName"
7880  00                 const type 0
                         const [5]: nil
7881  04                 const type 4
7882  08                 string size (8)
7883  446F6E6174656400   "Donated\0"
                         const [6]: "Donated"
788B  04                 const type 4
788C  07                 string size (7)
788D  6D4D6F76696500     "mMovie\0"
                         const [7]: "mMovie"
7894  01                 const type 3
7895  0B477B6B           const [8]: (1803241227)
7899  04                 const type 4
789A  0F                 string size (15)
789B  2E436F756E746572+  ".Counter"
78A3  2E436F756E7400     ".Count\0"
                         const [9]: ".Counter.Count"
78AA  04                 const type 4
78AB  05                 string size (5)
78AC  7465787400         "text\0"
                         const [10]: "text"
78B1  04                 const type 4
78B2  01                 string size (0)
                         const [11]: ""
78B4  01                 const type 3
78B5  E99FA7D6           const [12]: (-693657623)
78B9  04                 const type 4
78BA  02                 string size (2)
78BB  3000               "0\0"
                         const [13]: "0"
78BD  03                 const type 3
78BE  00000000           const [14]: (0)
78C2  04                 const type 4
78C3  05                 string size (5)
78C4  6D61746800         "math\0"
                         const [15]: "math"
78C9  01                 const type 3
78CA  7B5A00F7           const [16]: (-150971781)
78CE  01                 const type 3
78CF  BCD6AE9F           const [17]: (-1615931716)
78D3  04                 const type 4
78D4  06                 string size (6)
78D5  436F756E7400       "Count\0"
                         const [18]: "Count"
                         * functions:
78DB  00                 sizep (0)
                         * lines:
78DC  4B                 sizelineinfo (75)
                         [pc] (line)
78DD  8B                 [01] (-117)
78DE  03                 [02] (-117)
78DF  00                 [03] (-117)
78E0  00                 [04] (-117)
78E1  8B                 [05] (-117)
78E2  03                 [06] (-117)
78E3  00                 [07] (-116)
78E4  00                 [08] (-116)
78E5  8B                 [09] (-116)
78E6  03                 [10] (-116)
78E7  00                 [11] (-116)
78E8  00                 [12] (-115)
78E9  8B                 [13] (-115)
78EA  03                 [14] (-115)
78EB  00                 [15] (-115)
78EC  00                 [16] (-113)
78ED  8B                 [17] (-113)
78EE  03                 [18] (-113)
78EF  00                 [19] (-112)
78F0  00                 [20] (-109)
78F1  8B                 [21] (-108)
78F2  03                 [22] (-108)
78F3  00                 [23] (-108)
78F4  00                 [24] (-108)
78F5  8C                 [25] (-108)
78F6  03                 [26] (-108)
78F7  00                 [27] (-108)
78F8  00                 [28] (-106)
78F9  8C                 [29] (-106)
78FA  03                 [30] (-105)
78FB  00                 [31] (-105)
78FC  00                 [32] (-105)
78FD  8C                 [33] (-105)
78FE  03                 [34] (-105)
78FF  00                 [35] (-105)
7900  00                 [36] (-105)
7901  8C                 [37] (-105)
7902  03                 [38] (-104)
7903  00                 [39] (-101)
7904  00                 [40] (-101)
7905  8C                 [41] (-101)
7906  03                 [42] (-101)
7907  00                 [43] (-100)
7908  00                 [44] (-100)
7909  8D                 [45] (-99)
790A  03                 [46] (-97)
790B  00                 [47] (-97)
790C  00                 [48] (-97)
790D  8D                 [49] (-97)
790E  03                 [50] (-97)
790F  00                 [51] (-95)
7910  00                 [52] (-95)
7911  8D                 [53] (-95)
7912  03                 [54] (-95)
7913  00                 [55] (-95)
7914  00                 [56] (-95)
7915  8D                 [57] (-95)
7916  03                 [58] (-95)
7917  00                 [59] (-95)
7918  00                 [60] (-95)
7919  8F                 [61] (-94)
791A  03                 [62] (-94)
791B  00                 [63] (-93)
791C  00                 [64] (-90)
791D  8F                 [65] (-90)
791E  03                 [66] (-89)
791F  00                 [67] (-86)
7920  00                 [68] (-86)
7921  8F                 [69] (-86)
7922  03                 [70] (-85)
7923  00                 [71] (-82)
7924  00                 [72] (-82)
7925  90                 [73] (-82)
7926  03                 [74] (-82)
7927  00                 [75] (-80)
                         * locals:
7A09  00                 sizelocvars (0)
                         * upvalues:
7A0A  00                 sizeupvalues (0)
                         ** end of function **

                         
7A0B                     ** function [38] definition (level 2)
                         ** start of function **
7A0B  00                 string size (0)
                         source name: (none)
7A0D  07                 line defined (946)
7A0E  B5                 last line defined (949)
7A0F  07                 nups (2)
7A10  02                 numparams (1)
7A11  01                 is_vararg (0)
7A12  00                 maxstacksize (3)
                         * code:
7A14  06                 sizecode (6)
7A15  53000000           [1] getupval   1   0      
7A19  92000000           [2] move       2   0      
7A1D  62400001           [3] call       1   2   1  
7A21  57000000           [4] loadbool   1   0   0    ; false
fail op	8
7A25  48008000           [5] setupval   1   1      
7A29  1E008000           [6] return     0   1      
                         * constants:
7A2D  00                 sizek (0)
                         * functions:
7A2E  00                 sizep (0)
                         * lines:
7A2F  06                 sizelineinfo (6)
                         [pc] (line)
7A30  B3                 [1] (-77)
7A31  03                 [2] (-77)
7A32  00                 [3] (-77)
7A33  00                 [4] (-76)
7A34  B3                 [5] (-76)
7A35  03                 [6] (-75)
                         * locals:
7A48  00                 sizelocvars (0)
                         * upvalues:
7A49  00                 sizeupvalues (0)
                         ** end of function **

                         
7A4A                     ** function [39] definition (level 2)
                         ** start of function **
7A4A  00                 string size (0)
                         source name: (none)
7A4C  07                 line defined (951)
7A4D  BB                 last line defined (955)
7A4E  07                 nups (1)
7A4F  01                 numparams (0)
7A50  00                 is_vararg (0)
7A51  00                 maxstacksize (3)
                         * code:
7A53  0B                 sizecode (11)
7A54  1D000000           [01] getglobal  0   0        ; 1074689893
7A58  53000000           [02] getupval   1   0      
7A5C  22800001           [03] call       0   2   2  
7A60  18400000           [04] test       0       1    ; to [6] if false
7A64  1A000180           [05] jmp        5            ; to [11]
7A68  13000000           [06] getupval   0   0      
7A6C  24404000           [07] self       0   0   257  ; 228613326
7A70  93000000           [08] getupval   2   0      
7A74  8E804001           [09] gettable   2   2   258  ; "UP"
7A78  22408001           [10] call       0   3   1  
7A7C  1E008000           [11] return     0   1      
                         * constants:
7A80  03                 sizek (3)
7A81  01                 const type 3
7A82  65770E40           const [0]: (1074689893)
7A86  01                 const type 3
7A87  CE5CA00D           const [1]: (228613326)
7A8B  04                 const type 4
7A8C  03                 string size (3)
7A8D  555000             "UP\0"
                         const [2]: "UP"
                         * functions:
7A90  00                 sizep (0)
                         * lines:
7A91  0B                 sizelineinfo (11)
                         [pc] (line)
7A92  B8                 [01] (-72)
7A93  03                 [02] (-72)
7A94  00                 [03] (-72)
7A95  00                 [04] (-72)
7A96  B8                 [05] (-72)
7A97  03                 [06] (-71)
7A98  00                 [07] (-71)
7A99  00                 [08] (-71)
7A9A  B8                 [09] (-71)
7A9B  03                 [10] (-71)
7A9C  00                 [11] (-69)
                         * locals:
7ABE  00                 sizelocvars (0)
                         * upvalues:
7ABF  00                 sizeupvalues (0)
                         ** end of function **

                         
7AC0                     ** function [40] definition (level 2)
                         ** start of function **
7AC0  00                 string size (0)
                         source name: (none)
7AC2  07                 line defined (957)
7AC3  C1                 last line defined (961)
7AC4  07                 nups (1)
7AC5  01                 numparams (0)
7AC6  00                 is_vararg (0)
7AC7  00                 maxstacksize (3)
                         * code:
7AC9  0B                 sizecode (11)
7ACA  1D000000           [01] getglobal  0   0        ; 1074689893
7ACE  53000000           [02] getupval   1   0      
7AD2  22800001           [03] call       0   2   2  
7AD6  18400000           [04] test       0       1    ; to [6] if false
7ADA  1A000180           [05] jmp        5            ; to [11]
7ADE  13000000           [06] getupval   0   0      
7AE2  24404000           [07] self       0   0   257  ; 228613326
7AE6  93000000           [08] getupval   2   0      
7AEA  8E804001           [09] gettable   2   2   258  ; "DOWN"
7AEE  22408001           [10] call       0   3   1  
7AF2  1E008000           [11] return     0   1      
                         * constants:
7AF6  03                 sizek (3)
7AF7  01                 const type 3
7AF8  65770E40           const [0]: (1074689893)
7AFC  01                 const type 3
7AFD  CE5CA00D           const [1]: (228613326)
7B01  04                 const type 4
7B02  05                 string size (5)
7B03  444F574E00         "DOWN\0"
                         const [2]: "DOWN"
                         * functions:
7B08  00                 sizep (0)
                         * lines:
7B09  0B                 sizelineinfo (11)
                         [pc] (line)
7B0A  BE                 [01] (-66)
7B0B  03                 [02] (-66)
7B0C  00                 [03] (-66)
7B0D  00                 [04] (-66)
7B0E  BE                 [05] (-66)
7B0F  03                 [06] (-65)
7B10  00                 [07] (-65)
7B11  00                 [08] (-65)
7B12  BE                 [09] (-65)
7B13  03                 [10] (-65)
7B14  00                 [11] (-63)
                         * locals:
7B36  00                 sizelocvars (0)
                         * upvalues:
7B37  00                 sizeupvalues (0)
                         ** end of function **

                         
7B38                     ** function [41] definition (level 2)
                         ** start of function **
7B38  00                 string size (0)
                         source name: (none)
7B3A  07                 line defined (963)
7B3B  C6                 last line defined (966)
7B3C  07                 nups (1)
7B3D  01                 numparams (0)
7B3E  00                 is_vararg (0)
7B3F  00                 maxstacksize (2)
                         * code:
7B41  05                 sizecode (5)
7B42  13000000           [1] getupval   0   0      
7B46  22408000           [2] call       0   1   1  
7B4A  17008000           [3] loadbool   0   1   0    ; true
7B4E  1E000001           [4] return     0   2      
7B52  1E008000           [5] return     0   1      
                         * constants:
7B56  00                 sizek (0)
                         * functions:
7B57  00                 sizep (0)
                         * lines:
7B58  05                 sizelineinfo (5)
                         [pc] (line)
7B59  C4                 [1] (-60)
7B5A  03                 [2] (-60)
7B5B  00                 [3] (-59)
7B5C  00                 [4] (-59)
7B5D  C4                 [5] (-58)
                         * locals:
7B6D  00                 sizelocvars (0)
                         * upvalues:
7B6E  00                 sizeupvalues (0)
                         ** end of function **

                         
7B6F                     ** function [42] definition (level 2)
                         ** start of function **
7B6F  00                 string size (0)
                         source name: (none)
7B71  07                 line defined (968)
7B72  CB                 last line defined (971)
7B73  07                 nups (1)
7B74  01                 numparams (0)
7B75  00                 is_vararg (0)
7B76  00                 maxstacksize (2)
                         * code:
7B78  05                 sizecode (5)
7B79  13000000           [1] getupval   0   0      
7B7D  22408000           [2] call       0   1   1  
7B81  17008000           [3] loadbool   0   1   0    ; true
7B85  1E000001           [4] return     0   2      
7B89  1E008000           [5] return     0   1      
                         * constants:
7B8D  00                 sizek (0)
                         * functions:
7B8E  00                 sizep (0)
                         * lines:
7B8F  05                 sizelineinfo (5)
                         [pc] (line)
7B90  C9                 [1] (-55)
7B91  03                 [2] (-55)
7B92  00                 [3] (-54)
7B93  00                 [4] (-54)
7B94  C9                 [5] (-53)
                         * locals:
7BA4  00                 sizelocvars (0)
                         * upvalues:
7BA5  00                 sizeupvalues (0)
                         ** end of function **

                         
7BA6                     ** function [43] definition (level 2)
                         ** start of function **
7BA6  00                 string size (0)
                         source name: (none)
7BA8  07                 line defined (973)
7BA9  D0                 last line defined (976)
7BAA  07                 nups (0)
7BAB  00                 numparams (0)
7BAC  00                 is_vararg (0)
7BAD  00                 maxstacksize (4)
                         * code:
7BAF  0B                 sizecode (11)
7BB0  1D000000           [01] getglobal  0   0        ; gFlashMgr
7BB4  24404000           [02] self       0   0   257  ; 38794118
7BB8  9D800000           [03] getglobal  2   2        ; thisMovie
7BBC  22408001           [04] call       0   3   1  
7BC0  1DC00000           [05] getglobal  0   3        ; _T
7BC4  0E004100           [06] gettable   0   0   260  ; 1413488754
7BC8  5D400100           [07] getglobal  1   5        ; syndicate
7BCC  9D800100           [08] getglobal  2   6        ; kelaDogTagQueryVO
7BD0  DDC00100           [09] getglobal  3   7        ; kelaDogTagConfirmVO
7BD4  22400002           [10] call       0   4   1  
7BD8  1E008000           [11] return     0   1      
                         * constants:
7BDC  08                 sizek (8)
7BDD  04                 const type 4
7BDE  0A                 string size (10)
7BDF  67466C6173684D67+  "gFlashMg"
7BE7  7200               "r\0"
                         const [0]: "gFlashMgr"
7BE9  01                 const type 3
7BEA  86F34F02           const [1]: (38794118)
7BEE  04                 const type 4
7BEF  0A                 string size (10)
7BF0  746869734D6F7669+  "thisMovi"
7BF8  6500               "e\0"
                         const [2]: "thisMovie"
7BFA  04                 const type 4
7BFB  03                 string size (3)
7BFC  5F5400             "_T\0"
                         const [3]: "_T"
7BFF  01                 const type 3
7C00  72204054           const [4]: (1413488754)
7C04  04                 const type 4
7C05  0A                 string size (10)
7C06  73796E6469636174+  "syndicat"
7C0E  6500               "e\0"
                         const [5]: "syndicate"
7C10  04                 const type 4
7C11  12                 string size (18)
7C12  6B656C61446F6754+  "kelaDogT"
7C1A  6167517565727956+  "agQueryV"
7C22  4F00               "O\0"
                         const [6]: "kelaDogTagQueryVO"
7C24  04                 const type 4
7C25  14                 string size (20)
7C26  6B656C61446F6754+  "kelaDogT"
7C2E  6167436F6E666972+  "agConfir"
7C36  6D564F00           "mVO\0"
                         const [7]: "kelaDogTagConfirmVO"
                         * functions:
7C3A  00                 sizep (0)
                         * lines:
7C3B  0B                 sizelineinfo (11)
                         [pc] (line)
7C3C  CE                 [01] (-50)
7C3D  03                 [02] (-50)
7C3E  00                 [03] (-50)
7C3F  00                 [04] (-50)
7C40  CE                 [05] (-49)
7C41  03                 [06] (-49)
7C42  00                 [07] (-49)
7C43  00                 [08] (-49)
7C44  CE                 [09] (-49)
7C45  03                 [10] (-49)
7C46  00                 [11] (-48)
                         * locals:
7C68  00                 sizelocvars (0)
                         * upvalues:
7C69  00                 sizeupvalues (0)
                         ** end of function **

                         
7C6A                     ** function [44] definition (level 2)
                         ** start of function **
7C6A  00                 string size (0)
                         source name: (none)
7C6C  07                 line defined (978)
7C6D  DB                 last line defined (987)
7C6E  07                 nups (3)
7C6F  03                 numparams (3)
7C70  03                 is_vararg (0)
7C71  00                 maxstacksize (6)
                         * code:
7C73  16                 sizecode (22)
fail op	35
7C74  23004001           [01] close      0  
7C78  1A800480           [02] jmp        19           ; to [22]
7C7C  D3000000           [03] getupval   3   0      
7C80  D8400000           [04] test       3       1    ; to [6] if false
7C84  1AC00380           [05] jmp        16           ; to [22]
7C88  DD400000           [06] getglobal  3   1        ; string
7C8C  CE80C001           [07] gettable   3   3   258  ; -565905820
7C90  12018000           [08] move       4   1      
7C94  59C10000           [09] loadk      5   3        ; "_ENTER"
7C98  E2808001           [10] call       3   3   2  
fail op	35
7C9C  6300C101           [11] close      1  
7CA0  1A000280           [12] jmp        9            ; to [22]
7CA4  D3008000           [13] getupval   3   1      
fail op	35
7CA8  6340C101           [14] close      1  
7CAC  1A400180           [15] jmp        6            ; to [22]
7CB0  D3000001           [16] getupval   3   2      
7CB4  13018000           [17] getupval   4   1      
7CB8  E2400001           [18] call       3   2   1  
7CBC  DD800100           [19] getglobal  3   6        ; mMovie
7CC0  E4C0C101           [20] self       3   3   263  ; 1086829369
7CC4  E2400001           [21] call       3   2   1  
7CC8  1E008000           [22] return     0   1      
                         * constants:
7CCC  08                 sizek (8)
7CCD  04                 const type 4
7CCE  02                 string size (2)
7CCF  3000               "0\0"
                         const [0]: "0"
7CD1  04                 const type 4
7CD2  07                 string size (7)
7CD3  737472696E6700     "string\0"
                         const [1]: "string"
7CDA  01                 const type 3
7CDB  64F644DE           const [2]: (-565905820)
7CDF  04                 const type 4
7CE0  07                 string size (7)
7CE1  5F454E54455200     "_ENTER\0"
                         const [3]: "_ENTER"
7CE8  00                 const type 0
                         const [4]: nil
7CE9  01                 const type 3
7CEA  00000000           const [5]: (0)
7CEE  04                 const type 4
7CEF  07                 string size (7)
7CF0  6D4D6F76696500     "mMovie\0"
                         const [6]: "mMovie"
7CF7  01                 const type 3
7CF8  39B3C740           const [7]: (1086829369)
                         * functions:
7CFC  00                 sizep (0)
                         * lines:
7CFD  16                 sizelineinfo (22)
                         [pc] (line)
7CFE  D3                 [01] (-45)
7CFF  03                 [02] (-45)
7D00  00                 [03] (-45)
7D01  00                 [04] (-45)
7D02  D3                 [05] (-45)
7D03  03                 [06] (-44)
7D04  00                 [07] (-44)
7D05  00                 [08] (-44)
7D06  D3                 [09] (-44)
7D07  03                 [10] (-44)
7D08  00                 [11] (-44)
7D09  00                 [12] (-44)
7D0A  D3                 [13] (-43)
7D0B  03                 [14] (-43)
7D0C  00                 [15] (-43)
7D0D  00                 [16] (-42)
7D0E  D3                 [17] (-42)
7D0F  03                 [18] (-42)
7D10  00                 [19] (-41)
7D11  00                 [20] (-41)
7D12  D4                 [21] (-41)
7D13  03                 [22] (-37)
                         * locals:
7D56  00                 sizelocvars (0)
                         * upvalues:
7D57  00                 sizeupvalues (0)
                         ** end of function **

                         
7D58                     ** function [45] definition (level 2)
                         ** start of function **
7D58  00                 string size (0)
                         source name: (none)
7D5A  07                 line defined (989)
7D5B  E4                 last line defined (996)
7D5C  07                 nups (2)
7D5D  02                 numparams (2)
7D5E  02                 is_vararg (0)
7D5F  00                 maxstacksize (7)
                         * code:
7D61  12                 sizecode (18)
7D62  93000000           [01] getupval   2   0      
7D66  98400000           [02] test       2       1    ; to [4] if false
7D6A  1A400380           [03] jmp        14           ; to [18]
7D6E  93008000           [04] getupval   2   1      
7D72  8E004001           [05] gettable   2   2   256  ; "mScrollBar"
7D76  DD400000           [06] getglobal  3   1        ; 1074689893
7D7A  12010001           [07] move       4   2      
7D7E  E2800001           [08] call       3   2   2  
7D82  D8400000           [09] test       3       1    ; to [11] if false
7D86  1A800180           [10] jmp        7            ; to [18]
7D8A  E4804001           [11] self       3   2   258  ; -1622081655
7D8E  5DC10000           [12] getglobal  5   3        ; -174740002
7D92  92018000           [13] move       6   1      
7D96  62810001           [14] call       5   2   2  
7D9A  9D010100           [15] getglobal  6   4        ; _G
7D9E  8E414103           [16] gettable   6   6   261  ; "UISound_Scroll"
7DA2  E2400002           [17] call       3   4   1  
7DA6  1E008000           [18] return     0   1      
                         * constants:
7DAA  06                 sizek (6)
7DAB  04                 const type 4
7DAC  0B                 string size (11)
7DAD  6D5363726F6C6C42+  "mScrollB"
7DB5  617200             "ar\0"
                         const [0]: "mScrollBar"
7DB8  01                 const type 3
7DB9  65770E40           const [1]: (1074689893)
7DBD  01                 const type 3
7DBE  89FF509F           const [2]: (-1622081655)
7DC2  01                 const type 3
7DC3  DEAD95F5           const [3]: (-174740002)
7DC7  04                 const type 4
7DC8  03                 string size (3)
7DC9  5F4700             "_G\0"
                         const [4]: "_G"
7DCC  04                 const type 4
7DCD  0F                 string size (15)
7DCE  5549536F756E645F+  "UISound_"
7DD6  5363726F6C6C00     "Scroll\0"
                         const [5]: "UISound_Scroll"
                         * functions:
7DDD  00                 sizep (0)
                         * lines:
7DDE  12                 sizelineinfo (18)
                         [pc] (line)
7DDF  DE                 [01] (-34)
7DE0  03                 [02] (-34)
7DE1  00                 [03] (-34)
7DE2  00                 [04] (-33)
7DE3  DE                 [05] (-33)
7DE4  03                 [06] (-32)
7DE5  00                 [07] (-32)
7DE6  00                 [08] (-32)
7DE7  DE                 [09] (-32)
7DE8  03                 [10] (-32)
7DE9  00                 [11] (-31)
7DEA  00                 [12] (-31)
7DEB  DF                 [13] (-31)
7DEC  03                 [14] (-31)
7DED  00                 [15] (-31)
7DEE  00                 [16] (-31)
7DEF  DF                 [17] (-31)
7DF0  03                 [18] (-28)
                         * locals:
7E27  00                 sizelocvars (0)
                         * upvalues:
7E28  00                 sizeupvalues (0)
                         ** end of function **

                         
7E29                     ** function [46] definition (level 2)
                         ** start of function **
7E29  00                 string size (0)
                         source name: (none)
7E2B  07                 line defined (998)
7E2C  EB                 last line defined (1003)
7E2D  07                 nups (2)
7E2E  02                 numparams (0)
7E2F  00                 is_vararg (0)
7E30  00                 maxstacksize (2)
                         * code:
7E32  08                 sizecode (8)
7E33  13000000           [1] getupval   0   0      
7E37  18400000           [2] test       0       1    ; to [4] if false
7E3B  1A400080           [3] jmp        2            ; to [6]
7E3F  13008000           [4] getupval   0   1      
7E43  22408000           [5] call       0   1   1  
7E47  17008000           [6] loadbool   0   1   0    ; true
7E4B  1E000001           [7] return     0   2      
7E4F  1E008000           [8] return     0   1      
                         * constants:
7E53  00                 sizek (0)
                         * functions:
7E54  00                 sizep (0)
                         * lines:
7E55  08                 sizelineinfo (8)
                         [pc] (line)
7E56  E7                 [1] (-25)
7E57  03                 [2] (-25)
7E58  00                 [3] (-25)
7E59  00                 [4] (-24)
7E5A  E7                 [5] (-24)
7E5B  03                 [6] (-22)
7E5C  00                 [7] (-22)
7E5D  00                 [8] (-21)
                         * locals:
7E76  00                 sizelocvars (0)
                         * upvalues:
7E77  00                 sizeupvalues (0)
                         ** end of function **

                         
7E78                     ** function [47] definition (level 2)
                         ** start of function **
7E78  00                 string size (0)
                         source name: (none)
7E7A  07                 line defined (1005)
7E7B  F6                 last line defined (1014)
7E7C  07                 nups (3)
7E7D  03                 numparams (1)
7E7E  01                 is_vararg (0)
7E7F  00                 maxstacksize (6)
                         * code:
7E81  18                 sizecode (24)
7E82  53000000           [01] getupval   1   0      
fail op	35
7E86  6300C000           [02] close      1  
7E8A  1A800080           [03] jmp        3            ; to [7]
7E8E  53000000           [04] getupval   1   0      
7E92  6440C000           [05] self       1   1   257  ; 1685109492
7E96  62400001           [06] call       1   2   1  
7E9A  5D800000           [07] getglobal  1   2        ; mMovie
7E9E  64C0C000           [08] self       1   1   259  ; 1086829369
7EA2  62400001           [09] call       1   2   1  
7EA6  53008000           [10] getupval   1   1      
7EAA  58400000           [11] test       1       1    ; to [13] if false
7EAE  1A800280           [12] jmp        11           ; to [24]
7EB2  5D000100           [13] getglobal  1   4        ; 1074689893
7EB6  93000001           [14] getupval   2   2      
7EBA  62800001           [15] call       1   2   2  
7EBE  58400000           [16] test       1       1    ; to [18] if false
7EC2  1A400180           [17] jmp        6            ; to [24]
7EC6  53000001           [18] getupval   1   2      
7ECA  6440C000           [19] self       1   1   257  ; 1685109492
7ECE  C6008001           [20] loadnil    3   3      
7ED2  17018000           [21] loadbool   4   1   0    ; true
7ED6  57018000           [22] loadbool   5   1   0    ; true
7EDA  62408002           [23] call       1   5   1  
7EDE  1E008000           [24] return     0   1      
                         * constants:
7EE2  05                 sizek (5)
7EE3  00                 const type 0
                         const [0]: nil
7EE4  01                 const type 3
7EE5  F4BA7064           const [1]: (1685109492)
7EE9  04                 const type 4
7EEA  07                 string size (7)
7EEB  6D4D6F76696500     "mMovie\0"
                         const [2]: "mMovie"
7EF2  01                 const type 3
7EF3  39B3C740           const [3]: (1086829369)
7EF7  01                 const type 3
7EF8  65770E40           const [4]: (1074689893)
                         * functions:
7EFC  00                 sizep (0)
                         * lines:
7EFD  18                 sizelineinfo (24)
                         [pc] (line)
7EFE  EE                 [01] (-18)
7EFF  03                 [02] (-18)
7F00  00                 [03] (-18)
7F01  00                 [04] (-17)
7F02  EE                 [05] (-17)
7F03  03                 [06] (-17)
7F04  00                 [07] (-14)
7F05  00                 [08] (-14)
7F06  EE                 [09] (-14)
7F07  03                 [10] (-13)
7F08  00                 [11] (-13)
7F09  00                 [12] (-13)
7F0A  EF                 [13] (-13)
7F0B  03                 [14] (-13)
7F0C  00                 [15] (-13)
7F0D  00                 [16] (-13)
7F0E  EF                 [17] (-13)
7F0F  03                 [18] (-12)
7F10  00                 [19] (-12)
7F11  00                 [20] (-12)
7F12  EF                 [21] (-12)
7F13  03                 [22] (-12)
7F14  00                 [23] (-12)
7F15  00                 [24] (-10)
                         * locals:
7F5E  00                 sizelocvars (0)
                         * upvalues:
7F5F  00                 sizeupvalues (0)
                         ** end of function **

                         
7F60                     ** function [48] definition (level 2)
                         ** start of function **
7F60  00                 string size (0)
                         source name: (none)
7F62  07                 line defined (1016)
7F63  FC                 last line defined (1020)
7F64  07                 nups (2)
7F65  02                 numparams (1)
7F66  01                 is_vararg (0)
7F67  00                 maxstacksize (5)
                         * code:
7F69  0F                 sizecode (15)
7F6A  53000000           [01] getupval   1   0      
7F6E  58400000           [02] test       1       1    ; to [4] if false
7F72  1A800280           [03] jmp        11           ; to [15]
7F76  5D000000           [04] getglobal  1   0        ; 1074689893
7F7A  93008000           [05] getupval   2   1      
7F7E  62800001           [06] call       1   2   2  
7F82  58400000           [07] test       1       1    ; to [9] if false
7F86  1A400180           [08] jmp        6            ; to [15]
7F8A  53008000           [09] getupval   1   1      
7F8E  6440C000           [10] self       1   1   257  ; 1002639746
7F92  DD800000           [11] getglobal  3   2        ; -174740002
7F96  12010000           [12] move       4   0      
7F9A  E2000001           [13] call       3   2   0  
7F9E  62400000           [14] call       1   0   1  
7FA2  1E008000           [15] return     0   1      
                         * constants:
7FA6  03                 sizek (3)
7FA7  01                 const type 3
7FA8  65770E40           const [0]: (1074689893)
7FAC  01                 const type 3
7FAD  8211C33B           const [1]: (1002639746)
7FB1  01                 const type 3
7FB2  DEAD95F5           const [2]: (-174740002)
                         * functions:
7FB6  00                 sizep (0)
                         * lines:
7FB7  0F                 sizelineinfo (15)
                         [pc] (line)
7FB8  F9                 [01] (-7)
7FB9  03                 [02] (-7)
7FBA  00                 [03] (-7)
7FBB  00                 [04] (-7)
7FBC  F9                 [05] (-7)
7FBD  03                 [06] (-7)
7FBE  00                 [07] (-7)
7FBF  00                 [08] (-7)
7FC0  F9                 [09] (-6)
7FC1  03                 [10] (-6)
7FC2  00                 [11] (-6)
7FC3  00                 [12] (-6)
7FC4  F9                 [13] (-6)
7FC5  03                 [14] (-6)
7FC6  00                 [15] (-4)
                         * locals:
7FF4  00                 sizelocvars (0)
                         * upvalues:
7FF5  00                 sizeupvalues (0)
                         ** end of function **

                         
7FF6                     ** function [49] definition (level 2)
                         ** start of function **
7FF6  00                 string size (0)
                         source name: (none)
7FF8  07                 line defined (1022)
7FF9  82                 last line defined (1026)
7FFA  08                 nups (2)
7FFB  02                 numparams (1)
7FFC  01                 is_vararg (0)
7FFD  00                 maxstacksize (5)
                         * code:
7FFF  0F                 sizecode (15)
8000  53000000           [01] getupval   1   0      
8004  58400000           [02] test       1       1    ; to [4] if false
8008  1A800280           [03] jmp        11           ; to [15]
800C  5D000000           [04] getglobal  1   0        ; 1074689893
8010  93008000           [05] getupval   2   1      
8014  62800001           [06] call       1   2   2  
8018  58400000           [07] test       1       1    ; to [9] if false
801C  1A400180           [08] jmp        6            ; to [15]
8020  53008000           [09] getupval   1   1      
8024  6440C000           [10] self       1   1   257  ; -1967297336
8028  DD800000           [11] getglobal  3   2        ; -174740002
802C  12010000           [12] move       4   0      
8030  E2000001           [13] call       3   2   0  
8034  62400000           [14] call       1   0   1  
8038  1E008000           [15] return     0   1      
                         * constants:
803C  03                 sizek (3)
803D  01                 const type 3
803E  65770E40           const [0]: (1074689893)
8042  01                 const type 3
8043  C86CBD8A           const [1]: (-1967297336)
8047  01                 const type 3
8048  DEAD95F5           const [2]: (-174740002)
                         * functions:
804C  00                 sizep (0)
                         * lines:
804D  0F                 sizelineinfo (15)
                         [pc] (line)
804E  FF                 [01] (-1)
804F  03                 [02] (-1)
8050  00                 [03] (-1)
8051  00                 [04] (-1)
8052  FF                 [05] (-1)
8053  03                 [06] (-1)
8054  00                 [07] (-1)
8055  00                 [08] (-1)
8056  FF                 [09] (0)
8057  03                 [10] (0)
8058  00                 [11] (0)
8059  00                 [12] (0)
805A  FF                 [13] (0)
805B  03                 [14] (0)
805C  00                 [15] (2)
                         * locals:
808A  00                 sizelocvars (0)
                         * upvalues:
808B  00                 sizeupvalues (0)
                         ** end of function **

                         
808C                     ** function [50] definition (level 2)
                         ** start of function **
808C  00                 string size (0)
                         source name: (none)
808E  08                 line defined (1028)
808F  88                 last line defined (1032)
8090  08                 nups (2)
8091  02                 numparams (1)
8092  01                 is_vararg (0)
8093  00                 maxstacksize (5)
                         * code:
8095  0F                 sizecode (15)
8096  53000000           [01] getupval   1   0      
809A  58400000           [02] test       1       1    ; to [4] if false
809E  1A800280           [03] jmp        11           ; to [15]
80A2  5D000000           [04] getglobal  1   0        ; 1074689893
80A6  93008000           [05] getupval   2   1      
80AA  62800001           [06] call       1   2   2  
80AE  58400000           [07] test       1       1    ; to [9] if false
80B2  1A400180           [08] jmp        6            ; to [15]
80B6  53008000           [09] getupval   1   1      
80BA  6440C000           [10] self       1   1   257  ; 561426718
80BE  DD800000           [11] getglobal  3   2        ; -174740002
80C2  12010000           [12] move       4   0      
80C6  E2000001           [13] call       3   2   0  
80CA  62400000           [14] call       1   0   1  
80CE  1E008000           [15] return     0   1      
                         * constants:
80D2  03                 sizek (3)
80D3  01                 const type 3
80D4  65770E40           const [0]: (1074689893)
80D8  01                 const type 3
80D9  1EB17621           const [1]: (561426718)
80DD  01                 const type 3
80DE  DEAD95F5           const [2]: (-174740002)
                         * functions:
80E2  00                 sizep (0)
                         * lines:
80E3  0F                 sizelineinfo (15)
                         [pc] (line)
80E4  05                 [01] (5)
80E5  04                 [02] (5)
80E6  00                 [03] (5)
80E7  00                 [04] (5)
80E8  05                 [05] (5)
80E9  04                 [06] (5)
80EA  00                 [07] (5)
80EB  00                 [08] (5)
80EC  05                 [09] (6)
80ED  04                 [10] (6)
80EE  00                 [11] (6)
80EF  00                 [12] (6)
80F0  05                 [13] (6)
80F1  04                 [14] (6)
80F2  00                 [15] (8)
                         * locals:
8120  00                 sizelocvars (0)
                         * upvalues:
8121  00                 sizeupvalues (0)
                         ** end of function **

                         * lines:
8123  02                 sizelineinfo (325)
                         [pc] (line)
8124  11                 [001] (17)
8125  00                 [002] (17)
8126  00                 [003] (17)
8127  00                 [004] (18)
8128  11                 [005] (18)
8129  00                 [006] (18)
812A  00                 [007] (20)
812B  00                 [008] (23)
812C  11                 [009] (23)
812D  00                 [010] (23)
812E  00                 [011] (24)
812F  00                 [012] (24)
8130  12                 [013] (24)
8131  00                 [014] (25)
8132  00                 [015] (25)
8133  00                 [016] (25)
8134  12                 [017] (27)
8135  00                 [018] (28)
8136  00                 [019] (29)
8137  00                 [020] (33)
8138  12                 [021] (34)
8139  00                 [022] (36)
813A  00                 [023] (38)
813B  00                 [024] (42)
813C  14                 [025] (43)
813D  00                 [026] (44)
813E  00                 [027] (45)
813F  00                 [028] (46)
8140  17                 [029] (47)
8141  00                 [030] (50)
8142  00                 [031] (52)
8143  00                 [032] (52)
8144  17                 [033] (52)
8145  00                 [034] (53)
8146  00                 [035] (56)
8147  00                 [036] (57)
8148  17                 [037] (58)
8149  00                 [038] (59)
814A  00                 [039] (61)
814B  00                 [040] (62)
814C  18                 [041] (64)
814D  00                 [042] (68)
814E  00                 [043] (68)
814F  00                 [044] (68)
8150  18                 [045] (66)
8151  00                 [046] (73)
8152  00                 [047] (93)
8153  00                 [048] (93)
8154  18                 [049] (93)
8155  00                 [050] (93)
8156  00                 [051] (93)
8157  00                 [052] (93)
8158  19                 [053] (93)
8159  00                 [054] (93)
815A  00                 [055] (93)
815B  00                 [056] (97)
815C  19                 [057] (97)
815D  00                 [058] (97)
815E  00                 [059] (95)
815F  00                 [060] (107)
8160  19                 [061] (-98)
8161  00                 [062] (-98)
8162  00                 [063] (-98)
8163  00                 [064] (-98)
8164  1B                 [065] (-98)
8165  00                 [066] (-98)
8166  00                 [067] (-39)
8167  00                 [068] (-39)
8168  1C                 [069] (-39)
8169  00                 [070] (-39)
816A  00                 [071] (-39)
816B  00                 [072] (-39)
816C  1D                 [073] (-39)
816D  00                 [074] (-39)
816E  00                 [075] (-39)
816F  00                 [076] (-39)
8170  21                 [077] (-39)
8171  00                 [078] (-39)
8172  00                 [079] (-39)
8173  00                 [080] (-95)
8174  22                 [081] (-26)
8175  00                 [082] (-26)
8176  00                 [083] (-26)
8177  00                 [084] (-26)
8178  24                 [085] (-26)
8179  00                 [086] (-37)
817A  00                 [087] (48)
817B  00                 [088] (48)
817C  26                 [089] (48)
817D  00                 [090] (48)
817E  00                 [091] (48)
817F  00                 [092] (48)
8180  2A                 [093] (48)
8181  00                 [094] (48)
8182  00                 [095] (52)
8183  00                 [096] (52)
8184  2B                 [097] (52)
8185  00                 [098] (50)
8186  00                 [099] (58)
8187  00                 [100] (58)
8188  2C                 [101] (58)
8189  00                 [102] (54)
818A  00                 [103] (96)
818B  00                 [104] (96)
818C  2D                 [105] (96)
818D  00                 [106] (96)
818E  00                 [107] (96)
818F  00                 [108] (96)
8190  2E                 [109] (-76)
8191  00                 [110] (-76)
8192  00                 [111] (-76)
8193  00                 [112] (-76)
8194  2F                 [113] (-76)
8195  00                 [114] (-76)
8196  00                 [115] (-76)
8197  00                 [116] (-76)
8198  32                 [117] (-76)
8199  00                 [118] (-76)
819A  00                 [119] (-76)
819B  00                 [120] (-76)
819C  34                 [121] (-76)
819D  00                 [122] (-76)
819E  00                 [123] (-76)
819F  00                 [124] (-76)
81A0  34                 [125] (-76)
81A1  00                 [126] (-68)
81A2  00                 [127] (-68)
81A3  00                 [128] (-68)
81A4  34                 [129] (-23)
81A5  00                 [130] (-23)
81A6  00                 [131] (-23)
81A7  00                 [132] (-23)
81A8  35                 [133] (-23)
81A9  00                 [134] (-23)
81AA  00                 [135] (-23)
81AB  00                 [136] (-23)
81AC  38                 [137] (-23)
81AD  00                 [138] (125)
81AE  00                 [139] (125)
81AF  00                 [140] (125)
81B0  39                 [141] (125)
81B1  00                 [142] (125)
81B2  00                 [143] (-123)
81B3  00                 [144] (-123)
81B4  3A                 [145] (-109)
81B5  00                 [146] (-109)
81B6  00                 [147] (-66)
81B7  00                 [148] (-66)
81B8  3B                 [149] (-66)
81B9  00                 [150] (-66)
81BA  00                 [151] (-66)
81BB  00                 [152] (-66)
81BC  3D                 [153] (-66)
81BD  00                 [154] (-66)
81BE  00                 [155] (-66)
81BF  00                 [156] (-66)
81C0  3E                 [157] (-66)
81C1  00                 [158] (-66)
81C2  00                 [159] (-107)
81C3  00                 [160] (-42)
81C4  40                 [161] (-42)
81C5  00                 [162] (-42)
81C6  00                 [163] (-42)
81C7  00                 [164] (-42)
81C8  44                 [165] (-42)
81C9  00                 [166] (-42)
81CA  00                 [167] (-42)
81CB  00                 [168] (-42)
81CC  44                 [169] (-42)
81CD  00                 [170] (-42)
81CE  00                 [171] (-64)
81CF  00                 [172] (-11)
81D0  44                 [173] (-11)
81D1  00                 [174] (-11)
81D2  00                 [175] (-11)
81D3  00                 [176] (-11)
81D4  42                 [177] (-11)
81D5  00                 [178] (-11)
81D6  00                 [179] (-11)
81D7  00                 [180] (-11)
81D8  49                 [181] (-11)
81D9  00                 [182] (-11)
81DA  00                 [183] (-11)
81DB  00                 [184] (-40)
81DC  5D                 [185] (-3)
81DD  00                 [186] (-3)
81DE  00                 [187] (-3)
81DF  00                 [188] (-3)
81E0  5D                 [189] (-9)
81E1  00                 [190] (4)
81E2  00                 [191] (4)
81E3  00                 [192] (-1)
81E4  5D                 [193] (12)
81E5  00                 [194] (12)
81E6  00                 [195] (12)
81E7  00                 [196] (12)
81E8  5D                 [197] (6)
81E9  00                 [198] (16)
81EA  00                 [199] (16)
81EB  00                 [200] (14)
81EC  5D                 [201] (22)
81ED  00                 [202] (22)
81EE  00                 [203] (22)
81EF  00                 [204] (18)
81F0  5D                 [205] (38)
81F1  00                 [206] (38)
81F2  00                 [207] (38)
81F3  00                 [208] (38)
81F4  5D                 [209] (38)
81F5  00                 [210] (38)
81F6  00                 [211] (38)
81F7  00                 [212] (38)
81F8  5D                 [213] (38)
81F9  00                 [214] (61)
81FA  00                 [215] (61)
81FB  00                 [216] (61)
81FC  5D                 [217] (61)
81FD  00                 [218] (61)
81FE  00                 [219] (61)
81FF  00                 [220] (61)
8200  61                 [221] (61)
8201  00                 [222] (61)
8202  00                 [223] (61)
8203  00                 [224] (65)
8204  61                 [225] (65)
8205  00                 [226] (65)
8206  00                 [227] (63)
8207  00                 [228] (69)
8208  61                 [229] (69)
8209  00                 [230] (69)
820A  00                 [231] (67)
820B  00                 [232] (74)
820C  5F                 [233] (74)
820D  00                 [234] (78)
820E  00                 [235] (78)
820F  00                 [236] (78)
8210  6B                 [237] (76)
8211  00                 [238] (88)
8212  00                 [239] (88)
8213  00                 [240] (88)
8214  9E                 [241] (88)
8215  00                 [242] (80)
8216  00                 [243] (98)
8217  00                 [244] (98)
8218  9E                 [245] (98)
8219  00                 [246] (98)
821A  00                 [247] (90)
821B  00                 [248] (104)
821C  9E                 [249] (104)
821D  00                 [250] (104)
821E  00                 [251] (104)
821F  00                 [252] (100)
8220  9E                 [253] (108)
8221  00                 [254] (108)
8222  00                 [255] (108)
8223  00                 [256] (106)
8224  9E                 [257] (-120)
8225  00                 [258] (-120)
8226  00                 [259] (-120)
8227  00                 [260] (-120)
8228  9E                 [261] (-120)
8229  00                 [262] (-120)
822A  00                 [263] (-120)
822B  00                 [264] (-120)
822C  D9                 [265] (-80)
822D  00                 [266] (-80)
822E  00                 [267] (-80)
822F  00                 [268] (-75)
8230  D9                 [269] (-75)
8231  00                 [270] (-75)
8232  00                 [271] (-75)
8233  00                 [272] (-78)
8234  D9                 [273] (-69)
8235  00                 [274] (-69)
8236  00                 [275] (-63)
8237  00                 [276] (-63)
8238  D9                 [277] (-58)
8239  00                 [278] (-58)
823A  00                 [279] (-58)
823B  00                 [280] (-61)
823C  D9                 [281] (-53)
823D  00                 [282] (-53)
823E  00                 [283] (-53)
823F  00                 [284] (-56)
8240  D9                 [285] (-48)
8241  00                 [286] (-48)
8242  00                 [287] (-51)
8243  00                 [288] (-37)
8244  D9                 [289] (-37)
8245  00                 [290] (-37)
8246  00                 [291] (-37)
8247  00                 [292] (-37)
8248  D9                 [293] (-46)
8249  00                 [294] (-28)
824A  00                 [295] (-28)
824B  00                 [296] (-28)
824C  D9                 [297] (-28)
824D  00                 [298] (-35)
824E  00                 [299] (-21)
824F  00                 [300] (-21)
8250  D9                 [301] (-21)
8251  00                 [302] (-21)
8252  00                 [303] (-26)
8253  00                 [304] (-10)
8254  D9                 [305] (-10)
8255  00                 [306] (-10)
8256  00                 [307] (-10)
8257  00                 [308] (-10)
8258  D9                 [309] (-19)
8259  00                 [310] (-4)
825A  00                 [311] (-4)
825B  00                 [312] (-4)
825C  D9                 [313] (-4)
825D  00                 [314] (-8)
825E  00                 [315] (2)
825F  00                 [316] (2)
8260  A1                 [317] (2)
8261  00                 [318] (2)
8262  00                 [319] (-2)
8263  00                 [320] (8)
8264  E6                 [321] (8)
8265  00                 [322] (8)
8266  00                 [323] (8)
8267  00                 [324] (4)
8268  E6                 [325] (8)
                         * locals:
8638  00                 sizelocvars (0)
                         * upvalues:
8639  00                 sizeupvalues (0)
                         ** end of function **

863A                     ** end of chunk **
