1	C:\wlua_dump\path\Lotus\InterfaceRadialSolarMapLite.lua
Pos   Hex Data           Description or Code
------------------------------------------------------------------------
0000                     ** source chunk: C:\wlua_dump\path\Lotus\InterfaceRadialSolarMapLite.lua
                         ** global header start **
0000  7F                 header signature: ""
0001  00                 version (major:minor hex digits)
0002  00                 format (0=official)
0003  00                 endianness (1=little endian)
0004  00                 size of int (bytes)
0005  00                 size of size_t (bytes)
0006  02                 size of Instruction (bytes)
0007  17                 size of number (bytes)
0008  58                 integral (1=integral)
488
                         * number type: single
                         * x86 standard (32-bit, little endian, doubles)
                         ** global header end **
EE.Interface.Utilities
Lotus.Interface.LotusUtilities

GhoulEmergence
TransitionOut
Initialize
Update
OnWorldStateChanged
OnQuestsChanged
SetTrigger

 (
)
<br>
@ 
: 
mMovie
mNode
mConcurrentNodes
table

name
mDesc
Engine
mExpiry
mOngoing

string
/Lotus/Language/Menu/Notification_Expiry_Heading
: 
<br>
mTypes
mItemType
mBounty
mMaxConclave
mNode
Pvp
/Lotus/Language/Menu/Notification_Conclave
/Lotus/Language/Menu/Notification_Bounty
mFomorian
mVictimNode
locTag
mFaction
Lotus_Game
FC_GRINEER
/Lotus/Language/Menu/FomorianCountdown
/Lotus/Language/Menu/RazorbackArmadaCountdown
/Lotus/Language/Menu/Notification_Fomorian
/Lotus/Language/Menu/CorpusRazorbackProject
region
name
LOCATION
<b>
</b>
TIME
mHealthPct
%1.1f
/Lotus/Language/Menu/FomorianHealth
/Lotus/Language/Menu/RazorbackArmadaHealth
: </font><font color="#
%X
_G
UIColor_Health
"><b>
%</b></font><font color="#
UIColor_White
">
mInvasion
/Lotus/Language/Bosses/NefAnyoName
/Lotus/Language/Bosses/BossAladV
gGameData
<p><font size="24"><b>
</b></font>
<font face="Noto Sans" size="24"><br></font><font face="Noto Sans" size="24"><b>
 (
mCount
-
mCountAlt
) 
<font size="24"><br>
: </font><font size="24"><b>
<font size="24"><br><b>
/Lotus/Language/Dojo/ResearchStatusComplete
<br></font>
<font size="24">
mToolTip
</b></font><font size="14"><br></font>
</font><font face="Noto Sans" size="24"><br>
/Lotus/Language/Menu/AlertPopup_Rewards
:
mInterimGoals
mInterimRewards
math
mGoal
mReward
)
 / 
</p>
mRelayReconstruction
_T
CachedConstructionProjects
info
progress
mTag
mToolTips
</font><font size="14"><br></font>
/Lotus/Language/Menu/GhoulPopulation
<p><font face="Noto Sans"><b>
</b><br>
 | 
mMovie
mBonusGoal
mBest
 @ 
/Lotus/Language/Menu/SingleReward
mClampNodeScores
 
mBonusReward
/Lotus/Language/Menu/WorldStateBest
mScoreLocTag
VALUE
mClanGoal
/Lotus/Language/Menu/WorldStateClanEventProgress
CLAN_NAME


mPersonal
%
mScoreMaxNode
<br></font><font face="Noto Sans"><b>
</font></p>

mMissionInfo
location
locTag
descText
region
name
mMovie
missionReward
Engine
mExpiry
/Lotus/Language/Menu/Notification_Expiry
string
mTag
EMPTY_SYMBOL
/Lotus/Language/Menu/Notification_Alert
<p><font face="Noto Sans"><b>
</b></font><font face="Noto Sans">: 
 (
) - 
. 
</font></p>
GetAlertMessage: no starChart
gGameData
mMovie
<p><font color="#EFEFEF"><b>
</b>

mMainMission
mKey
mLocTag
<br>
</font></p>

_T
ShowNotification
table
Quest
Label
Icon
_G
UITexture_Story
TextHeight
Localized
mItemType
mProgress
Engine
NagTime
gGameRules
/Lotus/Language/Menu/NewQuestAvailable
Text
NewQuest
CachedGoalInfo
mIcon
UITexture_Event
mGoal
mBest
mRelayReconstruction
mInvasion
math
MergedGoalNodes
mNode
mPersonal
mTypes
mMaxConclave
MinWidth
Ratio
GoalInfo
mFomorian
Count
Best
LastTimeUpdate
Update
mInvasionNode
EMPTY_SYMBOL
CachedInvasionInfo
mExpiry
mCount
mId
mDelta
 (
mAttackerName
)
mDefenderName
<p><font size="24"><b>
/Lotus/Language/Menu/DilemmaActiveLocation
: 
 
mCountAlt
</b><br></font>
<font size="24">
/Lotus/Language/Menu/DilemmaActiveProgress
OPTION_ONE
OPTION_TWO
VALUE_ONE
VALUE_TWO
 / 
string
/Lotus/Language/Menu/Notification_Expiry_Heading
: <b>
</font>
mOngoing
mActivation
sec
mSeasonInfo
mActiveChallenges
nightwaveIcon
<p><font face="Noto Sans"><b>
/Lotus/Language/SystemMessages/RadioLegionName
</b>: 
mChallenge
mDaily
nightwaveWeeklyHardIcon
nightwaveWeeklyIcon
nightwaveDailyIcon
gChallengeMgr
/Lotus/Language/Challenges/Challenge_
_Description
COUNT
/
<p><font face="Noto Sans">
Progress
/Lotus/Language/SystemMessages/WeeklyActProgress
TOTAL
numVisibleNightwaveChallenges
CachedAlerts
mVisible
mAlertInfo
UITexture_Alert
CachedVoidTraders
locTag
region
name
/Lotus/Language/Menu/Vendor_Void_GenericTitle
</b></font><font face="Noto Sans">: 
) - 
voidTraderIcon
worldCycleIcon
Header
/Lotus/Language/SystemMessages/WorldCycles
Nodes
PLAINS_NODE_TAG
ORB_VALLIS_NODE_TAG
TimeTags
/Lotus/Language/SystemMessages/PlainsOfEidolonTime
/Lotus/Language/SystemMessages/OrbVallisTime
TimeToNextLabel
NextTimeLabel
LABEL
TIME
CompactOne
/Lotus/Language/Menu/SolarMap
solarMapIcon
mElements
mForcedVerticalSeparation
mClipName
_y
Panel
_width
.Label
_xscale
textWidth
_x
mInitialX
_height
UISys
FlashInstance_SMOOTH_STEP
_alpha
_z
LastTimeUpdate
Label
GoalInfo
Count
Best
GoalInfo
mOngoing
mSuccess
mActivation
sec
Progress
LastTimeUpdate
Label
Header
Nodes
<br>
TimeToNextLabel
NextTimeLabel
mMovie
TimeTags
LABEL
TIME
CompactOne
</font></p>
EE.Interface.Components.List
mMovie
QuestLine
mForcedVerticalSeparation
mElementTransitionTime
mElementDelayTime
mTransitionInDeltaY
mTransitionOutDeltaY
mOnFocusedCallback
mOnUnfocusedCallback
mOnSelectedCallback
mElementDrawCallback
SetupPreInterpolationValues
GetInterpolationProperties
Localized
mMovie
mClipName
.Label
text
Label
.Label.text
_yscale
TextHeight
textHeight
Icon
.Icon
Progress
_visible
Ratio
_y
.Progress.Bg
_width
Progress.Fill
math
mMovie
mClipName
_z
_alpha
_z
mMovie
Panel
_alpha
_z
_root
UISys
FlashInstance_SMOOTH_STEP
mMovie
mMovie
_root
UISys
FlashInstance_LINEAR
_alpha
mMovie
<CHECKMARK>
 
<CHECKMARK_OUTLINE>
RobotoLoader
text

_G
UIMaterial_Diegetic
gGameRules
Update
mMovie
gGameRules
gGameRules
                         
0001                     ** function [0] definition (level 1)
                         ** start of function **
0001  00                 string size (0)
                         source name: (none)
0002  00                 line defined (0)
0003  00                 last line defined (0)
0004  00                 nups (0)
0005  00                 numparams (0)
0006  02                 is_vararg (2)
0007  17                 maxstacksize (23)
                         * code:
0008  58                 sizecode (88)
0009  1D000000           [01] getglobal  0   0        ; 849075268
000D  59400000           [02] loadk      1   1        ; "EE.Interface.Utilities"
0011  22800001           [03] call       0   2   2  
0015  5D000000           [04] getglobal  1   0        ; 849075268
0019  99800000           [05] loadk      2   2        ; "Lotus.Interface.LotusUtilities"
001D  62800001           [06] call       1   2   2  
0021  97000000           [07] loadbool   2   0   0    ; false
0025  C6008001           [08] loadnil    3   3      
0029  17010000           [09] loadbool   4   0   0    ; false
002D  46018002           [10] loadnil    5   5      
0031  8B010000           [11] newtable   6   0   0    ; array=0, hash=0
0035  CB010000           [12] newtable   7   0   0    ; array=0, hash=0
0039  17020000           [13] loadbool   8   0   0    ; false
003D  59C20000           [14] loadk      9   3        ; ""
0041  99C20000           [15] loadk      10  3        ; ""
0045  DD020100           [16] getglobal  11  4        ; -332969190
0049  19430100           [17] loadk      12  5        ; "GhoulEmergence"
004D  E2820001           [18] call       11  2   2  
0051  25030000           [19] closure    12  0      
0055  12000000           [20] move       0   0      
0059  12008004           [21] move       0   9      
005D  12000005           [22] move       0   10     
0061  12008000           [23] move       0   1      
0065  65430000           [24] closure    13  1      
0069  12008000           [25] move       0   1      
006D  A5830000           [26] closure    14  2      
0071  12000000           [27] move       0   0      
0075  12008000           [28] move       0   1      
0079  12000006           [29] move       0   12     
007D  12008005           [30] move       0   11     
0081  12008006           [31] move       0   13     
0085  E5C30000           [32] closure    15  3      
0089  12008000           [33] move       0   1      
008D  12000000           [34] move       0   0      
0091  25040100           [35] closure    16  4      
0095  12008001           [36] move       0   3      
0099  12008000           [37] move       0   1      
009D  12000000           [38] move       0   0      
00A1  12000003           [39] move       0   6      
00A5  12008003           [40] move       0   7      
00A9  12000007           [41] move       0   14     
00AD  12008007           [42] move       0   15     
00B1  12008002           [43] move       0   5      
00B5  65440100           [44] closure    17  5      
00B9  12008001           [45] move       0   3      
00BD  A5840100           [46] closure    18  6      
00C1  12000002           [47] move       0   4      
00C5  12000008           [48] move       0   16     
00C9  E5C40100           [49] closure    19  7      
00CD  12008000           [50] move       0   1      
00D1  12000009           [51] move       0   18     
00D5  25050200           [52] closure    20  8      
00D9  65450200           [53] closure    21  9      
00DD  1200000A           [54] move       0   20     
00E1  60850100           [55] setglobal  21  6        ; TransitionOut
00E5  60C50100           [56] setglobal  21  7        ; 1888989620
00E9  65850200           [57] closure    21  10     
00ED  12008004           [58] move       0   9      
00F1  12000005           [59] move       0   10     
00F5  12008008           [60] move       0   17     
00F9  12008009           [61] move       0   19     
00FD  12000004           [62] move       0   8      
0101  12000001           [63] move       0   2      
0105  60050200           [64] setglobal  21  8        ; Initialize
0109  60450200           [65] setglobal  21  9        ; 1650753590
010D  65C50200           [66] closure    21  11     
0111  A5050300           [67] closure    22  12     
0115  12000001           [68] move       0   2      
0119  12000004           [69] move       0   8      
011D  12008009           [70] move       0   19     
0121  12008001           [71] move       0   3      
0125  1200800A           [72] move       0   21     
0129  A0850200           [73] setglobal  22  10       ; Update
012D  A0C50200           [74] setglobal  22  11       ; -1938777623
0131  A5450300           [75] closure    22  13     
0135  12000002           [76] move       0   4      
0139  12000008           [77] move       0   16     
013D  A0050300           [78] setglobal  22  12       ; OnWorldStateChanged
0141  A0450300           [79] setglobal  22  13       ; -320909290
0145  A5850300           [80] closure    22  14     
0149  12000002           [81] move       0   4      
014D  12000008           [82] move       0   16     
0151  A0850300           [83] setglobal  22  14       ; OnQuestsChanged
0155  A0C50300           [84] setglobal  22  15       ; 1080379620
0159  A5C50300           [85] closure    22  15     
015D  A0050400           [86] setglobal  22  16       ; SetTrigger
0161  A0450400           [87] setglobal  22  17       ; 1066756660
0165  1E008000           [88] return     0   1      
                         * constants:
0169  12                 sizek (18)
016A  01                 const type 3
016B  44DC9B32           const [0]: (849075268)
016F  04                 const type 4
0170  17                 string size (23)
0171  45452E496E746572+  "EE.Inter"
0179  666163652E557469+  "face.Uti"
0181  6C697469657300     "lities\0"
                         const [1]: "EE.Interface.Utilities"
0188  04                 const type 4
0189  1F                 string size (31)
018A  4C6F7475732E496E+  "Lotus.In"
0192  746572666163652E+  "terface."
019A  4C6F747573557469+  "LotusUti"
01A2  6C697469657300     "lities\0"
                         const [2]: "Lotus.Interface.LotusUtilities"
01A9  04                 const type 4
01AA  01                 string size (0)
                         const [3]: ""
01AC  01                 const type 3
01AD  1A4B27EC           const [4]: (-332969190)
01B1  04                 const type 4
01B2  0F                 string size (15)
01B3  47686F756C456D65+  "GhoulEme"
01BB  7267656E636500     "rgence\0"
                         const [5]: "GhoulEmergence"
01C2  04                 const type 4
01C3  0E                 string size (14)
01C4  5472616E73697469+  "Transiti"
01CC  6F6E4F757400       "onOut\0"
                         const [6]: "TransitionOut"
01D2  01                 const type 3
01D3  B4B19770           const [7]: (1888989620)
01D7  04                 const type 4
01D8  0B                 string size (11)
01D9  496E697469616C69+  "Initiali"
01E1  7A6500             "ze\0"
                         const [8]: "Initialize"
01E4  01                 const type 3
01E5  36806462           const [9]: (1650753590)
01E9  04                 const type 4
01EA  07                 string size (7)
01EB  55706461746500     "Update\0"
                         const [10]: "Update"
01F2  01                 const type 3
01F3  E999708C           const [11]: (-1938777623)
01F7  04                 const type 4
01F8  14                 string size (20)
01F9  4F6E576F726C6453+  "OnWorldS"
0201  746174654368616E+  "tateChan"
0209  67656400           "ged\0"
                         const [12]: "OnWorldStateChanged"
020D  01                 const type 3
020E  1650DFEC           const [13]: (-320909290)
0212  04                 const type 4
0213  10                 string size (16)
0214  4F6E517565737473+  "OnQuests"
021C  4368616E67656400   "Changed\0"
                         const [14]: "OnQuestsChanged"
0224  01                 const type 3
0225  E4486540           const [15]: (1080379620)
0229  04                 const type 4
022A  0B                 string size (11)
022B  5365745472696767+  "SetTrigg"
0233  657200             "er\0"
                         const [16]: "SetTrigger"
0236  01                 const type 3
0237  346A953F           const [17]: (1066756660)
                         * functions:
023B  10                 sizep (16)
                         
023C                     ** function [0] definition (level 2)
                         ** start of function **
023C  00                 string size (0)
                         source name: (none)
023D  1B                 line defined (27)
023E  22                 last line defined (34)
023F  04                 nups (4)
0240  04                 numparams (4)
0241  00                 is_vararg (0)
0242  0E                 maxstacksize (14)
                         * code:
0243  22                 sizecode (34)
0244  D8000000           [01] test       3       0    ; to [3] if true
0248  1A800180           [02] jmp        7            ; to [10]
fail op	35
024C  6300C001           [03] close      1  
0250  1A000180           [04] jmp        5            ; to [10]
0254  19410000           [05] loadk      4   1        ; " ("
0258  52018001           [06] move       5   3      
025C  99810000           [07] loadk      6   2        ; ")"
0260  C2800102           [08] concat     3   4   6  
0264  1A000080           [09] jmp        1            ; to [11]
0268  D9000000           [10] loadk      3   0        ; ""
026C  19C10000           [11] loadk      4   3        ; "<br>"
0270  53010000           [12] getupval   5   0      
0274  4E01C102           [13] gettable   5   5   260  ; -132701534
fail op	33
0278  61008000           [14] tforloop   1       0    ; to [16] if exit
027C  1A000080           [15] jmp        1            ; to [17]
0280  97410000           [16] loadbool   6   0   1    ; false, to [18]
0284  97018000           [17] loadbool   6   1   0    ; true
0288  D3018000           [18] getupval   7   1      
028C  13020001           [19] getupval   8   2      
0290  62810002           [20] call       5   4   2  
0294  99410100           [21] loadk      6   5        ; "@ "
0298  D2018000           [22] move       7   1      
029C  12028001           [23] move       8   3      
02A0  59820100           [24] loadk      9   6        ; ": "
02A4  9DC20100           [25] getglobal  10  7        ; -764638816
02A8  D3028001           [26] getupval   11  3      
02AC  CE02C205           [27] gettable   11  11  264  ; -265239752
02B0  1D430200           [28] getglobal  12  9        ; mMovie
02B4  52030001           [29] move       13  2      
02B8  E2028001           [30] call       11  3   0  
02BC  A2820000           [31] call       10  0   2  
02C0  02810202           [32] concat     4   4   10 
02C4  1E010001           [33] return     4   2      
02C8  1E008000           [34] return     0   1      
                         * constants:
02CC  0A                 sizek (10)
02CD  04                 const type 4
02CE  01                 string size (0)
                         const [0]: ""
02D0  04                 const type 4
02D1  03                 string size (3)
02D2  202800             " (\0"
                         const [1]: " ("
02D5  04                 const type 4
02D6  02                 string size (2)
02D7  2900               ")\0"
                         const [2]: ")"
02D9  04                 const type 4
02DA  05                 string size (5)
02DB  3C62723E00         "<br>\0"
                         const [3]: "<br>"
02E0  01                 const type 3
02E1  A22217F8           const [4]: (-132701534)
02E5  04                 const type 4
02E6  03                 string size (3)
02E7  402000             "@ \0"
                         const [5]: "@ "
02EA  04                 const type 4
02EB  03                 string size (3)
02EC  3A2000             ": \0"
                         const [6]: ": "
02EF  01                 const type 3
02F0  A0896CD2           const [7]: (-764638816)
02F4  01                 const type 3
02F5  38C330F0           const [8]: (-265239752)
02F9  04                 const type 4
02FA  07                 string size (7)
02FB  6D4D6F76696500     "mMovie\0"
                         const [9]: "mMovie"
                         * functions:
0302  00                 sizep (0)
                         * lines:
0303  22                 sizelineinfo (34)
                         [pc] (line)
0304  1C                 [01] (28)
0305  00                 [02] (28)
0306  00                 [03] (28)
0307  00                 [04] (28)
0308  1C                 [05] (29)
0309  00                 [06] (29)
030A  00                 [07] (29)
030B  00                 [08] (29)
030C  1C                 [09] (29)
030D  00                 [10] (31)
030E  00                 [11] (33)
030F  00                 [12] (33)
0310  1C                 [13] (33)
0311  00                 [14] (33)
0312  00                 [15] (33)
0313  00                 [16] (33)
0314  1D                 [17] (33)
0315  00                 [18] (33)
0316  00                 [19] (33)
0317  00                 [20] (33)
0318  1D                 [21] (33)
0319  00                 [22] (33)
031A  00                 [23] (33)
031B  00                 [24] (33)
031C  1D                 [25] (33)
031D  00                 [26] (33)
031E  00                 [27] (33)
031F  00                 [28] (33)
0320  1D                 [29] (33)
0321  00                 [30] (33)
0322  00                 [31] (33)
0323  00                 [32] (33)
0324  1D                 [33] (33)
0325  00                 [34] (34)
                         * locals:
038C  00                 sizelocvars (0)
                         * upvalues:
038D  00                 sizeupvalues (0)
                         ** end of function **

                         
038E                     ** function [1] definition (level 2)
                         ** start of function **
038E  00                 string size (0)
                         source name: (none)
038F  24                 line defined (36)
0390  47                 last line defined (71)
0391  01                 nups (1)
0392  01                 numparams (1)
0393  00                 is_vararg (0)
0394  15                 maxstacksize (21)
                         * code:
0395  47                 sizecode (71)
0396  4B000000           [01] newtable   1   0   0    ; array=0, hash=0
039A  18000000           [02] test       0       0    ; to [4] if true
039E  1A400C80           [03] jmp        50           ; to [54]
03A2  8B008000           [04] newtable   2   1   0    ; array=1, hash=0
03A6  CE004000           [05] gettable   3   0   256  ; "mNode"
03AA  9B408000           [06] setlist    2   1   1    ; index 1 to 1
03AE  D9400000           [07] loadk      3   1        ; 0
03B2  0E814000           [08] gettable   4   0   258  ; "mConcurrentNodes"
03B6  0A010002           [09] len        4   4      
03BA  59410000           [10] loadk      5   1        ; 0
03BE  D0400180           [11] forprep    3   6        ; to [18]
03C2  DDC10000           [12] getglobal  7   3        ; table
03C6  CE01C103           [13] gettable   7   7   260  ; -431682403
03CA  12020001           [14] move       8   2      
03CE  4E824000           [15] gettable   9   0   258  ; "mConcurrentNodes"
03D2  4E828104           [16] gettable   9   9   6  
03D6  E2418001           [17] call       7   3   1  
03DA  D400FE7F           [18] forloop    3   -7       ; to [12] if loop
03DE  D3010000           [19] getupval   7   0      
03E2  CE41C103           [20] gettable   7   7   261  ; -1153782542
03E6  E2818000           [21] call       7   1   2  
03EA  19420000           [22] loadk      8   1        ; 0
03EE  4A020001           [23] len        9   2      
03F2  99420000           [24] loadk      10  1        ; 0
03F6  10820680           [25] forprep    8   27       ; to [53]
03FA  0EC30201           [26] gettable   12  2   11 
fail op	35
03FE  63804106           [27] close      1  
0402  1AC00580           [28] jmp        24           ; to [53]
0406  1DC30100           [29] getglobal  12  7        ; 1074689893
040A  52038003           [30] move       13  7      
040E  22830001           [31] call       12  2   2  
0412  18430000           [32] test       12      1    ; to [34] if false
0416  1A800480           [33] jmp        19           ; to [53]
041A  2403C203           [34] self       12  7   264  ; -163473155
041E  9D430200           [35] getglobal  14  9        ; -332969190
0422  CEC30201           [36] gettable   15  2   11 
0426  A2030001           [37] call       14  2   0  
042A  22830000           [38] call       12  0   2  
042E  4E834206           [39] gettable   13  12  266  ; "name"
fail op	35
0432  6380C106           [40] close      1  
0436  1A800280           [41] jmp        11           ; to [53]
043A  5DC30200           [42] getglobal  13  11       ; -421772368
043E  9D030300           [43] getglobal  14  12       ; -1615931716
0442  CE834206           [44] gettable   15  12  266  ; "name"
0446  A2830001           [45] call       14  2   2  
044A  D7030000           [46] loadbool   15  0   0    ; false
044E  62838001           [47] call       13  3   2  
0452  9DC30000           [48] getglobal  14  3        ; table
0456  8E034107           [49] gettable   14  14  260  ; -431682403
045A  D2038000           [50] move       15  1      
045E  12048006           [51] move       16  13     
0462  A2438001           [52] call       14  3   1  
0466  14C2F87F           [53] forloop    8   -28      ; to [26] if loop
046A  97038000           [54] loadbool   14  1   0    ; true
046E  D9430300           [55] loadk      15  13       ; 0
0472  0A048000           [56] len        16  1      
0476  59440000           [57] loadk      17  1        ; 0
047A  D0430180           [58] forprep    15  6        ; to [65]
047E  CE44C000           [59] gettable   19  1   257  ; 0
0482  0E858400           [60] gettable   20  1   18 
fail op	35
0486  63008509           [61] close      1  
048A  1A400080           [62] jmp        2            ; to [65]
048E  97030000           [63] loadbool   14  0   0    ; false
0492  1A000080           [64] jmp        1            ; to [66]
0496  D403FE7F           [65] forloop    15  -7       ; to [59] if loop
049A  98030000           [66] test       14      0    ; to [68] if true
049E  1A400080           [67] jmp        2            ; to [70]
04A2  CE44C000           [68] gettable   19  1   257  ; 0
04A6  DE040001           [69] return     19  2      
04AA  5E000001           [70] return     1   2      
04AE  1E008000           [71] return     0   1      
                         * constants:
04B2  0E                 sizek (14)
04B3  04                 const type 4
04B4  06                 string size (6)
04B5  6D4E6F646500       "mNode\0"
                         const [0]: "mNode"
04BB  03                 const type 3
04BC  0000803F           const [1]: (0)
04C0  04                 const type 4
04C1  11                 string size (17)
04C2  6D436F6E63757272+  "mConcurr"
04CA  656E744E6F646573+  "entNodes"
04D2  00                 "\0"
                         const [2]: "mConcurrentNodes"
04D3  04                 const type 4
04D4  06                 string size (6)
04D5  7461626C6500       "table\0"
                         const [3]: "table"
04DB  01                 const type 3
04DC  9D0C45E6           const [4]: (-431682403)
04E0  01                 const type 3
04E1  F2AC3ABB           const [5]: (-1153782542)
04E5  04                 const type 4
04E6  01                 string size (0)
                         const [6]: ""
04E8  01                 const type 3
04E9  65770E40           const [7]: (1074689893)
04ED  01                 const type 3
04EE  FD9841F6           const [8]: (-163473155)
04F2  01                 const type 3
04F3  1A4B27EC           const [9]: (-332969190)
04F7  04                 const type 4
04F8  05                 string size (5)
04F9  6E616D6500         "name\0"
                         const [10]: "name"
04FE  01                 const type 3
04FF  B043DCE6           const [11]: (-421772368)
0503  01                 const type 3
0504  BCD6AE9F           const [12]: (-1615931716)
0508  03                 const type 3
0509  00000040           const [13]: (0)
                         * functions:
050D  00                 sizep (0)
                         * lines:
050E  47                 sizelineinfo (71)
                         [pc] (line)
050F  25                 [01] (37)
0510  00                 [02] (39)
0511  00                 [03] (39)
0512  00                 [04] (40)
0513  27                 [05] (40)
0514  00                 [06] (40)
0515  00                 [07] (41)
0516  00                 [08] (41)
0517  27                 [09] (41)
0518  00                 [10] (41)
0519  00                 [11] (41)
051A  00                 [12] (42)
051B  28                 [13] (42)
051C  00                 [14] (42)
051D  00                 [15] (42)
051E  00                 [16] (42)
051F  28                 [17] (42)
0520  00                 [18] (41)
0521  00                 [19] (45)
0522  00                 [20] (45)
0523  28                 [21] (45)
0524  00                 [22] (46)
0525  00                 [23] (46)
0526  00                 [24] (46)
0527  29                 [25] (46)
0528  00                 [26] (47)
0529  00                 [27] (47)
052A  00                 [28] (47)
052B  29                 [29] (47)
052C  00                 [30] (47)
052D  00                 [31] (47)
052E  00                 [32] (47)
052F  29                 [33] (47)
0530  00                 [34] (48)
0531  00                 [35] (48)
0532  00                 [36] (48)
0533  29                 [37] (48)
0534  00                 [38] (48)
0535  00                 [39] (49)
0536  00                 [40] (49)
0537  29                 [41] (49)
0538  00                 [42] (50)
0539  00                 [43] (50)
053A  00                 [44] (50)
053B  2A                 [45] (50)
053C  00                 [46] (50)
053D  00                 [47] (50)
053E  00                 [48] (51)
053F  2A                 [49] (51)
0540  00                 [50] (51)
0541  00                 [51] (51)
0542  00                 [52] (51)
0543  2A                 [53] (46)
0544  00                 [54] (58)
0545  00                 [55] (59)
0546  00                 [56] (59)
0547  2A                 [57] (59)
0548  00                 [58] (59)
0549  00                 [59] (60)
054A  00                 [60] (60)
054B  2A                 [61] (60)
054C  00                 [62] (60)
054D  00                 [63] (61)
054E  00                 [64] (62)
054F  2A                 [65] (59)
0550  00                 [66] (66)
0551  00                 [67] (66)
0552  00                 [68] (67)
0553  29                 [69] (67)
0554  00                 [70] (70)
0555  00                 [71] (71)
                         * locals:
062B  00                 sizelocvars (0)
                         * upvalues:
062C  00                 sizeupvalues (0)
                         ** end of function **

                         
062D                     ** function [2] definition (level 2)
                         ** start of function **
062D  00                 string size (0)
                         source name: (none)
062E  49                 line defined (73)
062F  91                 last line defined (273)
0630  02                 nups (5)
0631  05                 numparams (3)
0632  03                 is_vararg (0)
0633  00                 maxstacksize (65)
                         * code:
0636  05                 sizecode (723)
0637  DD000000           [001] getglobal  3   0        ; -421772368
063B  0E414000           [002] gettable   4   0   257  ; "mDesc"
063F  46018002           [003] loadnil    5   5      
0643  E2808001           [004] call       3   3   2  
0647  1D810000           [005] getglobal  4   2        ; Engine
064B  0EC14002           [006] gettable   4   4   259  ; -794986224
064F  4E014100           [007] gettable   5   0   260  ; "mExpiry"
0653  22810001           [008] call       4   2   2  
0657  53010000           [009] getupval   5   0      
065B  4E41C102           [010] gettable   5   5   261  ; -132701534
065F  8E814100           [011] gettable   6   0   262  ; "mOngoing"
0663  D9C10100           [012] loadk      7   7        ; ""
0667  1D020200           [013] getglobal  8   8        ; string
066B  0E424204           [014] gettable   8   8   265  ; 1671193642
066F  5D020000           [015] getglobal  9   0        ; -421772368
0673  99820200           [016] loadk      10  10       ; "/Lotus/Language/Menu/Notification_Expiry_Heading"
0677  C6028005           [017] loadnil    11  11     
067B  62028001           [018] call       9   3   0  
067F  22820000           [019] call       8   0   2  
0683  59C20200           [020] loadk      9   11       ; ": "
0687  93028000           [021] getupval   10  1      
068B  8E024305           [022] gettable   10  10  268  ; -443997422
068F  D2020002           [023] move       11  4      
0693  A2820001           [024] call       10  2   2  
0697  D9420300           [025] loadk      11  13       ; "<br>"
069B  02C20204           [026] concat     8   8   11 
069F  62810002           [027] call       5   4   2  
06A3  99C10100           [028] loadk      6   7        ; ""
06A7  CE814300           [029] gettable   7   0   270  ; "mTypes"
06AB  CA018003           [030] len        7   7      
fail op	21
06AF  55C08187           [031] concat     1   271 7  
06B3  1AC00180           [032] jmp        8            ; to [41]
06B7  DD010400           [033] getglobal  7   16       ; 1074689893
06BB  0E424400           [034] gettable   8   0   273  ; "mItemType"
06BF  E2810001           [035] call       7   2   2  
06C3  D8010000           [036] test       7       0    ; to [38] if true
06C7  1A800080           [037] jmp        3            ; to [41]
06CB  CE814400           [038] gettable   7   0   274  ; "mBounty"
06CF  D8010000           [039] test       7       0    ; to [41] if true
06D3  1A800480           [040] jmp        19           ; to [60]
06D7  CE814400           [041] gettable   7   0   274  ; "mBounty"
06DB  D8410000           [042] test       7       1    ; to [44] if false
06DF  1A800080           [043] jmp        3            ; to [47]
06E3  CEC14400           [044] gettable   7   0   275  ; "mMaxConclave"
fail op	21
06E7  15C08187           [045] concat     0   271 7  
06EB  1A000380           [046] jmp        13           ; to [60]
06EF  D3010000           [047] getupval   7   0      
06F3  CE41C103           [048] gettable   7   7   261  ; -132701534
06F7  1D020200           [049] getglobal  8   8        ; string
06FB  0E024504           [050] gettable   8   8   276  ; -565905820
06FF  5D420500           [051] getglobal  9   21       ; -1615931716
0703  8E824500           [052] gettable   10  0   278  ; "mNode"
0707  62820001           [053] call       9   2   2  
070B  99C20500           [054] loadk      10  23       ; "Pvp"
070F  22828001           [055] call       8   3   2  
0713  59020600           [056] loadk      9   24       ; "/Lotus/Language/Menu/Notification_Conclave"
0717  99420600           [057] loadk      10  25       ; "/Lotus/Language/Menu/Notification_Bounty"
071B  E2810002           [058] call       7   4   2  
071F  92018003           [059] move       6   7      
0723  CE814600           [060] gettable   7   0   282  ; "mFomorian"
0727  D8010000           [061] test       7       0    ; to [63] if true
072B  1A801E80           [062] jmp        123          ; to [186]
072F  DD010400           [063] getglobal  7   16       ; 1074689893
0733  13028000           [064] getupval   8   1      
0737  0EC24604           [065] gettable   8   8   283  ; -1153782542
073B  22028000           [066] call       8   1   0  
073F  E2810000           [067] call       7   0   2  
0743  D8410000           [068] test       7       1    ; to [70] if false
0747  1A405A80           [069] jmp        362          ; to [432]
074B  D3018000           [070] getupval   7   1      
074F  CEC1C603           [071] gettable   7   7   283  ; -1153782542
0753  E2818000           [072] call       7   1   2  
0757  2402C703           [073] self       8   7   284  ; -551469855
075B  8E424700           [074] gettable   10  0   285  ; "mVictimNode"
075F  22828001           [075] call       8   3   2  
0763  5D020000           [076] getglobal  9   0        ; -421772368
0767  9D420500           [077] getglobal  10  21       ; -1615931716
076B  CE824704           [078] gettable   11  8   286  ; "locTag"
076F  A2820001           [079] call       10  2   2  
0773  D7020000           [080] loadbool   11  0   0    ; false
0777  62828001           [081] call       9   3   2  
077B  93028000           [082] getupval   10  1      
077F  8EC24705           [083] gettable   10  10  287  ; -499932399
0783  D2020002           [084] move       11  4      
0787  A2820001           [085] call       10  2   2  
078B  D3020000           [086] getupval   11  0      
078F  CE42C105           [087] gettable   11  11  261  ; -132701534
0793  0E034800           [088] gettable   12  0   288  ; "mFaction"
0797  5D430800           [089] getglobal  13  33       ; Lotus_Game
079B  4E83C806           [090] gettable   13  13  290  ; "FC_GRINEER"
fail op	35
079F  63400306           [091] close      1  
07A3  1A000080           [092] jmp        1            ; to [94]
07A7  17430000           [093] loadbool   12  0   1    ; false, to [95]
07AB  17038000           [094] loadbool   12  1   0    ; true
07AF  59C30800           [095] loadk      13  35       ; "/Lotus/Language/Menu/FomorianCountdown"
07B3  99030900           [096] loadk      14  36       ; "/Lotus/Language/Menu/RazorbackArmadaCountdown"
07B7  E2820002           [097] call       11  4   2  
07BB  13030000           [098] getupval   12  0      
07BF  0E434106           [099] gettable   12  12  261  ; -132701534
07C3  4E034800           [100] gettable   13  0   288  ; "mFaction"
07C7  9D430800           [101] getglobal  14  33       ; Lotus_Game
07CB  8E834807           [102] gettable   14  14  290  ; "FC_GRINEER"
fail op	35
07CF  63808306           [103] close      1  
07D3  1A000080           [104] jmp        1            ; to [106]
07D7  57430000           [105] loadbool   13  0   1    ; false, to [107]
07DB  57038000           [106] loadbool   13  1   0    ; true
07DF  99430900           [107] loadk      14  37       ; "/Lotus/Language/Menu/Notification_Fomorian"
07E3  D9830900           [108] loadk      15  38       ; "/Lotus/Language/Menu/CorpusRazorbackProject"
07E7  22830002           [109] call       12  4   2  
07EB  92010006           [110] move       6   12     
07EF  1D030000           [111] getglobal  12  0        ; -421772368
07F3  64C3C903           [112] self       13  7   295  ; 1527673913
07F7  62830001           [113] call       13  2   2  
07FB  8E034A04           [114] gettable   14  8   296  ; "region"
07FF  83434A07           [115] add        14  14  297  ; 0
0803  4E838306           [116] gettable   13  13  14 
0807  4E83CA06           [117] gettable   13  13  298  ; "name"
080B  86030007           [118] loadnil    14  14     
080F  22838001           [119] call       12  3   2  
0813  D2000006           [120] move       3   12     
0817  1D030000           [121] getglobal  12  0        ; -421772368
081B  52038005           [122] move       13  11     
081F  8B830000           [123] newtable   14  0   2    ; array=0, hash=2
0823  D9030B00           [124] loadk      15  44       ; "<b>"
0827  12048004           [125] move       16  9      
082B  59440B00           [126] loadk      17  45       ; "</b>"
082F  C2438407           [127] concat     15  15  17 
0833  8CC38395           [128] settable   14  299 15   ; "LOCATION"
0837  D9430300           [129] loadk      15  13       ; "<br>"
083B  12040005           [130] move       16  10     
083F  C2038407           [131] concat     15  15  16 
0843  8CC30397           [132] settable   14  302 15   ; "TIME"
0847  22838001           [133] call       12  3   2  
084B  52010006           [134] move       5   12     
084F  0EC34B00           [135] gettable   12  0   303  ; "mHealthPct"
fail op	33
0853  21008387           [136] tforloop   0       12   ; to [138] if exit
0857  1A404980           [137] jmp        294          ; to [432]
085B  0EC34B00           [138] gettable   12  0   303  ; "mHealthPct"
fail op	21
085F  15008387           [139] concat     0   271 12 
0863  1A800080           [140] jmp        3            ; to [144]
fail op	21
0867  15004C06           [141] concat     0   12  304
086B  1A000080           [142] jmp        1            ; to [144]
086F  19030C00           [143] loadk      12  48       ; 111
0873  5D030200           [144] getglobal  13  8        ; string
0877  4E43CC06           [145] gettable   13  13  305  ; 1260343128
087B  99830C00           [146] loadk      14  50       ; "%1.1f"
087F  C4C34C06           [147] mul        15  12  307  ; 0
0883  62838001           [148] call       13  3   2  
0887  93030000           [149] getupval   14  0      
088B  8E434107           [150] gettable   14  14  261  ; -132701534
088F  CE034800           [151] gettable   15  0   288  ; "mFaction"
0893  1D440800           [152] getglobal  16  33       ; Lotus_Game
0897  0E844808           [153] gettable   16  16  290  ; "FC_GRINEER"
fail op	35
089B  63008407           [154] close      1  
089F  1A000080           [155] jmp        1            ; to [157]
08A3  D7430000           [156] loadbool   15  0   1    ; false, to [158]
08A7  D7038000           [157] loadbool   15  1   0    ; true
08AB  19040D00           [158] loadk      16  52       ; "/Lotus/Language/Menu/FomorianHealth"
08AF  59440D00           [159] loadk      17  53       ; "/Lotus/Language/Menu/RazorbackArmadaHealth"
08B3  A2830002           [160] call       14  4   2  
08B7  D2038002           [161] move       15  5      
08BB  19440300           [162] loadk      16  13       ; "<br>"
08BF  5D040000           [163] getglobal  17  0        ; -421772368
08C3  92040007           [164] move       18  14     
08C7  C6048009           [165] loadnil    19  19     
08CB  62848001           [166] call       17  3   2  
08CF  99840D00           [167] loadk      18  54       ; ": </font><font color=\"#"
08D3  DD040200           [168] getglobal  19  8        ; string
08D7  CE44CC09           [169] gettable   19  19  305  ; 1260343128
08DB  19C50D00           [170] loadk      20  55       ; "%X"
08DF  5D050E00           [171] getglobal  21  56       ; _G
08E3  4E45CE0A           [172] gettable   21  21  313  ; "UIColor_Health"
08E7  E2848001           [173] call       19  3   2  
08EB  19850E00           [174] loadk      20  58       ; "\"><b>"
08EF  52058006           [175] move       21  13     
08F3  99C50E00           [176] loadk      22  59       ; "%</b></font><font color=\"#"
08F7  DD050200           [177] getglobal  23  8        ; string
08FB  CE45CC0B           [178] gettable   23  23  305  ; 1260343128
08FF  19C60D00           [179] loadk      24  55       ; "%X"
0903  5D060E00           [180] getglobal  25  56       ; _G
0907  4E06CF0C           [181] gettable   25  25  316  ; "UIColor_White"
090B  E2858001           [182] call       23  3   2  
090F  19460F00           [183] loadk      24  61       ; "\">"
0913  42018607           [184] concat     5   15  24 
0917  1A403D80           [185] jmp        246          ; to [432]
091B  CE834F00           [186] gettable   15  0   318  ; "mInvasion"
091F  D8030000           [187] test       15      0    ; to [189] if true
0923  1A002980           [188] jmp        165          ; to [354]
0927  DD030200           [189] getglobal  15  8        ; string
092B  CE43C207           [190] gettable   15  15  265  ; 1671193642
092F  1D040000           [191] getglobal  16  0        ; -421772368
0933  59C40F00           [192] loadk      17  63       ; "/Lotus/Language/Bosses/NefAnyoName"
0937  97040000           [193] loadbool   18  0   0    ; false
093B  22048001           [194] call       16  3   0  
093F  E2830000           [195] call       15  0   2  
0943  1D040200           [196] getglobal  16  8        ; string
0947  0E444208           [197] gettable   16  16  265  ; 1671193642
094B  5D040000           [198] getglobal  17  0        ; -421772368
094F  99041000           [199] loadk      18  64       ; "/Lotus/Language/Bosses/BossAladV"
0953  D7040000           [200] loadbool   19  0   0    ; false
0957  62048001           [201] call       17  3   0  
095B  22840000           [202] call       16  0   2  
095F  59C00300           [203] loadk      1   15       ; 0
0963  46048008           [204] loadnil    17  17     
0967  9D040400           [205] getglobal  18  16       ; 1074689893
096B  DD441000           [206] getglobal  19  65       ; gGameData
096F  A2840001           [207] call       18  2   2  
0973  98440000           [208] test       18      1    ; to [210] if false
0977  1A800180           [209] jmp        7            ; to [217]
097B  93048000           [210] getupval   18  1      
097F  8E845009           [211] gettable   18  18  322  ; 155881504
0983  D2040000           [212] move       19  0      
0987  A2040101           [213] call       18  2   4  
098B  5204000A           [214] move       17  20     
098F  92008009           [215] move       2   19     
0993  52000009           [216] move       1   18     
0997  99C41000           [217] loadk      18  67       ; "<p><font size=\"24\"><b>"
099B  DD040000           [218] getglobal  19  0        ; -421772368
099F  12050003           [219] move       20  6      
09A3  57050000           [220] loadbool   21  0   0    ; false
09A7  E2848001           [221] call       19  3   2  
09AB  19C50200           [222] loadk      20  11       ; ": "
09AF  52058001           [223] move       21  3      
09B3  99051100           [224] loadk      22  68       ; "</b></font>"
09B7  82840509           [225] concat     18  18  22 
09BB  D2040009           [226] move       19  18     
09BF  19451100           [227] loadk      20  69       ; "<font face=\"Noto Sans\" size=\"24\"><br></font><font face=\"Noto Sans\" size=\"24\"><b>"
09C3  52058007           [228] move       21  15     
09C7  99851100           [229] loadk      22  70       ; " ("
09CB  CEC55100           [230] gettable   23  0   327  ; "mCount"
09CF  19061200           [231] loadk      24  72       ; "-"
09D3  4E465200           [232] gettable   25  0   329  ; "mCountAlt"
09D7  99861200           [233] loadk      26  74       ; ") "
09DB  D2060008           [234] move       27  16     
09DF  19071100           [235] loadk      28  68       ; "</b></font>"
09E3  82048709           [236] concat     18  19  28 
fail op	21
09E7  15008187           [237] concat     0   271 4  
09EB  1A000480           [238] jmp        17           ; to [256]
09EF  D2040009           [239] move       19  18     
09F3  19C51200           [240] loadk      20  75       ; "<font size=\"24\"><br>"
09F7  5D050200           [241] getglobal  21  8        ; string
09FB  4E45C20A           [242] gettable   21  21  265  ; 1671193642
09FF  9D050000           [243] getglobal  22  0        ; -421772368
0A03  D9850200           [244] loadk      23  10       ; "/Lotus/Language/Menu/Notification_Expiry_Heading"
0A07  0606000C           [245] loadnil    24  24     
0A0B  A2058001           [246] call       22  3   0  
0A0F  62850000           [247] call       21  0   2  
0A13  99051300           [248] loadk      22  76       ; ": </font><font size=\"24\"><b>"
0A17  D3058000           [249] getupval   23  1      
0A1B  CE05C30B           [250] gettable   23  23  268  ; -443997422
0A1F  12060002           [251] move       24  4      
0A23  E2850001           [252] call       23  2   2  
0A27  19460B00           [253] loadk      24  45       ; "</b>"
0A2B  82048609           [254] concat     18  19  24 
0A2F  1A800280           [255] jmp        11           ; to [267]
0A33  D2040009           [256] move       19  18     
0A37  19451300           [257] loadk      20  77       ; "<font size=\"24\"><br><b>"
0A3B  5D050200           [258] getglobal  21  8        ; string
0A3F  4E45C20A           [259] gettable   21  21  265  ; 1671193642
0A43  9D050000           [260] getglobal  22  0        ; -421772368
0A47  D9851300           [261] loadk      23  78       ; "/Lotus/Language/Dojo/ResearchStatusComplete"
0A4B  0606000C           [262] loadnil    24  24     
0A4F  A2058001           [263] call       22  3   0  
0A53  62850000           [264] call       21  0   2  
0A57  99450B00           [265] loadk      22  45       ; "</b>"
0A5B  82848509           [266] concat     18  19  22 
0A5F  D2040009           [267] move       19  18     
0A63  19C51300           [268] loadk      20  79       ; "<br></font>"
0A67  82048509           [269] concat     18  19  20 
0A6B  D2040009           [270] move       19  18     
0A6F  19051400           [271] loadk      20  80       ; "<font size=\"24\">"
0A73  5D050000           [272] getglobal  21  0        ; -421772368
0A77  8E455400           [273] gettable   22  0   337  ; "mToolTip"
0A7B  D7050000           [274] loadbool   23  0   0    ; false
0A7F  62858001           [275] call       21  3   2  
0A83  99851400           [276] loadk      22  82       ; "</b></font><font size=\"14\"><br></font>"
0A87  82848509           [277] concat     18  19  22 
0A8B  D2040009           [278] move       19  18     
0A8F  19C51400           [279] loadk      20  83       ; "</font><font face=\"Noto Sans\" size=\"24\"><br>"
0A93  82048509           [280] concat     18  19  20 
0A97  D2040009           [281] move       19  18     
0A9B  1D050000           [282] getglobal  20  0        ; -421772368
0A9F  59051500           [283] loadk      21  84       ; "/Lotus/Language/Menu/AlertPopup_Rewards"
0AA3  97050000           [284] loadbool   22  0   0    ; false
0AA7  22858001           [285] call       20  3   2  
0AAB  59451500           [286] loadk      21  85       ; ":"
0AAF  82448509           [287] concat     18  19  21 
0AB3  CE845500           [288] gettable   19  0   342  ; "mInterimGoals"
0AB7  0EC55500           [289] gettable   20  0   343  ; "mInterimRewards"
0ABB  59450A00           [290] loadk      21  41       ; 0
0ABF  9D051600           [291] getglobal  22  88       ; math
0AC3  8E45560B           [292] gettable   22  22  345  ; 1710846250
0AC7  CA058009           [293] len        23  19     
0ACB  0A06000A           [294] len        24  20     
0ACF  A2858001           [295] call       22  3   2  
0AD3  D9450A00           [296] loadk      23  41       ; 0
0AD7  50850280           [297] forprep    21  11       ; to [309]
0ADB  52060009           [298] move       25  18     
0ADF  93060001           [299] getupval   26  2      
0AE3  DD061600           [300] getglobal  27  88       ; math
0AE7  CE86D60D           [301] gettable   27  27  346  ; -113279800
0AEB  12078000           [302] move       28  1      
0AEF  E2860001           [303] call       27  2   2  
0AF3  0E078609           [304] gettable   28  19  24 
0AF7  4E07060A           [305] gettable   29  20  24 
0AFB  99C70100           [306] loadk      30  7        ; ""
0AFF  A2868002           [307] call       26  5   2  
0B03  8284860C           [308] concat     18  25  26 
0B07  54C5FC7F           [309] forloop    21  -12      ; to [298] if loop
0B0B  4EC65600           [310] gettable   25  0   347  ; "mGoal"
fail op	21
0B0F  15408687           [311] concat     0   271 25 
0B13  1A800280           [312] jmp        11           ; to [324]
0B17  52060009           [313] move       25  18     
0B1B  93060001           [314] getupval   26  2      
0B1F  DD061600           [315] getglobal  27  88       ; math
0B23  CE86D60D           [316] gettable   27  27  346  ; -113279800
0B27  12078000           [317] move       28  1      
0B2B  E2860001           [318] call       27  2   2  
0B2F  0EC75600           [319] gettable   28  0   347  ; "mGoal"
0B33  4E075700           [320] gettable   29  0   348  ; "mReward"
0B37  99C70100           [321] loadk      30  7        ; ""
0B3B  A2868002           [322] call       26  5   2  
0B3F  8284860C           [323] concat     18  25  26 
0B43  59C60100           [324] loadk      25  7        ; ""
fail op	21
0B47  15408087           [325] concat     0   271 1  
0B4B  1A000180           [326] jmp        5            ; to [332]
0B4F  99861100           [327] loadk      26  70       ; " ("
0B53  D2068007           [328] move       27  15     
0B57  19471700           [329] loadk      28  93       ; ")"
0B5B  4206070D           [330] concat     25  26  28 
0B5F  1A400180           [331] jmp        6            ; to [338]
fail op	21
0B63  15C0C300           [332] concat     0   1   271
0B67  1AC00080           [333] jmp        4            ; to [338]
0B6B  99861100           [334] loadk      26  70       ; " ("
0B6F  D2060008           [335] move       27  16     
0B73  19471700           [336] loadk      28  93       ; ")"
0B77  4206070D           [337] concat     25  26  28 
0B7B  92060009           [338] move       26  18     
0B7F  D9460300           [339] loadk      27  13       ; "<br>"
0B83  1D071600           [340] getglobal  28  88       ; math
0B87  0E87560E           [341] gettable   28  28  346  ; -113279800
0B8B  52078000           [342] move       29  1      
0B8F  22870001           [343] call       28  2   2  
0B93  59871700           [344] loadk      29  94       ; " / "
0B97  8EC75600           [345] gettable   30  0   347  ; "mGoal"
0B9B  D207800C           [346] move       31  25     
0B9F  19480B00           [347] loadk      32  45       ; "</b>"
0BA3  8204080D           [348] concat     18  26  32 
0BA7  92060009           [349] move       26  18     
0BAB  D9C61700           [350] loadk      27  95       ; "</p>"
0BAF  82C4060D           [351] concat     18  26  27 
0BB3  9E040001           [352] return     18  2      
0BB7  1A401380           [353] jmp        78           ; to [432]
0BBB  8E065800           [354] gettable   26  0   352  ; "mRelayReconstruction"
0BBF  98060000           [355] test       26      0    ; to [357] if true
0BC3  1A400880           [356] jmp        34           ; to [391]
0BC7  99C61000           [357] loadk      26  67       ; "<p><font size=\"24\"><b>"
0BCB  DD060000           [358] getglobal  27  0        ; -421772368
0BCF  0E474000           [359] gettable   28  0   257  ; "mDesc"
0BD3  57070000           [360] loadbool   29  0   0    ; false
0BD7  E2868001           [361] call       27  3   2  
0BDB  19071100           [362] loadk      28  68       ; "</b></font>"
0BDF  8206070D           [363] concat     26  26  28 
0BE3  DD461800           [364] getglobal  27  97       ; _T
0BE7  CE86D80D           [365] gettable   27  27  354  ; "CachedConstructionProjects"
0BEB  1DC71800           [366] getglobal  28  99       ; 248503575
0BEF  5207800D           [367] move       29  27     
0BF3  22070101           [368] call       28  2   4  
0BF7  1A000480           [369] jmp        17           ; to [387]
0BFB  4E085910           [370] gettable   33  32  356  ; "info"
0BFF  8E485910           [371] gettable   34  32  357  ; "progress"
0C03  CE88D910           [372] gettable   35  33  358  ; "mTag"
0C07  0E895900           [373] gettable   36  0   358  ; "mTag"
fail op	35
0C0B  23008911           [374] close      0  
0C0F  1A800280           [375] jmp        11           ; to [387]
0C13  CEC8D910           [376] gettable   35  33  359  ; "mToolTips"
0C17  03494A11           [377] add        36  34  297  ; 0
0C1B  CE088911           [378] gettable   35  35  36 
0C1F  1209000D           [379] move       36  26     
0C23  59C91200           [380] loadk      37  75       ; "<font size=\"24\"><br>"
0C27  9D090000           [381] getglobal  38  0        ; -421772368
0C2B  D2098011           [382] move       39  35     
0C2F  170A0000           [383] loadbool   40  0   0    ; false
0C33  A2898001           [384] call       38  3   2  
0C37  D9091A00           [385] loadk      39  104      ; "</font><font size=\"14\"><br></font>"
0C3B  82C60912           [386] concat     26  36  39 
0C3F  16870000           [387] tforloop   28      2    ; to [389] if exit
0C43  1A00FB7F           [388] jmp        -19          ; to [370]
0C47  9E060001           [389] return     26  2      
0C4B  1A000A80           [390] jmp        41           ; to [432]
0C4F  0E895900           [391] gettable   36  0   358  ; "mTag"
0C53  53098001           [392] getupval   37  3      
fail op	35
0C57  23400912           [393] close      0  
0C5B  1A000980           [394] jmp        37           ; to [432]
0C5F  0EC94B00           [395] gettable   36  0   303  ; "mHealthPct"
fail op	33
0C63  21008987           [396] tforloop   0       36   ; to [398] if exit
0C67  1A400880           [397] jmp        34           ; to [432]
0C6B  0EC94B00           [398] gettable   36  0   303  ; "mHealthPct"
fail op	21
0C6F  15008987           [399] concat     0   271 36 
0C73  1A800080           [400] jmp        3            ; to [404]
fail op	21
0C77  15004C12           [401] concat     0   36  304
0C7B  1A000080           [402] jmp        1            ; to [404]
0C7F  19090C00           [403] loadk      36  48       ; 111
0C83  5D090200           [404] getglobal  37  8        ; string
0C87  4E49CC12           [405] gettable   37  37  305  ; 1260343128
0C8B  99890C00           [406] loadk      38  50       ; "%1.1f"
0C8F  C4C94C12           [407] mul        39  36  307  ; 0
0C93  62898001           [408] call       37  3   2  
0C97  99491A00           [409] loadk      38  105      ; "/Lotus/Language/Menu/GhoulPopulation"
0C9B  DD090000           [410] getglobal  39  0        ; -421772368
0C9F  120A0013           [411] move       40  38     
0CA3  460A8014           [412] loadnil    41  41     
0CA7  E2898001           [413] call       39  3   2  
0CAB  198A0D00           [414] loadk      40  54       ; ": </font><font color=\"#"
0CAF  5D0A0200           [415] getglobal  41  8        ; string
0CB3  4E4ACC14           [416] gettable   41  41  305  ; 1260343128
0CB7  99CA0D00           [417] loadk      42  55       ; "%X"
0CBB  DD0A0E00           [418] getglobal  43  56       ; _G
0CBF  CE4ACE15           [419] gettable   43  43  313  ; "UIColor_Health"
0CC3  628A8001           [420] call       41  3   2  
0CC7  998A0E00           [421] loadk      42  58       ; "\"><b>"
0CCB  D20A8012           [422] move       43  37     
0CCF  19CB0E00           [423] loadk      44  59       ; "%</b></font><font color=\"#"
0CD3  5D0B0200           [424] getglobal  45  8        ; string
0CD7  4E4BCC16           [425] gettable   45  45  305  ; 1260343128
0CDB  99CB0D00           [426] loadk      46  55       ; "%X"
0CDF  DD0B0E00           [427] getglobal  47  56       ; _G
0CE3  CE0BCF17           [428] gettable   47  47  316  ; "UIColor_White"
0CE7  628B8001           [429] call       45  3   2  
0CEB  994B0F00           [430] loadk      46  61       ; "\">"
0CEF  42818B13           [431] concat     5   39  46 
0CF3  D3090000           [432] getupval   39  0      
0CF7  CE49C113           [433] gettable   39  39  261  ; -132701534
fail op	35
0CFB  63C04103           [434] close      1  
0CFF  1A000080           [435] jmp        1            ; to [437]
0D03  174A0000           [436] loadbool   40  0   1    ; false, to [438]
0D07  170A8000           [437] loadbool   40  1   0    ; true
0D0B  59CA0100           [438] loadk      41  7        ; ""
0D0F  9D0A0000           [439] getglobal  42  0        ; -421772368
0D13  D20A0003           [440] move       43  6      
0D17  170B0000           [441] loadbool   44  0   0    ; false
0D1B  A28A8001           [442] call       42  3   2  
0D1F  D9CA0200           [443] loadk      43  11       ; ": "
0D23  82CA0A15           [444] concat     42  42  43 
0D27  E2890002           [445] call       39  4   2  
0D2B  198A1A00           [446] loadk      40  106      ; "<p><font face=\"Noto Sans\"><b>"
0D2F  520A8013           [447] move       41  39     
0D33  920A8001           [448] move       42  3      
0D37  D9CA1A00           [449] loadk      43  107      ; "</b><br>"
0D3B  02CA0A14           [450] concat     40  40  43 
0D3F  4E4A5400           [451] gettable   41  0   337  ; "mToolTip"
fail op	35
0D43  63C0C114           [452] close      1  
0D47  1A800180           [453] jmp        7            ; to [461]
0D4B  520A0014           [454] move       41  40     
0D4F  9D0A0000           [455] getglobal  42  0        ; -421772368
0D53  CE4A5400           [456] gettable   43  0   337  ; "mToolTip"
0D57  170B0000           [457] loadbool   44  0   0    ; false
0D5B  A28A8001           [458] call       42  3   2  
0D5F  D94A0300           [459] loadk      43  13       ; "<br>"
0D63  02CA8A14           [460] concat     40  41  43 
0D67  530A0002           [461] getupval   41  4      
0D6B  920A0000           [462] move       42  0      
0D6F  628A0001           [463] call       41  2   2  
0D73  8A0A8014           [464] len        42  41     
fail op	35
0D77  23404A15           [465] close      0  
0D7B  1A400280           [466] jmp        10           ; to [477]
0D7F  8E8A4600           [467] gettable   42  0   282  ; "mFomorian"
0D83  984A0000           [468] test       42      1    ; to [470] if false
0D87  1A800180           [469] jmp        7            ; to [477]
0D8B  920A0014           [470] move       42  40     
0D8F  DD0A0200           [471] getglobal  43  8        ; string
0D93  CE4AC215           [472] gettable   43  43  265  ; 1671193642
0D97  0E4BCA14           [473] gettable   44  41  297  ; 0
0D9B  E28A0001           [474] call       43  2   2  
0D9F  190B1B00           [475] loadk      44  108      ; " | "
0DA3  020A0B15           [476] concat     40  42  44 
0DA7  920A0014           [477] move       42  40     
0DAB  D20A8002           [478] move       43  5      
0DAF  02CA0A15           [479] concat     40  42  43 
0DB3  930A8000           [480] getupval   42  1      
0DB7  8E4A5B15           [481] gettable   42  42  365  ; -265239752
0DBB  DD8A1B00           [482] getglobal  43  110      ; mMovie
0DBF  0E0B5700           [483] gettable   44  0   348  ; "mReward"
0DC3  A28A8001           [484] call       42  3   2  
0DC7  CECA5600           [485] gettable   43  0   347  ; "mGoal"
fail op	35
0DCB  63C0C315           [486] close      1  
0DCF  1A803980           [487] jmp        231          ; to [719]
0DD3  CECA5600           [488] gettable   43  0   347  ; "mGoal"
0DD7  170B0000           [489] loadbool   44  0   0    ; false
0DDB  4E8B5500           [490] gettable   45  0   342  ; "mInterimGoals"
0DDF  8A0B8016           [491] len        46  45     
0DE3  CECB5B00           [492] gettable   47  0   367  ; "mBonusGoal"
fail op	35
0DE7  23C0C317           [493] close      0  
0DEB  1A800680           [494] jmp        27           ; to [522]
fail op	35
0DEF  23C04317           [495] close      0  
0DF3  1A000680           [496] jmp        25           ; to [522]
0DF7  170B8000           [497] loadbool   44  1   0    ; true
0DFB  D9CB0100           [498] loadk      47  7        ; ""
0DFF  0E0C5C00           [499] gettable   48  0   368  ; "mBest"
0E03  180C0000           [500] test       48      0    ; to [502] if true
0E07  1A800080           [501] jmp        3            ; to [505]
0E0B  194C1C00           [502] loadk      48  113      ; " @ "
0E0F  4ECC5600           [503] gettable   49  0   347  ; "mGoal"
0E13  C24B0C18           [504] concat     47  48  49 
fail op	35
0E17  63C04115           [505] close      1  
0E1B  1A400580           [506] jmp        22           ; to [529]
0E1F  0E8C4600           [507] gettable   48  0   282  ; "mFomorian"
0E23  180C0000           [508] test       48      0    ; to [510] if true
0E27  1A800080           [509] jmp        3            ; to [513]
0E2B  120C0014           [510] move       48  40     
0E2F  594C0300           [511] loadk      49  13       ; "<br>"
0E33  024A0C18           [512] concat     40  48  49 
0E37  120C0014           [513] move       48  40     
0E3B  5D0C0000           [514] getglobal  49  0        ; -421772368
0E3F  998C1C00           [515] loadk      50  114      ; "/Lotus/Language/Menu/SingleReward"
0E43  D70C0000           [516] loadbool   51  0   0    ; false
0E47  628C8001           [517] call       49  3   2  
0E4B  920C8017           [518] move       50  47     
0E4F  D94C1500           [519] loadk      51  85       ; ":"
0E53  02CA0C18           [520] concat     40  48  51 
0E57  1A800180           [521] jmp        7            ; to [529]
0E5B  120C0014           [522] move       48  40     
0E5F  5D0C0000           [523] getglobal  49  0        ; -421772368
0E63  990C1500           [524] loadk      50  84       ; "/Lotus/Language/Menu/AlertPopup_Rewards"
0E67  D70C0000           [525] loadbool   51  0   0    ; false
0E6B  628C8001           [526] call       49  3   2  
0E6F  994C1500           [527] loadk      50  85       ; ":"
0E73  028A0C18           [528] concat     40  48  50 
0E77  0ECC5500           [529] gettable   48  0   343  ; "mInterimRewards"
0E7B  594C0A00           [530] loadk      49  41       ; 0
0E7F  9D0C1600           [531] getglobal  50  88       ; math
0E83  8E4C5619           [532] gettable   50  50  345  ; 1710846250
0E87  D20C0017           [533] move       51  46     
0E8B  0A0D0018           [534] len        52  48     
0E8F  A28C8001           [535] call       50  3   2  
0E93  D94C0A00           [536] loadk      51  41       ; 0
0E97  500C0480           [537] forprep    49  17       ; to [555]
0E9B  59CD0100           [538] loadk      53  7        ; ""
0E9F  8ECD5C00           [539] gettable   54  0   371  ; "mClampNodeScores"
0EA3  980D0000           [540] test       54      0    ; to [542] if true
0EA7  1A000180           [541] jmp        5            ; to [547]
0EAB  834D4A1A           [542] add        54  52  297  ; 0
0EAF  CA0D8014           [543] len        55  41     
fail op	33
0EB3  21C00D1B           [544] tforloop   0       55   ; to [546] if exit
0EB7  1A000080           [545] jmp        1            ; to [547]
0EBB  4E0D8D14           [546] gettable   53  41  52 
0EBF  920D0014           [547] move       54  40     
0EC3  D30D0001           [548] getupval   55  2      
0EC7  120E8000           [549] move       56  1      
0ECB  4E0E8D16           [550] gettable   57  45  52 
0ECF  8E0E0D18           [551] gettable   58  48  52 
0ED3  D20E801A           [552] move       59  53     
0ED7  E28D8002           [553] call       55  5   2  
0EDB  02CA0D1B           [554] concat     40  54  55 
0EDF  544CFB7F           [555] forloop    49  -18      ; to [538] if loop
0EE3  99CD0100           [556] loadk      54  7        ; ""
0EE7  CECD5C00           [557] gettable   55  0   371  ; "mClampNodeScores"
0EEB  D80D0000           [558] test       55      0    ; to [560] if true
0EEF  1AC00280           [559] jmp        12           ; to [572]
0EF3  CA0D8014           [560] len        55  41     
fail op	21
0EF7  15C08D94           [561] concat     0   297 55 
0EFB  1A000280           [562] jmp        9            ; to [572]
0EFF  CECD5B00           [563] gettable   55  0   367  ; "mBonusGoal"
fail op	21
0F03  15C08D87           [564] concat     0   271 55 
0F07  1AC00080           [565] jmp        4            ; to [570]
0F0B  CA0D8014           [566] len        55  41     
0F0F  CD4DCA1B           [567] sub        55  55  297  ; 0
0F13  8ECD8D14           [568] gettable   54  41  55 
0F17  1A400080           [569] jmp        2            ; to [572]
0F1B  CA0D8014           [570] len        55  41     
0F1F  8ECD8D14           [571] gettable   54  41  55 
0F23  180B0000           [572] test       44      0    ; to [574] if true
0F27  1A800280           [573] jmp        11           ; to [585]
fail op	35
0F2B  63C04115           [574] close      1  
0F2F  1A000480           [575] jmp        17           ; to [593]
0F33  D20D0014           [576] move       55  40     
0F37  190E1D00           [577] loadk      56  116      ; " "
0F3B  530E8000           [578] getupval   57  1      
0F3F  4E4EDB1C           [579] gettable   57  57  365  ; -265239752
0F43  9D8E1B00           [580] getglobal  58  110      ; mMovie
0F47  CE0E5700           [581] gettable   59  0   348  ; "mReward"
0F4B  628E8001           [582] call       57  3   2  
0F4F  024A8E1B           [583] concat     40  55  57 
0F53  1AC00180           [584] jmp        8            ; to [593]
0F57  D20D0014           [585] move       55  40     
0F5B  130E0001           [586] getupval   56  2      
0F5F  520E8000           [587] move       57  1      
0F63  8ECE5600           [588] gettable   58  0   347  ; "mGoal"
0F67  CE0E5700           [589] gettable   59  0   348  ; "mReward"
0F6B  120F001B           [590] move       60  54     
0F6F  228E8002           [591] call       56  5   2  
0F73  020A8E1B           [592] concat     40  55  56 
0F77  CECD5B00           [593] gettable   55  0   367  ; "mBonusGoal"
fail op	21
0F7B  15C08D87           [594] concat     0   271 55 
0F7F  1A400480           [595] jmp        18           ; to [614]
0F83  D9CD0100           [596] loadk      55  7        ; ""
0F87  0ECE5C00           [597] gettable   56  0   371  ; "mClampNodeScores"
0F8B  180E0000           [598] test       56      0    ; to [600] if true
0F8F  1A000180           [599] jmp        5            ; to [605]
0F93  0A0E8014           [600] len        56  41     
fail op	21
0F97  15008E94           [601] concat     0   297 56 
0F9B  1A400080           [602] jmp        2            ; to [605]
0F9F  0A0E8014           [603] len        56  41     
0FA3  CE0D8E14           [604] gettable   55  41  56 
0FA7  CECA5B00           [605] gettable   43  0   367  ; "mBonusGoal"
0FAB  120E0014           [606] move       56  40     
0FAF  530E0001           [607] getupval   57  2      
0FB3  920E8000           [608] move       58  1      
0FB7  CECE5B00           [609] gettable   59  0   367  ; "mBonusGoal"
0FBB  0E4F5D00           [610] gettable   60  0   373  ; "mBonusReward"
0FBF  520F801B           [611] move       61  55     
0FC3  628E8002           [612] call       57  5   2  
0FC7  024A0E1C           [613] concat     40  56  57 
0FCB  130E0000           [614] getupval   56  0      
0FCF  0E4E411C           [615] gettable   56  56  261  ; -132701534
0FD3  4E0E5C00           [616] gettable   57  0   368  ; "mBest"
0FD7  998E1D00           [617] loadk      58  118      ; "/Lotus/Language/Menu/WorldStateBest"
0FDB  D9CE0100           [618] loadk      59  7        ; ""
0FDF  228E0002           [619] call       56  4   2  
0FE3  4ECE5D00           [620] gettable   57  0   375  ; "mScoreLocTag"
fail op	35
0FE7  63C0C11C           [621] close      1  
0FEB  1AC00B80           [622] jmp        48           ; to [671]
0FEF  4E0E5C00           [623] gettable   57  0   368  ; "mBest"
0FF3  580E0000           [624] test       57      0    ; to [626] if true
0FF7  1A800180           [625] jmp        7            ; to [633]
0FFB  5D0E0000           [626] getglobal  57  0        ; -421772368
0FFF  8ECE5D00           [627] gettable   58  0   375  ; "mScoreLocTag"
1003  CB4E0000           [628] newtable   59  0   1    ; array=0, hash=1
1007  CC8E00BC           [629] settable   59  376 2    ; "VALUE"
100B  628E8001           [630] call       57  3   2  
100F  120E801C           [631] move       56  57     
1013  1A400980           [632] jmp        38           ; to [671]
1017  4E4E5E00           [633] gettable   57  0   377  ; "mClanGoal"
101B  4A0E801C           [634] len        57  57     
fail op	21
101F  15408E87           [635] concat     0   271 57 
1023  1AC00680           [636] jmp        28           ; to [665]
1027  5D0E0400           [637] getglobal  57  16       ; 1074689893
102B  9D4E1000           [638] getglobal  58  65       ; gGameData
102F  628E0001           [639] call       57  2   2  
1033  584E0000           [640] test       57      1    ; to [642] if false
1037  1A800580           [641] jmp        23           ; to [665]
103B  5D4E1000           [642] getglobal  57  65       ; gGameData
103F  648EDE1C           [643] self       57  57  378  ; 360266085
1043  628E0001           [644] call       57  2   2  
fail op	35
1047  63C0C11C           [645] close      1  
104B  1A400480           [646] jmp        18           ; to [665]
104F  5D0E0000           [647] getglobal  57  0        ; -421772368
1053  8ECE5D00           [648] gettable   58  0   375  ; "mScoreLocTag"
1057  D70E0000           [649] loadbool   59  0   0    ; false
105B  628E8001           [650] call       57  3   2  
105F  990E1D00           [651] loadk      58  116      ; " "
1063  DD0E0000           [652] getglobal  59  0        ; -421772368
1067  19CF1E00           [653] loadk      60  123      ; "/Lotus/Language/Menu/WorldStateClanEventProgress"
106B  4B4F0000           [654] newtable   61  0   1    ; array=0, hash=1
106F  994F1F00           [655] loadk      62  125      ; "\r\n"
1073  DD4F1000           [656] getglobal  63  65       ; gGameData
1077  E48FDF1F           [657] self       63  63  382  ; 1830250344
107B  E28F0001           [658] call       63  2   2  
107F  82CF0F1F           [659] concat     62  62  63 
1083  4C8F0FBE           [660] settable   61  380 62   ; "CLAN_NAME"
1087  E28E8001           [661] call       59  3   2  
108B  19CF0200           [662] loadk      60  11       ; ": "
108F  020E8F1C           [663] concat     56  57  60 
1093  1A400180           [664] jmp        6            ; to [671]
1097  5D0E0000           [665] getglobal  57  0        ; -421772368
109B  8ECE5D00           [666] gettable   58  0   375  ; "mScoreLocTag"
109F  D70E0000           [667] loadbool   59  0   0    ; false
10A3  628E8001           [668] call       57  3   2  
10A7  99CE0200           [669] loadk      58  11       ; ": "
10AB  028E8E1C           [670] concat     56  57  58 
10AF  530E0000           [671] getupval   57  0      
10B3  4E4EC11C           [672] gettable   57  57  261  ; -132701534
10B7  8E0E5C00           [673] gettable   58  0   368  ; "mBest"
10BB  DD0E0000           [674] getglobal  59  0        ; -421772368
10BF  120F001C           [675] move       60  56     
10C3  4B4F0000           [676] newtable   61  0   1    ; array=0, hash=1
10C7  4C4F00BC           [677] settable   61  376 1    ; "VALUE"
10CB  E28E8001           [678] call       59  3   2  
10CF  120F001C           [679] move       60  56     
10D3  520F8000           [680] move       61  1      
10D7  998F1700           [681] loadk      62  94       ; " / "
10DB  D20F8015           [682] move       63  43     
10DF  02CF0F1E           [683] concat     60  60  63 
10E3  628E0002           [684] call       57  4   2  
10E7  8ECE5F00           [685] gettable   58  0   383  ; "mPersonal"
10EB  984E0000           [686] test       58      1    ; to [688] if false
10EF  1A400180           [687] jmp        6            ; to [694]
10F3  8ECE5600           [688] gettable   58  0   347  ; "mGoal"
fail op	35
10F7  23C04C1D           [689] close      0  
10FB  1A800080           [690] jmp        3            ; to [694]
10FF  920E8000           [691] move       58  1      
1103  D90E2000           [692] loadk      59  128      ; "%"
1107  42CE0E1D           [693] concat     57  58  59 
110B  8E0E5C00           [694] gettable   58  0   368  ; "mBest"
110F  984E0000           [695] test       58      1    ; to [697] if false
1113  1A800380           [696] jmp        15           ; to [712]
1117  8E4E6000           [697] gettable   58  0   385  ; "mScoreMaxNode"
111B  A48E601D           [698] self       58  58  386  ; 828278287
111F  A28E0001           [699] call       58  2   2  
1123  980E0000           [700] test       58      0    ; to [702] if true
1127  1A400280           [701] jmp        10           ; to [712]
fail op	21
112B  15808087           [702] concat     0   271 2  
112F  1AC00180           [703] jmp        8            ; to [712]
1133  920E801C           [704] move       58  57     
1137  D90E1B00           [705] loadk      59  108      ; " | "
113B  1D0F0000           [706] getglobal  60  0        ; -421772368
113F  598F1D00           [707] loadk      61  118      ; "/Lotus/Language/Menu/WorldStateBest"
1143  8B4F0000           [708] newtable   62  0   1    ; array=0, hash=1
1147  8C8F00BC           [709] settable   62  376 2    ; "VALUE"
114B  228F8001           [710] call       60  3   2  
114F  420E0F1D           [711] concat     57  58  60 
1153  920E0014           [712] move       58  40     
1157  D9CE2000           [713] loadk      59  131      ; "<br></font><font face=\"Noto Sans\"><b>"
115B  1D0F2100           [714] getglobal  60  132      ; -764638816
115F  520F801C           [715] move       61  57     
1163  228F0001           [716] call       60  2   2  
1167  594F0B00           [717] loadk      61  45       ; "</b>"
116B  024A0F1D           [718] concat     40  58  61 
116F  920E0014           [719] move       58  40     
1173  D94E2100           [720] loadk      59  133      ; "</font></p>"
1177  02CA0E1D           [721] concat     40  58  59 
117B  1E0A0001           [722] return     40  2      
117F  1E008000           [723] return     0   1      
                         * constants:
1184  01                 sizek (134)
1185  01                 const type 3
1186  B043DCE6           const [0]: (-421772368)
118A  04                 const type 4
118B  06                 string size (6)
118C  6D4465736300       "mDesc\0"
                         const [1]: "mDesc"
1192  04                 const type 4
1193  07                 string size (7)
1194  456E67696E6500     "Engine\0"
                         const [2]: "Engine"
119B  01                 const type 3
119C  10799DD0           const [3]: (-794986224)
11A0  04                 const type 4
11A1  08                 string size (8)
11A2  6D45787069727900   "mExpiry\0"
                         const [4]: "mExpiry"
11AA  01                 const type 3
11AB  A22217F8           const [5]: (-132701534)
11AF  04                 const type 4
11B0  09                 string size (9)
11B1  6D4F6E676F696E67+  "mOngoing"
11B9  00                 "\0"
                         const [6]: "mOngoing"
11BA  04                 const type 4
11BB  01                 string size (0)
                         const [7]: ""
11BD  04                 const type 4
11BE  07                 string size (7)
11BF  737472696E6700     "string\0"
                         const [8]: "string"
11C6  01                 const type 3
11C7  2A649C63           const [9]: (1671193642)
11CB  04                 const type 4
11CC  31                 string size (49)
11CD  2F4C6F7475732F4C+  "/Lotus/L"
11D5  616E67756167652F+  "anguage/"
11DD  4D656E752F4E6F74+  "Menu/Not"
11E5  696669636174696F+  "ificatio"
11ED  6E5F457870697279+  "n_Expiry"
11F5  5F48656164696E67+  "_Heading"
11FD  00                 "\0"
                         const [10]: "/Lotus/Language/Menu/Notification_Expiry_Heading"
11FE  04                 const type 4
11FF  03                 string size (3)
1200  3A2000             ": \0"
                         const [11]: ": "
1203  01                 const type 3
1204  122389E5           const [12]: (-443997422)
1208  04                 const type 4
1209  05                 string size (5)
120A  3C62723E00         "<br>\0"
                         const [13]: "<br>"
120F  04                 const type 4
1210  07                 string size (7)
1211  6D547970657300     "mTypes\0"
                         const [14]: "mTypes"
1218  03                 const type 3
1219  00000000           const [15]: (0)
121D  01                 const type 3
121E  65770E40           const [16]: (1074689893)
1222  04                 const type 4
1223  0A                 string size (10)
1224  6D4974656D547970+  "mItemTyp"
122C  6500               "e\0"
                         const [17]: "mItemType"
122E  04                 const type 4
122F  08                 string size (8)
1230  6D426F756E747900   "mBounty\0"
                         const [18]: "mBounty"
1238  04                 const type 4
1239  0D                 string size (13)
123A  6D4D6178436F6E63+  "mMaxConc"
1242  6C61766500         "lave\0"
                         const [19]: "mMaxConclave"
1247  01                 const type 3
1248  64F644DE           const [20]: (-565905820)
124C  01                 const type 3
124D  BCD6AE9F           const [21]: (-1615931716)
1251  04                 const type 4
1252  06                 string size (6)
1253  6D4E6F646500       "mNode\0"
                         const [22]: "mNode"
1259  04                 const type 4
125A  04                 string size (4)
125B  50767000           "Pvp\0"
                         const [23]: "Pvp"
125F  04                 const type 4
1260  2B                 string size (43)
1261  2F4C6F7475732F4C+  "/Lotus/L"
1269  616E67756167652F+  "anguage/"
1271  4D656E752F4E6F74+  "Menu/Not"
1279  696669636174696F+  "ificatio"
1281  6E5F436F6E636C61+  "n_Concla"
1289  766500             "ve\0"
                         const [24]: "/Lotus/Language/Menu/Notification_Conclave"
128C  04                 const type 4
128D  29                 string size (41)
128E  2F4C6F7475732F4C+  "/Lotus/L"
1296  616E67756167652F+  "anguage/"
129E  4D656E752F4E6F74+  "Menu/Not"
12A6  696669636174696F+  "ificatio"
12AE  6E5F426F756E7479+  "n_Bounty"
12B6  00                 "\0"
                         const [25]: "/Lotus/Language/Menu/Notification_Bounty"
12B7  04                 const type 4
12B8  0A                 string size (10)
12B9  6D466F6D6F726961+  "mFomoria"
12C1  6E00               "n\0"
                         const [26]: "mFomorian"
12C3  01                 const type 3
12C4  F2AC3ABB           const [27]: (-1153782542)
12C8  01                 const type 3
12C9  E13C21DF           const [28]: (-551469855)
12CD  04                 const type 4
12CE  0C                 string size (12)
12CF  6D56696374696D4E+  "mVictimN"
12D7  6F646500           "ode\0"
                         const [29]: "mVictimNode"
12DB  04                 const type 4
12DC  07                 string size (7)
12DD  6C6F6354616700     "locTag\0"
                         const [30]: "locTag"
12E4  01                 const type 3
12E5  11A333E2           const [31]: (-499932399)
12E9  04                 const type 4
12EA  09                 string size (9)
12EB  6D46616374696F6E+  "mFaction"
12F3  00                 "\0"
                         const [32]: "mFaction"
12F4  04                 const type 4
12F5  0B                 string size (11)
12F6  4C6F7475735F4761+  "Lotus_Ga"
12FE  6D6500             "me\0"
                         const [33]: "Lotus_Game"
1301  04                 const type 4
1302  0B                 string size (11)
1303  46435F4752494E45+  "FC_GRINE"
130B  455200             "ER\0"
                         const [34]: "FC_GRINEER"
130E  04                 const type 4
130F  27                 string size (39)
1310  2F4C6F7475732F4C+  "/Lotus/L"
1318  616E67756167652F+  "anguage/"
1320  4D656E752F466F6D+  "Menu/Fom"
1328  6F7269616E436F75+  "orianCou"
1330  6E74646F776E00     "ntdown\0"
                         const [35]: "/Lotus/Language/Menu/FomorianCountdown"
1337  04                 const type 4
1338  2E                 string size (46)
1339  2F4C6F7475732F4C+  "/Lotus/L"
1341  616E67756167652F+  "anguage/"
1349  4D656E752F52617A+  "Menu/Raz"
1351  6F726261636B4172+  "orbackAr"
1359  6D616461436F756E+  "madaCoun"
1361  74646F776E00       "tdown\0"
                         const [36]: "/Lotus/Language/Menu/RazorbackArmadaCountdown"
1367  04                 const type 4
1368  2B                 string size (43)
1369  2F4C6F7475732F4C+  "/Lotus/L"
1371  616E67756167652F+  "anguage/"
1379  4D656E752F4E6F74+  "Menu/Not"
1381  696669636174696F+  "ificatio"
1389  6E5F466F6D6F7269+  "n_Fomori"
1391  616E00             "an\0"
                         const [37]: "/Lotus/Language/Menu/Notification_Fomorian"
1394  04                 const type 4
1395  2C                 string size (44)
1396  2F4C6F7475732F4C+  "/Lotus/L"
139E  616E67756167652F+  "anguage/"
13A6  4D656E752F436F72+  "Menu/Cor"
13AE  70757352617A6F72+  "pusRazor"
13B6  6261636B50726F6A+  "backProj"
13BE  65637400           "ect\0"
                         const [38]: "/Lotus/Language/Menu/CorpusRazorbackProject"
13C2  01                 const type 3
13C3  39740E5B           const [39]: (1527673913)
13C7  04                 const type 4
13C8  07                 string size (7)
13C9  726567696F6E00     "region\0"
                         const [40]: "region"
13D0  03                 const type 3
13D1  0000803F           const [41]: (0)
13D5  04                 const type 4
13D6  05                 string size (5)
13D7  6E616D6500         "name\0"
                         const [42]: "name"
13DC  04                 const type 4
13DD  09                 string size (9)
13DE  4C4F434154494F4E+  "LOCATION"
13E6  00                 "\0"
                         const [43]: "LOCATION"
13E7  04                 const type 4
13E8  04                 string size (4)
13E9  3C623E00           "<b>\0"
                         const [44]: "<b>"
13ED  04                 const type 4
13EE  05                 string size (5)
13EF  3C2F623E00         "</b>\0"
                         const [45]: "</b>"
13F4  04                 const type 4
13F5  05                 string size (5)
13F6  54494D4500         "TIME\0"
                         const [46]: "TIME"
13FB  04                 const type 4
13FC  0B                 string size (11)
13FD  6D4865616C746850+  "mHealthP"
1405  637400             "ct\0"
                         const [47]: "mHealthPct"
1408  03                 const type 3
1409  6F12833A           const [48]: (111)
140D  01                 const type 3
140E  584F1F4B           const [49]: (1260343128)
1412  04                 const type 4
1413  06                 string size (6)
1414  25312E316600       "%1.1f\0"
                         const [50]: "%1.1f"
141A  03                 const type 3
141B  0000C842           const [51]: (0)
141F  04                 const type 4
1420  24                 string size (36)
1421  2F4C6F7475732F4C+  "/Lotus/L"
1429  616E67756167652F+  "anguage/"
1431  4D656E752F466F6D+  "Menu/Fom"
1439  6F7269616E486561+  "orianHea"
1441  6C746800           "lth\0"
                         const [52]: "/Lotus/Language/Menu/FomorianHealth"
1445  04                 const type 4
1446  2B                 string size (43)
1447  2F4C6F7475732F4C+  "/Lotus/L"
144F  616E67756167652F+  "anguage/"
1457  4D656E752F52617A+  "Menu/Raz"
145F  6F726261636B4172+  "orbackAr"
1467  6D6164614865616C+  "madaHeal"
146F  746800             "th\0"
                         const [53]: "/Lotus/Language/Menu/RazorbackArmadaHealth"
1472  04                 const type 4
1473  18                 string size (24)
1474  3A203C2F666F6E74+  ": </font"
147C  3E3C666F6E742063+  "><font c"
1484  6F6C6F723D222300   "olor=\"#\0"
                         const [54]: ": </font><font color=\"#"
148C  04                 const type 4
148D  03                 string size (3)
148E  255800             "%X\0"
                         const [55]: "%X"
1491  04                 const type 4
1492  03                 string size (3)
1493  5F4700             "_G\0"
                         const [56]: "_G"
1496  04                 const type 4
1497  0F                 string size (15)
1498  5549436F6C6F725F+  "UIColor_"
14A0  4865616C746800     "Health\0"
                         const [57]: "UIColor_Health"
14A7  04                 const type 4
14A8  06                 string size (6)
14A9  223E3C623E00       "\"><b>\0"
                         const [58]: "\"><b>"
14AF  04                 const type 4
14B0  1B                 string size (27)
14B1  253C2F623E3C2F66+  "%</b></f"
14B9  6F6E743E3C666F6E+  "ont><fon"
14C1  7420636F6C6F723D+  "t color="
14C9  222300             "\"#\0"
                         const [59]: "%</b></font><font color=\"#"
14CC  04                 const type 4
14CD  0E                 string size (14)
14CE  5549436F6C6F725F+  "UIColor_"
14D6  576869746500       "White\0"
                         const [60]: "UIColor_White"
14DC  04                 const type 4
14DD  03                 string size (3)
14DE  223E00             "\">\0"
                         const [61]: "\">"
14E1  04                 const type 4
14E2  0A                 string size (10)
14E3  6D496E766173696F+  "mInvasio"
14EB  6E00               "n\0"
                         const [62]: "mInvasion"
14ED  04                 const type 4
14EE  23                 string size (35)
14EF  2F4C6F7475732F4C+  "/Lotus/L"
14F7  616E67756167652F+  "anguage/"
14FF  426F737365732F4E+  "Bosses/N"
1507  6566416E796F4E61+  "efAnyoNa"
150F  6D6500             "me\0"
                         const [63]: "/Lotus/Language/Bosses/NefAnyoName"
1512  04                 const type 4
1513  21                 string size (33)
1514  2F4C6F7475732F4C+  "/Lotus/L"
151C  616E67756167652F+  "anguage/"
1524  426F737365732F42+  "Bosses/B"
152C  6F7373416C616456+  "ossAladV"
1534  00                 "\0"
                         const [64]: "/Lotus/Language/Bosses/BossAladV"
1535  04                 const type 4
1536  0A                 string size (10)
1537  6747616D65446174+  "gGameDat"
153F  6100               "a\0"
                         const [65]: "gGameData"
1541  01                 const type 3
1542  20904A09           const [66]: (155881504)
1546  04                 const type 4
1547  17                 string size (23)
1548  3C703E3C666F6E74+  "<p><font"
1550  2073697A653D2232+  " size=\"2"
1558  34223E3C623E00     "4\"><b>\0"
                         const [67]: "<p><font size=\"24\"><b>"
155F  04                 const type 4
1560  0C                 string size (12)
1561  3C2F623E3C2F666F+  "</b></fo"
1569  6E743E00           "nt>\0"
                         const [68]: "</b></font>"
156D  04                 const type 4
156E  51                 string size (81)
156F  3C666F6E74206661+  "<font fa"
1577  63653D224E6F746F+  "ce=\"Noto"
157F  2053616E73222073+  " Sans\" s"
1587  697A653D22323422+  "ize=\"24\""
158F  3E3C62723E3C2F66+  "><br></f"
1597  6F6E743E3C666F6E+  "ont><fon"
159F  7420666163653D22+  "t face=\""
15A7  4E6F746F2053616E+  "Noto San"
15AF  73222073697A653D+  "s\" size="
15B7  223234223E3C623E+  "\"24\"><b>"
15BF  00                 "\0"
                         const [69]: "<font face=\"Noto Sans\" size=\"24\"><br></font><font face=\"Noto Sans\" size=\"24\"><b>"
15C0  04                 const type 4
15C1  03                 string size (3)
15C2  202800             " (\0"
                         const [70]: " ("
15C5  04                 const type 4
15C6  07                 string size (7)
15C7  6D436F756E7400     "mCount\0"
                         const [71]: "mCount"
15CE  04                 const type 4
15CF  02                 string size (2)
15D0  2D00               "-\0"
                         const [72]: "-"
15D2  04                 const type 4
15D3  0A                 string size (10)
15D4  6D436F756E74416C+  "mCountAl"
15DC  7400               "t\0"
                         const [73]: "mCountAlt"
15DE  04                 const type 4
15DF  03                 string size (3)
15E0  292000             ") \0"
                         const [74]: ") "
15E3  04                 const type 4
15E4  15                 string size (21)
15E5  3C666F6E74207369+  "<font si"
15ED  7A653D223234223E+  "ze=\"24\">"
15F5  3C62723E00         "<br>\0"
                         const [75]: "<font size=\"24\"><br>"
15FA  04                 const type 4
15FB  1D                 string size (29)
15FC  3A203C2F666F6E74+  ": </font"
1604  3E3C666F6E742073+  "><font s"
160C  697A653D22323422+  "ize=\"24\""
1614  3E3C623E00         "><b>\0"
                         const [76]: ": </font><font size=\"24\"><b>"
1619  04                 const type 4
161A  18                 string size (24)
161B  3C666F6E74207369+  "<font si"
1623  7A653D223234223E+  "ze=\"24\">"
162B  3C62723E3C623E00   "<br><b>\0"
                         const [77]: "<font size=\"24\"><br><b>"
1633  04                 const type 4
1634  2C                 string size (44)
1635  2F4C6F7475732F4C+  "/Lotus/L"
163D  616E67756167652F+  "anguage/"
1645  446F6A6F2F526573+  "Dojo/Res"
164D  6561726368537461+  "earchSta"
1655  747573436F6D706C+  "tusCompl"
165D  65746500           "ete\0"
                         const [78]: "/Lotus/Language/Dojo/ResearchStatusComplete"
1661  04                 const type 4
1662  0C                 string size (12)
1663  3C62723E3C2F666F+  "<br></fo"
166B  6E743E00           "nt>\0"
                         const [79]: "<br></font>"
166F  04                 const type 4
1670  11                 string size (17)
1671  3C666F6E74207369+  "<font si"
1679  7A653D223234223E+  "ze=\"24\">"
1681  00                 "\0"
                         const [80]: "<font size=\"24\">"
1682  04                 const type 4
1683  09                 string size (9)
1684  6D546F6F6C546970+  "mToolTip"
168C  00                 "\0"
                         const [81]: "mToolTip"
168D  04                 const type 4
168E  27                 string size (39)
168F  3C2F623E3C2F666F+  "</b></fo"
1697  6E743E3C666F6E74+  "nt><font"
169F  2073697A653D2231+  " size=\"1"
16A7  34223E3C62723E3C+  "4\"><br><"
16AF  2F666F6E743E00     "/font>\0"
                         const [82]: "</b></font><font size=\"14\"><br></font>"
16B6  04                 const type 4
16B7  2D                 string size (45)
16B8  3C2F666F6E743E3C+  "</font><"
16C0  666F6E7420666163+  "font fac"
16C8  653D224E6F746F20+  "e=\"Noto "
16D0  53616E7322207369+  "Sans\" si"
16D8  7A653D223234223E+  "ze=\"24\">"
16E0  3C62723E00         "<br>\0"
                         const [83]: "</font><font face=\"Noto Sans\" size=\"24\"><br>"
16E5  04                 const type 4
16E6  28                 string size (40)
16E7  2F4C6F7475732F4C+  "/Lotus/L"
16EF  616E67756167652F+  "anguage/"
16F7  4D656E752F416C65+  "Menu/Ale"
16FF  7274506F7075705F+  "rtPopup_"
1707  5265776172647300   "Rewards\0"
                         const [84]: "/Lotus/Language/Menu/AlertPopup_Rewards"
170F  04                 const type 4
1710  02                 string size (2)
1711  3A00               ":\0"
                         const [85]: ":"
1713  04                 const type 4
1714  0E                 string size (14)
1715  6D496E746572696D+  "mInterim"
171D  476F616C7300       "Goals\0"
                         const [86]: "mInterimGoals"
1723  04                 const type 4
1724  10                 string size (16)
1725  6D496E746572696D+  "mInterim"
172D  5265776172647300   "Rewards\0"
                         const [87]: "mInterimRewards"
1735  04                 const type 4
1736  05                 string size (5)
1737  6D61746800         "math\0"
                         const [88]: "math"
173C  01                 const type 3
173D  2A71F965           const [89]: (1710846250)
1741  01                 const type 3
1742  C87C3FF9           const [90]: (-113279800)
1746  04                 const type 4
1747  06                 string size (6)
1748  6D476F616C00       "mGoal\0"
                         const [91]: "mGoal"
174E  04                 const type 4
174F  08                 string size (8)
1750  6D52657761726400   "mReward\0"
                         const [92]: "mReward"
1758  04                 const type 4
1759  02                 string size (2)
175A  2900               ")\0"
                         const [93]: ")"
175C  04                 const type 4
175D  04                 string size (4)
175E  202F2000           " / \0"
                         const [94]: " / "
1762  04                 const type 4
1763  05                 string size (5)
1764  3C2F703E00         "</p>\0"
                         const [95]: "</p>"
1769  04                 const type 4
176A  15                 string size (21)
176B  6D52656C61795265+  "mRelayRe"
1773  636F6E7374727563+  "construc"
177B  74696F6E00         "tion\0"
                         const [96]: "mRelayReconstruction"
1780  04                 const type 4
1781  03                 string size (3)
1782  5F5400             "_T\0"
                         const [97]: "_T"
1785  04                 const type 4
1786  1B                 string size (27)
1787  436163686564436F+  "CachedCo"
178F  6E73747275637469+  "nstructi"
1797  6F6E50726F6A6563+  "onProjec"
179F  747300             "ts\0"
                         const [98]: "CachedConstructionProjects"
17A2  01                 const type 3
17A3  17DDCF0E           const [99]: (248503575)
17A7  04                 const type 4
17A8  05                 string size (5)
17A9  696E666F00         "info\0"
                         const [100]: "info"
17AE  04                 const type 4
17AF  09                 string size (9)
17B0  70726F6772657373+  "progress"
17B8  00                 "\0"
                         const [101]: "progress"
17B9  04                 const type 4
17BA  05                 string size (5)
17BB  6D54616700         "mTag\0"
                         const [102]: "mTag"
17C0  04                 const type 4
17C1  0A                 string size (10)
17C2  6D546F6F6C546970+  "mToolTip"
17CA  7300               "s\0"
                         const [103]: "mToolTips"
17CC  04                 const type 4
17CD  23                 string size (35)
17CE  3C2F666F6E743E3C+  "</font><"
17D6  666F6E742073697A+  "font siz"
17DE  653D223134223E3C+  "e=\"14\"><"
17E6  62723E3C2F666F6E+  "br></fon"
17EE  743E00             "t>\0"
                         const [104]: "</font><font size=\"14\"><br></font>"
17F1  04                 const type 4
17F2  25                 string size (37)
17F3  2F4C6F7475732F4C+  "/Lotus/L"
17FB  616E67756167652F+  "anguage/"
1803  4D656E752F47686F+  "Menu/Gho"
180B  756C506F70756C61+  "ulPopula"
1813  74696F6E00         "tion\0"
                         const [105]: "/Lotus/Language/Menu/GhoulPopulation"
1818  04                 const type 4
1819  1E                 string size (30)
181A  3C703E3C666F6E74+  "<p><font"
1822  20666163653D224E+  " face=\"N"
182A  6F746F2053616E73+  "oto Sans"
1832  223E3C623E00       "\"><b>\0"
                         const [106]: "<p><font face=\"Noto Sans\"><b>"
1838  04                 const type 4
1839  09                 string size (9)
183A  3C2F623E3C62723E+  "</b><br>"
1842  00                 "\0"
                         const [107]: "</b><br>"
1843  04                 const type 4
1844  04                 string size (4)
1845  207C2000           " | \0"
                         const [108]: " | "
1849  01                 const type 3
184A  38C330F0           const [109]: (-265239752)
184E  04                 const type 4
184F  07                 string size (7)
1850  6D4D6F76696500     "mMovie\0"
                         const [110]: "mMovie"
1857  04                 const type 4
1858  0B                 string size (11)
1859  6D426F6E7573476F+  "mBonusGo"
1861  616C00             "al\0"
                         const [111]: "mBonusGoal"
1864  04                 const type 4
1865  06                 string size (6)
1866  6D4265737400       "mBest\0"
                         const [112]: "mBest"
186C  04                 const type 4
186D  04                 string size (4)
186E  20402000           " @ \0"
                         const [113]: " @ "
1872  04                 const type 4
1873  22                 string size (34)
1874  2F4C6F7475732F4C+  "/Lotus/L"
187C  616E67756167652F+  "anguage/"
1884  4D656E752F53696E+  "Menu/Sin"
188C  676C655265776172+  "gleRewar"
1894  6400               "d\0"
                         const [114]: "/Lotus/Language/Menu/SingleReward"
1896  04                 const type 4
1897  11                 string size (17)
1898  6D436C616D704E6F+  "mClampNo"
18A0  646553636F726573+  "deScores"
18A8  00                 "\0"
                         const [115]: "mClampNodeScores"
18A9  04                 const type 4
18AA  02                 string size (2)
18AB  2000               " \0"
                         const [116]: " "
18AD  04                 const type 4
18AE  0D                 string size (13)
18AF  6D426F6E75735265+  "mBonusRe"
18B7  7761726400         "ward\0"
                         const [117]: "mBonusReward"
18BC  04                 const type 4
18BD  24                 string size (36)
18BE  2F4C6F7475732F4C+  "/Lotus/L"
18C6  616E67756167652F+  "anguage/"
18CE  4D656E752F576F72+  "Menu/Wor"
18D6  6C64537461746542+  "ldStateB"
18DE  65737400           "est\0"
                         const [118]: "/Lotus/Language/Menu/WorldStateBest"
18E2  04                 const type 4
18E3  0D                 string size (13)
18E4  6D53636F72654C6F+  "mScoreLo"
18EC  6354616700         "cTag\0"
                         const [119]: "mScoreLocTag"
18F1  04                 const type 4
18F2  06                 string size (6)
18F3  56414C554500       "VALUE\0"
                         const [120]: "VALUE"
18F9  04                 const type 4
18FA  0A                 string size (10)
18FB  6D436C616E476F61+  "mClanGoa"
1903  6C00               "l\0"
                         const [121]: "mClanGoal"
1905  01                 const type 3
1906  65397915           const [122]: (360266085)
190A  04                 const type 4
190B  31                 string size (49)
190C  2F4C6F7475732F4C+  "/Lotus/L"
1914  616E67756167652F+  "anguage/"
191C  4D656E752F576F72+  "Menu/Wor"
1924  6C64537461746543+  "ldStateC"
192C  6C616E4576656E74+  "lanEvent"
1934  50726F6772657373+  "Progress"
193C  00                 "\0"
                         const [123]: "/Lotus/Language/Menu/WorldStateClanEventProgress"
193D  04                 const type 4
193E  0A                 string size (10)
193F  434C414E5F4E414D+  "CLAN_NAM"
1947  4500               "E\0"
                         const [124]: "CLAN_NAME"
1949  04                 const type 4
194A  03                 string size (3)
194B  0D0A00             "\r\n\0"
                         const [125]: "\r\n"
194E  01                 const type 3
194F  6867176D           const [126]: (1830250344)
1953  04                 const type 4
1954  0A                 string size (10)
1955  6D506572736F6E61+  "mPersona"
195D  6C00               "l\0"
                         const [127]: "mPersonal"
195F  04                 const type 4
1960  02                 string size (2)
1961  2500               "%\0"
                         const [128]: "%"
1963  04                 const type 4
1964  0E                 string size (14)
1965  6D53636F72654D61+  "mScoreMa"
196D  784E6F646500       "xNode\0"
                         const [129]: "mScoreMaxNode"
1973  01                 const type 3
1974  0F865E31           const [130]: (828278287)
1978  04                 const type 4
1979  26                 string size (38)
197A  3C62723E3C2F666F+  "<br></fo"
1982  6E743E3C666F6E74+  "nt><font"
198A  20666163653D224E+  " face=\"N"
1992  6F746F2053616E73+  "oto Sans"
199A  223E3C623E00       "\"><b>\0"
                         const [131]: "<br></font><font face=\"Noto Sans\"><b>"
19A0  01                 const type 3
19A1  A0896CD2           const [132]: (-764638816)
19A5  04                 const type 4
19A6  0C                 string size (12)
19A7  3C2F666F6E743E3C+  "</font><"
19AF  2F703E00           "/p>\0"
                         const [133]: "</font></p>"
                         * functions:
19B3  00                 sizep (0)
                         * lines:
19B5  05                 sizelineinfo (723)
                         [pc] (line)
19B6  4A                 [001] (74)
19B7  00                 [002] (74)
19B8  00                 [003] (74)
19B9  00                 [004] (74)
19BA  4A                 [005] (75)
19BB  00                 [006] (75)
19BC  00                 [007] (75)
19BD  00                 [008] (75)
19BE  4A                 [009] (76)
19BF  00                 [010] (76)
19C0  00                 [011] (76)
19C1  00                 [012] (76)
19C2  4A                 [013] (76)
19C3  00                 [014] (76)
19C4  00                 [015] (76)
19C5  00                 [016] (76)
19C6  4B                 [017] (76)
19C7  00                 [018] (76)
19C8  00                 [019] (76)
19C9  00                 [020] (76)
19CA  4B                 [021] (76)
19CB  00                 [022] (76)
19CC  00                 [023] (76)
19CD  00                 [024] (76)
19CE  4B                 [025] (76)
19CF  00                 [026] (76)
19D0  00                 [027] (76)
19D1  00                 [028] (77)
19D2  4B                 [029] (78)
19D3  00                 [030] (78)
19D4  00                 [031] (78)
19D5  00                 [032] (78)
19D6  4C                 [033] (78)
19D7  00                 [034] (78)
19D8  00                 [035] (78)
19D9  00                 [036] (78)
19DA  4C                 [037] (78)
19DB  00                 [038] (78)
19DC  00                 [039] (78)
19DD  00                 [040] (78)
19DE  4C                 [041] (79)
19DF  00                 [042] (79)
19E0  00                 [043] (79)
19E1  00                 [044] (79)
19E2  4C                 [045] (79)
19E3  00                 [046] (79)
19E4  00                 [047] (80)
19E5  00                 [048] (80)
19E6  4C                 [049] (80)
19E7  00                 [050] (80)
19E8  00                 [051] (80)
19E9  00                 [052] (80)
19EA  4C                 [053] (80)
19EB  00                 [054] (80)
19EC  00                 [055] (80)
19ED  00                 [056] (80)
19EE  4C                 [057] (80)
19EF  00                 [058] (80)
19F0  00                 [059] (80)
19F1  00                 [060] (84)
19F2  4C                 [061] (84)
19F3  00                 [062] (84)
19F4  00                 [063] (85)
19F5  00                 [064] (85)
19F6  4C                 [065] (85)
19F7  00                 [066] (85)
19F8  00                 [067] (85)
19F9  00                 [068] (85)
19FA  4C                 [069] (85)
19FB  00                 [070] (86)
19FC  00                 [071] (86)
19FD  00                 [072] (86)
19FE  4C                 [073] (87)
19FF  00                 [074] (87)
1A00  00                 [075] (87)
1A01  00                 [076] (88)
1A02  4C                 [077] (88)
1A03  00                 [078] (88)
1A04  00                 [079] (88)
1A05  00                 [080] (88)
1A06  4C                 [081] (88)
1A07  00                 [082] (89)
1A08  00                 [083] (89)
1A09  00                 [084] (89)
1A0A  4C                 [085] (89)
1A0B  00                 [086] (90)
1A0C  00                 [087] (90)
1A0D  00                 [088] (90)
1A0E  4C                 [089] (90)
1A0F  00                 [090] (90)
1A10  00                 [091] (90)
1A11  00                 [092] (90)
1A12  4C                 [093] (90)
1A13  00                 [094] (90)
1A14  00                 [095] (90)
1A15  00                 [096] (90)
1A16  4C                 [097] (90)
1A17  00                 [098] (91)
1A18  00                 [099] (91)
1A19  00                 [100] (91)
1A1A  4C                 [101] (91)
1A1B  00                 [102] (91)
1A1C  00                 [103] (91)
1A1D  00                 [104] (91)
1A1E  4C                 [105] (91)
1A1F  00                 [106] (91)
1A20  00                 [107] (91)
1A21  00                 [108] (91)
1A22  4D                 [109] (91)
1A23  00                 [110] (91)
1A24  00                 [111] (92)
1A25  00                 [112] (92)
1A26  4E                 [113] (92)
1A27  00                 [114] (92)
1A28  00                 [115] (92)
1A29  00                 [116] (92)
1A2A  4E                 [117] (92)
1A2B  00                 [118] (92)
1A2C  00                 [119] (92)
1A2D  00                 [120] (92)
1A2E  4E                 [121] (93)
1A2F  00                 [122] (93)
1A30  00                 [123] (93)
1A31  00                 [124] (93)
1A32  4E                 [125] (93)
1A33  00                 [126] (93)
1A34  00                 [127] (93)
1A35  00                 [128] (93)
1A36  4E                 [129] (93)
1A37  00                 [130] (93)
1A38  00                 [131] (93)
1A39  00                 [132] (93)
1A3A  4E                 [133] (93)
1A3B  00                 [134] (93)
1A3C  00                 [135] (94)
1A3D  00                 [136] (94)
1A3E  4E                 [137] (94)
1A3F  00                 [138] (95)
1A40  00                 [139] (96)
1A41  00                 [140] (96)
1A42  4E                 [141] (96)
1A43  00                 [142] (96)
1A44  00                 [143] (98)
1A45  00                 [144] (100)
1A46  4E                 [145] (100)
1A47  00                 [146] (100)
1A48  00                 [147] (100)
1A49  00                 [148] (100)
1A4A  4E                 [149] (101)
1A4B  00                 [150] (101)
1A4C  00                 [151] (101)
1A4D  00                 [152] (101)
1A4E  4E                 [153] (101)
1A4F  00                 [154] (101)
1A50  00                 [155] (101)
1A51  00                 [156] (101)
1A52  4E                 [157] (101)
1A53  00                 [158] (101)
1A54  00                 [159] (101)
1A55  00                 [160] (101)
1A56  4F                 [161] (102)
1A57  00                 [162] (102)
1A58  00                 [163] (102)
1A59  00                 [164] (102)
1A5A  4F                 [165] (102)
1A5B  00                 [166] (102)
1A5C  00                 [167] (102)
1A5D  00                 [168] (102)
1A5E  4F                 [169] (102)
1A5F  00                 [170] (102)
1A60  00                 [171] (102)
1A61  00                 [172] (102)
1A62  4F                 [173] (102)
1A63  00                 [174] (102)
1A64  00                 [175] (102)
1A65  00                 [176] (102)
1A66  4F                 [177] (102)
1A67  00                 [178] (102)
1A68  00                 [179] (102)
1A69  00                 [180] (102)
1A6A  4F                 [181] (102)
1A6B  00                 [182] (102)
1A6C  00                 [183] (102)
1A6D  00                 [184] (102)
1A6E  50                 [185] (104)
1A6F  00                 [186] (106)
1A70  00                 [187] (106)
1A71  00                 [188] (106)
1A72  50                 [189] (108)
1A73  00                 [190] (108)
1A74  00                 [191] (108)
1A75  00                 [192] (108)
1A76  50                 [193] (108)
1A77  00                 [194] (108)
1A78  00                 [195] (108)
1A79  00                 [196] (109)
1A7A  50                 [197] (109)
1A7B  00                 [198] (109)
1A7C  00                 [199] (109)
1A7D  00                 [200] (109)
1A7E  50                 [201] (109)
1A7F  00                 [202] (109)
1A80  00                 [203] (112)
1A81  00                 [204] (113)
1A82  50                 [205] (114)
1A83  00                 [206] (114)
1A84  00                 [207] (114)
1A85  00                 [208] (114)
1A86  50                 [209] (114)
1A87  00                 [210] (115)
1A88  00                 [211] (115)
1A89  00                 [212] (115)
1A8A  50                 [213] (115)
1A8B  00                 [214] (115)
1A8C  00                 [215] (115)
1A8D  00                 [216] (115)
1A8E  50                 [217] (118)
1A8F  00                 [218] (118)
1A90  00                 [219] (118)
1A91  00                 [220] (118)
1A92  50                 [221] (118)
1A93  00                 [222] (118)
1A94  00                 [223] (118)
1A95  00                 [224] (118)
1A96  50                 [225] (118)
1A97  00                 [226] (119)
1A98  00                 [227] (119)
1A99  00                 [228] (119)
1A9A  50                 [229] (119)
1A9B  00                 [230] (119)
1A9C  00                 [231] (119)
1A9D  00                 [232] (119)
1A9E  50                 [233] (119)
1A9F  00                 [234] (119)
1AA0  00                 [235] (119)
1AA1  00                 [236] (119)
1AA2  54                 [237] (120)
1AA3  00                 [238] (120)
1AA4  00                 [239] (121)
1AA5  00                 [240] (121)
1AA6  54                 [241] (121)
1AA7  00                 [242] (121)
1AA8  00                 [243] (121)
1AA9  00                 [244] (121)
1AAA  54                 [245] (121)
1AAB  00                 [246] (121)
1AAC  00                 [247] (121)
1AAD  00                 [248] (121)
1AAE  55                 [249] (121)
1AAF  00                 [250] (121)
1AB0  00                 [251] (121)
1AB1  00                 [252] (121)
1AB2  55                 [253] (121)
1AB3  00                 [254] (121)
1AB4  00                 [255] (121)
1AB5  00                 [256] (123)
1AB6  55                 [257] (123)
1AB7  00                 [258] (123)
1AB8  00                 [259] (123)
1AB9  00                 [260] (123)
1ABA  55                 [261] (123)
1ABB  00                 [262] (123)
1ABC  00                 [263] (123)
1ABD  00                 [264] (123)
1ABE  55                 [265] (123)
1ABF  00                 [266] (123)
1AC0  00                 [267] (125)
1AC1  00                 [268] (125)
1AC2  55                 [269] (125)
1AC3  00                 [270] (126)
1AC4  00                 [271] (126)
1AC5  00                 [272] (126)
1AC6  55                 [273] (126)
1AC7  00                 [274] (126)
1AC8  00                 [275] (126)
1AC9  00                 [276] (126)
1ACA  56                 [277] (126)
1ACB  00                 [278] (127)
1ACC  00                 [279] (127)
1ACD  00                 [280] (127)
1ACE  56                 [281] (-127)
1ACF  00                 [282] (-127)
1AD0  00                 [283] (-127)
1AD1  00                 [284] (-127)
1AD2  56                 [285] (-127)
1AD3  00                 [286] (-127)
1AD4  00                 [287] (-127)
1AD5  00                 [288] (-126)
1AD6  57                 [289] (-125)
1AD7  00                 [290] (-124)
1AD8  00                 [291] (-124)
1AD9  00                 [292] (-124)
1ADA  57                 [293] (-124)
1ADB  00                 [294] (-124)
1ADC  00                 [295] (-124)
1ADD  00                 [296] (-124)
1ADE  57                 [297] (-124)
1ADF  00                 [298] (-123)
1AE0  00                 [299] (-123)
1AE1  00                 [300] (-123)
1AE2  58                 [301] (-123)
1AE3  00                 [302] (-123)
1AE4  00                 [303] (-123)
1AE5  00                 [304] (-123)
1AE6  58                 [305] (-123)
1AE7  00                 [306] (-123)
1AE8  00                 [307] (-123)
1AE9  00                 [308] (-123)
1AEA  58                 [309] (-124)
1AEB  00                 [310] (-121)
1AEC  00                 [311] (-121)
1AED  00                 [312] (-121)
1AEE  58                 [313] (-120)
1AEF  00                 [314] (-120)
1AF0  00                 [315] (-120)
1AF1  00                 [316] (-120)
1AF2  58                 [317] (-120)
1AF3  00                 [318] (-120)
1AF4  00                 [319] (-120)
1AF5  00                 [320] (-120)
1AF6  58                 [321] (-120)
1AF7  00                 [322] (-120)
1AF8  00                 [323] (-120)
1AF9  00                 [324] (-117)
1AFA  59                 [325] (-116)
1AFB  00                 [326] (-116)
1AFC  00                 [327] (-115)
1AFD  00                 [328] (-115)
1AFE  59                 [329] (-115)
1AFF  00                 [330] (-115)
1B00  00                 [331] (-115)
1B01  00                 [332] (-114)
1B02  59                 [333] (-114)
1B03  00                 [334] (-113)
1B04  00                 [335] (-113)
1B05  00                 [336] (-113)
1B06  59                 [337] (-113)
1B07  00                 [338] (-111)
1B08  00                 [339] (-111)
1B09  00                 [340] (-111)
1B0A  5A                 [341] (-111)
1B0B  00                 [342] (-111)
1B0C  00                 [343] (-111)
1B0D  00                 [344] (-111)
1B0E  5A                 [345] (-111)
1B0F  00                 [346] (-111)
1B10  00                 [347] (-111)
1B11  00                 [348] (-111)
1B12  5A                 [349] (-109)
1B13  00                 [350] (-109)
1B14  00                 [351] (-109)
1B15  00                 [352] (-108)
1B16  5A                 [353] (-108)
1B17  00                 [354] (-106)
1B18  00                 [355] (-106)
1B19  00                 [356] (-106)
1B1A  5A                 [357] (-105)
1B1B  00                 [358] (-105)
1B1C  00                 [359] (-105)
1B1D  00                 [360] (-105)
1B1E  5A                 [361] (-105)
1B1F  00                 [362] (-105)
1B20  00                 [363] (-105)
1B21  00                 [364] (-104)
1B22  5A                 [365] (-104)
1B23  00                 [366] (-103)
1B24  00                 [367] (-103)
1B25  00                 [368] (-103)
1B26  5A                 [369] (-103)
1B27  00                 [370] (-102)
1B28  00                 [371] (-101)
1B29  00                 [372] (-100)
1B2A  5A                 [373] (-100)
1B2B  00                 [374] (-100)
1B2C  00                 [375] (-100)
1B2D  00                 [376] (-99)
1B2E  5A                 [377] (-99)
1B2F  00                 [378] (-99)
1B30  00                 [379] (-98)
1B31  00                 [380] (-98)
1B32  5A                 [381] (-98)
1B33  00                 [382] (-98)
1B34  00                 [383] (-98)
1B35  00                 [384] (-98)
1B36  5A                 [385] (-98)
1B37  00                 [386] (-98)
1B38  00                 [387] (-103)
1B39  00                 [388] (-97)
1B3A  5B                 [389] (-95)
1B3B  00                 [390] (-95)
1B3C  00                 [391] (-94)
1B3D  00                 [392] (-94)
1B3E  5B                 [393] (-94)
1B3F  00                 [394] (-94)
1B40  00                 [395] (-93)
1B41  00                 [396] (-93)
1B42  5B                 [397] (-93)
1B43  00                 [398] (-92)
1B44  00                 [399] (-91)
1B45  00                 [400] (-91)
1B46  5B                 [401] (-91)
1B47  00                 [402] (-91)
1B48  00                 [403] (-90)
1B49  00                 [404] (-88)
1B4A  5B                 [405] (-88)
1B4B  00                 [406] (-88)
1B4C  00                 [407] (-88)
1B4D  00                 [408] (-88)
1B4E  5B                 [409] (-87)
1B4F  00                 [410] (-86)
1B50  00                 [411] (-86)
1B51  00                 [412] (-86)
1B52  5B                 [413] (-86)
1B53  00                 [414] (-86)
1B54  00                 [415] (-86)
1B55  00                 [416] (-86)
1B56  5B                 [417] (-86)
1B57  00                 [418] (-86)
1B58  00                 [419] (-86)
1B59  00                 [420] (-86)
1B5A  5B                 [421] (-86)
1B5B  00                 [422] (-86)
1B5C  00                 [423] (-86)
1B5D  00                 [424] (-86)
1B5E  5B                 [425] (-86)
1B5F  00                 [426] (-86)
1B60  00                 [427] (-86)
1B61  00                 [428] (-86)
1B62  5B                 [429] (-86)
1B63  00                 [430] (-86)
1B64  00                 [431] (-86)
1B65  00                 [432] (-82)
1B66  5B                 [433] (-82)
1B67  00                 [434] (-82)
1B68  00                 [435] (-82)
1B69  00                 [436] (-82)
1B6A  5B                 [437] (-82)
1B6B  00                 [438] (-82)
1B6C  00                 [439] (-82)
1B6D  00                 [440] (-82)
1B6E  5C                 [441] (-82)
1B6F  00                 [442] (-82)
1B70  00                 [443] (-82)
1B71  00                 [444] (-82)
1B72  5C                 [445] (-82)
1B73  00                 [446] (-81)
1B74  00                 [447] (-81)
1B75  00                 [448] (-81)
1B76  5C                 [449] (-81)
1B77  00                 [450] (-81)
1B78  00                 [451] (-79)
1B79  00                 [452] (-79)
1B7A  5C                 [453] (-79)
1B7B  00                 [454] (-78)
1B7C  00                 [455] (-78)
1B7D  00                 [456] (-78)
1B7E  5C                 [457] (-78)
1B7F  00                 [458] (-78)
1B80  00                 [459] (-78)
1B81  00                 [460] (-78)
1B82  5C                 [461] (-75)
1B83  00                 [462] (-75)
1B84  00                 [463] (-75)
1B85  00                 [464] (-74)
1B86  5C                 [465] (-74)
1B87  00                 [466] (-74)
1B88  00                 [467] (-74)
1B89  00                 [468] (-74)
1B8A  5C                 [469] (-74)
1B8B  00                 [470] (-73)
1B8C  00                 [471] (-73)
1B8D  00                 [472] (-73)
1B8E  5C                 [473] (-73)
1B8F  00                 [474] (-73)
1B90  00                 [475] (-73)
1B91  00                 [476] (-73)
1B92  5C                 [477] (-70)
1B93  00                 [478] (-70)
1B94  00                 [479] (-70)
1B95  00                 [480] (-68)
1B96  5D                 [481] (-68)
1B97  00                 [482] (-68)
1B98  00                 [483] (-68)
1B99  00                 [484] (-68)
1B9A  5D                 [485] (-66)
1B9B  00                 [486] (-66)
1B9C  00                 [487] (-66)
1B9D  00                 [488] (-64)
1B9E  5D                 [489] (-63)
1B9F  00                 [490] (-61)
1BA0  00                 [491] (-60)
1BA1  00                 [492] (-59)
1BA2  5D                 [493] (-59)
1BA3  00                 [494] (-59)
1BA4  00                 [495] (-59)
1BA5  00                 [496] (-59)
1BA6  5D                 [497] (-58)
1BA7  00                 [498] (-57)
1BA8  00                 [499] (-56)
1BA9  00                 [500] (-56)
1BAA  5D                 [501] (-56)
1BAB  00                 [502] (-55)
1BAC  00                 [503] (-55)
1BAD  00                 [504] (-55)
1BAE  5D                 [505] (-53)
1BAF  00                 [506] (-53)
1BB0  00                 [507] (-52)
1BB1  00                 [508] (-52)
1BB2  5D                 [509] (-52)
1BB3  00                 [510] (-51)
1BB4  00                 [511] (-51)
1BB5  00                 [512] (-51)
1BB6  5D                 [513] (-49)
1BB7  00                 [514] (-49)
1BB8  00                 [515] (-49)
1BB9  00                 [516] (-49)
1BBA  5D                 [517] (-49)
1BBB  00                 [518] (-49)
1BBC  00                 [519] (-49)
1BBD  00                 [520] (-49)
1BBE  5D                 [521] (-48)
1BBF  00                 [522] (-46)
1BC0  00                 [523] (-46)
1BC1  00                 [524] (-46)
1BC2  5D                 [525] (-46)
1BC3  00                 [526] (-46)
1BC4  00                 [527] (-46)
1BC5  00                 [528] (-46)
1BC6  5D                 [529] (-43)
1BC7  00                 [530] (-42)
1BC8  00                 [531] (-42)
1BC9  00                 [532] (-42)
1BCA  5D                 [533] (-42)
1BCB  00                 [534] (-42)
1BCC  00                 [535] (-42)
1BCD  00                 [536] (-42)
1BCE  5E                 [537] (-42)
1BCF  00                 [538] (-41)
1BD0  00                 [539] (-40)
1BD1  00                 [540] (-40)
1BD2  5E                 [541] (-40)
1BD3  00                 [542] (-40)
1BD4  00                 [543] (-40)
1BD5  00                 [544] (-40)
1BD6  5E                 [545] (-40)
1BD7  00                 [546] (-39)
1BD8  00                 [547] (-37)
1BD9  00                 [548] (-37)
1BDA  5F                 [549] (-37)
1BDB  00                 [550] (-37)
1BDC  00                 [551] (-37)
1BDD  00                 [552] (-37)
1BDE  60                 [553] (-37)
1BDF  00                 [554] (-37)
1BE0  00                 [555] (-42)
1BE1  00                 [556] (-34)
1BE2  60                 [557] (-33)
1BE3  00                 [558] (-33)
1BE4  00                 [559] (-33)
1BE5  00                 [560] (-33)
1BE6  60                 [561] (-33)
1BE7  00                 [562] (-33)
1BE8  00                 [563] (-32)
1BE9  00                 [564] (-32)
1BEA  60                 [565] (-32)
1BEB  00                 [566] (-31)
1BEC  00                 [567] (-31)
1BED  00                 [568] (-31)
1BEE  62                 [569] (-31)
1BEF  00                 [570] (-29)
1BF0  00                 [571] (-29)
1BF1  00                 [572] (-25)
1BF2  64                 [573] (-25)
1BF3  00                 [574] (-24)
1BF4  00                 [575] (-24)
1BF5  00                 [576] (-23)
1BF6  64                 [577] (-23)
1BF7  00                 [578] (-23)
1BF8  00                 [579] (-23)
1BF9  00                 [580] (-23)
1BFA  64                 [581] (-23)
1BFB  00                 [582] (-23)
1BFC  00                 [583] (-23)
1BFD  00                 [584] (-22)
1BFE  64                 [585] (-20)
1BFF  00                 [586] (-20)
1C00  00                 [587] (-20)
1C01  00                 [588] (-20)
1C02  64                 [589] (-20)
1C03  00                 [590] (-20)
1C04  00                 [591] (-20)
1C05  00                 [592] (-20)
1C06  65                 [593] (-17)
1C07  00                 [594] (-17)
1C08  00                 [595] (-17)
1C09  00                 [596] (-16)
1C0A  65                 [597] (-15)
1C0B  00                 [598] (-15)
1C0C  00                 [599] (-15)
1C0D  00                 [600] (-15)
1C0E  65                 [601] (-15)
1C0F  00                 [602] (-15)
1C10  00                 [603] (-14)
1C11  00                 [604] (-14)
1C12  65                 [605] (-12)
1C13  00                 [606] (-11)
1C14  00                 [607] (-11)
1C15  00                 [608] (-11)
1C16  65                 [609] (-11)
1C17  00                 [610] (-11)
1C18  00                 [611] (-11)
1C19  00                 [612] (-11)
1C1A  65                 [613] (-11)
1C1B  00                 [614] (-8)
1C1C  00                 [615] (-8)
1C1D  00                 [616] (-8)
1C1E  65                 [617] (-8)
1C1F  00                 [618] (-8)
1C20  00                 [619] (-8)
1C21  00                 [620] (-7)
1C22  65                 [621] (-7)
1C23  00                 [622] (-7)
1C24  00                 [623] (-6)
1C25  00                 [624] (-6)
1C26  65                 [625] (-6)
1C27  00                 [626] (-5)
1C28  00                 [627] (-5)
1C29  00                 [628] (-5)
1C2A  65                 [629] (-5)
1C2B  00                 [630] (-5)
1C2C  00                 [631] (-5)
1C2D  00                 [632] (-5)
1C2E  65                 [633] (-4)
1C2F  00                 [634] (-4)
1C30  00                 [635] (-4)
1C31  00                 [636] (-4)
1C32  65                 [637] (-4)
1C33  00                 [638] (-4)
1C34  00                 [639] (-4)
1C35  00                 [640] (-4)
1C36  66                 [641] (-4)
1C37  00                 [642] (-4)
1C38  00                 [643] (-4)
1C39  00                 [644] (-4)
1C3A  66                 [645] (-4)
1C3B  00                 [646] (-4)
1C3C  00                 [647] (-3)
1C3D  00                 [648] (-3)
1C3E  66                 [649] (-3)
1C3F  00                 [650] (-3)
1C40  00                 [651] (-3)
1C41  00                 [652] (-3)
1C42  66                 [653] (-3)
1C43  00                 [654] (-3)
1C44  00                 [655] (-3)
1C45  00                 [656] (-3)
1C46  66                 [657] (-3)
1C47  00                 [658] (-3)
1C48  00                 [659] (-3)
1C49  00                 [660] (-3)
1C4A  66                 [661] (-3)
1C4B  00                 [662] (-3)
1C4C  00                 [663] (-3)
1C4D  00                 [664] (-3)
1C4E  66                 [665] (-1)
1C4F  00                 [666] (-1)
1C50  00                 [667] (-1)
1C51  00                 [668] (-1)
1C52  66                 [669] (-1)
1C53  00                 [670] (-1)
1C54  00                 [671] (3)
1C55  00                 [672] (3)
1C56  66                 [673] (3)
1C57  00                 [674] (3)
1C58  00                 [675] (3)
1C59  00                 [676] (3)
1C5A  66                 [677] (3)
1C5B  00                 [678] (3)
1C5C  00                 [679] (3)
1C5D  00                 [680] (3)
1C5E  66                 [681] (3)
1C5F  00                 [682] (3)
1C60  00                 [683] (3)
1C61  00                 [684] (3)
1C62  66                 [685] (4)
1C63  00                 [686] (4)
1C64  00                 [687] (4)
1C65  00                 [688] (4)
1C66  66                 [689] (4)
1C67  00                 [690] (4)
1C68  00                 [691] (6)
1C69  00                 [692] (6)
1C6A  66                 [693] (6)
1C6B  00                 [694] (8)
1C6C  00                 [695] (8)
1C6D  00                 [696] (8)
1C6E  66                 [697] (8)
1C6F  00                 [698] (8)
1C70  00                 [699] (8)
1C71  00                 [700] (8)
1C72  66                 [701] (8)
1C73  00                 [702] (8)
1C74  00                 [703] (8)
1C75  00                 [704] (9)
1C76  66                 [705] (9)
1C77  00                 [706] (9)
1C78  00                 [707] (9)
1C79  00                 [708] (9)
1C7A  66                 [709] (9)
1C7B  00                 [710] (9)
1C7C  00                 [711] (9)
1C7D  00                 [712] (11)
1C7E  66                 [713] (11)
1C7F  00                 [714] (11)
1C80  00                 [715] (11)
1C81  00                 [716] (11)
1C82  66                 [717] (11)
1C83  00                 [718] (11)
1C84  00                 [719] (14)
1C85  00                 [720] (14)
1C86  66                 [721] (14)
1C87  00                 [722] (16)
1C88  00                 [723] (17)
                         * locals:
2502  00                 sizelocvars (0)
                         * upvalues:
2503  00                 sizeupvalues (0)
                         ** end of function **

                         
2504                     ** function [3] definition (level 2)
                         ** start of function **
2504  00                 string size (0)
                         source name: (none)
2506  02                 line defined (275)
2507  A5                 last line defined (293)
2508  02                 nups (2)
2509  02                 numparams (1)
250A  01                 is_vararg (0)
250B  00                 maxstacksize (21)
                         * code:
250D  5B                 sizecode (91)
250E  59000000           [01] loadk      1   0        ; ""
2512  93000000           [02] getupval   2   0      
2516  8E404001           [03] gettable   2   2   257  ; -1153782542
251A  A2808000           [04] call       2   1   2  
251E  DD800000           [05] getglobal  3   2        ; 1074689893
2522  12010001           [06] move       4   2      
2526  E2800001           [07] call       3   2   2  
252A  D8400000           [08] test       3       1    ; to [10] if false
252E  1A001380           [09] jmp        77           ; to [87]
2532  E4C04001           [10] self       3   2   259  ; -551469855
2536  4E014100           [11] gettable   5   0   260  ; "mMissionInfo"
253A  4E41C102           [12] gettable   5   5   261  ; "location"
253E  E2808001           [13] call       3   3   2  
2542  1D810100           [14] getglobal  4   6        ; -421772368
2546  4EC1C101           [15] gettable   5   3   263  ; "locTag"
254A  6401C202           [16] self       5   5   264  ; 1590141906
254E  62810001           [17] call       5   2   2  
2552  86010003           [18] loadnil    6   6      
2556  22818001           [19] call       4   3   2  
255A  5D810100           [20] getglobal  5   6        ; -421772368
255E  8E014100           [21] gettable   6   0   260  ; "mMissionInfo"
2562  8E414203           [22] gettable   6   6   265  ; "descText"
2566  A4014203           [23] self       6   6   264  ; 1590141906
256A  A2810001           [24] call       6   2   2  
256E  C6018003           [25] loadnil    7   7      
2572  62818001           [26] call       5   3   2  
2576  9D810100           [27] getglobal  6   6        ; -421772368
257A  E4814201           [28] self       7   2   266  ; 1527673913
257E  E2810001           [29] call       7   2   2  
2582  0EC2C201           [30] gettable   8   3   267  ; "region"
2586  03024304           [31] add        8   8   268  ; 0
258A  CE018203           [32] gettable   7   7   8  
258E  CE41C303           [33] gettable   7   7   269  ; "name"
2592  06020004           [34] loadnil    8   8      
2596  A2818001           [35] call       6   3   2  
259A  D3010000           [36] getupval   7   0      
259E  CE81C303           [37] gettable   7   7   270  ; -265239752
25A2  1DC20300           [38] getglobal  8   15       ; mMovie
25A6  4E024100           [39] gettable   9   0   260  ; "mMissionInfo"
25AA  4E02C404           [40] gettable   9   9   272  ; "missionReward"
25AE  E2818001           [41] call       7   3   2  
25B2  1D420400           [42] getglobal  8   17       ; Engine
25B6  0E824404           [43] gettable   8   8   274  ; -794986224
25BA  4EC24400           [44] gettable   9   0   275  ; "mExpiry"
25BE  22820001           [45] call       8   2   2  
25C2  5D820100           [46] getglobal  9   6        ; -421772368
25C6  99020500           [47] loadk      10  20       ; "/Lotus/Language/Menu/Notification_Expiry"
25CA  C6028005           [48] loadnil    11  11     
25CE  62828001           [49] call       9   3   2  
25D2  9D420500           [50] getglobal  10  21       ; string
25D6  8E824505           [51] gettable   10  10  278  ; 1260343128
25DA  D2028004           [52] move       11  9      
25DE  13030000           [53] getupval   12  0      
25E2  0EC34506           [54] gettable   12  12  279  ; -443997422
25E6  52030004           [55] move       13  8      
25EA  22030001           [56] call       12  2   0  
25EE  A2820000           [57] call       10  0   2  
25F2  52020005           [58] move       9   10     
25F6  93028000           [59] getupval   10  1      
25FA  8E024605           [60] gettable   10  10  280  ; -132701534
25FE  CE424600           [61] gettable   11  0   281  ; "mTag"
2602  1D830600           [62] getglobal  12  26       ; EMPTY_SYMBOL
fail op	35
2606  63008305           [63] close      1  
260A  1A000080           [64] jmp        1            ; to [66]
260E  D7420000           [65] loadbool   11  0   1    ; false, to [67]
2612  D7028000           [66] loadbool   11  1   0    ; true
2616  1D830100           [67] getglobal  12  6        ; -421772368
261A  59C30600           [68] loadk      13  27       ; "/Lotus/Language/Menu/Notification_Alert"
261E  86030007           [69] loadnil    14  14     
2622  22838001           [70] call       12  3   2  
2626  52038002           [71] move       13  5      
262A  A2820002           [72] call       10  4   2  
262E  52000005           [73] move       1   10     
2632  99020700           [74] loadk      10  28       ; "<p><font face=\"Noto Sans\"><b>"
2636  D2028000           [75] move       11  1      
263A  19430700           [76] loadk      12  29       ; "</b></font><font face=\"Noto Sans\">: "
263E  52030002           [77] move       13  4      
2642  99830700           [78] loadk      14  30       ; " ("
2646  D2030003           [79] move       15  6      
264A  19C40700           [80] loadk      16  31       ; ") - "
264E  52048003           [81] move       17  7      
2652  99040800           [82] loadk      18  32       ; ". "
2656  D2048004           [83] move       19  9      
265A  19450800           [84] loadk      20  33       ; "</font></p>"
265E  42000505           [85] concat     1   10  20 
2662  1A800080           [86] jmp        3            ; to [90]
2666  9D820800           [87] getglobal  10  34       ; -1817107093
266A  D9C20800           [88] loadk      11  35       ; "GetAlertMessage: no starChart"
266E  A2420001           [89] call       10  2   1  
2672  5E000001           [90] return     1   2      
2676  1E008000           [91] return     0   1      
                         * constants:
267A  24                 sizek (36)
267B  04                 const type 4
267C  01                 string size (0)
                         const [0]: ""
267E  01                 const type 3
267F  F2AC3ABB           const [1]: (-1153782542)
2683  01                 const type 3
2684  65770E40           const [2]: (1074689893)
2688  01                 const type 3
2689  E13C21DF           const [3]: (-551469855)
268D  04                 const type 4
268E  0D                 string size (13)
268F  6D4D697373696F6E+  "mMission"
2697  496E666F00         "Info\0"
                         const [4]: "mMissionInfo"
269C  04                 const type 4
269D  09                 string size (9)
269E  6C6F636174696F6E+  "location"
26A6  00                 "\0"
                         const [5]: "location"
26A7  01                 const type 3
26A8  B043DCE6           const [6]: (-421772368)
26AC  04                 const type 4
26AD  07                 string size (7)
26AE  6C6F6354616700     "locTag\0"
                         const [7]: "locTag"
26B5  01                 const type 3
26B6  D2A3C75E           const [8]: (1590141906)
26BA  04                 const type 4
26BB  09                 string size (9)
26BC  6465736354657874+  "descText"
26C4  00                 "\0"
                         const [9]: "descText"
26C5  01                 const type 3
26C6  39740E5B           const [10]: (1527673913)
26CA  04                 const type 4
26CB  07                 string size (7)
26CC  726567696F6E00     "region\0"
                         const [11]: "region"
26D3  03                 const type 3
26D4  0000803F           const [12]: (0)
26D8  04                 const type 4
26D9  05                 string size (5)
26DA  6E616D6500         "name\0"
                         const [13]: "name"
26DF  01                 const type 3
26E0  38C330F0           const [14]: (-265239752)
26E4  04                 const type 4
26E5  07                 string size (7)
26E6  6D4D6F76696500     "mMovie\0"
                         const [15]: "mMovie"
26ED  04                 const type 4
26EE  0E                 string size (14)
26EF  6D697373696F6E52+  "missionR"
26F7  657761726400       "eward\0"
                         const [16]: "missionReward"
26FD  04                 const type 4
26FE  07                 string size (7)
26FF  456E67696E6500     "Engine\0"
                         const [17]: "Engine"
2706  01                 const type 3
2707  10799DD0           const [18]: (-794986224)
270B  04                 const type 4
270C  08                 string size (8)
270D  6D45787069727900   "mExpiry\0"
                         const [19]: "mExpiry"
2715  04                 const type 4
2716  29                 string size (41)
2717  2F4C6F7475732F4C+  "/Lotus/L"
271F  616E67756167652F+  "anguage/"
2727  4D656E752F4E6F74+  "Menu/Not"
272F  696669636174696F+  "ificatio"
2737  6E5F457870697279+  "n_Expiry"
273F  00                 "\0"
                         const [20]: "/Lotus/Language/Menu/Notification_Expiry"
2740  04                 const type 4
2741  07                 string size (7)
2742  737472696E6700     "string\0"
                         const [21]: "string"
2749  01                 const type 3
274A  584F1F4B           const [22]: (1260343128)
274E  01                 const type 3
274F  122389E5           const [23]: (-443997422)
2753  01                 const type 3
2754  A22217F8           const [24]: (-132701534)
2758  04                 const type 4
2759  05                 string size (5)
275A  6D54616700         "mTag\0"
                         const [25]: "mTag"
275F  04                 const type 4
2760  0D                 string size (13)
2761  454D5054595F5359+  "EMPTY_SY"
2769  4D424F4C00         "MBOL\0"
                         const [26]: "EMPTY_SYMBOL"
276E  04                 const type 4
276F  28                 string size (40)
2770  2F4C6F7475732F4C+  "/Lotus/L"
2778  616E67756167652F+  "anguage/"
2780  4D656E752F4E6F74+  "Menu/Not"
2788  696669636174696F+  "ificatio"
2790  6E5F416C65727400   "n_Alert\0"
                         const [27]: "/Lotus/Language/Menu/Notification_Alert"
2798  04                 const type 4
2799  1E                 string size (30)
279A  3C703E3C666F6E74+  "<p><font"
27A2  20666163653D224E+  " face=\"N"
27AA  6F746F2053616E73+  "oto Sans"
27B2  223E3C623E00       "\"><b>\0"
                         const [28]: "<p><font face=\"Noto Sans\"><b>"
27B8  04                 const type 4
27B9  25                 string size (37)
27BA  3C2F623E3C2F666F+  "</b></fo"
27C2  6E743E3C666F6E74+  "nt><font"
27CA  20666163653D224E+  " face=\"N"
27D2  6F746F2053616E73+  "oto Sans"
27DA  223E3A2000         "\">: \0"
                         const [29]: "</b></font><font face=\"Noto Sans\">: "
27DF  04                 const type 4
27E0  03                 string size (3)
27E1  202800             " (\0"
                         const [30]: " ("
27E4  04                 const type 4
27E5  05                 string size (5)
27E6  29202D2000         ") - \0"
                         const [31]: ") - "
27EB  04                 const type 4
27EC  03                 string size (3)
27ED  2E2000             ". \0"
                         const [32]: ". "
27F0  04                 const type 4
27F1  0C                 string size (12)
27F2  3C2F666F6E743E3C+  "</font><"
27FA  2F703E00           "/p>\0"
                         const [33]: "</font></p>"
27FE  01                 const type 3
27FF  6B25B193           const [34]: (-1817107093)
2803  04                 const type 4
2804  1E                 string size (30)
2805  476574416C657274+  "GetAlert"
280D  4D6573736167653A+  "Message:"
2815  206E6F2073746172+  " no star"
281D  436861727400       "Chart\0"
                         const [35]: "GetAlertMessage: no starChart"
                         * functions:
2823  00                 sizep (0)
                         * lines:
2824  5B                 sizelineinfo (91)
                         [pc] (line)
2825  14                 [01] (20)
2826  01                 [02] (21)
2827  00                 [03] (21)
2828  00                 [04] (21)
2829  15                 [05] (22)
282A  01                 [06] (22)
282B  00                 [07] (22)
282C  00                 [08] (22)
282D  15                 [09] (22)
282E  01                 [10] (23)
282F  00                 [11] (23)
2830  00                 [12] (23)
2831  15                 [13] (23)
2832  01                 [14] (24)
2833  00                 [15] (24)
2834  00                 [16] (24)
2835  16                 [17] (24)
2836  01                 [18] (24)
2837  00                 [19] (24)
2838  00                 [20] (25)
2839  16                 [21] (25)
283A  01                 [22] (25)
283B  00                 [23] (25)
283C  00                 [24] (25)
283D  16                 [25] (25)
283E  01                 [26] (25)
283F  00                 [27] (26)
2840  00                 [28] (26)
2841  16                 [29] (26)
2842  01                 [30] (26)
2843  00                 [31] (26)
2844  00                 [32] (26)
2845  16                 [33] (26)
2846  01                 [34] (26)
2847  00                 [35] (26)
2848  00                 [36] (27)
2849  17                 [37] (27)
284A  01                 [38] (27)
284B  00                 [39] (27)
284C  00                 [40] (27)
284D  17                 [41] (27)
284E  01                 [42] (28)
284F  00                 [43] (28)
2850  00                 [44] (28)
2851  17                 [45] (28)
2852  01                 [46] (29)
2853  00                 [47] (29)
2854  00                 [48] (29)
2855  17                 [49] (29)
2856  01                 [50] (30)
2857  00                 [51] (30)
2858  00                 [52] (30)
2859  18                 [53] (30)
285A  01                 [54] (30)
285B  00                 [55] (30)
285C  00                 [56] (30)
285D  18                 [57] (30)
285E  01                 [58] (30)
285F  00                 [59] (31)
2860  00                 [60] (31)
2861  18                 [61] (31)
2862  01                 [62] (31)
2863  00                 [63] (31)
2864  00                 [64] (31)
2865  18                 [65] (31)
2866  01                 [66] (31)
2867  00                 [67] (31)
2868  00                 [68] (31)
2869  18                 [69] (31)
286A  01                 [70] (31)
286B  00                 [71] (31)
286C  00                 [72] (31)
286D  18                 [73] (31)
286E  01                 [74] (32)
286F  00                 [75] (32)
2870  00                 [76] (32)
2871  19                 [77] (32)
2872  01                 [78] (32)
2873  00                 [79] (32)
2874  00                 [80] (32)
2875  19                 [81] (32)
2876  01                 [82] (32)
2877  00                 [83] (32)
2878  00                 [84] (32)
2879  19                 [85] (32)
287A  01                 [86] (32)
287B  00                 [87] (34)
287C  00                 [88] (34)
287D  19                 [89] (34)
287E  01                 [90] (36)
287F  00                 [91] (37)
                         * locals:
2991  00                 sizelocvars (0)
                         * upvalues:
2992  00                 sizeupvalues (0)
                         ** end of function **

                         
2993                     ** function [4] definition (level 2)
                         ** start of function **
2993  00                 string size (0)
                         source name: (none)
2995  02                 line defined (295)
2996  8D                 last line defined (653)
2997  05                 nups (8)
2998  08                 numparams (0)
2999  00                 is_vararg (0)
299A  00                 maxstacksize (122)
                         * code:
299D  08                 sizecode (1110)
299E  13000000           [0001] getupval   0   0      
29A2  24004000           [0002] self       0   0   256  ; -988128099
29A6  22800001           [0003] call       0   2   2  
fail op	21
29AA  15008080           [0004] concat     0   257 0  
29AE  1A000180           [0005] jmp        5            ; to [11]
29B2  13000000           [0006] getupval   0   0      
29B6  24804000           [0007] self       0   0   258  ; 2096569603
29BA  97008000           [0008] loadbool   2   1   0    ; true
29BE  D7008000           [0009] loadbool   3   1   0    ; true
29C2  22400002           [0010] call       0   4   1  
29C6  13008000           [0011] getupval   0   1      
29CA  0EC04000           [0012] gettable   0   0   259  ; 1388869707
29CE  5D000100           [0013] getglobal  1   4        ; gGameData
29D2  22000101           [0014] call       0   2   4  
29D6  DD400100           [0015] getglobal  3   5        ; 1074689893
29DA  12010000           [0016] move       4   0      
29DE  E2800001           [0017] call       3   2   2  
29E2  D8400000           [0018] test       3       1    ; to [20] if false
29E6  1AC01780           [0019] jmp        96           ; to [116]
29EA  DD800100           [0020] getglobal  3   6        ; mMovie
29EE  E4C0C101           [0021] self       3   3   263  ; 98241492
29F2  5D010200           [0022] getglobal  5   8        ; -1615931716
29F6  A4414200           [0023] self       6   0   265  ; 1634497718
29FA  A2010001           [0024] call       6   2   0  
29FE  62810000           [0025] call       5   0   2  
2A02  97010000           [0026] loadbool   6   0   0    ; false
2A06  E2800002           [0027] call       3   4   2  
2A0A  19810200           [0028] loadk      4   10       ; "<p><font color=\"#EFEFEF\"><b>"
2A0E  52018001           [0029] move       5   3      
2A12  99C10200           [0030] loadk      6   11       ; "</b>"
2A16  02810102           [0031] concat     4   4   6  
2A1A  64014300           [0032] self       5   0   268  ; 1814066247
2A1E  62810001           [0033] call       5   2   2  
2A22  99410300           [0034] loadk      6   13       ; ""
2A26  CA018002           [0035] len        7   5      
fail op	33
2A2A  21C08100           [0036] tforloop   0       7    ; to [38] if exit
2A2E  1AC00880           [0037] jmp        36           ; to [74]
2A32  CE418002           [0038] gettable   7   5   1  
2A36  CE81C303           [0039] gettable   7   7   270  ; "mMainMission"
2A3A  CEC1C303           [0040] gettable   7   7   271  ; "mKey"
2A3E  1D020200           [0041] getglobal  8   8        ; -1615931716
2A42  4E428002           [0042] gettable   9   5   1  
2A46  4E02C404           [0043] gettable   9   9   272  ; "mLocTag"
2A4A  22820001           [0044] call       8   2   2  
fail op	35
2A4E  63404304           [0045] close      1  
2A52  1A800180           [0046] jmp        7            ; to [54]
2A56  5D820100           [0047] getglobal  9   6        ; mMovie
2A5A  64C2C104           [0048] self       9   9   263  ; 98241492
2A5E  D2020004           [0049] move       11  8      
2A62  17030000           [0050] loadbool   12  0   0    ; false
2A66  62820002           [0051] call       9   4   2  
2A6A  92018004           [0052] move       6   9      
2A6E  1A400380           [0053] jmp        14           ; to [68]
2A72  5D420100           [0054] getglobal  9   5        ; 1074689893
2A76  92028003           [0055] move       10  7      
2A7A  62820001           [0056] call       9   2   2  
2A7E  58420000           [0057] test       9       1    ; to [59] if false
2A82  1A000280           [0058] jmp        9            ; to [68]
2A86  5D820100           [0059] getglobal  9   6        ; mMovie
2A8A  64C2C104           [0060] self       9   9   263  ; 98241492
2A8E  DD020200           [0061] getglobal  11  8        ; -1615931716
2A92  2443C203           [0062] self       12  7   265  ; 1634497718
2A96  22030001           [0063] call       12  2   0  
2A9A  E2820000           [0064] call       11  0   2  
2A9E  17030000           [0065] loadbool   12  0   0    ; false
2AA2  62820002           [0066] call       9   4   2  
2AA6  92018004           [0067] move       6   9      
fail op	35
2AAA  63404303           [0068] close      1  
2AAE  1AC00080           [0069] jmp        4            ; to [74]
2AB2  52020002           [0070] move       9   4      
2AB6  99420400           [0071] loadk      10  17       ; "<br>"
2ABA  D2020003           [0072] move       11  6      
2ABE  02C18204           [0073] concat     4   9   11 
2AC2  52020002           [0074] move       9   4      
2AC6  99820400           [0075] loadk      10  18       ; "</font></p>"
2ACA  02818204           [0076] concat     4   9   10 
2ACE  52028001           [0077] move       9   3      
2AD2  99C20400           [0078] loadk      10  19       ; "\r"
2AD6  D2020003           [0079] move       11  6      
2ADA  42C28204           [0080] concat     9   9   11 
2ADE  93020001           [0081] getupval   10  2      
2AE2  8E024505           [0082] gettable   10  10  276  ; -1074004386
2AE6  D3028001           [0083] getupval   11  3      
2AEA  12038004           [0084] move       12  9      
2AEE  A2828001           [0085] call       10  3   2  
2AF2  98420000           [0086] test       10      1    ; to [88] if false
2AF6  1A000480           [0087] jmp        17           ; to [105]
2AFA  9D420500           [0088] getglobal  10  21       ; _T
2AFE  8E824505           [0089] gettable   10  10  278  ; "ShowNotification"
fail op	35
2B02  63C04505           [0090] close      1  
2B06  1A000380           [0091] jmp        13           ; to [105]
fail op	35
2B0A  63404303           [0092] close      1  
2B0E  1A800280           [0093] jmp        11           ; to [105]
2B12  9D020600           [0094] getglobal  10  24       ; table
2B16  8E424605           [0095] gettable   10  10  281  ; -431682403
2B1A  D3028001           [0096] getupval   11  3      
2B1E  12038004           [0097] move       12  9      
2B22  A2428001           [0098] call       10  3   1  
2B26  9D420500           [0099] getglobal  10  21       ; _T
2B2A  8E824605           [0100] gettable   10  10  282  ; 1981590909
2B2E  D2028004           [0101] move       11  9      
2B32  19C30600           [0102] loadk      12  27       ; "Quest"
2B36  57038000           [0103] loadbool   13  1   0    ; true
2B3A  A2420002           [0104] call       10  4   1  
2B3E  93020000           [0105] getupval   10  0      
2B42  A4024705           [0106] self       10  10  284  ; -1484936978
2B46  0B030100           [0107] newtable   12  0   4    ; array=0, hash=4
2B4A  0C03818E           [0108] settable   12  285 4    ; "Label"
2B4E  5DC30700           [0109] getglobal  13  31       ; _G
2B52  4E03C806           [0110] gettable   13  13  288  ; "UITexture_Story"
2B56  0C43038F           [0111] settable   12  286 13   ; "Icon"
2B5A  0C83C890           [0112] settable   12  289 290  ; "TextHeight" 0
2B5E  0C03C991           [0113] settable   12  291 292  ; "Localized" 1
2B62  57038000           [0114] loadbool   13  1   0    ; true
2B66  A2420002           [0115] call       10  4   1  
2B6A  93028000           [0116] getupval   10  1      
2B6E  8E424905           [0117] gettable   10  10  293  ; 955275104
2B72  A2828000           [0118] call       10  1   2  
2B76  98020000           [0119] test       10      0    ; to [121] if true
2B7A  1A40D280           [0120] jmp        842          ; to [963]
2B7E  9D420100           [0121] getglobal  10  5        ; 1074689893
2B82  D2020000           [0122] move       11  0      
2B86  A2820001           [0123] call       10  2   2  
2B8A  98020000           [0124] test       10      0    ; to [126] if true
2B8E  1AC02180           [0125] jmp        136          ; to [262]
2B92  9D420100           [0126] getglobal  10  5        ; 1074689893
2B96  DD020100           [0127] getglobal  11  4        ; gGameData
2B9A  A2820001           [0128] call       10  2   2  
2B9E  98420000           [0129] test       10      1    ; to [131] if false
2BA2  1A802080           [0130] jmp        131          ; to [262]
2BA6  9D020100           [0131] getglobal  10  4        ; gGameData
2BAA  A4824905           [0132] self       10  10  294  ; 1865287165
2BAE  A2820001           [0133] call       10  2   2  
2BB2  A4C24905           [0134] self       10  10  295  ; 1885757497
2BB6  A2820001           [0135] call       10  2   2  
2BBA  D9420300           [0136] loadk      11  13       ; ""
2BBE  06030006           [0137] loadnil    12  12     
2BC2  4B030000           [0138] newtable   13  0   0    ; array=0, hash=0
2BC6  9D030A00           [0139] getglobal  14  40       ; 1672515847
2BCA  D2030005           [0140] move       15  10     
2BCE  A2030101           [0141] call       14  2   4  
2BD2  1A000980           [0142] jmp        37           ; to [180]
2BD6  DD440100           [0143] getglobal  19  5        ; 1074689893
2BDA  0E454A09           [0144] gettable   20  18  297  ; "mItemType"
2BDE  E2840001           [0145] call       19  2   2  
2BE2  D8440000           [0146] test       19      1    ; to [148] if false
2BE6  1AC00780           [0147] jmp        32           ; to [180]
2BEA  CE844A09           [0148] gettable   19  18  298  ; "mProgress"
2BEE  D8040000           [0149] test       19      0    ; to [151] if true
2BF2  1AC00080           [0150] jmp        4            ; to [155]
2BF6  CE844A09           [0151] gettable   19  18  298  ; "mProgress"
2BFA  CA048009           [0152] len        19  19     
fail op	35
2BFE  2340C009           [0153] close      0  
2C02  1A000680           [0154] jmp        25           ; to [180]
2C06  DDC40A00           [0155] getglobal  19  43       ; Engine
2C0A  CE04CB09           [0156] gettable   19  19  300  ; -794986224
2C0E  1D050100           [0157] getglobal  20  4        ; gGameData
2C12  24454B0A           [0158] self       20  20  301  ; -2014247453
2C16  8E454A09           [0159] gettable   22  18  297  ; "mItemType"
2C1A  22058001           [0160] call       20  3   0  
2C1E  E2840000           [0161] call       19  0   2  
fail op	21
2C22  15C00497           [0162] concat     0   302 19 
2C26  1A400180           [0163] jmp        6            ; to [170]
2C2A  1D050600           [0164] getglobal  20  24       ; table
2C2E  0E45460A           [0165] gettable   20  20  281  ; -431682403
2C32  52058006           [0166] move       21  13     
2C36  8E454A09           [0167] gettable   22  18  297  ; "mItemType"
2C3A  22458001           [0168] call       20  3   1  
2C3E  1A400280           [0169] jmp        10           ; to [180]
fail op	35
2C42  63C04506           [0170] close      1  
2C46  1A800080           [0171] jmp        3            ; to [175]
2C4A  0EC54B06           [0172] gettable   20  12  303  ; "NagTime"
fail op	21
2C4E  15008509           [0173] concat     0   19  20 
2C52  1A000180           [0174] jmp        5            ; to [180]
2C56  0B850000           [0175] newtable   20  0   2    ; array=0, hash=2
2C5A  4E454A09           [0176] gettable   21  18  297  ; "mItemType"
2C5E  0C45858D           [0177] settable   20  283 21   ; "Quest"
2C62  0CC58497           [0178] settable   20  303 19   ; "NagTime"
2C66  1203000A           [0179] move       12  20     
2C6A  96830000           [0180] tforloop   14      2    ; to [182] if exit
2C6E  1A00F67F           [0181] jmp        -39          ; to [143]
2C72  0605000A           [0182] loadnil    20  20     
fail op	35
2C76  63C04506           [0183] close      1  
2C7A  1A400080           [0184] jmp        2            ; to [187]
2C7E  0EC54606           [0185] gettable   20  12  283  ; "Quest"
2C82  1AC00180           [0186] jmp        8            ; to [195]
2C86  4A058006           [0187] len        21  13     
fail op	21
2C8A  15408580           [0188] concat     0   257 21 
2C8E  1A000180           [0189] jmp        5            ; to [195]
2C92  5D050C00           [0190] getglobal  21  48       ; 2144646525
2C96  99450C00           [0191] loadk      22  49       ; 0
2C9A  CA058006           [0192] len        23  13     
2C9E  62858001           [0193] call       21  3   2  
2CA2  0E458506           [0194] gettable   20  13  21 
2CA6  5D450100           [0195] getglobal  21  5        ; 1074689893
2CAA  9205000A           [0196] move       22  20     
2CAE  62850001           [0197] call       21  2   2  
2CB2  58450000           [0198] test       21      1    ; to [200] if false
2CB6  1AC00880           [0199] jmp        36           ; to [236]
2CBA  4605800A           [0200] loadnil    21  21     
2CBE  9D450100           [0201] getglobal  22  5        ; 1074689893
2CC2  DD850C00           [0202] getglobal  23  50       ; gGameRules
2CC6  E4C5CC0B           [0203] self       23  23  307  ; -1049586730
2CCA  E2050001           [0204] call       23  2   0  
2CCE  A2850000           [0205] call       22  0   2  
2CD2  98450000           [0206] test       22      1    ; to [208] if false
2CD6  1A800180           [0207] jmp        7            ; to [215]
2CDA  9D850C00           [0208] getglobal  22  50       ; gGameRules
2CDE  A4C54C0B           [0209] self       22  22  307  ; -1049586730
2CE2  A2850001           [0210] call       22  2   2  
2CE6  A4054D0B           [0211] self       22  22  308  ; -19377674
2CEA  1206000A           [0212] move       24  20     
2CEE  A2858001           [0213] call       22  3   2  
2CF2  5205000B           [0214] move       21  22     
2CF6  9D450100           [0215] getglobal  22  5        ; 1074689893
2CFA  D205800A           [0216] move       23  21     
2CFE  A2850001           [0217] call       22  2   2  
2D02  98450000           [0218] test       22      1    ; to [220] if false
2D06  1AC00380           [0219] jmp        16           ; to [236]
2D0A  9D850100           [0220] getglobal  22  6        ; mMovie
2D0E  A4C5410B           [0221] self       22  22  263  ; 98241492
2D12  1D060200           [0222] getglobal  24  8        ; -1615931716
2D16  6446C20A           [0223] self       25  21  265  ; 1634497718
2D1A  62060001           [0224] call       25  2   0  
2D1E  22860000           [0225] call       24  0   2  
2D22  57060000           [0226] loadbool   25  0   0    ; false
2D26  A2850002           [0227] call       22  4   2  
2D2A  D205000B           [0228] move       23  22     
2D2E  19C60400           [0229] loadk      24  19       ; "\r"
2D32  5D860100           [0230] getglobal  25  6        ; mMovie
2D36  64C6C10C           [0231] self       25  25  263  ; 98241492
2D3A  D9460D00           [0232] loadk      27  53       ; "/Lotus/Language/Menu/NewQuestAvailable"
2D3E  17070000           [0233] loadbool   28  0   0    ; false
2D42  62860002           [0234] call       25  4   2  
2D46  C242860B           [0235] concat     11  23  25 
fail op	35
2D4A  6340C305           [0236] close      1  
2D4E  1AC00580           [0237] jmp        24           ; to [262]
2D52  D3050001           [0238] getupval   23  2      
2D56  CE05C50B           [0239] gettable   23  23  276  ; -1074004386
2D5A  13060002           [0240] getupval   24  4      
2D5E  52068005           [0241] move       25  11     
2D62  E2858001           [0242] call       23  3   2  
2D66  D8450000           [0243] test       23      1    ; to [245] if false
2D6A  1A000480           [0244] jmp        17           ; to [262]
2D6E  DD450500           [0245] getglobal  23  21       ; _T
2D72  CE85C50B           [0246] gettable   23  23  278  ; "ShowNotification"
fail op	35
2D76  63C0C50B           [0247] close      1  
2D7A  1A000380           [0248] jmp        13           ; to [262]
2D7E  DD050600           [0249] getglobal  23  24       ; table
2D82  CE45C60B           [0250] gettable   23  23  281  ; -431682403
2D86  13060002           [0251] getupval   24  4      
2D8A  52068005           [0252] move       25  11     
2D8E  E2458001           [0253] call       23  3   1  
2D92  DD450500           [0254] getglobal  23  21       ; _T
2D96  CE85C60B           [0255] gettable   23  23  282  ; 1981590909
2D9A  0B860000           [0256] newtable   24  0   2    ; array=0, hash=2
2D9E  0CC6029B           [0257] settable   24  310 11   ; "Text"
2DA2  0C06858D           [0258] settable   24  283 20   ; "Quest"
2DA6  59C60D00           [0259] loadk      25  55       ; "NewQuest"
2DAA  97068000           [0260] loadbool   26  1   0    ; true
2DAE  E2450002           [0261] call       23  4   1  
2DB2  CB050000           [0262] newtable   23  0   0    ; array=0, hash=0
2DB6  1D460100           [0263] getglobal  24  5        ; 1074689893
2DBA  5D060100           [0264] getglobal  25  4        ; gGameData
2DBE  22860001           [0265] call       24  2   2  
2DC2  18460000           [0266] test       24      1    ; to [268] if false
2DC6  1A005080           [0267] jmp        321          ; to [589]
2DCA  1D060E00           [0268] getglobal  24  56       ; 248503575
2DCE  5DC60700           [0269] getglobal  25  31       ; _G
2DD2  4E46CE0C           [0270] gettable   25  25  313  ; "CachedGoalInfo"
2DD6  22060101           [0271] call       24  2   4  
2DDA  1A404E80           [0272] jmp        314          ; to [587]
2DDE  53078000           [0273] getupval   29  1      
2DE2  4E87CE0E           [0274] gettable   29  29  314  ; 155881504
2DE6  9207000E           [0275] move       30  28     
2DEA  62070101           [0276] call       29  2   4  
2DEE  13088002           [0277] getupval   32  5      
2DF2  5208000E           [0278] move       33  28     
2DF6  9208800E           [0279] move       34  29     
2DFA  D208000F           [0280] move       35  30     
2DFE  22880002           [0281] call       32  4   2  
2E02  53080001           [0282] getupval   33  2      
2E06  4EC8CE10           [0283] gettable   33  33  315  ; -132701534
2E0A  9D480100           [0284] getglobal  34  5        ; 1074689893
2E0E  CE084F0E           [0285] gettable   35  28  316  ; "mIcon"
2E12  A2880001           [0286] call       34  2   2  
2E16  DDC80700           [0287] getglobal  35  31       ; _G
2E1A  CE48CF11           [0288] gettable   35  35  317  ; "UITexture_Event"
2E1E  0E094F0E           [0289] gettable   36  28  316  ; "mIcon"
2E22  62880002           [0290] call       33  4   2  
2E26  86080011           [0291] loadnil    34  34     
2E2A  CE884F0E           [0292] gettable   35  28  318  ; "mGoal"
fail op	35
2E2E  63C0C511           [0293] close      1  
2E32  1A800580           [0294] jmp        23           ; to [318]
2E36  CE884F0E           [0295] gettable   35  28  318  ; "mGoal"
fail op	35
2E3A  6340C011           [0296] close      1  
2E3E  1AC00480           [0297] jmp        20           ; to [318]
2E42  CEC84F0E           [0298] gettable   35  28  319  ; "mBest"
2E46  D8480000           [0299] test       35      1    ; to [301] if false
2E4A  1A000480           [0300] jmp        17           ; to [318]
2E4E  CE08500E           [0301] gettable   35  28  320  ; "mRelayReconstruction"
2E52  D8480000           [0302] test       35      1    ; to [304] if false
2E56  1A400380           [0303] jmp        14           ; to [318]
2E5A  DD481000           [0304] getglobal  35  65       ; 1668611480
2E5E  1CC9870E           [0305] div        36  29  31 
2E62  59891000           [0306] loadk      37  66       ; 0
2E66  99490C00           [0307] loadk      38  49       ; 0
2E6A  E2880002           [0308] call       35  4   2  
2E6E  92088011           [0309] move       34  35     
2E72  CEC8500E           [0310] gettable   35  28  323  ; "mInvasion"
2E76  D8080000           [0311] test       35      0    ; to [313] if true
2E7A  1A000180           [0312] jmp        5            ; to [318]
2E7E  DD081100           [0313] getglobal  35  68       ; math
2E82  CE48D111           [0314] gettable   35  35  325  ; -113279800
2E86  12090011           [0315] move       36  34     
2E8A  E2880001           [0316] call       35  2   2  
2E8E  92088011           [0317] move       34  35     
2E92  DDC80700           [0318] getglobal  35  31       ; _G
2E96  CE88D111           [0319] gettable   35  35  326  ; "MergedGoalNodes"
2E9A  D8080000           [0320] test       35      0    ; to [322] if true
2E9E  1A400180           [0321] jmp        6            ; to [328]
2EA2  DDC80700           [0322] getglobal  35  31       ; _G
2EA6  CE88D111           [0323] gettable   35  35  326  ; "MergedGoalNodes"
2EAA  0EC9510E           [0324] gettable   36  28  327  ; "mNode"
2EAE  CE088911           [0325] gettable   35  35  36 
fail op	35
2EB2  23C0C511           [0326] close      0  
2EB6  1A800A80           [0327] jmp        43           ; to [371]
fail op	35
2EBA  23404C11           [0328] close      0  
2EBE  1A400280           [0329] jmp        10           ; to [340]
2EC2  CE08520E           [0330] gettable   35  28  328  ; "mPersonal"
2EC6  D8080000           [0331] test       35      0    ; to [333] if true
2ECA  1A000280           [0332] jmp        9            ; to [342]
2ECE  CE48520E           [0333] gettable   35  28  329  ; "mTypes"
2ED2  CA088011           [0334] len        35  35     
fail op	21
2ED6  15C08880           [0335] concat     0   257 35 
2EDA  1A800080           [0336] jmp        3            ; to [340]
2EDE  CE88520E           [0337] gettable   35  28  330  ; "mMaxConclave"
fail op	35
2EE2  6340C011           [0338] close      1  
2EE6  1A000080           [0339] jmp        1            ; to [341]
2EEA  D7480000           [0340] loadbool   35  0   1    ; false, to [342]
2EEE  D7088000           [0341] loadbool   35  1   0    ; true
2EF2  D8480000           [0342] test       35      1    ; to [344] if false
2EF6  1A800680           [0343] jmp        27           ; to [371]
2EFA  0BC90100           [0344] newtable   36  0   7    ; array=0, hash=7
2EFE  0C09888E           [0345] settable   36  285 32   ; "Label"
2F02  0C09C991           [0346] settable   36  291 292  ; "Localized" 1
2F06  0C49088F           [0347] settable   36  286 33   ; "Icon"
2F0A  0C89C890           [0348] settable   36  289 290  ; "TextHeight" 0
2F0E  0C09D3A5           [0349] settable   36  331 332  ; "MinWidth" 0
2F12  0C8988A6           [0350] settable   36  333 34   ; "Ratio"
2F16  64C9530E           [0351] self       37  28  335  ; -1540973124
2F1A  62890001           [0352] call       37  2   2  
2F1E  0C4909A7           [0353] settable   36  334 37   ; "GoalInfo"
2F22  4E09540E           [0354] gettable   37  28  336  ; "mFomorian"
2F26  58090000           [0355] test       37      0    ; to [357] if true
2F2A  1AC00180           [0356] jmp        8            ; to [365]
2F2E  0C4987A8           [0357] settable   36  337 29   ; "Count"
2F32  0C8907A9           [0358] settable   36  338 30   ; "Best"
2F36  0C49C0A9           [0359] settable   36  339 257  ; "LastTimeUpdate" 0
2F3A  65090000           [0360] closure    37  0      
2F3E  12000012           [0361] move       0   36     
2F42  13008002           [0362] getupval   0   5      
2F46  13000000           [0363] getupval   0   0      
2F4A  0C4909AA           [0364] settable   36  340 37   ; "Update"
2F4E  5D090600           [0365] getglobal  37  24       ; table
2F52  4E49C612           [0366] gettable   37  37  281  ; -431682403
2F56  9209800B           [0367] move       38  23     
2F5A  D2090012           [0368] move       39  36     
2F5E  62498001           [0369] call       37  3   1  
2F62  11090000           [0370] close      36 
2F66  1D490100           [0371] getglobal  36  5        ; 1074689893
2F6A  5D090100           [0372] getglobal  37  4        ; gGameData
2F6E  22890001           [0373] call       36  2   2  
2F72  18490000           [0374] test       36      1    ; to [376] if false
2F76  1A803480           [0375] jmp        211          ; to [587]
2F7A  0EC9500E           [0376] gettable   36  28  323  ; "mInvasion"
2F7E  18090000           [0377] test       36      0    ; to [379] if true
2F82  1AC03380           [0378] jmp        208          ; to [587]
2F86  0E49550E           [0379] gettable   36  28  341  ; "mInvasionNode"
2F8A  5D891500           [0380] getglobal  37  86       ; EMPTY_SYMBOL
fail op	35
2F8E  63400912           [0381] close      1  
2F92  1AC03280           [0382] jmp        204          ; to [587]
2F96  1D490500           [0383] getglobal  36  21       ; _T
2F9A  0EC95512           [0384] gettable   36  36  343  ; "CachedInvasionInfo"
2F9E  5D090200           [0385] getglobal  37  8        ; -1615931716
2FA2  8E49550E           [0386] gettable   38  28  341  ; "mInvasionNode"
2FA6  62890001           [0387] call       37  2   2  
2FAA  0E490912           [0388] gettable   36  36  37 
2FAE  18090000           [0389] test       36      0    ; to [391] if true
2FB2  1AC03080           [0390] jmp        196          ; to [587]
2FB6  13098000           [0391] getupval   36  1      
2FBA  0E095612           [0392] gettable   36  36  344  ; -1153782542
2FBE  22898000           [0393] call       36  1   2  
2FC2  64495612           [0394] self       37  36  345  ; -551469855
2FC6  CE49550E           [0395] gettable   39  28  341  ; "mInvasionNode"
2FCA  62898001           [0396] call       37  3   2  
2FCE  9D490500           [0397] getglobal  38  21       ; _T
2FD2  8EC95513           [0398] gettable   38  38  343  ; "CachedInvasionInfo"
2FD6  DD090200           [0399] getglobal  39  8        ; -1615931716
2FDA  0E4A550E           [0400] gettable   40  28  341  ; "mInvasionNode"
2FDE  E2890001           [0401] call       39  2   2  
2FE2  8EC90913           [0402] gettable   38  38  39 
2FE6  DD891600           [0403] getglobal  39  90       ; -421772368
2FEA  1D0A0200           [0404] getglobal  40  8        ; -1615931716
2FEE  4E0A4413           [0405] gettable   41  38  272  ; "mLocTag"
2FF2  228A0001           [0406] call       40  2   2  
2FF6  570A0000           [0407] loadbool   41  0   0    ; false
2FFA  E2898001           [0408] call       39  3   2  
2FFE  1DCA0A00           [0409] getglobal  40  43       ; Engine
3002  0E0A4B14           [0410] gettable   40  40  300  ; -794986224
3006  4ECA5613           [0411] gettable   41  38  347  ; "mExpiry"
300A  228A0001           [0412] call       40  2   2  
300E  530A8000           [0413] getupval   41  1      
3012  4E0AD714           [0414] gettable   41  41  348  ; -443997422
3016  920A0014           [0415] move       42  40     
301A  628A0001           [0416] call       41  2   2  
301E  8E4A5713           [0417] gettable   42  38  349  ; "mCount"
3022  CE8A4F13           [0418] gettable   43  38  318  ; "mGoal"
3026  9CCA0A15           [0419] div        42  42  43 
302A  848A5715           [0420] mul        42  42  350  ; 0
302E  838A0AAF           [0421] add        42  350 42   ; 0
3032  CE4A5713           [0422] gettable   43  38  349  ; "mCount"
3036  0E8B4F13           [0423] gettable   44  38  318  ; "mGoal"
303A  DC0A8B15           [0424] div        43  43  44 
303E  C48AD715           [0425] mul        43  43  350  ; 0
3042  CDCA0AAF           [0426] sub        43  350 43   ; 0
3046  130B8000           [0427] getupval   44  1      
304A  0ECB5716           [0428] gettable   44  44  351  ; -1866776246
304E  520B0015           [0429] move       45  42     
3052  228B0001           [0430] call       44  2   2  
3056  530B8000           [0431] getupval   45  1      
305A  4ECBD716           [0432] gettable   45  45  351  ; -1866776246
305E  920B8015           [0433] move       46  43     
3062  628B0001           [0434] call       45  2   2  
3066  994B0000           [0435] loadk      46  1        ; 0
306A  DD0B0100           [0436] getglobal  47  4        ; gGameData
306E  E40BD817           [0437] self       47  47  352  ; -1901780082
3072  E28B0001           [0438] call       47  2   2  
3076  194C0C00           [0439] loadk      48  49       ; 0
307A  4A0C8017           [0440] len        49  47     
307E  994C0C00           [0441] loadk      50  49       ; 0
3082  104C0280           [0442] forprep    48  10       ; to [453]
3086  0ECD8C17           [0443] gettable   52  47  51 
308A  0E4D581A           [0444] gettable   52  52  353  ; "mId"
308E  0E4D581A           [0445] gettable   52  52  353  ; "mId"
3092  4E4D5813           [0446] gettable   53  38  353  ; "mId"
3096  4E4DD81A           [0447] gettable   53  53  353  ; "mId"
fail op	35
309A  23400D1A           [0448] close      0  
309E  1A800080           [0449] jmp        3            ; to [453]
30A2  0ECD8C17           [0450] gettable   52  47  51 
30A6  8E8B581A           [0451] gettable   46  52  354  ; "mDelta"
30AA  1A000080           [0452] jmp        1            ; to [454]
30AE  140CFD7F           [0453] forloop    48  -11      ; to [443] if loop
30B2  194D0300           [0454] loadk      52  13       ; ""
fail op	21
30B6  15808B80           [0455] concat     0   257 46 
30BA  1A400280           [0456] jmp        10           ; to [467]
30BE  59CD1800           [0457] loadk      53  99       ; " ("
30C2  9D8D1600           [0458] getglobal  54  90       ; -421772368
30C6  DD0D0200           [0459] getglobal  55  8        ; -1615931716
30CA  0E0E5913           [0460] gettable   56  38  356  ; "mAttackerName"
30CE  E28D0001           [0461] call       55  2   2  
30D2  170E0000           [0462] loadbool   56  0   0    ; false
30D6  A28D8001           [0463] call       54  3   2  
30DA  D94D1900           [0464] loadk      55  101      ; ")"
30DE  02CD8D1A           [0465] concat     52  53  55 
30E2  1A800280           [0466] jmp        11           ; to [478]
fail op	21
30E6  15404017           [0467] concat     0   46  257
30EA  1A000280           [0468] jmp        9            ; to [478]
30EE  59CD1800           [0469] loadk      53  99       ; " ("
30F2  9D8D1600           [0470] getglobal  54  90       ; -421772368
30F6  DD0D0200           [0471] getglobal  55  8        ; -1615931716
30FA  0E8E5913           [0472] gettable   56  38  358  ; "mDefenderName"
30FE  E28D0001           [0473] call       55  2   2  
3102  170E0000           [0474] loadbool   56  0   0    ; false
3106  A28D8001           [0475] call       54  3   2  
310A  D94D1900           [0476] loadk      55  101      ; ")"
310E  02CD8D1A           [0477] concat     52  53  55 
3112  59CD1900           [0478] loadk      53  103      ; 0
3116  9D4D1000           [0479] getglobal  54  65       ; 1668611480
311A  DD0D1100           [0480] getglobal  55  68       ; math
311E  CE4DD11B           [0481] gettable   55  55  325  ; -113279800
3122  1C4E0D17           [0482] div        56  46  53 
3126  E28D0001           [0483] call       55  2   2  
312A  194E0000           [0484] loadk      56  1        ; 0
312E  594E0C00           [0485] loadk      57  49       ; 0
3132  A28D0002           [0486] call       54  4   2  
3136  D90D1A00           [0487] loadk      55  104      ; "<p><font size=\"24\"><b>"
313A  1D8E1600           [0488] getglobal  56  90       ; -421772368
313E  594E1A00           [0489] loadk      57  105      ; "/Lotus/Language/Menu/DilemmaActiveLocation"
3142  970E0000           [0490] loadbool   58  0   0    ; false
3146  228E8001           [0491] call       56  3   2  
314A  598E1A00           [0492] loadk      57  106      ; ": "
314E  9D8E1600           [0493] getglobal  58  90       ; -421772368
3152  DD0E0200           [0494] getglobal  59  8        ; -1615931716
3156  0E0F4413           [0495] gettable   60  38  272  ; "mLocTag"
315A  E28E0001           [0496] call       59  2   2  
315E  170F0000           [0497] loadbool   60  0   0    ; false
3162  A28E8001           [0498] call       58  3   2  
3166  D9CE1A00           [0499] loadk      59  107      ; " "
316A  0E4F570E           [0500] gettable   60  28  349  ; "mCount"
316E  4E0F5B0E           [0501] gettable   61  28  364  ; "mCountAlt"
3172  034F0F1E           [0502] add        60  60  61 
3176  034F4C1E           [0503] add        60  60  305  ; 0
317A  594F1B00           [0504] loadk      61  109      ; "</b><br></font>"
317E  C24D8F1B           [0505] concat     55  55  61 
3182  120E801B           [0506] move       56  55     
3186  598E1B00           [0507] loadk      57  110      ; "<font size=\"24\">"
318A  9D8E1600           [0508] getglobal  58  90       ; -421772368
318E  D9CE1B00           [0509] loadk      59  111      ; "/Lotus/Language/Menu/DilemmaActiveProgress"
3192  0B0F0100           [0510] newtable   60  0   4    ; array=0, hash=4
3196  5D8F1600           [0511] getglobal  61  90       ; -421772368
319A  9D0F0200           [0512] getglobal  62  8        ; -1615931716
319E  CE0F5913           [0513] gettable   63  38  356  ; "mAttackerName"
31A2  A28F0001           [0514] call       62  2   2  
31A6  D70F0000           [0515] loadbool   63  0   0    ; false
31AA  628F8001           [0516] call       61  3   2  
31AE  0C4F0FB8           [0517] settable   60  368 61   ; "OPTION_ONE"
31B2  5D8F1600           [0518] getglobal  61  90       ; -421772368
31B6  9D0F0200           [0519] getglobal  62  8        ; -1615931716
31BA  CE8F5913           [0520] gettable   63  38  358  ; "mDefenderName"
31BE  A28F0001           [0521] call       62  2   2  
31C2  D70F0000           [0522] loadbool   63  0   0    ; false
31C6  628F8001           [0523] call       61  3   2  
31CA  0C4F8FB8           [0524] settable   60  369 61   ; "OPTION_TWO"
31CE  0C0F0BB9           [0525] settable   60  370 44   ; "VALUE_ONE"
31D2  0C4F8BB9           [0526] settable   60  371 45   ; "VALUE_TWO"
31D6  A28E8001           [0527] call       58  3   2  
31DA  D94E0400           [0528] loadk      59  17       ; "<br>"
31DE  C2CD0E1C           [0529] concat     55  56  59 
31E2  120E801B           [0530] move       56  55     
31E6  5D0E1100           [0531] getglobal  57  68       ; math
31EA  4E4ED11C           [0532] gettable   57  57  325  ; -113279800
31EE  920E0017           [0533] move       58  46     
31F2  628E0001           [0534] call       57  2   2  
31F6  990E1D00           [0535] loadk      58  116      ; " / "
31FA  D20E801A           [0536] move       59  53     
31FE  120F001A           [0537] move       60  52     
3202  C20D0F1C           [0538] concat     55  56  60 
fail op	33
3206  21008ABA           [0539] tforloop   0       40   ; to [541] if exit
320A  1A400580           [0540] jmp        22           ; to [563]
fail op	33
320E  21805D14           [0541] tforloop   0       374  ; to [543] if exit
3212  1AC00480           [0542] jmp        20           ; to [563]
fail op	21
3216  15404014           [0543] concat     0   40  257
321A  1A000180           [0544] jmp        5            ; to [550]
321E  130E8000           [0545] getupval   56  1      
3222  0E0E571C           [0546] gettable   56  56  348  ; -443997422
3226  594E0000           [0547] loadk      57  1        ; 0
322A  228E0001           [0548] call       56  2   2  
322E  520A001C           [0549] move       41  56     
3232  120E801B           [0550] move       56  55     
3236  594E0400           [0551] loadk      57  17       ; "<br>"
323A  9DCE1D00           [0552] getglobal  58  119      ; string
323E  8E0E5E1D           [0553] gettable   58  58  376  ; 1671193642
3242  DD8E1600           [0554] getglobal  59  90       ; -421772368
3246  194F1E00           [0555] loadk      60  121      ; "/Lotus/Language/Menu/Notification_Expiry_Heading"
324A  460F801E           [0556] loadnil    61  61     
324E  E20E8001           [0557] call       59  3   0  
3252  A28E0000           [0558] call       58  0   2  
3256  D98E1E00           [0559] loadk      59  122      ; ": <b>"
325A  120F8014           [0560] move       60  41     
325E  59CF0200           [0561] loadk      61  11       ; "</b>"
3262  C24D0F1C           [0562] concat     55  56  61 
3266  120E801B           [0563] move       56  55     
326A  59CE1E00           [0564] loadk      57  123      ; "</font>"
326E  C24D0E1C           [0565] concat     55  56  57 
3272  24CE530E           [0566] self       56  28  335  ; -1540973124
3276  228E0001           [0567] call       56  2   2  
327A  0C4E5FBE           [0568] settable   56  380 381  ; "mOngoing" 0
327E  4E8E5F1C           [0569] gettable   57  56  382  ; "mActivation"
3282  8E8E5F0E           [0570] gettable   58  28  382  ; "mActivation"
3286  8ECE5F1D           [0571] gettable   58  58  383  ; "sec"
328A  8D4E4C1D           [0572] sub        58  58  305  ; 0
328E  4C8E8EBF           [0573] settable   57  383 58   ; "sec"
3292  4BCE0100           [0574] newtable   57  0   7    ; array=0, hash=7
3296  4CCE8D8E           [0575] settable   57  285 55   ; "Label"
329A  4C0EC991           [0576] settable   57  291 292  ; "Localized" 1
329E  4C4E088F           [0577] settable   57  286 33   ; "Icon"
32A2  4C8EC890           [0578] settable   57  289 290  ; "TextHeight" 0
32A6  4C0ED3A5           [0579] settable   57  331 332  ; "MinWidth" 0
32AA  4C8E8DA6           [0580] settable   57  333 54   ; "Ratio"
32AE  4C0E0EA7           [0581] settable   57  334 56   ; "GoalInfo"
32B2  9D0E0600           [0582] getglobal  58  24       ; table
32B6  8E4E461D           [0583] gettable   58  58  281  ; -431682403
32BA  D20E800B           [0584] move       59  23     
32BE  120F801C           [0585] move       60  57     
32C2  A24E8001           [0586] call       58  3   1  
32C6  16860000           [0587] tforloop   24      2    ; to [589] if exit
32CA  1AC0B07F           [0588] jmp        -316         ; to [273]
32CE  9D0E0600           [0589] getglobal  58  24       ; table
32D2  8E0E601D           [0590] gettable   58  58  384  ; -1513783280
32D6  D20E800B           [0591] move       59  23     
32DA  254F0000           [0592] closure    60  1      
32DE  A24E8001           [0593] call       58  3   1  
32E2  9D0E0E00           [0594] getglobal  58  56       ; 248503575
32E6  D20E800B           [0595] move       59  23     
32EA  A20E0101           [0596] call       58  2   4  
32EE  1A000180           [0597] jmp        5            ; to [603]
32F2  D30F0000           [0598] getupval   63  0      
32F6  E40FC71F           [0599] self       63  63  284  ; -1484936978
32FA  5210001F           [0600] move       65  62     
32FE  97108000           [0601] loadbool   66  1   0    ; true
3302  E24F0002           [0602] call       63  4   1  
3306  968E0000           [0603] tforloop   58      2    ; to [605] if exit
330A  1A00FE7F           [0604] jmp        -7           ; to [598]
330E  D30F8000           [0605] getupval   63  1      
3312  CE4FE01F           [0606] gettable   63  63  385  ; 1536078401
3316  E28F8000           [0607] call       63  1   2  
331A  D80F0000           [0608] test       63      0    ; to [610] if true
331E  1A402380           [0609] jmp        142          ; to [752]
3322  DD0F0100           [0610] getglobal  63  4        ; gGameData
3326  E48FE01F           [0611] self       63  63  386  ; 755731078
332A  E28F0001           [0612] call       63  2   2  
332E  0ED0E01F           [0613] gettable   64  63  387  ; "mSeasonInfo"
3332  0E106120           [0614] gettable   64  64  388  ; "mActiveChallenges"
3336  4B100100           [0615] newtable   65  0   4    ; array=0, hash=4
333A  4C90C890           [0616] settable   65  289 290  ; "TextHeight" 0
333E  4C10D3A5           [0617] settable   65  331 332  ; "MinWidth" 0
3342  9D502100           [0618] getglobal  66  133      ; nightwaveIcon
3346  4C90108F           [0619] settable   65  286 66   ; "Icon"
334A  4C10C991           [0620] settable   65  291 292  ; "Localized" 1
334E  99902100           [0621] loadk      66  134      ; "<p><font face=\"Noto Sans\"><b>"
3352  DD900100           [0622] getglobal  67  6        ; mMovie
3356  E4D0C121           [0623] self       67  67  263  ; 98241492
335A  59D12100           [0624] loadk      69  135      ; "/Lotus/Language/SystemMessages/RadioLegionName"
335E  97110000           [0625] loadbool   70  0   0    ; false
3362  E2900002           [0626] call       67  4   2  
3366  19112200           [0627] loadk      68  136      ; "</b>: "
336A  82101121           [0628] concat     66  66  68 
336E  4C90908E           [0629] settable   65  285 66   ; "Label"
3372  8B100000           [0630] newtable   66  0   0    ; array=0, hash=0
3376  D9500000           [0631] loadk      67  1        ; 0
337A  19510000           [0632] loadk      68  1        ; 0
337E  5D110E00           [0633] getglobal  69  56       ; 248503575
3382  92110020           [0634] move       70  64     
3386  62110101           [0635] call       69  2   4  
338A  1A401380           [0636] jmp        78           ; to [715]
338E  8E52E224           [0637] gettable   74  73  393  ; "mChallenge"
3392  DD520100           [0638] getglobal  75  5        ; 1074689893
3396  12130025           [0639] move       76  74     
339A  E2920001           [0640] call       75  2   2  
339E  D8520000           [0641] test       75      1    ; to [643] if false
33A2  1AC01180           [0642] jmp        72           ; to [715]
33A6  DDD20A00           [0643] getglobal  75  43       ; Engine
33AA  CE12CB25           [0644] gettable   75  75  300  ; -794986224
33AE  0E93DF24           [0645] gettable   76  73  382  ; "mActivation"
33B2  E2920001           [0646] call       75  2   2  
fail op	21
33B6  1540C025           [0647] concat     0   75  257
33BA  1A401080           [0648] jmp        66           ; to [715]
33BE  DDD20A00           [0649] getglobal  75  43       ; Engine
33C2  CE12CB25           [0650] gettable   75  75  300  ; -794986224
33C6  0ED3D624           [0651] gettable   76  73  347  ; "mExpiry"
33CA  E2920001           [0652] call       75  2   2  
fail op	21
33CE  15C09280           [0653] concat     0   257 75 
33D2  1AC00E80           [0654] jmp        60           ; to [715]
33D6  C6128025           [0655] loadnil    75  75     
33DA  0E93E224           [0656] gettable   76  73  394  ; "mDaily"
33DE  18530000           [0657] test       76      1    ; to [659] if false
33E2  1A400280           [0658] jmp        10           ; to [669]
33E6  C350CC21           [0659] add        67  67  305  ; 0
33EA  13130001           [0660] getupval   76  2      
33EE  0ED34E26           [0661] gettable   76  76  315  ; -132701534
33F2  64D36225           [0662] self       77  74  395  ; -836479005
33F6  62930001           [0663] call       77  2   2  
33FA  9D132300           [0664] getglobal  78  140      ; nightwaveWeeklyHardIcon
33FE  DD532300           [0665] getglobal  79  141      ; nightwaveWeeklyIcon
3402  22930002           [0666] call       76  4   2  
3406  D2120026           [0667] move       75  76     
340A  1A000080           [0668] jmp        1            ; to [670]
340E  DD922300           [0669] getglobal  75  142      ; nightwaveDailyIcon
3412  1DD32300           [0670] getglobal  76  143      ; gChallengeMgr
3416  24136426           [0671] self       76  76  400  ; 2006013107
341A  A4536425           [0672] self       78  74  401  ; 880936306
341E  A2130001           [0673] call       78  2   0  
3422  22930000           [0674] call       76  0   2  
3426  64936425           [0675] self       77  74  402  ; 1127229066
342A  62930001           [0676] call       77  2   2  
fail op	21
342E  15401326           [0677] concat     0   76  77 
3432  1AC00780           [0678] jmp        32           ; to [711]
3436  9D930100           [0679] getglobal  78  6        ; mMovie
343A  A4D34127           [0680] self       78  78  263  ; 98241492
343E  19D42400           [0681] loadk      80  147      ; "/Lotus/Language/Challenges/Challenge_"
3442  64546425           [0682] self       81  74  401  ; 880936306
3446  62940001           [0683] call       81  2   2  
344A  99142500           [0684] loadk      82  148      ; "_Description"
344E  02941428           [0685] concat     80  80  82 
3452  57148000           [0686] loadbool   81  1   0    ; true
3456  8B540000           [0687] newtable   82  0   1    ; array=0, hash=1
345A  D2140026           [0688] move       83  76     
345E  19952500           [0689] loadk      84  150      ; "/"
3462  52158026           [0690] move       85  77     
3466  C2549529           [0691] concat     83  83  85 
346A  8CD494CA           [0692] settable   82  405 83   ; "COUNT"
346E  A2938002           [0693] call       78  5   2  
3472  DD130600           [0694] getglobal  79  24       ; table
3476  CE53C627           [0695] gettable   79  79  281  ; -431682403
347A  12140021           [0696] move       80  66     
347E  4B940100           [0697] newtable   81  0   6    ; array=0, hash=6
3482  4C94C890           [0698] settable   81  289 290  ; "TextHeight" 0
3486  4C14D3A5           [0699] settable   81  331 332  ; "MinWidth" 0
348A  4CD4128F           [0700] settable   81  286 75   ; "Icon"
348E  99D42500           [0701] loadk      82  151      ; "<p><font face=\"Noto Sans\">"
3492  D2140027           [0702] move       83  78     
3496  19950400           [0703] loadk      84  18       ; "</font></p>"
349A  82141529           [0704] concat     82  82  84 
349E  4C94948E           [0705] settable   81  285 82   ; "Label"
34A2  4C14C991           [0706] settable   81  291 292  ; "Localized" 1
34A6  9C541326           [0707] div        82  76  77 
34AA  4C9414CC           [0708] settable   81  408 82   ; "Progress"
34AE  E2538001           [0709] call       79  3   1  
34B2  1AC00080           [0710] jmp        4            ; to [715]
34B6  CE93E224           [0711] gettable   79  73  394  ; "mDaily"
34BA  D8530000           [0712] test       79      1    ; to [714] if false
34BE  1A000080           [0713] jmp        1            ; to [715]
34C2  03514C22           [0714] add        68  68  305  ; 0
34C6  56910000           [0715] tforloop   69      2    ; to [717] if exit
34CA  1AC0EB7F           [0716] jmp        -80          ; to [637]
34CE  CE53C720           [0717] gettable   79  65  285  ; "Label"
34D2  1D941600           [0718] getglobal  80  90       ; -421772368
34D6  59542600           [0719] loadk      81  153      ; "/Lotus/Language/SystemMessages/WeeklyActProgress"
34DA  8B940000           [0720] newtable   82  0   2    ; array=0, hash=2
34DE  8C1491CA           [0721] settable   82  405 68   ; "COUNT"
34E2  8CD410CD           [0722] settable   82  410 67   ; "TOTAL"
34E6  22948001           [0723] call       80  3   2  
34EA  59940400           [0724] loadk      81  18       ; "</font></p>"
34EE  C2539427           [0725] concat     79  79  81 
34F2  4CD0938E           [0726] settable   65  285 79   ; "Label"
34F6  D3130000           [0727] getupval   79  0      
34FA  E413C727           [0728] self       79  79  284  ; -1484936978
34FE  52148020           [0729] move       81  65     
3502  97148000           [0730] loadbool   82  1   0    ; true
3506  E2530002           [0731] call       79  4   1  
350A  DD130600           [0732] getglobal  79  24       ; table
350E  CE13E027           [0733] gettable   79  79  384  ; -1513783280
3512  12140021           [0734] move       80  66     
3516  65940000           [0735] closure    81  2      
351A  E2538001           [0736] call       79  3   1  
351E  DD131100           [0737] getglobal  79  68       ; math
3522  CED3E627           [0738] gettable   79  79  411  ; 1710846250
3526  1D142700           [0739] getglobal  80  156      ; numVisibleNightwaveChallenges
352A  4A140021           [0740] len        81  66     
352E  E2938001           [0741] call       79  3   2  
3532  19540C00           [0742] loadk      80  49       ; 0
3536  52148027           [0743] move       81  79     
353A  99540C00           [0744] loadk      82  49       ; 0
353E  10140180           [0745] forprep    80  5        ; to [751]
3542  13150000           [0746] getupval   84  0      
3546  2415472A           [0747] self       84  84  284  ; -1484936978
354A  8ED51421           [0748] gettable   86  66  83 
354E  D7158000           [0749] loadbool   87  1   0    ; true
3552  22550002           [0750] call       84  4   1  
3556  1454FE7F           [0751] forloop    80  -6       ; to [746] if loop
355A  1D150E00           [0752] getglobal  84  56       ; 248503575
355E  5D550500           [0753] getglobal  85  21       ; _T
3562  4E55E72A           [0754] gettable   85  85  413  ; "CachedAlerts"
3566  22150101           [0755] call       84  2   4  
356A  1A000680           [0756] jmp        25           ; to [782]
356E  4E96672C           [0757] gettable   89  88  414  ; "mVisible"
3572  58160000           [0758] test       89      0    ; to [760] if true
3576  1A400580           [0759] jmp        22           ; to [782]
357A  4ED6672C           [0760] gettable   89  88  415  ; "mAlertInfo"
357E  93160003           [0761] getupval   90  6      
3582  D216802C           [0762] move       91  89     
3586  A2960001           [0763] call       90  2   2  
358A  D3160001           [0764] getupval   91  2      
358E  CED6CE2D           [0765] gettable   91  91  315  ; -132701534
3592  1D570100           [0766] getglobal  92  5        ; 1074689893
3596  4E17CF2C           [0767] gettable   93  89  316  ; "mIcon"
359A  22970001           [0768] call       92  2   2  
359E  5DD70700           [0769] getglobal  93  31       ; _G
35A2  4E17E82E           [0770] gettable   93  93  416  ; "UITexture_Alert"
35A6  8E17CF2C           [0771] gettable   94  89  316  ; "mIcon"
35AA  E2960002           [0772] call       91  4   2  
35AE  13170000           [0773] getupval   92  0      
35B2  2417472E           [0774] self       92  92  284  ; -1484936978
35B6  8B170100           [0775] newtable   94  0   4    ; array=0, hash=4
35BA  8C97968E           [0776] settable   94  285 90   ; "Label"
35BE  8CD7168F           [0777] settable   94  286 91   ; "Icon"
35C2  8C97C890           [0778] settable   94  289 290  ; "TextHeight" 0
35C6  8C17C991           [0779] settable   94  291 292  ; "Localized" 1
35CA  D7178000           [0780] loadbool   95  1   0    ; true
35CE  22570002           [0781] call       92  4   1  
35D2  16950000           [0782] tforloop   84      2    ; to [784] if exit
35D6  1A00F97F           [0783] jmp        -27          ; to [757]
35DA  1D570500           [0784] getglobal  92  21       ; _T
35DE  0E57682E           [0785] gettable   92  92  417  ; "CachedVoidTraders"
35E2  18170000           [0786] test       92      0    ; to [788] if true
35E6  1AC01180           [0787] jmp        72           ; to [860]
35EA  13178000           [0788] getupval   92  1      
35EE  0E17562E           [0789] gettable   92  92  344  ; -1153782542
35F2  22978000           [0790] call       92  1   2  
35F6  5D570100           [0791] getglobal  93  5        ; 1074689893
35FA  9217002E           [0792] move       94  92     
35FE  62970001           [0793] call       93  2   2  
3602  58570000           [0794] test       93      1    ; to [796] if false
3606  1AC00F80           [0795] jmp        64           ; to [860]
360A  5D170E00           [0796] getglobal  93  56       ; 248503575
360E  9D570500           [0797] getglobal  94  21       ; _T
3612  8E57682F           [0798] gettable   94  94  417  ; "CachedVoidTraders"
3616  62170101           [0799] call       93  2   4  
361A  1A000E80           [0800] jmp        57           ; to [858]
361E  9DD80A00           [0801] getglobal  98  43       ; Engine
3622  8E184B31           [0802] gettable   98  98  300  ; -794986224
3626  CED8D630           [0803] gettable   99  97  347  ; "mExpiry"
362A  A2980001           [0804] call       98  2   2  
362E  DDD80A00           [0805] getglobal  99  43       ; Engine
3632  CE18CB31           [0806] gettable   99  99  300  ; -794986224
3636  0E99DF30           [0807] gettable   100 97  382  ; "mActivation"
363A  E2980001           [0808] call       99  2   2  
fail op	21
363E  1540C031           [0809] concat     0   99  257
3642  1A800B80           [0810] jmp        47           ; to [858]
fail op	21
3646  15809880           [0811] concat     0   257 98 
364A  1A000B80           [0812] jmp        45           ; to [858]
364E  E458562E           [0813] self       99  92  345  ; -551469855
3652  4ED9D130           [0814] gettable   101 97  327  ; "mNode"
3656  E2988001           [0815] call       99  3   2  
365A  1D991600           [0816] getglobal  100 90       ; -421772368
365E  5D190200           [0817] getglobal  101 8        ; -1615931716
3662  8E99E831           [0818] gettable   102 99  418  ; "locTag"
3666  62990001           [0819] call       101 2   2  
366A  97190000           [0820] loadbool   102 0   0    ; false
366E  22998001           [0821] call       100 3   2  
3672  5D991600           [0822] getglobal  101 90       ; -421772368
3676  A4D9682E           [0823] self       102 92  419  ; 1527673913
367A  A2990001           [0824] call       102 2   2  
367E  CE19E931           [0825] gettable   103 99  420  ; "region"
3682  C359CC33           [0826] add        103 103 305  ; 0
3686  8ED91933           [0827] gettable   102 102 103
368A  8E596933           [0828] gettable   102 102 421  ; "name"
368E  C6198033           [0829] loadnil    103 103    
3692  62998001           [0830] call       101 3   2  
3696  93198000           [0831] getupval   102 1      
369A  8E195733           [0832] gettable   102 102 348  ; -443997422
369E  D2190031           [0833] move       103 98     
36A2  A2990001           [0834] call       102 2   2  
36A6  D9992100           [0835] loadk      103 134      ; "<p><font face=\"Noto Sans\"><b>"
36AA  1D9A1600           [0836] getglobal  104 90       ; -421772368
36AE  599A2900           [0837] loadk      105 166      ; "/Lotus/Language/Menu/Vendor_Void_GenericTitle"
36B2  861A0035           [0838] loadnil    106 106    
36B6  229A8001           [0839] call       104 3   2  
36BA  59DA2900           [0840] loadk      105 167      ; "</b></font><font face=\"Noto Sans\">: "
36BE  921A0032           [0841] move       106 100    
36C2  D9DA1800           [0842] loadk      107 99       ; " ("
36C6  121B8032           [0843] move       108 101    
36CA  591B2A00           [0844] loadk      109 168      ; ") - "
36CE  921B0033           [0845] move       110 102    
36D2  D99B0400           [0846] loadk      111 18       ; "</font></p>"
36D6  C2D99B33           [0847] concat     103 103 111
36DA  131A0000           [0848] getupval   104 0      
36DE  241A4734           [0849] self       104 104 284  ; -1484936978
36E2  8B1A0100           [0850] newtable   106 0   4    ; array=0, hash=4
36E6  8CDA998E           [0851] settable   106 285 103  ; "Label"
36EA  DD5A2A00           [0852] getglobal  107 169      ; voidTraderIcon
36EE  8CDA1A8F           [0853] settable   106 286 107  ; "Icon"
36F2  8C9AC890           [0854] settable   106 289 290  ; "TextHeight" 0
36F6  8C1AC991           [0855] settable   106 291 292  ; "Localized" 1
36FA  D71A8000           [0856] loadbool   107 1   0    ; true
36FE  225A0002           [0857] call       104 4   1  
3702  56970000           [0858] tforloop   93      2    ; to [860] if exit
3706  1A00F17F           [0859] jmp        -59          ; to [801]
370A  0B9A0200           [0860] newtable   104 0   10   ; array=0, hash=10
370E  0C9AC890           [0861] settable   104 289 290  ; "TextHeight" 0
3712  0C1AD3A5           [0862] settable   104 331 332  ; "MinWidth" 0
3716  5D9A2A00           [0863] getglobal  105 170      ; worldCycleIcon
371A  0C5A1A8F           [0864] settable   104 286 105  ; "Icon"
371E  0C1AC991           [0865] settable   104 291 292  ; "Localized" 1
3722  599A2100           [0866] loadk      105 134      ; "<p><font face=\"Noto Sans\"><b>"
3726  9D9A0100           [0867] getglobal  106 6        ; mMovie
372A  A4DA4135           [0868] self       106 106 263  ; 98241492
372E  191B2B00           [0869] loadk      108 172      ; "/Lotus/Language/SystemMessages/WorldCycles"
3732  571B0000           [0870] loadbool   109 0   0    ; false
3736  A29A0002           [0871] call       106 4   2  
373A  D9DA0200           [0872] loadk      107 11       ; "</b>"
373E  42DA9A34           [0873] concat     105 105 107
3742  0C5A9AD5           [0874] settable   104 427 105  ; "Header"
3746  4B1A0001           [0875] newtable   105 2   0    ; array=2, hash=0
374A  931A8000           [0876] getupval   106 1      
374E  8E9A6B35           [0877] gettable   106 106 430  ; "PLAINS_NODE_TAG"
3752  D31A8000           [0878] getupval   107 1      
3756  CEDAEB35           [0879] gettable   107 107 431  ; "ORB_VALLIS_NODE_TAG"
375A  5B5A0001           [0880] setlist    105 2   1    ; index 1 to 2
375E  0C5A9AD6           [0881] settable   104 429 105  ; "Nodes"
3762  4B1A0001           [0882] newtable   105 2   0    ; array=2, hash=0
3766  995A2C00           [0883] loadk      106 177      ; "/Lotus/Language/SystemMessages/PlainsOfEidolonTime"
376A  D99A2C00           [0884] loadk      107 178      ; "/Lotus/Language/SystemMessages/OrbVallisTime"
376E  5B5A0001           [0885] setlist    105 2   1    ; index 1 to 2
3772  0C5A1AD8           [0886] settable   104 432 105  ; "TimeTags"
3776  4B1A0000           [0887] newtable   105 0   0    ; array=0, hash=0
377A  0C5A9AD9           [0888] settable   104 435 105  ; "TimeToNextLabel"
377E  4B1A0000           [0889] newtable   105 0   0    ; array=0, hash=0
3782  0C5A1ADA           [0890] settable   104 436 105  ; "NextTimeLabel"
3786  0C5AC0A9           [0891] settable   104 339 257  ; "LastTimeUpdate" 0
378A  4EDA6A34           [0892] gettable   105 104 427  ; "Header"
378E  0C5A9A8E           [0893] settable   104 285 105  ; "Label"
3792  595A0C00           [0894] loadk      105 49       ; 0
3796  8E5A6B34           [0895] gettable   106 104 429  ; "Nodes"
379A  8A1A0035           [0896] len        106 106    
379E  D95A0C00           [0897] loadk      107 49       ; 0
37A2  50DA0B80           [0898] forprep    105 48       ; to [947]
37A6  4E5B4734           [0899] gettable   109 104 285  ; "Label"
37AA  995B0400           [0900] loadk      110 17       ; "<br>"
37AE  429B9B36           [0901] concat     109 109 110
37B2  0C5A9B8E           [0902] settable   104 285 109  ; "Label"
37B6  531B8000           [0903] getupval   109 1      
37BA  4E5BED36           [0904] gettable   109 109 437  ; 89517989
37BE  8E5B6B34           [0905] gettable   110 104 429  ; "Nodes"
37C2  8E1B1B37           [0906] gettable   110 110 108
37C6  629B0001           [0907] call       109 2   2  
37CA  861B0037           [0908] loadnil    110 110    
37CE  CE1B6D34           [0909] gettable   111 104 436  ; "NextTimeLabel"
37D2  0EDC6C34           [0910] gettable   112 104 435  ; "TimeToNextLabel"
37D6  531C8000           [0911] getupval   113 1      
37DA  4E9CED38           [0912] gettable   113 113 438  ; 1149226031
37DE  921C8036           [0913] move       114 109    
37E2  CE5C6B34           [0914] gettable   115 104 429  ; "Nodes"
37E6  CE1C9B39           [0915] gettable   115 115 108
37EA  621C8101           [0916] call       113 3   4  
37EE  0CDC1C36           [0917] settable   112 108 115
37F2  CC9B1C36           [0918] settable   111 108 114
37F6  921B8038           [0919] move       110 113    
37FA  CE5B4734           [0920] gettable   111 104 285  ; "Label"
37FE  1D9C0100           [0921] getglobal  112 6        ; mMovie
3802  24DC4138           [0922] self       112 112 263  ; 98241492
3806  8E1C6C34           [0923] gettable   114 104 432  ; "TimeTags"
380A  8E1C1B39           [0924] gettable   114 114 108
380E  D71C0000           [0925] loadbool   115 0   0    ; false
3812  0B9D0000           [0926] newtable   116 0   2    ; array=0, hash=2
3816  5D1D2E00           [0927] getglobal  117 184      ; -764638816
381A  9D9D0100           [0928] getglobal  118 6        ; mMovie
381E  A4DD413B           [0929] self       118 118 263  ; 98241492
3822  0E1E6D34           [0930] gettable   120 104 436  ; "NextTimeLabel"
3826  0E1E1B3C           [0931] gettable   120 120 108
382A  571E0000           [0932] loadbool   121 0   0    ; false
382E  A21D0002           [0933] call       118 4   0  
3832  629D0000           [0934] call       117 0   2  
3836  0C5D9DDB           [0935] settable   116 439 117  ; "LABEL"
383A  531D8000           [0936] getupval   117 1      
383E  4E9DEE3A           [0937] gettable   117 117 442  ; -966981155
3842  9D9D0100           [0938] getglobal  118 6        ; mMovie
3846  CEDD6C34           [0939] gettable   119 104 435  ; "TimeToNextLabel"
384A  CE1D9B3B           [0940] gettable   119 119 108
384E  19DE2E00           [0941] loadk      120 187      ; "CompactOne"
3852  629D0002           [0942] call       117 4   2  
3856  0C5D9DDC           [0943] settable   116 441 117  ; "TIME"
385A  229C8002           [0944] call       112 5   2  
385E  C21B9C37           [0945] concat     111 111 112
3862  0CDA9B8E           [0946] settable   104 285 111  ; "Label"
3866  549AF37F           [0947] forloop    105 -49      ; to [899] if loop
386A  E5DB0000           [0948] closure    111 3      
386E  13008000           [0949] getupval   0   1      
3872  12000034           [0950] move       0   104    
3876  13000000           [0951] getupval   0   0      
387A  0CDA1BAA           [0952] settable   104 340 111  ; "Update"
387E  CE5B4734           [0953] gettable   111 104 285  ; "Label"
3882  199C0400           [0954] loadk      112 18       ; "</font></p>"
3886  C21B9C37           [0955] concat     111 111 112
388A  0CDA9B8E           [0956] settable   104 285 111  ; "Label"
388E  D31B0000           [0957] getupval   111 0      
3892  E41BC737           [0958] self       111 111 284  ; -1484936978
3896  521C0034           [0959] move       113 104    
389A  971C8000           [0960] loadbool   114 1   0    ; true
389E  E25B0002           [0961] call       111 4   1  
38A2  91020000           [0962] close      10 
38A6  93020000           [0963] getupval   10  0      
38AA  A4024005           [0964] self       10  10  256  ; -988128099
38AE  A2820001           [0965] call       10  2   2  
fail op	35
38B2  23404005           [0966] close      0  
38B6  1A000280           [0967] jmp        9            ; to [977]
38BA  93020000           [0968] getupval   10  0      
38BE  A4024705           [0969] self       10  10  284  ; -1484936978
38C2  0BC30000           [0970] newtable   12  0   3    ; array=0, hash=3
38C6  0C03EF8E           [0971] settable   12  285 444  ; "Label" "/Lotus/Language/Menu/SolarMap"
38CA  5D432F00           [0972] getglobal  13  189      ; solarMapIcon
38CE  0C43038F           [0973] settable   12  286 13   ; "Icon"
38D2  0C83C890           [0974] settable   12  289 290  ; "TextHeight" 0
38D6  57038000           [0975] loadbool   13  1   0    ; true
38DA  A2420002           [0976] call       10  4   1  
38DE  93020000           [0977] getupval   10  0      
38E2  A4826F05           [0978] self       10  10  446  ; 1685109492
38E6  A2420001           [0979] call       10  2   1  
38EA  99C22F00           [0980] loadk      10  191      ; 0
38EE  D9023000           [0981] loadk      11  192      ; 0
38F2  13030000           [0982] getupval   12  0      
38F6  24034006           [0983] self       12  12  256  ; -988128099
38FA  22830001           [0984] call       12  2   2  
38FE  46038006           [0985] loadnil    13  13     
3902  99430000           [0986] loadk      14  1        ; 0
3906  CD434C06           [0987] sub        15  12  305  ; 0
390A  19440C00           [0988] loadk      16  49       ; 0
390E  90C30480           [0989] forprep    14  20       ; to [1010]
3912  93040000           [0990] getupval   18  0      
3916  8E447009           [0991] gettable   18  18  449  ; "mElements"
391A  CD440406           [0992] sub        19  12  17 
391E  4EC30409           [0993] gettable   13  18  19 
3922  8E44C806           [0994] gettable   18  13  289  ; "TextHeight"
3926  8D820405           [0995] sub        10  10  18 
392A  93040000           [0996] getupval   18  0      
392E  8E847009           [0997] gettable   18  18  450  ; "mForcedVerticalSeparation"
3932  8D820405           [0998] sub        10  10  18 
3936  9D840100           [0999] getglobal  18  6        ; mMovie
393A  A4C47009           [1000] self       18  18  451  ; 471456102
393E  0E05F106           [1001] gettable   20  13  452  ; "mClipName"
3942  59453100           [1002] loadk      21  197      ; "_y"
3946  92050005           [1003] move       22  10     
394A  A2448002           [1004] call       18  5   1  
394E  8E44C806           [1005] gettable   18  13  289  ; "TextHeight"
3952  C3828405           [1006] add        11  11  18 
3956  93040000           [1007] getupval   18  0      
395A  8E847009           [1008] gettable   18  18  450  ; "mForcedVerticalSeparation"
395E  C3828405           [1009] add        11  11  18 
3962  9483FA7F           [1010] forloop    14  -21      ; to [990] if loop
3966  93048003           [1011] getupval   18  7      
fail op	35
396A  23C04509           [1012] close      0  
396E  1AC00180           [1013] jmp        8            ; to [1022]
3972  9D843100           [1014] getglobal  18  198      ; -174740002
3976  DD840100           [1015] getglobal  19  6        ; mMovie
397A  E4C4F109           [1016] self       19  19  455  ; 1803241227
397E  59053200           [1017] loadk      21  200      ; "Panel"
3982  99453200           [1018] loadk      22  201      ; "_width"
3986  E2040002           [1019] call       19  4   0  
398A  A2840000           [1020] call       18  0   2  
fail op	8
398E  88048003           [1021] setupval   18  7      
3992  93048003           [1022] getupval   18  7      
3996  D3040000           [1023] getupval   19  0      
399A  E404C009           [1024] self       19  19  256  ; -988128099
399E  E2840001           [1025] call       19  2   2  
fail op	35
39A2  2340CC09           [1026] close      0  
39A6  1A000E80           [1027] jmp        57           ; to [1085]
39AA  DD843100           [1028] getglobal  19  198      ; -174740002
39AE  1D850100           [1029] getglobal  20  6        ; mMovie
39B2  24C5710A           [1030] self       20  20  455  ; 1803241227
39B6  93050000           [1031] getupval   22  0      
39BA  8E45700B           [1032] gettable   22  22  449  ; "mElements"
39BE  8E454C0B           [1033] gettable   22  22  305  ; 0
39C2  8E05710B           [1034] gettable   22  22  452  ; "mClipName"
39C6  D9853200           [1035] loadk      23  202      ; ".Label"
39CA  82C5050B           [1036] concat     22  22  23 
39CE  D9C53200           [1037] loadk      23  203      ; "_xscale"
39D2  22050002           [1038] call       20  4   0  
39D6  E2840000           [1039] call       19  0   2  
39DA  DC04F309           [1040] div        19  19  460  ; 0
39DE  1D853100           [1041] getglobal  20  198      ; -174740002
39E2  5D850100           [1042] getglobal  21  6        ; mMovie
39E6  64C5F10A           [1043] self       21  21  455  ; 1803241227
39EA  D3050000           [1044] getupval   23  0      
39EE  CE45F00B           [1045] gettable   23  23  449  ; "mElements"
39F2  CE45CC0B           [1046] gettable   23  23  305  ; 0
39F6  CE05F10B           [1047] gettable   23  23  452  ; "mClipName"
39FA  19863200           [1048] loadk      24  202      ; ".Label"
39FE  C205860B           [1049] concat     23  23  24 
3A02  19463300           [1050] loadk      24  205      ; "textWidth"
3A06  62050002           [1051] call       21  4   0  
3A0A  22850000           [1052] call       20  0   2  
3A0E  84C4040A           [1053] mul        18  20  19 
3A12  13050000           [1054] getupval   20  0      
3A16  0E45700A           [1055] gettable   20  20  449  ; "mElements"
3A1A  0E454C0A           [1056] gettable   20  20  305  ; 0
3A1E  0EC5520A           [1057] gettable   20  20  331  ; "MinWidth"
fail op	35
3A22  63C0450A           [1058] close      1  
3A26  1A400280           [1059] jmp        10           ; to [1070]
3A2A  13050000           [1060] getupval   20  0      
3A2E  0E45700A           [1061] gettable   20  20  449  ; "mElements"
3A32  0E454C0A           [1062] gettable   20  20  305  ; 0
3A36  0EC5520A           [1063] gettable   20  20  331  ; "MinWidth"
fail op	21
3A3A  15000509           [1064] concat     0   18  20 
3A3E  1AC00080           [1065] jmp        4            ; to [1070]
3A42  13050000           [1066] getupval   20  0      
3A46  0E45700A           [1067] gettable   20  20  449  ; "mElements"
3A4A  0E454C0A           [1068] gettable   20  20  305  ; 0
3A4E  8EC4520A           [1069] gettable   18  20  331  ; "MinWidth"
3A52  83847309           [1070] add        18  18  462  ; 0
3A56  1D850100           [1071] getglobal  20  6        ; mMovie
3A5A  24C5700A           [1072] self       20  20  451  ; 471456102
3A5E  93050000           [1073] getupval   22  0      
3A62  8E45700B           [1074] gettable   22  22  449  ; "mElements"
3A66  8E454C0B           [1075] gettable   22  22  305  ; 0
3A6A  8E05710B           [1076] gettable   22  22  452  ; "mClipName"
3A6E  D9C53300           [1077] loadk      23  207      ; "_x"
3A72  13060000           [1078] getupval   24  0      
3A76  0E06740C           [1079] gettable   24  24  464  ; "mInitialX"
3A7A  53068003           [1080] getupval   25  7      
3A7E  4D460609           [1081] sub        25  18  25 
3A82  4446F40C           [1082] mul        25  25  465  ; 0
3A86  0D46060C           [1083] sub        24  24  25 
3A8A  22458002           [1084] call       20  5   1  
3A8E  1D850100           [1085] getglobal  20  6        ; mMovie
3A92  24C5700A           [1086] self       20  20  451  ; 471456102
3A96  99053200           [1087] loadk      22  200      ; "Panel"
3A9A  D9853400           [1088] loadk      23  210      ; "_height"
3A9E  12068005           [1089] move       24  11     
3AA2  22458002           [1090] call       20  5   1  
3AA6  1DC53400           [1091] getglobal  20  211      ; 1390508688
3AAA  5D850100           [1092] getglobal  21  6        ; mMovie
3AAE  99053200           [1093] loadk      22  200      ; "Panel"
3AB2  DD053500           [1094] getglobal  23  212      ; UISys
3AB6  CE45F50B           [1095] gettable   23  23  469  ; "FlashInstance_SMOOTH_STEP"
3ABA  0B060002           [1096] newtable   24  4   0    ; array=4, hash=0
3ABE  59863500           [1097] loadk      25  214      ; "_alpha"
3AC2  99C63500           [1098] loadk      26  215      ; "_z"
3AC6  D9463200           [1099] loadk      27  201      ; "_width"
3ACA  19873400           [1100] loadk      28  210      ; "_height"
3ACE  1B460002           [1101] setlist    24  4   1    ; index 1 to 4
3AD2  4B060002           [1102] newtable   25  4   0    ; array=4, hash=0
3AD6  99063300           [1103] loadk      26  204      ; 0
3ADA  D9460000           [1104] loadk      27  1        ; 0
3ADE  12070009           [1105] move       28  18     
3AE2  52078005           [1106] move       29  11     
3AE6  5B460002           [1107] setlist    25  4   1    ; index 1 to 4
3AEA  99063600           [1108] loadk      26  216      ; 0
3AEE  22458003           [1109] call       20  7   1  
3AF2  1E008000           [1110] return     0   1      
                         * constants:
3AF7  01                 sizek (217)
3AF8  01                 const type 3
3AF9  9D5C1AC5           const [0]: (-988128099)
3AFD  03                 const type 3
3AFE  00000000           const [1]: (0)
3B02  01                 const type 3
3B03  031DF77C           const [2]: (2096569603)
3B07  01                 const type 3
3B08  4B78C852           const [3]: (1388869707)
3B0C  04                 const type 4
3B0D  0A                 string size (10)
3B0E  6747616D65446174+  "gGameDat"
3B16  6100               "a\0"
                         const [4]: "gGameData"
3B18  01                 const type 3
3B19  65770E40           const [5]: (1074689893)
3B1D  04                 const type 4
3B1E  07                 string size (7)
3B1F  6D4D6F76696500     "mMovie\0"
                         const [6]: "mMovie"
3B26  01                 const type 3
3B27  D40BDB05           const [7]: (98241492)
3B2B  01                 const type 3
3B2C  BCD6AE9F           const [8]: (-1615931716)
3B30  01                 const type 3
3B31  B6746C61           const [9]: (1634497718)
3B35  04                 const type 4
3B36  1D                 string size (29)
3B37  3C703E3C666F6E74+  "<p><font"
3B3F  20636F6C6F723D22+  " color=\""
3B47  2345464546454622+  "#EFEFEF\""
3B4F  3E3C623E00         "><b>\0"
                         const [10]: "<p><font color=\"#EFEFEF\"><b>"
3B54  04                 const type 4
3B55  05                 string size (5)
3B56  3C2F623E00         "</b>\0"
                         const [11]: "</b>"
3B5B  01                 const type 3
3B5C  4774206C           const [12]: (1814066247)
3B60  04                 const type 4
3B61  01                 string size (0)
                         const [13]: ""
3B63  04                 const type 4
3B64  0D                 string size (13)
3B65  6D4D61696E4D6973+  "mMainMis"
3B6D  73696F6E00         "sion\0"
                         const [14]: "mMainMission"
3B72  04                 const type 4
3B73  05                 string size (5)
3B74  6D4B657900         "mKey\0"
                         const [15]: "mKey"
3B79  04                 const type 4
3B7A  08                 string size (8)
3B7B  6D4C6F6354616700   "mLocTag\0"
                         const [16]: "mLocTag"
3B83  04                 const type 4
3B84  05                 string size (5)
3B85  3C62723E00         "<br>\0"
                         const [17]: "<br>"
3B8A  04                 const type 4
3B8B  0C                 string size (12)
3B8C  3C2F666F6E743E3C+  "</font><"
3B94  2F703E00           "/p>\0"
                         const [18]: "</font></p>"
3B98  04                 const type 4
3B99  02                 string size (2)
3B9A  0D00               "\r\0"
                         const [19]: "\r"
3B9C  01                 const type 3
3B9D  5EFEFBBF           const [20]: (-1074004386)
3BA1  04                 const type 4
3BA2  03                 string size (3)
3BA3  5F5400             "_T\0"
                         const [21]: "_T"
3BA6  04                 const type 4
3BA7  11                 string size (17)
3BA8  53686F774E6F7469+  "ShowNoti"
3BB0  6669636174696F6E+  "fication"
3BB8  00                 "\0"
                         const [22]: "ShowNotification"
3BB9  00                 const type 0
                         const [23]: nil
3BBA  04                 const type 4
3BBB  06                 string size (6)
3BBC  7461626C6500       "table\0"
                         const [24]: "table"
3BC2  01                 const type 3
3BC3  9D0C45E6           const [25]: (-431682403)
3BC7  01                 const type 3
3BC8  7DAD1C76           const [26]: (1981590909)
3BCC  04                 const type 4
3BCD  06                 string size (6)
3BCE  517565737400       "Quest\0"
                         const [27]: "Quest"
3BD4  01                 const type 3
3BD5  EEA87DA7           const [28]: (-1484936978)
3BD9  04                 const type 4
3BDA  06                 string size (6)
3BDB  4C6162656C00       "Label\0"
                         const [29]: "Label"
3BE1  04                 const type 4
3BE2  05                 string size (5)
3BE3  49636F6E00         "Icon\0"
                         const [30]: "Icon"
3BE8  04                 const type 4
3BE9  03                 string size (3)
3BEA  5F4700             "_G\0"
                         const [31]: "_G"
3BED  04                 const type 4
3BEE  10                 string size (16)
3BEF  5549546578747572+  "UITextur"
3BF7  655F53746F727900   "e_Story\0"
                         const [32]: "UITexture_Story"
3BFF  04                 const type 4
3C00  0B                 string size (11)
3C01  5465787448656967+  "TextHeig"
3C09  687400             "ht\0"
                         const [33]: "TextHeight"
3C0C  03                 const type 3
3C0D  0000A041           const [34]: (0)
3C11  04                 const type 4
3C12  0A                 string size (10)
3C13  4C6F63616C697A65+  "Localize"
3C1B  6400               "d\0"
                         const [35]: "Localized"
3C1D  01                 const type 3
3C1E  01000000           const [36]: (1)
3C22  01                 const type 3
3C23  6057F038           const [37]: (955275104)
3C27  01                 const type 3
3C28  FD052E6F           const [38]: (1865287165)
3C2C  01                 const type 3
3C2D  39606670           const [39]: (1885757497)
3C31  01                 const type 3
3C32  0791B063           const [40]: (1672515847)
3C36  04                 const type 4
3C37  0A                 string size (10)
3C38  6D4974656D547970+  "mItemTyp"
3C40  6500               "e\0"
                         const [41]: "mItemType"
3C42  04                 const type 4
3C43  0A                 string size (10)
3C44  6D50726F67726573+  "mProgres"
3C4C  7300               "s\0"
                         const [42]: "mProgress"
3C4E  04                 const type 4
3C4F  07                 string size (7)
3C50  456E67696E6500     "Engine\0"
                         const [43]: "Engine"
3C57  01                 const type 3
3C58  10799DD0           const [44]: (-794986224)
3C5C  01                 const type 3
3C5D  E305F187           const [45]: (-2014247453)
3C61  03                 const type 3
3C62  00207DC8           const [46]: (0)
3C66  04                 const type 4
3C67  08                 string size (8)
3C68  4E616754696D6500   "NagTime\0"
                         const [47]: "NagTime"
3C70  01                 const type 3
3C71  7DB5D47F           const [48]: (2144646525)
3C75  03                 const type 3
3C76  0000803F           const [49]: (0)
3C7A  04                 const type 4
3C7B  0B                 string size (11)
3C7C  6747616D6552756C+  "gGameRul"
3C84  657300             "es\0"
                         const [50]: "gGameRules"
3C87  01                 const type 3
3C88  D69370C1           const [51]: (-1049586730)
3C8C  01                 const type 3
3C8D  F651D8FE           const [52]: (-19377674)
3C91  04                 const type 4
3C92  27                 string size (39)
3C93  2F4C6F7475732F4C+  "/Lotus/L"
3C9B  616E67756167652F+  "anguage/"
3CA3  4D656E752F4E6577+  "Menu/New"
3CAB  5175657374417661+  "QuestAva"
3CB3  696C61626C6500     "ilable\0"
                         const [53]: "/Lotus/Language/Menu/NewQuestAvailable"
3CBA  04                 const type 4
3CBB  05                 string size (5)
3CBC  5465787400         "Text\0"
                         const [54]: "Text"
3CC1  04                 const type 4
3CC2  09                 string size (9)
3CC3  4E65775175657374+  "NewQuest"
3CCB  00                 "\0"
                         const [55]: "NewQuest"
3CCC  01                 const type 3
3CCD  17DDCF0E           const [56]: (248503575)
3CD1  04                 const type 4
3CD2  0F                 string size (15)
3CD3  436163686564476F+  "CachedGo"
3CDB  616C496E666F00     "alInfo\0"
                         const [57]: "CachedGoalInfo"
3CE2  01                 const type 3
3CE3  20904A09           const [58]: (155881504)
3CE7  01                 const type 3
3CE8  A22217F8           const [59]: (-132701534)
3CEC  04                 const type 4
3CED  06                 string size (6)
3CEE  6D49636F6E00       "mIcon\0"
                         const [60]: "mIcon"
3CF4  04                 const type 4
3CF5  10                 string size (16)
3CF6  5549546578747572+  "UITextur"
3CFE  655F4576656E7400   "e_Event\0"
                         const [61]: "UITexture_Event"
3D06  04                 const type 4
3D07  06                 string size (6)
3D08  6D476F616C00       "mGoal\0"
                         const [62]: "mGoal"
3D0E  04                 const type 4
3D0F  06                 string size (6)
3D10  6D4265737400       "mBest\0"
                         const [63]: "mBest"
3D16  04                 const type 4
3D17  15                 string size (21)
3D18  6D52656C61795265+  "mRelayRe"
3D20  636F6E7374727563+  "construc"
3D28  74696F6E00         "tion\0"
                         const [64]: "mRelayReconstruction"
3D2D  01                 const type 3
3D2E  98FD7463           const [65]: (1668611480)
3D32  03                 const type 3
3D33  000080BF           const [66]: (0)
3D37  04                 const type 4
3D38  0A                 string size (10)
3D39  6D496E766173696F+  "mInvasio"
3D41  6E00               "n\0"
                         const [67]: "mInvasion"
3D43  04                 const type 4
3D44  05                 string size (5)
3D45  6D61746800         "math\0"
                         const [68]: "math"
3D4A  01                 const type 3
3D4B  C87C3FF9           const [69]: (-113279800)
3D4F  04                 const type 4
3D50  10                 string size (16)
3D51  4D6572676564476F+  "MergedGo"
3D59  616C4E6F64657300   "alNodes\0"
                         const [70]: "MergedGoalNodes"
3D61  04                 const type 4
3D62  06                 string size (6)
3D63  6D4E6F646500       "mNode\0"
                         const [71]: "mNode"
3D69  04                 const type 4
3D6A  0A                 string size (10)
3D6B  6D506572736F6E61+  "mPersona"
3D73  6C00               "l\0"
                         const [72]: "mPersonal"
3D75  04                 const type 4
3D76  07                 string size (7)
3D77  6D547970657300     "mTypes\0"
                         const [73]: "mTypes"
3D7E  04                 const type 4
3D7F  0D                 string size (13)
3D80  6D4D6178436F6E63+  "mMaxConc"
3D88  6C61766500         "lave\0"
                         const [74]: "mMaxConclave"
3D8D  04                 const type 4
3D8E  09                 string size (9)
3D8F  4D696E5769647468+  "MinWidth"
3D97  00                 "\0"
                         const [75]: "MinWidth"
3D98  03                 const type 3
3D99  0000B243           const [76]: (0)
3D9D  04                 const type 4
3D9E  06                 string size (6)
3D9F  526174696F00       "Ratio\0"
                         const [77]: "Ratio"
3DA5  04                 const type 4
3DA6  09                 string size (9)
3DA7  476F616C496E666F+  "GoalInfo"
3DAF  00                 "\0"
                         const [78]: "GoalInfo"
3DB0  01                 const type 3
3DB1  BC9D26A4           const [79]: (-1540973124)
3DB5  04                 const type 4
3DB6  0A                 string size (10)
3DB7  6D466F6D6F726961+  "mFomoria"
3DBF  6E00               "n\0"
                         const [80]: "mFomorian"
3DC1  04                 const type 4
3DC2  06                 string size (6)
3DC3  436F756E7400       "Count\0"
                         const [81]: "Count"
3DC9  04                 const type 4
3DCA  05                 string size (5)
3DCB  4265737400         "Best\0"
                         const [82]: "Best"
3DD0  04                 const type 4
3DD1  0F                 string size (15)
3DD2  4C61737454696D65+  "LastTime"
3DDA  55706461746500     "Update\0"
                         const [83]: "LastTimeUpdate"
3DE1  04                 const type 4
3DE2  07                 string size (7)
3DE3  55706461746500     "Update\0"
                         const [84]: "Update"
3DEA  04                 const type 4
3DEB  0E                 string size (14)
3DEC  6D496E766173696F+  "mInvasio"
3DF4  6E4E6F646500       "nNode\0"
                         const [85]: "mInvasionNode"
3DFA  04                 const type 4
3DFB  0D                 string size (13)
3DFC  454D5054595F5359+  "EMPTY_SY"
3E04  4D424F4C00         "MBOL\0"
                         const [86]: "EMPTY_SYMBOL"
3E09  04                 const type 4
3E0A  13                 string size (19)
3E0B  436163686564496E+  "CachedIn"
3E13  766173696F6E496E+  "vasionIn"
3E1B  666F00             "fo\0"
                         const [87]: "CachedInvasionInfo"
3E1E  01                 const type 3
3E1F  F2AC3ABB           const [88]: (-1153782542)
3E23  01                 const type 3
3E24  E13C21DF           const [89]: (-551469855)
3E28  01                 const type 3
3E29  B043DCE6           const [90]: (-421772368)
3E2D  04                 const type 4
3E2E  08                 string size (8)
3E2F  6D45787069727900   "mExpiry\0"
                         const [91]: "mExpiry"
3E37  01                 const type 3
3E38  122389E5           const [92]: (-443997422)
3E3C  04                 const type 4
3E3D  07                 string size (7)
3E3E  6D436F756E7400     "mCount\0"
                         const [93]: "mCount"
3E45  03                 const type 3
3E46  00004842           const [94]: (0)
3E4A  01                 const type 3
3E4B  4A41BB90           const [95]: (-1866776246)
3E4F  01                 const type 3
3E50  8E23A58E           const [96]: (-1901780082)
3E54  04                 const type 4
3E55  04                 string size (4)
3E56  6D496400           "mId\0"
                         const [97]: "mId"
3E5A  04                 const type 4
3E5B  07                 string size (7)
3E5C  6D44656C746100     "mDelta\0"
                         const [98]: "mDelta"
3E63  04                 const type 4
3E64  03                 string size (3)
3E65  202800             " (\0"
                         const [99]: " ("
3E68  04                 const type 4
3E69  0E                 string size (14)
3E6A  6D41747461636B65+  "mAttacke"
3E72  724E616D6500       "rName\0"
                         const [100]: "mAttackerName"
3E78  04                 const type 4
3E79  02                 string size (2)
3E7A  2900               ")\0"
                         const [101]: ")"
3E7C  04                 const type 4
3E7D  0E                 string size (14)
3E7E  6D446566656E6465+  "mDefende"
3E86  724E616D6500       "rName\0"
                         const [102]: "mDefenderName"
3E8C  03                 const type 3
3E8D  00004040           const [103]: (0)
3E91  04                 const type 4
3E92  17                 string size (23)
3E93  3C703E3C666F6E74+  "<p><font"
3E9B  2073697A653D2232+  " size=\"2"
3EA3  34223E3C623E00     "4\"><b>\0"
                         const [104]: "<p><font size=\"24\"><b>"
3EAA  04                 const type 4
3EAB  2B                 string size (43)
3EAC  2F4C6F7475732F4C+  "/Lotus/L"
3EB4  616E67756167652F+  "anguage/"
3EBC  4D656E752F44696C+  "Menu/Dil"
3EC4  656D6D6141637469+  "emmaActi"
3ECC  76654C6F63617469+  "veLocati"
3ED4  6F6E00             "on\0"
                         const [105]: "/Lotus/Language/Menu/DilemmaActiveLocation"
3ED7  04                 const type 4
3ED8  03                 string size (3)
3ED9  3A2000             ": \0"
                         const [106]: ": "
3EDC  04                 const type 4
3EDD  02                 string size (2)
3EDE  2000               " \0"
                         const [107]: " "
3EE0  04                 const type 4
3EE1  0A                 string size (10)
3EE2  6D436F756E74416C+  "mCountAl"
3EEA  7400               "t\0"
                         const [108]: "mCountAlt"
3EEC  04                 const type 4
3EED  10                 string size (16)
3EEE  3C2F623E3C62723E+  "</b><br>"
3EF6  3C2F666F6E743E00   "</font>\0"
                         const [109]: "</b><br></font>"
3EFE  04                 const type 4
3EFF  11                 string size (17)
3F00  3C666F6E74207369+  "<font si"
3F08  7A653D223234223E+  "ze=\"24\">"
3F10  00                 "\0"
                         const [110]: "<font size=\"24\">"
3F11  04                 const type 4
3F12  2B                 string size (43)
3F13  2F4C6F7475732F4C+  "/Lotus/L"
3F1B  616E67756167652F+  "anguage/"
3F23  4D656E752F44696C+  "Menu/Dil"
3F2B  656D6D6141637469+  "emmaActi"
3F33  766550726F677265+  "veProgre"
3F3B  737300             "ss\0"
                         const [111]: "/Lotus/Language/Menu/DilemmaActiveProgress"
3F3E  04                 const type 4
3F3F  0B                 string size (11)
3F40  4F5054494F4E5F4F+  "OPTION_O"
3F48  4E4500             "NE\0"
                         const [112]: "OPTION_ONE"
3F4B  04                 const type 4
3F4C  0B                 string size (11)
3F4D  4F5054494F4E5F54+  "OPTION_T"
3F55  574F00             "WO\0"
                         const [113]: "OPTION_TWO"
3F58  04                 const type 4
3F59  0A                 string size (10)
3F5A  56414C55455F4F4E+  "VALUE_ON"
3F62  4500               "E\0"
                         const [114]: "VALUE_ONE"
3F64  04                 const type 4
3F65  0A                 string size (10)
3F66  56414C55455F5457+  "VALUE_TW"
3F6E  4F00               "O\0"
                         const [115]: "VALUE_TWO"
3F70  04                 const type 4
3F71  04                 string size (4)
3F72  202F2000           " / \0"
                         const [116]: " / "
3F76  03                 const type 3
3F77  000016C4           const [117]: (0)
3F7B  03                 const type 3
3F7C  00C02847           const [118]: (0)
3F80  04                 const type 4
3F81  07                 string size (7)
3F82  737472696E6700     "string\0"
                         const [119]: "string"
3F89  01                 const type 3
3F8A  2A649C63           const [120]: (1671193642)
3F8E  04                 const type 4
3F8F  31                 string size (49)
3F90  2F4C6F7475732F4C+  "/Lotus/L"
3F98  616E67756167652F+  "anguage/"
3FA0  4D656E752F4E6F74+  "Menu/Not"
3FA8  696669636174696F+  "ificatio"
3FB0  6E5F457870697279+  "n_Expiry"
3FB8  5F48656164696E67+  "_Heading"
3FC0  00                 "\0"
                         const [121]: "/Lotus/Language/Menu/Notification_Expiry_Heading"
3FC1  04                 const type 4
3FC2  06                 string size (6)
3FC3  3A203C623E00       ": <b>\0"
                         const [122]: ": <b>"
3FC9  04                 const type 4
3FCA  08                 string size (8)
3FCB  3C2F666F6E743E00   "</font>\0"
                         const [123]: "</font>"
3FD3  04                 const type 4
3FD4  09                 string size (9)
3FD5  6D4F6E676F696E67+  "mOngoing"
3FDD  00                 "\0"
                         const [124]: "mOngoing"
3FDE  01                 const type 3
3FDF  00000000           const [125]: (0)
3FE3  04                 const type 4
3FE4  0C                 string size (12)
3FE5  6D41637469766174+  "mActivat"
3FED  696F6E00           "ion\0"
                         const [126]: "mActivation"
3FF1  04                 const type 4
3FF2  04                 string size (4)
3FF3  73656300           "sec\0"
                         const [127]: "sec"
3FF7  01                 const type 3
3FF8  1080C5A5           const [128]: (-1513783280)
3FFC  01                 const type 3
3FFD  41B28E5B           const [129]: (1536078401)
4001  01                 const type 3
4002  868A0B2D           const [130]: (755731078)
4006  04                 const type 4
4007  0C                 string size (12)
4008  6D536561736F6E49+  "mSeasonI"
4010  6E666F00           "nfo\0"
                         const [131]: "mSeasonInfo"
4014  04                 const type 4
4015  12                 string size (18)
4016  6D41637469766543+  "mActiveC"
401E  68616C6C656E6765+  "hallenge"
4026  7300               "s\0"
                         const [132]: "mActiveChallenges"
4028  04                 const type 4
4029  0E                 string size (14)
402A  6E69676874776176+  "nightwav"
4032  6549636F6E00       "eIcon\0"
                         const [133]: "nightwaveIcon"
4038  04                 const type 4
4039  1E                 string size (30)
403A  3C703E3C666F6E74+  "<p><font"
4042  20666163653D224E+  " face=\"N"
404A  6F746F2053616E73+  "oto Sans"
4052  223E3C623E00       "\"><b>\0"
                         const [134]: "<p><font face=\"Noto Sans\"><b>"
4058  04                 const type 4
4059  2F                 string size (47)
405A  2F4C6F7475732F4C+  "/Lotus/L"
4062  616E67756167652F+  "anguage/"
406A  53797374656D4D65+  "SystemMe"
4072  7373616765732F52+  "ssages/R"
407A  6164696F4C656769+  "adioLegi"
4082  6F6E4E616D6500     "onName\0"
                         const [135]: "/Lotus/Language/SystemMessages/RadioLegionName"
4089  04                 const type 4
408A  07                 string size (7)
408B  3C2F623E3A2000     "</b>: \0"
                         const [136]: "</b>: "
4092  04                 const type 4
4093  0B                 string size (11)
4094  6D4368616C6C656E+  "mChallen"
409C  676500             "ge\0"
                         const [137]: "mChallenge"
409F  04                 const type 4
40A0  07                 string size (7)
40A1  6D4461696C7900     "mDaily\0"
                         const [138]: "mDaily"
40A8  01                 const type 3
40A9  E35724CE           const [139]: (-836479005)
40AD  04                 const type 4
40AE  18                 string size (24)
40AF  6E69676874776176+  "nightwav"
40B7  655765656B6C7948+  "eWeeklyH"
40BF  61726449636F6E00   "ardIcon\0"
                         const [140]: "nightwaveWeeklyHardIcon"
40C7  04                 const type 4
40C8  14                 string size (20)
40C9  6E69676874776176+  "nightwav"
40D1  655765656B6C7949+  "eWeeklyI"
40D9  636F6E00           "con\0"
                         const [141]: "nightwaveWeeklyIcon"
40DD  04                 const type 4
40DE  13                 string size (19)
40DF  6E69676874776176+  "nightwav"
40E7  654461696C794963+  "eDailyIc"
40EF  6F6E00             "on\0"
                         const [142]: "nightwaveDailyIcon"
40F2  04                 const type 4
40F3  0E                 string size (14)
40F4  674368616C6C656E+  "gChallen"
40FC  67654D677200       "geMgr\0"
                         const [143]: "gChallengeMgr"
4102  01                 const type 3
4103  B3549177           const [144]: (2006013107)
4107  01                 const type 3
4108  72058234           const [145]: (880936306)
410C  01                 const type 3
410D  8A263043           const [146]: (1127229066)
4111  04                 const type 4
4112  26                 string size (38)
4113  2F4C6F7475732F4C+  "/Lotus/L"
411B  616E67756167652F+  "anguage/"
4123  4368616C6C656E67+  "Challeng"
412B  65732F4368616C6C+  "es/Chall"
4133  656E67655F00       "enge_\0"
                         const [147]: "/Lotus/Language/Challenges/Challenge_"
4139  04                 const type 4
413A  0D                 string size (13)
413B  5F44657363726970+  "_Descrip"
4143  74696F6E00         "tion\0"
                         const [148]: "_Description"
4148  04                 const type 4
4149  06                 string size (6)
414A  434F554E5400       "COUNT\0"
                         const [149]: "COUNT"
4150  04                 const type 4
4151  02                 string size (2)
4152  2F00               "/\0"
                         const [150]: "/"
4154  04                 const type 4
4155  1B                 string size (27)
4156  3C703E3C666F6E74+  "<p><font"
415E  20666163653D224E+  " face=\"N"
4166  6F746F2053616E73+  "oto Sans"
416E  223E00             "\">\0"
                         const [151]: "<p><font face=\"Noto Sans\">"
4171  04                 const type 4
4172  09                 string size (9)
4173  50726F6772657373+  "Progress"
417B  00                 "\0"
                         const [152]: "Progress"
417C  04                 const type 4
417D  31                 string size (49)
417E  2F4C6F7475732F4C+  "/Lotus/L"
4186  616E67756167652F+  "anguage/"
418E  53797374656D4D65+  "SystemMe"
4196  7373616765732F57+  "ssages/W"
419E  65656B6C79416374+  "eeklyAct"
41A6  50726F6772657373+  "Progress"
41AE  00                 "\0"
                         const [153]: "/Lotus/Language/SystemMessages/WeeklyActProgress"
41AF  04                 const type 4
41B0  06                 string size (6)
41B1  544F54414C00       "TOTAL\0"
                         const [154]: "TOTAL"
41B7  01                 const type 3
41B8  2A71F965           const [155]: (1710846250)
41BC  04                 const type 4
41BD  1E                 string size (30)
41BE  6E756D5669736962+  "numVisib"
41C6  6C654E6967687477+  "leNightw"
41CE  6176654368616C6C+  "aveChall"
41D6  656E67657300       "enges\0"
                         const [156]: "numVisibleNightwaveChallenges"
41DC  04                 const type 4
41DD  0D                 string size (13)
41DE  436163686564416C+  "CachedAl"
41E6  6572747300         "erts\0"
                         const [157]: "CachedAlerts"
41EB  04                 const type 4
41EC  09                 string size (9)
41ED  6D56697369626C65+  "mVisible"
41F5  00                 "\0"
                         const [158]: "mVisible"
41F6  04                 const type 4
41F7  0B                 string size (11)
41F8  6D416C657274496E+  "mAlertIn"
4200  666F00             "fo\0"
                         const [159]: "mAlertInfo"
4203  04                 const type 4
4204  10                 string size (16)
4205  5549546578747572+  "UITextur"
420D  655F416C65727400   "e_Alert\0"
                         const [160]: "UITexture_Alert"
4215  04                 const type 4
4216  12                 string size (18)
4217  436163686564566F+  "CachedVo"
421F  6964547261646572+  "idTrader"
4227  7300               "s\0"
                         const [161]: "CachedVoidTraders"
4229  04                 const type 4
422A  07                 string size (7)
422B  6C6F6354616700     "locTag\0"
                         const [162]: "locTag"
4232  01                 const type 3
4233  39740E5B           const [163]: (1527673913)
4237  04                 const type 4
4238  07                 string size (7)
4239  726567696F6E00     "region\0"
                         const [164]: "region"
4240  04                 const type 4
4241  05                 string size (5)
4242  6E616D6500         "name\0"
                         const [165]: "name"
4247  04                 const type 4
4248  2E                 string size (46)
4249  2F4C6F7475732F4C+  "/Lotus/L"
4251  616E67756167652F+  "anguage/"
4259  4D656E752F56656E+  "Menu/Ven"
4261  646F725F566F6964+  "dor_Void"
4269  5F47656E65726963+  "_Generic"
4271  5469746C6500       "Title\0"
                         const [166]: "/Lotus/Language/Menu/Vendor_Void_GenericTitle"
4277  04                 const type 4
4278  25                 string size (37)
4279  3C2F623E3C2F666F+  "</b></fo"
4281  6E743E3C666F6E74+  "nt><font"
4289  20666163653D224E+  " face=\"N"
4291  6F746F2053616E73+  "oto Sans"
4299  223E3A2000         "\">: \0"
                         const [167]: "</b></font><font face=\"Noto Sans\">: "
429E  04                 const type 4
429F  05                 string size (5)
42A0  29202D2000         ") - \0"
                         const [168]: ") - "
42A5  04                 const type 4
42A6  0F                 string size (15)
42A7  766F696454726164+  "voidTrad"
42AF  657249636F6E00     "erIcon\0"
                         const [169]: "voidTraderIcon"
42B6  04                 const type 4
42B7  0F                 string size (15)
42B8  776F726C64437963+  "worldCyc"
42C0  6C6549636F6E00     "leIcon\0"
                         const [170]: "worldCycleIcon"
42C7  04                 const type 4
42C8  07                 string size (7)
42C9  48656164657200     "Header\0"
                         const [171]: "Header"
42D0  04                 const type 4
42D1  2B                 string size (43)
42D2  2F4C6F7475732F4C+  "/Lotus/L"
42DA  616E67756167652F+  "anguage/"
42E2  53797374656D4D65+  "SystemMe"
42EA  7373616765732F57+  "ssages/W"
42F2  6F726C644379636C+  "orldCycl"
42FA  657300             "es\0"
                         const [172]: "/Lotus/Language/SystemMessages/WorldCycles"
42FD  04                 const type 4
42FE  06                 string size (6)
42FF  4E6F64657300       "Nodes\0"
                         const [173]: "Nodes"
4305  04                 const type 4
4306  10                 string size (16)
4307  504C41494E535F4E+  "PLAINS_N"
430F  4F44455F54414700   "ODE_TAG\0"
                         const [174]: "PLAINS_NODE_TAG"
4317  04                 const type 4
4318  14                 string size (20)
4319  4F52425F56414C4C+  "ORB_VALL"
4321  49535F4E4F44455F+  "IS_NODE_"
4329  54414700           "TAG\0"
                         const [175]: "ORB_VALLIS_NODE_TAG"
432D  04                 const type 4
432E  09                 string size (9)
432F  54696D6554616773+  "TimeTags"
4337  00                 "\0"
                         const [176]: "TimeTags"
4338  04                 const type 4
4339  33                 string size (51)
433A  2F4C6F7475732F4C+  "/Lotus/L"
4342  616E67756167652F+  "anguage/"
434A  53797374656D4D65+  "SystemMe"
4352  7373616765732F50+  "ssages/P"
435A  6C61696E734F6645+  "lainsOfE"
4362  69646F6C6F6E5469+  "idolonTi"
436A  6D6500             "me\0"
                         const [177]: "/Lotus/Language/SystemMessages/PlainsOfEidolonTime"
436D  04                 const type 4
436E  2D                 string size (45)
436F  2F4C6F7475732F4C+  "/Lotus/L"
4377  616E67756167652F+  "anguage/"
437F  53797374656D4D65+  "SystemMe"
4387  7373616765732F4F+  "ssages/O"
438F  726256616C6C6973+  "rbVallis"
4397  54696D6500         "Time\0"
                         const [178]: "/Lotus/Language/SystemMessages/OrbVallisTime"
439C  04                 const type 4
439D  10                 string size (16)
439E  54696D65546F4E65+  "TimeToNe"
43A6  78744C6162656C00   "xtLabel\0"
                         const [179]: "TimeToNextLabel"
43AE  04                 const type 4
43AF  0E                 string size (14)
43B0  4E65787454696D65+  "NextTime"
43B8  4C6162656C00       "Label\0"
                         const [180]: "NextTimeLabel"
43BE  01                 const type 3
43BF  A5EF5505           const [181]: (89517989)
43C3  01                 const type 3
43C4  2FCC7F44           const [182]: (1149226031)
43C8  04                 const type 4
43C9  06                 string size (6)
43CA  4C4142454C00       "LABEL\0"
                         const [183]: "LABEL"
43D0  01                 const type 3
43D1  A0896CD2           const [184]: (-764638816)
43D5  04                 const type 4
43D6  05                 string size (5)
43D7  54494D4500         "TIME\0"
                         const [185]: "TIME"
43DC  01                 const type 3
43DD  DD095DC6           const [186]: (-966981155)
43E1  04                 const type 4
43E2  0B                 string size (11)
43E3  436F6D706163744F+  "CompactO"
43EB  6E6500             "ne\0"
                         const [187]: "CompactOne"
43EE  04                 const type 4
43EF  1E                 string size (30)
43F0  2F4C6F7475732F4C+  "/Lotus/L"
43F8  616E67756167652F+  "anguage/"
4400  4D656E752F536F6C+  "Menu/Sol"
4408  61724D617000       "arMap\0"
                         const [188]: "/Lotus/Language/Menu/SolarMap"
440E  04                 const type 4
440F  0D                 string size (13)
4410  736F6C61724D6170+  "solarMap"
4418  49636F6E00         "Icon\0"
                         const [189]: "solarMapIcon"
441D  01                 const type 3
441E  F4BA7064           const [190]: (1685109492)
4422  03                 const type 3
4423  0000A543           const [191]: (0)
4427  03                 const type 3
4428  00002041           const [192]: (0)
442C  04                 const type 4
442D  0A                 string size (10)
442E  6D456C656D656E74+  "mElement"
4436  7300               "s\0"
                         const [193]: "mElements"
4438  04                 const type 4
4439  1A                 string size (26)
443A  6D466F7263656456+  "mForcedV"
4442  6572746963616C53+  "erticalS"
444A  657061726174696F+  "eparatio"
4452  6E00               "n\0"
                         const [194]: "mForcedVerticalSeparation"
4454  01                 const type 3
4455  66D9191C           const [195]: (471456102)
4459  04                 const type 4
445A  0A                 string size (10)
445B  6D436C69704E616D+  "mClipNam"
4463  6500               "e\0"
                         const [196]: "mClipName"
4465  04                 const type 4
4466  03                 string size (3)
4467  5F7900             "_y\0"
                         const [197]: "_y"
446A  01                 const type 3
446B  DEAD95F5           const [198]: (-174740002)
446F  01                 const type 3
4470  0B477B6B           const [199]: (1803241227)
4474  04                 const type 4
4475  06                 string size (6)
4476  50616E656C00       "Panel\0"
                         const [200]: "Panel"
447C  04                 const type 4
447D  07                 string size (7)
447E  5F776964746800     "_width\0"
                         const [201]: "_width"
4485  04                 const type 4
4486  07                 string size (7)
4487  2E4C6162656C00     ".Label\0"
                         const [202]: ".Label"
448E  04                 const type 4
448F  08                 string size (8)
4490  5F787363616C6500   "_xscale\0"
                         const [203]: "_xscale"
4498  03                 const type 3
4499  0000C842           const [204]: (0)
449D  04                 const type 4
449E  0A                 string size (10)
449F  7465787457696474+  "textWidt"
44A7  6800               "h\0"
                         const [205]: "textWidth"
44A9  03                 const type 3
44AA  00007042           const [206]: (0)
44AE  04                 const type 4
44AF  03                 string size (3)
44B0  5F7800             "_x\0"
                         const [207]: "_x"
44B3  04                 const type 4
44B4  0A                 string size (10)
44B5  6D496E697469616C+  "mInitial"
44BD  5800               "X\0"
                         const [208]: "mInitialX"
44BF  03                 const type 3
44C0  0000003F           const [209]: (0)
44C4  04                 const type 4
44C5  08                 string size (8)
44C6  5F68656967687400   "_height\0"
                         const [210]: "_height"
44CE  01                 const type 3
44CF  907AE152           const [211]: (1390508688)
44D3  04                 const type 4
44D4  06                 string size (6)
44D5  554953797300       "UISys\0"
                         const [212]: "UISys"
44DB  04                 const type 4
44DC  1A                 string size (26)
44DD  466C617368496E73+  "FlashIns"
44E5  74616E63655F534D+  "tance_SM"
44ED  4F4F54485F535445+  "OOTH_STE"
44F5  5000               "P\0"
                         const [213]: "FlashInstance_SMOOTH_STEP"
44F7  04                 const type 4
44F8  07                 string size (7)
44F9  5F616C70686100     "_alpha\0"
                         const [214]: "_alpha"
4500  04                 const type 4
4501  03                 string size (3)
4502  5F7A00             "_z\0"
                         const [215]: "_z"
4505  03                 const type 3
4506  0000803E           const [216]: (0)
                         * functions:
450A  04                 sizep (4)
                         
450B                     ** function [0] definition (level 3)
                         ** start of function **
450B  00                 string size (0)
                         source name: (none)
450D  03                 line defined (401)
450E  98                 last line defined (408)
450F  03                 nups (3)
4510  03                 numparams (2)
4511  02                 is_vararg (0)
4512  00                 maxstacksize (6)
                         * code:
4514  16                 sizecode (22)
4515  93000000           [01] getupval   2   0      
4519  D3000000           [02] getupval   3   0      
451D  CE00C001           [03] gettable   3   3   256  ; "LastTimeUpdate"
4521  CD408001           [04] sub        3   3   1  
4525  8CC00080           [05] settable   2   256 3    ; "LastTimeUpdate"
4529  93000000           [06] getupval   2   0      
452D  8E004001           [07] gettable   2   2   256  ; "LastTimeUpdate"
fail op	33
4531  21404001           [08] tforloop   0       257  ; to [10] if exit
4535  1AC00280           [09] jmp        12           ; to [22]
4539  93000000           [10] getupval   2   0      
453D  8C804080           [11] settable   2   256 258  ; "LastTimeUpdate" 0
4541  93008000           [12] getupval   2   1      
4545  CE004100           [13] gettable   3   0   260  ; "GoalInfo"
4549  0E414100           [14] gettable   4   0   261  ; "Count"
454D  4E814100           [15] gettable   5   0   262  ; "Best"
4551  A2800002           [16] call       2   4   2  
4555  0C808081           [17] settable   0   259 2    ; "Label"
4559  93000001           [18] getupval   2   2      
455D  8EC04101           [19] gettable   2   2   263  ; -1552746934
4561  D2000000           [20] move       3   0      
4565  A2400001           [21] call       2   2   1  
4569  1E008000           [22] return     0   1      
                         * constants:
456D  08                 sizek (8)
456E  04                 const type 4
456F  0F                 string size (15)
4570  4C61737454696D65+  "LastTime"
4578  55706461746500     "Update\0"
                         const [0]: "LastTimeUpdate"
457F  03                 const type 3
4580  00000000           const [1]: (0)
4584  03                 const type 3
4585  0000803F           const [2]: (0)
4589  04                 const type 4
458A  06                 string size (6)
458B  4C6162656C00       "Label\0"
                         const [3]: "Label"
4591  04                 const type 4
4592  09                 string size (9)
4593  476F616C496E666F+  "GoalInfo"
459B  00                 "\0"
                         const [4]: "GoalInfo"
459C  04                 const type 4
459D  06                 string size (6)
459E  436F756E7400       "Count\0"
                         const [5]: "Count"
45A4  04                 const type 4
45A5  05                 string size (5)
45A6  4265737400         "Best\0"
                         const [6]: "Best"
45AB  01                 const type 3
45AC  4AF672A3           const [7]: (-1552746934)
                         * functions:
45B0  00                 sizep (0)
                         * lines:
45B1  16                 sizelineinfo (22)
                         [pc] (line)
45B2  92                 [01] (-110)
45B3  01                 [02] (-110)
45B4  00                 [03] (-110)
45B5  00                 [04] (-110)
45B6  92                 [05] (-110)
45B7  01                 [06] (-109)
45B8  00                 [07] (-109)
45B9  00                 [08] (-109)
45BA  92                 [09] (-109)
45BB  01                 [10] (-108)
45BC  00                 [11] (-108)
45BD  00                 [12] (-107)
45BE  92                 [13] (-107)
45BF  01                 [14] (-107)
45C0  00                 [15] (-107)
45C1  00                 [16] (-107)
45C2  92                 [17] (-107)
45C3  01                 [18] (-106)
45C4  00                 [19] (-106)
45C5  00                 [20] (-106)
45C6  93                 [21] (-106)
45C7  01                 [22] (-104)
                         * locals:
460A  00                 sizelocvars (0)
                         * upvalues:
460B  00                 sizeupvalues (0)
                         ** end of function **

                         
460C                     ** function [1] definition (level 3)
                         ** start of function **
460C  00                 string size (0)
                         source name: (none)
460E  03                 line defined (469)
460F  DD                 last line defined (477)
4610  03                 nups (0)
4611  00                 numparams (2)
4612  02                 is_vararg (0)
4613  00                 maxstacksize (4)
                         * code:
4615  26                 sizecode (38)
4616  8E004000           [01] gettable   2   0   256  ; "GoalInfo"
461A  8E404001           [02] gettable   2   2   257  ; "mOngoing"
461E  CE00C000           [03] gettable   3   1   256  ; "GoalInfo"
4622  CE40C001           [04] gettable   3   3   257  ; "mOngoing"
fail op	35
4626  63C00001           [05] close      1  
462A  1A800080           [06] jmp        3            ; to [10]
462E  8E004000           [07] gettable   2   0   256  ; "GoalInfo"
4632  8E404001           [08] gettable   2   2   257  ; "mOngoing"
4636  9E000001           [09] return     2   2      
463A  8E004000           [10] gettable   2   0   256  ; "GoalInfo"
463E  8E804001           [11] gettable   2   2   258  ; "mSuccess"
4642  CE00C000           [12] gettable   3   1   256  ; "GoalInfo"
4646  CE80C001           [13] gettable   3   3   258  ; "mSuccess"
fail op	35
464A  23C00001           [14] close      0  
464E  1A800280           [15] jmp        11           ; to [27]
4652  8E004000           [16] gettable   2   0   256  ; "GoalInfo"
4656  8EC04001           [17] gettable   2   2   259  ; "mActivation"
465A  8E004101           [18] gettable   2   2   260  ; "sec"
465E  CE00C000           [19] gettable   3   1   256  ; "GoalInfo"
4662  CEC0C001           [20] gettable   3   3   259  ; "mActivation"
4666  CE00C101           [21] gettable   3   3   260  ; "sec"
fail op	21
466A  55C00001           [22] concat     1   2   3  
466E  1A000080           [23] jmp        1            ; to [25]
4672  97400000           [24] loadbool   2   0   1    ; false, to [26]
4676  97008000           [25] loadbool   2   1   0    ; true
467A  9E000001           [26] return     2   2      
467E  8E004000           [27] gettable   2   0   256  ; "GoalInfo"
4682  8EC04001           [28] gettable   2   2   259  ; "mActivation"
4686  8E004101           [29] gettable   2   2   260  ; "sec"
468A  CE00C000           [30] gettable   3   1   256  ; "GoalInfo"
468E  CEC0C001           [31] gettable   3   3   259  ; "mActivation"
4692  CE00C101           [32] gettable   3   3   260  ; "sec"
fail op	21
4696  55C00001           [33] concat     1   2   3  
469A  1A000080           [34] jmp        1            ; to [36]
469E  97400000           [35] loadbool   2   0   1    ; false, to [37]
46A2  97008000           [36] loadbool   2   1   0    ; true
46A6  9E000001           [37] return     2   2      
46AA  1E008000           [38] return     0   1      
                         * constants:
46AE  05                 sizek (5)
46AF  04                 const type 4
46B0  09                 string size (9)
46B1  476F616C496E666F+  "GoalInfo"
46B9  00                 "\0"
                         const [0]: "GoalInfo"
46BA  04                 const type 4
46BB  09                 string size (9)
46BC  6D4F6E676F696E67+  "mOngoing"
46C4  00                 "\0"
                         const [1]: "mOngoing"
46C5  04                 const type 4
46C6  09                 string size (9)
46C7  6D53756363657373+  "mSuccess"
46CF  00                 "\0"
                         const [2]: "mSuccess"
46D0  04                 const type 4
46D1  0C                 string size (12)
46D2  6D41637469766174+  "mActivat"
46DA  696F6E00           "ion\0"
                         const [3]: "mActivation"
46DE  04                 const type 4
46DF  04                 string size (4)
46E0  73656300           "sec\0"
                         const [4]: "sec"
                         * functions:
46E4  00                 sizep (0)
                         * lines:
46E5  26                 sizelineinfo (38)
                         [pc] (line)
46E6  D6                 [01] (-42)
46E7  01                 [02] (-42)
46E8  00                 [03] (-42)
46E9  00                 [04] (-42)
46EA  D6                 [05] (-42)
46EB  01                 [06] (-42)
46EC  00                 [07] (-41)
46ED  00                 [08] (-41)
46EE  D6                 [09] (-41)
46EF  01                 [10] (-39)
46F0  00                 [11] (-39)
46F1  00                 [12] (-39)
46F2  D6                 [13] (-39)
46F3  01                 [14] (-39)
46F4  00                 [15] (-39)
46F5  00                 [16] (-38)
46F6  D6                 [17] (-38)
46F7  01                 [18] (-38)
46F8  00                 [19] (-38)
46F9  00                 [20] (-38)
46FA  D6                 [21] (-38)
46FB  01                 [22] (-38)
46FC  00                 [23] (-38)
46FD  00                 [24] (-38)
46FE  D7                 [25] (-38)
46FF  01                 [26] (-38)
4700  00                 [27] (-36)
4701  00                 [28] (-36)
4702  D7                 [29] (-36)
4703  01                 [30] (-36)
4704  00                 [31] (-36)
4705  00                 [32] (-36)
4706  D7                 [33] (-36)
4707  01                 [34] (-36)
4708  00                 [35] (-36)
4709  00                 [36] (-36)
470A  D9                 [37] (-36)
470B  01                 [38] (-35)
                         * locals:
477E  00                 sizelocvars (0)
                         * upvalues:
477F  00                 sizeupvalues (0)
                         ** end of function **

                         
4780                     ** function [2] definition (level 3)
                         ** start of function **
4780  00                 string size (0)
                         source name: (none)
4782  04                 line defined (530)
4783  94                 last line defined (532)
4784  04                 nups (0)
4785  00                 numparams (2)
4786  02                 is_vararg (0)
4787  00                 maxstacksize (4)
                         * code:
4789  08                 sizecode (8)
478A  8E004000           [1] gettable   2   0   256  ; "Progress"
478E  CE00C000           [2] gettable   3   1   256  ; "Progress"
fail op	21
4792  55808001           [3] concat     1   3   2  
4796  1A000080           [4] jmp        1            ; to [6]
479A  97400000           [5] loadbool   2   0   1    ; false, to [7]
479E  97008000           [6] loadbool   2   1   0    ; true
47A2  9E000001           [7] return     2   2      
47A6  1E008000           [8] return     0   1      
                         * constants:
47AA  01                 sizek (1)
47AB  04                 const type 4
47AC  09                 string size (9)
47AD  50726F6772657373+  "Progress"
47B5  00                 "\0"
                         const [0]: "Progress"
                         * functions:
47B6  00                 sizep (0)
                         * lines:
47B7  08                 sizelineinfo (8)
                         [pc] (line)
47B8  13                 [1] (19)
47B9  02                 [2] (19)
47BA  00                 [3] (19)
47BB  00                 [4] (19)
47BC  13                 [5] (19)
47BD  02                 [6] (19)
47BE  00                 [7] (19)
47BF  00                 [8] (20)
                         * locals:
47D8  00                 sizelocvars (0)
                         * upvalues:
47D9  00                 sizeupvalues (0)
                         ** end of function **

                         
47DA                     ** function [3] definition (level 3)
                         ** start of function **
47DA  00                 string size (0)
                         source name: (none)
47DC  04                 line defined (593)
47DD  E5                 last line defined (613)
47DE  04                 nups (3)
47DF  03                 numparams (2)
47E0  02                 is_vararg (0)
47E1  00                 maxstacksize (19)
                         * code:
47E3  53                 sizecode (83)
47E4  8E004000           [01] gettable   2   0   256  ; "LastTimeUpdate"
47E8  83400001           [02] add        2   2   1  
47EC  0C800080           [03] settable   0   256 2    ; "LastTimeUpdate"
47F0  8E004000           [04] gettable   2   0   256  ; "LastTimeUpdate"
fail op	33
47F4  21808080           [05] tforloop   0       2    ; to [7] if exit
47F8  1AC01280           [06] jmp        76           ; to [83]
47FC  8EC04000           [07] gettable   2   0   259  ; "Header"
4800  0C800081           [08] settable   0   258 2    ; "Label"
4804  99400000           [09] loadk      2   1        ; 0
4808  CE004100           [10] gettable   3   0   260  ; "Nodes"
480C  CA008001           [11] len        3   3      
4810  19410000           [12] loadk      4   1        ; 0
4814  90800E80           [13] forprep    2   59       ; to [73]
4818  8E814000           [14] gettable   6   0   258  ; "Label"
481C  D9410100           [15] loadk      7   5        ; "<br>"
4820  82C10103           [16] concat     6   6   7  
4824  0C800181           [17] settable   0   258 6    ; "Label"
4828  8E814100           [18] gettable   6   0   262  ; "TimeToNextLabel"
482C  CE814100           [19] gettable   7   0   262  ; "TimeToNextLabel"
4830  CE418103           [20] gettable   7   7   5  
4834  0E024000           [21] gettable   8   0   256  ; "LastTimeUpdate"
4838  CD018203           [22] sub        7   7   8  
483C  8CC18102           [23] settable   6   5   7  
4840  8E814100           [24] gettable   6   0   262  ; "TimeToNextLabel"
4844  8E410103           [25] gettable   6   6   5  
fail op	33
4848  21C04103           [26] tforloop   0       263  ; to [28] if exit
484C  1A400480           [27] jmp        18           ; to [46]
4850  93010000           [28] getupval   6   0      
4854  8E014203           [29] gettable   6   6   264  ; 89517989
4858  D3018000           [30] getupval   7   1      
485C  CE01C103           [31] gettable   7   7   260  ; "Nodes"
4860  CE418103           [32] gettable   7   7   5  
4864  A2810001           [33] call       6   2   2  
4868  C6018003           [34] loadnil    7   7      
486C  0E424200           [35] gettable   8   0   265  ; "NextTimeLabel"
4870  4E824100           [36] gettable   9   0   262  ; "TimeToNextLabel"
4874  93020000           [37] getupval   10  0      
4878  8E824205           [38] gettable   10  10  266  ; 1149226031
487C  D2020003           [39] move       11  6      
4880  0E034100           [40] gettable   12  0   260  ; "Nodes"
4884  0E430106           [41] gettable   12  12  5  
4888  A2028101           [42] call       10  3   4  
488C  4C028302           [43] settable   9   5   12 
4890  0CC28202           [44] settable   8   5   11 
4894  D2010005           [45] move       7   10     
4898  0E824000           [46] gettable   8   0   258  ; "Label"
489C  5DC20200           [47] getglobal  9   11       ; mMovie
48A0  6402C304           [48] self       9   9   268  ; 98241492
48A4  CE424300           [49] gettable   11  0   269  ; "TimeTags"
48A8  CE428105           [50] gettable   11  11  5  
48AC  17030000           [51] loadbool   12  0   0    ; false
48B0  4B830000           [52] newtable   13  0   2    ; array=0, hash=2
48B4  9DC30300           [53] getglobal  14  15       ; -764638816
48B8  DDC30200           [54] getglobal  15  11       ; mMovie
48BC  E403C307           [55] self       15  15  268  ; 98241492
48C0  4E444200           [56] gettable   17  0   265  ; "NextTimeLabel"
48C4  4E448108           [57] gettable   17  17  5  
48C8  97040000           [58] loadbool   18  0   0    ; false
48CC  E2030002           [59] call       15  4   0  
48D0  A2830000           [60] call       14  0   2  
48D4  4C830387           [61] settable   13  270 14   ; "LABEL"
48D8  93030000           [62] getupval   14  0      
48DC  8E434407           [63] gettable   14  14  273  ; -966981155
48E0  DDC30200           [64] getglobal  15  11       ; mMovie
48E4  0E844100           [65] gettable   16  0   262  ; "TimeToNextLabel"
48E8  0E440108           [66] gettable   16  16  5  
48EC  59840400           [67] loadk      17  18       ; "CompactOne"
48F0  A2830002           [68] call       14  4   2  
48F4  4C830388           [69] settable   13  272 14   ; "TIME"
48F8  62828002           [70] call       9   5   2  
48FC  02420204           [71] concat     8   8   9  
4900  0C000281           [72] settable   0   258 8    ; "Label"
4904  94C0F07F           [73] forloop    2   -60      ; to [14] if loop
4908  0CC04180           [74] settable   0   256 263  ; "LastTimeUpdate" 0
490C  0E824000           [75] gettable   8   0   258  ; "Label"
4910  59C20400           [76] loadk      9   19       ; "</font></p>"
4914  02420204           [77] concat     8   8   9  
4918  0C000281           [78] settable   0   258 8    ; "Label"
491C  13020001           [79] getupval   8   2      
4920  0E024504           [80] gettable   8   8   276  ; -1552746934
4924  52020000           [81] move       9   0      
4928  22420001           [82] call       8   2   1  
492C  1E008000           [83] return     0   1      
                         * constants:
4930  15                 sizek (21)
4931  04                 const type 4
4932  0F                 string size (15)
4933  4C61737454696D65+  "LastTime"
493B  55706461746500     "Update\0"
                         const [0]: "LastTimeUpdate"
4942  03                 const type 3
4943  0000803F           const [1]: (0)
4947  04                 const type 4
4948  06                 string size (6)
4949  4C6162656C00       "Label\0"
                         const [2]: "Label"
494F  04                 const type 4
4950  07                 string size (7)
4951  48656164657200     "Header\0"
                         const [3]: "Header"
4958  04                 const type 4
4959  06                 string size (6)
495A  4E6F64657300       "Nodes\0"
                         const [4]: "Nodes"
4960  04                 const type 4
4961  05                 string size (5)
4962  3C62723E00         "<br>\0"
                         const [5]: "<br>"
4967  04                 const type 4
4968  10                 string size (16)
4969  54696D65546F4E65+  "TimeToNe"
4971  78744C6162656C00   "xtLabel\0"
                         const [6]: "TimeToNextLabel"
4979  03                 const type 3
497A  00000000           const [7]: (0)
497E  01                 const type 3
497F  A5EF5505           const [8]: (89517989)
4983  04                 const type 4
4984  0E                 string size (14)
4985  4E65787454696D65+  "NextTime"
498D  4C6162656C00       "Label\0"
                         const [9]: "NextTimeLabel"
4993  01                 const type 3
4994  2FCC7F44           const [10]: (1149226031)
4998  04                 const type 4
4999  07                 string size (7)
499A  6D4D6F76696500     "mMovie\0"
                         const [11]: "mMovie"
49A1  01                 const type 3
49A2  D40BDB05           const [12]: (98241492)
49A6  04                 const type 4
49A7  09                 string size (9)
49A8  54696D6554616773+  "TimeTags"
49B0  00                 "\0"
                         const [13]: "TimeTags"
49B1  04                 const type 4
49B2  06                 string size (6)
49B3  4C4142454C00       "LABEL\0"
                         const [14]: "LABEL"
49B9  01                 const type 3
49BA  A0896CD2           const [15]: (-764638816)
49BE  04                 const type 4
49BF  05                 string size (5)
49C0  54494D4500         "TIME\0"
                         const [16]: "TIME"
49C5  01                 const type 3
49C6  DD095DC6           const [17]: (-966981155)
49CA  04                 const type 4
49CB  0B                 string size (11)
49CC  436F6D706163744F+  "CompactO"
49D4  6E6500             "ne\0"
                         const [18]: "CompactOne"
49D7  04                 const type 4
49D8  0C                 string size (12)
49D9  3C2F666F6E743E3C+  "</font><"
49E1  2F703E00           "/p>\0"
                         const [19]: "</font></p>"
49E5  01                 const type 3
49E6  4AF672A3           const [20]: (-1552746934)
                         * functions:
49EA  00                 sizep (0)
                         * lines:
49EB  53                 sizelineinfo (83)
                         [pc] (line)
49EC  52                 [01] (82)
49ED  02                 [02] (82)
49EE  00                 [03] (82)
49EF  00                 [04] (83)
49F0  52                 [05] (83)
49F1  02                 [06] (83)
49F2  00                 [07] (84)
49F3  00                 [08] (84)
49F4  52                 [09] (85)
49F5  02                 [10] (85)
49F6  00                 [11] (85)
49F7  00                 [12] (85)
49F8  53                 [13] (85)
49F9  02                 [14] (86)
49FA  00                 [15] (86)
49FB  00                 [16] (86)
49FC  53                 [17] (86)
49FD  02                 [18] (87)
49FE  00                 [19] (87)
49FF  00                 [20] (87)
4A00  53                 [21] (87)
4A01  02                 [22] (87)
4A02  00                 [23] (87)
4A03  00                 [24] (89)
4A04  54                 [25] (89)
4A05  02                 [26] (89)
4A06  00                 [27] (89)
4A07  00                 [28] (90)
4A08  54                 [29] (90)
4A09  02                 [30] (90)
4A0A  00                 [31] (90)
4A0B  00                 [32] (90)
4A0C  55                 [33] (90)
4A0D  02                 [34] (91)
4A0E  00                 [35] (92)
4A0F  00                 [36] (92)
4A10  55                 [37] (92)
4A11  02                 [38] (92)
4A12  00                 [39] (92)
4A13  00                 [40] (92)
4A14  55                 [41] (92)
4A15  02                 [42] (92)
4A16  00                 [43] (92)
4A17  00                 [44] (92)
4A18  55                 [45] (92)
4A19  02                 [46] (95)
4A1A  00                 [47] (95)
4A1B  00                 [48] (95)
4A1C  55                 [49] (95)
4A1D  02                 [50] (95)
4A1E  00                 [51] (95)
4A1F  00                 [52] (95)
4A20  56                 [53] (95)
4A21  02                 [54] (95)
4A22  00                 [55] (95)
4A23  00                 [56] (95)
4A24  56                 [57] (95)
4A25  02                 [58] (95)
4A26  00                 [59] (95)
4A27  00                 [60] (95)
4A28  56                 [61] (95)
4A29  02                 [62] (95)
4A2A  00                 [63] (95)
4A2B  00                 [64] (95)
4A2C  56                 [65] (95)
4A2D  02                 [66] (95)
4A2E  00                 [67] (95)
4A2F  00                 [68] (95)
4A30  57                 [69] (95)
4A31  02                 [70] (95)
4A32  00                 [71] (95)
4A33  00                 [72] (95)
4A34  57                 [73] (85)
4A35  02                 [74] (97)
4A36  00                 [75] (98)
4A37  00                 [76] (98)
4A38  57                 [77] (98)
4A39  02                 [78] (98)
4A3A  00                 [79] (99)
4A3B  00                 [80] (99)
4A3C  57                 [81] (99)
4A3D  02                 [82] (99)
4A3E  00                 [83] (101)
                         * locals:
4B38  00                 sizelocvars (0)
                         * upvalues:
4B39  00                 sizeupvalues (0)
                         ** end of function **

                         * lines:
4B3B  08                 sizelineinfo (1110)
                         [pc] (line)
4B3C  28                 [0001] (40)
4B3D  01                 [0002] (40)
4B3E  00                 [0003] (40)
4B3F  00                 [0004] (40)
4B40  28                 [0005] (40)
4B41  01                 [0006] (41)
4B42  00                 [0007] (41)
4B43  00                 [0008] (41)
4B44  28                 [0009] (41)
4B45  01                 [0010] (41)
4B46  00                 [0011] (44)
4B47  00                 [0012] (44)
4B48  28                 [0013] (44)
4B49  01                 [0014] (44)
4B4A  00                 [0015] (45)
4B4B  00                 [0016] (45)
4B4C  28                 [0017] (45)
4B4D  01                 [0018] (45)
4B4E  00                 [0019] (45)
4B4F  00                 [0020] (46)
4B50  29                 [0021] (46)
4B51  01                 [0022] (46)
4B52  00                 [0023] (46)
4B53  00                 [0024] (46)
4B54  29                 [0025] (46)
4B55  01                 [0026] (46)
4B56  00                 [0027] (46)
4B57  00                 [0028] (47)
4B58  29                 [0029] (47)
4B59  01                 [0030] (47)
4B5A  00                 [0031] (47)
4B5B  00                 [0032] (48)
4B5C  29                 [0033] (48)
4B5D  01                 [0034] (49)
4B5E  00                 [0035] (50)
4B5F  00                 [0036] (50)
4B60  29                 [0037] (50)
4B61  01                 [0038] (51)
4B62  00                 [0039] (51)
4B63  00                 [0040] (51)
4B64  2C                 [0041] (52)
4B65  01                 [0042] (52)
4B66  00                 [0043] (52)
4B67  00                 [0044] (52)
4B68  2C                 [0045] (53)
4B69  01                 [0046] (53)
4B6A  00                 [0047] (54)
4B6B  00                 [0048] (54)
4B6C  2C                 [0049] (54)
4B6D  01                 [0050] (54)
4B6E  00                 [0051] (54)
4B6F  00                 [0052] (54)
4B70  2C                 [0053] (54)
4B71  01                 [0054] (55)
4B72  00                 [0055] (55)
4B73  00                 [0056] (55)
4B74  2D                 [0057] (55)
4B75  01                 [0058] (55)
4B76  00                 [0059] (56)
4B77  00                 [0060] (56)
4B78  2D                 [0061] (56)
4B79  01                 [0062] (56)
4B7A  00                 [0063] (56)
4B7B  00                 [0064] (56)
4B7C  2D                 [0065] (56)
4B7D  01                 [0066] (56)
4B7E  00                 [0067] (56)
4B7F  00                 [0068] (58)
4B80  2D                 [0069] (58)
4B81  01                 [0070] (59)
4B82  00                 [0071] (59)
4B83  00                 [0072] (59)
4B84  2D                 [0073] (59)
4B85  01                 [0074] (62)
4B86  00                 [0075] (62)
4B87  00                 [0076] (62)
4B88  2E                 [0077] (64)
4B89  01                 [0078] (64)
4B8A  00                 [0079] (64)
4B8B  00                 [0080] (64)
4B8C  2E                 [0081] (65)
4B8D  01                 [0082] (65)
4B8E  00                 [0083] (65)
4B8F  00                 [0084] (65)
4B90  2E                 [0085] (65)
4B91  01                 [0086] (65)
4B92  00                 [0087] (65)
4B93  00                 [0088] (65)
4B94  2E                 [0089] (65)
4B95  01                 [0090] (65)
4B96  00                 [0091] (65)
4B97  00                 [0092] (65)
4B98  2E                 [0093] (65)
4B99  01                 [0094] (66)
4B9A  00                 [0095] (66)
4B9B  00                 [0096] (66)
4B9C  2E                 [0097] (66)
4B9D  01                 [0098] (66)
4B9E  00                 [0099] (67)
4B9F  00                 [0100] (67)
4BA0  2E                 [0101] (67)
4BA1  01                 [0102] (67)
4BA2  00                 [0103] (67)
4BA3  00                 [0104] (67)
4BA4  2E                 [0105] (69)
4BA5  01                 [0106] (69)
4BA6  00                 [0107] (69)
4BA7  00                 [0108] (69)
4BA8  2F                 [0109] (69)
4BA9  01                 [0110] (69)
4BAA  00                 [0111] (69)
4BAB  00                 [0112] (69)
4BAC  2F                 [0113] (69)
4BAD  01                 [0114] (69)
4BAE  00                 [0115] (69)
4BAF  00                 [0116] (72)
4BB0  2F                 [0117] (72)
4BB1  01                 [0118] (72)
4BB2  00                 [0119] (72)
4BB3  00                 [0120] (72)
4BB4  2F                 [0121] (74)
4BB5  01                 [0122] (74)
4BB6  00                 [0123] (74)
4BB7  00                 [0124] (74)
4BB8  30                 [0125] (74)
4BB9  01                 [0126] (74)
4BBA  00                 [0127] (74)
4BBB  00                 [0128] (74)
4BBC  30                 [0129] (74)
4BBD  01                 [0130] (74)
4BBE  00                 [0131] (75)
4BBF  00                 [0132] (75)
4BC0  31                 [0133] (75)
4BC1  01                 [0134] (75)
4BC2  00                 [0135] (75)
4BC3  00                 [0136] (76)
4BC4  32                 [0137] (77)
4BC5  01                 [0138] (78)
4BC6  00                 [0139] (81)
4BC7  00                 [0140] (81)
4BC8  32                 [0141] (81)
4BC9  01                 [0142] (81)
4BCA  00                 [0143] (82)
4BCB  00                 [0144] (82)
4BCC  32                 [0145] (82)
4BCD  01                 [0146] (82)
4BCE  00                 [0147] (82)
4BCF  00                 [0148] (82)
4BD0  33                 [0149] (82)
4BD1  01                 [0150] (82)
4BD2  00                 [0151] (82)
4BD3  00                 [0152] (82)
4BD4  33                 [0153] (82)
4BD5  01                 [0154] (82)
4BD6  00                 [0155] (83)
4BD7  00                 [0156] (83)
4BD8  33                 [0157] (83)
4BD9  01                 [0158] (83)
4BDA  00                 [0159] (83)
4BDB  00                 [0160] (83)
4BDC  34                 [0161] (83)
4BDD  01                 [0162] (85)
4BDE  00                 [0163] (85)
4BDF  00                 [0164] (86)
4BE0  34                 [0165] (86)
4BE1  01                 [0166] (86)
4BE2  00                 [0167] (86)
4BE3  00                 [0168] (86)
4BE4  34                 [0169] (86)
4BE5  01                 [0170] (87)
4BE6  00                 [0171] (87)
4BE7  00                 [0172] (87)
4BE8  34                 [0173] (87)
4BE9  01                 [0174] (87)
4BEA  00                 [0175] (88)
4BEB  00                 [0176] (88)
4BEC  35                 [0177] (88)
4BED  01                 [0178] (88)
4BEE  00                 [0179] (88)
4BEF  00                 [0180] (81)
4BF0  35                 [0181] (90)
4BF1  01                 [0182] (93)
4BF2  00                 [0183] (94)
4BF3  00                 [0184] (94)
4BF4  36                 [0185] (95)
4BF5  01                 [0186] (95)
4BF6  00                 [0187] (96)
4BF7  00                 [0188] (96)
4BF8  36                 [0189] (96)
4BF9  01                 [0190] (97)
4BFA  00                 [0191] (97)
4BFB  00                 [0192] (97)
4BFC  36                 [0193] (97)
4BFD  01                 [0194] (97)
4BFE  00                 [0195] (100)
4BFF  00                 [0196] (100)
4C00  36                 [0197] (100)
4C01  01                 [0198] (100)
4C02  00                 [0199] (100)
4C03  00                 [0200] (101)
4C04  36                 [0201] (102)
4C05  01                 [0202] (102)
4C06  00                 [0203] (102)
4C07  00                 [0204] (102)
4C08  36                 [0205] (102)
4C09  01                 [0206] (102)
4C0A  00                 [0207] (102)
4C0B  00                 [0208] (103)
4C0C  36                 [0209] (103)
4C0D  01                 [0210] (103)
4C0E  00                 [0211] (103)
4C0F  00                 [0212] (103)
4C10  37                 [0213] (103)
4C11  01                 [0214] (103)
4C12  00                 [0215] (106)
4C13  00                 [0216] (106)
4C14  37                 [0217] (106)
4C15  01                 [0218] (106)
4C16  00                 [0219] (106)
4C17  00                 [0220] (107)
4C18  37                 [0221] (107)
4C19  01                 [0222] (107)
4C1A  00                 [0223] (107)
4C1B  00                 [0224] (107)
4C1C  37                 [0225] (107)
4C1D  01                 [0226] (107)
4C1E  00                 [0227] (107)
4C1F  00                 [0228] (108)
4C20  37                 [0229] (108)
4C21  01                 [0230] (108)
4C22  00                 [0231] (108)
4C23  00                 [0232] (108)
4C24  38                 [0233] (108)
4C25  01                 [0234] (108)
4C26  00                 [0235] (108)
4C27  00                 [0236] (112)
4C28  38                 [0237] (112)
4C29  01                 [0238] (113)
4C2A  00                 [0239] (113)
4C2B  00                 [0240] (113)
4C2C  38                 [0241] (113)
4C2D  01                 [0242] (113)
4C2E  00                 [0243] (113)
4C2F  00                 [0244] (113)
4C30  38                 [0245] (113)
4C31  01                 [0246] (113)
4C32  00                 [0247] (113)
4C33  00                 [0248] (113)
4C34  38                 [0249] (114)
4C35  01                 [0250] (114)
4C36  00                 [0251] (114)
4C37  00                 [0252] (114)
4C38  38                 [0253] (114)
4C39  01                 [0254] (115)
4C3A  00                 [0255] (115)
4C3B  00                 [0256] (115)
4C3C  38                 [0257] (115)
4C3D  01                 [0258] (115)
4C3E  00                 [0259] (115)
4C3F  00                 [0260] (115)
4C40  38                 [0261] (115)
4C41  01                 [0262] (120)
4C42  00                 [0263] (122)
4C43  00                 [0264] (122)
4C44  38                 [0265] (122)
4C45  01                 [0266] (122)
4C46  00                 [0267] (122)
4C47  00                 [0268] (123)
4C48  3A                 [0269] (123)
4C49  01                 [0270] (123)
4C4A  00                 [0271] (123)
4C4B  00                 [0272] (123)
4C4C  3A                 [0273] (124)
4C4D  01                 [0274] (124)
4C4E  00                 [0275] (124)
4C4F  00                 [0276] (124)
4C50  3B                 [0277] (125)
4C51  01                 [0278] (125)
4C52  00                 [0279] (125)
4C53  00                 [0280] (125)
4C54  3B                 [0281] (125)
4C55  01                 [0282] (126)
4C56  00                 [0283] (126)
4C57  00                 [0284] (126)
4C58  3B                 [0285] (126)
4C59  01                 [0286] (126)
4C5A  00                 [0287] (126)
4C5B  00                 [0288] (126)
4C5C  3B                 [0289] (126)
4C5D  01                 [0290] (126)
4C5E  00                 [0291] (-128)
4C5F  00                 [0292] (-127)
4C60  3E                 [0293] (-127)
4C61  01                 [0294] (-127)
4C62  00                 [0295] (-127)
4C63  00                 [0296] (-127)
4C64  3E                 [0297] (-127)
4C65  01                 [0298] (-127)
4C66  00                 [0299] (-127)
4C67  00                 [0300] (-127)
4C68  3E                 [0301] (-127)
4C69  01                 [0302] (-127)
4C6A  00                 [0303] (-127)
4C6B  00                 [0304] (-126)
4C6C  40                 [0305] (-126)
4C6D  01                 [0306] (-126)
4C6E  00                 [0307] (-126)
4C6F  00                 [0308] (-126)
4C70  40                 [0309] (-126)
4C71  01                 [0310] (-125)
4C72  00                 [0311] (-125)
4C73  00                 [0312] (-125)
4C74  40                 [0313] (-124)
4C75  01                 [0314] (-124)
4C76  00                 [0315] (-124)
4C77  00                 [0316] (-124)
4C78  40                 [0317] (-124)
4C79  01                 [0318] (-120)
4C7A  00                 [0319] (-120)
4C7B  00                 [0320] (-120)
4C7C  41                 [0321] (-120)
4C7D  01                 [0322] (-120)
4C7E  00                 [0323] (-120)
4C7F  00                 [0324] (-120)
4C80  41                 [0325] (-120)
4C81  01                 [0326] (-120)
4C82  00                 [0327] (-120)
4C83  00                 [0328] (-119)
4C84  41                 [0329] (-119)
4C85  01                 [0330] (-119)
4C86  00                 [0331] (-119)
4C87  00                 [0332] (-119)
4C88  41                 [0333] (-119)
4C89  01                 [0334] (-119)
4C8A  00                 [0335] (-119)
4C8B  00                 [0336] (-119)
4C8C  41                 [0337] (-119)
4C8D  01                 [0338] (-119)
4C8E  00                 [0339] (-119)
4C8F  00                 [0340] (-119)
4C90  41                 [0341] (-119)
4C91  01                 [0342] (-118)
4C92  00                 [0343] (-118)
4C93  00                 [0344] (-117)
4C94  41                 [0345] (-117)
4C95  01                 [0346] (-117)
4C96  00                 [0347] (-117)
4C97  00                 [0348] (-117)
4C98  41                 [0349] (-117)
4C99  01                 [0350] (-117)
4C9A  00                 [0351] (-117)
4C9B  00                 [0352] (-117)
4C9C  41                 [0353] (-117)
4C9D  01                 [0354] (-116)
4C9E  00                 [0355] (-116)
4C9F  00                 [0356] (-116)
4CA0  41                 [0357] (-115)
4CA1  01                 [0358] (-114)
4CA2  00                 [0359] (-113)
4CA3  00                 [0360] (-104)
4CA4  41                 [0361] (-104)
4CA5  01                 [0362] (-104)
4CA6  00                 [0363] (-104)
4CA7  00                 [0364] (-104)
4CA8  41                 [0365] (-102)
4CA9  01                 [0366] (-102)
4CAA  00                 [0367] (-102)
4CAB  00                 [0368] (-102)
4CAC  41                 [0369] (-102)
4CAD  01                 [0370] (-102)
4CAE  00                 [0371] (-98)
4CAF  00                 [0372] (-98)
4CB0  42                 [0373] (-98)
4CB1  01                 [0374] (-98)
4CB2  00                 [0375] (-98)
4CB3  00                 [0376] (-98)
4CB4  42                 [0377] (-98)
4CB5  01                 [0378] (-98)
4CB6  00                 [0379] (-98)
4CB7  00                 [0380] (-98)
4CB8  42                 [0381] (-98)
4CB9  01                 [0382] (-98)
4CBA  00                 [0383] (-98)
4CBB  00                 [0384] (-98)
4CBC  42                 [0385] (-98)
4CBD  01                 [0386] (-98)
4CBE  00                 [0387] (-98)
4CBF  00                 [0388] (-98)
4CC0  42                 [0389] (-98)
4CC1  01                 [0390] (-98)
4CC2  00                 [0391] (-97)
4CC3  00                 [0392] (-97)
4CC4  43                 [0393] (-97)
4CC5  01                 [0394] (-96)
4CC6  00                 [0395] (-96)
4CC7  00                 [0396] (-96)
4CC8  43                 [0397] (-95)
4CC9  01                 [0398] (-95)
4CCA  00                 [0399] (-95)
4CCB  00                 [0400] (-95)
4CCC  43                 [0401] (-95)
4CCD  01                 [0402] (-95)
4CCE  00                 [0403] (-94)
4CCF  00                 [0404] (-94)
4CD0  43                 [0405] (-94)
4CD1  01                 [0406] (-94)
4CD2  00                 [0407] (-94)
4CD3  00                 [0408] (-94)
4CD4  43                 [0409] (-93)
4CD5  01                 [0410] (-93)
4CD6  00                 [0411] (-93)
4CD7  00                 [0412] (-93)
4CD8  43                 [0413] (-92)
4CD9  01                 [0414] (-92)
4CDA  00                 [0415] (-92)
4CDB  00                 [0416] (-92)
4CDC  45                 [0417] (-91)
4CDD  01                 [0418] (-91)
4CDE  00                 [0419] (-91)
4CDF  00                 [0420] (-91)
4CE0  45                 [0421] (-91)
4CE1  01                 [0422] (-90)
4CE2  00                 [0423] (-90)
4CE3  00                 [0424] (-90)
4CE4  45                 [0425] (-90)
4CE5  01                 [0426] (-90)
4CE6  00                 [0427] (-89)
4CE7  00                 [0428] (-89)
4CE8  45                 [0429] (-89)
4CE9  01                 [0430] (-89)
4CEA  00                 [0431] (-88)
4CEB  00                 [0432] (-88)
4CEC  45                 [0433] (-88)
4CED  01                 [0434] (-88)
4CEE  00                 [0435] (-86)
4CEF  00                 [0436] (-85)
4CF0  45                 [0437] (-85)
4CF1  01                 [0438] (-85)
4CF2  00                 [0439] (-84)
4CF3  00                 [0440] (-84)
4CF4  45                 [0441] (-84)
4CF5  01                 [0442] (-84)
4CF6  00                 [0443] (-83)
4CF7  00                 [0444] (-83)
4CF8  45                 [0445] (-83)
4CF9  01                 [0446] (-83)
4CFA  00                 [0447] (-83)
4CFB  00                 [0448] (-83)
4CFC  45                 [0449] (-83)
4CFD  01                 [0450] (-82)
4CFE  00                 [0451] (-82)
4CFF  00                 [0452] (-81)
4D00  45                 [0453] (-84)
4D01  01                 [0454] (-77)
4D02  00                 [0455] (-76)
4D03  00                 [0456] (-76)
4D04  45                 [0457] (-75)
4D05  01                 [0458] (-75)
4D06  00                 [0459] (-75)
4D07  00                 [0460] (-75)
4D08  48                 [0461] (-75)
4D09  01                 [0462] (-75)
4D0A  00                 [0463] (-75)
4D0B  00                 [0464] (-75)
4D0C  48                 [0465] (-75)
4D0D  01                 [0466] (-75)
4D0E  00                 [0467] (-74)
4D0F  00                 [0468] (-74)
4D10  48                 [0469] (-73)
4D11  01                 [0470] (-73)
4D12  00                 [0471] (-73)
4D13  00                 [0472] (-73)
4D14  48                 [0473] (-73)
4D15  01                 [0474] (-73)
4D16  00                 [0475] (-73)
4D17  00                 [0476] (-73)
4D18  48                 [0477] (-73)
4D19  01                 [0478] (-70)
4D1A  00                 [0479] (-69)
4D1B  00                 [0480] (-69)
4D1C  4A                 [0481] (-69)
4D1D  01                 [0482] (-69)
4D1E  00                 [0483] (-69)
4D1F  00                 [0484] (-69)
4D20  4A                 [0485] (-69)
4D21  01                 [0486] (-69)
4D22  00                 [0487] (-67)
4D23  00                 [0488] (-67)
4D24  4A                 [0489] (-67)
4D25  01                 [0490] (-67)
4D26  00                 [0491] (-67)
4D27  00                 [0492] (-67)
4D28  4A                 [0493] (-67)
4D29  01                 [0494] (-67)
4D2A  00                 [0495] (-67)
4D2B  00                 [0496] (-67)
4D2C  4A                 [0497] (-67)
4D2D  01                 [0498] (-67)
4D2E  00                 [0499] (-67)
4D2F  00                 [0500] (-67)
4D30  4A                 [0501] (-67)
4D31  01                 [0502] (-67)
4D32  00                 [0503] (-67)
4D33  00                 [0504] (-67)
4D34  4A                 [0505] (-67)
4D35  01                 [0506] (-66)
4D36  00                 [0507] (-66)
4D37  00                 [0508] (-66)
4D38  4A                 [0509] (-66)
4D39  01                 [0510] (-66)
4D3A  00                 [0511] (-66)
4D3B  00                 [0512] (-66)
4D3C  4A                 [0513] (-66)
4D3D  01                 [0514] (-66)
4D3E  00                 [0515] (-66)
4D3F  00                 [0516] (-66)
4D40  4A                 [0517] (-66)
4D41  01                 [0518] (-66)
4D42  00                 [0519] (-66)
4D43  00                 [0520] (-66)
4D44  4B                 [0521] (-66)
4D45  01                 [0522] (-66)
4D46  00                 [0523] (-66)
4D47  00                 [0524] (-66)
4D48  4B                 [0525] (-66)
4D49  01                 [0526] (-66)
4D4A  00                 [0527] (-66)
4D4B  00                 [0528] (-66)
4D4C  4B                 [0529] (-66)
4D4D  01                 [0530] (-65)
4D4E  00                 [0531] (-65)
4D4F  00                 [0532] (-65)
4D50  4B                 [0533] (-65)
4D51  01                 [0534] (-65)
4D52  00                 [0535] (-65)
4D53  00                 [0536] (-65)
4D54  4B                 [0537] (-65)
4D55  01                 [0538] (-65)
4D56  00                 [0539] (-64)
4D57  00                 [0540] (-64)
4D58  4C                 [0541] (-64)
4D59  01                 [0542] (-64)
4D5A  00                 [0543] (-62)
4D5B  00                 [0544] (-62)
4D5C  4D                 [0545] (-61)
4D5D  01                 [0546] (-61)
4D5E  00                 [0547] (-61)
4D5F  00                 [0548] (-61)
4D60  4E                 [0549] (-61)
4D61  01                 [0550] (-59)
4D62  00                 [0551] (-59)
4D63  00                 [0552] (-59)
4D64  51                 [0553] (-59)
4D65  01                 [0554] (-59)
4D66  00                 [0555] (-59)
4D67  00                 [0556] (-59)
4D68  51                 [0557] (-59)
4D69  01                 [0558] (-59)
4D6A  00                 [0559] (-59)
4D6B  00                 [0560] (-59)
4D6C  51                 [0561] (-59)
4D6D  01                 [0562] (-59)
4D6E  00                 [0563] (-57)
4D6F  00                 [0564] (-57)
4D70  51                 [0565] (-57)
4D71  01                 [0566] (-54)
4D72  00                 [0567] (-54)
4D73  00                 [0568] (-53)
4D74  52                 [0569] (-52)
4D75  01                 [0570] (-52)
4D76  00                 [0571] (-52)
4D77  00                 [0572] (-52)
4D78  52                 [0573] (-52)
4D79  01                 [0574] (-50)
4D7A  00                 [0575] (-50)
4D7B  00                 [0576] (-50)
4D7C  52                 [0577] (-50)
4D7D  01                 [0578] (-50)
4D7E  00                 [0579] (-50)
4D7F  00                 [0580] (-50)
4D80  52                 [0581] (-50)
4D81  01                 [0582] (-49)
4D82  00                 [0583] (-49)
4D83  00                 [0584] (-49)
4D84  52                 [0585] (-49)
4D85  01                 [0586] (-49)
4D86  00                 [0587] (123)
4D87  00                 [0588] (-48)
4D88  52                 [0589] (-44)
4D89  01                 [0590] (-44)
4D8A  00                 [0591] (-44)
4D8B  00                 [0592] (-35)
4D8C  52                 [0593] (-44)
4D8D  01                 [0594] (-33)
4D8E  00                 [0595] (-33)
4D8F  00                 [0596] (-33)
4D90  52                 [0597] (-33)
4D91  01                 [0598] (-32)
4D92  00                 [0599] (-32)
4D93  00                 [0600] (-32)
4D94  52                 [0601] (-32)
4D95  01                 [0602] (-32)
4D96  00                 [0603] (-33)
4D97  00                 [0604] (-32)
4D98  52                 [0605] (-28)
4D99  01                 [0606] (-28)
4D9A  00                 [0607] (-28)
4D9B  00                 [0608] (-28)
4D9C  52                 [0609] (-28)
4D9D  01                 [0610] (-27)
4D9E  00                 [0611] (-27)
4D9F  00                 [0612] (-27)
4DA0  52                 [0613] (-26)
4DA1  01                 [0614] (-26)
4DA2  00                 [0615] (-25)
4DA3  00                 [0616] (-24)
4DA4  53                 [0617] (-23)
4DA5  01                 [0618] (-22)
4DA6  00                 [0619] (-22)
4DA7  00                 [0620] (-21)
4DA8  53                 [0621] (-19)
4DA9  01                 [0622] (-19)
4DAA  00                 [0623] (-19)
4DAB  00                 [0624] (-19)
4DAC  53                 [0625] (-19)
4DAD  01                 [0626] (-19)
4DAE  00                 [0627] (-19)
4DAF  00                 [0628] (-19)
4DB0  53                 [0629] (-19)
4DB1  01                 [0630] (-18)
4DB2  00                 [0631] (-16)
4DB3  00                 [0632] (-15)
4DB4  53                 [0633] (-14)
4DB5  01                 [0634] (-14)
4DB6  00                 [0635] (-14)
4DB7  00                 [0636] (-14)
4DB8  53                 [0637] (-13)
4DB9  01                 [0638] (-12)
4DBA  00                 [0639] (-12)
4DBB  00                 [0640] (-12)
4DBC  53                 [0641] (-12)
4DBD  01                 [0642] (-12)
4DBE  00                 [0643] (-12)
4DBF  00                 [0644] (-12)
4DC0  55                 [0645] (-12)
4DC1  01                 [0646] (-12)
4DC2  00                 [0647] (-12)
4DC3  00                 [0648] (-12)
4DC4  55                 [0649] (-12)
4DC5  01                 [0650] (-12)
4DC6  00                 [0651] (-12)
4DC7  00                 [0652] (-12)
4DC8  56                 [0653] (-12)
4DC9  01                 [0654] (-12)
4DCA  00                 [0655] (-11)
4DCB  00                 [0656] (-10)
4DCC  56                 [0657] (-10)
4DCD  01                 [0658] (-10)
4DCE  00                 [0659] (-9)
4DCF  00                 [0660] (-8)
4DD0  56                 [0661] (-8)
4DD1  01                 [0662] (-8)
4DD2  00                 [0663] (-8)
4DD3  00                 [0664] (-8)
4DD4  56                 [0665] (-8)
4DD5  01                 [0666] (-8)
4DD6  00                 [0667] (-8)
4DD7  00                 [0668] (-8)
4DD8  56                 [0669] (-6)
4DD9  01                 [0670] (-4)
4DDA  00                 [0671] (-4)
4DDB  00                 [0672] (-4)
4DDC  56                 [0673] (-4)
4DDD  01                 [0674] (-4)
4DDE  00                 [0675] (-3)
4DDF  00                 [0676] (-3)
4DE0  57                 [0677] (-2)
4DE1  01                 [0678] (-2)
4DE2  00                 [0679] (-1)
4DE3  00                 [0680] (-1)
4DE4  57                 [0681] (-1)
4DE5  01                 [0682] (-1)
4DE6  00                 [0683] (-1)
4DE7  00                 [0684] (-1)
4DE8  57                 [0685] (-1)
4DE9  01                 [0686] (-1)
4DEA  00                 [0687] (-1)
4DEB  00                 [0688] (-1)
4DEC  57                 [0689] (-1)
4DED  01                 [0690] (-1)
4DEE  00                 [0691] (-1)
4DEF  00                 [0692] (-1)
4DF0  57                 [0693] (-1)
4DF1  01                 [0694] (0)
4DF2  00                 [0695] (0)
4DF3  00                 [0696] (0)
4DF4  58                 [0697] (0)
4DF5  01                 [0698] (1)
4DF6  00                 [0699] (2)
4DF7  00                 [0700] (3)
4DF8  58                 [0701] (4)
4DF9  01                 [0702] (4)
4DFA  00                 [0703] (4)
4DFB  00                 [0704] (4)
4DFC  58                 [0705] (4)
4DFD  01                 [0706] (5)
4DFE  00                 [0707] (6)
4DFF  00                 [0708] (6)
4E00  58                 [0709] (0)
4E01  01                 [0710] (7)
4E02  00                 [0711] (8)
4E03  00                 [0712] (8)
4E04  58                 [0713] (8)
4E05  01                 [0714] (9)
4E06  00                 [0715] (-14)
4E07  00                 [0716] (11)
4E08  51                 [0717] (13)
4E09  01                 [0718] (13)
4E0A  00                 [0719] (13)
4E0B  00                 [0720] (13)
4E0C  5A                 [0721] (13)
4E0D  01                 [0722] (13)
4E0E  00                 [0723] (13)
4E0F  00                 [0724] (13)
4E10  5D                 [0725] (13)
4E11  01                 [0726] (13)
4E12  00                 [0727] (15)
4E13  00                 [0728] (15)
4E14  5E                 [0729] (15)
4E15  01                 [0730] (15)
4E16  00                 [0731] (15)
4E17  00                 [0732] (17)
4E18  5E                 [0733] (17)
4E19  01                 [0734] (17)
4E1A  00                 [0735] (20)
4E1B  00                 [0736] (17)
4E1C  5F                 [0737] (22)
4E1D  01                 [0738] (22)
4E1E  00                 [0739] (22)
4E1F  00                 [0740] (22)
4E20  5F                 [0741] (22)
4E21  01                 [0742] (23)
4E22  00                 [0743] (23)
4E23  00                 [0744] (23)
4E24  60                 [0745] (23)
4E25  01                 [0746] (24)
4E26  00                 [0747] (24)
4E27  00                 [0748] (24)
4E28  60                 [0749] (24)
4E29  01                 [0750] (24)
4E2A  00                 [0751] (23)
4E2B  00                 [0752] (28)
4E2C  60                 [0753] (28)
4E2D  01                 [0754] (28)
4E2E  00                 [0755] (28)
4E2F  00                 [0756] (28)
4E30  61                 [0757] (29)
4E31  01                 [0758] (29)
4E32  00                 [0759] (29)
4E33  00                 [0760] (30)
4E34  61                 [0761] (31)
4E35  01                 [0762] (31)
4E36  00                 [0763] (31)
4E37  00                 [0764] (32)
4E38  61                 [0765] (32)
4E39  01                 [0766] (32)
4E3A  00                 [0767] (32)
4E3B  00                 [0768] (32)
4E3C  61                 [0769] (32)
4E3D  01                 [0770] (32)
4E3E  00                 [0771] (32)
4E3F  00                 [0772] (32)
4E40  61                 [0773] (33)
4E41  01                 [0774] (33)
4E42  00                 [0775] (33)
4E43  00                 [0776] (33)
4E44  64                 [0777] (33)
4E45  01                 [0778] (33)
4E46  00                 [0779] (33)
4E47  00                 [0780] (33)
4E48  64                 [0781] (33)
4E49  01                 [0782] (28)
4E4A  00                 [0783] (34)
4E4B  00                 [0784] (37)
4E4C  64                 [0785] (37)
4E4D  01                 [0786] (37)
4E4E  00                 [0787] (37)
4E4F  00                 [0788] (38)
4E50  64                 [0789] (38)
4E51  01                 [0790] (38)
4E52  00                 [0791] (40)
4E53  00                 [0792] (40)
4E54  64                 [0793] (40)
4E55  01                 [0794] (40)
4E56  00                 [0795] (40)
4E57  00                 [0796] (41)
4E58  65                 [0797] (41)
4E59  01                 [0798] (41)
4E5A  00                 [0799] (41)
4E5B  00                 [0800] (41)
4E5C  66                 [0801] (43)
4E5D  01                 [0802] (43)
4E5E  00                 [0803] (43)
4E5F  00                 [0804] (43)
4E60  66                 [0805] (44)
4E61  01                 [0806] (44)
4E62  00                 [0807] (44)
4E63  00                 [0808] (44)
4E64  66                 [0809] (44)
4E65  01                 [0810] (44)
4E66  00                 [0811] (44)
4E67  00                 [0812] (44)
4E68  66                 [0813] (45)
4E69  01                 [0814] (45)
4E6A  00                 [0815] (45)
4E6B  00                 [0816] (46)
4E6C  66                 [0817] (46)
4E6D  01                 [0818] (46)
4E6E  00                 [0819] (46)
4E6F  00                 [0820] (46)
4E70  66                 [0821] (46)
4E71  01                 [0822] (47)
4E72  00                 [0823] (47)
4E73  00                 [0824] (47)
4E74  66                 [0825] (47)
4E75  01                 [0826] (47)
4E76  00                 [0827] (47)
4E77  00                 [0828] (47)
4E78  67                 [0829] (47)
4E79  01                 [0830] (47)
4E7A  00                 [0831] (48)
4E7B  00                 [0832] (48)
4E7C  67                 [0833] (48)
4E7D  01                 [0834] (48)
4E7E  00                 [0835] (49)
4E7F  00                 [0836] (49)
4E80  67                 [0837] (49)
4E81  01                 [0838] (49)
4E82  00                 [0839] (49)
4E83  00                 [0840] (49)
4E84  67                 [0841] (49)
4E85  01                 [0842] (49)
4E86  00                 [0843] (49)
4E87  00                 [0844] (49)
4E88  67                 [0845] (49)
4E89  01                 [0846] (49)
4E8A  00                 [0847] (49)
4E8B  00                 [0848] (51)
4E8C  67                 [0849] (51)
4E8D  01                 [0850] (51)
4E8E  00                 [0851] (51)
4E8F  00                 [0852] (51)
4E90  67                 [0853] (51)
4E91  01                 [0854] (51)
4E92  00                 [0855] (51)
4E93  00                 [0856] (51)
4E94  6A                 [0857] (51)
4E95  01                 [0858] (41)
4E96  00                 [0859] (52)
4E97  00                 [0860] (58)
4E98  6A                 [0861] (59)
4E99  01                 [0862] (60)
4E9A  00                 [0863] (61)
4E9B  00                 [0864] (61)
4E9C  6A                 [0865] (62)
4E9D  01                 [0866] (63)
4E9E  00                 [0867] (63)
4E9F  00                 [0868] (63)
4EA0  6A                 [0869] (63)
4EA1  01                 [0870] (63)
4EA2  00                 [0871] (63)
4EA3  00                 [0872] (63)
4EA4  6A                 [0873] (63)
4EA5  01                 [0874] (63)
4EA6  00                 [0875] (64)
4EA7  00                 [0876] (64)
4EA8  6B                 [0877] (64)
4EA9  01                 [0878] (64)
4EAA  00                 [0879] (64)
4EAB  00                 [0880] (64)
4EAC  6B                 [0881] (64)
4EAD  01                 [0882] (65)
4EAE  00                 [0883] (65)
4EAF  00                 [0884] (65)
4EB0  6B                 [0885] (65)
4EB1  01                 [0886] (65)
4EB2  00                 [0887] (66)
4EB3  00                 [0888] (66)
4EB4  6B                 [0889] (67)
4EB5  01                 [0890] (67)
4EB6  00                 [0891] (68)
4EB7  00                 [0892] (70)
4EB8  6B                 [0893] (70)
4EB9  01                 [0894] (72)
4EBA  00                 [0895] (72)
4EBB  00                 [0896] (72)
4EBC  6B                 [0897] (72)
4EBD  01                 [0898] (72)
4EBE  00                 [0899] (73)
4EBF  00                 [0900] (73)
4EC0  6B                 [0901] (73)
4EC1  01                 [0902] (73)
4EC2  00                 [0903] (74)
4EC3  00                 [0904] (74)
4EC4  6B                 [0905] (74)
4EC5  01                 [0906] (74)
4EC6  00                 [0907] (74)
4EC7  00                 [0908] (75)
4EC8  6C                 [0909] (76)
4EC9  01                 [0910] (76)
4ECA  00                 [0911] (76)
4ECB  00                 [0912] (76)
4ECC  6C                 [0913] (76)
4ECD  01                 [0914] (76)
4ECE  00                 [0915] (76)
4ECF  00                 [0916] (76)
4ED0  6C                 [0917] (76)
4ED1  01                 [0918] (76)
4ED2  00                 [0919] (76)
4ED3  00                 [0920] (77)
4ED4  6C                 [0921] (77)
4ED5  01                 [0922] (77)
4ED6  00                 [0923] (77)
4ED7  00                 [0924] (77)
4ED8  6C                 [0925] (77)
4ED9  01                 [0926] (77)
4EDA  00                 [0927] (77)
4EDB  00                 [0928] (77)
4EDC  6C                 [0929] (77)
4EDD  01                 [0930] (77)
4EDE  00                 [0931] (77)
4EDF  00                 [0932] (77)
4EE0  6C                 [0933] (77)
4EE1  01                 [0934] (77)
4EE2  00                 [0935] (77)
4EE3  00                 [0936] (77)
4EE4  6C                 [0937] (77)
4EE5  01                 [0938] (77)
4EE6  00                 [0939] (77)
4EE7  00                 [0940] (77)
4EE8  70                 [0941] (77)
4EE9  01                 [0942] (77)
4EEA  00                 [0943] (77)
4EEB  00                 [0944] (77)
4EEC  70                 [0945] (77)
4EED  01                 [0946] (77)
4EEE  00                 [0947] (72)
4EEF  00                 [0948] (101)
4EF0  71                 [0949] (101)
4EF1  01                 [0950] (101)
4EF2  00                 [0951] (101)
4EF3  00                 [0952] (101)
4EF4  71                 [0953] (102)
4EF5  01                 [0954] (102)
4EF6  00                 [0955] (102)
4EF7  00                 [0956] (102)
4EF8  71                 [0957] (104)
4EF9  01                 [0958] (104)
4EFA  00                 [0959] (104)
4EFB  00                 [0960] (104)
4EFC  71                 [0961] (104)
4EFD  01                 [0962] (104)
4EFE  00                 [0963] (107)
4EFF  00                 [0964] (107)
4F00  71                 [0965] (107)
4F01  01                 [0966] (107)
4F02  00                 [0967] (107)
4F03  00                 [0968] (108)
4F04  71                 [0969] (108)
4F05  01                 [0970] (108)
4F06  00                 [0971] (108)
4F07  00                 [0972] (108)
4F08  71                 [0973] (108)
4F09  01                 [0974] (108)
4F0A  00                 [0975] (108)
4F0B  00                 [0976] (108)
4F0C  71                 [0977] (110)
4F0D  01                 [0978] (110)
4F0E  00                 [0979] (110)
4F0F  00                 [0980] (112)
4F10  71                 [0981] (113)
4F11  01                 [0982] (115)
4F12  00                 [0983] (115)
4F13  00                 [0984] (115)
4F14  71                 [0985] (116)
4F15  01                 [0986] (117)
4F16  00                 [0987] (117)
4F17  00                 [0988] (117)
4F18  71                 [0989] (117)
4F19  01                 [0990] (118)
4F1A  00                 [0991] (118)
4F1B  00                 [0992] (118)
4F1C  72                 [0993] (118)
4F1D  01                 [0994] (119)
4F1E  00                 [0995] (119)
4F1F  00                 [0996] (120)
4F20  72                 [0997] (120)
4F21  01                 [0998] (120)
4F22  00                 [0999] (121)
4F23  00                 [1000] (121)
4F24  72                 [1001] (121)
4F25  01                 [1002] (121)
4F26  00                 [1003] (121)
4F27  00                 [1004] (121)
4F28  72                 [1005] (122)
4F29  01                 [1006] (122)
4F2A  00                 [1007] (123)
4F2B  00                 [1008] (123)
4F2C  72                 [1009] (123)
4F2D  01                 [1010] (117)
4F2E  00                 [1011] (125)
4F2F  00                 [1012] (125)
4F30  73                 [1013] (125)
4F31  01                 [1014] (126)
4F32  00                 [1015] (126)
4F33  00                 [1016] (126)
4F34  73                 [1017] (126)
4F35  01                 [1018] (126)
4F36  00                 [1019] (126)
4F37  00                 [1020] (126)
4F38  73                 [1021] (126)
4F39  01                 [1022] (-127)
4F3A  00                 [1023] (-126)
4F3B  00                 [1024] (-126)
4F3C  73                 [1025] (-126)
4F3D  01                 [1026] (-126)
4F3E  00                 [1027] (-126)
4F3F  00                 [1028] (-125)
4F40  73                 [1029] (-125)
4F41  01                 [1030] (-125)
4F42  00                 [1031] (-125)
4F43  00                 [1032] (-125)
4F44  73                 [1033] (-125)
4F45  01                 [1034] (-125)
4F46  00                 [1035] (-125)
4F47  00                 [1036] (-125)
4F48  73                 [1037] (-125)
4F49  01                 [1038] (-125)
4F4A  00                 [1039] (-125)
4F4B  00                 [1040] (-125)
4F4C  73                 [1041] (-124)
4F4D  01                 [1042] (-124)
4F4E  00                 [1043] (-124)
4F4F  00                 [1044] (-124)
4F50  78                 [1045] (-124)
4F51  01                 [1046] (-124)
4F52  00                 [1047] (-124)
4F53  00                 [1048] (-124)
4F54  7A                 [1049] (-124)
4F55  01                 [1050] (-124)
4F56  00                 [1051] (-124)
4F57  00                 [1052] (-124)
4F58  7A                 [1053] (-124)
4F59  01                 [1054] (-123)
4F5A  00                 [1055] (-123)
4F5B  00                 [1056] (-123)
4F5C  7A                 [1057] (-123)
4F5D  01                 [1058] (-123)
4F5E  00                 [1059] (-123)
4F5F  00                 [1060] (-123)
4F60  7A                 [1061] (-123)
4F61  01                 [1062] (-123)
4F62  00                 [1063] (-123)
4F63  00                 [1064] (-123)
4F64  7A                 [1065] (-123)
4F65  01                 [1066] (-122)
4F66  00                 [1067] (-122)
4F67  00                 [1068] (-122)
4F68  7B                 [1069] (-122)
4F69  01                 [1070] (-120)
4F6A  00                 [1071] (-119)
4F6B  00                 [1072] (-119)
4F6C  7B                 [1073] (-119)
4F6D  01                 [1074] (-119)
4F6E  00                 [1075] (-119)
4F6F  00                 [1076] (-119)
4F70  7B                 [1077] (-119)
4F71  01                 [1078] (-119)
4F72  00                 [1079] (-119)
4F73  00                 [1080] (-119)
4F74  7B                 [1081] (-119)
4F75  01                 [1082] (-119)
4F76  00                 [1083] (-119)
4F77  00                 [1084] (-119)
4F78  7B                 [1085] (-117)
4F79  01                 [1086] (-117)
4F7A  00                 [1087] (-117)
4F7B  00                 [1088] (-117)
4F7C  7C                 [1089] (-117)
4F7D  01                 [1090] (-117)
4F7E  00                 [1091] (-116)
4F7F  00                 [1092] (-116)
4F80  7C                 [1093] (-116)
4F81  01                 [1094] (-116)
4F82  00                 [1095] (-116)
4F83  00                 [1096] (-116)
4F84  7C                 [1097] (-116)
4F85  01                 [1098] (-116)
4F86  00                 [1099] (-116)
4F87  00                 [1100] (-116)
4F88  7C                 [1101] (-116)
4F89  01                 [1102] (-116)
4F8A  00                 [1103] (-116)
4F8B  00                 [1104] (-116)
4F8C  7D                 [1105] (-116)
4F8D  01                 [1106] (-116)
4F8E  00                 [1107] (-116)
4F8F  00                 [1108] (-116)
4F90  7D                 [1109] (-116)
4F91  01                 [1110] (-115)
                         * locals:
5C94  00                 sizelocvars (0)
                         * upvalues:
5C95  00                 sizeupvalues (0)
                         ** end of function **

                         
5C96                     ** function [5] definition (level 2)
                         ** start of function **
5C96  00                 string size (0)
                         source name: (none)
5C98  05                 line defined (655)
5C99  BF                 last line defined (703)
5C9A  05                 nups (1)
5C9B  01                 numparams (0)
5C9C  00                 is_vararg (0)
5C9D  00                 maxstacksize (4)
                         * code:
5C9F  25                 sizecode (37)
5CA0  1D000000           [01] getglobal  0   0        ; 849075268
5CA4  59400000           [02] loadk      1   1        ; "EE.Interface.Components.List"
5CA8  22800001           [03] call       0   2   2  
5CAC  4E804000           [04] gettable   1   0   258  ; -1274155969
5CB0  9DC00000           [05] getglobal  2   3        ; mMovie
5CB4  D9000100           [06] loadk      3   4        ; "QuestLine"
5CB8  62808001           [07] call       1   3   2  
fail op	8
5CBC  48000000           [08] setupval   1   0      
5CC0  53000000           [09] getupval   1   0      
5CC4  4C80C182           [10] settable   1   261 262  ; "mForcedVerticalSeparation" 0
5CC8  53000000           [11] getupval   1   0      
5CCC  4C00C283           [12] settable   1   263 264  ; "mElementTransitionTime" 51
5CD0  53000000           [13] getupval   1   0      
5CD4  4C80C284           [14] settable   1   265 266  ; "mElementDelayTime" -51
5CD8  53000000           [15] getupval   1   0      
5CDC  4C00C385           [16] settable   1   267 268  ; "mTransitionInDeltaY" 0
5CE0  53000000           [17] getupval   1   0      
5CE4  4C00C386           [18] settable   1   269 268  ; "mTransitionOutDeltaY" 0
5CE8  53000000           [19] getupval   1   0      
5CEC  A5000000           [20] closure    2   0      
5CF0  4C800087           [21] settable   1   270 2    ; "mOnFocusedCallback"
5CF4  53000000           [22] getupval   1   0      
5CF8  A5400000           [23] closure    2   1      
5CFC  4C808087           [24] settable   1   271 2    ; "mOnUnfocusedCallback"
5D00  53000000           [25] getupval   1   0      
5D04  A5800000           [26] closure    2   2      
5D08  4C800088           [27] settable   1   272 2    ; "mOnSelectedCallback"
5D0C  53000000           [28] getupval   1   0      
5D10  A5C00000           [29] closure    2   3      
5D14  4C808088           [30] settable   1   273 2    ; "mElementDrawCallback"
5D18  53000000           [31] getupval   1   0      
5D1C  A5000100           [32] closure    2   4      
5D20  4C800089           [33] settable   1   274 2    ; "SetupPreInterpolationValues"
5D24  53000000           [34] getupval   1   0      
5D28  A5400100           [35] closure    2   5      
5D2C  4C808089           [36] settable   1   275 2    ; "GetInterpolationProperties"
5D30  1E008000           [37] return     0   1      
                         * constants:
5D34  14                 sizek (20)
5D35  01                 const type 3
5D36  44DC9B32           const [0]: (849075268)
5D3A  04                 const type 4
5D3B  1D                 string size (29)
5D3C  45452E496E746572+  "EE.Inter"
5D44  666163652E436F6D+  "face.Com"
5D4C  706F6E656E74732E+  "ponents."
5D54  4C69737400         "List\0"
                         const [1]: "EE.Interface.Components.List"
5D59  01                 const type 3
5D5A  3FEC0DB4           const [2]: (-1274155969)
5D5E  04                 const type 4
5D5F  07                 string size (7)
5D60  6D4D6F76696500     "mMovie\0"
                         const [3]: "mMovie"
5D67  04                 const type 4
5D68  0A                 string size (10)
5D69  51756573744C696E+  "QuestLin"
5D71  6500               "e\0"
                         const [4]: "QuestLine"
5D73  04                 const type 4
5D74  1A                 string size (26)
5D75  6D466F7263656456+  "mForcedV"
5D7D  6572746963616C53+  "erticalS"
5D85  657061726174696F+  "eparatio"
5D8D  6E00               "n\0"
                         const [5]: "mForcedVerticalSeparation"
5D8F  03                 const type 3
5D90  00004041           const [6]: (0)
5D94  04                 const type 4
5D95  17                 string size (23)
5D96  6D456C656D656E74+  "mElement"
5D9E  5472616E73697469+  "Transiti"
5DA6  6F6E54696D6500     "onTime\0"
                         const [7]: "mElementTransitionTime"
5DAD  03                 const type 3
5DAE  3333B33E           const [8]: (51)
5DB2  04                 const type 4
5DB3  12                 string size (18)
5DB4  6D456C656D656E74+  "mElement"
5DBC  44656C617954696D+  "DelayTim"
5DC4  6500               "e\0"
                         const [9]: "mElementDelayTime"
5DC6  03                 const type 3
5DC7  CDCCCC3D           const [10]: (-51)
5DCB  04                 const type 4
5DCC  14                 string size (20)
5DCD  6D5472616E736974+  "mTransit"
5DD5  696F6E496E44656C+  "ionInDel"
5DDD  74615900           "taY\0"
                         const [11]: "mTransitionInDeltaY"
5DE1  03                 const type 3
5DE2  00000000           const [12]: (0)
5DE6  04                 const type 4
5DE7  15                 string size (21)
5DE8  6D5472616E736974+  "mTransit"
5DF0  696F6E4F75744465+  "ionOutDe"
5DF8  6C74615900         "ltaY\0"
                         const [13]: "mTransitionOutDeltaY"
5DFD  04                 const type 4
5DFE  13                 string size (19)
5DFF  6D4F6E466F637573+  "mOnFocus"
5E07  656443616C6C6261+  "edCallba"
5E0F  636B00             "ck\0"
                         const [14]: "mOnFocusedCallback"
5E12  04                 const type 4
5E13  15                 string size (21)
5E14  6D4F6E556E666F63+  "mOnUnfoc"
5E1C  7573656443616C6C+  "usedCall"
5E24  6261636B00         "back\0"
                         const [15]: "mOnUnfocusedCallback"
5E29  04                 const type 4
5E2A  14                 string size (20)
5E2B  6D4F6E53656C6563+  "mOnSelec"
5E33  74656443616C6C62+  "tedCallb"
5E3B  61636B00           "ack\0"
                         const [16]: "mOnSelectedCallback"
5E3F  04                 const type 4
5E40  15                 string size (21)
5E41  6D456C656D656E74+  "mElement"
5E49  4472617743616C6C+  "DrawCall"
5E51  6261636B00         "back\0"
                         const [17]: "mElementDrawCallback"
5E56  04                 const type 4
5E57  1C                 string size (28)
5E58  5365747570507265+  "SetupPre"
5E60  496E746572706F6C+  "Interpol"
5E68  6174696F6E56616C+  "ationVal"
5E70  75657300           "ues\0"
                         const [18]: "SetupPreInterpolationValues"
5E74  04                 const type 4
5E75  1B                 string size (27)
5E76  476574496E746572+  "GetInter"
5E7E  706F6C6174696F6E+  "polation"
5E86  50726F7065727469+  "Properti"
5E8E  657300             "es\0"
                         const [19]: "GetInterpolationProperties"
                         * functions:
5E91  06                 sizep (6)
                         
5E92                     ** function [0] definition (level 3)
                         ** start of function **
5E92  00                 string size (0)
                         source name: (none)
5E94  05                 line defined (664)
5E95  99                 last line defined (665)
5E96  05                 nups (0)
5E97  00                 numparams (1)
5E98  01                 is_vararg (0)
5E99  00                 maxstacksize (2)
                         * code:
5E9B  01                 sizecode (1)
5E9C  1E008000           [1] return     0   1      
                         * constants:
5EA0  00                 sizek (0)
                         * functions:
5EA1  00                 sizep (0)
                         * lines:
5EA2  01                 sizelineinfo (1)
                         [pc] (line)
5EA3  99                 [1] (-103)
                         * locals:
5EA7  00                 sizelocvars (0)
                         * upvalues:
5EA8  00                 sizeupvalues (0)
                         ** end of function **

                         
5EA9                     ** function [1] definition (level 3)
                         ** start of function **
5EA9  00                 string size (0)
                         source name: (none)
5EAB  05                 line defined (667)
5EAC  9C                 last line defined (668)
5EAD  05                 nups (0)
5EAE  00                 numparams (1)
5EAF  01                 is_vararg (0)
5EB0  00                 maxstacksize (2)
                         * code:
5EB2  01                 sizecode (1)
5EB3  1E008000           [1] return     0   1      
                         * constants:
5EB7  00                 sizek (0)
                         * functions:
5EB8  00                 sizep (0)
                         * lines:
5EB9  01                 sizelineinfo (1)
                         [pc] (line)
5EBA  9C                 [1] (-100)
                         * locals:
5EBE  00                 sizelocvars (0)
                         * upvalues:
5EBF  00                 sizeupvalues (0)
                         ** end of function **

                         
5EC0                     ** function [2] definition (level 3)
                         ** start of function **
5EC0  00                 string size (0)
                         source name: (none)
5EC2  05                 line defined (670)
5EC3  9F                 last line defined (671)
5EC4  05                 nups (0)
5EC5  00                 numparams (1)
5EC6  01                 is_vararg (0)
5EC7  00                 maxstacksize (2)
                         * code:
5EC9  01                 sizecode (1)
5ECA  1E008000           [1] return     0   1      
                         * constants:
5ECE  00                 sizek (0)
                         * functions:
5ECF  00                 sizep (0)
                         * lines:
5ED0  01                 sizelineinfo (1)
                         [pc] (line)
5ED1  9F                 [1] (-97)
                         * locals:
5ED5  00                 sizelocvars (0)
                         * upvalues:
5ED6  00                 sizeupvalues (0)
                         ** end of function **

                         
5ED7                     ** function [3] definition (level 3)
                         ** start of function **
5ED7  00                 string size (0)
                         source name: (none)
5ED9  05                 line defined (673)
5EDA  B6                 last line defined (694)
5EDB  05                 nups (0)
5EDC  00                 numparams (1)
5EDD  01                 is_vararg (0)
5EDE  00                 maxstacksize (11)
                         * code:
5EE0  63                 sizecode (99)
5EE1  4E004000           [01] gettable   1   0   256  ; "Localized"
5EE5  58000000           [02] test       1       0    ; to [4] if true
5EE9  1A000280           [03] jmp        9            ; to [13]
5EED  5D400000           [04] getglobal  1   1        ; mMovie
5EF1  6480C000           [05] self       1   1   258  ; -693657623
5EF5  CEC04000           [06] gettable   3   0   259  ; "mClipName"
5EF9  19010100           [07] loadk      4   4        ; ".Label"
5EFD  C2008101           [08] concat     3   3   4  
5F01  19410100           [09] loadk      4   5        ; "text"
5F05  4E814100           [10] gettable   5   0   262  ; "Label"
5F09  62408002           [11] call       1   5   1  
5F0D  1A800180           [12] jmp        7            ; to [20]
5F11  5D400000           [13] getglobal  1   1        ; mMovie
5F15  64C0C100           [14] self       1   1   263  ; 386043535
5F19  CEC04000           [15] gettable   3   0   259  ; "mClipName"
5F1D  19010200           [16] loadk      4   8        ; ".Label.text"
5F21  C2008101           [17] concat     3   3   4  
5F25  0E814100           [18] gettable   4   0   262  ; "Label"
5F29  62400002           [19] call       1   4   1  
5F2D  5D400200           [20] getglobal  1   9        ; -174740002
5F31  9D400000           [21] getglobal  2   1        ; mMovie
5F35  A4804201           [22] self       2   2   266  ; 1803241227
5F39  0EC14000           [23] gettable   4   0   259  ; "mClipName"
5F3D  59010100           [24] loadk      5   4        ; ".Label"
5F41  02410102           [25] concat     4   4   5  
5F45  59C10200           [26] loadk      5   11       ; "_yscale"
5F49  A2000002           [27] call       2   4   0  
5F4D  62800000           [28] call       1   0   2  
5F51  5C00C300           [29] div        1   1   268  ; 0
5F55  9D400200           [30] getglobal  2   9        ; -174740002
5F59  DD400000           [31] getglobal  3   1        ; mMovie
5F5D  E480C201           [32] self       3   3   266  ; 1803241227
5F61  4EC14000           [33] gettable   5   0   259  ; "mClipName"
5F65  99010100           [34] loadk      6   4        ; ".Label"
5F69  42818102           [35] concat     5   5   6  
5F6D  99810300           [36] loadk      6   14       ; "textHeight"
5F71  E2000002           [37] call       3   4   0  
5F75  A2800000           [38] call       2   0   2  
5F79  84400001           [39] mul        2   2   1  
5F7D  0C808086           [40] settable   0   269 2    ; "TextHeight"
5F81  9DC00300           [41] getglobal  2   15       ; 1074689893
5F85  CE004400           [42] gettable   3   0   272  ; "Icon"
5F89  A2800001           [43] call       2   2   2  
5F8D  98400000           [44] test       2       1    ; to [46] if false
5F91  1A800180           [45] jmp        7            ; to [53]
5F95  9D400000           [46] getglobal  2   1        ; mMovie
5F99  A4404401           [47] self       2   2   273  ; 643307062
5F9D  0EC14000           [48] gettable   4   0   259  ; "mClipName"
5FA1  59810400           [49] loadk      5   18       ; ".Icon"
5FA5  02410102           [50] concat     4   4   5  
5FA9  4E014400           [51] gettable   5   0   272  ; "Icon"
5FAD  A2400002           [52] call       2   4   1  
5FB1  9D400000           [53] getglobal  2   1        ; mMovie
5FB5  A4C04401           [54] self       2   2   275  ; -2013161817
5FB9  0EC14000           [55] gettable   4   0   259  ; "mClipName"
5FBD  59010500           [56] loadk      5   20       ; "Progress"
5FC1  99410500           [57] loadk      6   21       ; "_visible"
5FC5  CE814500           [58] gettable   7   0   278  ; "Ratio"
fail op	35
5FC9  23C0C503           [59] close      0  
5FCD  1A000080           [60] jmp        1            ; to [62]
5FD1  D7410000           [61] loadbool   7   0   1    ; false, to [63]
5FD5  D7018000           [62] loadbool   7   1   0    ; true
5FD9  A2400003           [63] call       2   6   1  
5FDD  8E804500           [64] gettable   2   0   278  ; "Ratio"
fail op	35
5FE1  63C04501           [65] close      1  
5FE5  1AC00780           [66] jmp        32           ; to [99]
5FE9  9D400000           [67] getglobal  2   1        ; mMovie
5FED  A4C04401           [68] self       2   2   275  ; -2013161817
5FF1  0EC14000           [69] gettable   4   0   259  ; "mClipName"
5FF5  59010500           [70] loadk      5   20       ; "Progress"
5FF9  99010600           [71] loadk      6   24       ; "_y"
5FFD  CE414300           [72] gettable   7   0   269  ; "TextHeight"
6001  A2400003           [73] call       2   6   1  
6005  9D400200           [74] getglobal  2   9        ; -174740002
6009  DD400000           [75] getglobal  3   1        ; mMovie
600D  E480C201           [76] self       3   3   266  ; 1803241227
6011  4EC14000           [77] gettable   5   0   259  ; "mClipName"
6015  99410600           [78] loadk      6   25       ; ".Progress.Bg"
6019  42818102           [79] concat     5   5   6  
601D  99810600           [80] loadk      6   26       ; "_width"
6021  E2000002           [81] call       3   4   0  
6025  A2800000           [82] call       2   0   2  
6029  8DC04601           [83] sub        2   2   283  ; 0
602D  DD400000           [84] getglobal  3   1        ; mMovie
6031  E4C0C401           [85] self       3   3   275  ; -2013161817
6035  4EC14000           [86] gettable   5   0   259  ; "mClipName"
6039  99010700           [87] loadk      6   28       ; "Progress.Fill"
603D  D9810600           [88] loadk      7   26       ; "_width"
6041  1D420700           [89] getglobal  8   29       ; math
6045  0E824704           [90] gettable   8   8   286  ; -1962864584
6049  4E824500           [91] gettable   9   0   278  ; "Ratio"
604D  44828004           [92] mul        9   9   2  
6051  99C20700           [93] loadk      10  31       ; 111
6055  22028001           [94] call       8   3   0  
6059  E2400000           [95] call       3   0   1  
605D  CE404300           [96] gettable   3   0   269  ; "TextHeight"
6061  C300C801           [97] add        3   3   288  ; 0
6065  0CC08086           [98] settable   0   269 3    ; "TextHeight"
6069  1E008000           [99] return     0   1      
                         * constants:
606D  21                 sizek (33)
606E  04                 const type 4
606F  0A                 string size (10)
6070  4C6F63616C697A65+  "Localize"
6078  6400               "d\0"
                         const [0]: "Localized"
607A  04                 const type 4
607B  07                 string size (7)
607C  6D4D6F76696500     "mMovie\0"
                         const [1]: "mMovie"
6083  01                 const type 3
6084  E99FA7D6           const [2]: (-693657623)
6088  04                 const type 4
6089  0A                 string size (10)
608A  6D436C69704E616D+  "mClipNam"
6092  6500               "e\0"
                         const [3]: "mClipName"
6094  04                 const type 4
6095  07                 string size (7)
6096  2E4C6162656C00     ".Label\0"
                         const [4]: ".Label"
609D  04                 const type 4
609E  05                 string size (5)
609F  7465787400         "text\0"
                         const [5]: "text"
60A4  04                 const type 4
60A5  06                 string size (6)
60A6  4C6162656C00       "Label\0"
                         const [6]: "Label"
60AC  01                 const type 3
60AD  8F8E0217           const [7]: (386043535)
60B1  04                 const type 4
60B2  0C                 string size (12)
60B3  2E4C6162656C2E74+  ".Label.t"
60BB  65787400           "ext\0"
                         const [8]: ".Label.text"
60BF  01                 const type 3
60C0  DEAD95F5           const [9]: (-174740002)
60C4  01                 const type 3
60C5  0B477B6B           const [10]: (1803241227)
60C9  04                 const type 4
60CA  08                 string size (8)
60CB  5F797363616C6500   "_yscale\0"
                         const [11]: "_yscale"
60D3  03                 const type 3
60D4  0000C842           const [12]: (0)
60D8  04                 const type 4
60D9  0B                 string size (11)
60DA  5465787448656967+  "TextHeig"
60E2  687400             "ht\0"
                         const [13]: "TextHeight"
60E5  04                 const type 4
60E6  0B                 string size (11)
60E7  7465787448656967+  "textHeig"
60EF  687400             "ht\0"
                         const [14]: "textHeight"
60F2  01                 const type 3
60F3  65770E40           const [15]: (1074689893)
60F7  04                 const type 4
60F8  05                 string size (5)
60F9  49636F6E00         "Icon\0"
                         const [16]: "Icon"
60FE  01                 const type 3
60FF  36165826           const [17]: (643307062)
6103  04                 const type 4
6104  06                 string size (6)
6105  2E49636F6E00       ".Icon\0"
                         const [18]: ".Icon"
610B  01                 const type 3
610C  A7960188           const [19]: (-2013161817)
6110  04                 const type 4
6111  09                 string size (9)
6112  50726F6772657373+  "Progress"
611A  00                 "\0"
                         const [20]: "Progress"
611B  04                 const type 4
611C  09                 string size (9)
611D  5F76697369626C65+  "_visible"
6125  00                 "\0"
                         const [21]: "_visible"
6126  04                 const type 4
6127  06                 string size (6)
6128  526174696F00       "Ratio\0"
                         const [22]: "Ratio"
612E  00                 const type 0
                         const [23]: nil
612F  04                 const type 4
6130  03                 string size (3)
6131  5F7900             "_y\0"
                         const [24]: "_y"
6134  04                 const type 4
6135  0D                 string size (13)
6136  2E50726F67726573+  ".Progres"
613E  732E426700         "s.Bg\0"
                         const [25]: ".Progress.Bg"
6143  04                 const type 4
6144  07                 string size (7)
6145  5F776964746800     "_width\0"
                         const [26]: "_width"
614C  03                 const type 3
614D  00000040           const [27]: (0)
6151  04                 const type 4
6152  0E                 string size (14)
6153  50726F6772657373+  "Progress"
615B  2E46696C6C00       ".Fill\0"
                         const [28]: "Progress.Fill"
6161  04                 const type 4
6162  05                 string size (5)
6163  6D61746800         "math\0"
                         const [29]: "math"
6168  01                 const type 3
6169  3810018B           const [30]: (-1962864584)
616D  03                 const type 3
616E  6F12833A           const [31]: (111)
6172  03                 const type 3
6173  00006041           const [32]: (0)
                         * functions:
6177  00                 sizep (0)
                         * lines:
6178  63                 sizelineinfo (99)
                         [pc] (line)
6179  A2                 [01] (-94)
617A  02                 [02] (-94)
617B  00                 [03] (-94)
617C  00                 [04] (-93)
617D  A2                 [05] (-93)
617E  02                 [06] (-93)
617F  00                 [07] (-93)
6180  00                 [08] (-93)
6181  A2                 [09] (-93)
6182  02                 [10] (-93)
6183  00                 [11] (-93)
6184  00                 [12] (-93)
6185  A3                 [13] (-91)
6186  02                 [14] (-91)
6187  00                 [15] (-91)
6188  00                 [16] (-91)
6189  A3                 [17] (-91)
618A  02                 [18] (-91)
618B  00                 [19] (-91)
618C  00                 [20] (-89)
618D  A3                 [21] (-89)
618E  02                 [22] (-89)
618F  00                 [23] (-89)
6190  00                 [24] (-89)
6191  A3                 [25] (-89)
6192  02                 [26] (-89)
6193  00                 [27] (-89)
6194  00                 [28] (-89)
6195  A3                 [29] (-89)
6196  02                 [30] (-88)
6197  00                 [31] (-88)
6198  00                 [32] (-88)
6199  A3                 [33] (-88)
619A  02                 [34] (-88)
619B  00                 [35] (-88)
619C  00                 [36] (-88)
619D  A3                 [37] (-88)
619E  02                 [38] (-88)
619F  00                 [39] (-88)
61A0  00                 [40] (-88)
61A1  A3                 [41] (-86)
61A2  02                 [42] (-86)
61A3  00                 [43] (-86)
61A4  00                 [44] (-86)
61A5  A3                 [45] (-86)
61A6  02                 [46] (-85)
61A7  00                 [47] (-85)
61A8  00                 [48] (-85)
61A9  A5                 [49] (-85)
61AA  02                 [50] (-85)
61AB  00                 [51] (-85)
61AC  00                 [52] (-85)
61AD  A5                 [53] (-82)
61AE  02                 [54] (-82)
61AF  00                 [55] (-82)
61B0  00                 [56] (-82)
61B1  A5                 [57] (-82)
61B2  02                 [58] (-82)
61B3  00                 [59] (-82)
61B4  00                 [60] (-82)
61B5  A5                 [61] (-82)
61B6  02                 [62] (-82)
61B7  00                 [63] (-82)
61B8  00                 [64] (-81)
61B9  A5                 [65] (-81)
61BA  02                 [66] (-81)
61BB  00                 [67] (-80)
61BC  00                 [68] (-80)
61BD  A5                 [69] (-80)
61BE  02                 [70] (-80)
61BF  00                 [71] (-80)
61C0  00                 [72] (-80)
61C1  A5                 [73] (-80)
61C2  02                 [74] (-78)
61C3  00                 [75] (-78)
61C4  00                 [76] (-78)
61C5  A7                 [77] (-78)
61C6  02                 [78] (-78)
61C7  00                 [79] (-78)
61C8  00                 [80] (-78)
61C9  A7                 [81] (-78)
61CA  02                 [82] (-78)
61CB  00                 [83] (-78)
61CC  00                 [84] (-77)
61CD  A7                 [85] (-77)
61CE  02                 [86] (-77)
61CF  00                 [87] (-77)
61D0  00                 [88] (-77)
61D1  A7                 [89] (-77)
61D2  02                 [90] (-77)
61D3  00                 [91] (-77)
61D4  00                 [92] (-77)
61D5  A7                 [93] (-77)
61D6  02                 [94] (-77)
61D7  00                 [95] (-77)
61D8  00                 [96] (-76)
61D9  A7                 [97] (-76)
61DA  02                 [98] (-76)
61DB  00                 [99] (-74)
                         * locals:
6305  00                 sizelocvars (0)
                         * upvalues:
6306  00                 sizeupvalues (0)
                         ** end of function **

                         
6307                     ** function [4] definition (level 3)
                         ** start of function **
6307  00                 string size (0)
                         source name: (none)
6309  05                 line defined (696)
630A  BA                 last line defined (698)
630B  05                 nups (0)
630C  00                 numparams (2)
630D  02                 is_vararg (0)
630E  00                 maxstacksize (7)
                         * code:
6310  07                 sizecode (7)
6311  8E004000           [1] gettable   2   0   256  ; "mMovie"
6315  A4404001           [2] self       2   2   257  ; 471456102
6319  0E81C000           [3] gettable   4   1   258  ; "mClipName"
631D  59C10000           [4] loadk      5   3        ; "_z"
6321  99010100           [5] loadk      6   4        ; 0
6325  A2408002           [6] call       2   5   1  
6329  1E008000           [7] return     0   1      
                         * constants:
632D  05                 sizek (5)
632E  04                 const type 4
632F  07                 string size (7)
6330  6D4D6F76696500     "mMovie\0"
                         const [0]: "mMovie"
6337  01                 const type 3
6338  66D9191C           const [1]: (471456102)
633C  04                 const type 4
633D  0A                 string size (10)
633E  6D436C69704E616D+  "mClipNam"
6346  6500               "e\0"
                         const [2]: "mClipName"
6348  04                 const type 4
6349  03                 string size (3)
634A  5F7A00             "_z\0"
                         const [3]: "_z"
634D  03                 const type 3
634E  0000FAC4           const [4]: (0)
                         * functions:
6352  00                 sizep (0)
                         * lines:
6353  07                 sizelineinfo (7)
                         [pc] (line)
6354  B9                 [1] (-71)
6355  02                 [2] (-71)
6356  00                 [3] (-71)
6357  00                 [4] (-71)
6358  B9                 [5] (-71)
6359  02                 [6] (-71)
635A  00                 [7] (-70)
                         * locals:
6370  00                 sizelocvars (0)
                         * upvalues:
6371  00                 sizeupvalues (0)
                         ** end of function **

                         
6372                     ** function [5] definition (level 3)
                         ** start of function **
6372  00                 string size (0)
                         source name: (none)
6374  05                 line defined (700)
6375  BE                 last line defined (702)
6376  05                 nups (0)
6377  00                 numparams (2)
6378  02                 is_vararg (0)
6379  00                 maxstacksize (6)
                         * code:
637B  0A                 sizecode (10)
637C  8B000001           [01] newtable   2   2   0    ; array=2, hash=0
6380  D9000000           [02] loadk      3   0        ; "_alpha"
6384  19410000           [03] loadk      4   1        ; "_z"
6388  9B400001           [04] setlist    2   2   1    ; index 1 to 2
638C  CB000001           [05] newtable   3   2   0    ; array=2, hash=0
6390  19810000           [06] loadk      4   2        ; 0
6394  59C10000           [07] loadk      5   3        ; 0
6398  DB400001           [08] setlist    3   2   1    ; index 1 to 2
639C  9E008001           [09] return     2   3      
63A0  1E008000           [10] return     0   1      
                         * constants:
63A4  04                 sizek (4)
63A5  04                 const type 4
63A6  07                 string size (7)
63A7  5F616C70686100     "_alpha\0"
                         const [0]: "_alpha"
63AE  04                 const type 4
63AF  03                 string size (3)
63B0  5F7A00             "_z\0"
                         const [1]: "_z"
63B3  03                 const type 3
63B4  0000C842           const [2]: (0)
63B8  03                 const type 3
63B9  00000000           const [3]: (0)
                         * functions:
63BD  00                 sizep (0)
                         * lines:
63BE  0A                 sizelineinfo (10)
                         [pc] (line)
63BF  BD                 [01] (-67)
63C0  02                 [02] (-67)
63C1  00                 [03] (-67)
63C2  00                 [04] (-67)
63C3  BD                 [05] (-67)
63C4  02                 [06] (-67)
63C5  00                 [07] (-67)
63C6  00                 [08] (-67)
63C7  BD                 [09] (-67)
63C8  02                 [10] (-66)
                         * locals:
63E7  00                 sizelocvars (0)
                         * upvalues:
63E8  00                 sizeupvalues (0)
                         ** end of function **

                         * lines:
63E9  25                 sizelineinfo (37)
                         [pc] (line)
63EA  90                 [01] (-112)
63EB  02                 [02] (-112)
63EC  00                 [03] (-112)
63ED  00                 [04] (-111)
63EE  90                 [05] (-111)
63EF  02                 [06] (-111)
63F0  00                 [07] (-111)
63F1  00                 [08] (-111)
63F2  90                 [09] (-110)
63F3  02                 [10] (-110)
63F4  00                 [11] (-109)
63F5  00                 [12] (-109)
63F6  91                 [13] (-108)
63F7  02                 [14] (-108)
63F8  00                 [15] (-107)
63F9  00                 [16] (-107)
63FA  91                 [17] (-106)
63FB  02                 [18] (-106)
63FC  00                 [19] (-105)
63FD  00                 [20] (-103)
63FE  91                 [21] (-103)
63FF  02                 [22] (-102)
6400  00                 [23] (-100)
6401  00                 [24] (-100)
6402  91                 [25] (-99)
6403  02                 [26] (-97)
6404  00                 [27] (-97)
6405  00                 [28] (-96)
6406  91                 [29] (-74)
6407  02                 [30] (-74)
6408  00                 [31] (-73)
6409  00                 [32] (-70)
640A  92                 [33] (-70)
640B  02                 [34] (-69)
640C  00                 [35] (-66)
640D  00                 [36] (-66)
640E  92                 [37] (-65)
                         * locals:
647E  00                 sizelocvars (0)
                         * upvalues:
647F  00                 sizeupvalues (0)
                         ** end of function **

                         
6480                     ** function [6] definition (level 2)
                         ** start of function **
6480  00                 string size (0)
                         source name: (none)
6482  05                 line defined (705)
6483  C4                 last line defined (708)
6484  05                 nups (2)
6485  02                 numparams (0)
6486  00                 is_vararg (0)
6487  00                 maxstacksize (2)
                         * code:
6489  05                 sizecode (5)
648A  17008000           [1] loadbool   0   1   0    ; true
fail op	8
648E  08000000           [2] setupval   0   0      
6492  13008000           [3] getupval   0   1      
6496  22408000           [4] call       0   1   1  
649A  1E008000           [5] return     0   1      
                         * constants:
649E  00                 sizek (0)
                         * functions:
649F  00                 sizep (0)
                         * lines:
64A0  05                 sizelineinfo (5)
                         [pc] (line)
64A1  C2                 [1] (-62)
64A2  02                 [2] (-62)
64A3  00                 [3] (-61)
64A4  00                 [4] (-61)
64A5  C2                 [5] (-60)
                         * locals:
64B5  00                 sizelocvars (0)
                         * upvalues:
64B6  00                 sizeupvalues (0)
                         ** end of function **

                         
64B7                     ** function [7] definition (level 2)
                         ** start of function **
64B7  00                 string size (0)
                         source name: (none)
64B9  05                 line defined (710)
64BA  CD                 last line defined (717)
64BB  05                 nups (2)
64BC  02                 numparams (0)
64BD  00                 is_vararg (0)
64BE  00                 maxstacksize (9)
                         * code:
64C0  21                 sizecode (33)
64C1  1D000000           [01] getglobal  0   0        ; mMovie
64C5  24404000           [02] self       0   0   257  ; 471456102
64C9  99800000           [03] loadk      2   2        ; "Panel"
64CD  D9C00000           [04] loadk      3   3        ; "_alpha"
64D1  19010100           [05] loadk      4   4        ; 0
64D5  22408002           [06] call       0   5   1  
64D9  1D000000           [07] getglobal  0   0        ; mMovie
64DD  24404000           [08] self       0   0   257  ; 471456102
64E1  99800000           [09] loadk      2   2        ; "Panel"
64E5  D9400100           [10] loadk      3   5        ; "_z"
64E9  19810100           [11] loadk      4   6        ; 0
64ED  22408002           [12] call       0   5   1  
64F1  13000000           [13] getupval   0   0      
64F5  0EC04100           [14] gettable   0   0   263  ; -19604702
64F9  5D000000           [15] getglobal  1   0        ; mMovie
64FD  99800000           [16] loadk      2   2        ; "Panel"
6501  22408001           [17] call       0   3   1  
6505  1D000200           [18] getglobal  0   8        ; 1390508688
6509  5D000000           [19] getglobal  1   0        ; mMovie
650D  99400200           [20] loadk      2   9        ; "_root"
6511  DD800200           [21] getglobal  3   10       ; UISys
6515  CEC0C201           [22] gettable   3   3   267  ; "FlashInstance_SMOOTH_STEP"
6519  0B018000           [23] newtable   4   1   0    ; array=1, hash=0
651D  59C10000           [24] loadk      5   3        ; "_alpha"
6521  1B418000           [25] setlist    4   1   1    ; index 1 to 1
6525  4B018000           [26] newtable   5   1   0    ; array=1, hash=0
6529  99010300           [27] loadk      6   12       ; 0
652D  5B418000           [28] setlist    5   1   1    ; index 1 to 1
6531  99410300           [29] loadk      6   13       ; 0
6535  D9810300           [30] loadk      7   14       ; 0
6539  13028000           [31] getupval   8   1      
653D  22408004           [32] call       0   9   1  
6541  1E008000           [33] return     0   1      
                         * constants:
6545  0F                 sizek (15)
6546  04                 const type 4
6547  07                 string size (7)
6548  6D4D6F76696500     "mMovie\0"
                         const [0]: "mMovie"
654F  01                 const type 3
6550  66D9191C           const [1]: (471456102)
6554  04                 const type 4
6555  06                 string size (6)
6556  50616E656C00       "Panel\0"
                         const [2]: "Panel"
655C  04                 const type 4
655D  07                 string size (7)
655E  5F616C70686100     "_alpha\0"
                         const [3]: "_alpha"
6565  03                 const type 3
6566  00000000           const [4]: (0)
656A  04                 const type 4
656B  03                 string size (3)
656C  5F7A00             "_z\0"
                         const [5]: "_z"
656F  03                 const type 3
6570  00803B45           const [6]: (0)
6574  01                 const type 3
6575  22DBD4FE           const [7]: (-19604702)
6579  01                 const type 3
657A  907AE152           const [8]: (1390508688)
657E  04                 const type 4
657F  06                 string size (6)
6580  5F726F6F7400       "_root\0"
                         const [9]: "_root"
6586  04                 const type 4
6587  06                 string size (6)
6588  554953797300       "UISys\0"
                         const [10]: "UISys"
658E  04                 const type 4
658F  1A                 string size (26)
6590  466C617368496E73+  "FlashIns"
6598  74616E63655F534D+  "tance_SM"
65A0  4F4F54485F535445+  "OOTH_STE"
65A8  5000               "P\0"
                         const [11]: "FlashInstance_SMOOTH_STEP"
65AA  03                 const type 3
65AB  0000C842           const [12]: (0)
65AF  03                 const type 3
65B0  0000803E           const [13]: (0)
65B4  03                 const type 3
65B5  00000040           const [14]: (0)
                         * functions:
65B9  00                 sizep (0)
                         * lines:
65BA  21                 sizelineinfo (33)
                         [pc] (line)
65BB  C7                 [01] (-57)
65BC  02                 [02] (-57)
65BD  00                 [03] (-57)
65BE  00                 [04] (-57)
65BF  C7                 [05] (-57)
65C0  02                 [06] (-57)
65C1  00                 [07] (-56)
65C2  00                 [08] (-56)
65C3  C7                 [09] (-56)
65C4  02                 [10] (-56)
65C5  00                 [11] (-56)
65C6  00                 [12] (-56)
65C7  C7                 [13] (-54)
65C8  02                 [14] (-54)
65C9  00                 [15] (-54)
65CA  00                 [16] (-54)
65CB  C7                 [17] (-54)
65CC  02                 [18] (-52)
65CD  00                 [19] (-52)
65CE  00                 [20] (-52)
65CF  C7                 [21] (-52)
65D0  02                 [22] (-52)
65D1  00                 [23] (-52)
65D2  00                 [24] (-52)
65D3  C8                 [25] (-52)
65D4  02                 [26] (-52)
65D5  00                 [27] (-52)
65D6  00                 [28] (-52)
65D7  C8                 [29] (-52)
65D8  02                 [30] (-52)
65D9  00                 [31] (-52)
65DA  00                 [32] (-52)
65DB  C8                 [33] (-51)
                         * locals:
663F  00                 sizelocvars (0)
                         * upvalues:
6640  00                 sizeupvalues (0)
                         ** end of function **

                         
6641                     ** function [8] definition (level 2)
                         ** start of function **
6641  00                 string size (0)
                         source name: (none)
6643  05                 line defined (719)
6644  D1                 last line defined (721)
6645  05                 nups (0)
6646  00                 numparams (0)
6647  00                 is_vararg (0)
6648  00                 maxstacksize (2)
                         * code:
664A  04                 sizecode (4)
664B  1D000000           [1] getglobal  0   0        ; mMovie
664F  24404000           [2] self       0   0   257  ; -1517569684
6653  22400001           [3] call       0   2   1  
6657  1E008000           [4] return     0   1      
                         * constants:
665B  02                 sizek (2)
665C  04                 const type 4
665D  07                 string size (7)
665E  6D4D6F76696500     "mMovie\0"
                         const [0]: "mMovie"
6665  01                 const type 3
6666  6CB98BA5           const [1]: (-1517569684)
                         * functions:
666A  00                 sizep (0)
                         * lines:
666B  04                 sizelineinfo (4)
                         [pc] (line)
666C  D0                 [1] (-48)
666D  02                 [2] (-48)
666E  00                 [3] (-48)
666F  00                 [4] (-47)
                         * locals:
667C  00                 sizelocvars (0)
                         * upvalues:
667D  00                 sizeupvalues (0)
                         ** end of function **

                         
667E                     ** function [9] definition (level 2)
                         ** start of function **
667E  00                 string size (0)
                         source name: (none)
6680  05                 line defined (723)
6681  D5                 last line defined (725)
6682  05                 nups (1)
6683  01                 numparams (0)
6684  00                 is_vararg (0)
6685  00                 maxstacksize (9)
                         * code:
6687  10                 sizecode (16)
6688  1D000000           [01] getglobal  0   0        ; 1390508688
668C  5D400000           [02] getglobal  1   1        ; mMovie
6690  99800000           [03] loadk      2   2        ; "_root"
6694  DDC00000           [04] getglobal  3   3        ; UISys
6698  CE00C101           [05] gettable   3   3   260  ; "FlashInstance_LINEAR"
669C  0B018000           [06] newtable   4   1   0    ; array=1, hash=0
66A0  59410100           [07] loadk      5   5        ; "_alpha"
66A4  1B418000           [08] setlist    4   1   1    ; index 1 to 1
66A8  4B018000           [09] newtable   5   1   0    ; array=1, hash=0
66AC  99810100           [10] loadk      6   6        ; 0
66B0  5B418000           [11] setlist    5   1   1    ; index 1 to 1
66B4  99C10100           [12] loadk      6   7        ; -102
66B8  D9810100           [13] loadk      7   6        ; 0
66BC  13020000           [14] getupval   8   0      
66C0  22408004           [15] call       0   9   1  
66C4  1E008000           [16] return     0   1      
                         * constants:
66C8  08                 sizek (8)
66C9  01                 const type 3
66CA  907AE152           const [0]: (1390508688)
66CE  04                 const type 4
66CF  07                 string size (7)
66D0  6D4D6F76696500     "mMovie\0"
                         const [1]: "mMovie"
66D7  04                 const type 4
66D8  06                 string size (6)
66D9  5F726F6F7400       "_root\0"
                         const [2]: "_root"
66DF  04                 const type 4
66E0  06                 string size (6)
66E1  554953797300       "UISys\0"
                         const [3]: "UISys"
66E7  04                 const type 4
66E8  15                 string size (21)
66E9  466C617368496E73+  "FlashIns"
66F1  74616E63655F4C49+  "tance_LI"
66F9  4E45415200         "NEAR\0"
                         const [4]: "FlashInstance_LINEAR"
66FE  04                 const type 4
66FF  07                 string size (7)
6700  5F616C70686100     "_alpha\0"
                         const [5]: "_alpha"
6707  03                 const type 3
6708  00000000           const [6]: (0)
670C  03                 const type 3
670D  9A99193E           const [7]: (-102)
                         * functions:
6711  00                 sizep (0)
                         * lines:
6712  10                 sizelineinfo (16)
                         [pc] (line)
6713  D4                 [01] (-44)
6714  02                 [02] (-44)
6715  00                 [03] (-44)
6716  00                 [04] (-44)
6717  D4                 [05] (-44)
6718  02                 [06] (-44)
6719  00                 [07] (-44)
671A  00                 [08] (-44)
671B  D4                 [09] (-44)
671C  02                 [10] (-44)
671D  00                 [11] (-44)
671E  00                 [12] (-44)
671F  D4                 [13] (-44)
6720  02                 [14] (-44)
6721  00                 [15] (-44)
6722  00                 [16] (-43)
                         * locals:
6753  00                 sizelocvars (0)
                         * upvalues:
6754  00                 sizeupvalues (0)
                         ** end of function **

                         
6755                     ** function [10] definition (level 2)
                         ** start of function **
6755  00                 string size (0)
                         source name: (none)
6757  05                 line defined (727)
6758  E8                 last line defined (744)
6759  05                 nups (6)
675A  06                 numparams (0)
675B  00                 is_vararg (0)
675C  00                 maxstacksize (5)
                         * code:
675E  2A                 sizecode (42)
675F  1D000000           [01] getglobal  0   0        ; mMovie
6763  24404000           [02] self       0   0   257  ; 98241492
6767  99800000           [03] loadk      2   2        ; "<CHECKMARK>"
676B  D7008000           [04] loadbool   3   1   0    ; true
676F  22800002           [05] call       0   4   2  
6773  59C00000           [06] loadk      1   3        ; " "
6777  02400000           [07] concat     0   0   1  
fail op	8
677B  08000000           [08] setupval   0   0      
677F  1D000000           [09] getglobal  0   0        ; mMovie
6783  24404000           [10] self       0   0   257  ; 98241492
6787  99000100           [11] loadk      2   4        ; "<CHECKMARK_OUTLINE>"
678B  D7008000           [12] loadbool   3   1   0    ; true
678F  22800002           [13] call       0   4   2  
6793  59C00000           [14] loadk      1   3        ; " "
6797  02400000           [15] concat     0   0   1  
fail op	8
679B  08008000           [16] setupval   0   1      
679F  1D000000           [17] getglobal  0   0        ; mMovie
67A3  24404100           [18] self       0   0   261  ; -693657623
67A7  99800100           [19] loadk      2   6        ; "RobotoLoader"
67AB  D9C00100           [20] loadk      3   7        ; "text"
67AF  19010200           [21] loadk      4   8        ; ""
67B3  22408002           [22] call       0   5   1  
67B7  1D000000           [23] getglobal  0   0        ; mMovie
67BB  24404200           [24] self       0   0   265  ; -47627366
67BF  9D800200           [25] getglobal  2   10       ; _G
67C3  8EC04201           [26] gettable   2   2   267  ; "UIMaterial_Diegetic"
67C7  22408001           [27] call       0   3   1  
67CB  13000001           [28] getupval   0   2      
67CF  22408000           [29] call       0   1   1  
67D3  1D000300           [30] getglobal  0   12       ; 1074689893
67D7  5D400300           [31] getglobal  1   13       ; gGameRules
67DB  22800001           [32] call       0   2   2  
67DF  18400000           [33] test       0       1    ; to [35] if false
67E3  1A800080           [34] jmp        3            ; to [38]
67E7  13008001           [35] getupval   0   3      
67EB  22408000           [36] call       0   1   1  
67EF  1A400080           [37] jmp        2            ; to [40]
67F3  17008000           [38] loadbool   0   1   0    ; true
fail op	8
67F7  08000002           [39] setupval   0   4      
67FB  17008000           [40] loadbool   0   1   0    ; true
fail op	8
67FF  08008002           [41] setupval   0   5      
6803  1E008000           [42] return     0   1      
                         * constants:
6807  0E                 sizek (14)
6808  04                 const type 4
6809  07                 string size (7)
680A  6D4D6F76696500     "mMovie\0"
                         const [0]: "mMovie"
6811  01                 const type 3
6812  D40BDB05           const [1]: (98241492)
6816  04                 const type 4
6817  0C                 string size (12)
6818  3C434845434B4D41+  "<CHECKMA"
6820  524B3E00           "RK>\0"
                         const [2]: "<CHECKMARK>"
6824  04                 const type 4
6825  02                 string size (2)
6826  2000               " \0"
                         const [3]: " "
6828  04                 const type 4
6829  14                 string size (20)
682A  3C434845434B4D41+  "<CHECKMA"
6832  524B5F4F55544C49+  "RK_OUTLI"
683A  4E453E00           "NE>\0"
                         const [4]: "<CHECKMARK_OUTLINE>"
683E  01                 const type 3
683F  E99FA7D6           const [5]: (-693657623)
6843  04                 const type 4
6844  0D                 string size (13)
6845  526F626F746F4C6F+  "RobotoLo"
684D  6164657200         "ader\0"
                         const [6]: "RobotoLoader"
6852  04                 const type 4
6853  05                 string size (5)
6854  7465787400         "text\0"
                         const [7]: "text"
6859  04                 const type 4
685A  01                 string size (0)
                         const [8]: ""
685C  01                 const type 3
685D  9A4329FD           const [9]: (-47627366)
6861  04                 const type 4
6862  03                 string size (3)
6863  5F4700             "_G\0"
                         const [10]: "_G"
6866  04                 const type 4
6867  14                 string size (20)
6868  55494D6174657269+  "UIMateri"
6870  616C5F4469656765+  "al_Diege"
6878  74696300           "tic\0"
                         const [11]: "UIMaterial_Diegetic"
687C  01                 const type 3
687D  65770E40           const [12]: (1074689893)
6881  04                 const type 4
6882  0B                 string size (11)
6883  6747616D6552756C+  "gGameRul"
688B  657300             "es\0"
                         const [13]: "gGameRules"
                         * functions:
688E  00                 sizep (0)
                         * lines:
688F  2A                 sizelineinfo (42)
                         [pc] (line)
6890  D8                 [01] (-40)
6891  02                 [02] (-40)
6892  00                 [03] (-40)
6893  00                 [04] (-40)
6894  D8                 [05] (-40)
6895  02                 [06] (-40)
6896  00                 [07] (-40)
6897  00                 [08] (-40)
6898  D8                 [09] (-39)
6899  02                 [10] (-39)
689A  00                 [11] (-39)
689B  00                 [12] (-39)
689C  D8                 [13] (-39)
689D  02                 [14] (-39)
689E  00                 [15] (-39)
689F  00                 [16] (-39)
68A0  D8                 [17] (-37)
68A1  02                 [18] (-37)
68A2  00                 [19] (-37)
68A3  00                 [20] (-37)
68A4  D8                 [21] (-37)
68A5  02                 [22] (-37)
68A6  00                 [23] (-35)
68A7  00                 [24] (-35)
68A8  D8                 [25] (-35)
68A9  02                 [26] (-35)
68AA  00                 [27] (-35)
68AB  00                 [28] (-33)
68AC  D8                 [29] (-33)
68AD  02                 [30] (-31)
68AE  00                 [31] (-31)
68AF  00                 [32] (-31)
68B0  D9                 [33] (-31)
68B1  02                 [34] (-31)
68B2  00                 [35] (-30)
68B3  00                 [36] (-30)
68B4  D9                 [37] (-30)
68B5  02                 [38] (-28)
68B6  00                 [39] (-28)
68B7  00                 [40] (-25)
68B8  D9                 [41] (-25)
68B9  02                 [42] (-24)
                         * locals:
6938  00                 sizelocvars (0)
                         * upvalues:
6939  00                 sizeupvalues (0)
                         ** end of function **

                         
693A                     ** function [11] definition (level 2)
                         ** start of function **
693A  00                 string size (0)
                         source name: (none)
693C  05                 line defined (746)
693D  EE                 last line defined (750)
693E  05                 nups (0)
693F  00                 numparams (1)
6940  01                 is_vararg (0)
6941  00                 maxstacksize (4)
                         * code:
6943  08                 sizecode (8)
6944  4E004000           [1] gettable   1   0   256  ; "Update"
fail op	35
6948  6340C000           [2] close      1  
694C  1AC00080           [3] jmp        4            ; to [8]
6950  64804000           [4] self       1   0   258  ; -1938777623
6954  DDC00000           [5] getglobal  3   3        ; 1661359502
6958  E2008000           [6] call       3   1   0  
695C  62400000           [7] call       1   0   1  
6960  1E008000           [8] return     0   1      
                         * constants:
6964  04                 sizek (4)
6965  04                 const type 4
6966  07                 string size (7)
6967  55706461746500     "Update\0"
                         const [0]: "Update"
696E  00                 const type 0
                         const [1]: nil
696F  01                 const type 3
6970  E999708C           const [2]: (-1938777623)
6974  01                 const type 3
6975  8E550663           const [3]: (1661359502)
                         * functions:
6979  00                 sizep (0)
                         * lines:
697A  08                 sizelineinfo (8)
                         [pc] (line)
697B  EB                 [1] (-21)
697C  02                 [2] (-21)
697D  00                 [3] (-21)
697E  00                 [4] (-20)
697F  EB                 [5] (-20)
6980  02                 [6] (-20)
6981  00                 [7] (-20)
6982  00                 [8] (-18)
                         * locals:
699B  00                 sizelocvars (0)
                         * upvalues:
699C  00                 sizeupvalues (0)
                         ** end of function **

                         
699D                     ** function [12] definition (level 2)
                         ** start of function **
699D  00                 string size (0)
                         source name: (none)
699F  05                 line defined (752)
69A0  80                 last line defined (768)
69A1  06                 nups (5)
69A2  05                 numparams (0)
69A3  00                 is_vararg (0)
69A4  00                 maxstacksize (4)
                         * code:
69A6  23                 sizecode (35)
69A7  1D000000           [01] getglobal  0   0        ; 1074689893
69AB  5D400000           [02] getglobal  1   1        ; mMovie
69AF  22800001           [03] call       0   2   2  
69B3  18400000           [04] test       0       1    ; to [6] if false
69B7  1A800080           [05] jmp        3            ; to [9]
69BB  13000000           [06] getupval   0   0      
69BF  18400000           [07] test       0       1    ; to [9] if false
69C3  1A000080           [08] jmp        1            ; to [10]
69C7  1E008000           [09] return     0   1      
69CB  13008000           [10] getupval   0   1      
69CF  18000000           [11] test       0       0    ; to [13] if true
69D3  1A000280           [12] jmp        9            ; to [22]
69D7  1D000000           [13] getglobal  0   0        ; 1074689893
69DB  5D800000           [14] getglobal  1   2        ; gGameRules
69DF  22800001           [15] call       0   2   2  
69E3  18400000           [16] test       0       1    ; to [18] if false
69E7  1AC00080           [17] jmp        4            ; to [22]
69EB  17000000           [18] loadbool   0   0   0    ; false
fail op	8
69EF  08008000           [19] setupval   0   1      
69F3  13000001           [20] getupval   0   2      
69F7  22408000           [21] call       0   1   1  
69FB  1DC00000           [22] getglobal  0   3        ; 1661359502
69FF  22808000           [23] call       0   1   2  
6A03  5D400000           [24] getglobal  1   1        ; mMovie
6A07  6400C100           [25] self       1   1   260  ; 135097114
6A0B  D2000000           [26] move       3   0      
6A0F  62408001           [27] call       1   3   1  
6A13  53008001           [28] getupval   1   3      
fail op	35
6A17  6340C100           [29] close      1  
6A1B  1AC00080           [30] jmp        4            ; to [35]
6A1F  53008001           [31] getupval   1   3      
6A23  6480C100           [32] self       1   1   262  ; -1658822453
6A27  D3000002           [33] getupval   3   4      
6A2B  62408001           [34] call       1   3   1  
6A2F  1E008000           [35] return     0   1      
                         * constants:
6A33  07                 sizek (7)
6A34  01                 const type 3
6A35  65770E40           const [0]: (1074689893)
6A39  04                 const type 4
6A3A  07                 string size (7)
6A3B  6D4D6F76696500     "mMovie\0"
                         const [1]: "mMovie"
6A42  04                 const type 4
6A43  0B                 string size (11)
6A44  6747616D6552756C+  "gGameRul"
6A4C  657300             "es\0"
                         const [2]: "gGameRules"
6A4F  01                 const type 3
6A50  8E550663           const [3]: (1661359502)
6A54  01                 const type 3
6A55  1A6B0D08           const [4]: (135097114)
6A59  00                 const type 0
                         const [5]: nil
6A5A  01                 const type 3
6A5B  CB60209D           const [6]: (-1658822453)
                         * functions:
6A5F  00                 sizep (0)
                         * lines:
6A60  23                 sizelineinfo (35)
                         [pc] (line)
6A61  F1                 [01] (-15)
6A62  02                 [02] (-15)
6A63  00                 [03] (-15)
6A64  00                 [04] (-15)
6A65  F1                 [05] (-15)
6A66  02                 [06] (-15)
6A67  00                 [07] (-15)
6A68  00                 [08] (-15)
6A69  F1                 [09] (-14)
6A6A  02                 [10] (-11)
6A6B  00                 [11] (-11)
6A6C  00                 [12] (-11)
6A6D  F1                 [13] (-11)
6A6E  02                 [14] (-11)
6A6F  00                 [15] (-11)
6A70  00                 [16] (-11)
6A71  F1                 [17] (-11)
6A72  02                 [18] (-10)
6A73  00                 [19] (-10)
6A74  00                 [20] (-9)
6A75  F1                 [21] (-9)
6A76  02                 [22] (-6)
6A77  00                 [23] (-6)
6A78  00                 [24] (-5)
6A79  F1                 [25] (-5)
6A7A  02                 [26] (-5)
6A7B  00                 [27] (-5)
6A7C  00                 [28] (-3)
6A7D  F1                 [29] (-3)
6A7E  02                 [30] (-3)
6A7F  00                 [31] (-2)
6A80  00                 [32] (-2)
6A81  F2                 [33] (-2)
6A82  02                 [34] (-2)
6A83  00                 [35] (0)
                         * locals:
6AED  00                 sizelocvars (0)
                         * upvalues:
6AEE  00                 sizeupvalues (0)
                         ** end of function **

                         
6AEF                     ** function [13] definition (level 2)
                         ** start of function **
6AEF  00                 string size (0)
                         source name: (none)
6AF1  06                 line defined (770)
6AF2  86                 last line defined (774)
6AF3  06                 nups (2)
6AF4  02                 numparams (0)
6AF5  00                 is_vararg (0)
6AF6  00                 maxstacksize (2)
                         * code:
6AF8  0B                 sizecode (11)
6AF9  13000000           [01] getupval   0   0      
6AFD  18000000           [02] test       0       0    ; to [4] if true
6B01  1A800180           [03] jmp        7            ; to [11]
6B05  1D000000           [04] getglobal  0   0        ; 1074689893
6B09  5D400000           [05] getglobal  1   1        ; gGameRules
6B0D  22800001           [06] call       0   2   2  
6B11  18400000           [07] test       0       1    ; to [9] if false
6B15  1A400080           [08] jmp        2            ; to [11]
6B19  13008000           [09] getupval   0   1      
6B1D  22408000           [10] call       0   1   1  
6B21  1E008000           [11] return     0   1      
                         * constants:
6B25  02                 sizek (2)
6B26  01                 const type 3
6B27  65770E40           const [0]: (1074689893)
6B2B  04                 const type 4
6B2C  0B                 string size (11)
6B2D  6747616D6552756C+  "gGameRul"
6B35  657300             "es\0"
                         const [1]: "gGameRules"
                         * functions:
6B38  00                 sizep (0)
                         * lines:
6B39  0B                 sizelineinfo (11)
                         [pc] (line)
6B3A  03                 [01] (3)
6B3B  03                 [02] (3)
6B3C  00                 [03] (3)
6B3D  00                 [04] (3)
6B3E  03                 [05] (3)
6B3F  03                 [06] (3)
6B40  00                 [07] (3)
6B41  00                 [08] (3)
6B42  03                 [09] (4)
6B43  03                 [10] (4)
6B44  00                 [11] (6)
                         * locals:
6B66  00                 sizelocvars (0)
                         * upvalues:
6B67  00                 sizeupvalues (0)
                         ** end of function **

                         
6B68                     ** function [14] definition (level 2)
                         ** start of function **
6B68  00                 string size (0)
                         source name: (none)
6B6A  06                 line defined (776)
6B6B  8C                 last line defined (780)
6B6C  06                 nups (2)
6B6D  02                 numparams (0)
6B6E  00                 is_vararg (0)
6B6F  00                 maxstacksize (2)
                         * code:
6B71  06                 sizecode (6)
6B72  13000000           [1] getupval   0   0      
6B76  18000000           [2] test       0       0    ; to [4] if true
6B7A  1A400080           [3] jmp        2            ; to [6]
6B7E  13008000           [4] getupval   0   1      
6B82  22408000           [5] call       0   1   1  
6B86  1E008000           [6] return     0   1      
                         * constants:
6B8A  00                 sizek (0)
                         * functions:
6B8B  00                 sizep (0)
                         * lines:
6B8C  06                 sizelineinfo (6)
                         [pc] (line)
6B8D  09                 [1] (9)
6B8E  03                 [2] (9)
6B8F  00                 [3] (9)
6B90  00                 [4] (10)
6B91  09                 [5] (10)
6B92  03                 [6] (12)
                         * locals:
6BA5  00                 sizelocvars (0)
                         * upvalues:
6BA6  00                 sizeupvalues (0)
                         ** end of function **

                         
6BA7                     ** function [15] definition (level 2)
                         ** start of function **
6BA7  00                 string size (0)
                         source name: (none)
6BA9  06                 line defined (782)
6BAA  8F                 last line defined (783)
6BAB  06                 nups (0)
6BAC  00                 numparams (1)
6BAD  01                 is_vararg (0)
6BAE  00                 maxstacksize (2)
                         * code:
6BB0  01                 sizecode (1)
6BB1  1E008000           [1] return     0   1      
                         * constants:
6BB5  00                 sizek (0)
                         * functions:
6BB6  00                 sizep (0)
                         * lines:
6BB7  01                 sizelineinfo (1)
                         [pc] (line)
6BB8  0F                 [1] (15)
                         * locals:
6BBC  00                 sizelocvars (0)
                         * upvalues:
6BBD  00                 sizeupvalues (0)
                         ** end of function **

                         * lines:
6BBE  58                 sizelineinfo (88)
                         [pc] (line)
6BBF  0A                 [01] (10)
6BC0  00                 [02] (10)
6BC1  00                 [03] (10)
6BC2  00                 [04] (11)
6BC3  0A                 [05] (11)
6BC4  00                 [06] (11)
6BC5  00                 [07] (14)
6BC6  00                 [08] (15)
6BC7  0A                 [09] (16)
6BC8  00                 [10] (17)
6BC9  00                 [11] (18)
6BCA  00                 [12] (19)
6BCB  0B                 [13] (20)
6BCC  00                 [14] (22)
6BCD  00                 [15] (23)
6BCE  00                 [16] (25)
6BCF  0B                 [17] (25)
6BD0  00                 [18] (25)
6BD1  00                 [19] (34)
6BD2  00                 [20] (34)
6BD3  0B                 [21] (34)
6BD4  00                 [22] (34)
6BD5  00                 [23] (34)
6BD6  00                 [24] (71)
6BD7  0E                 [25] (71)
6BD8  00                 [26] (17)
6BD9  00                 [27] (17)
6BDA  00                 [28] (17)
6BDB  0F                 [29] (17)
6BDC  00                 [30] (17)
6BDD  00                 [31] (17)
6BDE  00                 [32] (37)
6BDF  10                 [33] (37)
6BE0  00                 [34] (37)
6BE1  00                 [35] (-115)
6BE2  00                 [36] (-115)
6BE3  11                 [37] (-115)
6BE4  00                 [38] (-115)
6BE5  00                 [39] (-115)
6BE6  00                 [40] (-115)
6BE7  12                 [41] (-115)
6BE8  00                 [42] (-115)
6BE9  00                 [43] (-115)
6BEA  00                 [44] (-65)
6BEB  13                 [45] (-65)
6BEC  00                 [46] (-60)
6BED  00                 [47] (-60)
6BEE  00                 [48] (-60)
6BEF  14                 [49] (-51)
6BF0  00                 [50] (-51)
6BF1  00                 [51] (-51)
6BF2  00                 [52] (-47)
6BF3  16                 [53] (-43)
6BF4  00                 [54] (-43)
6BF5  00                 [55] (-43)
6BF6  00                 [56] (-45)
6BF7  17                 [57] (-24)
6BF8  00                 [58] (-24)
6BF9  00                 [59] (-24)
6BFA  00                 [60] (-24)
6BFB  19                 [61] (-24)
6BFC  00                 [62] (-24)
6BFD  00                 [63] (-24)
6BFE  00                 [64] (-24)
6BFF  19                 [65] (-41)
6C00  00                 [66] (-18)
6C01  00                 [67] (0)
6C02  00                 [68] (0)
6C03  19                 [69] (0)
6C04  00                 [70] (0)
6C05  00                 [71] (0)
6C06  00                 [72] (0)
6C07  22                 [73] (0)
6C08  00                 [74] (-16)
6C09  00                 [75] (6)
6C0A  00                 [76] (6)
6C0B  22                 [77] (6)
6C0C  00                 [78] (6)
6C0D  00                 [79] (2)
6C0E  00                 [80] (12)
6C0F  22                 [81] (12)
6C10  00                 [82] (12)
6C11  00                 [83] (12)
6C12  00                 [84] (8)
6C13  22                 [85] (15)
6C14  00                 [86] (15)
6C15  00                 [87] (14)
6C16  00                 [88] (15)
                         * locals:
6D1F  00                 sizelocvars (0)
                         * upvalues:
6D20  00                 sizeupvalues (0)
                         ** end of function **

6D21                     ** end of chunk **
