1	C:\wlua_dump\path\Lotus\InterfaceThemedArcaneManager.lua
Pos     Hex Data           Description or Code
------------------------------------------------------------------------
000000                     ** source chunk: C:\wlua_dump\path\Lotus\InterfaceThemedArcaneManager.lua
                           ** global header start **
000000  7F                 header signature: ""
000001  00                 version (major:minor hex digits)
000002  00                 format (0=official)
000003  00                 endianness (1=little endian)
000004  00                 size of int (bytes)
000005  00                 size of size_t (bytes)
000006  02                 size of Instruction (bytes)
000007  3C                 size of number (bytes)
000008  88                 integral (1=integral)
4136
                           * number type: single
                           * x86 standard (32-bit, little endian, doubles)
                           ** global header end **
/Lotus/Types/Game/BaseCosmeticEnhancer
EE.Interface.Utilities
Lotus.Interface.LotusUtilities
Lotus.Interface.StoreItemUtilities
Lotus.Interface.UIStyleUtilities
Lotus.Interface.CardUtilitiesRedux
Lotus.Interface.UIUtilities
EE.Interface.AnchorMgr
Lotus.Interface.Components.ThemedButton
/Lotus/Types/Game/Store/ProductsManifest
/Lotus/Types/Lore/PrimaryCodexManifest

MaxMovement
TransitionTime
LastX
LastY
TargetX
TargetY
Timer
Active
Item
Weapon
StoreItem
Slot
AttachedUpgrades
Callback
ALL
WARFRAME
OPERATOR
AMP
ZAW
GUN
onViewportSizeChanged
IsInputBlocked
Close
OnSaveLoadOutComplete
EquipArcane
Shutdown
Initialize
Update
UpgradeLoomAnimationComplete
OnUpgradeArcane
OnConfirmUpgradeArcane
OnConfirmUnequipArcanes
RankUpArcane
UpgradeArcane
ArcaneFocused
ArcaneUnfocused
ArcaneSelected
RankElementFocused
RankElementUnfocused
RankElementPressed
InstallPanelFocused
InstallPanelUnfocused
CategoryFocused
CategoryUnfocused
CategoryPressed
SortByFocused
SortByUnfocused
SortByPressed
onKeyDown_MENU_LTRIGGER2
onKeyDown_MENU_RTRIGGER2
onKeyUp_MENU_SELECT
onKeyUp_MENU_CANCEL
onKeyDown_MENU_MOUSE_Z
OnGamepadTransition
SupportsThemes
OnStyleChangedCallback
mMovie
Bluer
CategoriesBg.LeftStub
_width
CategoriesBg.RightStub
visibleRangeMat
rectangleVisibleRangeMat
textVisibleRangeMat
_G
UIMaterial_CosmeticEnhancersStore
table
GridBounds
_x
ArcaneSelector
_y
mScrollBar
ArcaneSelector.Stats
ArcaneSelector.GridBounds
_height
_visible
Blurer
ArcaneSelector.Grid
_screenY
Lotus_Game
VISIBILITY_CENTER
VISIBILITY_SIZE
VISIBILITY_FADE_SIZE
Lotus_Game
UIStyle_Content
UIStyle_FloatingContent
UIStyle_FloatingContentHighlight
UIStyle_Background1
mMovie
ArcaneUpgrader.Hint
_color
ArcaneUpgrader.HintIcon
ArcaneUpgrader.Loom
ArcaneUpgradeAnim.Arcane.Loom
<MASTERED>
<font color="
">
/
</font>
/Lotus/Language/Menu/CollectedCount
COUNT
/Lotus/Language/Menu/ArcanesUpgraded
ArcaneSelector.Stats
text
<p><font color="
    
</font></p>
ArcaneUpgrader.RankList.Rank
"><b>
</b></font><font color="
" letterSpacing="0.2">
Desc
Check
Glow
Line
.IconBacker
RectEdgeColor
r
g
b
RectInnerColor
.Backer
.Gradient
ArcaneUpgradeAnim.CopiedRank.IconBacker
ArcaneUpgradeAnim.CopiedRank.Backer
ArcaneUpgradeAnim.CopiedRank.Gradient
ArcaneUpgrader.Loom.Left.SingleLoom01
RippleCenter
ArcaneUpgrader.Loom.Left.SingleLoom02
ArcaneUpgrader.Loom.Left.SingleLoom03
ArcaneUpgrader.Loom.Left.SingleLoom04
ArcaneUpgrader.Loom.Right.SingleLoom01
ArcaneUpgrader.Loom.Right.SingleLoom02
ArcaneUpgrader.Loom.Right.SingleLoom03
ArcaneUpgrader.Loom.Right.SingleLoom04
ArcaneUpgradeAnim.Arcane.Loom.StraightLoomMain01
ArcaneUpgradeAnim.Arcane.Loom.StraightLoomMain02
ArcaneUpgradeAnim.Arcane.Loom.StraightLoomMain03
ArcaneUpgradeAnim.Arcane.Loom.StraightLoomMain04
ArcaneUpgradeAnim.Arcane.Loom.StraightLoomMain05
ArcaneUpgradeAnim.Arcane.Loom.StraightLoomMain06
ArcaneUpgradeAnim.Arcane.Loom.StraightLoomMain07
ArcaneUpgradeAnim.Arcane.Loom.StraightLoomMain08
gGameData
_T
BackgroundMovie
ShowBlockingMessage
2
OnSaveLoadOutComplete
SetButtons
mMovie
_G
UISound_WindowClose
Callback
_T
_T
BackgroundMovie
ShowBlockingMessage
0
mItemId
mId

mItemType
mSelectedElement
NotOwned
Arcane
mMovie
StoreItem
IsNone
AttachedUpgrades
Slot
Equipped
mItemId
mId

mItemCount
/Lotus/Language/Menu/ArcaneManager_EquippedInOtherSlot
Callback
_T
Active
mSelectedElement
NotOwned
/Lotus/Language/Menu/ItemSelection_Equip
AttachedUpgrades
Slot
IsNone
Arcane
/Lotus/Language/Menu/ItemSelection_Unequip
table
Label
CallBack
CallOut
MENU_SELECT
/Lotus/Language/Menu/Exit
MENU_CANCEL
_T
SetButtons
mMovie
mMovie
EquipArcane

mMovie
Close

mPrevSelectedId
gGameData
ERROR: No inventory!
mCurrArcane
Active
AttachedUpgrades
Slot
mItemType
mItemId
mId

table
IsNone
SearchTerm
Icon
emptySlotIcon
Themed
Name
/Lotus/Language/Menu/ArcaneManager_NoArcane
Type
/Lotus/Types/Game/WarframeCosmeticEnhancer
Label
/Lotus/Language/Items/Warframe
/Lotus/Types/Game/OperatorCosmeticEnhancer
/Lotus/Language/Menu/MenuOperator
/Lotus/Types/Game/OperatorAmpCosmeticEnhancer
/Lotus/Language/Menu/TennoCustomization_Amp
/Lotus/Types/Game/ModularWeaponCosmeticEnhancer
/Lotus/Language/Weapons/LotusModularWeaponName
/Lotus/Types/Game/ModularGunCosmeticEnhancer
/Lotus/Language/Menu/Category_GUNS
tag
RelicsAndArcanes
mItemCount
type
Lotus_Game
mScrollBar
mPrevSelection
Active
mInstance
mUpgradeFingerprint
Weapon
ALL

mItemType
Type
table
Label
mMovie
ItemInfo
GetVisibilityMaterial
{
"lvl":
}
AttachedUpgrades
/Lotus/Language/Menu/ArcaneManager_Compatibility
COMPAT
CanPreview
NotOwned
IconHeight
SearchTerm
string
 
Arcane
ArcaneRank
Count
mItemCount
Equipped
CompatLabel
Categories
LocalizedDesc
mItemId
mId
mCurrArcane
Lotus_Game
IsNone
Name
mMovie
ArcaneUpgrader.Loom.Left.SingleLoom01
_totalframes
ArcaneUpgrader.Loom
UISys
FlashInstance_LINEAR
mMovie
ArcaneUpgrader.Loom.Left.SingleLoom0
.gotoAndStop
ArcaneUpgrader.Loom.Right.SingleLoom0
ArcaneUpgrader.RankList.Rank
mMovie
Backer
_alpha
Gradient
Filler
IsNone
mMovie
ArcaneUpgrader.Hint
_visible
ArcaneUpgrader.HintIcon
ArcaneUpgrader.Icon
ArcaneUpgrader.RankList
ArcaneUpgrader.ScrollBar
ArcaneUpgrader.UpgradeConfirm
ArcaneUpgrader.Loom
ArcaneUpgrader.Progress
ArcaneUpgrader.Arcane
arcaneIcon
/Lotus/Language/Menu/
ArcaneManager_UninstallHint
ArcaneManager_UnequipHint
AttachedUpgrades
Slot

mItemType
Name
ARCANE
ArcaneUpgrader.Hint.text
_alpha
_y
Arcane
mInstance
NotOwned
mUpgradeFingerprint
Icon
_width
_height
ArcaneUpgradeAnim.Arcane.Icon
Material
VisibilitySize
DetailMapParams
gGameData
ERROR: No inventory!
mItemCount
_color
_G
UIColor_Yellow
UIColor_White
/Lotus/Language/Menu/Loadout_UpgradeSystemInstall
/Lotus/Language/Menu/ArcaneManager_UpgradeWithNum
NUM
Lotus_Game
{
"lvl":
}
/Lotus/Language/Menu/ArcaneManager_UpgradeHint
NAME
<br><b>
RANK
</b>
<p><font >
</font></p>
/Lotus/Language/Ranks/MaxRank
/Lotus/Language/Menu/NextRankCost
/Lotus/Language/Menu/NextRankInsuf
/Lotus/Language/Menu/ArcaneManager_Maxed
text
ArcaneUpgrader.RankList.Rank
/Lotus/Language/Ranks/Rank0
/Lotus/Language/Menu/Global_FormattedRankCaps
  
undefined
ArcaneUpgrader.RankList.Rank1.duplicateMovieClip
Rank
Id
<p><font ><b>
</b></font><font letterSpacing="0.2">
Desc
verticalAlignment
center
Glow
Line
dottedLineMaterial
.Desc
textHeight
Backer
Gradient
math
.Line
TileRepeats
Check
.Icon
rankIcons
.Check
checkIcon
.IconBacker
UIMaterial_RectangleNoDepth
.Backer
.Glow
glowIcon
glowMaterial
.Gradient
backerIcon
Filler
EmptySlot
HideCountThreshold
IsFiller
IsFocused
IsSelected
mPrevSelectedId
Id
Locked
Equipped
LockedMsg
/Lotus/Language/Menu/ItemSelection_Equipped
OwnedInfo
TagOverride
/Lotus/Language/Menu/HowManyRequired
ShowInfoPopup
Hidden
mMovie
mClipName
mMovie
mClipName
mMovie
mClipName
mMovie
Lotus.Interface.Components.CategorizedGrid
mMovie
ArcaneSelector.Grid.Item
ArcaneSelector.CategoryMenu
ArcaneSelector.SortMenu
ArcaneSelected
ArcaneFocused
ArcaneUnfocused
ElementDimBuffer
ElementWidth
ElementHeight
Width
Height
mSelectedScale
ArcaneSelector.ScrollBar
mUseCornerForSelected
mSmoothScrollExtraSpace
mSelectElementsOnFocus
mScroll
mSkipRefocusOnScrollRedraw
mSortMenu
mScrollBar
mScrollAlwaysVisible
mScrollBarHorizontalOffset
mWrapAroundNavigation
mPrevSelectedId
RectangleVisibleRangeMaterial
rectangleVisibleRangeMat
VisibleRangeMaterial
visibleRangeMat
TextVisibleRangeMaterial
textVisibleRangeMat
mCategoryMenu
mAlign
LEFT_ALIGNED
mHideEmptyCategories
mClipCreatedCallback
mOnFocusedCallback
mOnUnfocusedCallback
mElementDrawCallback
_ArcaneGrid_OnFilteredElementsReady
OnFilteredElementsReady
mOnSelectedCallback
AdditionalFilterFunction
Name
/Lotus/Language/Menu/SortBy_Name
SortId
NAME
Attribute
/Lotus/Language/Menu/SortBy_Level
RANK
/Lotus/Language/Menu/Store_Owned
COUNT
gGameData

CategoryMenu
_visible
Active
/Lotus/Language/Menu/Category_ALL
Icon
categoryIcons
Category
ALL
/Lotus/Language/Menu/Category_WARFRAME
WARFRAME
/Lotus/Language/Menu/MenuOperator
OPERATOR
/Lotus/Language/Menu/Category_AMPS
AMP
string
/Lotus/Language/Menu/Category_GUNS
GUN
/Lotus/Language/Menu/Category_ZAWS
ZAW
_G
UISound_WindowOpen
mPrevSelection
mCurrArcane
mElements
Arcane
mItemId
mId

mItemType
Name
Owned
NotOwned
Maxed
ArcaneRank
math
mColumns
mPrevSelectedId
mSelectedElement
Filler
mClipName
mPrevSelectedId
Id
Active
Engine
_G
UISound_Select
UISound_ItemTipSection
Arcane
mInstance
mUpgradeFingerprint
Filler
mLabel

string
SearchTerm
NotOwned
IsNone
Name
ArcaneRank
NotOwned
IsNone
ArcaneRank
Name
NotOwned
IsNone
Arcane
mItemCount
Name
mEnabled
mScrollBar
mMovie
/Lotus/Language/Menu/SearchPrompt
Lotus.Interface.Components.ThemedInputField
ArcaneSelector.Search
<MENU_LTHUMB>
TYPE
PLAIN
mMinSize
mMaxSize
mTextBuffer
mAltButtonIcon
_G
UITexture_Search
mAltButtonVisible
mUnfocusedUnderlineColorOverride
BaseInputFieldTextChanged
InputFieldTextChanged
BaseOnGamepadTransition
OnGamepadTransition
BaseSetClearHintVisible
SetClearHintVisible
mLabel

_G
UITexture_Search
UITexture_ClearSearch
mAltButtonicon
mMovie
mClipName
.BtnAlt
mMuteGridOpenSound
Engine
mAltButtonVisible
mMovie
mClipName
BtnAlt
_visible
mMovie
ArcaneSelector.Stats
_visible
mMovie
ArcaneUpgradeAnim.CopiedRank
_visible
ArcaneUpgradeAnim.Arcane
mMovie
ArcaneUpgrader.Hint
verticalAlignment
center
ArcaneUpgrader.Hint.text
/Lotus/Language/Menu/ArcaneManager_UninstallHint
ArcaneUpgrader.UpgradeConfirm
bottom
ArcaneUpgrader.Bg
_G
UIMaterial_RectangleNoDepth
RectInnerColor
UIColorObject_DarkBlue
r
g
b
RectEdgeColor
UIColorObject_White
ArcaneUpgrader.RankUpBtn
Next Rank (3 Arcanes)
RankUpArcane
<MENU_RTRIGGER1>
CENTER_ALIGNED
ArcaneUpgrader.UpgradeBtn
Upgrade (3 Arcanes)
UpgradeArcane
<MENU_GENERIC1>
gGameData
Table
LoadOutType
Lotus_Game
LOT_NORMAL
Slot
SUIT_SLOT
MELEE_SLOT
LOT_OPERATOR
LONG_GUN_SLOT
mType
mId

table
mItemId
mSlot
mConfigSlot
mIsPvp
IsOperator
LoadOutSlot
mOperatorCustomization
AttachedUpgrades
Lotus_Game
mItemType
mType
mItemId
mId
table
_T
InfoPopup_Data
HideBackground
ArcaneManagerAvatar
gGameData
mMovie
SetSquadOverlayTitle
mMovie
ArcaneUpgradeAnim.Arcane.Loom.gotoAndStop
_T
ShowBackground
gRegion
MenuSuitAvatar
ArcaneManagerAvatar
ArcaneEquipInfo
Active
Callback
Weapon
Item
StoreItem
Slot
ConfigSlot
Upgrades
IsOperator
gGameData
AttachedUpgrades
mItemId
mId
ArsenalState
Lotus_Game
ARSENAL_STATE_PVP
SetSquadOverlayTitle
/Lotus/Language/Menu/Loadout_Upgrades
/Lotus/Language/Menu/FoundryEnhancements
/Lotus/Language/Menu/MenuFoundry
ArcaneSelector
ANCHOR_V_TOP
ANCHOR_H_LEFT
ArcaneUpgrader
ANCHOR_H_RIGHT
ArcaneUpgradeAnim
Blurer
GridBounds
ANCHOR_V_BOTTOM
_visible
ArcaneUpgrader.Loom.Left.SingleLoom01
_G
UIMaterial_VitruvianLines
ArcaneUpgrader.Loom.Left.SingleLoom02
ArcaneUpgrader.Loom.Left.SingleLoom03
ArcaneUpgrader.Loom.Left.SingleLoom04
ArcaneUpgrader.Loom.Right.SingleLoom01
ArcaneUpgrader.Loom.Right.SingleLoom02
ArcaneUpgrader.Loom.Right.SingleLoom03
ArcaneUpgrader.Loom.Right.SingleLoom04
ArcaneUpgradeAnim.Arcane.Loom.StraightLoomMain01
ArcaneUpgradeAnim.Arcane.Loom.StraightLoomMain02
ArcaneUpgradeAnim.Arcane.Loom.StraightLoomMain03
ArcaneUpgradeAnim.Arcane.Loom.StraightLoomMain04
ArcaneUpgradeAnim.Arcane.Loom.StraightLoomMain05
ArcaneUpgradeAnim.Arcane.Loom.StraightLoomMain06
ArcaneUpgradeAnim.Arcane.Loom.StraightLoomMain07
ArcaneUpgradeAnim.Arcane.Loom.StraightLoomMain08
Filler
Timer
TransitionTime
LastX
TargetX
LastY
TargetY
MaxMovement
mMovie
ArcaneUpgrader.Icon
_x
math
pi
_y
mMovie
gFlashMgr
_G
UIMovie_DetailedPurchaseDialog
mMovie
ArcaneUpgradeAnim.CopiedRank
_x
ArcaneUpgrader.RankList
_y
ArcaneUpgradeAnim.CopiedRank.Glow
_color
.Glow
ArcaneUpgradeAnim.CopiedRank.Desc
verticalAlignment
.Desc
text
ArcaneUpgradeAnim.CopiedRank.Backer
_height
.Backer
ArcaneUpgradeAnim.CopiedRank.Gradient
.Gradient
ArcaneUpgradeAnim.CopiedRank.Line
_visible
ArcaneUpgradeAnim.CopiedRank.Check
glowIcon
ArcaneUpgradeAnim.CopiedRank.Icon
rankIcons
ArcaneUpgradeAnim.CopiedRank.IconBacker
_G
UIMaterial_RectangleNoDepth
backerIcon
ArcaneUpgradeAnim.CopiedRank
mMovie
installStartSound
ArcaneUpgrader.RankList.Rank
mMovie
ArcaneUpgrader.Icon
_width
ArcaneUpgradeAnim.Arcane.Icon
_visible
_alpha
ArcaneUpgradeAnim.CopiedRank
ArcaneUpgradeAnim.Arcane
_xscale
_yscale
_y
_x
UISys
FlashInstance_EASE_OUT
ArcaneUpgrader
FlashInstance_EASE_OUT_BACK
mMovie
_visible
mMovie
ArcaneUpgradeAnim.Arcane.Loom.gotoAndPlay
installSuccessSound
mMovie
ArcaneUpgrader.Icon
_width
ArcaneUpgradeAnim.Arcane.Icon
upgradeFx
ArcaneUpgradeAnim.Arcane
ArcaneUpgrader
UISys
FlashInstance_EASE_OUT
_alpha
FlashInstance_EASE_OUT_BACK
_x
_y
_xscale
_yscale
ArcaneUpgradeAnim.CopiedRank
mMovie
ArcaneUpgradeAnim.Arcane
_visible
ArcaneUpgrader.Icon
_alpha
_x
_y
LastX
LastY
Timer
mMovie
ArcaneUpgradeAnim.CopiedRank
_visible
_alpha
_T
BackgroundMovie
ShowBlockingMessage
0
/Lotus/Language/Menu/ArcaneManager_UpgradeFailed
Engine
CI_SELECT
gGameData
mSelectedElement
Arcane
OnUpgradeArcane
_T
BackgroundMovie
ShowBlockingMessage
2
Engine
CI_SELECT
gGameData
mSelectedElement
Arcane
mItemType
IsOperator
mOperatorCustomization
mSlot
Lotus_Game
LoadOutType
LoadOutSlot
mId
mConfigSlot
mIsPvp
Active
Item
mItemId
ConfigSlot
_T
ArsenalState
ARSENAL_STATE_PVP
AttachedUpgrades
mMovie
OnConfirmUpgradeArcane
_G
UISound_ButtonSelect
mSelectedElement
_T
TestUpgradeAnim
gGameData
mSelectedElement
Arcane
mInstance
mUpgradeFingerprint
mMovie
mItemId
mId

mItemType
/Lotus/Language/Menu/ArcaneManager_InstalledWarning
ARCANE
OnConfirmUnequipArcanes
/Lotus/Language/Menu/ArcaneManager_UpgradeConfirm
NUM
RANK
OnConfirmUpgradeArcane
Arcane
mItemId
mId

mItemType
mItemCount
_G
UISound_Focus
mSelectedElement
_G
UISound_ButtonSelect
mCategoryMenu
mCategoryMenu
mCategoryMenu
mSortMenu
mSortMenu
mSortMenu
mSortMenu
mVisible
mMovie
Close

mScrollBar
_G
UISound_Scroll
_T
ShowBackground
                           
000001                     ** function [0] definition (level 1)
                           ** start of function **
000001  00                 string size (0)
                           source name: (none)
000002  00                 line defined (0)
000003  00                 last line defined (0)
000004  00                 nups (0)
000005  00                 numparams (0)
000006  02                 is_vararg (2)
000007  3C                 maxstacksize (60)
                           * code:
000009  03                 sizecode (392)
00000A  1D000000           [001] getglobal  0   0        ; 738251817
00000E  59400000           [002] loadk      1   1        ; "/Lotus/Types/Game/BaseCosmeticEnhancer"
000012  22800001           [003] call       0   2   2  
000016  5D800000           [004] getglobal  1   2        ; 849075268
00001A  99C00000           [005] loadk      2   3        ; "EE.Interface.Utilities"
00001E  62800001           [006] call       1   2   2  
000022  9D800000           [007] getglobal  2   2        ; 849075268
000026  D9000100           [008] loadk      3   4        ; "Lotus.Interface.LotusUtilities"
00002A  A2800001           [009] call       2   2   2  
00002E  DD800000           [010] getglobal  3   2        ; 849075268
000032  19410100           [011] loadk      4   5        ; "Lotus.Interface.StoreItemUtilities"
000036  E2800001           [012] call       3   2   2  
00003A  1D810000           [013] getglobal  4   2        ; 849075268
00003E  59810100           [014] loadk      5   6        ; "Lotus.Interface.UIStyleUtilities"
000042  22810001           [015] call       4   2   2  
000046  5D810000           [016] getglobal  5   2        ; 849075268
00004A  99C10100           [017] loadk      6   7        ; "Lotus.Interface.CardUtilitiesRedux"
00004E  62810001           [018] call       5   2   2  
000052  9D810000           [019] getglobal  6   2        ; 849075268
000056  D9010200           [020] loadk      7   8        ; "Lotus.Interface.UIUtilities"
00005A  A2810001           [021] call       6   2   2  
00005E  DD810000           [022] getglobal  7   2        ; 849075268
000062  19420200           [023] loadk      8   9        ; "EE.Interface.AnchorMgr"
000066  E2810001           [024] call       7   2   2  
00006A  1D820000           [025] getglobal  8   2        ; 849075268
00006E  59820200           [026] loadk      9   10       ; "Lotus.Interface.Components.ThemedButton"
000072  22820001           [027] call       8   2   2  
000076  5DC20200           [028] getglobal  9   11       ; 2083004503
00007A  99020300           [029] loadk      10  12       ; "/Lotus/Types/Game/Store/ProductsManifest"
00007E  62820001           [030] call       9   2   2  
000082  9DC20200           [031] getglobal  10  11       ; 2083004503
000086  D9420300           [032] loadk      11  13       ; "/Lotus/Types/Lore/PrimaryCodexManifest"
00008A  A2820001           [033] call       10  2   2  
00008E  C6028007           [034] loadnil    11  15     
000092  17048000           [035] loadbool   16  1   0    ; true
000096  46048008           [036] loadnil    17  17     
00009A  8B040000           [037] newtable   18  0   0    ; array=0, hash=0
00009E  D7040000           [038] loadbool   19  0   0    ; false
0000A2  0B050000           [039] newtable   20  0   0    ; array=0, hash=0
0000A6  59850300           [040] loadk      21  14       ; 0
0000AA  99850300           [041] loadk      22  14       ; 0
0000AE  D9850300           [042] loadk      23  14       ; 0
0000B2  0606000C           [043] loadnil    24  24     
0000B6  4B060000           [044] newtable   25  0   0    ; array=0, hash=0
0000BA  99C60300           [045] loadk      26  15       ; ""
0000BE  C606800D           [046] loadnil    27  27     
0000C2  19870300           [047] loadk      28  14       ; 0
0000C6  59870300           [048] loadk      29  14       ; 0
0000CA  99870300           [049] loadk      30  14       ; 0
0000CE  CBC70100           [050] newtable   31  0   7    ; array=0, hash=7
0000D2  CC474488           [051] settable   31  272 273  ; "MaxMovement" 0
0000D6  CC474489           [052] settable   31  274 273  ; "TransitionTime" 0
0000DA  CC07C589           [053] settable   31  275 276  ; "LastX" 0
0000DE  CC87C38A           [054] settable   31  277 270  ; "LastY" 0
0000E2  CC07458B           [055] settable   31  278 276  ; "TargetX" 0
0000E6  CC87C38B           [056] settable   31  279 270  ; "TargetY" 0
0000EA  CC87438C           [057] settable   31  280 270  ; "Timer" 0
0000EE  0BC80100           [058] newtable   32  0   7    ; array=0, hash=7
0000F2  0C88C68C           [059] settable   32  281 282  ; "Active" 0
0000F6  0C08C78D           [060] settable   32  283 284  ; "Item" nil
0000FA  0C08C78E           [061] settable   32  285 284  ; "Weapon" nil
0000FE  0C08478F           [062] settable   32  286 284  ; "StoreItem" nil
000102  0C08C78F           [063] settable   32  287 284  ; "Slot" nil
000106  0C084790           [064] settable   32  288 284  ; "AttachedUpgrades" nil
00010A  0C08C790           [065] settable   32  289 284  ; "Callback" nil
00010E  4B880100           [066] newtable   33  0   6    ; array=0, hash=6
000112  4C884391           [067] settable   33  290 270  ; "ALL" 0
000116  4C08C991           [068] settable   33  291 292  ; "WARFRAME" 0
00011A  4C48C492           [069] settable   33  293 273  ; "OPERATOR" 0
00011E  4CC84993           [070] settable   33  294 295  ; "AMP" 0
000122  4C484A94           [071] settable   33  296 297  ; "ZAW" 0
000126  4CC84A95           [072] settable   33  298 299  ; "GUN" 0
00012A  A5080000           [073] closure    34  0      
00012E  1200800D           [074] move       0   27     
000132  12008005           [075] move       0   11     
000136  12000001           [076] move       0   2      
00013A  12008000           [077] move       0   1      
00013E  12000003           [078] move       0   6      
000142  12000007           [079] move       0   14     
000146  12008006           [080] move       0   13     
00014A  E5480000           [081] closure    35  1      
00014E  12000011           [082] move       0   34     
000152  E0080B00           [083] setglobal  35  44       ; onViewportSizeChanged
000156  E0480B00           [084] setglobal  35  45       ; 982516775
00015A  E5880000           [085] closure    35  2      
00015E  12000008           [086] move       0   16     
000162  E0880B00           [087] setglobal  35  46       ; IsInputBlocked
000166  E0C80B00           [088] setglobal  35  47       ; 1877468992
00016A  E5C80000           [089] closure    35  3      
00016E  12000002           [090] move       0   4      
000172  12008000           [091] move       0   1      
000176  1200800E           [092] move       0   29     
00017A  1200000E           [093] move       0   28     
00017E  1200000F           [094] move       0   30     
000182  1200000A           [095] move       0   20     
000186  1200800A           [096] move       0   21     
00018A  1200000B           [097] move       0   22     
00018E  25090100           [098] closure    36  4      
000192  12008009           [099] move       0   19     
000196  12000008           [100] move       0   16     
00019A  12008000           [101] move       0   1      
00019E  65490100           [102] closure    37  5      
0001A2  12000010           [103] move       0   32     
0001A6  12000012           [104] move       0   36     
0001AA  60090C00           [105] setglobal  37  48       ; Close
0001AE  60490C00           [106] setglobal  37  49       ; -1517569684
0001B2  65890100           [107] closure    37  6      
0001B6  12008009           [108] move       0   19     
0001BA  12000012           [109] move       0   36     
0001BE  60890C00           [110] setglobal  37  50       ; OnSaveLoadOutComplete
0001C2  60C90C00           [111] setglobal  37  51       ; -554137788
0001C6  65C90100           [112] closure    37  7      
0001CA  A5090200           [113] closure    38  8      
0001CE  12008005           [114] move       0   11     
0001D2  12008001           [115] move       0   3      
0001D6  12000010           [116] move       0   32     
0001DA  12008012           [117] move       0   37     
0001DE  12008000           [118] move       0   1      
0001E2  12000012           [119] move       0   36     
0001E6  E5490200           [120] closure    39  9      
0001EA  12000013           [121] move       0   38     
0001EE  E0090D00           [122] setglobal  39  52       ; EquipArcane
0001F2  E0490D00           [123] setglobal  39  53       ; -2077892206
0001F6  E5890200           [124] closure    39  10     
0001FA  1200800C           [125] move       0   25     
0001FE  12000010           [126] move       0   32     
000202  12008005           [127] move       0   11     
000206  12008012           [128] move       0   37     
00020A  25CA0200           [129] closure    40  11     
00020E  12008005           [130] move       0   11     
000212  12008004           [131] move       0   9      
000216  12000010           [132] move       0   32     
00021A  12000005           [133] move       0   10     
00021E  12000000           [134] move       0   0      
000222  12008010           [135] move       0   33     
000226  12008001           [136] move       0   3      
00022A  12008000           [137] move       0   1      
00022E  12008012           [138] move       0   37     
000232  650A0300           [139] closure    41  12     
000236  A54A0300           [140] closure    42  13     
00023A  1200800A           [141] move       0   21     
00023E  1200000B           [142] move       0   22     
000242  1200000C           [143] move       0   24     
000246  E58A0300           [144] closure    43  14     
00024A  12008006           [145] move       0   13     
00024E  12000007           [146] move       0   14     
000252  12008000           [147] move       0   1      
000256  12000010           [148] move       0   32     
00025A  12008004           [149] move       0   9      
00025E  12008001           [150] move       0   3      
000262  1200800A           [151] move       0   21     
000266  12008014           [152] move       0   41     
00026A  12000000           [153] move       0   0      
00026E  1200000B           [154] move       0   22     
000272  1200800B           [155] move       0   23     
000276  12008002           [156] move       0   5      
00027A  1200000D           [157] move       0   26     
00027E  1200000A           [158] move       0   20     
000282  12000015           [159] move       0   42     
000286  12008011           [160] move       0   35     
00028A  25CB0300           [161] closure    44  15     
00028E  12008005           [162] move       0   11     
000292  650B0400           [163] closure    45  16     
000296  12000003           [164] move       0   6      
00029A  12008005           [165] move       0   11     
00029E  A54B0400           [166] closure    46  17     
0002A2  12000003           [167] move       0   6      
0002A6  12008005           [168] move       0   11     
0002AA  12000016           [169] move       0   44     
0002AE  E58B0400           [170] closure    47  18     
0002B2  12000003           [171] move       0   6      
0002B6  12008005           [172] move       0   11     
0002BA  12000016           [173] move       0   44     
0002BE  25CC0400           [174] closure    48  19     
0002C2  12000003           [175] move       0   6      
0002C6  12008005           [176] move       0   11     
0002CA  12000016           [177] move       0   44     
0002CE  650C0500           [178] closure    49  20     
0002D2  12008005           [179] move       0   11     
0002D6  12008000           [180] move       0   1      
0002DA  12008016           [181] move       0   45     
0002DE  12000017           [182] move       0   46     
0002E2  12008017           [183] move       0   47     
0002E6  12000018           [184] move       0   48     
0002EA  1200000E           [185] move       0   28     
0002EE  1200800E           [186] move       0   29     
0002F2  1200000F           [187] move       0   30     
0002F6  12008011           [188] move       0   35     
0002FA  12008015           [189] move       0   43     
0002FE  12000010           [190] move       0   32     
000302  12008007           [191] move       0   15     
000306  12000013           [192] move       0   38     
00030A  1200000B           [193] move       0   22     
00030E  12008013           [194] move       0   39     
000312  12008008           [195] move       0   17     
000316  12008010           [196] move       0   33     
00031A  A54C0500           [197] closure    50  21     
00031E  12008005           [198] move       0   11     
000322  E58C0500           [199] closure    51  22     
000326  12008008           [200] move       0   17     
00032A  12008005           [201] move       0   11     
00032E  25CD0500           [202] closure    52  23     
000332  650D0600           [203] closure    53  24     
000336  12000007           [204] move       0   14     
00033A  12000004           [205] move       0   8      
00033E  12008000           [206] move       0   1      
000342  12008006           [207] move       0   13     
000346  A54D0600           [208] closure    54  25     
00034A  12000000           [209] move       0   0      
00034E  12000009           [210] move       0   18     
000352  E58D0600           [211] closure    55  26     
000356  12000010           [212] move       0   32     
00035A  25CE0600           [213] closure    56  27     
00035E  12008005           [214] move       0   11     
000362  208E0D00           [215] setglobal  56  54       ; Shutdown
000366  20CE0D00           [216] setglobal  56  55       ; 1012367267
00036A  250E0700           [217] closure    56  28     
00036E  12000010           [218] move       0   32     
000372  1200801B           [219] move       0   55     
000376  1200800D           [220] move       0   27     
00037A  12008003           [221] move       0   7      
00037E  12008019           [222] move       0   51     
000382  1200001A           [223] move       0   52     
000386  1200801A           [224] move       0   53     
00038A  12008018           [225] move       0   49     
00038E  12000011           [226] move       0   34     
000392  1200001B           [227] move       0   54     
000396  12008015           [228] move       0   43     
00039A  12000014           [229] move       0   40     
00039E  12008013           [230] move       0   39     
0003A2  12008011           [231] move       0   35     
0003A6  12000008           [232] move       0   16     
0003AA  200E0E00           [233] setglobal  56  56       ; Initialize
0003AE  204E0E00           [234] setglobal  56  57       ; 1650753590
0003B2  254E0700           [235] closure    56  29     
0003B6  1200800F           [236] move       0   31     
0003BA  658E0700           [237] closure    57  30     
0003BE  1200001C           [238] move       0   56     
0003C2  608E0E00           [239] setglobal  57  58       ; Update
0003C6  60CE0E00           [240] setglobal  57  59       ; -1938777623
0003CA  65CE0700           [241] closure    57  31     
0003CE  A50E0800           [242] closure    58  32     
0003D2  12008000           [243] move       0   1      
0003D6  1200000B           [244] move       0   22     
0003DA  1200801C           [245] move       0   57     
0003DE  12000014           [246] move       0   40     
0003E2  E54E0800           [247] closure    59  33     
0003E6  12008000           [248] move       0   1      
0003EA  12000001           [249] move       0   2      
0003EE  1200800F           [250] move       0   31     
0003F2  E00E0F00           [251] setglobal  59  60       ; UpgradeLoomAnimationComplete
0003F6  E04E0F00           [252] setglobal  59  61       ; -968047793
0003FA  E58E0800           [253] closure    59  34     
0003FE  12000008           [254] move       0   16     
000402  12008000           [255] move       0   1      
000406  1200001D           [256] move       0   58     
00040A  E08E0F00           [257] setglobal  59  62       ; OnUpgradeArcane
00040E  E0CE0F00           [258] setglobal  59  63       ; -1275055399
000412  E5CE0800           [259] closure    59  35     
000416  12000008           [260] move       0   16     
00041A  12008005           [261] move       0   11     
00041E  1200000B           [262] move       0   22     
000422  E00E1000           [263] setglobal  59  64       ; OnConfirmUpgradeArcane
000426  E04E1000           [264] setglobal  59  65       ; 2081294257
00042A  E50E0900           [265] closure    59  36     
00042E  12008005           [266] move       0   11     
000432  12000009           [267] move       0   18     
000436  12000010           [268] move       0   32     
00043A  1200801B           [269] move       0   55     
00043E  12008009           [270] move       0   19     
000442  E08E1000           [271] setglobal  59  66       ; OnConfirmUnequipArcanes
000446  E0CE1000           [272] setglobal  59  67       ; -1748799438
00044A  E54E0900           [273] closure    59  37     
00044E  12008000           [274] move       0   1      
000452  1200000B           [275] move       0   22     
000456  12008005           [276] move       0   11     
00045A  12008015           [277] move       0   43     
00045E  E00E1100           [278] setglobal  59  68       ; RankUpArcane
000462  E04E1100           [279] setglobal  59  69       ; 271278536
000466  E58E0900           [280] closure    59  38     
00046A  1200001D           [281] move       0   58     
00046E  12008005           [282] move       0   11     
000472  1200000B           [283] move       0   22     
000476  12008000           [284] move       0   1      
00047A  12000009           [285] move       0   18     
00047E  E08E1100           [286] setglobal  59  70       ; UpgradeArcane
000482  E0CE1100           [287] setglobal  59  71       ; -95308227
000486  E5CE0900           [288] closure    59  39     
00048A  12008005           [289] move       0   11     
00048E  E00E1200           [290] setglobal  59  72       ; ArcaneFocused
000492  E04E1200           [291] setglobal  59  73       ; -1081495175
000496  E50E0A00           [292] closure    59  40     
00049A  12008005           [293] move       0   11     
00049E  E08E1200           [294] setglobal  59  74       ; ArcaneUnfocused
0004A2  E0CE1200           [295] setglobal  59  75       ; -1369377786
0004A6  E54E0A00           [296] closure    59  41     
0004AA  12000008           [297] move       0   16     
0004AE  12008005           [298] move       0   11     
0004B2  E00E1300           [299] setglobal  59  76       ; ArcaneSelected
0004B6  E04E1300           [300] setglobal  59  77       ; -1954525088
0004BA  E58E0A00           [301] closure    59  42     
0004BE  12008000           [302] move       0   1      
0004C2  1200000C           [303] move       0   24     
0004C6  12000015           [304] move       0   42     
0004CA  E08E1300           [305] setglobal  59  78       ; RankElementFocused
0004CE  E0CE1300           [306] setglobal  59  79       ; -135912028
0004D2  E5CE0A00           [307] closure    59  43     
0004D6  1200000C           [308] move       0   24     
0004DA  12000015           [309] move       0   42     
0004DE  E00E1400           [310] setglobal  59  80       ; RankElementUnfocused
0004E2  E04E1400           [311] setglobal  59  81       ; 1528976010
0004E6  E50E0B00           [312] closure    59  44     
0004EA  1200000B           [313] move       0   22     
0004EE  1200800A           [314] move       0   21     
0004F2  12008015           [315] move       0   43     
0004F6  12008005           [316] move       0   11     
0004FA  12008000           [317] move       0   1      
0004FE  E08E1400           [318] setglobal  59  82       ; RankElementPressed
000502  E0CE1400           [319] setglobal  59  83       ; -800248680
000506  E54E0B00           [320] closure    59  45     
00050A  12000019           [321] move       0   50     
00050E  12000006           [322] move       0   12     
000512  E00E1500           [323] setglobal  59  84       ; InstallPanelFocused
000516  E04E1500           [324] setglobal  59  85       ; -411282853
00051A  E58E0B00           [325] closure    59  46     
00051E  12000019           [326] move       0   50     
000522  12000006           [327] move       0   12     
000526  E08E1500           [328] setglobal  59  86       ; InstallPanelUnfocused
00052A  E0CE1500           [329] setglobal  59  87       ; -1469842210
00052E  E5CE0B00           [330] closure    59  47     
000532  12008005           [331] move       0   11     
000536  E00E1600           [332] setglobal  59  88       ; CategoryFocused
00053A  E04E1600           [333] setglobal  59  89       ; -1361401222
00053E  E50E0C00           [334] closure    59  48     
000542  12008005           [335] move       0   11     
000546  E08E1600           [336] setglobal  59  90       ; CategoryUnfocused
00054A  E0CE1600           [337] setglobal  59  91       ; 2069135662
00054E  E54E0C00           [338] closure    59  49     
000552  12000008           [339] move       0   16     
000556  12008005           [340] move       0   11     
00055A  E00E1700           [341] setglobal  59  92       ; CategoryPressed
00055E  E04E1700           [342] setglobal  59  93       ; 926026066
000562  E58E0C00           [343] closure    59  50     
000566  12008005           [344] move       0   11     
00056A  E08E1700           [345] setglobal  59  94       ; SortByFocused
00056E  E0CE1700           [346] setglobal  59  95       ; 604238641
000572  E5CE0C00           [347] closure    59  51     
000576  12008005           [348] move       0   11     
00057A  E00E1800           [349] setglobal  59  96       ; SortByUnfocused
00057E  E04E1800           [350] setglobal  59  97       ; 60649754
000582  E50E0D00           [351] closure    59  52     
000586  12000008           [352] move       0   16     
00058A  12008005           [353] move       0   11     
00058E  E08E1800           [354] setglobal  59  98       ; SortByPressed
000592  E0CE1800           [355] setglobal  59  99       ; 109189841
000596  E54E0D00           [356] closure    59  53     
00059A  12000008           [357] move       0   16     
00059E  12008005           [358] move       0   11     
0005A2  E00E1900           [359] setglobal  59  100      ; onKeyDown_MENU_LTRIGGER2
0005A6  E04E1900           [360] setglobal  59  101      ; -1680304416
0005AA  E58E0D00           [361] closure    59  54     
0005AE  12000008           [362] move       0   16     
0005B2  12008005           [363] move       0   11     
0005B6  E08E1900           [364] setglobal  59  102      ; onKeyDown_MENU_RTRIGGER2
0005BA  E0CE1900           [365] setglobal  59  103      ; 266665867
0005BE  E5CE0D00           [366] closure    59  55     
0005C2  12008005           [367] move       0   11     
0005C6  E00E1A00           [368] setglobal  59  104      ; onKeyUp_MENU_SELECT
0005CA  E04E1A00           [369] setglobal  59  105      ; 1215563932
0005CE  E50E0E00           [370] closure    59  56     
0005D2  12000008           [371] move       0   16     
0005D6  12008005           [372] move       0   11     
0005DA  E08E1A00           [373] setglobal  59  106      ; onKeyUp_MENU_CANCEL
0005DE  E0CE1A00           [374] setglobal  59  107      ; -665590474
0005E2  E54E0E00           [375] closure    59  57     
0005E6  12000008           [376] move       0   16     
0005EA  12008005           [377] move       0   11     
0005EE  E00E1B00           [378] setglobal  59  108      ; onKeyDown_MENU_MOUSE_Z
0005F2  E04E1B00           [379] setglobal  59  109      ; 1458230185
0005F6  E58E0E00           [380] closure    59  58     
0005FA  12000007           [381] move       0   14     
0005FE  12008006           [382] move       0   13     
000602  E08E1B00           [383] setglobal  59  110      ; OnGamepadTransition
000606  E0CE1B00           [384] setglobal  59  111      ; -1729825229
00060A  E5CE0E00           [385] closure    59  59     
00060E  E00E1C00           [386] setglobal  59  112      ; SupportsThemes
000612  E04E1C00           [387] setglobal  59  113      ; -605602914
000616  E50E0F00           [388] closure    59  60     
00061A  12008011           [389] move       0   35     
00061E  E08E1C00           [390] setglobal  59  114      ; OnStyleChangedCallback
000622  E0CE1C00           [391] setglobal  59  115      ; -1703525018
000626  1E008000           [392] return     0   1      
                           * constants:
00062A  74                 sizek (116)
00062B  01                 const type 3
00062C  29D4002C           const [0]: (738251817)
000630  04                 const type 4
000631  27                 string size (39)
000632  2F4C6F7475732F54+  "/Lotus/T"
00063A  797065732F47616D+  "ypes/Gam"
000642  652F42617365436F+  "e/BaseCo"
00064A  736D65746963456E+  "smeticEn"
000652  68616E63657200     "hancer\0"
                           const [1]: "/Lotus/Types/Game/BaseCosmeticEnhancer"
000659  01                 const type 3
00065A  44DC9B32           const [2]: (849075268)
00065E  04                 const type 4
00065F  17                 string size (23)
000660  45452E496E746572+  "EE.Inter"
000668  666163652E557469+  "face.Uti"
000670  6C697469657300     "lities\0"
                           const [3]: "EE.Interface.Utilities"
000677  04                 const type 4
000678  1F                 string size (31)
000679  4C6F7475732E496E+  "Lotus.In"
000681  746572666163652E+  "terface."
000689  4C6F747573557469+  "LotusUti"
000691  6C697469657300     "lities\0"
                           const [4]: "Lotus.Interface.LotusUtilities"
000698  04                 const type 4
000699  23                 string size (35)
00069A  4C6F7475732E496E+  "Lotus.In"
0006A2  746572666163652E+  "terface."
0006AA  53746F7265497465+  "StoreIte"
0006B2  6D5574696C697469+  "mUtiliti"
0006BA  657300             "es\0"
                           const [5]: "Lotus.Interface.StoreItemUtilities"
0006BD  04                 const type 4
0006BE  21                 string size (33)
0006BF  4C6F7475732E496E+  "Lotus.In"
0006C7  746572666163652E+  "terface."
0006CF  55495374796C6555+  "UIStyleU"
0006D7  74696C6974696573+  "tilities"
0006DF  00                 "\0"
                           const [6]: "Lotus.Interface.UIStyleUtilities"
0006E0  04                 const type 4
0006E1  23                 string size (35)
0006E2  4C6F7475732E496E+  "Lotus.In"
0006EA  746572666163652E+  "terface."
0006F2  436172645574696C+  "CardUtil"
0006FA  6974696573526564+  "itiesRed"
000702  757800             "ux\0"
                           const [7]: "Lotus.Interface.CardUtilitiesRedux"
000705  04                 const type 4
000706  1C                 string size (28)
000707  4C6F7475732E496E+  "Lotus.In"
00070F  746572666163652E+  "terface."
000717  55495574696C6974+  "UIUtilit"
00071F  69657300           "ies\0"
                           const [8]: "Lotus.Interface.UIUtilities"
000723  04                 const type 4
000724  17                 string size (23)
000725  45452E496E746572+  "EE.Inter"
00072D  666163652E416E63+  "face.Anc"
000735  686F724D677200     "horMgr\0"
                           const [9]: "EE.Interface.AnchorMgr"
00073C  04                 const type 4
00073D  28                 string size (40)
00073E  4C6F7475732E496E+  "Lotus.In"
000746  746572666163652E+  "terface."
00074E  436F6D706F6E656E+  "Componen"
000756  74732E5468656D65+  "ts.Theme"
00075E  64427574746F6E00   "dButton\0"
                           const [10]: "Lotus.Interface.Components.ThemedButton"
000766  01                 const type 3
000767  5720287C           const [11]: (2083004503)
00076B  04                 const type 4
00076C  29                 string size (41)
00076D  2F4C6F7475732F54+  "/Lotus/T"
000775  797065732F47616D+  "ypes/Gam"
00077D  652F53746F72652F+  "e/Store/"
000785  50726F6475637473+  "Products"
00078D  4D616E6966657374+  "Manifest"
000795  00                 "\0"
                           const [12]: "/Lotus/Types/Game/Store/ProductsManifest"
000796  04                 const type 4
000797  27                 string size (39)
000798  2F4C6F7475732F54+  "/Lotus/T"
0007A0  797065732F4C6F72+  "ypes/Lor"
0007A8  652F5072696D6172+  "e/Primar"
0007B0  79436F6465784D61+  "yCodexMa"
0007B8  6E696665737400     "nifest\0"
                           const [13]: "/Lotus/Types/Lore/PrimaryCodexManifest"
0007BF  03                 const type 3
0007C0  00000000           const [14]: (0)
0007C4  04                 const type 4
0007C5  01                 string size (0)
                           const [15]: ""
0007C7  04                 const type 4
0007C8  0C                 string size (12)
0007C9  4D61784D6F76656D+  "MaxMovem"
0007D1  656E7400           "ent\0"
                           const [16]: "MaxMovement"
0007D5  03                 const type 3
0007D6  00000040           const [17]: (0)
0007DA  04                 const type 4
0007DB  0F                 string size (15)
0007DC  5472616E73697469+  "Transiti"
0007E4  6F6E54696D6500     "onTime\0"
                           const [18]: "TransitionTime"
0007EB  04                 const type 4
0007EC  06                 string size (6)
0007ED  4C6173745800       "LastX\0"
                           const [19]: "LastX"
0007F3  03                 const type 3
0007F4  008089C3           const [20]: (0)
0007F8  04                 const type 4
0007F9  06                 string size (6)
0007FA  4C6173745900       "LastY\0"
                           const [21]: "LastY"
000800  04                 const type 4
000801  08                 string size (8)
000802  5461726765745800   "TargetX\0"
                           const [22]: "TargetX"
00080A  04                 const type 4
00080B  08                 string size (8)
00080C  5461726765745900   "TargetY\0"
                           const [23]: "TargetY"
000814  04                 const type 4
000815  06                 string size (6)
000816  54696D657200       "Timer\0"
                           const [24]: "Timer"
00081C  04                 const type 4
00081D  07                 string size (7)
00081E  41637469766500     "Active\0"
                           const [25]: "Active"
000825  01                 const type 3
000826  00000000           const [26]: (0)
00082A  04                 const type 4
00082B  05                 string size (5)
00082C  4974656D00         "Item\0"
                           const [27]: "Item"
000831  00                 const type 0
                           const [28]: nil
000832  04                 const type 4
000833  07                 string size (7)
000834  576561706F6E00     "Weapon\0"
                           const [29]: "Weapon"
00083B  04                 const type 4
00083C  0A                 string size (10)
00083D  53746F7265497465+  "StoreIte"
000845  6D00               "m\0"
                           const [30]: "StoreItem"
000847  04                 const type 4
000848  05                 string size (5)
000849  536C6F7400         "Slot\0"
                           const [31]: "Slot"
00084E  04                 const type 4
00084F  11                 string size (17)
000850  4174746163686564+  "Attached"
000858  5570677261646573+  "Upgrades"
000860  00                 "\0"
                           const [32]: "AttachedUpgrades"
000861  04                 const type 4
000862  09                 string size (9)
000863  43616C6C6261636B+  "Callback"
00086B  00                 "\0"
                           const [33]: "Callback"
00086C  04                 const type 4
00086D  04                 string size (4)
00086E  414C4C00           "ALL\0"
                           const [34]: "ALL"
000872  04                 const type 4
000873  09                 string size (9)
000874  5741524652414D45+  "WARFRAME"
00087C  00                 "\0"
                           const [35]: "WARFRAME"
00087D  03                 const type 3
00087E  0000803F           const [36]: (0)
000882  04                 const type 4
000883  09                 string size (9)
000884  4F50455241544F52+  "OPERATOR"
00088C  00                 "\0"
                           const [37]: "OPERATOR"
00088D  04                 const type 4
00088E  04                 string size (4)
00088F  414D5000           "AMP\0"
                           const [38]: "AMP"
000893  03                 const type 3
000894  00004040           const [39]: (0)
000898  04                 const type 4
000899  04                 string size (4)
00089A  5A415700           "ZAW\0"
                           const [40]: "ZAW"
00089E  03                 const type 3
00089F  00008040           const [41]: (0)
0008A3  04                 const type 4
0008A4  04                 string size (4)
0008A5  47554E00           "GUN\0"
                           const [42]: "GUN"
0008A9  03                 const type 3
0008AA  0000A040           const [43]: (0)
0008AE  04                 const type 4
0008AF  16                 string size (22)
0008B0  6F6E56696577706F+  "onViewpo"
0008B8  727453697A654368+  "rtSizeCh"
0008C0  616E67656400       "anged\0"
                           const [44]: "onViewportSizeChanged"
0008C6  01                 const type 3
0008C7  2704903A           const [45]: (982516775)
0008CB  04                 const type 4
0008CC  0F                 string size (15)
0008CD  4973496E70757442+  "IsInputB"
0008D5  6C6F636B656400     "locked\0"
                           const [46]: "IsInputBlocked"
0008DC  01                 const type 3
0008DD  40E7E76F           const [47]: (1877468992)
0008E1  04                 const type 4
0008E2  06                 string size (6)
0008E3  436C6F736500       "Close\0"
                           const [48]: "Close"
0008E9  01                 const type 3
0008EA  6CB98BA5           const [49]: (-1517569684)
0008EE  04                 const type 4
0008EF  16                 string size (22)
0008F0  4F6E536176654C6F+  "OnSaveLo"
0008F8  61644F7574436F6D+  "adOutCom"
000900  706C65746500       "plete\0"
                           const [50]: "OnSaveLoadOutComplete"
000906  01                 const type 3
000907  4487F8DE           const [51]: (-554137788)
00090B  04                 const type 4
00090C  0C                 string size (12)
00090D  4571756970417263+  "EquipArc"
000915  616E6500           "ane\0"
                           const [52]: "EquipArcane"
000919  01                 const type 3
00091A  92E12584           const [53]: (-2077892206)
00091E  04                 const type 4
00091F  09                 string size (9)
000920  53687574646F776E+  "Shutdown"
000928  00                 "\0"
                           const [54]: "Shutdown"
000929  01                 const type 3
00092A  A37F573C           const [55]: (1012367267)
00092E  04                 const type 4
00092F  0B                 string size (11)
000930  496E697469616C69+  "Initiali"
000938  7A6500             "ze\0"
                           const [56]: "Initialize"
00093B  01                 const type 3
00093C  36806462           const [57]: (1650753590)
000940  04                 const type 4
000941  07                 string size (7)
000942  55706461746500     "Update\0"
                           const [58]: "Update"
000949  01                 const type 3
00094A  E999708C           const [59]: (-1938777623)
00094E  04                 const type 4
00094F  1D                 string size (29)
000950  557067726164654C+  "UpgradeL"
000958  6F6F6D416E696D61+  "oomAnima"
000960  74696F6E436F6D70+  "tionComp"
000968  6C65746500         "lete\0"
                           const [60]: "UpgradeLoomAnimationComplete"
00096D  01                 const type 3
00096E  4FC34CC6           const [61]: (-968047793)
000972  04                 const type 4
000973  10                 string size (16)
000974  4F6E557067726164+  "OnUpgrad"
00097C  65417263616E6500   "eArcane\0"
                           const [62]: "OnUpgradeArcane"
000984  01                 const type 3
000985  D93200B4           const [63]: (-1275055399)
000989  04                 const type 4
00098A  17                 string size (23)
00098B  4F6E436F6E666972+  "OnConfir"
000993  6D55706772616465+  "mUpgrade"
00099B  417263616E6500     "Arcane\0"
                           const [64]: "OnConfirmUpgradeArcane"
0009A2  01                 const type 3
0009A3  B1070E7C           const [65]: (2081294257)
0009A7  04                 const type 4
0009A8  18                 string size (24)
0009A9  4F6E436F6E666972+  "OnConfir"
0009B1  6D556E6571756970+  "mUnequip"
0009B9  417263616E657300   "Arcanes\0"
                           const [66]: "OnConfirmUnequipArcanes"
0009C1  01                 const type 3
0009C2  3270C397           const [67]: (-1748799438)
0009C6  04                 const type 4
0009C7  0D                 string size (13)
0009C8  52616E6B55704172+  "RankUpAr"
0009D0  63616E6500         "cane\0"
                           const [68]: "RankUpArcane"
0009D5  01                 const type 3
0009D6  C8612B10           const [69]: (271278536)
0009DA  04                 const type 4
0009DB  0E                 string size (14)
0009DC  5570677261646541+  "UpgradeA"
0009E4  7263616E6500       "rcane\0"
                           const [70]: "UpgradeArcane"
0009EA  01                 const type 3
0009EB  3DB651FA           const [71]: (-95308227)
0009EF  04                 const type 4
0009F0  0E                 string size (14)
0009F1  417263616E65466F+  "ArcaneFo"
0009F9  637573656400       "cused\0"
                           const [72]: "ArcaneFocused"
0009FF  01                 const type 3
000A00  79B189BF           const [73]: (-1081495175)
000A04  04                 const type 4
000A05  10                 string size (16)
000A06  417263616E65556E+  "ArcaneUn"
000A0E  666F637573656400   "focused\0"
                           const [74]: "ArcaneUnfocused"
000A16  01                 const type 3
000A17  06F460AE           const [75]: (-1369377786)
000A1B  04                 const type 4
000A1C  0F                 string size (15)
000A1D  417263616E655365+  "ArcaneSe"
000A25  6C656374656400     "lected\0"
                           const [76]: "ArcaneSelected"
000A2C  01                 const type 3
000A2D  6050808B           const [77]: (-1954525088)
000A31  04                 const type 4
000A32  13                 string size (19)
000A33  52616E6B456C656D+  "RankElem"
000A3B  656E74466F637573+  "entFocus"
000A43  656400             "ed\0"
                           const [78]: "RankElementFocused"
000A46  01                 const type 3
000A47  A425E6F7           const [79]: (-135912028)
000A4B  04                 const type 4
000A4C  15                 string size (21)
000A4D  52616E6B456C656D+  "RankElem"
000A55  656E74556E666F63+  "entUnfoc"
000A5D  7573656400         "used\0"
                           const [80]: "RankElementUnfocused"
000A62  01                 const type 3
000A63  8A52225B           const [81]: (1528976010)
000A67  04                 const type 4
000A68  13                 string size (19)
000A69  52616E6B456C656D+  "RankElem"
000A71  656E745072657373+  "entPress"
000A79  656400             "ed\0"
                           const [82]: "RankElementPressed"
000A7C  01                 const type 3
000A7D  982C4DD0           const [83]: (-800248680)
000A81  04                 const type 4
000A82  14                 string size (20)
000A83  496E7374616C6C50+  "InstallP"
000A8B  616E656C466F6375+  "anelFocu"
000A93  73656400           "sed\0"
                           const [84]: "InstallPanelFocused"
000A97  01                 const type 3
000A98  5B527CE7           const [85]: (-411282853)
000A9C  04                 const type 4
000A9D  16                 string size (22)
000A9E  496E7374616C6C50+  "InstallP"
000AA6  616E656C556E666F+  "anelUnfo"
000AAE  637573656400       "cused\0"
                           const [86]: "InstallPanelUnfocused"
000AB4  01                 const type 3
000AB5  DEFC63A8           const [87]: (-1469842210)
000AB9  04                 const type 4
000ABA  10                 string size (16)
000ABB  43617465676F7279+  "Category"
000AC3  466F637573656400   "Focused\0"
                           const [88]: "CategoryFocused"
000ACB  01                 const type 3
000ACC  7AAADAAE           const [89]: (-1361401222)
000AD0  04                 const type 4
000AD1  12                 string size (18)
000AD2  43617465676F7279+  "Category"
000ADA  556E666F63757365+  "Unfocuse"
000AE2  6400               "d\0"
                           const [90]: "CategoryUnfocused"
000AE4  01                 const type 3
000AE5  2E81547B           const [91]: (2069135662)
000AE9  04                 const type 4
000AEA  10                 string size (16)
000AEB  43617465676F7279+  "Category"
000AF3  5072657373656400   "Pressed\0"
                           const [92]: "CategoryPressed"
000AFB  01                 const type 3
000AFC  52093237           const [93]: (926026066)
000B00  04                 const type 4
000B01  0E                 string size (14)
000B02  536F72744279466F+  "SortByFo"
000B0A  637573656400       "cused\0"
                           const [94]: "SortByFocused"
000B10  01                 const type 3
000B11  31F30324           const [95]: (604238641)
000B15  04                 const type 4
000B16  10                 string size (16)
000B17  536F72744279556E+  "SortByUn"
000B1F  666F637573656400   "focused\0"
                           const [96]: "SortByUnfocused"
000B27  01                 const type 3
000B28  1A719D03           const [97]: (60649754)
000B2C  04                 const type 4
000B2D  0E                 string size (14)
000B2E  536F727442795072+  "SortByPr"
000B36  657373656400       "essed\0"
                           const [98]: "SortByPressed"
000B3C  01                 const type 3
000B3D  D11A8206           const [99]: (109189841)
000B41  04                 const type 4
000B42  19                 string size (25)
000B43  6F6E4B6579446F77+  "onKeyDow"
000B4B  6E5F4D454E555F4C+  "n_MENU_L"
000B53  5452494747455232+  "TRIGGER2"
000B5B  00                 "\0"
                           const [100]: "onKeyDown_MENU_LTRIGGER2"
000B5C  01                 const type 3
000B5D  E096D89B           const [101]: (-1680304416)
000B61  04                 const type 4
000B62  19                 string size (25)
000B63  6F6E4B6579446F77+  "onKeyDow"
000B6B  6E5F4D454E555F52+  "n_MENU_R"
000B73  5452494747455232+  "TRIGGER2"
000B7B  00                 "\0"
                           const [102]: "onKeyDown_MENU_RTRIGGER2"
000B7C  01                 const type 3
000B7D  8BFFE40F           const [103]: (266665867)
000B81  04                 const type 4
000B82  14                 string size (20)
000B83  6F6E4B657955705F+  "onKeyUp_"
000B8B  4D454E555F53454C+  "MENU_SEL"
000B93  45435400           "ECT\0"
                           const [104]: "onKeyUp_MENU_SELECT"
000B97  01                 const type 3
000B98  9C087448           const [105]: (1215563932)
000B9C  04                 const type 4
000B9D  14                 string size (20)
000B9E  6F6E4B657955705F+  "onKeyUp_"
000BA6  4D454E555F43414E+  "MENU_CAN"
000BAE  43454C00           "CEL\0"
                           const [106]: "onKeyUp_MENU_CANCEL"
000BB2  01                 const type 3
000BB3  36E553D8           const [107]: (-665590474)
000BB7  04                 const type 4
000BB8  17                 string size (23)
000BB9  6F6E4B6579446F77+  "onKeyDow"
000BC1  6E5F4D454E555F4D+  "n_MENU_M"
000BC9  4F5553455F5A00     "OUSE_Z\0"
                           const [108]: "onKeyDown_MENU_MOUSE_Z"
000BD0  01                 const type 3
000BD1  A9D3EA56           const [109]: (1458230185)
000BD5  04                 const type 4
000BD6  14                 string size (20)
000BD7  4F6E47616D657061+  "OnGamepa"
000BDF  645472616E736974+  "dTransit"
000BE7  696F6E00           "ion\0"
                           const [110]: "OnGamepadTransition"
000BEB  01                 const type 3
000BEC  33F6E498           const [111]: (-1729825229)
000BF0  04                 const type 4
000BF1  0F                 string size (15)
000BF2  537570706F727473+  "Supports"
000BFA  5468656D657300     "Themes\0"
                           const [112]: "SupportsThemes"
000C01  01                 const type 3
000C02  9E3BE7DB           const [113]: (-605602914)
000C06  04                 const type 4
000C07  17                 string size (23)
000C08  4F6E5374796C6543+  "OnStyleC"
000C10  68616E6765644361+  "hangedCa"
000C18  6C6C6261636B00     "llback\0"
                           const [114]: "OnStyleChangedCallback"
000C1F  01                 const type 3
000C20  6645769A           const [115]: (-1703525018)
                           * functions:
000C24  3D                 sizep (61)
                           
000C25                     ** function [0] definition (level 2)
                           ** start of function **
000C25  00                 string size (0)
                           source name: (none)
000C26  57                 line defined (87)
000C27  84                 last line defined (132)
000C28  01                 nups (7)
000C29  07                 numparams (2)
000C2A  02                 is_vararg (0)
000C2B  00                 maxstacksize (28)
                           * code:
000C2E  01                 sizecode (189)
000C2F  9D000000           [001] getglobal  2   0        ; 1074689893
000C33  D3000000           [002] getupval   3   0      
000C37  A2800001           [003] call       2   2   2  
000C3B  98400000           [004] test       2       1    ; to [6] if false
000C3F  1A000180           [005] jmp        5            ; to [11]
000C43  93000000           [006] getupval   2   0      
000C47  A4404001           [007] self       2   2   257  ; -1938777623
000C4B  12010000           [008] move       4   0      
000C4F  52018000           [009] move       5   1      
000C53  A2400002           [010] call       2   4   1  
000C57  9D000000           [011] getglobal  2   0        ; 1074689893
000C5B  D3008000           [012] getupval   3   1      
000C5F  A2800001           [013] call       2   2   2  
000C63  98000000           [014] test       2       0    ; to [16] if true
000C67  1A000080           [015] jmp        1            ; to [17]
000C6B  1E008000           [016] return     0   1      
000C6F  93000001           [017] getupval   2   2      
000C73  8E804001           [018] gettable   2   2   258  ; -1152582673
000C77  DDC00000           [019] getglobal  3   3        ; mMovie
000C7B  19010100           [020] loadk      4   4        ; "Bluer"
000C7F  A2408001           [021] call       2   3   1  
000C83  93008001           [022] getupval   2   3      
000C87  8E404101           [023] gettable   2   2   261  ; -363423447
000C8B  DDC00000           [024] getglobal  3   3        ; mMovie
000C8F  A2C00001           [025] call       2   2   3  
000C93  0D814101           [026] sub        4   2   262  ; 0
000C97  1CC14102           [027] div        4   4   263  ; 0
000C9B  5DC10000           [028] getglobal  5   3        ; mMovie
000C9F  6401C202           [029] self       5   5   264  ; 471456102
000CA3  D9410200           [030] loadk      7   9        ; "CategoriesBg.LeftStub"
000CA7  19820200           [031] loadk      8   10       ; "_width"
000CAB  52020002           [032] move       9   4      
000CAF  62418002           [033] call       5   5   1  
000CB3  5DC10000           [034] getglobal  5   3        ; mMovie
000CB7  6401C202           [035] self       5   5   264  ; 471456102
000CBB  D9C10200           [036] loadk      7   11       ; "CategoriesBg.RightStub"
000CBF  19820200           [037] loadk      8   10       ; "_width"
000CC3  52020002           [038] move       9   4      
000CC7  62418002           [039] call       5   5   1  
000CCB  4B018001           [040] newtable   5   3   0    ; array=3, hash=0
000CCF  9D010300           [041] getglobal  6   12       ; visibleRangeMat
000CD3  DD410300           [042] getglobal  7   13       ; rectangleVisibleRangeMat
000CD7  1D820300           [043] getglobal  8   14       ; textVisibleRangeMat
000CDB  5B418001           [044] setlist    5   3   1    ; index 1 to 3
000CDF  9DC10300           [045] getglobal  6   15       ; 248503575
000CE3  DD010400           [046] getglobal  7   16       ; _G
000CE7  CE41C403           [047] gettable   7   7   273  ; "UIMaterial_CosmeticEnhancersStore"
000CEB  A2010101           [048] call       6   2   4  
000CEF  1A000180           [049] jmp        5            ; to [55]
000CF3  DD820400           [050] getglobal  11  18       ; table
000CF7  CEC2C405           [051] gettable   11  11  275  ; -431682403
000CFB  12038002           [052] move       12  5      
000CFF  52030005           [053] move       13  10     
000D03  E2428001           [054] call       11  3   1  
000D07  96810000           [055] tforloop   6       2    ; to [57] if exit
000D0B  1A00FE7F           [056] jmp        -7           ; to [50]
000D0F  D3028001           [057] getupval   11  3      
000D13  CE02C505           [058] gettable   11  11  276  ; -857652474
000D17  1DC30000           [059] getglobal  12  3        ; mMovie
000D1B  E2C20001           [060] call       11  2   3  
000D1F  5D430500           [061] getglobal  13  21       ; -174740002
000D23  9DC30000           [062] getglobal  14  3        ; mMovie
000D27  A4834507           [063] self       14  14  278  ; 1803241227
000D2B  19C40500           [064] loadk      16  23       ; "GridBounds"
000D2F  59040600           [065] loadk      17  24       ; "_x"
000D33  A2030002           [066] call       14  4   0  
000D37  62830000           [067] call       13  0   2  
000D3B  9D430500           [068] getglobal  14  21       ; -174740002
000D3F  DDC30000           [069] getglobal  15  3        ; mMovie
000D43  E483C507           [070] self       15  15  278  ; 1803241227
000D47  59440600           [071] loadk      17  25       ; "ArcaneSelector"
000D4B  99040600           [072] loadk      18  24       ; "_x"
000D4F  E2030002           [073] call       15  4   0  
000D53  A2830000           [074] call       14  0   2  
000D57  4D838306           [075] sub        13  13  14 
000D5B  9D430500           [076] getglobal  14  21       ; -174740002
000D5F  DDC30000           [077] getglobal  15  3        ; mMovie
000D63  E483C507           [078] self       15  15  278  ; 1803241227
000D67  59C40500           [079] loadk      17  23       ; "GridBounds"
000D6B  99840600           [080] loadk      18  26       ; "_y"
000D6F  E2030002           [081] call       15  4   0  
000D73  A2830000           [082] call       14  0   2  
000D77  DD430500           [083] getglobal  15  21       ; -174740002
000D7B  1DC40000           [084] getglobal  16  3        ; mMovie
000D7F  24844508           [085] self       16  16  278  ; 1803241227
000D83  99440600           [086] loadk      18  25       ; "ArcaneSelector"
000D87  D9840600           [087] loadk      19  26       ; "_y"
000D8B  22040002           [088] call       16  4   0  
000D8F  E2830000           [089] call       15  0   2  
000D93  8DC30307           [090] sub        14  14  15 
000D97  D3030002           [091] getupval   15  4      
000D9B  CEC3C607           [092] gettable   15  15  283  ; 1243410358
000D9F  13048000           [093] getupval   16  1      
000DA3  52048006           [094] move       17  13     
000DA7  92040007           [095] move       18  14     
000DAB  DDC40000           [096] getglobal  19  3        ; mMovie
000DAF  19450600           [097] loadk      20  25       ; "ArcaneSelector"
000DB3  E2430003           [098] call       15  6   1  
000DB7  D3038000           [099] getupval   15  1      
000DBB  CE03C707           [100] gettable   15  15  284  ; "mScrollBar"
000DBF  E443C707           [101] self       15  15  285  ; -1146906270
000DC3  43C44107           [102] add        17  14  263  ; 0
000DC7  E2438001           [103] call       15  3   1  
000DCB  D3038002           [104] getupval   15  5      
000DCF  E483C707           [105] self       15  15  286  ; -333955620
000DD3  46048008           [106] loadnil    17  17     
000DD7  8DC44707           [107] sub        18  14  287  ; 0
000DDB  E2430002           [108] call       15  4   1  
000DDF  D3030003           [109] getupval   15  6      
000DE3  E483C707           [110] self       15  15  286  ; -333955620
000DE7  46048008           [111] loadnil    17  17     
000DEB  8D044807           [112] sub        18  14  288  ; 0
000DEF  E2430002           [113] call       15  4   1  
000DF3  DDC30000           [114] getglobal  15  3        ; mMovie
000DF7  E403C207           [115] self       15  15  264  ; 471456102
000DFB  59440800           [116] loadk      17  33       ; "ArcaneSelector.Stats"
000DFF  99040600           [117] loadk      18  24       ; "_x"
000E03  CD84C806           [118] sub        19  13  290  ; 0
000E07  E2438002           [119] call       15  5   1  
000E0B  DDC30000           [120] getglobal  15  3        ; mMovie
000E0F  E403C207           [121] self       15  15  264  ; 471456102
000E13  59C40800           [122] loadk      17  35       ; "ArcaneSelector.GridBounds"
000E17  99840200           [123] loadk      18  10       ; "_width"
000E1B  D2048006           [124] move       19  13     
000E1F  E2438002           [125] call       15  5   1  
000E23  DDC30000           [126] getglobal  15  3        ; mMovie
000E27  E403C207           [127] self       15  15  264  ; 471456102
000E2B  59C40800           [128] loadk      17  35       ; "ArcaneSelector.GridBounds"
000E2F  99040900           [129] loadk      18  36       ; "_height"
000E33  D2040007           [130] move       19  14     
000E37  E2438002           [131] call       15  5   1  
000E3B  DDC30000           [132] getglobal  15  3        ; mMovie
000E3F  E403C207           [133] self       15  15  264  ; 471456102
000E43  59C40800           [134] loadk      17  35       ; "ArcaneSelector.GridBounds"
000E47  99440900           [135] loadk      18  37       ; "_visible"
000E4B  D7040000           [136] loadbool   19  0   0    ; false
000E4F  E2438002           [137] call       15  5   1  
000E53  DDC30000           [138] getglobal  15  3        ; mMovie
000E57  E403C207           [139] self       15  15  264  ; 471456102
000E5B  59840900           [140] loadk      17  38       ; "Blurer"
000E5F  99040900           [141] loadk      18  36       ; "_height"
000E63  D2040007           [142] move       19  14     
000E67  E2438002           [143] call       15  5   1  
000E6B  DD430500           [144] getglobal  15  21       ; -174740002
000E6F  1DC40000           [145] getglobal  16  3        ; mMovie
000E73  24844508           [146] self       16  16  278  ; 1803241227
000E77  99C40900           [147] loadk      18  39       ; "ArcaneSelector.Grid"
000E7B  D9040A00           [148] loadk      19  40       ; "_screenY"
000E7F  22040002           [149] call       16  4   0  
000E83  E2830000           [150] call       15  0   2  
000E87  1CC44107           [151] div        16  14  263  ; 0
000E8B  C3038407           [152] add        15  15  16 
000E8F  13048001           [153] getupval   16  3      
000E93  0E444A08           [154] gettable   16  16  297  ; 1704170870
000E97  5DC40000           [155] getglobal  17  3        ; mMovie
000E9B  92048007           [156] move       18  15     
000E9F  22848001           [157] call       16  3   2  
000EA3  53048001           [158] getupval   17  3      
000EA7  4E84CA08           [159] gettable   17  17  298  ; -1736116097
000EAB  9DC40000           [160] getglobal  18  3        ; mMovie
000EAF  D2040007           [161] move       19  14     
000EB3  62848001           [162] call       17  3   2  
000EB7  93048001           [163] getupval   18  3      
000EBB  8EC44A09           [164] gettable   18  18  299  ; 1938000739
000EBF  DDC40000           [165] getglobal  19  3        ; mMovie
000EC3  19050B00           [166] loadk      20  44       ; 0
000EC7  A2848001           [167] call       18  3   2  
000ECB  DDC40300           [168] getglobal  19  15       ; 248503575
000ECF  12058002           [169] move       20  5      
000ED3  E2040101           [170] call       19  2   4  
000ED7  1A800380           [171] jmp        15           ; to [187]
000EDB  2446CB0B           [172] self       24  23  301  ; -1795477990
000EDF  9D860B00           [173] getglobal  26  46       ; Lotus_Game
000EE3  8EC64B0D           [174] gettable   26  26  303  ; "VISIBILITY_CENTER"
000EE7  D2060008           [175] move       27  16     
000EEB  22460002           [176] call       24  4   1  
000EEF  2446CB0B           [177] self       24  23  301  ; -1795477990
000EF3  9D860B00           [178] getglobal  26  46       ; Lotus_Game
000EF7  8E064C0D           [179] gettable   26  26  304  ; "VISIBILITY_SIZE"
000EFB  D2068008           [180] move       27  17     
000EFF  22460002           [181] call       24  4   1  
000F03  2446CB0B           [182] self       24  23  301  ; -1795477990
000F07  9D860B00           [183] getglobal  26  46       ; Lotus_Game
000F0B  8E464C0D           [184] gettable   26  26  305  ; "VISIBILITY_FADE_SIZE"
000F0F  D2060009           [185] move       27  18     
000F13  22460002           [186] call       24  4   1  
000F17  D6840000           [187] tforloop   19      2    ; to [189] if exit
000F1B  1A80FB7F           [188] jmp        -17          ; to [172]
000F1F  1E008000           [189] return     0   1      
                           * constants:
000F23  32                 sizek (50)
000F24  01                 const type 3
000F25  65770E40           const [0]: (1074689893)
000F29  01                 const type 3
000F2A  E999708C           const [1]: (-1938777623)
000F2E  01                 const type 3
000F2F  EFFB4CBB           const [2]: (-1152582673)
000F33  04                 const type 4
000F34  07                 string size (7)
000F35  6D4D6F76696500     "mMovie\0"
                           const [3]: "mMovie"
000F3C  04                 const type 4
000F3D  06                 string size (6)
000F3E  426C75657200       "Bluer\0"
                           const [4]: "Bluer"
000F44  01                 const type 3
000F45  299956EA           const [5]: (-363423447)
000F49  03                 const type 3
000F4A  0000B444           const [6]: (0)
000F4E  03                 const type 3
000F4F  00000040           const [7]: (0)
000F53  01                 const type 3
000F54  66D9191C           const [8]: (471456102)
000F58  04                 const type 4
000F59  16                 string size (22)
000F5A  43617465676F7269+  "Categori"
000F62  657342672E4C6566+  "esBg.Lef"
000F6A  745374756200       "tStub\0"
                           const [9]: "CategoriesBg.LeftStub"
000F70  04                 const type 4
000F71  07                 string size (7)
000F72  5F776964746800     "_width\0"
                           const [10]: "_width"
000F79  04                 const type 4
000F7A  17                 string size (23)
000F7B  43617465676F7269+  "Categori"
000F83  657342672E526967+  "esBg.Rig"
000F8B  68745374756200     "htStub\0"
                           const [11]: "CategoriesBg.RightStub"
000F92  04                 const type 4
000F93  10                 string size (16)
000F94  76697369626C6552+  "visibleR"
000F9C  616E67654D617400   "angeMat\0"
                           const [12]: "visibleRangeMat"
000FA4  04                 const type 4
000FA5  19                 string size (25)
000FA6  72656374616E676C+  "rectangl"
000FAE  6556697369626C65+  "eVisible"
000FB6  52616E67654D6174+  "RangeMat"
000FBE  00                 "\0"
                           const [13]: "rectangleVisibleRangeMat"
000FBF  04                 const type 4
000FC0  14                 string size (20)
000FC1  7465787456697369+  "textVisi"
000FC9  626C6552616E6765+  "bleRange"
000FD1  4D617400           "Mat\0"
                           const [14]: "textVisibleRangeMat"
000FD5  01                 const type 3
000FD6  17DDCF0E           const [15]: (248503575)
000FDA  04                 const type 4
000FDB  03                 string size (3)
000FDC  5F4700             "_G\0"
                           const [16]: "_G"
000FDF  04                 const type 4
000FE0  22                 string size (34)
000FE1  55494D6174657269+  "UIMateri"
000FE9  616C5F436F736D65+  "al_Cosme"
000FF1  746963456E68616E+  "ticEnhan"
000FF9  6365727353746F72+  "cersStor"
001001  6500               "e\0"
                           const [17]: "UIMaterial_CosmeticEnhancersStore"
001003  04                 const type 4
001004  06                 string size (6)
001005  7461626C6500       "table\0"
                           const [18]: "table"
00100B  01                 const type 3
00100C  9D0C45E6           const [19]: (-431682403)
001010  01                 const type 3
001011  0643E1CC           const [20]: (-857652474)
001015  01                 const type 3
001016  DEAD95F5           const [21]: (-174740002)
00101A  01                 const type 3
00101B  0B477B6B           const [22]: (1803241227)
00101F  04                 const type 4
001020  0B                 string size (11)
001021  47726964426F756E+  "GridBoun"
001029  647300             "ds\0"
                           const [23]: "GridBounds"
00102C  04                 const type 4
00102D  03                 string size (3)
00102E  5F7800             "_x\0"
                           const [24]: "_x"
001031  04                 const type 4
001032  0F                 string size (15)
001033  417263616E655365+  "ArcaneSe"
00103B  6C6563746F7200     "lector\0"
                           const [25]: "ArcaneSelector"
001042  04                 const type 4
001043  03                 string size (3)
001044  5F7900             "_y\0"
                           const [26]: "_y"
001047  01                 const type 3
001048  B6EF1C4A           const [27]: (1243410358)
00104C  04                 const type 4
00104D  0B                 string size (11)
00104E  6D5363726F6C6C42+  "mScrollB"
001056  617200             "ar\0"
                           const [28]: "mScrollBar"
001059  01                 const type 3
00105A  6299A3BB           const [29]: (-1146906270)
00105E  01                 const type 3
00105F  DC3D18EC           const [30]: (-333955620)
001063  03                 const type 3
001064  0000AE42           const [31]: (0)
001068  03                 const type 3
001069  00003442           const [32]: (0)
00106D  04                 const type 4
00106E  15                 string size (21)
00106F  417263616E655365+  "ArcaneSe"
001077  6C6563746F722E53+  "lector.S"
00107F  7461747300         "tats\0"
                           const [33]: "ArcaneSelector.Stats"
001084  03                 const type 3
001085  00009842           const [34]: (0)
001089  04                 const type 4
00108A  1A                 string size (26)
00108B  417263616E655365+  "ArcaneSe"
001093  6C6563746F722E47+  "lector.G"
00109B  726964426F756E64+  "ridBound"
0010A3  7300               "s\0"
                           const [35]: "ArcaneSelector.GridBounds"
0010A5  04                 const type 4
0010A6  08                 string size (8)
0010A7  5F68656967687400   "_height\0"
                           const [36]: "_height"
0010AF  04                 const type 4
0010B0  09                 string size (9)
0010B1  5F76697369626C65+  "_visible"
0010B9  00                 "\0"
                           const [37]: "_visible"
0010BA  04                 const type 4
0010BB  07                 string size (7)
0010BC  426C7572657200     "Blurer\0"
                           const [38]: "Blurer"
0010C3  04                 const type 4
0010C4  14                 string size (20)
0010C5  417263616E655365+  "ArcaneSe"
0010CD  6C6563746F722E47+  "lector.G"
0010D5  72696400           "rid\0"
                           const [39]: "ArcaneSelector.Grid"
0010D9  04                 const type 4
0010DA  09                 string size (9)
0010DB  5F73637265656E59+  "_screenY"
0010E3  00                 "\0"
                           const [40]: "_screenY"
0010E4  01                 const type 3
0010E5  76959365           const [41]: (1704170870)
0010E9  01                 const type 3
0010EA  7FF88498           const [42]: (-1736116097)
0010EE  01                 const type 3
0010EF  638B8373           const [43]: (1938000739)
0010F3  03                 const type 3
0010F4  0000A040           const [44]: (0)
0010F8  01                 const type 3
0010F9  1A2EFB94           const [45]: (-1795477990)
0010FD  04                 const type 4
0010FE  0B                 string size (11)
0010FF  4C6F7475735F4761+  "Lotus_Ga"
001107  6D6500             "me\0"
                           const [46]: "Lotus_Game"
00110A  04                 const type 4
00110B  12                 string size (18)
00110C  5649534942494C49+  "VISIBILI"
001114  54595F43454E5445+  "TY_CENTE"
00111C  5200               "R\0"
                           const [47]: "VISIBILITY_CENTER"
00111E  04                 const type 4
00111F  10                 string size (16)
001120  5649534942494C49+  "VISIBILI"
001128  54595F53495A4500   "TY_SIZE\0"
                           const [48]: "VISIBILITY_SIZE"
001130  04                 const type 4
001131  15                 string size (21)
001132  5649534942494C49+  "VISIBILI"
00113A  54595F464144455F+  "TY_FADE_"
001142  53495A4500         "SIZE\0"
                           const [49]: "VISIBILITY_FADE_SIZE"
                           * functions:
001147  00                 sizep (0)
                           * lines:
001149  01                 sizelineinfo (189)
                           [pc] (line)
00114A  58                 [001] (88)
00114B  00                 [002] (88)
00114C  00                 [003] (88)
00114D  00                 [004] (88)
00114E  58                 [005] (88)
00114F  00                 [006] (89)
001150  00                 [007] (89)
001151  00                 [008] (89)
001152  58                 [009] (89)
001153  00                 [010] (89)
001154  00                 [011] (91)
001155  00                 [012] (91)
001156  58                 [013] (91)
001157  00                 [014] (91)
001158  00                 [015] (91)
001159  00                 [016] (92)
00115A  58                 [017] (94)
00115B  00                 [018] (94)
00115C  00                 [019] (94)
00115D  00                 [020] (94)
00115E  59                 [021] (94)
00115F  00                 [022] (96)
001160  00                 [023] (96)
001161  00                 [024] (96)
001162  59                 [025] (96)
001163  00                 [026] (97)
001164  00                 [027] (97)
001165  00                 [028] (99)
001166  59                 [029] (99)
001167  00                 [030] (99)
001168  00                 [031] (99)
001169  00                 [032] (99)
00116A  59                 [033] (99)
00116B  00                 [034] (100)
00116C  00                 [035] (100)
00116D  00                 [036] (100)
00116E  59                 [037] (100)
00116F  00                 [038] (100)
001170  00                 [039] (100)
001171  00                 [040] (102)
001172  5B                 [041] (102)
001173  00                 [042] (102)
001174  00                 [043] (102)
001175  00                 [044] (102)
001176  5B                 [045] (103)
001177  00                 [046] (103)
001178  00                 [047] (103)
001179  00                 [048] (103)
00117A  5B                 [049] (103)
00117B  00                 [050] (104)
00117C  00                 [051] (104)
00117D  00                 [052] (104)
00117E  5B                 [053] (104)
00117F  00                 [054] (104)
001180  00                 [055] (103)
001181  00                 [056] (104)
001182  5B                 [057] (107)
001183  00                 [058] (107)
001184  00                 [059] (107)
001185  00                 [060] (107)
001186  5C                 [061] (108)
001187  00                 [062] (108)
001188  00                 [063] (108)
001189  00                 [064] (108)
00118A  5E                 [065] (108)
00118B  00                 [066] (108)
00118C  00                 [067] (108)
00118D  00                 [068] (108)
00118E  5E                 [069] (108)
00118F  00                 [070] (108)
001190  00                 [071] (108)
001191  00                 [072] (108)
001192  5E                 [073] (108)
001193  00                 [074] (108)
001194  00                 [075] (108)
001195  00                 [076] (109)
001196  5E                 [077] (109)
001197  00                 [078] (109)
001198  00                 [079] (109)
001199  00                 [080] (109)
00119A  5E                 [081] (109)
00119B  00                 [082] (109)
00119C  00                 [083] (109)
00119D  00                 [084] (109)
00119E  60                 [085] (109)
00119F  00                 [086] (109)
0011A0  00                 [087] (109)
0011A1  00                 [088] (109)
0011A2  60                 [089] (109)
0011A3  00                 [090] (109)
0011A4  00                 [091] (110)
0011A5  00                 [092] (110)
0011A6  60                 [093] (110)
0011A7  00                 [094] (110)
0011A8  00                 [095] (110)
0011A9  00                 [096] (110)
0011AA  60                 [097] (110)
0011AB  00                 [098] (110)
0011AC  00                 [099] (112)
0011AD  00                 [100] (112)
0011AE  61                 [101] (112)
0011AF  00                 [102] (112)
0011B0  00                 [103] (112)
0011B1  00                 [104] (113)
0011B2  61                 [105] (113)
0011B3  00                 [106] (113)
0011B4  00                 [107] (113)
0011B5  00                 [108] (113)
0011B6  63                 [109] (114)
0011B7  00                 [110] (114)
0011B8  00                 [111] (114)
0011B9  00                 [112] (114)
0011BA  63                 [113] (114)
0011BB  00                 [114] (116)
0011BC  00                 [115] (116)
0011BD  00                 [116] (116)
0011BE  63                 [117] (116)
0011BF  00                 [118] (116)
0011C0  00                 [119] (116)
0011C1  00                 [120] (118)
0011C2  63                 [121] (118)
0011C3  00                 [122] (118)
0011C4  00                 [123] (118)
0011C5  00                 [124] (118)
0011C6  63                 [125] (118)
0011C7  00                 [126] (119)
0011C8  00                 [127] (119)
0011C9  00                 [128] (119)
0011CA  63                 [129] (119)
0011CB  00                 [130] (119)
0011CC  00                 [131] (119)
0011CD  00                 [132] (120)
0011CE  64                 [133] (120)
0011CF  00                 [134] (120)
0011D0  00                 [135] (120)
0011D1  00                 [136] (120)
0011D2  64                 [137] (120)
0011D3  00                 [138] (122)
0011D4  00                 [139] (122)
0011D5  00                 [140] (122)
0011D6  64                 [141] (122)
0011D7  00                 [142] (122)
0011D8  00                 [143] (122)
0011D9  00                 [144] (123)
0011DA  64                 [145] (123)
0011DB  00                 [146] (123)
0011DC  00                 [147] (123)
0011DD  00                 [148] (123)
0011DE  64                 [149] (123)
0011DF  00                 [150] (123)
0011E0  00                 [151] (123)
0011E1  00                 [152] (123)
0011E2  64                 [153] (124)
0011E3  00                 [154] (124)
0011E4  00                 [155] (124)
0011E5  00                 [156] (124)
0011E6  66                 [157] (124)
0011E7  00                 [158] (125)
0011E8  00                 [159] (125)
0011E9  00                 [160] (125)
0011EA  66                 [161] (125)
0011EB  00                 [162] (125)
0011EC  00                 [163] (126)
0011ED  00                 [164] (126)
0011EE  66                 [165] (126)
0011EF  00                 [166] (126)
0011F0  00                 [167] (126)
0011F1  00                 [168] (127)
0011F2  66                 [169] (127)
0011F3  00                 [170] (127)
0011F4  00                 [171] (127)
0011F5  00                 [172] (-128)
0011F6  66                 [173] (-128)
0011F7  00                 [174] (-128)
0011F8  00                 [175] (-128)
0011F9  00                 [176] (-128)
0011FA  67                 [177] (-127)
0011FB  00                 [178] (-127)
0011FC  00                 [179] (-127)
0011FD  00                 [180] (-127)
0011FE  67                 [181] (-127)
0011FF  00                 [182] (-126)
001200  00                 [183] (-126)
001201  00                 [184] (-126)
001202  67                 [185] (-126)
001203  00                 [186] (-126)
001204  00                 [187] (127)
001205  00                 [188] (-126)
001206  67                 [189] (-124)
                           * locals:
00143E  00                 sizelocvars (0)
                           * upvalues:
00143F  00                 sizeupvalues (0)
                           ** end of function **

                           
001440                     ** function [1] definition (level 2)
                           ** start of function **
001440  00                 string size (0)
                           source name: (none)
001442  01                 line defined (134)
001443  88                 last line defined (136)
001444  01                 nups (1)
001445  01                 numparams (2)
001446  02                 is_vararg (0)
001447  00                 maxstacksize (5)
                           * code:
001449  05                 sizecode (5)
00144A  93000000           [1] getupval   2   0      
00144E  D2000000           [2] move       3   0      
001452  12018000           [3] move       4   1      
001456  A2408001           [4] call       2   3   1  
00145A  1E008000           [5] return     0   1      
                           * constants:
00145E  00                 sizek (0)
                           * functions:
00145F  00                 sizep (0)
                           * lines:
001460  05                 sizelineinfo (5)
                           [pc] (line)
001461  87                 [1] (-121)
001462  00                 [2] (-121)
001463  00                 [3] (-121)
001464  00                 [4] (-121)
001465  87                 [5] (-120)
                           * locals:
001475  00                 sizelocvars (0)
                           * upvalues:
001476  00                 sizeupvalues (0)
                           ** end of function **

                           
001477                     ** function [2] definition (level 2)
                           ** start of function **
001477  00                 string size (0)
                           source name: (none)
001479  01                 line defined (138)
00147A  8C                 last line defined (140)
00147B  01                 nups (1)
00147C  01                 numparams (0)
00147D  00                 is_vararg (0)
00147E  00                 maxstacksize (2)
                           * code:
001480  03                 sizecode (3)
001481  13000000           [1] getupval   0   0      
001485  1E000001           [2] return     0   2      
001489  1E008000           [3] return     0   1      
                           * constants:
00148D  00                 sizek (0)
                           * functions:
00148E  00                 sizep (0)
                           * lines:
00148F  03                 sizelineinfo (3)
                           [pc] (line)
001490  8B                 [1] (-117)
001491  00                 [2] (-117)
001492  00                 [3] (-116)
                           * locals:
00149C  00                 sizelocvars (0)
                           * upvalues:
00149D  00                 sizeupvalues (0)
                           ** end of function **

                           
00149E                     ** function [3] definition (level 2)
                           ** start of function **
00149E  00                 string size (0)
                           source name: (none)
0014A0  01                 line defined (142)
0014A1  E6                 last line defined (230)
0014A2  01                 nups (8)
0014A3  08                 numparams (0)
0014A4  00                 is_vararg (0)
0014A5  00                 maxstacksize (32)
                           * code:
0014A8  03                 sizecode (492)
0014A9  13000000           [001] getupval   0   0      
0014AD  0E004000           [002] gettable   0   0   256  ; -576482948
0014B1  5D400000           [003] getglobal  1   1        ; Lotus_Game
0014B5  4E80C000           [004] gettable   1   1   258  ; "UIStyle_Content"
0014B9  97008000           [005] loadbool   2   1   0    ; true
0014BD  22808001           [006] call       0   3   2  
0014C1  53000000           [007] getupval   1   0      
0014C5  4E00C000           [008] gettable   1   1   256  ; -576482948
0014C9  9D400000           [009] getglobal  2   1        ; Lotus_Game
0014CD  8EC04001           [010] gettable   2   2   259  ; "UIStyle_FloatingContent"
0014D1  D7008000           [011] loadbool   3   1   0    ; true
0014D5  62808001           [012] call       1   3   2  
0014D9  93000000           [013] getupval   2   0      
0014DD  8E004001           [014] gettable   2   2   256  ; -576482948
0014E1  DD400000           [015] getglobal  3   1        ; Lotus_Game
0014E5  CE00C101           [016] gettable   3   3   260  ; "UIStyle_FloatingContentHighlight"
0014E9  17018000           [017] loadbool   4   1   0    ; true
0014ED  A2808001           [018] call       2   3   2  
0014F1  D3000000           [019] getupval   3   0      
0014F5  CE00C001           [020] gettable   3   3   256  ; -576482948
0014F9  1D410000           [021] getglobal  4   1        ; Lotus_Game
0014FD  0E414102           [022] gettable   4   4   261  ; "UIStyle_Background1"
001501  57018000           [023] loadbool   5   1   0    ; true
001505  E2808001           [024] call       3   3   2  
001509  13018000           [025] getupval   4   1      
00150D  0E814102           [026] gettable   4   4   262  ; -1749580735
001511  52018000           [027] move       5   1      
001515  22810001           [028] call       4   2   2  
001519  53018000           [029] getupval   5   1      
00151D  4E81C102           [030] gettable   5   5   262  ; -1749580735
001521  92010001           [031] move       6   2      
001525  62810001           [032] call       5   2   2  
001529  93018000           [033] getupval   6   1      
00152D  8E814103           [034] gettable   6   6   262  ; -1749580735
001531  D2018001           [035] move       7   3      
001535  A2810001           [036] call       6   2   2  
001539  D3018000           [037] getupval   7   1      
00153D  CEC1C103           [038] gettable   7   7   263  ; 154962144
001541  12028000           [039] move       8   1      
001545  E2810001           [040] call       7   2   2  
001549  13028000           [041] getupval   8   1      
00154D  0EC24104           [042] gettable   8   8   263  ; 154962144
001551  52020001           [043] move       9   2      
001555  22820001           [044] call       8   2   2  
001559  5D020200           [045] getglobal  9   8        ; mMovie
00155D  6442C204           [046] self       9   9   265  ; 471456102
001561  D9820200           [047] loadk      11  10       ; "ArcaneUpgrader.Hint"
001565  19C30200           [048] loadk      12  11       ; "_color"
001569  52038000           [049] move       13  1      
00156D  62428002           [050] call       9   5   1  
001571  5D020200           [051] getglobal  9   8        ; mMovie
001575  6442C204           [052] self       9   9   265  ; 471456102
001579  D9020300           [053] loadk      11  12       ; "ArcaneUpgrader.HintIcon"
00157D  19C30200           [054] loadk      12  11       ; "_color"
001581  52030000           [055] move       13  0      
001585  62428002           [056] call       9   5   1  
001589  5D020200           [057] getglobal  9   8        ; mMovie
00158D  6442C204           [058] self       9   9   265  ; 471456102
001591  D9420300           [059] loadk      11  13       ; "ArcaneUpgrader.Loom"
001595  19C30200           [060] loadk      12  11       ; "_color"
001599  52038000           [061] move       13  1      
00159D  62428002           [062] call       9   5   1  
0015A1  5D020200           [063] getglobal  9   8        ; mMovie
0015A5  6442C204           [064] self       9   9   265  ; 471456102
0015A9  D9820300           [065] loadk      11  14       ; "ArcaneUpgradeAnim.Arcane.Loom"
0015AD  19C30200           [066] loadk      12  11       ; "_color"
0015B1  52038000           [067] move       13  1      
0015B5  62428002           [068] call       9   5   1  
0015B9  5D020200           [069] getglobal  9   8        ; mMovie
0015BD  64C2C304           [070] self       9   9   271  ; 98241492
0015C1  D9020400           [071] loadk      11  16       ; "<MASTERED>"
0015C5  17038000           [072] loadbool   12  1   0    ; true
0015C9  62820002           [073] call       9   4   2  
0015CD  93020001           [074] getupval   10  2      
0015D1  D3028001           [075] getupval   11  3      
fail op	21
0015D5  15C08288           [076] concat     0   273 11 
0015D9  1A800180           [077] jmp        7            ; to [85]
0015DD  D3020001           [078] getupval   11  2      
0015E1  13038001           [079] getupval   12  3      
fail op	35
0015E5  23008305           [080] close      0  
0015E9  1A800080           [081] jmp        3            ; to [85]
0015ED  D2028004           [082] move       11  9      
0015F1  12030005           [083] move       12  10     
0015F5  82028305           [084] concat     10  11  12 
0015F9  D9820400           [085] loadk      11  18       ; "<font color=\""
0015FD  12030004           [086] move       12  8      
001601  59C30400           [087] loadk      13  19       ; "\">"
001605  92030005           [088] move       14  10     
001609  D9030500           [089] loadk      15  20       ; "/"
00160D  13048001           [090] getupval   16  3      
001611  59440500           [091] loadk      17  21       ; "</font>"
001615  82428405           [092] concat     10  11  17 
001619  DD020200           [093] getglobal  11  8        ; mMovie
00161D  E4C2C305           [094] self       11  11  271  ; 98241492
001621  59830500           [095] loadk      13  22       ; "/Lotus/Language/Menu/CollectedCount"
001625  97038000           [096] loadbool   14  1   0    ; true
001629  CB430000           [097] newtable   15  0   1    ; array=0, hash=1
00162D  CC83828B           [098] settable   15  279 10   ; "COUNT"
001631  E2828002           [099] call       11  5   2  
001635  92028005           [100] move       10  11     
001639  D3020002           [101] getupval   11  4      
00163D  13038001           [102] getupval   12  3      
fail op	21
001641  15008388           [103] concat     0   273 12 
001645  1A800180           [104] jmp        7            ; to [112]
001649  13030002           [105] getupval   12  4      
00164D  53038001           [106] getupval   13  3      
fail op	35
001651  23400306           [107] close      0  
001655  1A800080           [108] jmp        3            ; to [112]
001659  12038004           [109] move       12  9      
00165D  52038005           [110] move       13  11     
001661  C2420306           [111] concat     11  12  13 
001665  19830400           [112] loadk      12  18       ; "<font color=\""
001669  52030004           [113] move       13  8      
00166D  99C30400           [114] loadk      14  19       ; "\">"
001671  D2038005           [115] move       15  11     
001675  19040500           [116] loadk      16  20       ; "/"
001679  53048001           [117] getupval   17  3      
00167D  99440500           [118] loadk      18  21       ; "</font>"
001681  C2820406           [119] concat     11  12  18 
001685  1D030200           [120] getglobal  12  8        ; mMovie
001689  24C34306           [121] self       12  12  271  ; 98241492
00168D  99030600           [122] loadk      14  24       ; "/Lotus/Language/Menu/ArcanesUpgraded"
001691  D7038000           [123] loadbool   15  1   0    ; true
001695  0B440000           [124] newtable   16  0   1    ; array=0, hash=1
001699  0CC4828B           [125] settable   16  279 11   ; "COUNT"
00169D  22838002           [126] call       12  5   2  
0016A1  D2020006           [127] move       11  12     
0016A5  1D030200           [128] getglobal  12  8        ; mMovie
0016A9  24434206           [129] self       12  12  265  ; 471456102
0016AD  99430600           [130] loadk      14  25       ; "ArcaneSelector.Stats"
0016B1  D9830600           [131] loadk      15  26       ; "text"
0016B5  19C40600           [132] loadk      16  27       ; "<p><font color=\""
0016B9  52048003           [133] move       17  7      
0016BD  99C40400           [134] loadk      18  19       ; "\">"
0016C1  D2040005           [135] move       19  10     
0016C5  19050700           [136] loadk      20  28       ; "    "
0016C9  52058005           [137] move       21  11     
0016CD  99450700           [138] loadk      22  29       ; "</font></p>"
0016D1  02840508           [139] concat     16  16  22 
0016D5  22438002           [140] call       12  5   1  
0016D9  19830700           [141] loadk      12  30       ; 0
0016DD  53038002           [142] getupval   13  5      
0016E1  4A038006           [143] len        13  13     
0016E5  99830700           [144] loadk      14  30       ; 0
0016E9  10832280           [145] forprep    12  139      ; to [285]
0016ED  19C40700           [146] loadk      16  31       ; "ArcaneUpgrader.RankList.Rank"
0016F1  52048007           [147] move       17  15     
0016F5  02440408           [148] concat     16  16  17 
0016F9  53040003           [149] getupval   17  6      
fail op	33
0016FD  21408488           [150] tforloop   0       17   ; to [152] if exit
001701  1AC00080           [151] jmp        4            ; to [156]
001705  53048003           [152] getupval   17  7      
001709  4384C708           [153] add        17  17  286  ; 0
fail op	33
00170D  61408407           [154] tforloop   1       17   ; to [156] if exit
001711  1A000080           [155] jmp        1            ; to [157]
001715  57440000           [156] loadbool   17  0   1    ; false, to [158]
001719  57048000           [157] loadbool   17  1   0    ; true
00171D  58040000           [158] test       17      0    ; to [160] if true
001721  1A800080           [159] jmp        3            ; to [163]
001725  99840700           [160] loadk      18  30       ; 0
001729  98440000           [161] test       18      1    ; to [163] if false
00172D  1A000080           [162] jmp        1            ; to [164]
001731  99040800           [163] loadk      18  32       ; 0
001735  D9C40600           [164] loadk      19  27       ; "<p><font color=\""
001739  12050004           [165] move       20  8      
00173D  59450800           [166] loadk      21  33       ; "\"><b>"
001741  93058002           [167] getupval   22  5      
001745  8EC5030B           [168] gettable   22  22  15 
001749  8E85470B           [169] gettable   22  22  286  ; 0
00174D  D9850800           [170] loadk      23  34       ; "</b></font><font color=\""
001751  12068003           [171] move       24  7      
001755  59C60800           [172] loadk      25  35       ; "\" letterSpacing=\"0.2\">"
001759  93068002           [173] getupval   26  5      
00175D  8EC6030D           [174] gettable   26  26  15 
001761  8E06490D           [175] gettable   26  26  292  ; 0
001765  D9460700           [176] loadk      27  29       ; "</font></p>"
001769  C2C48609           [177] concat     19  19  27 
00176D  1D050200           [178] getglobal  20  8        ; mMovie
001771  2445490A           [179] self       20  20  293  ; -2013161817
001775  92050008           [180] move       22  16     
001779  D9850900           [181] loadk      23  38       ; "Desc"
00177D  19860600           [182] loadk      24  26       ; "text"
001781  52068009           [183] move       25  19     
001785  22450003           [184] call       20  6   1  
001789  1D050200           [185] getglobal  20  8        ; mMovie
00178D  2445490A           [186] self       20  20  293  ; -2013161817
001791  92050008           [187] move       22  16     
001795  D9C50900           [188] loadk      23  39       ; "Check"
001799  19C60200           [189] loadk      24  11       ; "_color"
00179D  52060001           [190] move       25  2      
0017A1  22450003           [191] call       20  6   1  
0017A5  1D050200           [192] getglobal  20  8        ; mMovie
0017A9  2445490A           [193] self       20  20  293  ; -2013161817
0017AD  92050008           [194] move       22  16     
0017B1  D9050A00           [195] loadk      23  40       ; "Glow"
0017B5  19C60200           [196] loadk      24  11       ; "_color"
0017B9  52060001           [197] move       25  2      
0017BD  22450003           [198] call       20  6   1  
0017C1  1D050200           [199] getglobal  20  8        ; mMovie
0017C5  2445490A           [200] self       20  20  293  ; -2013161817
0017C9  92050008           [201] move       22  16     
0017CD  D9450A00           [202] loadk      23  41       ; "Line"
0017D1  19C60200           [203] loadk      24  11       ; "_color"
0017D5  52060001           [204] move       25  2      
0017D9  22450003           [205] call       20  6   1  
0017DD  13050003           [206] getupval   20  6      
0017E1  0385470A           [207] add        20  20  286  ; 0
fail op	33
0017E5  61008507           [208] tforloop   1       20   ; to [210] if exit
0017E9  1A000080           [209] jmp        1            ; to [211]
0017ED  17450000           [210] loadbool   20  0   1    ; false, to [212]
0017F1  17058000           [211] loadbool   20  1   0    ; true
0017F5  18450000           [212] test       20      1    ; to [214] if false
0017F9  1A400080           [213] jmp        2            ; to [216]
0017FD  58440000           [214] test       17      1    ; to [216] if false
001801  1A400080           [215] jmp        2            ; to [218]
fail op	5
001805  45450002           [216] getglobal  21  2049     ; nil
001809  1A000080           [217] jmp        1            ; to [219]
00180D  52058002           [218] move       21  5      
001811  9D050200           [219] getglobal  22  8        ; mMovie
001815  A4854A0B           [220] self       22  22  298  ; 808102703
001819  12060008           [221] move       24  16     
00181D  59C60A00           [222] loadk      25  43       ; ".IconBacker"
001821  0246060C           [223] concat     24  24  25 
001825  59060B00           [224] loadk      25  44       ; "RectEdgeColor"
001829  8E46CB0A           [225] gettable   26  21  301  ; "r"
00182D  CE86CB0A           [226] gettable   27  21  302  ; "g"
001831  0EC7CB0A           [227] gettable   28  21  303  ; "b"
001835  52070009           [228] move       29  18     
001839  A2450004           [229] call       22  8   1  
00183D  9D050200           [230] getglobal  22  8        ; mMovie
001841  A4854A0B           [231] self       22  22  298  ; 808102703
001845  12060008           [232] move       24  16     
001849  59C60A00           [233] loadk      25  43       ; ".IconBacker"
00184D  0246060C           [234] concat     24  24  25 
001851  59060C00           [235] loadk      25  48       ; "RectInnerColor"
001855  8E464B03           [236] gettable   26  6   301  ; "r"
001859  CE864B03           [237] gettable   27  6   302  ; "g"
00185D  0EC74B03           [238] gettable   28  6   303  ; "b"
001861  52070009           [239] move       29  18     
001865  A2450004           [240] call       22  8   1  
001869  9D050200           [241] getglobal  22  8        ; mMovie
00186D  A4854A0B           [242] self       22  22  298  ; 808102703
001871  12060008           [243] move       24  16     
001875  59460C00           [244] loadk      25  49       ; ".Backer"
001879  0246060C           [245] concat     24  24  25 
00187D  59060B00           [246] loadk      25  44       ; "RectEdgeColor"
001881  8E46CB0A           [247] gettable   26  21  301  ; "r"
001885  CE86CB0A           [248] gettable   27  21  302  ; "g"
001889  0EC7CB0A           [249] gettable   28  21  303  ; "b"
00188D  59870C00           [250] loadk      29  50       ; 0
001891  A2450004           [251] call       22  8   1  
001895  9D050200           [252] getglobal  22  8        ; mMovie
001899  A4854A0B           [253] self       22  22  298  ; 808102703
00189D  12060008           [254] move       24  16     
0018A1  59460C00           [255] loadk      25  49       ; ".Backer"
0018A5  0246060C           [256] concat     24  24  25 
0018A9  59060C00           [257] loadk      25  48       ; "RectInnerColor"
0018AD  8E464B03           [258] gettable   26  6   301  ; "r"
0018B1  CE864B03           [259] gettable   27  6   302  ; "g"
0018B5  0EC74B03           [260] gettable   28  6   303  ; "b"
0018B9  59470400           [261] loadk      29  17       ; 0
0018BD  A2450004           [262] call       22  8   1  
0018C1  9D050200           [263] getglobal  22  8        ; mMovie
0018C5  A4854A0B           [264] self       22  22  298  ; 808102703
0018C9  12060008           [265] move       24  16     
0018CD  59C60C00           [266] loadk      25  51       ; ".Gradient"
0018D1  0246060C           [267] concat     24  24  25 
0018D5  59060B00           [268] loadk      25  44       ; "RectEdgeColor"
0018D9  8E46CB0A           [269] gettable   26  21  301  ; "r"
0018DD  CE86CB0A           [270] gettable   27  21  302  ; "g"
0018E1  0EC7CB0A           [271] gettable   28  21  303  ; "b"
0018E5  59070800           [272] loadk      29  32       ; 0
0018E9  A2450004           [273] call       22  8   1  
0018ED  9D050200           [274] getglobal  22  8        ; mMovie
0018F1  A4854A0B           [275] self       22  22  298  ; 808102703
0018F5  12060008           [276] move       24  16     
0018F9  59C60C00           [277] loadk      25  51       ; ".Gradient"
0018FD  0246060C           [278] concat     24  24  25 
001901  59060C00           [279] loadk      25  48       ; "RectInnerColor"
001905  8E46CB0A           [280] gettable   26  21  301  ; "r"
001909  CE86CB0A           [281] gettable   27  21  302  ; "g"
00190D  0EC7CB0A           [282] gettable   28  21  303  ; "b"
001911  59070800           [283] loadk      29  32       ; 0
001915  A2450004           [284] call       22  8   1  
001919  14C3DC7F           [285] forloop    12  -140     ; to [146] if loop
00191D  9D050200           [286] getglobal  22  8        ; mMovie
001921  A4854A0B           [287] self       22  22  298  ; 808102703
001925  19060D00           [288] loadk      24  52       ; "ArcaneUpgradeAnim.CopiedRank.IconBacker"
001929  59060B00           [289] loadk      25  44       ; "RectEdgeColor"
00192D  8E46CB02           [290] gettable   26  5   301  ; "r"
001931  CE86CB02           [291] gettable   27  5   302  ; "g"
001935  0EC7CB02           [292] gettable   28  5   303  ; "b"
001939  59870700           [293] loadk      29  30       ; 0
00193D  A2450004           [294] call       22  8   1  
001941  9D050200           [295] getglobal  22  8        ; mMovie
001945  A4854A0B           [296] self       22  22  298  ; 808102703
001949  19060D00           [297] loadk      24  52       ; "ArcaneUpgradeAnim.CopiedRank.IconBacker"
00194D  59060C00           [298] loadk      25  48       ; "RectInnerColor"
001951  8E464B03           [299] gettable   26  6   301  ; "r"
001955  CE864B03           [300] gettable   27  6   302  ; "g"
001959  0EC74B03           [301] gettable   28  6   303  ; "b"
00195D  59870700           [302] loadk      29  30       ; 0
001961  A2450004           [303] call       22  8   1  
001965  9D050200           [304] getglobal  22  8        ; mMovie
001969  A4854A0B           [305] self       22  22  298  ; 808102703
00196D  19460D00           [306] loadk      24  53       ; "ArcaneUpgradeAnim.CopiedRank.Backer"
001971  59060B00           [307] loadk      25  44       ; "RectEdgeColor"
001975  8E46CB02           [308] gettable   26  5   301  ; "r"
001979  CE86CB02           [309] gettable   27  5   302  ; "g"
00197D  0EC7CB02           [310] gettable   28  5   303  ; "b"
001981  59870C00           [311] loadk      29  50       ; 0
001985  A2450004           [312] call       22  8   1  
001989  9D050200           [313] getglobal  22  8        ; mMovie
00198D  A4854A0B           [314] self       22  22  298  ; 808102703
001991  19460D00           [315] loadk      24  53       ; "ArcaneUpgradeAnim.CopiedRank.Backer"
001995  59060C00           [316] loadk      25  48       ; "RectInnerColor"
001999  8E464B03           [317] gettable   26  6   301  ; "r"
00199D  CE864B03           [318] gettable   27  6   302  ; "g"
0019A1  0EC74B03           [319] gettable   28  6   303  ; "b"
0019A5  59470400           [320] loadk      29  17       ; 0
0019A9  A2450004           [321] call       22  8   1  
0019AD  9D050200           [322] getglobal  22  8        ; mMovie
0019B1  A4854A0B           [323] self       22  22  298  ; 808102703
0019B5  19860D00           [324] loadk      24  54       ; "ArcaneUpgradeAnim.CopiedRank.Gradient"
0019B9  59060B00           [325] loadk      25  44       ; "RectEdgeColor"
0019BD  8E46CB02           [326] gettable   26  5   301  ; "r"
0019C1  CE86CB02           [327] gettable   27  5   302  ; "g"
0019C5  0EC7CB02           [328] gettable   28  5   303  ; "b"
0019C9  59070800           [329] loadk      29  32       ; 0
0019CD  A2450004           [330] call       22  8   1  
0019D1  9D050200           [331] getglobal  22  8        ; mMovie
0019D5  A4854A0B           [332] self       22  22  298  ; 808102703
0019D9  19860D00           [333] loadk      24  54       ; "ArcaneUpgradeAnim.CopiedRank.Gradient"
0019DD  59060C00           [334] loadk      25  48       ; "RectInnerColor"
0019E1  8E46CB02           [335] gettable   26  5   301  ; "r"
0019E5  CE86CB02           [336] gettable   27  5   302  ; "g"
0019E9  0EC7CB02           [337] gettable   28  5   303  ; "b"
0019ED  59070800           [338] loadk      29  32       ; 0
0019F1  A2450004           [339] call       22  8   1  
0019F5  99450400           [340] loadk      22  17       ; 0
0019F9  D9050900           [341] loadk      23  36       ; 0
0019FD  1D060200           [342] getglobal  24  8        ; mMovie
001A01  24864A0C           [343] self       24  24  298  ; 808102703
001A05  99C60D00           [344] loadk      26  55       ; "ArcaneUpgrader.Loom.Left.SingleLoom01"
001A09  D9060E00           [345] loadk      27  56       ; "RippleCenter"
001A0D  1207000B           [346] move       28  22     
001A11  5207800B           [347] move       29  23     
001A15  99470400           [348] loadk      30  17       ; 0
001A19  D9470400           [349] loadk      31  17       ; 0
001A1D  22460004           [350] call       24  8   1  
001A21  1D060200           [351] getglobal  24  8        ; mMovie
001A25  24864A0C           [352] self       24  24  298  ; 808102703
001A29  99460E00           [353] loadk      26  57       ; "ArcaneUpgrader.Loom.Left.SingleLoom02"
001A2D  D9060E00           [354] loadk      27  56       ; "RippleCenter"
001A31  1207000B           [355] move       28  22     
001A35  5207800B           [356] move       29  23     
001A39  99470400           [357] loadk      30  17       ; 0
001A3D  D9470400           [358] loadk      31  17       ; 0
001A41  22460004           [359] call       24  8   1  
001A45  1D060200           [360] getglobal  24  8        ; mMovie
001A49  24864A0C           [361] self       24  24  298  ; 808102703
001A4D  99860E00           [362] loadk      26  58       ; "ArcaneUpgrader.Loom.Left.SingleLoom03"
001A51  D9060E00           [363] loadk      27  56       ; "RippleCenter"
001A55  1207000B           [364] move       28  22     
001A59  5207800B           [365] move       29  23     
001A5D  99470400           [366] loadk      30  17       ; 0
001A61  D9470400           [367] loadk      31  17       ; 0
001A65  22460004           [368] call       24  8   1  
001A69  1D060200           [369] getglobal  24  8        ; mMovie
001A6D  24864A0C           [370] self       24  24  298  ; 808102703
001A71  99C60E00           [371] loadk      26  59       ; "ArcaneUpgrader.Loom.Left.SingleLoom04"
001A75  D9060E00           [372] loadk      27  56       ; "RippleCenter"
001A79  1207000B           [373] move       28  22     
001A7D  5207800B           [374] move       29  23     
001A81  99470400           [375] loadk      30  17       ; 0
001A85  D9470400           [376] loadk      31  17       ; 0
001A89  22460004           [377] call       24  8   1  
001A8D  99050900           [378] loadk      22  36       ; 0
001A91  D9450400           [379] loadk      23  17       ; 0
001A95  1D060200           [380] getglobal  24  8        ; mMovie
001A99  24864A0C           [381] self       24  24  298  ; 808102703
001A9D  99060F00           [382] loadk      26  60       ; "ArcaneUpgrader.Loom.Right.SingleLoom01"
001AA1  D9060E00           [383] loadk      27  56       ; "RippleCenter"
001AA5  1207000B           [384] move       28  22     
001AA9  5207800B           [385] move       29  23     
001AAD  99470400           [386] loadk      30  17       ; 0
001AB1  D9470400           [387] loadk      31  17       ; 0
001AB5  22460004           [388] call       24  8   1  
001AB9  1D060200           [389] getglobal  24  8        ; mMovie
001ABD  24864A0C           [390] self       24  24  298  ; 808102703
001AC1  99460F00           [391] loadk      26  61       ; "ArcaneUpgrader.Loom.Right.SingleLoom02"
001AC5  D9060E00           [392] loadk      27  56       ; "RippleCenter"
001AC9  1207000B           [393] move       28  22     
001ACD  5207800B           [394] move       29  23     
001AD1  99470400           [395] loadk      30  17       ; 0
001AD5  D9470400           [396] loadk      31  17       ; 0
001AD9  22460004           [397] call       24  8   1  
001ADD  1D060200           [398] getglobal  24  8        ; mMovie
001AE1  24864A0C           [399] self       24  24  298  ; 808102703
001AE5  99860F00           [400] loadk      26  62       ; "ArcaneUpgrader.Loom.Right.SingleLoom03"
001AE9  D9060E00           [401] loadk      27  56       ; "RippleCenter"
001AED  1207000B           [402] move       28  22     
001AF1  5207800B           [403] move       29  23     
001AF5  99470400           [404] loadk      30  17       ; 0
001AF9  D9470400           [405] loadk      31  17       ; 0
001AFD  22460004           [406] call       24  8   1  
001B01  1D060200           [407] getglobal  24  8        ; mMovie
001B05  24864A0C           [408] self       24  24  298  ; 808102703
001B09  99C60F00           [409] loadk      26  63       ; "ArcaneUpgrader.Loom.Right.SingleLoom04"
001B0D  D9060E00           [410] loadk      27  56       ; "RippleCenter"
001B11  1207000B           [411] move       28  22     
001B15  5207800B           [412] move       29  23     
001B19  99470400           [413] loadk      30  17       ; 0
001B1D  D9470400           [414] loadk      31  17       ; 0
001B21  22460004           [415] call       24  8   1  
001B25  99050900           [416] loadk      22  36       ; 0
001B29  D9050900           [417] loadk      23  36       ; 0
001B2D  1D060200           [418] getglobal  24  8        ; mMovie
001B31  24864A0C           [419] self       24  24  298  ; 808102703
001B35  99061000           [420] loadk      26  64       ; "ArcaneUpgradeAnim.Arcane.Loom.StraightLoomMain01"
001B39  D9060E00           [421] loadk      27  56       ; "RippleCenter"
001B3D  1207000B           [422] move       28  22     
001B41  5207800B           [423] move       29  23     
001B45  99470400           [424] loadk      30  17       ; 0
001B49  D9470400           [425] loadk      31  17       ; 0
001B4D  22460004           [426] call       24  8   1  
001B51  1D060200           [427] getglobal  24  8        ; mMovie
001B55  24864A0C           [428] self       24  24  298  ; 808102703
001B59  99461000           [429] loadk      26  65       ; "ArcaneUpgradeAnim.Arcane.Loom.StraightLoomMain02"
001B5D  D9060E00           [430] loadk      27  56       ; "RippleCenter"
001B61  1207000B           [431] move       28  22     
001B65  5207800B           [432] move       29  23     
001B69  99470400           [433] loadk      30  17       ; 0
001B6D  D9470400           [434] loadk      31  17       ; 0
001B71  22460004           [435] call       24  8   1  
001B75  1D060200           [436] getglobal  24  8        ; mMovie
001B79  24864A0C           [437] self       24  24  298  ; 808102703
001B7D  99861000           [438] loadk      26  66       ; "ArcaneUpgradeAnim.Arcane.Loom.StraightLoomMain03"
001B81  D9060E00           [439] loadk      27  56       ; "RippleCenter"
001B85  1207000B           [440] move       28  22     
001B89  5207800B           [441] move       29  23     
001B8D  99470400           [442] loadk      30  17       ; 0
001B91  D9470400           [443] loadk      31  17       ; 0
001B95  22460004           [444] call       24  8   1  
001B99  1D060200           [445] getglobal  24  8        ; mMovie
001B9D  24864A0C           [446] self       24  24  298  ; 808102703
001BA1  99C61000           [447] loadk      26  67       ; "ArcaneUpgradeAnim.Arcane.Loom.StraightLoomMain04"
001BA5  D9060E00           [448] loadk      27  56       ; "RippleCenter"
001BA9  1207000B           [449] move       28  22     
001BAD  5207800B           [450] move       29  23     
001BB1  99470400           [451] loadk      30  17       ; 0
001BB5  D9470400           [452] loadk      31  17       ; 0
001BB9  22460004           [453] call       24  8   1  
001BBD  99050900           [454] loadk      22  36       ; 0
001BC1  D9051100           [455] loadk      23  68       ; 0
001BC5  1D060200           [456] getglobal  24  8        ; mMovie
001BC9  24864A0C           [457] self       24  24  298  ; 808102703
001BCD  99461100           [458] loadk      26  69       ; "ArcaneUpgradeAnim.Arcane.Loom.StraightLoomMain05"
001BD1  D9060E00           [459] loadk      27  56       ; "RippleCenter"
001BD5  1207000B           [460] move       28  22     
001BD9  5207800B           [461] move       29  23     
001BDD  99470400           [462] loadk      30  17       ; 0
001BE1  D9470400           [463] loadk      31  17       ; 0
001BE5  22460004           [464] call       24  8   1  
001BE9  1D060200           [465] getglobal  24  8        ; mMovie
001BED  24864A0C           [466] self       24  24  298  ; 808102703
001BF1  99861100           [467] loadk      26  70       ; "ArcaneUpgradeAnim.Arcane.Loom.StraightLoomMain06"
001BF5  D9060E00           [468] loadk      27  56       ; "RippleCenter"
001BF9  1207000B           [469] move       28  22     
001BFD  5207800B           [470] move       29  23     
001C01  99470400           [471] loadk      30  17       ; 0
001C05  D9470400           [472] loadk      31  17       ; 0
001C09  22460004           [473] call       24  8   1  
001C0D  1D060200           [474] getglobal  24  8        ; mMovie
001C11  24864A0C           [475] self       24  24  298  ; 808102703
001C15  99C61100           [476] loadk      26  71       ; "ArcaneUpgradeAnim.Arcane.Loom.StraightLoomMain07"
001C19  D9060E00           [477] loadk      27  56       ; "RippleCenter"
001C1D  1207000B           [478] move       28  22     
001C21  5207800B           [479] move       29  23     
001C25  99470400           [480] loadk      30  17       ; 0
001C29  D9470400           [481] loadk      31  17       ; 0
001C2D  22460004           [482] call       24  8   1  
001C31  1D060200           [483] getglobal  24  8        ; mMovie
001C35  24864A0C           [484] self       24  24  298  ; 808102703
001C39  99061200           [485] loadk      26  72       ; "ArcaneUpgradeAnim.Arcane.Loom.StraightLoomMain08"
001C3D  D9060E00           [486] loadk      27  56       ; "RippleCenter"
001C41  1207000B           [487] move       28  22     
001C45  5207800B           [488] move       29  23     
001C49  99470400           [489] loadk      30  17       ; 0
001C4D  D9470400           [490] loadk      31  17       ; 0
001C51  22460004           [491] call       24  8   1  
001C55  1E008000           [492] return     0   1      
                           * constants:
001C59  49                 sizek (73)
001C5A  01                 const type 3
001C5B  7C91A3DD           const [0]: (-576482948)
001C5F  04                 const type 4
001C60  0B                 string size (11)
001C61  4C6F7475735F4761+  "Lotus_Ga"
001C69  6D6500             "me\0"
                           const [1]: "Lotus_Game"
001C6C  04                 const type 4
001C6D  10                 string size (16)
001C6E  55495374796C655F+  "UIStyle_"
001C76  436F6E74656E7400   "Content\0"
                           const [2]: "UIStyle_Content"
001C7E  04                 const type 4
001C7F  18                 string size (24)
001C80  55495374796C655F+  "UIStyle_"
001C88  466C6F6174696E67+  "Floating"
001C90  436F6E74656E7400   "Content\0"
                           const [3]: "UIStyle_FloatingContent"
001C98  04                 const type 4
001C99  21                 string size (33)
001C9A  55495374796C655F+  "UIStyle_"
001CA2  466C6F6174696E67+  "Floating"
001CAA  436F6E74656E7448+  "ContentH"
001CB2  6967686C69676874+  "ighlight"
001CBA  00                 "\0"
                           const [4]: "UIStyle_FloatingContentHighlight"
001CBB  04                 const type 4
001CBC  14                 string size (20)
001CBD  55495374796C655F+  "UIStyle_"
001CC5  4261636B67726F75+  "Backgrou"
001CCD  6E643100           "nd1\0"
                           const [5]: "UIStyle_Background1"
001CD1  01                 const type 3
001CD2  4184B797           const [6]: (-1749580735)
001CD6  01                 const type 3
001CD7  E0883C09           const [7]: (154962144)
001CDB  04                 const type 4
001CDC  07                 string size (7)
001CDD  6D4D6F76696500     "mMovie\0"
                           const [8]: "mMovie"
001CE4  01                 const type 3
001CE5  66D9191C           const [9]: (471456102)
001CE9  04                 const type 4
001CEA  14                 string size (20)
001CEB  417263616E655570+  "ArcaneUp"
001CF3  6772616465722E48+  "grader.H"
001CFB  696E7400           "int\0"
                           const [10]: "ArcaneUpgrader.Hint"
001CFF  04                 const type 4
001D00  07                 string size (7)
001D01  5F636F6C6F7200     "_color\0"
                           const [11]: "_color"
001D08  04                 const type 4
001D09  18                 string size (24)
001D0A  417263616E655570+  "ArcaneUp"
001D12  6772616465722E48+  "grader.H"
001D1A  696E7449636F6E00   "intIcon\0"
                           const [12]: "ArcaneUpgrader.HintIcon"
001D22  04                 const type 4
001D23  14                 string size (20)
001D24  417263616E655570+  "ArcaneUp"
001D2C  6772616465722E4C+  "grader.L"
001D34  6F6F6D00           "oom\0"
                           const [13]: "ArcaneUpgrader.Loom"
001D38  04                 const type 4
001D39  1E                 string size (30)
001D3A  417263616E655570+  "ArcaneUp"
001D42  6772616465416E69+  "gradeAni"
001D4A  6D2E417263616E65+  "m.Arcane"
001D52  2E4C6F6F6D00       ".Loom\0"
                           const [14]: "ArcaneUpgradeAnim.Arcane.Loom"
001D58  01                 const type 3
001D59  D40BDB05           const [15]: (98241492)
001D5D  04                 const type 4
001D5E  0B                 string size (11)
001D5F  3C4D415354455245+  "<MASTERE"
001D67  443E00             "D>\0"
                           const [16]: "<MASTERED>"
001D6A  03                 const type 3
001D6B  00000000           const [17]: (0)
001D6F  04                 const type 4
001D70  0E                 string size (14)
001D71  3C666F6E7420636F+  "<font co"
001D79  6C6F723D2200       "lor=\"\0"
                           const [18]: "<font color=\""
001D7F  04                 const type 4
001D80  03                 string size (3)
001D81  223E00             "\">\0"
                           const [19]: "\">"
001D84  04                 const type 4
001D85  02                 string size (2)
001D86  2F00               "/\0"
                           const [20]: "/"
001D88  04                 const type 4
001D89  08                 string size (8)
001D8A  3C2F666F6E743E00   "</font>\0"
                           const [21]: "</font>"
001D92  04                 const type 4
001D93  24                 string size (36)
001D94  2F4C6F7475732F4C+  "/Lotus/L"
001D9C  616E67756167652F+  "anguage/"
001DA4  4D656E752F436F6C+  "Menu/Col"
001DAC  6C6563746564436F+  "lectedCo"
001DB4  756E7400           "unt\0"
                           const [22]: "/Lotus/Language/Menu/CollectedCount"
001DB8  04                 const type 4
001DB9  06                 string size (6)
001DBA  434F554E5400       "COUNT\0"
                           const [23]: "COUNT"
001DC0  04                 const type 4
001DC1  25                 string size (37)
001DC2  2F4C6F7475732F4C+  "/Lotus/L"
001DCA  616E67756167652F+  "anguage/"
001DD2  4D656E752F417263+  "Menu/Arc"
001DDA  616E657355706772+  "anesUpgr"
001DE2  6164656400         "aded\0"
                           const [24]: "/Lotus/Language/Menu/ArcanesUpgraded"
001DE7  04                 const type 4
001DE8  15                 string size (21)
001DE9  417263616E655365+  "ArcaneSe"
001DF1  6C6563746F722E53+  "lector.S"
001DF9  7461747300         "tats\0"
                           const [25]: "ArcaneSelector.Stats"
001DFE  04                 const type 4
001DFF  05                 string size (5)
001E00  7465787400         "text\0"
                           const [26]: "text"
001E05  04                 const type 4
001E06  11                 string size (17)
001E07  3C703E3C666F6E74+  "<p><font"
001E0F  20636F6C6F723D22+  " color=\""
001E17  00                 "\0"
                           const [27]: "<p><font color=\""
001E18  04                 const type 4
001E19  05                 string size (5)
001E1A  2020202000         "    \0"
                           const [28]: "    "
001E1F  04                 const type 4
001E20  0C                 string size (12)
001E21  3C2F666F6E743E3C+  "</font><"
001E29  2F703E00           "/p>\0"
                           const [29]: "</font></p>"
001E2D  03                 const type 3
001E2E  0000803F           const [30]: (0)
001E32  04                 const type 4
001E33  1D                 string size (29)
001E34  417263616E655570+  "ArcaneUp"
001E3C  6772616465722E52+  "grader.R"
001E44  616E6B4C6973742E+  "ankList."
001E4C  52616E6B00         "Rank\0"
                           const [31]: "ArcaneUpgrader.RankList.Rank"
001E51  03                 const type 3
001E52  0000803E           const [32]: (0)
001E56  04                 const type 4
001E57  06                 string size (6)
001E58  223E3C623E00       "\"><b>\0"
                           const [33]: "\"><b>"
001E5E  04                 const type 4
001E5F  19                 string size (25)
001E60  3C2F623E3C2F666F+  "</b></fo"
001E68  6E743E3C666F6E74+  "nt><font"
001E70  20636F6C6F723D22+  " color=\""
001E78  00                 "\0"
                           const [34]: "</b></font><font color=\""
001E79  04                 const type 4
001E7A  17                 string size (23)
001E7B  22206C6574746572+  "\" letter"
001E83  53706163696E673D+  "Spacing="
001E8B  22302E32223E00     "\"0.2\">\0"
                           const [35]: "\" letterSpacing=\"0.2\">"
001E92  03                 const type 3
001E93  00000040           const [36]: (0)
001E97  01                 const type 3
001E98  A7960188           const [37]: (-2013161817)
001E9C  04                 const type 4
001E9D  05                 string size (5)
001E9E  4465736300         "Desc\0"
                           const [38]: "Desc"
001EA3  04                 const type 4
001EA4  06                 string size (6)
001EA5  436865636B00       "Check\0"
                           const [39]: "Check"
001EAB  04                 const type 4
001EAC  05                 string size (5)
001EAD  476C6F7700         "Glow\0"
                           const [40]: "Glow"
001EB2  04                 const type 4
001EB3  05                 string size (5)
001EB4  4C696E6500         "Line\0"
                           const [41]: "Line"
001EB9  01                 const type 3
001EBA  2FAB2A30           const [42]: (808102703)
001EBE  04                 const type 4
001EBF  0C                 string size (12)
001EC0  2E49636F6E426163+  ".IconBac"
001EC8  6B657200           "ker\0"
                           const [43]: ".IconBacker"
001ECC  04                 const type 4
001ECD  0E                 string size (14)
001ECE  5265637445646765+  "RectEdge"
001ED6  436F6C6F7200       "Color\0"
                           const [44]: "RectEdgeColor"
001EDC  04                 const type 4
001EDD  02                 string size (2)
001EDE  7200               "r\0"
                           const [45]: "r"
001EE0  04                 const type 4
001EE1  02                 string size (2)
001EE2  6700               "g\0"
                           const [46]: "g"
001EE4  04                 const type 4
001EE5  02                 string size (2)
001EE6  6200               "b\0"
                           const [47]: "b"
001EE8  04                 const type 4
001EE9  0F                 string size (15)
001EEA  52656374496E6E65+  "RectInne"
001EF2  72436F6C6F7200     "rColor\0"
                           const [48]: "RectInnerColor"
001EF9  04                 const type 4
001EFA  08                 string size (8)
001EFB  2E4261636B657200   ".Backer\0"
                           const [49]: ".Backer"
001F03  03                 const type 3
001F04  0000003F           const [50]: (0)
001F08  04                 const type 4
001F09  0A                 string size (10)
001F0A  2E4772616469656E+  ".Gradien"
001F12  7400               "t\0"
                           const [51]: ".Gradient"
001F14  04                 const type 4
001F15  28                 string size (40)
001F16  417263616E655570+  "ArcaneUp"
001F1E  6772616465416E69+  "gradeAni"
001F26  6D2E436F70696564+  "m.Copied"
001F2E  52616E6B2E49636F+  "Rank.Ico"
001F36  6E4261636B657200   "nBacker\0"
                           const [52]: "ArcaneUpgradeAnim.CopiedRank.IconBacker"
001F3E  04                 const type 4
001F3F  24                 string size (36)
001F40  417263616E655570+  "ArcaneUp"
001F48  6772616465416E69+  "gradeAni"
001F50  6D2E436F70696564+  "m.Copied"
001F58  52616E6B2E426163+  "Rank.Bac"
001F60  6B657200           "ker\0"
                           const [53]: "ArcaneUpgradeAnim.CopiedRank.Backer"
001F64  04                 const type 4
001F65  26                 string size (38)
001F66  417263616E655570+  "ArcaneUp"
001F6E  6772616465416E69+  "gradeAni"
001F76  6D2E436F70696564+  "m.Copied"
001F7E  52616E6B2E477261+  "Rank.Gra"
001F86  6469656E7400       "dient\0"
                           const [54]: "ArcaneUpgradeAnim.CopiedRank.Gradient"
001F8C  04                 const type 4
001F8D  26                 string size (38)
001F8E  417263616E655570+  "ArcaneUp"
001F96  6772616465722E4C+  "grader.L"
001F9E  6F6F6D2E4C656674+  "oom.Left"
001FA6  2E53696E676C654C+  ".SingleL"
001FAE  6F6F6D303100       "oom01\0"
                           const [55]: "ArcaneUpgrader.Loom.Left.SingleLoom01"
001FB4  04                 const type 4
001FB5  0D                 string size (13)
001FB6  526970706C654365+  "RippleCe"
001FBE  6E74657200         "nter\0"
                           const [56]: "RippleCenter"
001FC3  04                 const type 4
001FC4  26                 string size (38)
001FC5  417263616E655570+  "ArcaneUp"
001FCD  6772616465722E4C+  "grader.L"
001FD5  6F6F6D2E4C656674+  "oom.Left"
001FDD  2E53696E676C654C+  ".SingleL"
001FE5  6F6F6D303200       "oom02\0"
                           const [57]: "ArcaneUpgrader.Loom.Left.SingleLoom02"
001FEB  04                 const type 4
001FEC  26                 string size (38)
001FED  417263616E655570+  "ArcaneUp"
001FF5  6772616465722E4C+  "grader.L"
001FFD  6F6F6D2E4C656674+  "oom.Left"
002005  2E53696E676C654C+  ".SingleL"
00200D  6F6F6D303300       "oom03\0"
                           const [58]: "ArcaneUpgrader.Loom.Left.SingleLoom03"
002013  04                 const type 4
002014  26                 string size (38)
002015  417263616E655570+  "ArcaneUp"
00201D  6772616465722E4C+  "grader.L"
002025  6F6F6D2E4C656674+  "oom.Left"
00202D  2E53696E676C654C+  ".SingleL"
002035  6F6F6D303400       "oom04\0"
                           const [59]: "ArcaneUpgrader.Loom.Left.SingleLoom04"
00203B  04                 const type 4
00203C  27                 string size (39)
00203D  417263616E655570+  "ArcaneUp"
002045  6772616465722E4C+  "grader.L"
00204D  6F6F6D2E52696768+  "oom.Righ"
002055  742E53696E676C65+  "t.Single"
00205D  4C6F6F6D303100     "Loom01\0"
                           const [60]: "ArcaneUpgrader.Loom.Right.SingleLoom01"
002064  04                 const type 4
002065  27                 string size (39)
002066  417263616E655570+  "ArcaneUp"
00206E  6772616465722E4C+  "grader.L"
002076  6F6F6D2E52696768+  "oom.Righ"
00207E  742E53696E676C65+  "t.Single"
002086  4C6F6F6D303200     "Loom02\0"
                           const [61]: "ArcaneUpgrader.Loom.Right.SingleLoom02"
00208D  04                 const type 4
00208E  27                 string size (39)
00208F  417263616E655570+  "ArcaneUp"
002097  6772616465722E4C+  "grader.L"
00209F  6F6F6D2E52696768+  "oom.Righ"
0020A7  742E53696E676C65+  "t.Single"
0020AF  4C6F6F6D303300     "Loom03\0"
                           const [62]: "ArcaneUpgrader.Loom.Right.SingleLoom03"
0020B6  04                 const type 4
0020B7  27                 string size (39)
0020B8  417263616E655570+  "ArcaneUp"
0020C0  6772616465722E4C+  "grader.L"
0020C8  6F6F6D2E52696768+  "oom.Righ"
0020D0  742E53696E676C65+  "t.Single"
0020D8  4C6F6F6D303400     "Loom04\0"
                           const [63]: "ArcaneUpgrader.Loom.Right.SingleLoom04"
0020DF  04                 const type 4
0020E0  31                 string size (49)
0020E1  417263616E655570+  "ArcaneUp"
0020E9  6772616465416E69+  "gradeAni"
0020F1  6D2E417263616E65+  "m.Arcane"
0020F9  2E4C6F6F6D2E5374+  ".Loom.St"
002101  7261696768744C6F+  "raightLo"
002109  6F6D4D61696E3031+  "omMain01"
002111  00                 "\0"
                           const [64]: "ArcaneUpgradeAnim.Arcane.Loom.StraightLoomMain01"
002112  04                 const type 4
002113  31                 string size (49)
002114  417263616E655570+  "ArcaneUp"
00211C  6772616465416E69+  "gradeAni"
002124  6D2E417263616E65+  "m.Arcane"
00212C  2E4C6F6F6D2E5374+  ".Loom.St"
002134  7261696768744C6F+  "raightLo"
00213C  6F6D4D61696E3032+  "omMain02"
002144  00                 "\0"
                           const [65]: "ArcaneUpgradeAnim.Arcane.Loom.StraightLoomMain02"
002145  04                 const type 4
002146  31                 string size (49)
002147  417263616E655570+  "ArcaneUp"
00214F  6772616465416E69+  "gradeAni"
002157  6D2E417263616E65+  "m.Arcane"
00215F  2E4C6F6F6D2E5374+  ".Loom.St"
002167  7261696768744C6F+  "raightLo"
00216F  6F6D4D61696E3033+  "omMain03"
002177  00                 "\0"
                           const [66]: "ArcaneUpgradeAnim.Arcane.Loom.StraightLoomMain03"
002178  04                 const type 4
002179  31                 string size (49)
00217A  417263616E655570+  "ArcaneUp"
002182  6772616465416E69+  "gradeAni"
00218A  6D2E417263616E65+  "m.Arcane"
002192  2E4C6F6F6D2E5374+  ".Loom.St"
00219A  7261696768744C6F+  "raightLo"
0021A2  6F6D4D61696E3034+  "omMain04"
0021AA  00                 "\0"
                           const [67]: "ArcaneUpgradeAnim.Arcane.Loom.StraightLoomMain04"
0021AB  03                 const type 3
0021AC  000000C0           const [68]: (0)
0021B0  04                 const type 4
0021B1  31                 string size (49)
0021B2  417263616E655570+  "ArcaneUp"
0021BA  6772616465416E69+  "gradeAni"
0021C2  6D2E417263616E65+  "m.Arcane"
0021CA  2E4C6F6F6D2E5374+  ".Loom.St"
0021D2  7261696768744C6F+  "raightLo"
0021DA  6F6D4D61696E3035+  "omMain05"
0021E2  00                 "\0"
                           const [69]: "ArcaneUpgradeAnim.Arcane.Loom.StraightLoomMain05"
0021E3  04                 const type 4
0021E4  31                 string size (49)
0021E5  417263616E655570+  "ArcaneUp"
0021ED  6772616465416E69+  "gradeAni"
0021F5  6D2E417263616E65+  "m.Arcane"
0021FD  2E4C6F6F6D2E5374+  ".Loom.St"
002205  7261696768744C6F+  "raightLo"
00220D  6F6D4D61696E3036+  "omMain06"
002215  00                 "\0"
                           const [70]: "ArcaneUpgradeAnim.Arcane.Loom.StraightLoomMain06"
002216  04                 const type 4
002217  31                 string size (49)
002218  417263616E655570+  "ArcaneUp"
002220  6772616465416E69+  "gradeAni"
002228  6D2E417263616E65+  "m.Arcane"
002230  2E4C6F6F6D2E5374+  ".Loom.St"
002238  7261696768744C6F+  "raightLo"
002240  6F6D4D61696E3037+  "omMain07"
002248  00                 "\0"
                           const [71]: "ArcaneUpgradeAnim.Arcane.Loom.StraightLoomMain07"
002249  04                 const type 4
00224A  31                 string size (49)
00224B  417263616E655570+  "ArcaneUp"
002253  6772616465416E69+  "gradeAni"
00225B  6D2E417263616E65+  "m.Arcane"
002263  2E4C6F6F6D2E5374+  ".Loom.St"
00226B  7261696768744C6F+  "raightLo"
002273  6F6D4D61696E3038+  "omMain08"
00227B  00                 "\0"
                           const [72]: "ArcaneUpgradeAnim.Arcane.Loom.StraightLoomMain08"
                           * functions:
00227C  00                 sizep (0)
                           * lines:
00227E  03                 sizelineinfo (492)
                           [pc] (line)
00227F  8F                 [001] (-113)
002280  00                 [002] (-113)
002281  00                 [003] (-113)
002282  00                 [004] (-113)
002283  8F                 [005] (-113)
002284  00                 [006] (-113)
002285  00                 [007] (-112)
002286  00                 [008] (-112)
002287  8F                 [009] (-112)
002288  00                 [010] (-112)
002289  00                 [011] (-112)
00228A  00                 [012] (-112)
00228B  8F                 [013] (-111)
00228C  00                 [014] (-111)
00228D  00                 [015] (-111)
00228E  00                 [016] (-111)
00228F  8F                 [017] (-111)
002290  00                 [018] (-111)
002291  00                 [019] (-110)
002292  00                 [020] (-110)
002293  8F                 [021] (-110)
002294  00                 [022] (-110)
002295  00                 [023] (-110)
002296  00                 [024] (-110)
002297  90                 [025] (-109)
002298  00                 [026] (-109)
002299  00                 [027] (-109)
00229A  00                 [028] (-109)
00229B  90                 [029] (-108)
00229C  00                 [030] (-108)
00229D  00                 [031] (-108)
00229E  00                 [032] (-108)
00229F  90                 [033] (-107)
0022A0  00                 [034] (-107)
0022A1  00                 [035] (-107)
0022A2  00                 [036] (-107)
0022A3  90                 [037] (-106)
0022A4  00                 [038] (-106)
0022A5  00                 [039] (-106)
0022A6  00                 [040] (-106)
0022A7  90                 [041] (-105)
0022A8  00                 [042] (-105)
0022A9  00                 [043] (-105)
0022AA  00                 [044] (-105)
0022AB  90                 [045] (-103)
0022AC  00                 [046] (-103)
0022AD  00                 [047] (-103)
0022AE  00                 [048] (-103)
0022AF  91                 [049] (-103)
0022B0  00                 [050] (-103)
0022B1  00                 [051] (-102)
0022B2  00                 [052] (-102)
0022B3  91                 [053] (-102)
0022B4  00                 [054] (-102)
0022B5  00                 [055] (-102)
0022B6  00                 [056] (-102)
0022B7  91                 [057] (-100)
0022B8  00                 [058] (-100)
0022B9  00                 [059] (-100)
0022BA  00                 [060] (-100)
0022BB  91                 [061] (-100)
0022BC  00                 [062] (-100)
0022BD  00                 [063] (-99)
0022BE  00                 [064] (-99)
0022BF  91                 [065] (-99)
0022C0  00                 [066] (-99)
0022C1  00                 [067] (-99)
0022C2  00                 [068] (-99)
0022C3  91                 [069] (-97)
0022C4  00                 [070] (-97)
0022C5  00                 [071] (-97)
0022C6  00                 [072] (-97)
0022C7  92                 [073] (-97)
0022C8  00                 [074] (-95)
0022C9  00                 [075] (-94)
0022CA  00                 [076] (-94)
0022CB  92                 [077] (-94)
0022CC  00                 [078] (-94)
0022CD  00                 [079] (-94)
0022CE  00                 [080] (-94)
0022CF  92                 [081] (-94)
0022D0  00                 [082] (-93)
0022D1  00                 [083] (-93)
0022D2  00                 [084] (-93)
0022D3  92                 [085] (-91)
0022D4  00                 [086] (-91)
0022D5  00                 [087] (-91)
0022D6  00                 [088] (-91)
0022D7  92                 [089] (-91)
0022D8  00                 [090] (-91)
0022D9  00                 [091] (-91)
0022DA  00                 [092] (-91)
0022DB  92                 [093] (-90)
0022DC  00                 [094] (-90)
0022DD  00                 [095] (-90)
0022DE  00                 [096] (-90)
0022DF  93                 [097] (-90)
0022E0  00                 [098] (-90)
0022E1  00                 [099] (-90)
0022E2  00                 [100] (-90)
0022E3  93                 [101] (-88)
0022E4  00                 [102] (-87)
0022E5  00                 [103] (-87)
0022E6  00                 [104] (-87)
0022E7  93                 [105] (-87)
0022E8  00                 [106] (-87)
0022E9  00                 [107] (-87)
0022EA  00                 [108] (-87)
0022EB  93                 [109] (-86)
0022EC  00                 [110] (-86)
0022ED  00                 [111] (-86)
0022EE  00                 [112] (-84)
0022EF  94                 [113] (-84)
0022F0  00                 [114] (-84)
0022F1  00                 [115] (-84)
0022F2  00                 [116] (-84)
0022F3  94                 [117] (-84)
0022F4  00                 [118] (-84)
0022F5  00                 [119] (-84)
0022F6  00                 [120] (-83)
0022F7  94                 [121] (-83)
0022F8  00                 [122] (-83)
0022F9  00                 [123] (-83)
0022FA  00                 [124] (-83)
0022FB  94                 [125] (-83)
0022FC  00                 [126] (-83)
0022FD  00                 [127] (-83)
0022FE  00                 [128] (-81)
0022FF  95                 [129] (-81)
002300  00                 [130] (-81)
002301  00                 [131] (-81)
002302  00                 [132] (-81)
002303  95                 [133] (-81)
002304  00                 [134] (-81)
002305  00                 [135] (-81)
002306  00                 [136] (-81)
002307  95                 [137] (-81)
002308  00                 [138] (-81)
002309  00                 [139] (-81)
00230A  00                 [140] (-81)
00230B  95                 [141] (-79)
00230C  00                 [142] (-79)
00230D  00                 [143] (-79)
00230E  00                 [144] (-79)
00230F  96                 [145] (-79)
002310  00                 [146] (-78)
002311  00                 [147] (-78)
002312  00                 [148] (-78)
002313  96                 [149] (-77)
002314  00                 [150] (-77)
002315  00                 [151] (-77)
002316  00                 [152] (-77)
002317  96                 [153] (-77)
002318  00                 [154] (-77)
002319  00                 [155] (-77)
00231A  00                 [156] (-77)
00231B  96                 [157] (-77)
00231C  00                 [158] (-76)
00231D  00                 [159] (-76)
00231E  00                 [160] (-76)
00231F  97                 [161] (-76)
002320  00                 [162] (-76)
002321  00                 [163] (-76)
002322  00                 [164] (-75)
002323  97                 [165] (-75)
002324  00                 [166] (-75)
002325  00                 [167] (-75)
002326  00                 [168] (-75)
002327  97                 [169] (-75)
002328  00                 [170] (-75)
002329  00                 [171] (-75)
00232A  00                 [172] (-75)
00232B  97                 [173] (-75)
00232C  00                 [174] (-75)
00232D  00                 [175] (-75)
00232E  00                 [176] (-75)
00232F  99                 [177] (-75)
002330  00                 [178] (-74)
002331  00                 [179] (-74)
002332  00                 [180] (-74)
002333  99                 [181] (-74)
002334  00                 [182] (-74)
002335  00                 [183] (-74)
002336  00                 [184] (-74)
002337  99                 [185] (-73)
002338  00                 [186] (-73)
002339  00                 [187] (-73)
00233A  00                 [188] (-73)
00233B  99                 [189] (-73)
00233C  00                 [190] (-73)
00233D  00                 [191] (-73)
00233E  00                 [192] (-72)
00233F  99                 [193] (-72)
002340  00                 [194] (-72)
002341  00                 [195] (-72)
002342  00                 [196] (-72)
002343  99                 [197] (-72)
002344  00                 [198] (-72)
002345  00                 [199] (-71)
002346  00                 [200] (-71)
002347  9A                 [201] (-71)
002348  00                 [202] (-71)
002349  00                 [203] (-71)
00234A  00                 [204] (-71)
00234B  9A                 [205] (-71)
00234C  00                 [206] (-69)
00234D  00                 [207] (-69)
00234E  00                 [208] (-69)
00234F  9A                 [209] (-69)
002350  00                 [210] (-69)
002351  00                 [211] (-69)
002352  00                 [212] (-68)
002353  9A                 [213] (-68)
002354  00                 [214] (-68)
002355  00                 [215] (-68)
002356  00                 [216] (-68)
002357  9A                 [217] (-68)
002358  00                 [218] (-68)
002359  00                 [219] (-67)
00235A  00                 [220] (-67)
00235B  9A                 [221] (-67)
00235C  00                 [222] (-67)
00235D  00                 [223] (-67)
00235E  00                 [224] (-67)
00235F  9C                 [225] (-67)
002360  00                 [226] (-67)
002361  00                 [227] (-67)
002362  00                 [228] (-67)
002363  9C                 [229] (-67)
002364  00                 [230] (-66)
002365  00                 [231] (-66)
002366  00                 [232] (-66)
002367  9C                 [233] (-66)
002368  00                 [234] (-66)
002369  00                 [235] (-66)
00236A  00                 [236] (-66)
00236B  9C                 [237] (-66)
00236C  00                 [238] (-66)
00236D  00                 [239] (-66)
00236E  00                 [240] (-66)
00236F  9C                 [241] (-64)
002370  00                 [242] (-64)
002371  00                 [243] (-64)
002372  00                 [244] (-64)
002373  9C                 [245] (-64)
002374  00                 [246] (-64)
002375  00                 [247] (-64)
002376  00                 [248] (-64)
002377  9D                 [249] (-64)
002378  00                 [250] (-64)
002379  00                 [251] (-64)
00237A  00                 [252] (-63)
00237B  9D                 [253] (-63)
00237C  00                 [254] (-63)
00237D  00                 [255] (-63)
00237E  00                 [256] (-63)
00237F  9D                 [257] (-63)
002380  00                 [258] (-63)
002381  00                 [259] (-63)
002382  00                 [260] (-63)
002383  9D                 [261] (-63)
002384  00                 [262] (-63)
002385  00                 [263] (-61)
002386  00                 [264] (-61)
002387  9D                 [265] (-61)
002388  00                 [266] (-61)
002389  00                 [267] (-61)
00238A  00                 [268] (-61)
00238B  9D                 [269] (-61)
00238C  00                 [270] (-61)
00238D  00                 [271] (-61)
00238E  00                 [272] (-61)
00238F  9F                 [273] (-61)
002390  00                 [274] (-60)
002391  00                 [275] (-60)
002392  00                 [276] (-60)
002393  9F                 [277] (-60)
002394  00                 [278] (-60)
002395  00                 [279] (-60)
002396  00                 [280] (-60)
002397  9F                 [281] (-60)
002398  00                 [282] (-60)
002399  00                 [283] (-60)
00239A  00                 [284] (-60)
00239B  9F                 [285] (-79)
00239C  00                 [286] (-57)
00239D  00                 [287] (-57)
00239E  00                 [288] (-57)
00239F  9F                 [289] (-57)
0023A0  00                 [290] (-57)
0023A1  00                 [291] (-57)
0023A2  00                 [292] (-57)
0023A3  A1                 [293] (-57)
0023A4  00                 [294] (-57)
0023A5  00                 [295] (-56)
0023A6  00                 [296] (-56)
0023A7  A2                 [297] (-56)
0023A8  00                 [298] (-56)
0023A9  00                 [299] (-56)
0023AA  00                 [300] (-56)
0023AB  A2                 [301] (-56)
0023AC  00                 [302] (-56)
0023AD  00                 [303] (-56)
0023AE  00                 [304] (-55)
0023AF  A2                 [305] (-55)
0023B0  00                 [306] (-55)
0023B1  00                 [307] (-55)
0023B2  00                 [308] (-55)
0023B3  A2                 [309] (-55)
0023B4  00                 [310] (-55)
0023B5  00                 [311] (-55)
0023B6  00                 [312] (-55)
0023B7  A2                 [313] (-54)
0023B8  00                 [314] (-54)
0023B9  00                 [315] (-54)
0023BA  00                 [316] (-54)
0023BB  A2                 [317] (-54)
0023BC  00                 [318] (-54)
0023BD  00                 [319] (-54)
0023BE  00                 [320] (-54)
0023BF  A2                 [321] (-54)
0023C0  00                 [322] (-53)
0023C1  00                 [323] (-53)
0023C2  00                 [324] (-53)
0023C3  A3                 [325] (-53)
0023C4  00                 [326] (-53)
0023C5  00                 [327] (-53)
0023C6  00                 [328] (-53)
0023C7  A3                 [329] (-53)
0023C8  00                 [330] (-53)
0023C9  00                 [331] (-52)
0023CA  00                 [332] (-52)
0023CB  A3                 [333] (-52)
0023CC  00                 [334] (-52)
0023CD  00                 [335] (-52)
0023CE  00                 [336] (-52)
0023CF  A5                 [337] (-52)
0023D0  00                 [338] (-52)
0023D1  00                 [339] (-52)
0023D2  00                 [340] (-50)
0023D3  A5                 [341] (-49)
0023D4  00                 [342] (-48)
0023D5  00                 [343] (-48)
0023D6  00                 [344] (-48)
0023D7  A5                 [345] (-48)
0023D8  00                 [346] (-48)
0023D9  00                 [347] (-48)
0023DA  00                 [348] (-48)
0023DB  A5                 [349] (-48)
0023DC  00                 [350] (-48)
0023DD  00                 [351] (-47)
0023DE  00                 [352] (-47)
0023DF  A5                 [353] (-47)
0023E0  00                 [354] (-47)
0023E1  00                 [355] (-47)
0023E2  00                 [356] (-47)
0023E3  A5                 [357] (-47)
0023E4  00                 [358] (-47)
0023E5  00                 [359] (-47)
0023E6  00                 [360] (-46)
0023E7  A5                 [361] (-46)
0023E8  00                 [362] (-46)
0023E9  00                 [363] (-46)
0023EA  00                 [364] (-46)
0023EB  A5                 [365] (-46)
0023EC  00                 [366] (-46)
0023ED  00                 [367] (-46)
0023EE  00                 [368] (-46)
0023EF  A6                 [369] (-45)
0023F0  00                 [370] (-45)
0023F1  00                 [371] (-45)
0023F2  00                 [372] (-45)
0023F3  A6                 [373] (-45)
0023F4  00                 [374] (-45)
0023F5  00                 [375] (-45)
0023F6  00                 [376] (-45)
0023F7  A6                 [377] (-45)
0023F8  00                 [378] (-44)
0023F9  00                 [379] (-43)
0023FA  00                 [380] (-42)
0023FB  A6                 [381] (-42)
0023FC  00                 [382] (-42)
0023FD  00                 [383] (-42)
0023FE  00                 [384] (-42)
0023FF  A6                 [385] (-42)
002400  00                 [386] (-42)
002401  00                 [387] (-42)
002402  00                 [388] (-42)
002403  A6                 [389] (-41)
002404  00                 [390] (-41)
002405  00                 [391] (-41)
002406  00                 [392] (-41)
002407  A6                 [393] (-41)
002408  00                 [394] (-41)
002409  00                 [395] (-41)
00240A  00                 [396] (-41)
00240B  A6                 [397] (-41)
00240C  00                 [398] (-40)
00240D  00                 [399] (-40)
00240E  00                 [400] (-40)
00240F  A8                 [401] (-40)
002410  00                 [402] (-40)
002411  00                 [403] (-40)
002412  00                 [404] (-40)
002413  A9                 [405] (-40)
002414  00                 [406] (-40)
002415  00                 [407] (-39)
002416  00                 [408] (-39)
002417  A9                 [409] (-39)
002418  00                 [410] (-39)
002419  00                 [411] (-39)
00241A  00                 [412] (-39)
00241B  A9                 [413] (-39)
00241C  00                 [414] (-39)
00241D  00                 [415] (-39)
00241E  00                 [416] (-38)
00241F  A9                 [417] (-37)
002420  00                 [418] (-36)
002421  00                 [419] (-36)
002422  00                 [420] (-36)
002423  A9                 [421] (-36)
002424  00                 [422] (-36)
002425  00                 [423] (-36)
002426  00                 [424] (-36)
002427  A9                 [425] (-36)
002428  00                 [426] (-36)
002429  00                 [427] (-35)
00242A  00                 [428] (-35)
00242B  A9                 [429] (-35)
00242C  00                 [430] (-35)
00242D  00                 [431] (-35)
00242E  00                 [432] (-35)
00242F  AA                 [433] (-35)
002430  00                 [434] (-35)
002431  00                 [435] (-35)
002432  00                 [436] (-34)
002433  AA                 [437] (-34)
002434  00                 [438] (-34)
002435  00                 [439] (-34)
002436  00                 [440] (-34)
002437  AA                 [441] (-34)
002438  00                 [442] (-34)
002439  00                 [443] (-34)
00243A  00                 [444] (-34)
00243B  AC                 [445] (-33)
00243C  00                 [446] (-33)
00243D  00                 [447] (-33)
00243E  00                 [448] (-33)
00243F  AC                 [449] (-33)
002440  00                 [450] (-33)
002441  00                 [451] (-33)
002442  00                 [452] (-33)
002443  AC                 [453] (-33)
002444  00                 [454] (-32)
002445  00                 [455] (-31)
002446  00                 [456] (-30)
002447  AC                 [457] (-30)
002448  00                 [458] (-30)
002449  00                 [459] (-30)
00244A  00                 [460] (-30)
00244B  AC                 [461] (-30)
00244C  00                 [462] (-30)
00244D  00                 [463] (-30)
00244E  00                 [464] (-30)
00244F  AC                 [465] (-29)
002450  00                 [466] (-29)
002451  00                 [467] (-29)
002452  00                 [468] (-29)
002453  AC                 [469] (-29)
002454  00                 [470] (-29)
002455  00                 [471] (-29)
002456  00                 [472] (-29)
002457  AC                 [473] (-29)
002458  00                 [474] (-28)
002459  00                 [475] (-28)
00245A  00                 [476] (-28)
00245B  AD                 [477] (-28)
00245C  00                 [478] (-28)
00245D  00                 [479] (-28)
00245E  00                 [480] (-28)
00245F  AD                 [481] (-28)
002460  00                 [482] (-28)
002461  00                 [483] (-27)
002462  00                 [484] (-27)
002463  AD                 [485] (-27)
002464  00                 [486] (-27)
002465  00                 [487] (-27)
002466  00                 [488] (-27)
002467  AD                 [489] (-27)
002468  00                 [490] (-27)
002469  00                 [491] (-27)
00246A  00                 [492] (-26)
                           * locals:
002A2F  00                 sizelocvars (0)
                           * upvalues:
002A30  00                 sizeupvalues (0)
                           ** end of function **

                           
002A31                     ** function [4] definition (level 2)
                           ** start of function **
002A31  00                 string size (0)
                           source name: (none)
002A33  01                 line defined (232)
002A34  F4                 last line defined (244)
002A35  01                 nups (3)
002A36  03                 numparams (0)
002A37  00                 is_vararg (0)
002A38  00                 maxstacksize (4)
                           * code:
002A3A  29                 sizecode (41)
002A3B  13000000           [01] getupval   0   0      
002A3F  18000000           [02] test       0       0    ; to [4] if true
002A43  1A400480           [03] jmp        18           ; to [22]
002A47  1D000000           [04] getglobal  0   0        ; 1074689893
002A4B  5D400000           [05] getglobal  1   1        ; gGameData
002A4F  22800001           [06] call       0   2   2  
002A53  18400000           [07] test       0       1    ; to [9] if false
002A57  1A000380           [08] jmp        13           ; to [22]
002A5B  17008000           [09] loadbool   0   1   0    ; true
fail op	8
002A5F  08008000           [10] setupval   0   1      
002A63  1D800000           [11] getglobal  0   2        ; _T
002A67  0EC04000           [12] gettable   0   0   259  ; "BackgroundMovie"
002A6B  24004100           [13] self       0   0   260  ; 1167009705
002A6F  99400100           [14] loadk      2   5        ; "ShowBlockingMessage"
002A73  D9800100           [15] loadk      3   6        ; "2"
002A77  22400002           [16] call       0   4   1  
002A7B  1D400000           [17] getglobal  0   1        ; gGameData
002A7F  24C04100           [18] self       0   0   263  ; -2092150459
002A83  99000200           [19] loadk      2   8        ; "OnSaveLoadOutComplete"
002A87  22408001           [20] call       0   3   1  
002A8B  1A400380           [21] jmp        14           ; to [36]
002A8F  1D000000           [22] getglobal  0   0        ; 1074689893
002A93  5D800000           [23] getglobal  1   2        ; _T
002A97  4E40C200           [24] gettable   1   1   265  ; "SetButtons"
002A9B  22800001           [25] call       0   2   2  
002A9F  18400000           [26] test       0       1    ; to [28] if false
002AA3  1A000180           [27] jmp        5            ; to [33]
002AA7  1D800000           [28] getglobal  0   2        ; _T
002AAB  0E804200           [29] gettable   0   0   266  ; -270549122
002AAF  5DC00200           [30] getglobal  1   11       ; mMovie
002AB3  86000001           [31] loadnil    2   2      
002AB7  22408001           [32] call       0   3   1  
002ABB  1DC00200           [33] getglobal  0   11       ; mMovie
002ABF  24004300           [34] self       0   0   268  ; -1517569684
002AC3  22400001           [35] call       0   2   1  
002AC7  13000001           [36] getupval   0   2      
002ACB  0E404300           [37] gettable   0   0   269  ; 630793108
002ACF  5D800300           [38] getglobal  1   14       ; _G
002AD3  4EC0C300           [39] gettable   1   1   271  ; "UISound_WindowClose"
002AD7  22400001           [40] call       0   2   1  
002ADB  1E008000           [41] return     0   1      
                           * constants:
002ADF  10                 sizek (16)
002AE0  01                 const type 3
002AE1  65770E40           const [0]: (1074689893)
002AE5  04                 const type 4
002AE6  0A                 string size (10)
002AE7  6747616D65446174+  "gGameDat"
002AEF  6100               "a\0"
                           const [1]: "gGameData"
002AF1  04                 const type 4
002AF2  03                 string size (3)
002AF3  5F5400             "_T\0"
                           const [2]: "_T"
002AF6  04                 const type 4
002AF7  10                 string size (16)
002AF8  4261636B67726F75+  "Backgrou"
002B00  6E644D6F76696500   "ndMovie\0"
                           const [3]: "BackgroundMovie"
002B08  01                 const type 3
002B09  A9278F45           const [4]: (1167009705)
002B0D  04                 const type 4
002B0E  14                 string size (20)
002B0F  53686F77426C6F63+  "ShowBloc"
002B17  6B696E674D657373+  "kingMess"
002B1F  61676500           "age\0"
                           const [5]: "ShowBlockingMessage"
002B23  04                 const type 4
002B24  02                 string size (2)
002B25  3200               "2\0"
                           const [6]: "2"
002B27  01                 const type 3
002B28  45514C83           const [7]: (-2092150459)
002B2C  04                 const type 4
002B2D  16                 string size (22)
002B2E  4F6E536176654C6F+  "OnSaveLo"
002B36  61644F7574436F6D+  "adOutCom"
002B3E  706C65746500       "plete\0"
                           const [8]: "OnSaveLoadOutComplete"
002B44  04                 const type 4
002B45  0B                 string size (11)
002B46  536574427574746F+  "SetButto"
002B4E  6E7300             "ns\0"
                           const [9]: "SetButtons"
002B51  01                 const type 3
002B52  7EBFDFEF           const [10]: (-270549122)
002B56  04                 const type 4
002B57  07                 string size (7)
002B58  6D4D6F76696500     "mMovie\0"
                           const [11]: "mMovie"
002B5F  01                 const type 3
002B60  6CB98BA5           const [12]: (-1517569684)
002B64  01                 const type 3
002B65  94239925           const [13]: (630793108)
002B69  04                 const type 4
002B6A  03                 string size (3)
002B6B  5F4700             "_G\0"
                           const [14]: "_G"
002B6E  04                 const type 4
002B6F  14                 string size (20)
002B70  5549536F756E645F+  "UISound_"
002B78  57696E646F77436C+  "WindowCl"
002B80  6F736500           "ose\0"
                           const [15]: "UISound_WindowClose"
                           * functions:
002B84  00                 sizep (0)
                           * lines:
002B85  29                 sizelineinfo (41)
                           [pc] (line)
002B86  E9                 [01] (-23)
002B87  00                 [02] (-23)
002B88  00                 [03] (-23)
002B89  00                 [04] (-23)
002B8A  E9                 [05] (-23)
002B8B  00                 [06] (-23)
002B8C  00                 [07] (-23)
002B8D  00                 [08] (-23)
002B8E  E9                 [09] (-22)
002B8F  00                 [10] (-22)
002B90  00                 [11] (-21)
002B91  00                 [12] (-21)
002B92  E9                 [13] (-21)
002B93  00                 [14] (-21)
002B94  00                 [15] (-21)
002B95  00                 [16] (-21)
002B96  E9                 [17] (-20)
002B97  00                 [18] (-20)
002B98  00                 [19] (-20)
002B99  00                 [20] (-20)
002B9A  E9                 [21] (-20)
002B9B  00                 [22] (-18)
002B9C  00                 [23] (-18)
002B9D  00                 [24] (-18)
002B9E  E9                 [25] (-18)
002B9F  00                 [26] (-18)
002BA0  00                 [27] (-18)
002BA1  00                 [28] (-17)
002BA2  E9                 [29] (-17)
002BA3  00                 [30] (-17)
002BA4  00                 [31] (-17)
002BA5  00                 [32] (-17)
002BA6  EA                 [33] (-15)
002BA7  00                 [34] (-15)
002BA8  00                 [35] (-15)
002BA9  00                 [36] (-13)
002BAA  EA                 [37] (-13)
002BAB  00                 [38] (-13)
002BAC  00                 [39] (-13)
002BAD  00                 [40] (-13)
002BAE  EB                 [41] (-12)
                           * locals:
002C2A  00                 sizelocvars (0)
                           * upvalues:
002C2B  00                 sizeupvalues (0)
                           ** end of function **

                           
002C2C                     ** function [5] definition (level 2)
                           ** start of function **
002C2C  00                 string size (0)
                           source name: (none)
002C2E  01                 line defined (246)
002C2F  FE                 last line defined (254)
002C30  01                 nups (2)
002C31  02                 numparams (0)
002C32  00                 is_vararg (0)
002C33  00                 maxstacksize (3)
                           * code:
002C35  18                 sizecode (24)
002C36  1D000000           [01] getglobal  0   0        ; 1074689893
002C3A  53000000           [02] getupval   1   0      
002C3E  4E40C000           [03] gettable   1   1   257  ; "Callback"
002C42  22800001           [04] call       0   2   2  
002C46  18400000           [05] test       0       1    ; to [7] if false
002C4A  1A800380           [06] jmp        15           ; to [22]
002C4E  1D000000           [07] getglobal  0   0        ; 1074689893
002C52  5D800000           [08] getglobal  1   2        ; _T
002C56  93000000           [09] getupval   2   0      
002C5A  8E404001           [10] gettable   2   2   257  ; "Callback"
002C5E  4E808000           [11] gettable   1   1   2  
002C62  22800001           [12] call       0   2   2  
002C66  18400000           [13] test       0       1    ; to [15] if false
002C6A  1A800180           [14] jmp        7            ; to [22]
002C6E  1D800000           [15] getglobal  0   2        ; _T
002C72  53000000           [16] getupval   1   0      
002C76  4E40C000           [17] gettable   1   1   257  ; "Callback"
002C7A  0E400000           [18] gettable   0   0   1  
002C7E  57000000           [19] loadbool   1   0   0    ; false
002C82  86000001           [20] loadnil    2   2      
002C86  22408001           [21] call       0   3   1  
002C8A  13008000           [22] getupval   0   1      
002C8E  22408000           [23] call       0   1   1  
002C92  1E008000           [24] return     0   1      
                           * constants:
002C96  03                 sizek (3)
002C97  01                 const type 3
002C98  65770E40           const [0]: (1074689893)
002C9C  04                 const type 4
002C9D  09                 string size (9)
002C9E  43616C6C6261636B+  "Callback"
002CA6  00                 "\0"
                           const [1]: "Callback"
002CA7  04                 const type 4
002CA8  03                 string size (3)
002CA9  5F5400             "_T\0"
                           const [2]: "_T"
                           * functions:
002CAC  00                 sizep (0)
                           * lines:
002CAD  18                 sizelineinfo (24)
                           [pc] (line)
002CAE  F7                 [01] (-9)
002CAF  00                 [02] (-9)
002CB0  00                 [03] (-9)
002CB1  00                 [04] (-9)
002CB2  F7                 [05] (-9)
002CB3  00                 [06] (-9)
002CB4  00                 [07] (-9)
002CB5  00                 [08] (-9)
002CB6  F7                 [09] (-9)
002CB7  00                 [10] (-9)
002CB8  00                 [11] (-9)
002CB9  00                 [12] (-9)
002CBA  F7                 [13] (-9)
002CBB  00                 [14] (-9)
002CBC  00                 [15] (-6)
002CBD  00                 [16] (-6)
002CBE  F7                 [17] (-6)
002CBF  00                 [18] (-6)
002CC0  00                 [19] (-6)
002CC1  00                 [20] (-6)
002CC2  F7                 [21] (-6)
002CC3  00                 [22] (-3)
002CC4  00                 [23] (-3)
002CC5  00                 [24] (-2)
                           * locals:
002D0E  00                 sizelocvars (0)
                           * upvalues:
002D0F  00                 sizeupvalues (0)
                           ** end of function **

                           
002D10                     ** function [6] definition (level 2)
                           ** start of function **
002D10  00                 string size (0)
                           source name: (none)
002D12  02                 line defined (256)
002D13  85                 last line defined (261)
002D14  02                 nups (2)
002D15  02                 numparams (2)
002D16  02                 is_vararg (0)
002D17  00                 maxstacksize (6)
                           * code:
002D19  0B                 sizecode (11)
002D1A  9D000000           [01] getglobal  2   0        ; _T
002D1E  8E404001           [02] gettable   2   2   257  ; "BackgroundMovie"
002D22  A4804001           [03] self       2   2   258  ; 1167009705
002D26  19C10000           [04] loadk      4   3        ; "ShowBlockingMessage"
002D2A  59010100           [05] loadk      5   4        ; "0"
002D2E  A2400002           [06] call       2   4   1  
002D32  97000000           [07] loadbool   2   0   0    ; false
fail op	8
002D36  88000000           [08] setupval   2   0      
002D3A  93008000           [09] getupval   2   1      
002D3E  A2408000           [10] call       2   1   1  
002D42  1E008000           [11] return     0   1      
                           * constants:
002D46  05                 sizek (5)
002D47  04                 const type 4
002D48  03                 string size (3)
002D49  5F5400             "_T\0"
                           const [0]: "_T"
002D4C  04                 const type 4
002D4D  10                 string size (16)
002D4E  4261636B67726F75+  "Backgrou"
002D56  6E644D6F76696500   "ndMovie\0"
                           const [1]: "BackgroundMovie"
002D5E  01                 const type 3
002D5F  A9278F45           const [2]: (1167009705)
002D63  04                 const type 4
002D64  14                 string size (20)
002D65  53686F77426C6F63+  "ShowBloc"
002D6D  6B696E674D657373+  "kingMess"
002D75  61676500           "age\0"
                           const [3]: "ShowBlockingMessage"
002D79  04                 const type 4
002D7A  02                 string size (2)
002D7B  3000               "0\0"
                           const [4]: "0"
                           * functions:
002D7D  00                 sizep (0)
                           * lines:
002D7E  0B                 sizelineinfo (11)
                           [pc] (line)
002D7F  01                 [01] (1)
002D80  01                 [02] (1)
002D81  00                 [03] (1)
002D82  00                 [04] (1)
002D83  01                 [05] (1)
002D84  01                 [06] (1)
002D85  00                 [07] (3)
002D86  00                 [08] (3)
002D87  01                 [09] (4)
002D88  01                 [10] (4)
002D89  00                 [11] (5)
                           * locals:
002DAB  00                 sizelocvars (0)
                           * upvalues:
002DAC  00                 sizeupvalues (0)
                           ** end of function **

                           
002DAD                     ** function [7] definition (level 2)
                           ** start of function **
002DAD  00                 string size (0)
                           source name: (none)
002DAF  02                 line defined (263)
002DB0  96                 last line defined (278)
002DB1  02                 nups (0)
002DB2  00                 numparams (2)
002DB3  02                 is_vararg (0)
002DB4  00                 maxstacksize (4)
                           * code:
002DB6  27                 sizecode (39)
002DB7  9D000000           [01] getglobal  2   0        ; 1074689893
002DBB  D2000000           [02] move       3   0      
002DBF  A2800001           [03] call       2   2   2  
002DC3  98400000           [04] test       2       1    ; to [6] if false
002DC7  1A000180           [05] jmp        5            ; to [11]
002DCB  9D000000           [06] getglobal  2   0        ; 1074689893
002DCF  D2008000           [07] move       3   1      
002DD3  A2800001           [08] call       2   2   2  
002DD7  98000000           [09] test       2       0    ; to [11] if true
002DDB  1A400080           [10] jmp        2            ; to [13]
002DDF  97000000           [11] loadbool   2   0   0    ; false
002DE3  9E000001           [12] return     2   2      
002DE7  8E404000           [13] gettable   2   0   257  ; "mItemId"
002DEB  8E804001           [14] gettable   2   2   258  ; "mId"
002DEF  CE40C000           [15] gettable   3   1   257  ; "mItemId"
002DF3  CE80C001           [16] gettable   3   3   258  ; "mId"
fail op	35
002DF7  63C00001           [17] close      1  
002DFB  1A800080           [18] jmp        3            ; to [22]
002DFF  97000000           [19] loadbool   2   0   0    ; false
002E03  9E000001           [20] return     2   2      
002E07  1A400280           [21] jmp        10           ; to [32]
002E0B  8E404000           [22] gettable   2   0   257  ; "mItemId"
002E0F  8E804001           [23] gettable   2   2   258  ; "mId"
fail op	35
002E13  63C04001           [24] close      1  
002E17  1A400180           [25] jmp        6            ; to [32]
002E1B  8E40C000           [26] gettable   2   1   257  ; "mItemId"
002E1F  8E804001           [27] gettable   2   2   258  ; "mId"
fail op	35
002E23  63C04001           [28] close      1  
002E27  1A400080           [29] jmp        2            ; to [32]
002E2B  97008000           [30] loadbool   2   1   0    ; true
002E2F  9E000001           [31] return     2   2      
002E33  8E004100           [32] gettable   2   0   260  ; "mItemType"
002E37  CE00C100           [33] gettable   3   1   260  ; "mItemType"
fail op	35
002E3B  63C00001           [34] close      1  
002E3F  1A000080           [35] jmp        1            ; to [37]
002E43  97400000           [36] loadbool   2   0   1    ; false, to [38]
002E47  97008000           [37] loadbool   2   1   0    ; true
002E4B  9E000001           [38] return     2   2      
002E4F  1E008000           [39] return     0   1      
                           * constants:
002E53  05                 sizek (5)
002E54  01                 const type 3
002E55  65770E40           const [0]: (1074689893)
002E59  04                 const type 4
002E5A  08                 string size (8)
002E5B  6D4974656D496400   "mItemId\0"
                           const [1]: "mItemId"
002E63  04                 const type 4
002E64  04                 string size (4)
002E65  6D496400           "mId\0"
                           const [2]: "mId"
002E69  04                 const type 4
002E6A  01                 string size (0)
                           const [3]: ""
002E6C  04                 const type 4
002E6D  0A                 string size (10)
002E6E  6D4974656D547970+  "mItemTyp"
002E76  6500               "e\0"
                           const [4]: "mItemType"
                           * functions:
002E78  00                 sizep (0)
                           * lines:
002E79  27                 sizelineinfo (39)
                           [pc] (line)
002E7A  08                 [01] (8)
002E7B  01                 [02] (8)
002E7C  00                 [03] (8)
002E7D  00                 [04] (8)
002E7E  08                 [05] (8)
002E7F  01                 [06] (8)
002E80  00                 [07] (8)
002E81  00                 [08] (8)
002E82  08                 [09] (8)
002E83  01                 [10] (8)
002E84  00                 [11] (9)
002E85  00                 [12] (9)
002E86  08                 [13] (12)
002E87  01                 [14] (12)
002E88  00                 [15] (12)
002E89  00                 [16] (12)
002E8A  08                 [17] (12)
002E8B  01                 [18] (12)
002E8C  00                 [19] (14)
002E8D  00                 [20] (14)
002E8E  08                 [21] (14)
002E8F  01                 [22] (15)
002E90  00                 [23] (15)
002E91  00                 [24] (15)
002E92  08                 [25] (15)
002E93  01                 [26] (15)
002E94  00                 [27] (15)
002E95  00                 [28] (15)
002E96  08                 [29] (15)
002E97  01                 [30] (17)
002E98  00                 [31] (17)
002E99  00                 [32] (21)
002E9A  08                 [33] (21)
002E9B  01                 [34] (21)
002E9C  00                 [35] (21)
002E9D  00                 [36] (21)
002E9E  08                 [37] (21)
002E9F  01                 [38] (21)
002EA0  00                 [39] (22)
                           * locals:
002F16  00                 sizelocvars (0)
                           * upvalues:
002F17  00                 sizeupvalues (0)
                           ** end of function **

                           
002F18                     ** function [8] definition (level 2)
                           ** start of function **
002F18  00                 string size (0)
                           source name: (none)
002F1A  02                 line defined (280)
002F1B  B3                 last line defined (307)
002F1C  02                 nups (6)
002F1D  06                 numparams (0)
002F1E  00                 is_vararg (0)
002F1F  00                 maxstacksize (7)
                           * code:
002F21  5D                 sizecode (93)
002F22  1D000000           [01] getglobal  0   0        ; 1074689893
002F26  53000000           [02] getupval   1   0      
002F2A  4E40C000           [03] gettable   1   1   257  ; "mSelectedElement"
002F2E  22800001           [04] call       0   2   2  
002F32  18400000           [05] test       0       1    ; to [7] if false
002F36  1A000180           [06] jmp        5            ; to [12]
002F3A  13000000           [07] getupval   0   0      
002F3E  0E404000           [08] gettable   0   0   257  ; "mSelectedElement"
002F42  0E804000           [09] gettable   0   0   258  ; "NotOwned"
002F46  18000000           [10] test       0       0    ; to [12] if true
002F4A  1A000080           [11] jmp        1            ; to [13]
002F4E  1E008000           [12] return     0   1      
002F52  13000000           [13] getupval   0   0      
002F56  0E404000           [14] gettable   0   0   257  ; "mSelectedElement"
002F5A  0EC04000           [15] gettable   0   0   259  ; "Arcane"
002F5E  53008000           [16] getupval   1   1      
002F62  4E00C100           [17] gettable   1   1   260  ; 460674431
002F66  9D400100           [18] getglobal  2   5        ; mMovie
002F6A  D3000001           [19] getupval   3   2      
002F6E  CE80C101           [20] gettable   3   3   262  ; "StoreItem"
002F72  62808001           [21] call       1   3   2  
002F76  93000000           [22] getupval   2   0      
002F7A  8E404001           [23] gettable   2   2   257  ; "mSelectedElement"
002F7E  8EC04101           [24] gettable   2   2   263  ; "IsNone"
002F82  98400000           [25] test       2       1    ; to [27] if false
002F86  1A800A80           [26] jmp        43           ; to [70]
002F8A  93000000           [27] getupval   2   0      
002F8E  8E404001           [28] gettable   2   2   257  ; "mSelectedElement"
002F92  DD000000           [29] getglobal  3   0        ; 1074689893
002F96  13010001           [30] getupval   4   2      
002F9A  0E014202           [31] gettable   4   4   264  ; "AttachedUpgrades"
002F9E  E2800001           [32] call       3   2   2  
002FA2  D8400000           [33] test       3       1    ; to [35] if false
002FA6  1A800880           [34] jmp        35           ; to [70]
002FAA  D3000001           [35] getupval   3   2      
002FAE  CE00C201           [36] gettable   3   3   264  ; "AttachedUpgrades"
002FB2  13010001           [37] getupval   4   2      
002FB6  0E414202           [38] gettable   4   4   265  ; "Slot"
002FBA  CE008101           [39] gettable   3   3   4  
002FBE  1D010000           [40] getglobal  4   0        ; 1074689893
002FC2  52018001           [41] move       5   3      
002FC6  22810001           [42] call       4   2   2  
002FCA  18410000           [43] test       4       1    ; to [45] if false
002FCE  1AC00180           [44] jmp        8            ; to [53]
002FD2  13018001           [45] getupval   4   3      
002FD6  52018001           [46] move       5   3      
002FDA  8EC14001           [47] gettable   6   2   259  ; "Arcane"
002FDE  22818001           [48] call       4   3   2  
002FE2  18010000           [49] test       4       0    ; to [51] if true
002FE6  1A400080           [50] jmp        2            ; to [53]
002FEA  06000000           [51] loadnil    0   0      
002FEE  1A000480           [52] jmp        17           ; to [70]
002FF2  0E814201           [53] gettable   4   2   266  ; "Equipped"
002FF6  18010000           [54] test       4       0    ; to [56] if true
002FFA  1A400380           [55] jmp        14           ; to [70]
002FFE  0EC14001           [56] gettable   4   2   259  ; "Arcane"
003002  0EC14202           [57] gettable   4   4   267  ; "mItemId"
003006  0E014302           [58] gettable   4   4   268  ; "mId"
fail op	35
00300A  23404302           [59] close      0  
00300E  1AC00080           [60] jmp        4            ; to [65]
003012  0EC14001           [61] gettable   4   2   259  ; "Arcane"
003016  0E814302           [62] gettable   4   4   270  ; "mItemCount"
fail op	33
00301A  21C04302           [63] tforloop   0       271  ; to [65] if exit
00301E  1A000180           [64] jmp        5            ; to [70]
003022  13010002           [65] getupval   4   4      
003026  0E014402           [66] gettable   4   4   272  ; 185724978
00302A  59410400           [67] loadk      5   17       ; "/Lotus/Language/Menu/ArcaneManager_EquippedInOtherSlot"
00302E  22410001           [68] call       4   2   1  
003032  1E008000           [69] return     0   1      
003036  1D010000           [70] getglobal  4   0        ; 1074689893
00303A  53010001           [71] getupval   5   2      
00303E  4E81C402           [72] gettable   5   5   274  ; "Callback"
003042  22810001           [73] call       4   2   2  
003046  18410000           [74] test       4       1    ; to [76] if false
00304A  1A000480           [75] jmp        17           ; to [93]
00304E  1D010000           [76] getglobal  4   0        ; 1074689893
003052  5DC10400           [77] getglobal  5   19       ; _T
003056  93010001           [78] getupval   6   2      
00305A  8E814403           [79] gettable   6   6   274  ; "Callback"
00305E  4E818102           [80] gettable   5   5   6  
003062  22810001           [81] call       4   2   2  
003066  18410000           [82] test       4       1    ; to [84] if false
00306A  1A000280           [83] jmp        9            ; to [93]
00306E  1DC10400           [84] getglobal  4   19       ; _T
003072  53010001           [85] getupval   5   2      
003076  4E81C402           [86] gettable   5   5   274  ; "Callback"
00307A  0E410102           [87] gettable   4   4   5  
00307E  57018000           [88] loadbool   5   1   0    ; true
003082  92010000           [89] move       6   0      
003086  22418001           [90] call       4   3   1  
00308A  13018002           [91] getupval   4   5      
00308E  22418000           [92] call       4   1   1  
003092  1E008000           [93] return     0   1      
                           * constants:
003096  14                 sizek (20)
003097  01                 const type 3
003098  65770E40           const [0]: (1074689893)
00309C  04                 const type 4
00309D  11                 string size (17)
00309E  6D53656C65637465+  "mSelecte"
0030A6  64456C656D656E74+  "dElement"
0030AE  00                 "\0"
                           const [1]: "mSelectedElement"
0030AF  04                 const type 4
0030B0  09                 string size (9)
0030B1  4E6F744F776E6564+  "NotOwned"
0030B9  00                 "\0"
                           const [2]: "NotOwned"
0030BA  04                 const type 4
0030BB  07                 string size (7)
0030BC  417263616E6500     "Arcane\0"
                           const [3]: "Arcane"
0030C3  01                 const type 3
0030C4  7F55751B           const [4]: (460674431)
0030C8  04                 const type 4
0030C9  07                 string size (7)
0030CA  6D4D6F76696500     "mMovie\0"
                           const [5]: "mMovie"
0030D1  04                 const type 4
0030D2  0A                 string size (10)
0030D3  53746F7265497465+  "StoreIte"
0030DB  6D00               "m\0"
                           const [6]: "StoreItem"
0030DD  04                 const type 4
0030DE  07                 string size (7)
0030DF  49734E6F6E6500     "IsNone\0"
                           const [7]: "IsNone"
0030E6  04                 const type 4
0030E7  11                 string size (17)
0030E8  4174746163686564+  "Attached"
0030F0  5570677261646573+  "Upgrades"
0030F8  00                 "\0"
                           const [8]: "AttachedUpgrades"
0030F9  04                 const type 4
0030FA  05                 string size (5)
0030FB  536C6F7400         "Slot\0"
                           const [9]: "Slot"
003100  04                 const type 4
003101  09                 string size (9)
003102  4571756970706564+  "Equipped"
00310A  00                 "\0"
                           const [10]: "Equipped"
00310B  04                 const type 4
00310C  08                 string size (8)
00310D  6D4974656D496400   "mItemId\0"
                           const [11]: "mItemId"
003115  04                 const type 4
003116  04                 string size (4)
003117  6D496400           "mId\0"
                           const [12]: "mId"
00311B  04                 const type 4
00311C  01                 string size (0)
                           const [13]: ""
00311E  04                 const type 4
00311F  0B                 string size (11)
003120  6D4974656D436F75+  "mItemCou"
003128  6E7400             "nt\0"
                           const [14]: "mItemCount"
00312B  03                 const type 3
00312C  0000803F           const [15]: (0)
003130  01                 const type 3
003131  32F0110B           const [16]: (185724978)
003135  04                 const type 4
003136  37                 string size (55)
003137  2F4C6F7475732F4C+  "/Lotus/L"
00313F  616E67756167652F+  "anguage/"
003147  4D656E752F417263+  "Menu/Arc"
00314F  616E654D616E6167+  "aneManag"
003157  65725F4571756970+  "er_Equip"
00315F  706564496E4F7468+  "pedInOth"
003167  6572536C6F7400     "erSlot\0"
                           const [17]: "/Lotus/Language/Menu/ArcaneManager_EquippedInOtherSlot"
00316E  04                 const type 4
00316F  09                 string size (9)
003170  43616C6C6261636B+  "Callback"
003178  00                 "\0"
                           const [18]: "Callback"
003179  04                 const type 4
00317A  03                 string size (3)
00317B  5F5400             "_T\0"
                           const [19]: "_T"
                           * functions:
00317E  00                 sizep (0)
                           * lines:
00317F  5D                 sizelineinfo (93)
                           [pc] (line)
003180  19                 [01] (25)
003181  01                 [02] (25)
003182  00                 [03] (25)
003183  00                 [04] (25)
003184  19                 [05] (25)
003185  01                 [06] (25)
003186  00                 [07] (25)
003187  00                 [08] (25)
003188  19                 [09] (25)
003189  01                 [10] (25)
00318A  00                 [11] (25)
00318B  00                 [12] (26)
00318C  19                 [13] (29)
00318D  01                 [14] (29)
00318E  00                 [15] (29)
00318F  00                 [16] (30)
003190  19                 [17] (30)
003191  01                 [18] (30)
003192  00                 [19] (30)
003193  00                 [20] (30)
003194  19                 [21] (30)
003195  01                 [22] (31)
003196  00                 [23] (31)
003197  00                 [24] (31)
003198  19                 [25] (31)
003199  01                 [26] (31)
00319A  00                 [27] (32)
00319B  00                 [28] (32)
00319C  19                 [29] (33)
00319D  01                 [30] (33)
00319E  00                 [31] (33)
00319F  00                 [32] (33)
0031A0  19                 [33] (33)
0031A1  01                 [34] (33)
0031A2  00                 [35] (34)
0031A3  00                 [36] (34)
0031A4  19                 [37] (34)
0031A5  01                 [38] (34)
0031A6  00                 [39] (34)
0031A7  00                 [40] (35)
0031A8  19                 [41] (35)
0031A9  01                 [42] (35)
0031AA  00                 [43] (35)
0031AB  00                 [44] (35)
0031AC  1A                 [45] (35)
0031AD  01                 [46] (35)
0031AE  00                 [47] (35)
0031AF  00                 [48] (35)
0031B0  1D                 [49] (35)
0031B1  01                 [50] (35)
0031B2  00                 [51] (36)
0031B3  00                 [52] (36)
0031B4  1D                 [53] (37)
0031B5  01                 [54] (37)
0031B6  00                 [55] (37)
0031B7  00                 [56] (37)
0031B8  1D                 [57] (37)
0031B9  01                 [58] (37)
0031BA  00                 [59] (37)
0031BB  00                 [60] (37)
0031BC  1E                 [61] (37)
0031BD  01                 [62] (37)
0031BE  00                 [63] (37)
0031BF  00                 [64] (37)
0031C0  1E                 [65] (39)
0031C1  01                 [66] (39)
0031C2  00                 [67] (39)
0031C3  00                 [68] (39)
0031C4  1E                 [69] (41)
0031C5  01                 [70] (46)
0031C6  00                 [71] (46)
0031C7  00                 [72] (46)
0031C8  1E                 [73] (46)
0031C9  01                 [74] (46)
0031CA  00                 [75] (46)
0031CB  00                 [76] (46)
0031CC  1E                 [77] (46)
0031CD  01                 [78] (46)
0031CE  00                 [79] (46)
0031CF  00                 [80] (46)
0031D0  1E                 [81] (46)
0031D1  01                 [82] (46)
0031D2  00                 [83] (46)
0031D3  00                 [84] (47)
0031D4  1F                 [85] (47)
0031D5  01                 [86] (47)
0031D6  00                 [87] (47)
0031D7  00                 [88] (47)
0031D8  1F                 [89] (47)
0031D9  01                 [90] (47)
0031DA  00                 [91] (49)
0031DB  00                 [92] (49)
0031DC  1F                 [93] (51)
                           * locals:
0032F4  00                 sizelocvars (0)
                           * upvalues:
0032F5  00                 sizeupvalues (0)
                           ** end of function **

                           
0032F6                     ** function [9] definition (level 2)
                           ** start of function **
0032F6  00                 string size (0)
                           source name: (none)
0032F8  02                 line defined (309)
0032F9  B7                 last line defined (311)
0032FA  02                 nups (1)
0032FB  01                 numparams (0)
0032FC  00                 is_vararg (0)
0032FD  00                 maxstacksize (2)
                           * code:
0032FF  03                 sizecode (3)
003300  13000000           [1] getupval   0   0      
003304  22408000           [2] call       0   1   1  
003308  1E008000           [3] return     0   1      
                           * constants:
00330C  00                 sizek (0)
                           * functions:
00330D  00                 sizep (0)
                           * lines:
00330E  03                 sizelineinfo (3)
                           [pc] (line)
00330F  36                 [1] (54)
003310  01                 [2] (54)
003311  00                 [3] (55)
                           * locals:
00331B  00                 sizelocvars (0)
                           * upvalues:
00331C  00                 sizeupvalues (0)
                           ** end of function **

                           
00331D                     ** function [10] definition (level 2)
                           ** start of function **
00331D  00                 string size (0)
                           source name: (none)
00331F  02                 line defined (313)
003320  CD                 last line defined (333)
003321  02                 nups (4)
003322  04                 numparams (0)
003323  00                 is_vararg (0)
003324  00                 maxstacksize (7)
                           * code:
003326  53                 sizecode (83)
003327  0B000000           [01] newtable   0   0   0    ; array=0, hash=0
fail op	8
00332B  08000000           [02] setupval   0   0      
00332F  13008000           [03] getupval   0   1      
003333  0E004000           [04] gettable   0   0   256  ; "Active"
003337  18000000           [05] test       0       0    ; to [7] if true
00333B  1A000D80           [06] jmp        53           ; to [60]
00333F  13000001           [07] getupval   0   2      
fail op	35
003343  63404000           [08] close      1  
003347  1A400C80           [09] jmp        50           ; to [60]
00334B  13000001           [10] getupval   0   2      
00334F  0E804000           [11] gettable   0   0   258  ; "mSelectedElement"
fail op	35
003353  63404000           [12] close      1  
003357  1A400B80           [13] jmp        46           ; to [60]
00335B  13000001           [14] getupval   0   2      
00335F  0E804000           [15] gettable   0   0   258  ; "mSelectedElement"
003363  0EC04000           [16] gettable   0   0   259  ; "NotOwned"
003367  18400000           [17] test       0       1    ; to [19] if false
00336B  1A000A80           [18] jmp        41           ; to [60]
00336F  19000100           [19] loadk      0   4        ; "/Lotus/Language/Menu/ItemSelection_Equip"
003373  46008000           [20] loadnil    1   1      
003377  9D400100           [21] getglobal  2   5        ; 1074689893
00337B  D3008000           [22] getupval   3   1      
00337F  CE80C101           [23] gettable   3   3   262  ; "AttachedUpgrades"
003383  A2800001           [24] call       2   2   2  
003387  98400000           [25] test       2       1    ; to [27] if false
00338B  1A000180           [26] jmp        5            ; to [32]
00338F  93008000           [27] getupval   2   1      
003393  8E804101           [28] gettable   2   2   262  ; "AttachedUpgrades"
003397  D3008000           [29] getupval   3   1      
00339B  CEC0C101           [30] gettable   3   3   263  ; "Slot"
00339F  4EC00001           [31] gettable   1   2   3  
0033A3  93000001           [32] getupval   2   2      
0033A7  8E804001           [33] gettable   2   2   258  ; "mSelectedElement"
0033AB  8E004201           [34] gettable   2   2   264  ; "IsNone"
0033AF  98400000           [35] test       2       1    ; to [37] if false
0033B3  1A000380           [36] jmp        13           ; to [50]
0033B7  9D400100           [37] getglobal  2   5        ; 1074689893
0033BB  D2008000           [38] move       3   1      
0033BF  A2800001           [39] call       2   2   2  
0033C3  98400000           [40] test       2       1    ; to [42] if false
0033C7  1A000280           [41] jmp        9            ; to [51]
0033CB  93008001           [42] getupval   2   3      
0033CF  D2008000           [43] move       3   1      
0033D3  13010001           [44] getupval   4   2      
0033D7  0E814002           [45] gettable   4   4   258  ; "mSelectedElement"
0033DB  0E414202           [46] gettable   4   4   265  ; "Arcane"
0033DF  A2808001           [47] call       2   3   2  
0033E3  98000000           [48] test       2       0    ; to [50] if true
0033E7  1A000080           [49] jmp        1            ; to [51]
0033EB  19800200           [50] loadk      0   10       ; "/Lotus/Language/Menu/ItemSelection_Unequip"
0033EF  9DC00200           [51] getglobal  2   11       ; table
0033F3  8E004301           [52] gettable   2   2   268  ; -431682403
0033F7  D3000000           [53] getupval   3   0      
0033FB  0BC10000           [54] newtable   4   0   3    ; array=0, hash=3
0033FF  0C018086           [55] settable   4   269 0    ; "Label"
003403  65010000           [56] closure    5   0      
003407  0C410187           [57] settable   4   270 5    ; "CallBack"
00340B  0C01C487           [58] settable   4   271 272  ; "CallOut" "MENU_SELECT"
00340F  A2408001           [59] call       2   3   1  
003413  9DC00200           [60] getglobal  2   11       ; table
003417  8E004301           [61] gettable   2   2   268  ; -431682403
00341B  D3000000           [62] getupval   3   0      
00341F  0BC10000           [63] newtable   4   0   3    ; array=0, hash=3
003423  0C41C486           [64] settable   4   269 273  ; "Label" "/Lotus/Language/Menu/Exit"
003427  65410000           [65] closure    5   1      
00342B  0C410187           [66] settable   4   270 5    ; "CallBack"
00342F  0C81C487           [67] settable   4   271 274  ; "CallOut" "MENU_CANCEL"
003433  A2408001           [68] call       2   3   1  
003437  9D400100           [69] getglobal  2   5        ; 1074689893
00343B  DDC00400           [70] getglobal  3   19       ; _T
00343F  CE00C501           [71] gettable   3   3   276  ; "SetButtons"
003443  A2800001           [72] call       2   2   2  
003447  98400000           [73] test       2       1    ; to [75] if false
00344B  1AC00180           [74] jmp        8            ; to [83]
00344F  9DC00400           [75] getglobal  2   19       ; _T
003453  8E404501           [76] gettable   2   2   277  ; -270549122
003457  DD800500           [77] getglobal  3   22       ; mMovie
00345B  13010000           [78] getupval   4   0      
00345F  5DC10500           [79] getglobal  5   23       ; 1802065273
003463  99010600           [80] loadk      6   24       ; 0
003467  62010001           [81] call       5   2   0  
00346B  A2400000           [82] call       2   0   1  
00346F  1E008000           [83] return     0   1      
                           * constants:
003473  19                 sizek (25)
003474  04                 const type 4
003475  07                 string size (7)
003476  41637469766500     "Active\0"
                           const [0]: "Active"
00347D  00                 const type 0
                           const [1]: nil
00347E  04                 const type 4
00347F  11                 string size (17)
003480  6D53656C65637465+  "mSelecte"
003488  64456C656D656E74+  "dElement"
003490  00                 "\0"
                           const [2]: "mSelectedElement"
003491  04                 const type 4
003492  09                 string size (9)
003493  4E6F744F776E6564+  "NotOwned"
00349B  00                 "\0"
                           const [3]: "NotOwned"
00349C  04                 const type 4
00349D  29                 string size (41)
00349E  2F4C6F7475732F4C+  "/Lotus/L"
0034A6  616E67756167652F+  "anguage/"
0034AE  4D656E752F497465+  "Menu/Ite"
0034B6  6D53656C65637469+  "mSelecti"
0034BE  6F6E5F4571756970+  "on_Equip"
0034C6  00                 "\0"
                           const [4]: "/Lotus/Language/Menu/ItemSelection_Equip"
0034C7  01                 const type 3
0034C8  65770E40           const [5]: (1074689893)
0034CC  04                 const type 4
0034CD  11                 string size (17)
0034CE  4174746163686564+  "Attached"
0034D6  5570677261646573+  "Upgrades"
0034DE  00                 "\0"
                           const [6]: "AttachedUpgrades"
0034DF  04                 const type 4
0034E0  05                 string size (5)
0034E1  536C6F7400         "Slot\0"
                           const [7]: "Slot"
0034E6  04                 const type 4
0034E7  07                 string size (7)
0034E8  49734E6F6E6500     "IsNone\0"
                           const [8]: "IsNone"
0034EF  04                 const type 4
0034F0  07                 string size (7)
0034F1  417263616E6500     "Arcane\0"
                           const [9]: "Arcane"
0034F8  04                 const type 4
0034F9  2B                 string size (43)
0034FA  2F4C6F7475732F4C+  "/Lotus/L"
003502  616E67756167652F+  "anguage/"
00350A  4D656E752F497465+  "Menu/Ite"
003512  6D53656C65637469+  "mSelecti"
00351A  6F6E5F556E657175+  "on_Unequ"
003522  697000             "ip\0"
                           const [10]: "/Lotus/Language/Menu/ItemSelection_Unequip"
003525  04                 const type 4
003526  06                 string size (6)
003527  7461626C6500       "table\0"
                           const [11]: "table"
00352D  01                 const type 3
00352E  9D0C45E6           const [12]: (-431682403)
003532  04                 const type 4
003533  06                 string size (6)
003534  4C6162656C00       "Label\0"
                           const [13]: "Label"
00353A  04                 const type 4
00353B  09                 string size (9)
00353C  43616C6C4261636B+  "CallBack"
003544  00                 "\0"
                           const [14]: "CallBack"
003545  04                 const type 4
003546  08                 string size (8)
003547  43616C6C4F757400   "CallOut\0"
                           const [15]: "CallOut"
00354F  04                 const type 4
003550  0C                 string size (12)
003551  4D454E555F53454C+  "MENU_SEL"
003559  45435400           "ECT\0"
                           const [16]: "MENU_SELECT"
00355D  04                 const type 4
00355E  1A                 string size (26)
00355F  2F4C6F7475732F4C+  "/Lotus/L"
003567  616E67756167652F+  "anguage/"
00356F  4D656E752F457869+  "Menu/Exi"
003577  7400               "t\0"
                           const [17]: "/Lotus/Language/Menu/Exit"
003579  04                 const type 4
00357A  0C                 string size (12)
00357B  4D454E555F43414E+  "MENU_CAN"
003583  43454C00           "CEL\0"
                           const [18]: "MENU_CANCEL"
003587  04                 const type 4
003588  03                 string size (3)
003589  5F5400             "_T\0"
                           const [19]: "_T"
00358C  04                 const type 4
00358D  0B                 string size (11)
00358E  536574427574746F+  "SetButto"
003596  6E7300             "ns\0"
                           const [20]: "SetButtons"
003599  01                 const type 3
00359A  7EBFDFEF           const [21]: (-270549122)
00359E  04                 const type 4
00359F  07                 string size (7)
0035A0  6D4D6F76696500     "mMovie\0"
                           const [22]: "mMovie"
0035A7  01                 const type 3
0035A8  7955696B           const [23]: (1802065273)
0035AC  03                 const type 3
0035AD  0000803F           const [24]: (0)
                           * functions:
0035B1  02                 sizep (2)
                           
0035B2                     ** function [0] definition (level 3)
                           ** start of function **
0035B2  00                 string size (0)
                           source name: (none)
0035B4  02                 line defined (325)
0035B5  C5                 last line defined (325)
0035B6  02                 nups (0)
0035B7  00                 numparams (0)
0035B8  00                 is_vararg (0)
0035B9  00                 maxstacksize (4)
                           * code:
0035BB  06                 sizecode (6)
0035BC  1D000000           [1] getglobal  0   0        ; mMovie
0035C0  24404000           [2] self       0   0   257  ; 1167009705
0035C4  99800000           [3] loadk      2   2        ; "EquipArcane"
0035C8  D9C00000           [4] loadk      3   3        ; ""
0035CC  22400002           [5] call       0   4   1  
0035D0  1E008000           [6] return     0   1      
                           * constants:
0035D4  04                 sizek (4)
0035D5  04                 const type 4
0035D6  07                 string size (7)
0035D7  6D4D6F76696500     "mMovie\0"
                           const [0]: "mMovie"
0035DE  01                 const type 3
0035DF  A9278F45           const [1]: (1167009705)
0035E3  04                 const type 4
0035E4  0C                 string size (12)
0035E5  4571756970417263+  "EquipArc"
0035ED  616E6500           "ane\0"
                           const [2]: "EquipArcane"
0035F1  04                 const type 4
0035F2  01                 string size (0)
                           const [3]: ""
                           * functions:
0035F4  00                 sizep (0)
                           * lines:
0035F5  06                 sizelineinfo (6)
                           [pc] (line)
0035F6  45                 [1] (69)
0035F7  01                 [2] (69)
0035F8  00                 [3] (69)
0035F9  00                 [4] (69)
0035FA  45                 [5] (69)
0035FB  01                 [6] (69)
                           * locals:
00360E  00                 sizelocvars (0)
                           * upvalues:
00360F  00                 sizeupvalues (0)
                           ** end of function **

                           
003610                     ** function [1] definition (level 3)
                           ** start of function **
003610  00                 string size (0)
                           source name: (none)
003612  02                 line defined (328)
003613  C8                 last line defined (328)
003614  02                 nups (0)
003615  00                 numparams (0)
003616  00                 is_vararg (0)
003617  00                 maxstacksize (4)
                           * code:
003619  06                 sizecode (6)
00361A  1D000000           [1] getglobal  0   0        ; mMovie
00361E  24404000           [2] self       0   0   257  ; 1167009705
003622  99800000           [3] loadk      2   2        ; "Close"
003626  D9C00000           [4] loadk      3   3        ; ""
00362A  22400002           [5] call       0   4   1  
00362E  1E008000           [6] return     0   1      
                           * constants:
003632  04                 sizek (4)
003633  04                 const type 4
003634  07                 string size (7)
003635  6D4D6F76696500     "mMovie\0"
                           const [0]: "mMovie"
00363C  01                 const type 3
00363D  A9278F45           const [1]: (1167009705)
003641  04                 const type 4
003642  06                 string size (6)
003643  436C6F736500       "Close\0"
                           const [2]: "Close"
003649  04                 const type 4
00364A  01                 string size (0)
                           const [3]: ""
                           * functions:
00364C  00                 sizep (0)
                           * lines:
00364D  06                 sizelineinfo (6)
                           [pc] (line)
00364E  48                 [1] (72)
00364F  01                 [2] (72)
003650  00                 [3] (72)
003651  00                 [4] (72)
003652  48                 [5] (72)
003653  01                 [6] (72)
                           * locals:
003666  00                 sizelocvars (0)
                           * upvalues:
003667  00                 sizeupvalues (0)
                           ** end of function **

                           * lines:
003668  53                 sizelineinfo (83)
                           [pc] (line)
003669  3A                 [01] (58)
00366A  01                 [02] (58)
00366B  00                 [03] (60)
00366C  00                 [04] (60)
00366D  3A                 [05] (60)
00366E  01                 [06] (60)
00366F  00                 [07] (60)
003670  00                 [08] (60)
003671  3C                 [09] (60)
003672  01                 [10] (60)
003673  00                 [11] (60)
003674  00                 [12] (60)
003675  3C                 [13] (60)
003676  01                 [14] (60)
003677  00                 [15] (60)
003678  00                 [16] (60)
003679  3C                 [17] (60)
00367A  01                 [18] (60)
00367B  00                 [19] (61)
00367C  00                 [20] (62)
00367D  3C                 [21] (63)
00367E  01                 [22] (63)
00367F  00                 [23] (63)
003680  00                 [24] (63)
003681  3C                 [25] (63)
003682  01                 [26] (63)
003683  00                 [27] (64)
003684  00                 [28] (64)
003685  3C                 [29] (64)
003686  01                 [30] (64)
003687  00                 [31] (64)
003688  00                 [32] (66)
003689  3C                 [33] (66)
00368A  01                 [34] (66)
00368B  00                 [35] (66)
00368C  00                 [36] (66)
00368D  3C                 [37] (66)
00368E  01                 [38] (66)
00368F  00                 [39] (66)
003690  00                 [40] (66)
003691  3C                 [41] (66)
003692  01                 [42] (66)
003693  00                 [43] (66)
003694  00                 [44] (66)
003695  3C                 [45] (66)
003696  01                 [46] (66)
003697  00                 [47] (66)
003698  00                 [48] (66)
003699  3C                 [49] (66)
00369A  01                 [50] (67)
00369B  00                 [51] (69)
00369C  00                 [52] (69)
00369D  3C                 [53] (69)
00369E  01                 [54] (69)
00369F  00                 [55] (69)
0036A0  00                 [56] (69)
0036A1  3C                 [57] (69)
0036A2  01                 [58] (69)
0036A3  00                 [59] (69)
0036A4  00                 [60] (72)
0036A5  3C                 [61] (72)
0036A6  01                 [62] (72)
0036A7  00                 [63] (72)
0036A8  00                 [64] (72)
0036A9  3C                 [65] (72)
0036AA  01                 [66] (72)
0036AB  00                 [67] (72)
0036AC  00                 [68] (72)
0036AD  3C                 [69] (74)
0036AE  01                 [70] (74)
0036AF  00                 [71] (74)
0036B0  00                 [72] (74)
0036B1  3D                 [73] (74)
0036B2  01                 [74] (74)
0036B3  00                 [75] (75)
0036B4  00                 [76] (75)
0036B5  3E                 [77] (75)
0036B6  01                 [78] (75)
0036B7  00                 [79] (75)
0036B8  00                 [80] (75)
0036B9  3F                 [81] (75)
0036BA  01                 [82] (75)
0036BB  00                 [83] (77)
                           * locals:
0037B5  00                 sizelocvars (0)
                           * upvalues:
0037B6  00                 sizeupvalues (0)
                           ** end of function **

                           
0037B7                     ** function [11] definition (level 2)
                           ** start of function **
0037B7  00                 string size (0)
                           source name: (none)
0037B9  02                 line defined (335)
0037BA  93                 last line defined (531)
0037BB  04                 nups (9)
0037BC  09                 numparams (2)
0037BD  02                 is_vararg (0)
0037BE  00                 maxstacksize (60)
                           * code:
0037C1  02                 sizecode (346)
0037C2  93000000           [001] getupval   2   0      
0037C6  8C404080           [002] settable   2   256 257  ; "mPrevSelectedId" nil
0037CA  93000000           [003] getupval   2   0      
0037CE  A4804001           [004] self       2   2   258  ; 2096569603
0037D2  17018000           [005] loadbool   4   1   0    ; true
0037D6  57018000           [006] loadbool   5   1   0    ; true
0037DA  A2400002           [007] call       2   4   1  
0037DE  9DC00000           [008] getglobal  2   3        ; 1074689893
0037E2  DD000100           [009] getglobal  3   4        ; gGameData
0037E6  A2800001           [010] call       2   2   2  
0037EA  98400000           [011] test       2       1    ; to [13] if false
0037EE  1A000180           [012] jmp        5            ; to [18]
0037F2  9DC00000           [013] getglobal  2   3        ; 1074689893
0037F6  D3008000           [014] getupval   3   1      
0037FA  A2800001           [015] call       2   2   2  
0037FE  98000000           [016] test       2       0    ; to [18] if true
003802  1A000080           [017] jmp        1            ; to [19]
003806  1E008000           [018] return     0   1      
00380A  9D000100           [019] getglobal  2   4        ; gGameData
00380E  A4404101           [020] self       2   2   261  ; 1865287165
003812  A2800001           [021] call       2   2   2  
003816  DDC00000           [022] getglobal  3   3        ; 1074689893
00381A  12010001           [023] move       4   2      
00381E  E2800001           [024] call       3   2   2  
003822  D8000000           [025] test       3       0    ; to [27] if true
003826  1A400180           [026] jmp        6            ; to [33]
00382A  DD800100           [027] getglobal  3   6        ; -1817107093
00382E  19C10100           [028] loadk      4   7        ; "ERROR: No inventory!"
003832  E2400001           [029] call       3   2   1  
003836  DD000200           [030] getglobal  3   8        ; 317968122
00383A  17010000           [031] loadbool   4   0   0    ; false
00383E  E2400001           [032] call       3   2   1  
003842  CB000000           [033] newtable   3   0   0    ; array=0, hash=0
003846  13010000           [034] getupval   4   0      
00384A  0C41C084           [035] settable   4   265 257  ; "mCurrArcane" nil
00384E  13010001           [036] getupval   4   2      
003852  0E814202           [037] gettable   4   4   266  ; "Active"
003856  18010000           [038] test       4       0    ; to [40] if true
00385A  1A800B80           [039] jmp        47           ; to [87]
00385E  1DC10000           [040] getglobal  4   3        ; 1074689893
003862  53010001           [041] getupval   5   2      
003866  4EC1C202           [042] gettable   5   5   267  ; "AttachedUpgrades"
00386A  22810001           [043] call       4   2   2  
00386E  18410000           [044] test       4       1    ; to [46] if false
003872  1A000A80           [045] jmp        41           ; to [87]
003876  13010000           [046] getupval   4   0      
00387A  53010001           [047] getupval   5   2      
00387E  4EC1C202           [048] gettable   5   5   267  ; "AttachedUpgrades"
003882  93010001           [049] getupval   6   2      
003886  8E014303           [050] gettable   6   6   268  ; "Slot"
00388A  4E818102           [051] gettable   5   5   6  
00388E  0C418184           [052] settable   4   265 5    ; "mCurrArcane"
003892  1DC10000           [053] getglobal  4   3        ; 1074689893
003896  53010000           [054] getupval   5   0      
00389A  4E41C202           [055] gettable   5   5   265  ; "mCurrArcane"
00389E  22810001           [056] call       4   2   2  
0038A2  18410000           [057] test       4       1    ; to [59] if false
0038A6  1AC00680           [058] jmp        28           ; to [87]
0038AA  1DC10000           [059] getglobal  4   3        ; 1074689893
0038AE  53010000           [060] getupval   5   0      
0038B2  4E41C202           [061] gettable   5   5   265  ; "mCurrArcane"
0038B6  4E41C302           [062] gettable   5   5   269  ; "mItemType"
0038BA  22810001           [063] call       4   2   2  
0038BE  18010000           [064] test       4       0    ; to [66] if true
0038C2  1A400180           [065] jmp        6            ; to [72]
0038C6  13010000           [066] getupval   4   0      
0038CA  0E414202           [067] gettable   4   4   265  ; "mCurrArcane"
0038CE  0E814302           [068] gettable   4   4   270  ; "mItemId"
0038D2  0EC14302           [069] gettable   4   4   271  ; "mId"
fail op	35
0038D6  63004402           [070] close      1  
0038DA  1A800380           [071] jmp        15           ; to [87]
0038DE  1D410400           [072] getglobal  4   17       ; table
0038E2  0E814402           [073] gettable   4   4   274  ; -431682403
0038E6  52018001           [074] move       5   3      
0038EA  8B410100           [075] newtable   6   0   5    ; array=0, hash=5
0038EE  8C01C589           [076] settable   6   275 276  ; "IsNone" 1
0038F2  8C01C48A           [077] settable   6   277 272  ; "SearchTerm" ""
0038F6  DDC10500           [078] getglobal  7   23       ; emptySlotIcon
0038FA  8CC1018B           [079] settable   6   278 7    ; "Icon"
0038FE  8C01458C           [080] settable   6   280 276  ; "Themed" 1
003902  DD810600           [081] getglobal  7   26       ; -421772368
003906  19C20600           [082] loadk      8   27       ; "/Lotus/Language/Menu/ArcaneManager_NoArcane"
00390A  4B020000           [083] newtable   9   0   0    ; array=0, hash=0
00390E  E2818001           [084] call       7   3   2  
003912  8CC1818C           [085] settable   6   281 7    ; "Name"
003916  22418001           [086] call       4   3   1  
00391A  0B018002           [087] newtable   4   5   0    ; array=5, hash=0
00391E  4B810000           [088] newtable   5   0   2    ; array=0, hash=2
003922  9D410700           [089] getglobal  6   29       ; 738251817
003926  D9810700           [090] loadk      7   30       ; "/Lotus/Types/Game/WarframeCosmeticEnhancer"
00392A  A2810001           [091] call       6   2   2  
00392E  4C81018E           [092] settable   5   284 6    ; "Type"
003932  4C01C88F           [093] settable   5   287 288  ; "Label" "/Lotus/Language/Items/Warframe"
003936  8B810000           [094] newtable   6   0   2    ; array=0, hash=2
00393A  DD410700           [095] getglobal  7   29       ; 738251817
00393E  19420800           [096] loadk      8   33       ; "/Lotus/Types/Game/OperatorCosmeticEnhancer"
003942  E2810001           [097] call       7   2   2  
003946  8CC1018E           [098] settable   6   284 7    ; "Type"
00394A  8C81C88F           [099] settable   6   287 290  ; "Label" "/Lotus/Language/Menu/MenuOperator"
00394E  CB810000           [100] newtable   7   0   2    ; array=0, hash=2
003952  1D420700           [101] getglobal  8   29       ; 738251817
003956  59C20800           [102] loadk      9   35       ; "/Lotus/Types/Game/OperatorAmpCosmeticEnhancer"
00395A  22820001           [103] call       8   2   2  
00395E  CC01028E           [104] settable   7   284 8    ; "Type"
003962  CC01C98F           [105] settable   7   287 292  ; "Label" "/Lotus/Language/Menu/TennoCustomization_Amp"
003966  0B820000           [106] newtable   8   0   2    ; array=0, hash=2
00396A  5D420700           [107] getglobal  9   29       ; 738251817
00396E  99420900           [108] loadk      10  37       ; "/Lotus/Types/Game/ModularWeaponCosmeticEnhancer"
003972  62820001           [109] call       9   2   2  
003976  0C42028E           [110] settable   8   284 9    ; "Type"
00397A  0C82C98F           [111] settable   8   287 294  ; "Label" "/Lotus/Language/Weapons/LotusModularWeaponName"
00397E  4B820000           [112] newtable   9   0   2    ; array=0, hash=2
003982  9D420700           [113] getglobal  10  29       ; 738251817
003986  D9C20900           [114] loadk      11  39       ; "/Lotus/Types/Game/ModularGunCosmeticEnhancer"
00398A  A2820001           [115] call       10  2   2  
00398E  4C82028E           [116] settable   9   284 10   ; "Type"
003992  4C02CA8F           [117] settable   9   287 296  ; "Label" "/Lotus/Language/Menu/Category_GUNS"
003996  1B418002           [118] setlist    4   5   1    ; index 1 to 5
00399A  4B010000           [119] newtable   5   0   0    ; array=0, hash=0
00399E  93018001           [120] getupval   6   3      
0039A2  A4414A03           [121] self       6   6   297  ; -197376006
0039A6  A2810001           [122] call       6   2   2  
0039AA  D9810A00           [123] loadk      7   42       ; 0
0039AE  0A020003           [124] len        8   6      
0039B2  59820A00           [125] loadk      9   42       ; 0
0039B6  D0C10280           [126] forprep    7   12       ; to [139]
0039BA  CE820203           [127] gettable   11  6   10 
0039BE  CEC2CA05           [128] gettable   11  11  299  ; "tag"
0039C2  E402CB05           [129] self       11  11  300  ; 1590141906
0039C6  E2820001           [130] call       11  2   2  
fail op	35
0039CA  2340CB05           [131] close      0  
0039CE  1A400180           [132] jmp        6            ; to [139]
0039D2  D3028001           [133] getupval   11  3      
0039D6  E482CB05           [134] self       11  11  302  ; 700550466
0039DA  4E830203           [135] gettable   13  6   10 
0039DE  E2828001           [136] call       11  3   2  
0039E2  52018005           [137] move       5   11     
0039E6  1A000080           [138] jmp        1            ; to [140]
0039EA  D481FC7F           [139] forloop    7   -13      ; to [127] if loop
0039EE  E4C24B01           [140] self       11  2   303  ; -2049652196
0039F2  E2820001           [141] call       11  2   2  
0039F6  24034C01           [142] self       12  2   304  ; 104901246
0039FA  22830001           [143] call       12  2   2  
0039FE  4B030000           [144] newtable   13  0   0    ; array=0, hash=0
003A02  9D430C00           [145] getglobal  14  49       ; 1672515847
003A06  D2038005           [146] move       15  11     
003A0A  A2030101           [147] call       14  2   4  
003A0E  1A400380           [148] jmp        14           ; to [163]
003A12  CE844C09           [149] gettable   19  18  306  ; "mItemCount"
fail op	21
003A16  15C08499           [150] concat     0   307 19 
003A1A  1A800280           [151] jmp        11           ; to [163]
003A1E  CE444309           [152] gettable   19  18  269  ; "mItemType"
003A22  E404CD09           [153] self       19  19  308  ; -1957065004
003A26  53050002           [154] getupval   21  4      
003A2A  E2848001           [155] call       19  3   2  
003A2E  D8040000           [156] test       19      0    ; to [158] if true
003A32  1A000180           [157] jmp        5            ; to [163]
003A36  DD440400           [158] getglobal  19  17       ; table
003A3A  CE84C409           [159] gettable   19  19  274  ; -431682403
003A3E  12058006           [160] move       20  13     
003A42  52050009           [161] move       21  18     
003A46  E2448001           [162] call       19  3   1  
003A4A  96830000           [163] tforloop   14      2    ; to [165] if exit
003A4E  1AC0FB7F           [164] jmp        -16          ; to [149]
003A52  DD440C00           [165] getglobal  19  49       ; 1672515847
003A56  12050006           [166] move       20  12     
003A5A  E2040101           [167] call       19  2   4  
003A5E  1A400380           [168] jmp        14           ; to [183]
003A62  0E86CC0B           [169] gettable   24  23  306  ; "mItemCount"
fail op	21
003A66  15008699           [170] concat     0   307 24 
003A6A  1A800280           [171] jmp        11           ; to [183]
003A6E  0E46C30B           [172] gettable   24  23  269  ; "mItemType"
003A72  24064D0C           [173] self       24  24  308  ; -1957065004
003A76  93060002           [174] getupval   26  4      
003A7A  22868001           [175] call       24  3   2  
003A7E  18060000           [176] test       24      0    ; to [178] if true
003A82  1A000180           [177] jmp        5            ; to [183]
003A86  1D460400           [178] getglobal  24  17       ; table
003A8A  0E86440C           [179] gettable   24  24  274  ; -431682403
003A8E  52068006           [180] move       25  13     
003A92  9206800B           [181] move       26  23     
003A96  22468001           [182] call       24  3   1  
003A9A  D6840000           [183] tforloop   19      2    ; to [185] if exit
003A9E  1AC0FB7F           [184] jmp        -16          ; to [169]
003AA2  25060000           [185] closure    24  0      
003AA6  13000001           [186] getupval   0   2      
003AAA  13008002           [187] getupval   0   5      
003AAE  12000002           [188] move       0   4      
003AB2  13000003           [189] getupval   0   6      
003AB6  13008003           [190] getupval   0   7      
003ABA  13000004           [191] getupval   0   8      
003ABE  12008001           [192] move       0   3      
003AC2  12000000           [193] move       0   0      
003AC6  13000000           [194] getupval   0   0      
003ACA  5D460C00           [195] getglobal  25  49       ; 1672515847
003ACE  92068002           [196] move       26  5      
003AD2  62060101           [197] call       25  2   4  
003AD6  1A001180           [198] jmp        69           ; to [268]
003ADA  9D470D00           [199] getglobal  30  53       ; 469076166
003ADE  D9C70C00           [200] loadk      31  51       ; 0
003AE2  A2470001           [201] call       30  2   1  
003AE6  8E87CD0E           [202] gettable   30  29  310  ; "type"
003AEA  A4074D0F           [203] self       30  30  308  ; -1957065004
003AEE  13080002           [204] getupval   32  4      
003AF2  A2878001           [205] call       30  3   2  
003AF6  98070000           [206] test       30      0    ; to [208] if true
003AFA  1AC00E80           [207] jmp        60           ; to [268]
003AFE  93078000           [208] getupval   30  1      
003B02  A4C74D0F           [209] self       30  30  311  ; 1660666296
003B06  0E88CD0E           [210] gettable   32  29  310  ; "type"
003B0A  A2878001           [211] call       30  3   2  
003B0E  DDC70000           [212] getglobal  31  3        ; 1074689893
003B12  1208000F           [213] move       32  30     
003B16  E2870001           [214] call       31  2   2  
003B1A  D8470000           [215] test       31      1    ; to [217] if false
003B1E  1A800C80           [216] jmp        51           ; to [268]
003B22  E4074E0F           [217] self       31  30  312  ; -1897280249
003B26  E2870001           [218] call       31  2   2  
003B2A  24484E0F           [219] self       32  30  313  ; 813153904
003B2E  22880001           [220] call       32  2   2  
003B32  4B080000           [221] newtable   33  0   0    ; array=0, hash=0
003B36  D8470000           [222] test       31      1    ; to [224] if false
003B3A  1AC00380           [223] jmp        16           ; to [240]
003B3E  9D880E00           [224] getglobal  34  58       ; 248503575
003B42  D2088006           [225] move       35  13     
003B46  A2080101           [226] call       34  2   4  
003B4A  1A400280           [227] jmp        10           ; to [238]
003B4E  CE494313           [228] gettable   39  38  269  ; "mItemType"
fail op	35
003B52  23008813           [229] close      0  
003B56  1A800180           [230] jmp        7            ; to [238]
003B5A  D7078000           [231] loadbool   31  1   0    ; true
003B5E  DD490400           [232] getglobal  39  17       ; table
003B62  CE89C413           [233] gettable   39  39  274  ; -431682403
003B66  120A8010           [234] move       40  33     
003B6A  520A0013           [235] move       41  38     
003B6E  E2498001           [236] call       39  3   1  
003B72  4C43C012           [237] settable   13  37  257  ; nil
003B76  96880000           [238] tforloop   34      2    ; to [240] if exit
003B7A  1AC0FC7F           [239] jmp        -12          ; to [228]
003B7E  CA098010           [240] len        39  33     
fail op	35
003B82  23C0CC13           [241] close      0  
003B86  1A400380           [242] jmp        14           ; to [257]
003B8A  E4C94E0F           [243] self       39  30  315  ; -2113132255
003B8E  E2890001           [244] call       39  2   2  
003B92  D8490000           [245] test       39      1    ; to [247] if false
003B96  1A400280           [246] jmp        10           ; to [257]
003B9A  DD090F00           [247] getglobal  39  60       ; Lotus_Game
003B9E  CE49CF13           [248] gettable   39  39  317  ; -1445633957
003BA2  E2898000           [249] call       39  1   2  
003BA6  CC098886           [250] settable   39  269 32   ; "mItemType"
003BAA  CCC94C99           [251] settable   39  306 307  ; "mItemCount" 0
003BAE  1D4A0400           [252] getglobal  40  17       ; table
003BB2  0E8A4414           [253] gettable   40  40  274  ; -431682403
003BB6  520A8010           [254] move       41  33     
003BBA  920A8013           [255] move       42  39     
003BBE  224A8001           [256] call       40  3   1  
003BC2  1D4A0C00           [257] getglobal  40  49       ; 1672515847
003BC6  520A8010           [258] move       41  33     
003BCA  220A0101           [259] call       40  2   4  
003BCE  1A000180           [260] jmp        5            ; to [266]
003BD2  520B000C           [261] move       45  24     
003BD6  920B0016           [262] move       46  44     
003BDA  D20B000F           [263] move       47  30     
003BDE  120C800F           [264] move       48  31     
003BE2  624B0002           [265] call       45  4   1  
003BE6  168A0000           [266] tforloop   40      2    ; to [268] if exit
003BEA  1A00FE7F           [267] jmp        -7           ; to [261]
003BEE  56860000           [268] tforloop   25      2    ; to [270] if exit
003BF2  1A00EE7F           [269] jmp        -71          ; to [199]
003BF6  5D8B0E00           [270] getglobal  45  58       ; 248503575
003BFA  920B8006           [271] move       46  13     
003BFE  620B0101           [272] call       45  2   4  
003C02  1A000480           [273] jmp        17           ; to [291]
003C06  9D4C0D00           [274] getglobal  50  53       ; 469076166
003C0A  D9CC0C00           [275] loadk      51  51       ; 0
003C0E  A24C0001           [276] call       50  2   1  
003C12  930C8000           [277] getupval   50  1      
003C16  A4CC4D19           [278] self       50  50  311  ; 1660666296
003C1A  0E4DC318           [279] gettable   52  49  269  ; "mItemType"
003C1E  A28C8001           [280] call       50  3   2  
003C22  DDCC0000           [281] getglobal  51  3        ; 1074689893
003C26  120D0019           [282] move       52  50     
003C2A  E28C0001           [283] call       51  2   2  
003C2E  D84C0000           [284] test       51      1    ; to [286] if false
003C32  1A000180           [285] jmp        5            ; to [291]
003C36  D20C000C           [286] move       51  24     
003C3A  120D8018           [287] move       52  49     
003C3E  520D0019           [288] move       53  50     
003C42  970D8000           [289] loadbool   54  1   0    ; true
003C46  E24C0002           [290] call       51  4   1  
003C4A  568B0000           [291] tforloop   45      2    ; to [293] if exit
003C4E  1A00FB7F           [292] jmp        -19          ; to [274]
003C52  DD4C0400           [293] getglobal  51  17       ; table
003C56  CE8CCF19           [294] gettable   51  51  318  ; -1513783280
003C5A  120D8001           [295] move       52  3      
003C5E  654D0000           [296] closure    53  1      
003C62  E24C8001           [297] call       51  3   1  
003C66  D98C0A00           [298] loadk      51  42       ; 0
003C6A  0A0D8001           [299] len        52  3      
003C6E  598D0A00           [300] loadk      53  42       ; 0
003C72  D00C0180           [301] forprep    51  5        ; to [307]
003C76  D30D0000           [302] getupval   55  0      
003C7A  E4CDCF1B           [303] self       55  55  319  ; -1484936978
003C7E  4E8E8D01           [304] gettable   57  3   54 
003C82  970E8000           [305] loadbool   58  1   0    ; true
003C86  E24D0002           [306] call       55  4   1  
003C8A  D44CFE7F           [307] forloop    51  -6       ; to [302] if loop
003C8E  DDCD0000           [308] getglobal  55  3        ; 1074689893
003C92  120E0000           [309] move       56  0      
003C96  E28D0001           [310] call       55  2   2  
003C9A  D80D0000           [311] test       55      0    ; to [313] if true
003C9E  1AC00080           [312] jmp        4            ; to [317]
003CA2  D30D0000           [313] getupval   55  0      
003CA6  E40DD01B           [314] self       55  55  320  ; 639060681
003CAA  59CE0C00           [315] loadk      57  51       ; 0
003CAE  E24D8001           [316] call       55  3   1  
003CB2  D30D0000           [317] getupval   55  0      
003CB6  CE4DD01B           [318] gettable   55  55  321  ; "mScrollBar"
003CBA  E48DD01B           [319] self       55  55  322  ; -1146906270
003CBE  530E0000           [320] getupval   57  0      
003CC2  64CED01C           [321] self       57  57  323  ; -1048283528
003CC6  D90E1100           [322] loadk      59  68       ; 0
003CCA  620E8001           [323] call       57  3   0  
003CCE  E24D0000           [324] call       55  0   1  
003CD2  58000000           [325] test       1       0    ; to [327] if true
003CD6  1A800180           [326] jmp        7            ; to [334]
003CDA  D30D0000           [327] getupval   55  0      
003CDE  E44DD11B           [328] self       55  55  325  ; 1685109492
003CE2  460E801C           [329] loadnil    57  57     
003CE6  970E8000           [330] loadbool   58  1   0    ; true
003CEA  D70E8000           [331] loadbool   59  1   0    ; true
003CEE  E24D8002           [332] call       55  5   1  
003CF2  1A800080           [333] jmp        3            ; to [337]
003CF6  D30D0000           [334] getupval   55  0      
003CFA  E44DD11B           [335] self       55  55  325  ; 1685109492
003CFE  E24D0001           [336] call       55  2   1  
003D02  D30D0000           [337] getupval   55  0      
003D06  CE8DD11B           [338] gettable   55  55  326  ; "mPrevSelection"
fail op	35
003D0A  63C0CC1B           [339] close      1  
003D0E  1A000180           [340] jmp        5            ; to [346]
003D12  D30D0000           [341] getupval   55  0      
003D16  E4CDD11B           [342] self       55  55  327  ; 1865581653
003D1A  530E0000           [343] getupval   57  0      
003D1E  4E8ED11C           [344] gettable   57  57  326  ; "mPrevSelection"
003D22  E24D8001           [345] call       55  3   1  
003D26  1E008000           [346] return     0   1      
                           * constants:
003D2A  48                 sizek (72)
003D2B  04                 const type 4
003D2C  10                 string size (16)
003D2D  6D5072657653656C+  "mPrevSel"
003D35  6563746564496400   "ectedId\0"
                           const [0]: "mPrevSelectedId"
003D3D  00                 const type 0
                           const [1]: nil
003D3E  01                 const type 3
003D3F  031DF77C           const [2]: (2096569603)
003D43  01                 const type 3
003D44  65770E40           const [3]: (1074689893)
003D48  04                 const type 4
003D49  0A                 string size (10)
003D4A  6747616D65446174+  "gGameDat"
003D52  6100               "a\0"
                           const [4]: "gGameData"
003D54  01                 const type 3
003D55  FD052E6F           const [5]: (1865287165)
003D59  01                 const type 3
003D5A  6B25B193           const [6]: (-1817107093)
003D5E  04                 const type 4
003D5F  15                 string size (21)
003D60  4552524F523A204E+  "ERROR: N"
003D68  6F20696E76656E74+  "o invent"
003D70  6F72792100         "ory!\0"
                           const [7]: "ERROR: No inventory!"
003D75  01                 const type 3
003D76  FACEF312           const [8]: (317968122)
003D7A  04                 const type 4
003D7B  0C                 string size (12)
003D7C  6D43757272417263+  "mCurrArc"
003D84  616E6500           "ane\0"
                           const [9]: "mCurrArcane"
003D88  04                 const type 4
003D89  07                 string size (7)
003D8A  41637469766500     "Active\0"
                           const [10]: "Active"
003D91  04                 const type 4
003D92  11                 string size (17)
003D93  4174746163686564+  "Attached"
003D9B  5570677261646573+  "Upgrades"
003DA3  00                 "\0"
                           const [11]: "AttachedUpgrades"
003DA4  04                 const type 4
003DA5  05                 string size (5)
003DA6  536C6F7400         "Slot\0"
                           const [12]: "Slot"
003DAB  04                 const type 4
003DAC  0A                 string size (10)
003DAD  6D4974656D547970+  "mItemTyp"
003DB5  6500               "e\0"
                           const [13]: "mItemType"
003DB7  04                 const type 4
003DB8  08                 string size (8)
003DB9  6D4974656D496400   "mItemId\0"
                           const [14]: "mItemId"
003DC1  04                 const type 4
003DC2  04                 string size (4)
003DC3  6D496400           "mId\0"
                           const [15]: "mId"
003DC7  04                 const type 4
003DC8  01                 string size (0)
                           const [16]: ""
003DCA  04                 const type 4
003DCB  06                 string size (6)
003DCC  7461626C6500       "table\0"
                           const [17]: "table"
003DD2  01                 const type 3
003DD3  9D0C45E6           const [18]: (-431682403)
003DD7  04                 const type 4
003DD8  07                 string size (7)
003DD9  49734E6F6E6500     "IsNone\0"
                           const [19]: "IsNone"
003DE0  01                 const type 3
003DE1  01000000           const [20]: (1)
003DE5  04                 const type 4
003DE6  0B                 string size (11)
003DE7  5365617263685465+  "SearchTe"
003DEF  726D00             "rm\0"
                           const [21]: "SearchTerm"
003DF2  04                 const type 4
003DF3  05                 string size (5)
003DF4  49636F6E00         "Icon\0"
                           const [22]: "Icon"
003DF9  04                 const type 4
003DFA  0E                 string size (14)
003DFB  656D707479536C6F+  "emptySlo"
003E03  7449636F6E00       "tIcon\0"
                           const [23]: "emptySlotIcon"
003E09  04                 const type 4
003E0A  07                 string size (7)
003E0B  5468656D656400     "Themed\0"
                           const [24]: "Themed"
003E12  04                 const type 4
003E13  05                 string size (5)
003E14  4E616D6500         "Name\0"
                           const [25]: "Name"
003E19  01                 const type 3
003E1A  B043DCE6           const [26]: (-421772368)
003E1E  04                 const type 4
003E1F  2C                 string size (44)
003E20  2F4C6F7475732F4C+  "/Lotus/L"
003E28  616E67756167652F+  "anguage/"
003E30  4D656E752F417263+  "Menu/Arc"
003E38  616E654D616E6167+  "aneManag"
003E40  65725F4E6F417263+  "er_NoArc"
003E48  616E6500           "ane\0"
                           const [27]: "/Lotus/Language/Menu/ArcaneManager_NoArcane"
003E4C  04                 const type 4
003E4D  05                 string size (5)
003E4E  5479706500         "Type\0"
                           const [28]: "Type"
003E53  01                 const type 3
003E54  29D4002C           const [29]: (738251817)
003E58  04                 const type 4
003E59  2B                 string size (43)
003E5A  2F4C6F7475732F54+  "/Lotus/T"
003E62  797065732F47616D+  "ypes/Gam"
003E6A  652F576172667261+  "e/Warfra"
003E72  6D65436F736D6574+  "meCosmet"
003E7A  6963456E68616E63+  "icEnhanc"
003E82  657200             "er\0"
                           const [30]: "/Lotus/Types/Game/WarframeCosmeticEnhancer"
003E85  04                 const type 4
003E86  06                 string size (6)
003E87  4C6162656C00       "Label\0"
                           const [31]: "Label"
003E8D  04                 const type 4
003E8E  1F                 string size (31)
003E8F  2F4C6F7475732F4C+  "/Lotus/L"
003E97  616E67756167652F+  "anguage/"
003E9F  4974656D732F5761+  "Items/Wa"
003EA7  726672616D6500     "rframe\0"
                           const [32]: "/Lotus/Language/Items/Warframe"
003EAE  04                 const type 4
003EAF  2B                 string size (43)
003EB0  2F4C6F7475732F54+  "/Lotus/T"
003EB8  797065732F47616D+  "ypes/Gam"
003EC0  652F4F7065726174+  "e/Operat"
003EC8  6F72436F736D6574+  "orCosmet"
003ED0  6963456E68616E63+  "icEnhanc"
003ED8  657200             "er\0"
                           const [33]: "/Lotus/Types/Game/OperatorCosmeticEnhancer"
003EDB  04                 const type 4
003EDC  22                 string size (34)
003EDD  2F4C6F7475732F4C+  "/Lotus/L"
003EE5  616E67756167652F+  "anguage/"
003EED  4D656E752F4D656E+  "Menu/Men"
003EF5  754F70657261746F+  "uOperato"
003EFD  7200               "r\0"
                           const [34]: "/Lotus/Language/Menu/MenuOperator"
003EFF  04                 const type 4
003F00  2E                 string size (46)
003F01  2F4C6F7475732F54+  "/Lotus/T"
003F09  797065732F47616D+  "ypes/Gam"
003F11  652F4F7065726174+  "e/Operat"
003F19  6F72416D70436F73+  "orAmpCos"
003F21  6D65746963456E68+  "meticEnh"
003F29  616E63657200       "ancer\0"
                           const [35]: "/Lotus/Types/Game/OperatorAmpCosmeticEnhancer"
003F2F  04                 const type 4
003F30  2C                 string size (44)
003F31  2F4C6F7475732F4C+  "/Lotus/L"
003F39  616E67756167652F+  "anguage/"
003F41  4D656E752F54656E+  "Menu/Ten"
003F49  6E6F437573746F6D+  "noCustom"
003F51  697A6174696F6E5F+  "ization_"
003F59  416D7000           "Amp\0"
                           const [36]: "/Lotus/Language/Menu/TennoCustomization_Amp"
003F5D  04                 const type 4
003F5E  30                 string size (48)
003F5F  2F4C6F7475732F54+  "/Lotus/T"
003F67  797065732F47616D+  "ypes/Gam"
003F6F  652F4D6F64756C61+  "e/Modula"
003F77  72576561706F6E43+  "rWeaponC"
003F7F  6F736D6574696345+  "osmeticE"
003F87  6E68616E63657200   "nhancer\0"
                           const [37]: "/Lotus/Types/Game/ModularWeaponCosmeticEnhancer"
003F8F  04                 const type 4
003F90  2F                 string size (47)
003F91  2F4C6F7475732F4C+  "/Lotus/L"
003F99  616E67756167652F+  "anguage/"
003FA1  576561706F6E732F+  "Weapons/"
003FA9  4C6F7475734D6F64+  "LotusMod"
003FB1  756C617257656170+  "ularWeap"
003FB9  6F6E4E616D6500     "onName\0"
                           const [38]: "/Lotus/Language/Weapons/LotusModularWeaponName"
003FC0  04                 const type 4
003FC1  2D                 string size (45)
003FC2  2F4C6F7475732F54+  "/Lotus/T"
003FCA  797065732F47616D+  "ypes/Gam"
003FD2  652F4D6F64756C61+  "e/Modula"
003FDA  7247756E436F736D+  "rGunCosm"
003FE2  65746963456E6861+  "eticEnha"
003FEA  6E63657200         "ncer\0"
                           const [39]: "/Lotus/Types/Game/ModularGunCosmeticEnhancer"
003FEF  04                 const type 4
003FF0  23                 string size (35)
003FF1  2F4C6F7475732F4C+  "/Lotus/L"
003FF9  616E67756167652F+  "anguage/"
004001  4D656E752F436174+  "Menu/Cat"
004009  65676F72795F4755+  "egory_GU"
004011  4E5300             "NS\0"
                           const [40]: "/Lotus/Language/Menu/Category_GUNS"
004014  01                 const type 3
004015  FA473CF4           const [41]: (-197376006)
004019  03                 const type 3
00401A  0000803F           const [42]: (0)
00401E  04                 const type 4
00401F  04                 string size (4)
004020  74616700           "tag\0"
                           const [43]: "tag"
004024  01                 const type 3
004025  D2A3C75E           const [44]: (1590141906)
004029  04                 const type 4
00402A  11                 string size (17)
00402B  52656C696373416E+  "RelicsAn"
004033  64417263616E6573+  "dArcanes"
00403B  00                 "\0"
                           const [45]: "RelicsAndArcanes"
00403C  01                 const type 3
00403D  428DC129           const [46]: (700550466)
004041  01                 const type 3
004042  1CCAD485           const [47]: (-2049652196)
004046  01                 const type 3
004047  7EAA4006           const [48]: (104901246)
00404B  01                 const type 3
00404C  0791B063           const [49]: (1672515847)
004050  04                 const type 4
004051  0B                 string size (11)
004052  6D4974656D436F75+  "mItemCou"
00405A  6E7400             "nt\0"
                           const [50]: "mItemCount"
00405D  03                 const type 3
00405E  00000000           const [51]: (0)
004062  01                 const type 3
004063  D48E598B           const [52]: (-1957065004)
004067  01                 const type 3
004068  C688F51B           const [53]: (469076166)
00406C  04                 const type 4
00406D  05                 string size (5)
00406E  7479706500         "type\0"
                           const [54]: "type"
004073  01                 const type 3
004074  B8C1FB62           const [55]: (1660666296)
004078  01                 const type 3
004079  07CDE98E           const [56]: (-1897280249)
00407D  01                 const type 3
00407E  70BE7730           const [57]: (813153904)
004082  01                 const type 3
004083  17DDCF0E           const [58]: (248503575)
004087  01                 const type 3
004088  21290C82           const [59]: (-2113132255)
00408C  04                 const type 4
00408D  0B                 string size (11)
00408E  4C6F7475735F4761+  "Lotus_Ga"
004096  6D6500             "me\0"
                           const [60]: "Lotus_Game"
004099  01                 const type 3
00409A  5B60D5A9           const [61]: (-1445633957)
00409E  01                 const type 3
00409F  1080C5A5           const [62]: (-1513783280)
0040A3  01                 const type 3
0040A4  EEA87DA7           const [63]: (-1484936978)
0040A8  01                 const type 3
0040A9  C94A1726           const [64]: (639060681)
0040AD  04                 const type 4
0040AE  0B                 string size (11)
0040AF  6D5363726F6C6C42+  "mScrollB"
0040B7  617200             "ar\0"
                           const [65]: "mScrollBar"
0040BA  01                 const type 3
0040BB  6299A3BB           const [66]: (-1146906270)
0040BF  01                 const type 3
0040C0  787684C1           const [67]: (-1048283528)
0040C4  03                 const type 3
0040C5  0000B0C1           const [68]: (0)
0040C9  01                 const type 3
0040CA  F4BA7064           const [69]: (1685109492)
0040CE  04                 const type 4
0040CF  0F                 string size (15)
0040D0  6D5072657653656C+  "mPrevSel"
0040D8  656374696F6E00     "ection\0"
                           const [70]: "mPrevSelection"
0040DF  01                 const type 3
0040E0  5584326F           const [71]: (1865581653)
                           * functions:
0040E4  02                 sizep (2)
                           
0040E5                     ** function [0] definition (level 3)
                           ** start of function **
0040E5  00                 string size (0)
                           source name: (none)
0040E7  03                 line defined (396)
0040E8  C8                 last line defined (456)
0040E9  03                 nups (9)
0040EA  09                 numparams (3)
0040EB  03                 is_vararg (0)
0040EC  00                 maxstacksize (24)
                           * code:
0040EF  01                 sizecode (208)
0040F0  DD000000           [001] getglobal  3   0        ; 1074689893
0040F4  12010000           [002] move       4   0      
0040F8  E2800001           [003] call       3   2   2  
0040FC  D8400000           [004] test       3       1    ; to [6] if false
004100  1A403280           [005] jmp        202          ; to [208]
004104  D3000000           [006] getupval   3   0      
004108  CE40C001           [007] gettable   3   3   257  ; "Active"
00410C  D8000000           [008] test       3       0    ; to [10] if true
004110  1A000380           [009] jmp        13           ; to [23]
004114  DD000000           [010] getglobal  3   0        ; 1074689893
004118  0E814000           [011] gettable   4   0   258  ; "mInstance"
00411C  E2800001           [012] call       3   2   2  
004120  D8400000           [013] test       3       1    ; to [15] if false
004124  1A003080           [014] jmp        193          ; to [208]
004128  CE804000           [015] gettable   3   0   258  ; "mInstance"
00412C  E4C0C001           [016] self       3   3   259  ; -1843749188
004130  4E014100           [017] gettable   5   0   260  ; "mUpgradeFingerprint"
004134  93010000           [018] getupval   6   0      
004138  8E414103           [019] gettable   6   6   261  ; "Weapon"
00413C  E2800002           [020] call       3   4   2  
004140  D8000000           [021] test       3       0    ; to [23] if true
004144  1A002E80           [022] jmp        185          ; to [208]
004148  CB008000           [023] newtable   3   1   0    ; array=1, hash=0
00414C  13018000           [024] getupval   4   1      
004150  0E814102           [025] gettable   4   4   262  ; "ALL"
004154  DB408000           [026] setlist    3   1   1    ; index 1 to 1
004158  19C10100           [027] loadk      4   7        ; ""
00415C  59010200           [028] loadk      5   8        ; 0
004160  93010001           [029] getupval   6   2      
004164  8A010003           [030] len        6   6      
004168  D9010200           [031] loadk      7   8        ; 0
00416C  50010480           [032] forprep    5   17       ; to [50]
004170  4E424200           [033] gettable   9   0   265  ; "mItemType"
004174  6482C204           [034] self       9   9   266  ; -1957065004
004178  D3020001           [035] getupval   11  2      
00417C  CE028205           [036] gettable   11  11  8  
004180  CEC2C205           [037] gettable   11  11  267  ; "Type"
004184  62828001           [038] call       9   3   2  
004188  58020000           [039] test       9       0    ; to [41] if true
00418C  1A000280           [040] jmp        9            ; to [50]
004190  5D020300           [041] getglobal  9   12       ; table
004194  4E42C304           [042] gettable   9   9   269  ; -431682403
004198  92028001           [043] move       10  3      
00419C  D2020004           [044] move       11  8      
0041A0  62428001           [045] call       9   3   1  
0041A4  53020001           [046] getupval   9   2      
0041A8  4E028204           [047] gettable   9   9   8  
0041AC  0E81C304           [048] gettable   4   9   270  ; "Label"
0041B0  1A000080           [049] jmp        1            ; to [51]
0041B4  5441FB7F           [050] forloop    5   -18      ; to [33] if loop
0041B8  53028001           [051] getupval   9   3      
0041BC  4EC2C304           [052] gettable   9   9   271  ; 460674431
0041C0  9D020400           [053] getglobal  10  16       ; mMovie
0041C4  D2028000           [054] move       11  1      
0041C8  0B830000           [055] newtable   12  0   2    ; array=0, hash=2
0041CC  0C038088           [056] settable   12  273 0    ; "ItemInfo"
0041D0  0CC34489           [057] settable   12  274 275  ; "GetVisibilityMaterial" 1
0041D4  62820002           [058] call       9   4   2  
0041D8  99020500           [059] loadk      10  20       ; 0
0041DC  D9C20100           [060] loadk      11  7        ; ""
0041E0  1D030400           [061] getglobal  12  16       ; mMovie
0041E4  24434506           [062] self       12  12  277  ; 98241492
0041E8  A483C500           [063] self       14  1   278  ; 1634497718
0041EC  A2830001           [064] call       14  2   2  
0041F0  A4C34507           [065] self       14  14  279  ; 1590141906
0041F4  A2830001           [066] call       14  2   2  
0041F8  D7030000           [067] loadbool   15  0   0    ; false
0041FC  22830002           [068] call       12  4   2  
004200  57030000           [069] loadbool   13  0   0    ; false
004204  9D030000           [070] getglobal  14  0        ; 1074689893
004208  CE834000           [071] gettable   15  0   258  ; "mInstance"
00420C  A2830001           [072] call       14  2   2  
004210  98430000           [073] test       14      1    ; to [75] if false
004214  1A800680           [074] jmp        27           ; to [102]
004218  98000000           [075] test       2       0    ; to [77] if true
00421C  1A000180           [076] jmp        5            ; to [82]
004220  8E834000           [077] gettable   14  0   258  ; "mInstance"
004224  A4034607           [078] self       14  14  280  ; 1866047198
004228  0E044100           [079] gettable   16  0   260  ; "mUpgradeFingerprint"
00422C  A2838001           [080] call       14  3   2  
004230  92020007           [081] move       10  14     
004234  8E834000           [082] gettable   14  0   258  ; "mInstance"
004238  A4434607           [083] self       14  14  281  ; -2055885527
00423C  19840600           [084] loadk      16  26       ; "{"
004240  53040002           [085] getupval   17  4      
004244  4EC4C608           [086] gettable   17  17  283  ; -132701534
fail op	35
004248  23004705           [087] close      0  
00424C  1A000080           [088] jmp        1            ; to [90]
004250  97440000           [089] loadbool   18  0   1    ; false, to [91]
004254  97048000           [090] loadbool   18  1   0    ; true
004258  D9440700           [091] loadk      19  29       ; "\"lvl\":"
00425C  1D850700           [092] getglobal  20  30       ; -1615931716
004260  52050005           [093] move       21  10     
004264  22850001           [094] call       20  2   2  
004268  C2048509           [095] concat     19  19  20 
00426C  19C50100           [096] loadk      20  7        ; ""
004270  62840002           [097] call       17  4   2  
004274  99C40700           [098] loadk      18  31       ; "}"
004278  02840408           [099] concat     16  16  18 
00427C  A2838001           [100] call       14  3   2  
004280  D2020007           [101] move       11  14     
004284  93030000           [102] getupval   14  0      
004288  8E434007           [103] gettable   14  14  257  ; "Active"
00428C  98030000           [104] test       14      0    ; to [106] if true
004290  1A800580           [105] jmp        23           ; to [129]
004294  9D030000           [106] getglobal  14  0        ; 1074689893
004298  D3030000           [107] getupval   15  0      
00429C  CE03C807           [108] gettable   15  15  288  ; "AttachedUpgrades"
0042A0  A2830001           [109] call       14  2   2  
0042A4  98430000           [110] test       14      1    ; to [112] if false
0042A8  1A000480           [111] jmp        17           ; to [129]
0042AC  99030200           [112] loadk      14  8        ; 0
0042B0  D3030000           [113] getupval   15  0      
0042B4  CE03C807           [114] gettable   15  15  288  ; "AttachedUpgrades"
0042B8  CA038007           [115] len        15  15     
0042BC  19040200           [116] loadk      16  8        ; 0
0042C0  90430280           [117] forprep    14  10       ; to [128]
0042C4  93048002           [118] getupval   18  5      
0042C8  D2040000           [119] move       19  0      
0042CC  13050000           [120] getupval   20  0      
0042D0  0E05480A           [121] gettable   20  20  288  ; "AttachedUpgrades"
0042D4  0E45040A           [122] gettable   20  20  17 
0042D8  A2848001           [123] call       18  3   2  
0042DC  98040000           [124] test       18      0    ; to [126] if true
0042E0  1A400080           [125] jmp        2            ; to [128]
0042E4  57038000           [126] loadbool   13  1   0    ; true
0042E8  1A000080           [127] jmp        1            ; to [129]
0042EC  9403FD7F           [128] forloop    14  -11      ; to [118] if loop
0042F0  9D440800           [129] getglobal  18  33       ; -764638816
0042F4  DD040400           [130] getglobal  19  16       ; mMovie
0042F8  E444C509           [131] self       19  19  277  ; 98241492
0042FC  52050002           [132] move       21  4      
004300  97050000           [133] loadbool   22  0   0    ; false
004304  E2040002           [134] call       19  4   0  
004308  A2840000           [135] call       18  0   2  
00430C  DD040400           [136] getglobal  19  16       ; mMovie
004310  E444C509           [137] self       19  19  277  ; 98241492
004314  59850800           [138] loadk      21  34       ; "/Lotus/Language/Menu/ArcaneManager_Compatibility"
004318  97050000           [139] loadbool   22  0   0    ; false
00431C  CB450000           [140] newtable   23  0   1    ; array=0, hash=1
004320  CC858491           [141] settable   23  291 18   ; "COMPAT"
004324  E2848002           [142] call       19  5   2  
fail op	9
004328  09050001           [143] settable   20  2   0  
00432C  4C020592           [144] settable   9   292 20   ; "CanPreview"
fail op	9
004330  09050001           [145] settable   20  2   0  
004334  4C028592           [146] settable   9   293 20   ; "NotOwned"
004338  4CC24993           [147] settable   9   294 295  ; "IconHeight" 0
00433C  1D450A00           [148] getglobal  20  41       ; string
004340  0E854A0A           [149] gettable   20  20  298  ; -1110387163
004344  52050006           [150] move       21  12     
004348  22850001           [151] call       20  2   2  
00434C  59C50A00           [152] loadk      21  43       ; " "
004350  9D450A00           [153] getglobal  22  41       ; string
004354  8E854A0B           [154] gettable   22  22  298  ; -1110387163
004358  D2058005           [155] move       23  11     
00435C  A2850001           [156] call       22  2   2  
004360  0285050A           [157] concat     20  20  22 
004364  4C020594           [158] settable   9   296 20   ; "SearchTerm"
004368  4C020096           [159] settable   9   300 0    ; "Arcane"
00436C  4C828296           [160] settable   9   301 10   ; "ArcaneRank"
004370  0EC54B00           [161] gettable   20  0   303  ; "mItemCount"
004374  4C020597           [162] settable   9   302 20   ; "Count"
004378  4C420398           [163] settable   9   304 13   ; "Equipped"
00437C  4CC28498           [164] settable   9   305 19   ; "CompatLabel"
004380  4CC20099           [165] settable   9   306 3    ; "Categories"
004384  1D050400           [166] getglobal  20  16       ; mMovie
004388  2445450A           [167] self       20  20  277  ; 98241492
00438C  A405CD00           [168] self       22  1   308  ; 1110445749
004390  A2850001           [169] call       22  2   2  
004394  A4C5450B           [170] self       22  22  279  ; 1590141906
004398  A2850001           [171] call       22  2   2  
00439C  D7050000           [172] loadbool   23  0   0    ; false
0043A0  22850002           [173] call       20  4   2  
0043A4  4C028599           [174] settable   9   307 20   ; "LocalizedDesc"
0043A8  1D050300           [175] getglobal  20  12       ; table
0043AC  0E45430A           [176] gettable   20  20  269  ; -431682403
0043B0  53050003           [177] getupval   21  6      
0043B4  92058004           [178] move       22  9      
0043B8  22458001           [179] call       20  3   1  
0043BC  1D050000           [180] getglobal  20  0        ; 1074689893
0043C0  53058003           [181] getupval   21  7      
0043C4  22850001           [182] call       20  2   2  
0043C8  18450000           [183] test       20      1    ; to [185] if false
0043CC  1A800580           [184] jmp        23           ; to [208]
0043D0  0E454D00           [185] gettable   20  0   309  ; "mItemId"
0043D4  18050000           [186] test       20      0    ; to [188] if true
0043D8  1AC00480           [187] jmp        20           ; to [208]
0043DC  13058003           [188] getupval   20  7      
0043E0  4E454D00           [189] gettable   21  0   309  ; "mItemId"
0043E4  4E85CD0A           [190] gettable   21  21  310  ; "mId"
fail op	35
0043E8  2340050A           [191] close      0  
0043EC  1A800380           [192] jmp        15           ; to [208]
0043F0  13050004           [193] getupval   20  8      
0043F4  5D050E00           [194] getglobal  21  56       ; Lotus_Game
0043F8  4E45CE0A           [195] gettable   21  21  313  ; -1445633957
0043FC  62858000           [196] call       21  1   2  
004400  0C45859B           [197] settable   20  311 21   ; "mCurrArcane"
004404  13050004           [198] getupval   20  8      
004408  0EC54D0A           [199] gettable   20  20  311  ; "mCurrArcane"
00440C  5D850E00           [200] getglobal  21  58       ; 1037645723
004410  93058003           [201] getupval   22  7      
004414  62850001           [202] call       21  2   2  
004418  0C45859A           [203] settable   20  309 21   ; "mItemId"
00441C  13050004           [204] getupval   20  8      
004420  0EC54D0A           [205] gettable   20  20  311  ; "mCurrArcane"
004424  4E454200           [206] gettable   21  0   265  ; "mItemType"
004428  0C458584           [207] settable   20  265 21   ; "mItemType"
00442C  1E008000           [208] return     0   1      
                           * constants:
004430  3B                 sizek (59)
004431  01                 const type 3
004432  65770E40           const [0]: (1074689893)
004436  04                 const type 4
004437  07                 string size (7)
004438  41637469766500     "Active\0"
                           const [1]: "Active"
00443F  04                 const type 4
004440  0A                 string size (10)
004441  6D496E7374616E63+  "mInstanc"
004449  6500               "e\0"
                           const [2]: "mInstance"
00444B  01                 const type 3
00444C  BC9E1A92           const [3]: (-1843749188)
004450  04                 const type 4
004451  14                 string size (20)
004452  6D55706772616465+  "mUpgrade"
00445A  46696E6765727072+  "Fingerpr"
004462  696E7400           "int\0"
                           const [4]: "mUpgradeFingerprint"
004466  04                 const type 4
004467  07                 string size (7)
004468  576561706F6E00     "Weapon\0"
                           const [5]: "Weapon"
00446F  04                 const type 4
004470  04                 string size (4)
004471  414C4C00           "ALL\0"
                           const [6]: "ALL"
004475  04                 const type 4
004476  01                 string size (0)
                           const [7]: ""
004478  03                 const type 3
004479  0000803F           const [8]: (0)
00447D  04                 const type 4
00447E  0A                 string size (10)
00447F  6D4974656D547970+  "mItemTyp"
004487  6500               "e\0"
                           const [9]: "mItemType"
004489  01                 const type 3
00448A  D48E598B           const [10]: (-1957065004)
00448E  04                 const type 4
00448F  05                 string size (5)
004490  5479706500         "Type\0"
                           const [11]: "Type"
004495  04                 const type 4
004496  06                 string size (6)
004497  7461626C6500       "table\0"
                           const [12]: "table"
00449D  01                 const type 3
00449E  9D0C45E6           const [13]: (-431682403)
0044A2  04                 const type 4
0044A3  06                 string size (6)
0044A4  4C6162656C00       "Label\0"
                           const [14]: "Label"
0044AA  01                 const type 3
0044AB  7F55751B           const [15]: (460674431)
0044AF  04                 const type 4
0044B0  07                 string size (7)
0044B1  6D4D6F76696500     "mMovie\0"
                           const [16]: "mMovie"
0044B8  04                 const type 4
0044B9  09                 string size (9)
0044BA  4974656D496E666F+  "ItemInfo"
0044C2  00                 "\0"
                           const [17]: "ItemInfo"
0044C3  04                 const type 4
0044C4  16                 string size (22)
0044C5  4765745669736962+  "GetVisib"
0044CD  696C6974794D6174+  "ilityMat"
0044D5  657269616C00       "erial\0"
                           const [18]: "GetVisibilityMaterial"
0044DB  01                 const type 3
0044DC  01000000           const [19]: (1)
0044E0  03                 const type 3
0044E1  000080BF           const [20]: (0)
0044E5  01                 const type 3
0044E6  D40BDB05           const [21]: (98241492)
0044EA  01                 const type 3
0044EB  B6746C61           const [22]: (1634497718)
0044EF  01                 const type 3
0044F0  D2A3C75E           const [23]: (1590141906)
0044F4  01                 const type 3
0044F5  DE9E396F           const [24]: (1866047198)
0044F9  01                 const type 3
0044FA  29AD7585           const [25]: (-2055885527)
0044FE  04                 const type 4
0044FF  02                 string size (2)
004500  7B00               "{\0"
                           const [26]: "{"
004502  01                 const type 3
004503  A22217F8           const [27]: (-132701534)
004507  03                 const type 3
004508  00000000           const [28]: (0)
00450C  04                 const type 4
00450D  07                 string size (7)
00450E  226C766C223A00     "\"lvl\":\0"
                           const [29]: "\"lvl\":"
004515  01                 const type 3
004516  BCD6AE9F           const [30]: (-1615931716)
00451A  04                 const type 4
00451B  02                 string size (2)
00451C  7D00               "}\0"
                           const [31]: "}"
00451E  04                 const type 4
00451F  11                 string size (17)
004520  4174746163686564+  "Attached"
004528  5570677261646573+  "Upgrades"
004530  00                 "\0"
                           const [32]: "AttachedUpgrades"
004531  01                 const type 3
004532  A0896CD2           const [33]: (-764638816)
004536  04                 const type 4
004537  31                 string size (49)
004538  2F4C6F7475732F4C+  "/Lotus/L"
004540  616E67756167652F+  "anguage/"
004548  4D656E752F417263+  "Menu/Arc"
004550  616E654D616E6167+  "aneManag"
004558  65725F436F6D7061+  "er_Compa"
004560  746962696C697479+  "tibility"
004568  00                 "\0"
                           const [34]: "/Lotus/Language/Menu/ArcaneManager_Compatibility"
004569  04                 const type 4
00456A  07                 string size (7)
00456B  434F4D50415400     "COMPAT\0"
                           const [35]: "COMPAT"
004572  04                 const type 4
004573  0B                 string size (11)
004574  43616E5072657669+  "CanPrevi"
00457C  657700             "ew\0"
                           const [36]: "CanPreview"
00457F  04                 const type 4
004580  09                 string size (9)
004581  4E6F744F776E6564+  "NotOwned"
004589  00                 "\0"
                           const [37]: "NotOwned"
00458A  04                 const type 4
00458B  0B                 string size (11)
00458C  49636F6E48656967+  "IconHeig"
004594  687400             "ht\0"
                           const [38]: "IconHeight"
004597  03                 const type 3
004598  0000F042           const [39]: (0)
00459C  04                 const type 4
00459D  0B                 string size (11)
00459E  5365617263685465+  "SearchTe"
0045A6  726D00             "rm\0"
                           const [40]: "SearchTerm"
0045A9  04                 const type 4
0045AA  07                 string size (7)
0045AB  737472696E6700     "string\0"
                           const [41]: "string"
0045B2  01                 const type 3
0045B3  25D6D0BD           const [42]: (-1110387163)
0045B7  04                 const type 4
0045B8  02                 string size (2)
0045B9  2000               " \0"
                           const [43]: " "
0045BB  04                 const type 4
0045BC  07                 string size (7)
0045BD  417263616E6500     "Arcane\0"
                           const [44]: "Arcane"
0045C4  04                 const type 4
0045C5  0B                 string size (11)
0045C6  417263616E655261+  "ArcaneRa"
0045CE  6E6B00             "nk\0"
                           const [45]: "ArcaneRank"
0045D1  04                 const type 4
0045D2  06                 string size (6)
0045D3  436F756E7400       "Count\0"
                           const [46]: "Count"
0045D9  04                 const type 4
0045DA  0B                 string size (11)
0045DB  6D4974656D436F75+  "mItemCou"
0045E3  6E7400             "nt\0"
                           const [47]: "mItemCount"
0045E6  04                 const type 4
0045E7  09                 string size (9)
0045E8  4571756970706564+  "Equipped"
0045F0  00                 "\0"
                           const [48]: "Equipped"
0045F1  04                 const type 4
0045F2  0C                 string size (12)
0045F3  436F6D7061744C61+  "CompatLa"
0045FB  62656C00           "bel\0"
                           const [49]: "CompatLabel"
0045FF  04                 const type 4
004600  0B                 string size (11)
004601  43617465676F7269+  "Categori"
004609  657300             "es\0"
                           const [50]: "Categories"
00460C  04                 const type 4
00460D  0E                 string size (14)
00460E  4C6F63616C697A65+  "Localize"
004616  644465736300       "dDesc\0"
                           const [51]: "LocalizedDesc"
00461C  01                 const type 3
00461D  B50E3042           const [52]: (1110445749)
004621  04                 const type 4
004622  08                 string size (8)
004623  6D4974656D496400   "mItemId\0"
                           const [53]: "mItemId"
00462B  04                 const type 4
00462C  04                 string size (4)
00462D  6D496400           "mId\0"
                           const [54]: "mId"
004631  04                 const type 4
004632  0C                 string size (12)
004633  6D43757272417263+  "mCurrArc"
00463B  616E6500           "ane\0"
                           const [55]: "mCurrArcane"
00463F  04                 const type 4
004640  0B                 string size (11)
004641  4C6F7475735F4761+  "Lotus_Ga"
004649  6D6500             "me\0"
                           const [56]: "Lotus_Game"
00464C  01                 const type 3
00464D  5B60D5A9           const [57]: (-1445633957)
004651  01                 const type 3
004652  9B37D93D           const [58]: (1037645723)
                           * functions:
004656  00                 sizep (0)
                           * lines:
004658  01                 sizelineinfo (208)
                           [pc] (line)
004659  8D                 [001] (-115)
00465A  01                 [002] (-115)
00465B  00                 [003] (-115)
00465C  00                 [004] (-115)
00465D  8D                 [005] (-115)
00465E  01                 [006] (-115)
00465F  00                 [007] (-115)
004660  00                 [008] (-115)
004661  8D                 [009] (-115)
004662  01                 [010] (-114)
004663  00                 [011] (-114)
004664  00                 [012] (-114)
004665  8D                 [013] (-114)
004666  01                 [014] (-114)
004667  00                 [015] (-114)
004668  00                 [016] (-114)
004669  8D                 [017] (-114)
00466A  01                 [018] (-114)
00466B  00                 [019] (-114)
00466C  00                 [020] (-114)
00466D  8D                 [021] (-114)
00466E  01                 [022] (-114)
00466F  00                 [023] (-112)
004670  00                 [024] (-112)
004671  8D                 [025] (-112)
004672  01                 [026] (-112)
004673  00                 [027] (-111)
004674  00                 [028] (-110)
004675  8D                 [029] (-110)
004676  01                 [030] (-110)
004677  00                 [031] (-110)
004678  00                 [032] (-110)
004679  8D                 [033] (-109)
00467A  01                 [034] (-109)
00467B  00                 [035] (-109)
00467C  00                 [036] (-109)
00467D  8E                 [037] (-109)
00467E  01                 [038] (-109)
00467F  00                 [039] (-109)
004680  00                 [040] (-109)
004681  8E                 [041] (-108)
004682  01                 [042] (-108)
004683  00                 [043] (-108)
004684  00                 [044] (-108)
004685  8E                 [045] (-108)
004686  01                 [046] (-107)
004687  00                 [047] (-107)
004688  00                 [048] (-107)
004689  8E                 [049] (-105)
00468A  01                 [050] (-110)
00468B  00                 [051] (-101)
00468C  00                 [052] (-101)
00468D  8E                 [053] (-101)
00468E  01                 [054] (-101)
00468F  00                 [055] (-101)
004690  00                 [056] (-101)
004691  8E                 [057] (-101)
004692  01                 [058] (-101)
004693  00                 [059] (-100)
004694  00                 [060] (-99)
004695  8E                 [061] (-98)
004696  01                 [062] (-98)
004697  00                 [063] (-98)
004698  00                 [064] (-98)
004699  8E                 [065] (-98)
00469A  01                 [066] (-98)
00469B  00                 [067] (-98)
00469C  00                 [068] (-98)
00469D  8E                 [069] (-97)
00469E  01                 [070] (-96)
00469F  00                 [071] (-96)
0046A0  00                 [072] (-96)
0046A1  8E                 [073] (-96)
0046A2  01                 [074] (-96)
0046A3  00                 [075] (-95)
0046A4  00                 [076] (-95)
0046A5  8E                 [077] (-94)
0046A6  01                 [078] (-94)
0046A7  00                 [079] (-94)
0046A8  00                 [080] (-94)
0046A9  8E                 [081] (-94)
0046AA  01                 [082] (-92)
0046AB  00                 [083] (-92)
0046AC  00                 [084] (-92)
0046AD  8E                 [085] (-92)
0046AE  01                 [086] (-92)
0046AF  00                 [087] (-92)
0046B0  00                 [088] (-92)
0046B1  90                 [089] (-92)
0046B2  01                 [090] (-92)
0046B3  00                 [091] (-92)
0046B4  00                 [092] (-92)
0046B5  90                 [093] (-92)
0046B6  01                 [094] (-92)
0046B7  00                 [095] (-92)
0046B8  00                 [096] (-92)
0046B9  90                 [097] (-92)
0046BA  01                 [098] (-92)
0046BB  00                 [099] (-92)
0046BC  00                 [100] (-92)
0046BD  90                 [101] (-92)
0046BE  01                 [102] (-90)
0046BF  00                 [103] (-90)
0046C0  00                 [104] (-90)
0046C1  91                 [105] (-90)
0046C2  01                 [106] (-90)
0046C3  00                 [107] (-90)
0046C4  00                 [108] (-90)
0046C5  92                 [109] (-90)
0046C6  01                 [110] (-90)
0046C7  00                 [111] (-90)
0046C8  00                 [112] (-89)
0046C9  92                 [113] (-89)
0046CA  01                 [114] (-89)
0046CB  00                 [115] (-89)
0046CC  00                 [116] (-89)
0046CD  92                 [117] (-89)
0046CE  01                 [118] (-88)
0046CF  00                 [119] (-88)
0046D0  00                 [120] (-88)
0046D1  92                 [121] (-88)
0046D2  01                 [122] (-88)
0046D3  00                 [123] (-88)
0046D4  00                 [124] (-88)
0046D5  92                 [125] (-88)
0046D6  01                 [126] (-87)
0046D7  00                 [127] (-85)
0046D8  00                 [128] (-89)
0046D9  93                 [129] (-80)
0046DA  01                 [130] (-80)
0046DB  00                 [131] (-80)
0046DC  00                 [132] (-80)
0046DD  93                 [133] (-80)
0046DE  01                 [134] (-80)
0046DF  00                 [135] (-80)
0046E0  00                 [136] (-79)
0046E1  93                 [137] (-79)
0046E2  01                 [138] (-79)
0046E3  00                 [139] (-79)
0046E4  00                 [140] (-79)
0046E5  93                 [141] (-79)
0046E6  01                 [142] (-79)
0046E7  00                 [143] (-77)
0046E8  00                 [144] (-77)
0046E9  93                 [145] (-76)
0046EA  01                 [146] (-76)
0046EB  00                 [147] (-75)
0046EC  00                 [148] (-74)
0046ED  93                 [149] (-74)
0046EE  01                 [150] (-74)
0046EF  00                 [151] (-74)
0046F0  00                 [152] (-74)
0046F1  93                 [153] (-74)
0046F2  01                 [154] (-74)
0046F3  00                 [155] (-74)
0046F4  00                 [156] (-74)
0046F5  93                 [157] (-74)
0046F6  01                 [158] (-74)
0046F7  00                 [159] (-73)
0046F8  00                 [160] (-72)
0046F9  94                 [161] (-71)
0046FA  01                 [162] (-71)
0046FB  00                 [163] (-70)
0046FC  00                 [164] (-69)
0046FD  94                 [165] (-68)
0046FE  01                 [166] (-67)
0046FF  00                 [167] (-67)
004700  00                 [168] (-67)
004701  94                 [169] (-67)
004702  01                 [170] (-67)
004703  00                 [171] (-67)
004704  00                 [172] (-67)
004705  94                 [173] (-67)
004706  01                 [174] (-67)
004707  00                 [175] (-65)
004708  00                 [176] (-65)
004709  94                 [177] (-65)
00470A  01                 [178] (-65)
00470B  00                 [179] (-65)
00470C  00                 [180] (-63)
00470D  95                 [181] (-63)
00470E  01                 [182] (-63)
00470F  00                 [183] (-63)
004710  00                 [184] (-63)
004711  95                 [185] (-63)
004712  01                 [186] (-63)
004713  00                 [187] (-63)
004714  00                 [188] (-63)
004715  95                 [189] (-63)
004716  01                 [190] (-63)
004717  00                 [191] (-63)
004718  00                 [192] (-63)
004719  97                 [193] (-61)
00471A  01                 [194] (-61)
00471B  00                 [195] (-61)
00471C  00                 [196] (-61)
00471D  92                 [197] (-61)
00471E  01                 [198] (-60)
00471F  00                 [199] (-60)
004720  00                 [200] (-60)
004721  9B                 [201] (-60)
004722  01                 [202] (-60)
004723  00                 [203] (-60)
004724  00                 [204] (-59)
004725  9B                 [205] (-59)
004726  01                 [206] (-59)
004727  00                 [207] (-59)
004728  00                 [208] (-56)
                           * locals:
004999  00                 sizelocvars (0)
                           * upvalues:
00499A  00                 sizeupvalues (0)
                           ** end of function **

                           
00499B                     ** function [1] definition (level 3)
                           ** start of function **
00499B  00                 string size (0)
                           source name: (none)
00499D  03                 line defined (503)
00499E  FF                 last line defined (511)
00499F  03                 nups (0)
0049A0  00                 numparams (2)
0049A1  02                 is_vararg (0)
0049A2  00                 maxstacksize (4)
                           * code:
0049A4  14                 sizecode (20)
0049A5  8E004000           [01] gettable   2   0   256  ; "IsNone"
0049A9  98000000           [02] test       2       0    ; to [4] if true
0049AD  1A800080           [03] jmp        3            ; to [7]
0049B1  97008000           [04] loadbool   2   1   0    ; true
0049B5  9E000001           [05] return     2   2      
0049B9  1A000380           [06] jmp        13           ; to [20]
0049BD  8E00C000           [07] gettable   2   1   256  ; "IsNone"
0049C1  98000000           [08] test       2       0    ; to [10] if true
0049C5  1A800080           [09] jmp        3            ; to [13]
0049C9  97000000           [10] loadbool   2   0   0    ; false
0049CD  9E000001           [11] return     2   2      
0049D1  1A800180           [12] jmp        7            ; to [20]
0049D5  8E404000           [13] gettable   2   0   257  ; "Name"
0049D9  CE40C000           [14] gettable   3   1   257  ; "Name"
fail op	21
0049DD  55C00001           [15] concat     1   2   3  
0049E1  1A000080           [16] jmp        1            ; to [18]
0049E5  97400000           [17] loadbool   2   0   1    ; false, to [19]
0049E9  97008000           [18] loadbool   2   1   0    ; true
0049ED  9E000001           [19] return     2   2      
0049F1  1E008000           [20] return     0   1      
                           * constants:
0049F5  02                 sizek (2)
0049F6  04                 const type 4
0049F7  07                 string size (7)
0049F8  49734E6F6E6500     "IsNone\0"
                           const [0]: "IsNone"
0049FF  04                 const type 4
004A00  05                 string size (5)
004A01  4E616D6500         "Name\0"
                           const [1]: "Name"
                           * functions:
004A06  00                 sizep (0)
                           * lines:
004A07  14                 sizelineinfo (20)
                           [pc] (line)
004A08  F8                 [01] (-8)
004A09  01                 [02] (-8)
004A0A  00                 [03] (-8)
004A0B  00                 [04] (-7)
004A0C  F8                 [05] (-7)
004A0D  01                 [06] (-7)
004A0E  00                 [07] (-6)
004A0F  00                 [08] (-6)
004A10  F8                 [09] (-6)
004A11  01                 [10] (-5)
004A12  00                 [11] (-5)
004A13  00                 [12] (-5)
004A14  F9                 [13] (-3)
004A15  01                 [14] (-3)
004A16  00                 [15] (-3)
004A17  00                 [16] (-3)
004A18  F9                 [17] (-3)
004A19  01                 [18] (-3)
004A1A  00                 [19] (-3)
004A1B  00                 [20] (-1)
                           * locals:
004A58  00                 sizelocvars (0)
                           * upvalues:
004A59  00                 sizeupvalues (0)
                           ** end of function **

                           * lines:
004A5B  02                 sizelineinfo (346)
                           [pc] (line)
004A5C  50                 [001] (80)
004A5D  01                 [002] (80)
004A5E  00                 [003] (81)
004A5F  00                 [004] (81)
004A60  50                 [005] (81)
004A61  01                 [006] (81)
004A62  00                 [007] (81)
004A63  00                 [008] (83)
004A64  51                 [009] (83)
004A65  01                 [010] (83)
004A66  00                 [011] (83)
004A67  00                 [012] (83)
004A68  51                 [013] (83)
004A69  01                 [014] (83)
004A6A  00                 [015] (83)
004A6B  00                 [016] (83)
004A6C  51                 [017] (83)
004A6D  01                 [018] (84)
004A6E  00                 [019] (87)
004A6F  00                 [020] (87)
004A70  51                 [021] (87)
004A71  01                 [022] (88)
004A72  00                 [023] (88)
004A73  00                 [024] (88)
004A74  51                 [025] (88)
004A75  01                 [026] (88)
004A76  00                 [027] (89)
004A77  00                 [028] (89)
004A78  53                 [029] (89)
004A79  01                 [030] (90)
004A7A  00                 [031] (90)
004A7B  00                 [032] (90)
004A7C  53                 [033] (93)
004A7D  01                 [034] (94)
004A7E  00                 [035] (94)
004A7F  00                 [036] (95)
004A80  53                 [037] (95)
004A81  01                 [038] (95)
004A82  00                 [039] (95)
004A83  00                 [040] (95)
004A84  53                 [041] (95)
004A85  01                 [042] (95)
004A86  00                 [043] (95)
004A87  00                 [044] (95)
004A88  53                 [045] (95)
004A89  01                 [046] (98)
004A8A  00                 [047] (98)
004A8B  00                 [048] (98)
004A8C  53                 [049] (98)
004A8D  01                 [050] (98)
004A8E  00                 [051] (98)
004A8F  00                 [052] (98)
004A90  53                 [053] (100)
004A91  01                 [054] (100)
004A92  00                 [055] (100)
004A93  00                 [056] (100)
004A94  53                 [057] (100)
004A95  01                 [058] (100)
004A96  00                 [059] (101)
004A97  00                 [060] (101)
004A98  53                 [061] (101)
004A99  01                 [062] (101)
004A9A  00                 [063] (101)
004A9B  00                 [064] (101)
004A9C  53                 [065] (101)
004A9D  01                 [066] (101)
004A9E  00                 [067] (101)
004A9F  00                 [068] (101)
004AA0  54                 [069] (101)
004AA1  01                 [070] (101)
004AA2  00                 [071] (101)
004AA3  00                 [072] (103)
004AA4  57                 [073] (103)
004AA5  01                 [074] (103)
004AA6  00                 [075] (103)
004AA7  00                 [076] (103)
004AA8  57                 [077] (103)
004AA9  01                 [078] (103)
004AAA  00                 [079] (103)
004AAB  00                 [080] (103)
004AAC  57                 [081] (103)
004AAD  01                 [082] (103)
004AAE  00                 [083] (103)
004AAF  00                 [084] (103)
004AB0  58                 [085] (103)
004AB1  01                 [086] (103)
004AB2  00                 [087] (107)
004AB3  00                 [088] (108)
004AB4  58                 [089] (109)
004AB5  01                 [090] (109)
004AB6  00                 [091] (109)
004AB7  00                 [092] (109)
004AB8  58                 [093] (109)
004AB9  01                 [094] (109)
004ABA  00                 [095] (110)
004ABB  00                 [096] (110)
004ABC  58                 [097] (110)
004ABD  01                 [098] (110)
004ABE  00                 [099] (110)
004ABF  00                 [100] (110)
004AC0  58                 [101] (111)
004AC1  01                 [102] (111)
004AC2  00                 [103] (111)
004AC3  00                 [104] (111)
004AC4  59                 [105] (111)
004AC5  01                 [106] (111)
004AC6  00                 [107] (112)
004AC7  00                 [108] (112)
004AC8  59                 [109] (112)
004AC9  01                 [110] (112)
004ACA  00                 [111] (112)
004ACB  00                 [112] (112)
004ACC  59                 [113] (113)
004ACD  01                 [114] (113)
004ACE  00                 [115] (113)
004ACF  00                 [116] (113)
004AD0  5A                 [117] (113)
004AD1  01                 [118] (114)
004AD2  00                 [119] (116)
004AD3  00                 [120] (117)
004AD4  5A                 [121] (117)
004AD5  01                 [122] (117)
004AD6  00                 [123] (118)
004AD7  00                 [124] (118)
004AD8  5A                 [125] (118)
004AD9  01                 [126] (118)
004ADA  00                 [127] (119)
004ADB  00                 [128] (119)
004ADC  5D                 [129] (119)
004ADD  01                 [130] (119)
004ADE  00                 [131] (119)
004ADF  00                 [132] (119)
004AE0  5E                 [133] (120)
004AE1  01                 [134] (120)
004AE2  00                 [135] (120)
004AE3  00                 [136] (120)
004AE4  5E                 [137] (120)
004AE5  01                 [138] (121)
004AE6  00                 [139] (118)
004AE7  00                 [140] (125)
004AE8  5F                 [141] (125)
004AE9  01                 [142] (126)
004AEA  00                 [143] (126)
004AEB  00                 [144] (127)
004AEC  5F                 [145] (-128)
004AED  01                 [146] (-128)
004AEE  00                 [147] (-128)
004AEF  00                 [148] (-128)
004AF0  5F                 [149] (-127)
004AF1  01                 [150] (-127)
004AF2  00                 [151] (-127)
004AF3  00                 [152] (-127)
004AF4  5F                 [153] (-127)
004AF5  01                 [154] (-127)
004AF6  00                 [155] (-127)
004AF7  00                 [156] (-127)
004AF8  5F                 [157] (-127)
004AF9  01                 [158] (-126)
004AFA  00                 [159] (-126)
004AFB  00                 [160] (-126)
004AFC  5F                 [161] (-126)
004AFD  01                 [162] (-126)
004AFE  00                 [163] (-128)
004AFF  00                 [164] (-125)
004B00  5F                 [165] (-123)
004B01  01                 [166] (-123)
004B02  00                 [167] (-123)
004B03  00                 [168] (-123)
004B04  5F                 [169] (-122)
004B05  01                 [170] (-122)
004B06  00                 [171] (-122)
004B07  00                 [172] (-122)
004B08  5F                 [173] (-122)
004B09  01                 [174] (-122)
004B0A  00                 [175] (-122)
004B0B  00                 [176] (-122)
004B0C  5F                 [177] (-122)
004B0D  01                 [178] (-121)
004B0E  00                 [179] (-121)
004B0F  00                 [180] (-121)
004B10  62                 [181] (-121)
004B11  01                 [182] (-121)
004B12  00                 [183] (-123)
004B13  00                 [184] (-120)
004B14  62                 [185] (-56)
004B15  01                 [186] (-56)
004B16  00                 [187] (-56)
004B17  00                 [188] (-56)
004B18  62                 [189] (-56)
004B19  01                 [190] (-56)
004B1A  00                 [191] (-56)
004B1B  00                 [192] (-56)
004B1C  62                 [193] (-56)
004B1D  01                 [194] (-56)
004B1E  00                 [195] (-54)
004B1F  00                 [196] (-54)
004B20  62                 [197] (-54)
004B21  01                 [198] (-54)
004B22  00                 [199] (-53)
004B23  00                 [200] (-53)
004B24  62                 [201] (-53)
004B25  01                 [202] (-51)
004B26  00                 [203] (-51)
004B27  00                 [204] (-51)
004B28  62                 [205] (-51)
004B29  01                 [206] (-51)
004B2A  00                 [207] (-51)
004B2B  00                 [208] (-50)
004B2C  64                 [209] (-50)
004B2D  01                 [210] (-50)
004B2E  00                 [211] (-50)
004B2F  00                 [212] (-49)
004B30  64                 [213] (-49)
004B31  01                 [214] (-49)
004B32  00                 [215] (-49)
004B33  00                 [216] (-49)
004B34  64                 [217] (-48)
004B35  01                 [218] (-48)
004B36  00                 [219] (-47)
004B37  00                 [220] (-47)
004B38  64                 [221] (-46)
004B39  01                 [222] (-44)
004B3A  00                 [223] (-44)
004B3B  00                 [224] (-43)
004B3C  64                 [225] (-43)
004B3D  01                 [226] (-43)
004B3E  00                 [227] (-43)
004B3F  00                 [228] (-42)
004B40  64                 [229] (-42)
004B41  01                 [230] (-42)
004B42  00                 [231] (-41)
004B43  00                 [232] (-40)
004B44  65                 [233] (-40)
004B45  01                 [234] (-40)
004B46  00                 [235] (-40)
004B47  00                 [236] (-40)
004B48  65                 [237] (-39)
004B49  01                 [238] (-43)
004B4A  00                 [239] (-38)
004B4B  00                 [240] (-34)
004B4C  65                 [241] (-34)
004B4D  01                 [242] (-34)
004B4E  00                 [243] (-34)
004B4F  00                 [244] (-34)
004B50  65                 [245] (-34)
004B51  01                 [246] (-34)
004B52  00                 [247] (-33)
004B53  00                 [248] (-33)
004B54  65                 [249] (-33)
004B55  01                 [250] (-32)
004B56  00                 [251] (-31)
004B57  00                 [252] (-30)
004B58  65                 [253] (-30)
004B59  01                 [254] (-30)
004B5A  00                 [255] (-30)
004B5B  00                 [256] (-30)
004B5C  65                 [257] (-27)
004B5D  01                 [258] (-27)
004B5E  00                 [259] (-27)
004B5F  00                 [260] (-27)
004B60  65                 [261] (-26)
004B61  01                 [262] (-26)
004B62  00                 [263] (-26)
004B63  00                 [264] (-26)
004B64  65                 [265] (-26)
004B65  01                 [266] (-27)
004B66  00                 [267] (-26)
004B67  00                 [268] (-54)
004B68  65                 [269] (-23)
004B69  01                 [270] (-19)
004B6A  00                 [271] (-19)
004B6B  00                 [272] (-19)
004B6C  65                 [273] (-19)
004B6D  01                 [274] (-18)
004B6E  00                 [275] (-18)
004B6F  00                 [276] (-18)
004B70  65                 [277] (-16)
004B71  01                 [278] (-16)
004B72  00                 [279] (-16)
004B73  00                 [280] (-16)
004B74  65                 [281] (-15)
004B75  01                 [282] (-15)
004B76  00                 [283] (-15)
004B77  00                 [284] (-15)
004B78  67                 [285] (-15)
004B79  01                 [286] (-14)
004B7A  00                 [287] (-14)
004B7B  00                 [288] (-14)
004B7C  67                 [289] (-14)
004B7D  01                 [290] (-14)
004B7E  00                 [291] (-19)
004B7F  00                 [292] (-13)
004B80  67                 [293] (-10)
004B81  01                 [294] (-10)
004B82  00                 [295] (-10)
004B83  00                 [296] (-1)
004B84  67                 [297] (-10)
004B85  01                 [298] (1)
004B86  00                 [299] (1)
004B87  00                 [300] (1)
004B88  67                 [301] (1)
004B89  01                 [302] (2)
004B8A  00                 [303] (2)
004B8B  00                 [304] (2)
004B8C  67                 [305] (2)
004B8D  01                 [306] (2)
004B8E  00                 [307] (1)
004B8F  00                 [308] (5)
004B90  67                 [309] (5)
004B91  01                 [310] (5)
004B92  00                 [311] (5)
004B93  00                 [312] (5)
004B94  67                 [313] (6)
004B95  01                 [314] (6)
004B96  00                 [315] (6)
004B97  00                 [316] (6)
004B98  67                 [317] (9)
004B99  01                 [318] (9)
004B9A  00                 [319] (9)
004B9B  00                 [320] (9)
004B9C  67                 [321] (9)
004B9D  01                 [322] (9)
004B9E  00                 [323] (9)
004B9F  00                 [324] (9)
004BA0  67                 [325] (10)
004BA1  01                 [326] (10)
004BA2  00                 [327] (11)
004BA3  00                 [328] (11)
004BA4  67                 [329] (11)
004BA5  01                 [330] (11)
004BA6  00                 [331] (11)
004BA7  00                 [332] (11)
004BA8  67                 [333] (11)
004BA9  01                 [334] (13)
004BAA  00                 [335] (13)
004BAB  00                 [336] (13)
004BAC  67                 [337] (16)
004BAD  01                 [338] (16)
004BAE  00                 [339] (16)
004BAF  00                 [340] (16)
004BB0  67                 [341] (17)
004BB1  01                 [342] (17)
004BB2  00                 [343] (17)
004BB3  00                 [344] (17)
004BB4  6B                 [345] (17)
004BB5  01                 [346] (19)
                           * locals:
004FC4  00                 sizelocvars (0)
                           * upvalues:
004FC5  00                 sizeupvalues (0)
                           ** end of function **

                           
004FC6                     ** function [12] definition (level 2)
                           ** start of function **
004FC6  00                 string size (0)
                           source name: (none)
004FC8  04                 line defined (533)
004FC9  A2                 last line defined (546)
004FCA  04                 nups (0)
004FCB  00                 numparams (0)
004FCC  00                 is_vararg (0)
004FCD  00                 maxstacksize (9)
                           * code:
004FCF  15                 sizecode (21)
004FD0  1D000000           [01] getglobal  0   0        ; mMovie
004FD4  24404000           [02] self       0   0   257  ; 1803241227
004FD8  99800000           [03] loadk      2   2        ; "ArcaneUpgrader.Loom.Left.SingleLoom01"
004FDC  D9C00000           [04] loadk      3   3        ; "_totalframes"
004FE0  22800002           [05] call       0   4   2  
004FE4  65000000           [06] closure    1   0      
004FE8  12000000           [07] move       0   0      
004FEC  9D000100           [08] getglobal  2   4        ; 1390508688
004FF0  DD000000           [09] getglobal  3   0        ; mMovie
004FF4  19410100           [10] loadk      4   5        ; "ArcaneUpgrader.Loom"
004FF8  5D810100           [11] getglobal  5   6        ; UISys
004FFC  4EC1C102           [12] gettable   5   5   263  ; "FlashInstance_LINEAR"
005000  8B018000           [13] newtable   6   1   0    ; array=1, hash=0
005004  D2018000           [14] move       7   1      
005008  9B418000           [15] setlist    6   1   1    ; index 1 to 1
00500C  CB018000           [16] newtable   7   1   0    ; array=1, hash=0
005010  0D024200           [17] sub        8   0   264  ; 0
005014  DB418000           [18] setlist    7   1   1    ; index 1 to 1
005018  19420200           [19] loadk      8   9        ; 0
00501C  A2408003           [20] call       2   7   1  
005020  1E008000           [21] return     0   1      
                           * constants:
005024  0A                 sizek (10)
005025  04                 const type 4
005026  07                 string size (7)
005027  6D4D6F76696500     "mMovie\0"
                           const [0]: "mMovie"
00502E  01                 const type 3
00502F  0B477B6B           const [1]: (1803241227)
005033  04                 const type 4
005034  26                 string size (38)
005035  417263616E655570+  "ArcaneUp"
00503D  6772616465722E4C+  "grader.L"
005045  6F6F6D2E4C656674+  "oom.Left"
00504D  2E53696E676C654C+  ".SingleL"
005055  6F6F6D303100       "oom01\0"
                           const [2]: "ArcaneUpgrader.Loom.Left.SingleLoom01"
00505B  04                 const type 4
00505C  0D                 string size (13)
00505D  5F746F74616C6672+  "_totalfr"
005065  616D657300         "ames\0"
                           const [3]: "_totalframes"
00506A  01                 const type 3
00506B  907AE152           const [4]: (1390508688)
00506F  04                 const type 4
005070  14                 string size (20)
005071  417263616E655570+  "ArcaneUp"
005079  6772616465722E4C+  "grader.L"
005081  6F6F6D00           "oom\0"
                           const [5]: "ArcaneUpgrader.Loom"
005085  04                 const type 4
005086  06                 string size (6)
005087  554953797300       "UISys\0"
                           const [6]: "UISys"
00508D  04                 const type 4
00508E  15                 string size (21)
00508F  466C617368496E73+  "FlashIns"
005097  74616E63655F4C49+  "tance_LI"
00509F  4E45415200         "NEAR\0"
                           const [7]: "FlashInstance_LINEAR"
0050A4  03                 const type 3
0050A5  0000803F           const [8]: (0)
0050A9  03                 const type 3
0050AA  0000003F           const [9]: (0)
                           * functions:
0050AE  01                 sizep (1)
                           
0050AF                     ** function [0] definition (level 3)
                           ** start of function **
0050AF  00                 string size (0)
                           source name: (none)
0050B1  04                 line defined (537)
0050B2  9F                 last line defined (543)
0050B3  04                 nups (1)
0050B4  01                 numparams (1)
0050B5  01                 is_vararg (0)
0050B6  00                 maxstacksize (10)
                           * code:
0050B8  18                 sizecode (24)
0050B9  53000000           [01] getupval   1   0      
0050BD  0D008000           [02] sub        0   1   0  
0050C1  59000000           [03] loadk      1   0        ; 0
0050C5  99400000           [04] loadk      2   1        ; 0
0050C9  D9000000           [05] loadk      3   0        ; 0
0050CD  50C00380           [06] forprep    1   16       ; to [23]
0050D1  5D810000           [07] getglobal  5   2        ; -1939558487
0050D5  9DC10000           [08] getglobal  6   3        ; mMovie
0050D9  D9010100           [09] loadk      7   4        ; "ArcaneUpgrader.Loom.Left.SingleLoom0"
0050DD  12020002           [10] move       8   4      
0050E1  59420100           [11] loadk      9   5        ; ".gotoAndStop"
0050E5  C2418203           [12] concat     7   7   9  
0050E9  12020000           [13] move       8   0      
0050ED  62410002           [14] call       5   4   1  
0050F1  5D810000           [15] getglobal  5   2        ; -1939558487
0050F5  9DC10000           [16] getglobal  6   3        ; mMovie
0050F9  D9810100           [17] loadk      7   6        ; "ArcaneUpgrader.Loom.Right.SingleLoom0"
0050FD  12020002           [18] move       8   4      
005101  59420100           [19] loadk      9   5        ; ".gotoAndStop"
005105  C2418203           [20] concat     7   7   9  
005109  12020000           [21] move       8   0      
00510D  62410002           [22] call       5   4   1  
005111  5480FB7F           [23] forloop    1   -17      ; to [7] if loop
005115  1E008000           [24] return     0   1      
                           * constants:
005119  07                 sizek (7)
00511A  03                 const type 3
00511B  0000803F           const [0]: (0)
00511F  03                 const type 3
005120  00008040           const [1]: (0)
005124  01                 const type 3
005125  A9AF648C           const [2]: (-1939558487)
005129  04                 const type 4
00512A  07                 string size (7)
00512B  6D4D6F76696500     "mMovie\0"
                           const [3]: "mMovie"
005132  04                 const type 4
005133  25                 string size (37)
005134  417263616E655570+  "ArcaneUp"
00513C  6772616465722E4C+  "grader.L"
005144  6F6F6D2E4C656674+  "oom.Left"
00514C  2E53696E676C654C+  ".SingleL"
005154  6F6F6D3000         "oom0\0"
                           const [4]: "ArcaneUpgrader.Loom.Left.SingleLoom0"
005159  04                 const type 4
00515A  0D                 string size (13)
00515B  2E676F746F416E64+  ".gotoAnd"
005163  53746F7000         "Stop\0"
                           const [5]: ".gotoAndStop"
005168  04                 const type 4
005169  26                 string size (38)
00516A  417263616E655570+  "ArcaneUp"
005172  6772616465722E4C+  "grader.L"
00517A  6F6F6D2E52696768+  "oom.Righ"
005182  742E53696E676C65+  "t.Single"
00518A  4C6F6F6D3000       "Loom0\0"
                           const [6]: "ArcaneUpgrader.Loom.Right.SingleLoom0"
                           * functions:
005190  00                 sizep (0)
                           * lines:
005191  18                 sizelineinfo (24)
                           [pc] (line)
005192  1A                 [01] (26)
005193  02                 [02] (26)
005194  00                 [03] (27)
005195  00                 [04] (27)
005196  1A                 [05] (27)
005197  02                 [06] (27)
005198  00                 [07] (28)
005199  00                 [08] (28)
00519A  1B                 [09] (28)
00519B  02                 [10] (28)
00519C  00                 [11] (28)
00519D  00                 [12] (28)
00519E  1B                 [13] (28)
00519F  02                 [14] (28)
0051A0  00                 [15] (29)
0051A1  00                 [16] (29)
0051A2  1B                 [17] (29)
0051A3  02                 [18] (29)
0051A4  00                 [19] (29)
0051A5  00                 [20] (29)
0051A6  1B                 [21] (29)
0051A7  02                 [22] (29)
0051A8  00                 [23] (27)
0051A9  00                 [24] (31)
                           * locals:
0051F2  00                 sizelocvars (0)
                           * upvalues:
0051F3  00                 sizeupvalues (0)
                           ** end of function **

                           * lines:
0051F4  15                 sizelineinfo (21)
                           [pc] (line)
0051F5  16                 [01] (22)
0051F6  02                 [02] (22)
0051F7  00                 [03] (22)
0051F8  00                 [04] (22)
0051F9  16                 [05] (22)
0051FA  02                 [06] (31)
0051FB  00                 [07] (31)
0051FC  00                 [08] (33)
0051FD  16                 [09] (33)
0051FE  02                 [10] (33)
0051FF  00                 [11] (33)
005200  00                 [12] (33)
005201  16                 [13] (33)
005202  02                 [14] (33)
005203  00                 [15] (33)
005204  00                 [16] (33)
005205  16                 [17] (33)
005206  02                 [18] (33)
005207  00                 [19] (33)
005208  00                 [20] (33)
005209  1F                 [21] (34)
                           * locals:
005249  00                 sizelocvars (0)
                           * upvalues:
00524A  00                 sizeupvalues (0)
                           ** end of function **

                           
00524B                     ** function [13] definition (level 2)
                           ** start of function **
00524B  00                 string size (0)
                           source name: (none)
00524D  04                 line defined (548)
00524E  B0                 last line defined (560)
00524F  04                 nups (3)
005250  03                 numparams (1)
005251  01                 is_vararg (0)
005252  00                 maxstacksize (10)
                           * code:
005254  28                 sizecode (40)
005255  59000000           [01] loadk      1   0        ; 0
005259  99000000           [02] loadk      2   0        ; 0
00525D  D3000000           [03] getupval   3   0      
fail op	33
005261  21C00080           [04] tforloop   0       3    ; to [6] if exit
005265  1A000280           [05] jmp        9            ; to [15]
005269  D3000000           [06] getupval   3   0      
fail op	21
00526D  15008001           [07] concat     0   3   0  
005271  1A400180           [08] jmp        6            ; to [15]
005275  D3008000           [09] getupval   3   1      
fail op	35
005279  23C00000           [10] close      0  
00527D  1A800080           [11] jmp        3            ; to [15]
005281  59400000           [12] loadk      1   1        ; 0
005285  99400000           [13] loadk      2   1        ; 0
005289  1AC00180           [14] jmp        8            ; to [23]
00528D  D3000001           [15] getupval   3   2      
fail op	35
005291  6380C001           [16] close      1  
005295  1A000180           [17] jmp        5            ; to [23]
005299  D3000001           [18] getupval   3   2      
00529D  CDC0C001           [19] sub        3   3   259  ; 0
fail op	35
0052A1  23C00000           [20] close      0  
0052A5  1A000080           [21] jmp        1            ; to [23]
0052A9  59000100           [22] loadk      1   4        ; 0
0052AD  D9400100           [23] loadk      3   5        ; "ArcaneUpgrader.RankList.Rank"
0052B1  03C14000           [24] add        4   0   259  ; 0
0052B5  C2008101           [25] concat     3   3   4  
0052B9  1D810100           [26] getglobal  4   6        ; mMovie
0052BD  24C14102           [27] self       4   4   263  ; -2013161817
0052C1  92018001           [28] move       6   3      
0052C5  D9010200           [29] loadk      7   8        ; "Backer"
0052C9  19420200           [30] loadk      8   9        ; "_alpha"
0052CD  52028000           [31] move       9   1      
0052D1  22410003           [32] call       4   6   1  
0052D5  1D810100           [33] getglobal  4   6        ; mMovie
0052D9  24C14102           [34] self       4   4   263  ; -2013161817
0052DD  92018001           [35] move       6   3      
0052E1  D9810200           [36] loadk      7   10       ; "Gradient"
0052E5  19420200           [37] loadk      8   9        ; "_alpha"
0052E9  52020001           [38] move       9   2      
0052ED  22410003           [39] call       4   6   1  
0052F1  1E008000           [40] return     0   1      
                           * constants:
0052F5  0B                 sizek (11)
0052F6  03                 const type 3
0052F7  00000000           const [0]: (0)
0052FB  03                 const type 3
0052FC  0000C842           const [1]: (0)
005300  00                 const type 0
                           const [2]: nil
005301  03                 const type 3
005302  0000803F           const [3]: (0)
005306  03                 const type 3
005307  00004842           const [4]: (0)
00530B  04                 const type 4
00530C  1D                 string size (29)
00530D  417263616E655570+  "ArcaneUp"
005315  6772616465722E52+  "grader.R"
00531D  616E6B4C6973742E+  "ankList."
005325  52616E6B00         "Rank\0"
                           const [5]: "ArcaneUpgrader.RankList.Rank"
00532A  04                 const type 4
00532B  07                 string size (7)
00532C  6D4D6F76696500     "mMovie\0"
                           const [6]: "mMovie"
005333  01                 const type 3
005334  A7960188           const [7]: (-2013161817)
005338  04                 const type 4
005339  07                 string size (7)
00533A  4261636B657200     "Backer\0"
                           const [8]: "Backer"
005341  04                 const type 4
005342  07                 string size (7)
005343  5F616C70686100     "_alpha\0"
                           const [9]: "_alpha"
00534A  04                 const type 4
00534B  09                 string size (9)
00534C  4772616469656E74+  "Gradient"
005354  00                 "\0"
                           const [10]: "Gradient"
                           * functions:
005355  00                 sizep (0)
                           * lines:
005356  28                 sizelineinfo (40)
                           [pc] (line)
005357  25                 [01] (37)
005358  02                 [02] (38)
005359  00                 [03] (39)
00535A  00                 [04] (39)
00535B  26                 [05] (39)
00535C  02                 [06] (39)
00535D  00                 [07] (39)
00535E  00                 [08] (39)
00535F  27                 [09] (39)
005360  02                 [10] (39)
005361  00                 [11] (39)
005362  00                 [12] (40)
005363  27                 [13] (41)
005364  02                 [14] (41)
005365  00                 [15] (42)
005366  00                 [16] (42)
005367  27                 [17] (42)
005368  02                 [18] (42)
005369  00                 [19] (42)
00536A  00                 [20] (42)
00536B  27                 [21] (42)
00536C  02                 [22] (43)
00536D  00                 [23] (45)
00536E  00                 [24] (45)
00536F  27                 [25] (45)
005370  02                 [26] (46)
005371  00                 [27] (46)
005372  00                 [28] (46)
005373  27                 [29] (46)
005374  02                 [30] (46)
005375  00                 [31] (46)
005376  00                 [32] (46)
005377  27                 [33] (47)
005378  02                 [34] (47)
005379  00                 [35] (47)
00537A  00                 [36] (47)
00537B  27                 [37] (47)
00537C  02                 [38] (47)
00537D  00                 [39] (47)
00537E  00                 [40] (48)
                           * locals:
0053F7  00                 sizelocvars (0)
                           * upvalues:
0053F8  00                 sizeupvalues (0)
                           ** end of function **

                           
0053F9                     ** function [14] definition (level 2)
                           ** start of function **
0053F9  00                 string size (0)
                           source name: (none)
0053FB  04                 line defined (562)
0053FC  8F                 last line defined (783)
0053FD  06                 nups (16)
0053FE  10                 numparams (2)
0053FF  02                 is_vararg (0)
005400  00                 maxstacksize (77)
                           * code:
005403  07                 sizecode (909)
005404  9D000000           [001] getglobal  2   0        ; 1074689893
005408  D2000000           [002] move       3   0      
00540C  A2800001           [003] call       2   2   2  
005410  98000000           [004] test       2       0    ; to [6] if true
005414  1A000080           [005] jmp        1            ; to [7]
005418  1E008000           [006] return     0   1      
00541C  8E404000           [007] gettable   2   0   257  ; "Filler"
005420  98400000           [008] test       2       1    ; to [10] if false
005424  1A000080           [009] jmp        1            ; to [11]
005428  8E804000           [010] gettable   2   0   258  ; "IsNone"
00542C  DDC00000           [011] getglobal  3   3        ; mMovie
005430  E400C101           [012] self       3   3   260  ; 471456102
005434  59410100           [013] loadk      5   5        ; "ArcaneUpgrader.Hint"
005438  99810100           [014] loadk      6   6        ; "_visible"
00543C  D2010001           [015] move       7   2      
005440  E2408002           [016] call       3   5   1  
005444  DDC00000           [017] getglobal  3   3        ; mMovie
005448  E400C101           [018] self       3   3   260  ; 471456102
00544C  59C10100           [019] loadk      5   7        ; "ArcaneUpgrader.HintIcon"
005450  99810100           [020] loadk      6   6        ; "_visible"
005454  D2010001           [021] move       7   2      
005458  E2408002           [022] call       3   5   1  
00545C  DDC00000           [023] getglobal  3   3        ; mMovie
005460  E400C101           [024] self       3   3   260  ; 471456102
005464  59010200           [025] loadk      5   8        ; "ArcaneUpgrader.Icon"
005468  99810100           [026] loadk      6   6        ; "_visible"
fail op	9
00546C  C9010001           [027] settable   7   2   0  
005470  E2408002           [028] call       3   5   1  
005474  DDC00000           [029] getglobal  3   3        ; mMovie
005478  E400C101           [030] self       3   3   260  ; 471456102
00547C  59410200           [031] loadk      5   9        ; "ArcaneUpgrader.RankList"
005480  99810100           [032] loadk      6   6        ; "_visible"
fail op	9
005484  C9010001           [033] settable   7   2   0  
005488  E2408002           [034] call       3   5   1  
00548C  DDC00000           [035] getglobal  3   3        ; mMovie
005490  E400C101           [036] self       3   3   260  ; 471456102
005494  59810200           [037] loadk      5   10       ; "ArcaneUpgrader.ScrollBar"
005498  99810100           [038] loadk      6   6        ; "_visible"
fail op	9
00549C  C9010001           [039] settable   7   2   0  
0054A0  E2408002           [040] call       3   5   1  
0054A4  DDC00000           [041] getglobal  3   3        ; mMovie
0054A8  E400C101           [042] self       3   3   260  ; 471456102
0054AC  59C10200           [043] loadk      5   11       ; "ArcaneUpgrader.UpgradeConfirm"
0054B0  99810100           [044] loadk      6   6        ; "_visible"
fail op	9
0054B4  C9010001           [045] settable   7   2   0  
0054B8  E2408002           [046] call       3   5   1  
0054BC  DDC00000           [047] getglobal  3   3        ; mMovie
0054C0  E400C101           [048] self       3   3   260  ; 471456102
0054C4  59010300           [049] loadk      5   12       ; "ArcaneUpgrader.Loom"
0054C8  99810100           [050] loadk      6   6        ; "_visible"
fail op	9
0054CC  C9010001           [051] settable   7   2   0  
0054D0  E2408002           [052] call       3   5   1  
0054D4  D3000000           [053] getupval   3   0      
0054D8  E440C301           [054] self       3   3   269  ; 1649906088
fail op	9
0054DC  49010001           [055] settable   5   2   0  
0054E0  E2408001           [056] call       3   3   1  
0054E4  D3008000           [057] getupval   3   1      
0054E8  E440C301           [058] self       3   3   269  ; 1649906088
fail op	9
0054EC  49010001           [059] settable   5   2   0  
0054F0  E2408001           [060] call       3   3   1  
0054F4  D9800300           [061] loadk      3   14       ; 0
0054F8  19C10300           [062] loadk      4   15       ; 0
0054FC  59010400           [063] loadk      5   16       ; 0
005500  D0400280           [064] forprep    3   10       ; to [75]
005504  DDC10000           [065] getglobal  7   3        ; mMovie
005508  E401C103           [066] self       7   7   260  ; 471456102
00550C  59420400           [067] loadk      9   17       ; "ArcaneUpgrader.Progress"
005510  9D820400           [068] getglobal  10  18       ; -1615931716
005514  C3024403           [069] add        11  6   272  ; 0
005518  A2820001           [070] call       10  2   2  
00551C  42828204           [071] concat     9   9   10 
005520  99820100           [072] loadk      10  6        ; "_visible"
fail op	9
005524  C9020001           [073] settable   11  2   0  
005528  E2418002           [074] call       7   5   1  
00552C  D400FD7F           [075] forloop    3   -11      ; to [65] if loop
005530  D9010400           [076] loadk      7   16       ; 0
005534  19C20400           [077] loadk      8   19       ; 0
005538  59020400           [078] loadk      9   16       ; 0
00553C  D0810480           [079] forprep    7   19       ; to [99]
005540  DDC20000           [080] getglobal  11  3        ; mMovie
005544  E402C505           [081] self       11  11  276  ; 643307062
005548  59430500           [082] loadk      13  21       ; "ArcaneUpgrader.Arcane"
00554C  9D830400           [083] getglobal  14  18       ; -1615931716
005550  D2030005           [084] move       15  10     
005554  A2830001           [085] call       14  2   2  
005558  42838306           [086] concat     13  13  14 
00555C  9D830500           [087] getglobal  14  22       ; arcaneIcon
005560  E2420002           [088] call       11  4   1  
005564  DDC20000           [089] getglobal  11  3        ; mMovie
005568  E402C105           [090] self       11  11  260  ; 471456102
00556C  59430500           [091] loadk      13  21       ; "ArcaneUpgrader.Arcane"
005570  9D830400           [092] getglobal  14  18       ; -1615931716
005574  D2030005           [093] move       15  10     
005578  A2830001           [094] call       14  2   2  
00557C  42838306           [095] concat     13  13  14 
005580  99830100           [096] loadk      14  6        ; "_visible"
fail op	9
005584  C9030001           [097] settable   15  2   0  
005588  E2428002           [098] call       11  5   1  
00558C  D4C1FA7F           [099] forloop    7   -20      ; to [80] if loop
005590  98000000           [100] test       2       0    ; to [102] if true
005594  1A000F80           [101] jmp        61           ; to [163]
005598  D9C20500           [102] loadk      11  23       ; "/Lotus/Language/Menu/"
00559C  13030001           [103] getupval   12  2      
0055A0  0E034606           [104] gettable   12  12  280  ; -132701534
0055A4  4E434000           [105] gettable   13  0   257  ; "Filler"
0055A8  99430600           [106] loadk      14  25       ; "ArcaneManager_UninstallHint"
0055AC  D9830600           [107] loadk      15  26       ; "ArcaneManager_UnequipHint"
0055B0  22830002           [108] call       12  4   2  
0055B4  C2028305           [109] concat     11  11  12 
0055B8  0E834000           [110] gettable   12  0   258  ; "IsNone"
0055BC  18030000           [111] test       12      0    ; to [113] if true
0055C0  1A000880           [112] jmp        33           ; to [146]
0055C4  13038001           [113] getupval   12  3      
0055C8  0EC34606           [114] gettable   12  12  283  ; "AttachedUpgrades"
0055CC  53038001           [115] getupval   13  3      
0055D0  4E03C706           [116] gettable   13  13  284  ; "Slot"
0055D4  0E430306           [117] gettable   12  12  13 
0055D8  59430700           [118] loadk      13  29       ; ""
0055DC  9D030000           [119] getglobal  14  0        ; 1074689893
0055E0  D3030002           [120] getupval   15  4      
0055E4  A2830001           [121] call       14  2   2  
0055E8  98430000           [122] test       14      1    ; to [124] if false
0055EC  1A400380           [123] jmp        14           ; to [138]
0055F0  93038002           [124] getupval   14  5      
0055F4  8E834707           [125] gettable   14  14  286  ; 460674431
0055F8  DDC30000           [126] getglobal  15  3        ; mMovie
0055FC  13040002           [127] getupval   16  4      
005600  24C44708           [128] self       16  16  287  ; 1660666296
005604  8E044806           [129] gettable   18  12  288  ; "mItemType"
005608  22048001           [130] call       16  3   0  
00560C  A2830000           [131] call       14  0   2  
005610  DD030000           [132] getglobal  15  0        ; 1074689893
005614  12040007           [133] move       16  14     
005618  E2830001           [134] call       15  2   2  
00561C  D8430000           [135] test       15      1    ; to [137] if false
005620  1A000080           [136] jmp        1            ; to [138]
005624  4E434807           [137] gettable   13  14  289  ; "Name"
005628  DDC30000           [138] getglobal  15  3        ; mMovie
00562C  E483C807           [139] self       15  15  290  ; 98241492
005630  52048005           [140] move       17  11     
005634  97040000           [141] loadbool   18  0   0    ; false
005638  CB440000           [142] newtable   19  0   1    ; array=0, hash=1
00563C  CC448391           [143] settable   19  291 13   ; "ARCANE"
005640  E2838002           [144] call       15  5   2  
005644  D2028007           [145] move       11  15     
005648  DDC30000           [146] getglobal  15  3        ; mMovie
00564C  E403C907           [147] self       15  15  292  ; 386043535
005650  59440900           [148] loadk      17  37       ; "ArcaneUpgrader.Hint.text"
005654  92048005           [149] move       18  11     
005658  E2430002           [150] call       15  4   1  
00565C  DDC30000           [151] getglobal  15  3        ; mMovie
005660  E403C107           [152] self       15  15  260  ; 471456102
005664  59C40100           [153] loadk      17  7        ; "ArcaneUpgrader.HintIcon"
005668  99840900           [154] loadk      18  38       ; "_alpha"
00566C  D9C40400           [155] loadk      19  19       ; 0
005670  E2438002           [156] call       15  5   1  
005674  DDC30000           [157] getglobal  15  3        ; mMovie
005678  E403C507           [158] self       15  15  276  ; 643307062
00567C  59C40100           [159] loadk      17  7        ; "ArcaneUpgrader.HintIcon"
005680  9D840500           [160] getglobal  18  22       ; arcaneIcon
005684  E2430002           [161] call       15  4   1  
005688  1E008000           [162] return     0   1      
00568C  DDC30000           [163] getglobal  15  3        ; mMovie
005690  E403C107           [164] self       15  15  260  ; 471456102
005694  59440200           [165] loadk      17  9        ; "ArcaneUpgrader.RankList"
005698  99C40900           [166] loadk      18  39       ; "_y"
00569C  D9040A00           [167] loadk      19  40       ; 0
0056A0  E2438002           [168] call       15  5   1  
0056A4  D9430A00           [169] loadk      15  41       ; 0
fail op	8
0056A8  C8030003           [170] setupval   15  6      
0056AC  DD030000           [171] getglobal  15  0        ; 1074689893
0056B0  0E844A00           [172] gettable   16  0   298  ; "Arcane"
0056B4  0EC44A08           [173] gettable   16  16  299  ; "mInstance"
0056B8  E2830001           [174] call       15  2   2  
0056BC  D8430000           [175] test       15      1    ; to [177] if false
0056C0  1A400280           [176] jmp        10           ; to [187]
0056C4  CE034B00           [177] gettable   15  0   300  ; "NotOwned"
0056C8  D8430000           [178] test       15      1    ; to [180] if false
0056CC  1A800180           [179] jmp        7            ; to [187]
0056D0  CE834A00           [180] gettable   15  0   298  ; "Arcane"
0056D4  CEC3CA07           [181] gettable   15  15  299  ; "mInstance"
0056D8  E443CB07           [182] self       15  15  301  ; 1866047198
0056DC  4E844A00           [183] gettable   17  0   298  ; "Arcane"
0056E0  4E84CB08           [184] gettable   17  17  302  ; "mUpgradeFingerprint"
0056E4  E2838001           [185] call       15  3   2  
fail op	8
0056E8  C8030003           [186] setupval   15  6      
0056EC  98400000           [187] test       2       1    ; to [189] if false
0056F0  1AC00080           [188] jmp        4            ; to [193]
0056F4  58000000           [189] test       1       0    ; to [191] if true
0056F8  1A400080           [190] jmp        2            ; to [193]
0056FC  D3038003           [191] getupval   15  7      
005700  E2438000           [192] call       15  1   1  
005704  DD030000           [193] getglobal  15  0        ; 1074689893
005708  0EC44B00           [194] gettable   16  0   303  ; "Icon"
00570C  E2830001           [195] call       15  2   2  
005710  D8430000           [196] test       15      1    ; to [198] if false
005714  1A400680           [197] jmp        26           ; to [224]
005718  DDC30000           [198] getglobal  15  3        ; mMovie
00571C  E403C107           [199] self       15  15  260  ; 471456102
005720  59040200           [200] loadk      17  8        ; "ArcaneUpgrader.Icon"
005724  99040C00           [201] loadk      18  48       ; "_width"
005728  DD440C00           [202] getglobal  19  49       ; -174740002
00572C  1DC50000           [203] getglobal  20  3        ; mMovie
005730  24854C0A           [204] self       20  20  306  ; 1803241227
005734  99050200           [205] loadk      22  8        ; "ArcaneUpgrader.Icon"
005738  D9C50C00           [206] loadk      23  51       ; "_height"
00573C  22850002           [207] call       20  4   2  
005740  04054D0A           [208] mul        20  20  308  ; -51
005744  E2040001           [209] call       19  2   0  
005748  E2430000           [210] call       15  0   1  
00574C  DDC30000           [211] getglobal  15  3        ; mMovie
005750  E403C107           [212] self       15  15  260  ; 471456102
005754  59440D00           [213] loadk      17  53       ; "ArcaneUpgradeAnim.Arcane.Icon"
005758  99040C00           [214] loadk      18  48       ; "_width"
00575C  DD440C00           [215] getglobal  19  49       ; -174740002
005760  1DC50000           [216] getglobal  20  3        ; mMovie
005764  24854C0A           [217] self       20  20  306  ; 1803241227
005768  99450D00           [218] loadk      22  53       ; "ArcaneUpgradeAnim.Arcane.Icon"
00576C  D9C50C00           [219] loadk      23  51       ; "_height"
005770  22850002           [220] call       20  4   2  
005774  04054D0A           [221] mul        20  20  308  ; -51
005778  E2040001           [222] call       19  2   0  
00577C  E2430000           [223] call       15  0   1  
005780  DDC30000           [224] getglobal  15  3        ; mMovie
005784  E483CD07           [225] self       15  15  310  ; 1145284071
005788  59040200           [226] loadk      17  8        ; "ArcaneUpgrader.Icon"
00578C  8EC44B00           [227] gettable   18  0   303  ; "Icon"
005790  CEC44D00           [228] gettable   19  0   311  ; "Material"
005794  E2438002           [229] call       15  5   1  
005798  DDC30000           [230] getglobal  15  3        ; mMovie
00579C  E403CE07           [231] self       15  15  312  ; 808102703
0057A0  59040200           [232] loadk      17  8        ; "ArcaneUpgrader.Icon"
0057A4  99440E00           [233] loadk      18  57       ; "VisibilitySize"
0057A8  D9840E00           [234] loadk      19  58       ; 0
0057AC  19850300           [235] loadk      20  14       ; 0
0057B0  59850300           [236] loadk      21  14       ; 0
0057B4  99850300           [237] loadk      22  14       ; 0
0057B8  E2430004           [238] call       15  8   1  
0057BC  CE034B00           [239] gettable   15  0   300  ; "NotOwned"
fail op	9
0057C0  C9038007           [240] settable   15  15  0  
0057C4  D8030000           [241] test       15      0    ; to [243] if true
0057C8  1A400280           [242] jmp        10           ; to [253]
0057CC  1DC40000           [243] getglobal  16  3        ; mMovie
0057D0  24044E08           [244] self       16  16  312  ; 808102703
0057D4  99040200           [245] loadk      18  8        ; "ArcaneUpgrader.Icon"
0057D8  D9C40E00           [246] loadk      19  59       ; "DetailMapParams"
0057DC  19050400           [247] loadk      20  16       ; 0
0057E0  59850300           [248] loadk      21  14       ; 0
0057E4  99050400           [249] loadk      22  16       ; 0
0057E8  D9050400           [250] loadk      23  16       ; 0
0057EC  22440004           [251] call       16  8   1  
0057F0  1A000280           [252] jmp        9            ; to [262]
0057F4  1DC40000           [253] getglobal  16  3        ; mMovie
0057F8  24044E08           [254] self       16  16  312  ; 808102703
0057FC  99040200           [255] loadk      18  8        ; "ArcaneUpgrader.Icon"
005800  D9C40E00           [256] loadk      19  59       ; "DetailMapParams"
005804  19050F00           [257] loadk      20  60       ; -51
005808  59850300           [258] loadk      21  14       ; 0
00580C  99050400           [259] loadk      22  16       ; 0
005810  D9050400           [260] loadk      23  16       ; 0
005814  22440004           [261] call       16  8   1  
005818  1DC40000           [262] getglobal  16  3        ; mMovie
00581C  24844D08           [263] self       16  16  310  ; 1145284071
005820  99440D00           [264] loadk      18  53       ; "ArcaneUpgradeAnim.Arcane.Icon"
005824  CEC44B00           [265] gettable   19  0   303  ; "Icon"
005828  0EC54D00           [266] gettable   20  0   311  ; "Material"
00582C  22448002           [267] call       16  5   1  
005830  1DC40000           [268] getglobal  16  3        ; mMovie
005834  24044E08           [269] self       16  16  312  ; 808102703
005838  99440D00           [270] loadk      18  53       ; "ArcaneUpgradeAnim.Arcane.Icon"
00583C  D9440E00           [271] loadk      19  57       ; "VisibilitySize"
005840  19850E00           [272] loadk      20  58       ; 0
005844  59850300           [273] loadk      21  14       ; 0
005848  99850300           [274] loadk      22  14       ; 0
00584C  D9850300           [275] loadk      23  14       ; 0
005850  22440004           [276] call       16  8   1  
005854  19440700           [277] loadk      16  29       ; ""
005858  59440700           [278] loadk      17  29       ; ""
00585C  99440700           [279] loadk      18  29       ; ""
005860  D3040003           [280] getupval   19  6      
fail op	35
005864  63C0C309           [281] close      1  
005868  1A403C80           [282] jmp        242          ; to [525]
00586C  DD440F00           [283] getglobal  19  61       ; gGameData
005870  E484CF09           [284] self       19  19  318  ; 1865287165
005874  E2840001           [285] call       19  2   2  
005878  1D050000           [286] getglobal  20  0        ; 1074689893
00587C  52058009           [287] move       21  19     
005880  22850001           [288] call       20  2   2  
005884  18050000           [289] test       20      0    ; to [291] if true
005888  1A400180           [290] jmp        6            ; to [297]
00588C  1DC50F00           [291] getglobal  20  63       ; -1817107093
005890  59051000           [292] loadk      21  64       ; "ERROR: No inventory!"
005894  22450001           [293] call       20  2   1  
005898  1D451000           [294] getglobal  20  65       ; 317968122
00589C  57050000           [295] loadbool   21  0   0    ; false
0058A0  22450001           [296] call       20  2   1  
0058A4  19850300           [297] loadk      20  14       ; 0
0058A8  59850300           [298] loadk      21  14       ; 0
0058AC  99850300           [299] loadk      22  14       ; 0
0058B0  E485D009           [300] self       23  19  322  ; 104901246
0058B4  E2850001           [301] call       23  2   2  
0058B8  1DC61000           [302] getglobal  24  67       ; 248503575
0058BC  5206800B           [303] move       25  23     
0058C0  22060101           [304] call       24  2   4  
0058C4  1A000380           [305] jmp        13           ; to [319]
0058C8  4E07480E           [306] gettable   29  28  288  ; "mItemType"
0058CC  6407D10E           [307] self       29  29  324  ; -1957065004
0058D0  D3070004           [308] getupval   31  8      
0058D4  62878001           [309] call       29  3   2  
0058D8  58070000           [310] test       29      0    ; to [312] if true
0058DC  1A800180           [311] jmp        7            ; to [319]
0058E0  4E07480E           [312] gettable   29  28  288  ; "mItemType"
0058E4  8E874A00           [313] gettable   30  0   298  ; "Arcane"
0058E8  8E07480F           [314] gettable   30  30  288  ; "mItemType"
fail op	35
0058EC  2380870E           [315] close      0  
0058F0  1A400080           [316] jmp        2            ; to [319]
0058F4  0E45510E           [317] gettable   20  28  325  ; "mItemCount"
0058F8  1A400080           [318] jmp        2            ; to [321]
0058FC  16860000           [319] tforloop   24      2    ; to [321] if exit
005900  1A00FC7F           [320] jmp        -15          ; to [306]
005904  59870300           [321] loadk      29  14       ; 0
005908  93070003           [322] getupval   30  6      
00590C  D9070400           [323] loadk      31  16       ; 0
005910  50470080           [324] forprep    29  2        ; to [327]
005914  4308080B           [325] add        33  22  32 
005918  8305C410           [326] add        22  33  272  ; 0
00591C  5407FF7F           [327] forloop    29  -3       ; to [325] if loop
005920  53080003           [328] getupval   33  6      
005924  93088004           [329] getupval   34  9      
005928  8D084411           [330] sub        34  34  272  ; 0
00592C  D9080400           [331] loadk      35  16       ; 0
005930  50480080           [332] forprep    33  2        ; to [335]
005934  4309890A           [333] add        37  21  36 
005938  4385D112           [334] add        21  37  326  ; 0
00593C  5408FF7F           [335] forloop    33  -3       ; to [333] if loop
005940  53090003           [336] getupval   37  6      
fail op	35
005944  2380C312           [337] close      0  
005948  1A800080           [338] jmp        3            ; to [342]
00594C  59090400           [339] loadk      37  16       ; 0
005950  58490000           [340] test       37      1    ; to [342] if false
005954  1A000080           [341] jmp        1            ; to [343]
005958  59890300           [342] loadk      37  14       ; 0
00595C  8349890A           [343] add        38  21  37 
fail op	21
005960  1580090A           [344] concat     0   20  38 
005964  1A400380           [345] jmp        14           ; to [360]
005968  93098004           [346] getupval   38  9      
fail op	35
00596C  63804313           [347] close      1  
005970  1A800280           [348] jmp        11           ; to [360]
005974  93090005           [349] getupval   38  10     
fail op	8
005978  88098004           [350] setupval   38  9      
00597C  59850300           [351] loadk      21  14       ; 0
005980  93090003           [352] getupval   38  6      
005984  D3098004           [353] getupval   39  9      
005988  CD09C413           [354] sub        39  39  272  ; 0
00598C  190A0400           [355] loadk      40  16       ; 0
005990  90490080           [356] forprep    38  2        ; to [359]
005994  834A8A0A           [357] add        42  21  41 
005998  43855115           [358] add        21  42  326  ; 0
00599C  9409FF7F           [359] forloop    38  -3       ; to [357] if loop
0059A0  930A8004           [360] getupval   42  9      
fail op	8
0059A4  880A0005           [361] setupval   42  10     
0059A8  990A0400           [362] loadk      42  16       ; 0
0059AC  D9CA0400           [363] loadk      43  19       ; 0
0059B0  190B0400           [364] loadk      44  16       ; 0
0059B4  908A0980           [365] forprep    42  39       ; to [405]
0059B8  994B0500           [366] loadk      46  21       ; "ArcaneUpgrader.Arcane"
0059BC  DD8B0400           [367] getglobal  47  18       ; -1615931716
0059C0  120C8016           [368] move       48  45     
0059C4  E28B0001           [369] call       47  2   2  
0059C8  82CB0B17           [370] concat     46  46  47 
0059CC  DDCB0000           [371] getglobal  47  3        ; mMovie
0059D0  E40BC117           [372] self       47  47  260  ; 471456102
0059D4  520C0017           [373] move       49  46     
0059D8  998C0900           [374] loadk      50  38       ; "_alpha"
0059DC  D30C0001           [375] getupval   51  2      
0059E0  CE0CC619           [376] gettable   51  51  280  ; -132701534
0059E4  034D050B           [377] add        52  22  21 
fail op	33
0059E8  61008D16           [378] tforloop   1       52   ; to [380] if exit
0059EC  1A000080           [379] jmp        1            ; to [381]
0059F0  174D0000           [380] loadbool   52  0   1    ; false, to [382]
0059F4  170D8000           [381] loadbool   52  1   0    ; true
0059F8  598D0E00           [382] loadk      53  58       ; 0
0059FC  99CD1100           [383] loadk      54  71       ; 0
005A00  E20C0002           [384] call       51  4   0  
005A04  E24B0000           [385] call       47  0   1  
005A08  DDCB0000           [386] getglobal  47  3        ; mMovie
005A0C  E40BC117           [387] self       47  47  260  ; 471456102
005A10  520C0017           [388] move       49  46     
005A14  990C1200           [389] loadk      50  72       ; "_color"
005A18  D30C0001           [390] getupval   51  2      
005A1C  CE0CC619           [391] gettable   51  51  280  ; -132701534
fail op	21
005A20  15400B0B           [392] concat     0   22  45 
005A24  1A800080           [393] jmp        3            ; to [397]
005A28  034D050B           [394] add        52  22  21 
fail op	33
005A2C  61008D16           [395] tforloop   1       52   ; to [397] if exit
005A30  1A000080           [396] jmp        1            ; to [398]
005A34  174D0000           [397] loadbool   52  0   1    ; false, to [399]
005A38  170D8000           [398] loadbool   52  1   0    ; true
005A3C  5D4D1200           [399] getglobal  53  73       ; _G
005A40  4E8DD21A           [400] gettable   53  53  330  ; "UIColor_Yellow"
005A44  9D4D1200           [401] getglobal  54  73       ; _G
005A48  8ECD521B           [402] gettable   54  54  331  ; "UIColor_White"
005A4C  E20C0002           [403] call       51  4   0  
005A50  E24B0000           [404] call       47  0   1  
005A54  94CAF57F           [405] forloop    42  -40      ; to [366] if loop
005A58  D30B8004           [406] getupval   47  9      
005A5C  C3CB8B0A           [407] add        47  21  47 
005A60  C38BD117           [408] add        47  47  326  ; 0
005A64  C34B8917           [409] add        47  47  37 
005A68  CD0B8517           [410] sub        47  47  20 
005A6C  130C8000           [411] getupval   48  1      
005A70  240C5318           [412] self       48  48  332  ; -492641364
fail op	33
005A74  2180C317           [413] tforloop   0       270  ; to [415] if exit
005A78  1A800080           [414] jmp        3            ; to [418]
005A7C  930C8004           [415] getupval   50  9      
fail op	21
005A80  55C04319           [416] concat     1   50  271
005A84  1A000080           [417] jmp        1            ; to [419]
005A88  974C0000           [418] loadbool   50  0   1    ; false, to [420]
005A8C  970C8000           [419] loadbool   50  1   0    ; true
005A90  224C8001           [420] call       48  3   1  
005A94  130C0000           [421] getupval   48  0      
005A98  240C5318           [422] self       48  48  332  ; -492641364
fail op	5
005A9C  850C8007           [423] getglobal  50  7680     ; nil
005AA0  1A400180           [424] jmp        6            ; to [431]
005AA4  930C8004           [425] getupval   50  9      
005AA8  D30C0003           [426] getupval   51  6      
fail op	21
005AAC  55808C19           [427] concat     1   51  50 
005AB0  1A000080           [428] jmp        1            ; to [430]
005AB4  974C0000           [429] loadbool   50  0   1    ; false, to [431]
005AB8  970C8000           [430] loadbool   50  1   0    ; true
005ABC  224C8001           [431] call       48  3   1  
005AC0  59441300           [432] loadk      17  77       ; "/Lotus/Language/Menu/Loadout_UpgradeSystemInstall"
005AC4  D8030000           [433] test       15      0    ; to [435] if true
005AC8  1A800380           [434] jmp        15           ; to [450]
005ACC  130C8004           [435] getupval   48  9      
005AD0  530C0003           [436] getupval   49  6      
fail op	21
005AD4  15008C18           [437] concat     0   49  48 
005AD8  1A800280           [438] jmp        11           ; to [450]
005ADC  1DCC0000           [439] getglobal  48  3        ; mMovie
005AE0  248C4818           [440] self       48  48  290  ; 98241492
005AE4  998C1300           [441] loadk      50  78       ; "/Lotus/Language/Menu/ArcaneManager_UpgradeWithNum"
005AE8  D70C0000           [442] loadbool   51  0   0    ; false
005AEC  0B4D0000           [443] newtable   52  0   1    ; array=0, hash=1
005AF0  5D4D0C00           [444] getglobal  53  49       ; -174740002
005AF4  920D800A           [445] move       54  21     
005AF8  628D0001           [446] call       53  2   2  
005AFC  0C4D8DA7           [447] settable   52  335 53   ; "NUM"
005B00  228C8002           [448] call       48  5   2  
005B04  52040018           [449] move       17  48     
005B08  130C8004           [450] getupval   48  9      
005B0C  530C0003           [451] getupval   49  6      
fail op	35
005B10  63400C18           [452] close      1  
005B14  1A400980           [453] jmp        38           ; to [492]
005B18  1D0C1400           [454] getglobal  48  80       ; Lotus_Game
005B1C  0E4C5418           [455] gettable   48  48  337  ; -1445633957
005B20  228C8000           [456] call       48  1   2  
005B24  4E8C4A00           [457] gettable   49  0   298  ; "Arcane"
005B28  4E0CC818           [458] gettable   49  49  288  ; "mItemType"
005B2C  0C4C0C90           [459] settable   48  288 49   ; "mItemType"
005B30  598C1400           [460] loadk      49  82       ; "{"
005B34  99CC1400           [461] loadk      50  83       ; "\"lvl\":"
005B38  DD8C0400           [462] getglobal  51  18       ; -1615931716
005B3C  130D8004           [463] getupval   52  9      
005B40  E28C0001           [464] call       51  2   2  
005B44  190D1500           [465] loadk      52  84       ; "}"
005B48  420C8D18           [466] concat     49  49  52 
005B4C  0C4C0C97           [467] settable   48  302 49   ; "mUpgradeFingerprint"
005B50  530C8005           [468] getupval   49  11     
005B54  4E4CD518           [469] gettable   49  49  341  ; -471303515
005B58  9DCC0000           [470] getglobal  50  3        ; mMovie
005B5C  D20C0018           [471] move       51  48     
005B60  628C8001           [472] call       49  3   2  
005B64  9DCC0000           [473] getglobal  50  3        ; mMovie
005B68  A48C4819           [474] self       50  50  290  ; 98241492
005B6C  198D1500           [475] loadk      52  86       ; "/Lotus/Language/Menu/ArcaneManager_UpgradeHint"
005B70  570D0000           [476] loadbool   53  0   0    ; false
005B74  8B8D0000           [477] newtable   54  0   2    ; array=0, hash=2
005B78  D90D1600           [478] loadk      55  88       ; "<br><b>"
005B7C  0E4E4800           [479] gettable   56  0   289  ; "Name"
005B80  C20D8E1B           [480] concat     55  55  56 
005B84  8CCD8DAB           [481] settable   54  343 55   ; "NAME"
005B88  D20D8018           [482] move       55  49     
005B8C  198E1600           [483] loadk      56  90       ; "</b>"
005B90  C20D8E1B           [484] concat     55  55  56 
005B94  8CCD8DAC           [485] settable   54  345 55   ; "RANK"
005B98  A28C8002           [486] call       50  5   2  
fail op	8
005B9C  880C0006           [487] setupval   50  12     
005BA0  99CC1600           [488] loadk      50  91       ; "<p><font >"
005BA4  D30C0006           [489] getupval   51  12     
005BA8  190D1700           [490] loadk      52  92       ; "</font></p>"
005BAC  82040D19           [491] concat     18  50  52 
005BB0  930C8004           [492] getupval   50  9      
fail op	35
005BB4  23C04319           [493] close      0  
005BB8  1A400080           [494] jmp        2            ; to [497]
005BBC  19441700           [495] loadk      16  93       ; "/Lotus/Language/Ranks/MaxRank"
005BC0  1A400980           [496] jmp        38           ; to [535]
fail op	33
005BC4  2180C317           [497] tforloop   0       270  ; to [499] if exit
005BC8  1A800380           [498] jmp        15           ; to [514]
005BCC  9DCC0000           [499] getglobal  50  3        ; mMovie
005BD0  A48C4819           [500] self       50  50  290  ; 98241492
005BD4  198D1700           [501] loadk      52  94       ; "/Lotus/Language/Menu/NextRankCost"
005BD8  570D0000           [502] loadbool   53  0   0    ; false
005BDC  8B8D0000           [503] newtable   54  0   2    ; array=0, hash=2
005BE0  DD8D0400           [504] getglobal  55  18       ; -1615931716
005BE4  130E8004           [505] getupval   56  9      
005BE8  038E511C           [506] add        56  56  326  ; 0
005BEC  E28D0001           [507] call       55  2   2  
005BF0  8CCD8DA7           [508] settable   54  335 55   ; "NUM"
005BF4  CE4D4800           [509] gettable   55  0   289  ; "Name"
005BF8  8CCD8DAB           [510] settable   54  343 55   ; "NAME"
005BFC  A28C8002           [511] call       50  5   2  
005C00  12040019           [512] move       16  50     
005C04  1A000580           [513] jmp        21           ; to [535]
005C08  9DCC0000           [514] getglobal  50  3        ; mMovie
005C0C  A48C4819           [515] self       50  50  290  ; 98241492
005C10  19CD1700           [516] loadk      52  95       ; "/Lotus/Language/Menu/NextRankInsuf"
005C14  570D0000           [517] loadbool   53  0   0    ; false
005C18  8B8D0000           [518] newtable   54  0   2    ; array=0, hash=2
005C1C  8CCD8BA7           [519] settable   54  335 47   ; "NUM"
005C20  CE4D4800           [520] gettable   55  0   289  ; "Name"
005C24  8CCD8DAB           [521] settable   54  343 55   ; "NAME"
005C28  A28C8002           [522] call       50  5   2  
005C2C  12040019           [523] move       16  50     
005C30  1A400280           [524] jmp        10           ; to [535]
005C34  930C0000           [525] getupval   50  0      
005C38  A40C5319           [526] self       50  50  332  ; -492641364
005C3C  170D0000           [527] loadbool   52  0   0    ; false
005C40  A24C8001           [528] call       50  3   1  
005C44  930C8000           [529] getupval   50  1      
005C48  A40C5319           [530] self       50  50  332  ; -492641364
005C4C  170D0000           [531] loadbool   52  0   0    ; false
005C50  A24C8001           [532] call       50  3   1  
005C54  59041800           [533] loadk      17  96       ; "/Lotus/Language/Menu/ArcaneManager_Maxed"
005C58  19041800           [534] loadk      16  96       ; "/Lotus/Language/Menu/ArcaneManager_Maxed"
005C5C  9DCC0000           [535] getglobal  50  3        ; mMovie
005C60  A40C4119           [536] self       50  50  260  ; 471456102
005C64  19CD0200           [537] loadk      52  11       ; "ArcaneUpgrader.UpgradeConfirm"
005C68  594D1800           [538] loadk      53  97       ; "text"
005C6C  920D0009           [539] move       54  18     
005C70  A24C8002           [540] call       50  5   1  
005C74  998C0300           [541] loadk      50  14       ; 0
005C78  D98C0300           [542] loadk      51  14       ; 0
005C7C  19CD0300           [543] loadk      52  15       ; 0
005C80  590D0400           [544] loadk      53  16       ; 0
005C84  D0CC5780           [545] forprep    51  352      ; to [898]
005C88  D30D0001           [546] getupval   55  2      
005C8C  CE0DC61B           [547] gettable   55  55  280  ; -132701534
fail op	5
005C90  050E8007           [548] getglobal  56  7680     ; nil
005C94  1A000180           [549] jmp        5            ; to [555]
005C98  130E8004           [550] getupval   56  9      
fail op	33
005C9C  61000E1B           [551] tforloop   1       56   ; to [553] if exit
005CA0  1A000080           [552] jmp        1            ; to [554]
005CA4  174E0000           [553] loadbool   56  0   1    ; false, to [555]
005CA8  170E8000           [554] loadbool   56  1   0    ; true
005CAC  598E0E00           [555] loadk      57  58       ; 0
005CB0  998E1800           [556] loadk      58  98       ; 0
005CB4  E28D0002           [557] call       55  4   2  
005CB8  030E441B           [558] add        56  54  272  ; 0
005CBC  59CE1800           [559] loadk      57  99       ; "ArcaneUpgrader.RankList.Rank"
005CC0  920E001C           [560] move       58  56     
005CC4  428E8E1C           [561] concat     57  57  58 
005CC8  994E0400           [562] loadk      58  17       ; "ArcaneUpgrader.Progress"
005CCC  D20E001C           [563] move       59  56     
005CD0  82CE0E1D           [564] concat     58  58  59 
005CD4  D98E1400           [565] loadk      59  82       ; "{"
005CD8  130F0001           [566] getupval   60  2      
005CDC  0E0F461E           [567] gettable   60  60  280  ; -132701534
fail op	35
005CE0  2380431B           [568] close      0  
005CE4  1A000080           [569] jmp        1            ; to [571]
005CE8  574F0000           [570] loadbool   61  0   1    ; false, to [572]
005CEC  570F8000           [571] loadbool   61  1   0    ; true
005CF0  99CF1400           [572] loadk      62  83       ; "\"lvl\":"
005CF4  D20F001B           [573] move       63  54     
005CF8  82CF0F1F           [574] concat     62  62  63 
005CFC  D94F0700           [575] loadk      63  29       ; ""
005D00  228F0002           [576] call       60  4   2  
005D04  590F1500           [577] loadk      61  84       ; "}"
005D08  C24E8F1D           [578] concat     59  59  61 
005D0C  130F0001           [579] getupval   60  2      
005D10  0E0F461E           [580] gettable   60  60  280  ; -132701534
fail op	35
005D14  6380431B           [581] close      1  
005D18  1A000080           [582] jmp        1            ; to [584]
005D1C  574F0000           [583] loadbool   61  0   1    ; false, to [585]
005D20  570F8000           [584] loadbool   61  1   0    ; true
005D24  9DCF0000           [585] getglobal  62  3        ; mMovie
005D28  A48F481F           [586] self       62  62  290  ; 98241492
005D2C  19101900           [587] loadk      64  100      ; "/Lotus/Language/Ranks/Rank0"
005D30  57100000           [588] loadbool   65  0   0    ; false
005D34  A28F0002           [589] call       62  4   2  
005D38  DDCF0000           [590] getglobal  63  3        ; mMovie
005D3C  E48FC81F           [591] self       63  63  290  ; 98241492
005D40  59501900           [592] loadk      65  101      ; "/Lotus/Language/Menu/Global_FormattedRankCaps"
005D44  97100000           [593] loadbool   66  0   0    ; false
005D48  CB500000           [594] newtable   67  0   1    ; array=0, hash=1
005D4C  CC908DAC           [595] settable   67  345 54   ; "RANK"
005D50  E20F8002           [596] call       63  5   0  
005D54  228F0000           [597] call       60  0   2  
005D58  598F1900           [598] loadk      61  102      ; "  "
005D5C  024F0F1E           [599] concat     60  60  61 
005D60  594F0700           [600] loadk      61  29       ; ""
005D64  9D0F0000           [601] getglobal  62  0        ; 1074689893
005D68  CE8F4A00           [602] gettable   63  0   298  ; "Arcane"
005D6C  CECFCA1F           [603] gettable   63  63  299  ; "mInstance"
005D70  A28F0001           [604] call       62  2   2  
005D74  984F0000           [605] test       62      1    ; to [607] if false
005D78  1A400280           [606] jmp        10           ; to [617]
005D7C  9DCF0000           [607] getglobal  62  3        ; mMovie
005D80  A48F481F           [608] self       62  62  290  ; 98241492
005D84  0E904A00           [609] gettable   64  0   298  ; "Arcane"
005D88  0ED04A20           [610] gettable   64  64  299  ; "mInstance"
005D8C  24D05920           [611] self       64  64  359  ; -2055885527
005D90  9210801D           [612] move       66  59     
005D94  22908001           [613] call       64  3   2  
005D98  57108000           [614] loadbool   65  1   0    ; true
005D9C  A28F0002           [615] call       62  4   2  
005DA0  520F001F           [616] move       61  62     
005DA4  9DCF0000           [617] getglobal  62  3        ; mMovie
005DA8  A48F4C1F           [618] self       62  62  306  ; 1803241227
005DAC  1210801C           [619] move       64  57     
005DB0  A28F8001           [620] call       62  3   2  
fail op	35
005DB4  23005A1F           [621] close      0  
005DB8  1AC00180           [622] jmp        8            ; to [631]
005DBC  9D4F1A00           [623] getglobal  62  105      ; -1939558487
005DC0  DDCF0000           [624] getglobal  63  3        ; mMovie
005DC4  19901A00           [625] loadk      64  106      ; "ArcaneUpgrader.RankList.Rank1.duplicateMovieClip"
005DC8  59D01A00           [626] loadk      65  107      ; "Rank"
005DCC  9210001C           [627] move       66  56     
005DD0  42909020           [628] concat     65  65  66 
005DD4  9210001C           [629] move       66  56     
005DD8  A24F8002           [630] call       62  5   1  
005DDC  9DCF0000           [631] getglobal  62  3        ; mMovie
005DE0  A40F411F           [632] self       62  62  260  ; 471456102
005DE4  19D01800           [633] loadk      64  99       ; "ArcaneUpgrader.RankList.Rank"
005DE8  5210001C           [634] move       65  56     
005DEC  02501020           [635] concat     64  64  65 
005DF0  59D00900           [636] loadk      65  39       ; "_y"
005DF4  83905819           [637] add        66  50  354  ; 0
005DF8  A24F8002           [638] call       62  5   1  
005DFC  9DCF0000           [639] getglobal  62  3        ; mMovie
005E00  A40F411F           [640] self       62  62  260  ; 471456102
005E04  19D01800           [641] loadk      64  99       ; "ArcaneUpgrader.RankList.Rank"
005E08  5210001C           [642] move       65  56     
005E0C  02501020           [643] concat     64  64  65 
005E10  59101B00           [644] loadk      65  108      ; "Id"
005E14  9210001B           [645] move       66  54     
005E18  A24F8002           [646] call       62  5   1  
005E1C  930F8006           [647] getupval   62  13     
005E20  CB0F0001           [648] newtable   63  2   0    ; array=2, hash=0
005E24  1210001E           [649] move       64  60     
005E28  5210801E           [650] move       65  61     
005E2C  DB4F0001           [651] setlist    63  2   1    ; index 1 to 2
005E30  8CCF0F1C           [652] settable   62  56  63 
005E34  994F1B00           [653] loadk      62  109      ; "<p><font ><b>"
005E38  D20F001E           [654] move       63  60     
005E3C  19901B00           [655] loadk      64  110      ; "</b></font><font letterSpacing=\"0.2\">"
005E40  5210801E           [656] move       65  61     
005E44  99101700           [657] loadk      66  92       ; "</font></p>"
005E48  828F101F           [658] concat     62  62  66 
005E4C  DDCF0000           [659] getglobal  63  3        ; mMovie
005E50  E4CFDB1F           [660] self       63  63  367  ; -2013161817
005E54  5210801C           [661] move       65  57     
005E58  99101C00           [662] loadk      66  112      ; "Desc"
005E5C  D9501C00           [663] loadk      67  113      ; "verticalAlignment"
005E60  19911C00           [664] loadk      68  114      ; "center"
005E64  E24F0003           [665] call       63  6   1  
005E68  DDCF0000           [666] getglobal  63  3        ; mMovie
005E6C  E4CFDB1F           [667] self       63  63  367  ; -2013161817
005E70  5210801C           [668] move       65  57     
005E74  99101C00           [669] loadk      66  112      ; "Desc"
005E78  D9501800           [670] loadk      67  97       ; "text"
005E7C  1211001F           [671] move       68  62     
005E80  E24F0003           [672] call       63  6   1  
005E84  DDCF0000           [673] getglobal  63  3        ; mMovie
005E88  E4CFDB1F           [674] self       63  63  367  ; -2013161817
005E8C  5210801C           [675] move       65  57     
005E90  99101C00           [676] loadk      66  112      ; "Desc"
005E94  D9900900           [677] loadk      67  38       ; "_alpha"
005E98  1211801B           [678] move       68  55     
005E9C  E24F0003           [679] call       63  6   1  
005EA0  DDCF0000           [680] getglobal  63  3        ; mMovie
005EA4  E4CFDB1F           [681] self       63  63  367  ; -2013161817
005EA8  5210801C           [682] move       65  57     
005EAC  99D00B00           [683] loadk      66  47       ; "Icon"
005EB0  D9900900           [684] loadk      67  38       ; "_alpha"
005EB4  1211801B           [685] move       68  55     
005EB8  E24F0003           [686] call       63  6   1  
005EBC  DDCF0000           [687] getglobal  63  3        ; mMovie
005EC0  E4CFDB1F           [688] self       63  63  367  ; -2013161817
005EC4  5210801C           [689] move       65  57     
005EC8  99D01C00           [690] loadk      66  115      ; "Glow"
005ECC  D9900100           [691] loadk      67  6        ; "_visible"
fail op	5
005ED0  05118007           [692] getglobal  68  7680     ; nil
005ED4  1A000280           [693] jmp        9            ; to [703]
005ED8  13118004           [694] getupval   68  9      
005EDC  53110003           [695] getupval   69  6      
fail op	21
005EE0  15009122           [696] concat     0   69  68 
005EE4  1A800080           [697] jmp        3            ; to [701]
005EE8  13118004           [698] getupval   68  9      
fail op	35
005EEC  63800D22           [699] close      1  
005EF0  1A000080           [700] jmp        1            ; to [702]
005EF4  17510000           [701] loadbool   68  0   1    ; false, to [703]
005EF8  17118000           [702] loadbool   68  1   0    ; true
005EFC  E24F0003           [703] call       63  6   1  
005F00  DDCF0000           [704] getglobal  63  3        ; mMovie
005F04  E4CFDB1F           [705] self       63  63  367  ; -2013161817
005F08  5210801C           [706] move       65  57     
005F0C  99101D00           [707] loadk      66  116      ; "Line"
005F10  D9900100           [708] loadk      67  6        ; "_visible"
fail op	35
005F14  23C0431B           [709] close      0  
005F18  1A000080           [710] jmp        1            ; to [712]
005F1C  17510000           [711] loadbool   68  0   1    ; false, to [713]
005F20  17118000           [712] loadbool   68  1   0    ; true
005F24  E24F0003           [713] call       63  6   1  
005F28  DDCF0000           [714] getglobal  63  3        ; mMovie
005F2C  E4CFDB1F           [715] self       63  63  367  ; -2013161817
005F30  5210801C           [716] move       65  57     
005F34  99101D00           [717] loadk      66  116      ; "Line"
005F38  D9900900           [718] loadk      67  38       ; "_alpha"
005F3C  13118004           [719] getupval   68  9      
fail op	21
005F40  1500111B           [720] concat     0   54  68 
005F44  1A800080           [721] jmp        3            ; to [725]
005F48  19911800           [722] loadk      68  98       ; 0
005F4C  18510000           [723] test       68      1    ; to [725] if false
005F50  1A000080           [724] jmp        1            ; to [726]
005F54  19910300           [725] loadk      68  14       ; 0
005F58  E24F0003           [726] call       63  6   1  
005F5C  D30F0003           [727] getupval   63  6      
fail op	33
005F60  21808D1F           [728] tforloop   0       54   ; to [730] if exit
005F64  1A800080           [729] jmp        3            ; to [733]
005F68  DD4F1D00           [730] getglobal  63  117      ; dottedLineMaterial
005F6C  D84F0000           [731] test       63      1    ; to [733] if false
005F70  1A000080           [732] jmp        1            ; to [734]
005F74  C60F801F           [733] loadnil    63  63     
005F78  1D500C00           [734] getglobal  64  49       ; -174740002
005F7C  5DD00000           [735] getglobal  65  3        ; mMovie
005F80  6490CC20           [736] self       65  65  306  ; 1803241227
005F84  D210801C           [737] move       67  57     
005F88  19911D00           [738] loadk      68  118      ; ".Desc"
005F8C  C2109121           [739] concat     67  67  68 
005F90  19D11D00           [740] loadk      68  119      ; "textHeight"
005F94  62100002           [741] call       65  4   0  
005F98  22900000           [742] call       64  0   2  
005F9C  03D05120           [743] add        64  64  327  ; 0
005FA0  5DD00000           [744] getglobal  65  3        ; mMovie
005FA4  64D0DB20           [745] self       65  65  367  ; -2013161817
005FA8  D210801C           [746] move       67  57     
005FAC  19111E00           [747] loadk      68  120      ; "Backer"
005FB0  59D10C00           [748] loadk      69  51       ; "_height"
005FB4  92110020           [749] move       70  64     
005FB8  62500003           [750] call       65  6   1  
005FBC  5DD00000           [751] getglobal  65  3        ; mMovie
005FC0  64D0DB20           [752] self       65  65  367  ; -2013161817
005FC4  D210801C           [753] move       67  57     
005FC8  19511E00           [754] loadk      68  121      ; "Gradient"
005FCC  59D10C00           [755] loadk      69  51       ; "_height"
005FD0  92110020           [756] move       70  64     
005FD4  62500003           [757] call       65  6   1  
005FD8  5D901E00           [758] getglobal  65  122      ; math
005FDC  4ED0DE20           [759] gettable   65  65  379  ; -1962864584
005FE0  99900E00           [760] loadk      66  58       ; 0
005FE4  C3D04420           [761] add        67  64  275  ; 0
005FE8  62908001           [762] call       65  3   2  
005FEC  12108020           [763] move       64  65     
005FF0  4D105F20           [764] sub        65  64  380  ; 0
005FF4  9DD00000           [765] getglobal  66  3        ; mMovie
005FF8  A4D05B21           [766] self       66  66  367  ; -2013161817
005FFC  1211801C           [767] move       68  57     
006000  59111D00           [768] loadk      69  116      ; "Line"
006004  99D10C00           [769] loadk      70  51       ; "_height"
006008  D2118020           [770] move       71  65     
00600C  A2500003           [771] call       66  6   1  
006010  9DD00000           [772] getglobal  66  3        ; mMovie
006014  A4D05B21           [773] self       66  66  367  ; -2013161817
006018  1211801C           [774] move       68  57     
00601C  59111D00           [775] loadk      69  116      ; "Line"
006020  99110C00           [776] loadk      70  48       ; "_width"
006024  D3110003           [777] getupval   71  6      
fail op	33
006028  21808D23           [778] tforloop   0       54   ; to [780] if exit
00602C  1A800080           [779] jmp        3            ; to [783]
006030  D9511F00           [780] loadk      71  125      ; 0
006034  D8510000           [781] test       71      1    ; to [783] if false
006038  1A000080           [782] jmp        1            ; to [784]
00603C  D9911100           [783] loadk      71  70       ; 0
006040  A2500003           [784] call       66  6   1  
006044  9DD00000           [785] getglobal  66  3        ; mMovie
006048  A4104E21           [786] self       66  66  312  ; 808102703
00604C  1211801C           [787] move       68  57     
006050  59911F00           [788] loadk      69  126      ; ".Line"
006054  02511122           [789] concat     68  68  69 
006058  59D11F00           [790] loadk      69  127      ; "TileRepeats"
00605C  99110400           [791] loadk      70  16       ; 0
006060  DC51DF20           [792] div        71  65  381  ; 0
006064  19120400           [793] loadk      72  16       ; 0
006068  59120400           [794] loadk      73  16       ; 0
00606C  A2500004           [795] call       66  8   1  
006070  93100007           [796] getupval   66  14     
006074  D210001B           [797] move       67  54     
006078  A2500001           [798] call       66  2   1  
00607C  93100003           [799] getupval   66  6      
fail op	33
006080  6180101B           [800] tforloop   1       66   ; to [802] if exit
006084  1A000080           [801] jmp        1            ; to [803]
006088  97500000           [802] loadbool   66  0   1    ; false, to [804]
00608C  97108000           [803] loadbool   66  1   0    ; true
006090  DDD00000           [804] getglobal  67  3        ; mMovie
006094  E4D0DB21           [805] self       67  67  367  ; -2013161817
006098  5211801C           [806] move       69  57     
00609C  99D10B00           [807] loadk      70  47       ; "Icon"
0060A0  D9D10900           [808] loadk      71  39       ; "_y"
0060A4  98100000           [809] test       66      0    ; to [811] if true
0060A8  1A800080           [810] jmp        3            ; to [814]
0060AC  19122000           [811] loadk      72  128      ; 0
0060B0  18520000           [812] test       72      1    ; to [814] if false
0060B4  1A000080           [813] jmp        1            ; to [815]
0060B8  19920300           [814] loadk      72  14       ; 0
0060BC  E2500003           [815] call       67  6   1  
0060C0  DDD00000           [816] getglobal  67  3        ; mMovie
0060C4  E4D0DB21           [817] self       67  67  367  ; -2013161817
0060C8  5211801C           [818] move       69  57     
0060CC  99512000           [819] loadk      70  129      ; "Check"
0060D0  D9910100           [820] loadk      71  6        ; "_visible"
0060D4  12120021           [821] move       72  66     
0060D8  E2500003           [822] call       67  6   1  
0060DC  DDD00000           [823] getglobal  67  3        ; mMovie
0060E0  E410C521           [824] self       67  67  276  ; 643307062
0060E4  5211801C           [825] move       69  57     
0060E8  99912000           [826] loadk      70  130      ; ".Icon"
0060EC  42919122           [827] concat     69  69  70 
0060F0  9DD12000           [828] getglobal  70  131      ; rankIcons
0060F4  8E110E23           [829] gettable   70  70  56 
0060F8  E2500002           [830] call       67  4   1  
0060FC  DDD00000           [831] getglobal  67  3        ; mMovie
006100  E410C521           [832] self       67  67  276  ; 643307062
006104  5211801C           [833] move       69  57     
006108  99112100           [834] loadk      70  132      ; ".Check"
00610C  42919122           [835] concat     69  69  70 
006110  9D512100           [836] getglobal  70  133      ; checkIcon
006114  E2500002           [837] call       67  4   1  
006118  DDD00000           [838] getglobal  67  3        ; mMovie
00611C  E490E121           [839] self       67  67  390  ; 2115970775
006120  5211801C           [840] move       69  57     
006124  99911F00           [841] loadk      70  126      ; ".Line"
006128  42919122           [842] concat     69  69  70 
00612C  9211801F           [843] move       70  63     
006130  E2500002           [844] call       67  4   1  
006134  DDD00000           [845] getglobal  67  3        ; mMovie
006138  E490E121           [846] self       67  67  390  ; 2115970775
00613C  5211801C           [847] move       69  57     
006140  99D12100           [848] loadk      70  135      ; ".IconBacker"
006144  42919122           [849] concat     69  69  70 
006148  9D511200           [850] getglobal  70  73       ; _G
00614C  8E116223           [851] gettable   70  70  392  ; "UIMaterial_RectangleNoDepth"
006150  E2500002           [852] call       67  4   1  
006154  DDD00000           [853] getglobal  67  3        ; mMovie
006158  E490E121           [854] self       67  67  390  ; 2115970775
00615C  5211801C           [855] move       69  57     
006160  99512200           [856] loadk      70  137      ; ".Backer"
006164  42919122           [857] concat     69  69  70 
006168  9D511200           [858] getglobal  70  73       ; _G
00616C  8E116223           [859] gettable   70  70  392  ; "UIMaterial_RectangleNoDepth"
006170  E2500002           [860] call       67  4   1  
006174  DDD00000           [861] getglobal  67  3        ; mMovie
006178  E490CD21           [862] self       67  67  310  ; 1145284071
00617C  5211801C           [863] move       69  57     
006180  99912200           [864] loadk      70  138      ; ".Glow"
006184  42919122           [865] concat     69  69  70 
006188  9DD12200           [866] getglobal  70  139      ; glowIcon
00618C  DD112300           [867] getglobal  71  140      ; glowMaterial
006190  E2508002           [868] call       67  5   1  
006194  DDD00000           [869] getglobal  67  3        ; mMovie
006198  E490CD21           [870] self       67  67  310  ; 1145284071
00619C  5211801C           [871] move       69  57     
0061A0  99512300           [872] loadk      70  141      ; ".Gradient"
0061A4  42919122           [873] concat     69  69  70 
0061A8  9D912300           [874] getglobal  70  142      ; backerIcon
0061AC  DD511200           [875] getglobal  71  73       ; _G
0061B0  CE11E223           [876] gettable   71  71  392  ; "UIMaterial_RectangleNoDepth"
0061B4  E2508002           [877] call       67  5   1  
0061B8  DDD00000           [878] getglobal  67  3        ; mMovie
0061BC  E410C121           [879] self       67  67  260  ; 471456102
0061C0  5211001D           [880] move       69  58     
0061C4  99910900           [881] loadk      70  38       ; "_alpha"
0061C8  D211801B           [882] move       71  55     
0061CC  E2508002           [883] call       67  5   1  
0061D0  DDD00000           [884] getglobal  67  3        ; mMovie
0061D4  E4D0DB21           [885] self       67  67  367  ; -2013161817
0061D8  5211001D           [886] move       69  58     
0061DC  99111C00           [887] loadk      70  112      ; "Desc"
0061E0  D9511800           [888] loadk      71  97       ; "text"
0061E4  13128005           [889] getupval   72  11     
0061E8  0E525524           [890] gettable   72  72  341  ; -471303515
0061EC  5DD20000           [891] getglobal  73  3        ; mMovie
0061F0  8E924A00           [892] gettable   74  0   298  ; "Arcane"
0061F4  D7120000           [893] loadbool   75  0   0    ; false
0061F8  1213801D           [894] move       76  59     
0061FC  22128002           [895] call       72  5   0  
006200  E2500000           [896] call       67  0   1  
006204  830C1019           [897] add        50  50  64 
006208  D48CA77F           [898] forloop    51  -353     ; to [546] if loop
00620C  D3100000           [899] getupval   67  0      
006210  E4D0E321           [900] self       67  67  399  ; -2120785850
006214  52118008           [901] move       69  17     
006218  E2508001           [902] call       67  3   1  
00621C  D3108000           [903] getupval   67  1      
006220  E4D0E321           [904] self       67  67  399  ; -2120785850
006224  52110008           [905] move       69  16     
006228  E2508001           [906] call       67  3   1  
00622C  D3108007           [907] getupval   67  15     
006230  E2508000           [908] call       67  1   1  
006234  1E008000           [909] return     0   1      
                           * constants:
006239  01                 sizek (144)
00623A  01                 const type 3
00623B  65770E40           const [0]: (1074689893)
00623F  04                 const type 4
006240  07                 string size (7)
006241  46696C6C657200     "Filler\0"
                           const [1]: "Filler"
006248  04                 const type 4
006249  07                 string size (7)
00624A  49734E6F6E6500     "IsNone\0"
                           const [2]: "IsNone"
006251  04                 const type 4
006252  07                 string size (7)
006253  6D4D6F76696500     "mMovie\0"
                           const [3]: "mMovie"
00625A  01                 const type 3
00625B  66D9191C           const [4]: (471456102)
00625F  04                 const type 4
006260  14                 string size (20)
006261  417263616E655570+  "ArcaneUp"
006269  6772616465722E48+  "grader.H"
006271  696E7400           "int\0"
                           const [5]: "ArcaneUpgrader.Hint"
006275  04                 const type 4
006276  09                 string size (9)
006277  5F76697369626C65+  "_visible"
00627F  00                 "\0"
                           const [6]: "_visible"
006280  04                 const type 4
006281  18                 string size (24)
006282  417263616E655570+  "ArcaneUp"
00628A  6772616465722E48+  "grader.H"
006292  696E7449636F6E00   "intIcon\0"
                           const [7]: "ArcaneUpgrader.HintIcon"
00629A  04                 const type 4
00629B  14                 string size (20)
00629C  417263616E655570+  "ArcaneUp"
0062A4  6772616465722E49+  "grader.I"
0062AC  636F6E00           "con\0"
                           const [8]: "ArcaneUpgrader.Icon"
0062B0  04                 const type 4
0062B1  18                 string size (24)
0062B2  417263616E655570+  "ArcaneUp"
0062BA  6772616465722E52+  "grader.R"
0062C2  616E6B4C69737400   "ankList\0"
                           const [9]: "ArcaneUpgrader.RankList"
0062CA  04                 const type 4
0062CB  19                 string size (25)
0062CC  417263616E655570+  "ArcaneUp"
0062D4  6772616465722E53+  "grader.S"
0062DC  63726F6C6C426172+  "crollBar"
0062E4  00                 "\0"
                           const [10]: "ArcaneUpgrader.ScrollBar"
0062E5  04                 const type 4
0062E6  1E                 string size (30)
0062E7  417263616E655570+  "ArcaneUp"
0062EF  6772616465722E55+  "grader.U"
0062F7  706772616465436F+  "pgradeCo"
0062FF  6E6669726D00       "nfirm\0"
                           const [11]: "ArcaneUpgrader.UpgradeConfirm"
006305  04                 const type 4
006306  14                 string size (20)
006307  417263616E655570+  "ArcaneUp"
00630F  6772616465722E4C+  "grader.L"
006317  6F6F6D00           "oom\0"
                           const [12]: "ArcaneUpgrader.Loom"
00631B  01                 const type 3
00631C  A8915762           const [13]: (1649906088)
006320  03                 const type 3
006321  00000000           const [14]: (0)
006325  03                 const type 3
006326  00004040           const [15]: (0)
00632A  03                 const type 3
00632B  0000803F           const [16]: (0)
00632F  04                 const type 4
006330  18                 string size (24)
006331  417263616E655570+  "ArcaneUp"
006339  6772616465722E50+  "grader.P"
006341  726F677265737300   "rogress\0"
                           const [17]: "ArcaneUpgrader.Progress"
006349  01                 const type 3
00634A  BCD6AE9F           const [18]: (-1615931716)
00634E  03                 const type 3
00634F  00002041           const [19]: (0)
006353  01                 const type 3
006354  36165826           const [20]: (643307062)
006358  04                 const type 4
006359  16                 string size (22)
00635A  417263616E655570+  "ArcaneUp"
006362  6772616465722E41+  "grader.A"
00636A  7263616E6500       "rcane\0"
                           const [21]: "ArcaneUpgrader.Arcane"
006370  04                 const type 4
006371  0B                 string size (11)
006372  617263616E654963+  "arcaneIc"
00637A  6F6E00             "on\0"
                           const [22]: "arcaneIcon"
00637D  04                 const type 4
00637E  16                 string size (22)
00637F  2F4C6F7475732F4C+  "/Lotus/L"
006387  616E67756167652F+  "anguage/"
00638F  4D656E752F00       "Menu/\0"
                           const [23]: "/Lotus/Language/Menu/"
006395  01                 const type 3
006396  A22217F8           const [24]: (-132701534)
00639A  04                 const type 4
00639B  1C                 string size (28)
00639C  417263616E654D61+  "ArcaneMa"
0063A4  6E616765725F556E+  "nager_Un"
0063AC  696E7374616C6C48+  "installH"
0063B4  696E7400           "int\0"
                           const [25]: "ArcaneManager_UninstallHint"
0063B8  04                 const type 4
0063B9  1A                 string size (26)
0063BA  417263616E654D61+  "ArcaneMa"
0063C2  6E616765725F556E+  "nager_Un"
0063CA  657175697048696E+  "equipHin"
0063D2  7400               "t\0"
                           const [26]: "ArcaneManager_UnequipHint"
0063D4  04                 const type 4
0063D5  11                 string size (17)
0063D6  4174746163686564+  "Attached"
0063DE  5570677261646573+  "Upgrades"
0063E6  00                 "\0"
                           const [27]: "AttachedUpgrades"
0063E7  04                 const type 4
0063E8  05                 string size (5)
0063E9  536C6F7400         "Slot\0"
                           const [28]: "Slot"
0063EE  04                 const type 4
0063EF  01                 string size (0)
                           const [29]: ""
0063F1  01                 const type 3
0063F2  7F55751B           const [30]: (460674431)
0063F6  01                 const type 3
0063F7  B8C1FB62           const [31]: (1660666296)
0063FB  04                 const type 4
0063FC  0A                 string size (10)
0063FD  6D4974656D547970+  "mItemTyp"
006405  6500               "e\0"
                           const [32]: "mItemType"
006407  04                 const type 4
006408  05                 string size (5)
006409  4E616D6500         "Name\0"
                           const [33]: "Name"
00640E  01                 const type 3
00640F  D40BDB05           const [34]: (98241492)
006413  04                 const type 4
006414  07                 string size (7)
006415  415243414E4500     "ARCANE\0"
                           const [35]: "ARCANE"
00641C  01                 const type 3
00641D  8F8E0217           const [36]: (386043535)
006421  04                 const type 4
006422  19                 string size (25)
006423  417263616E655570+  "ArcaneUp"
00642B  6772616465722E48+  "grader.H"
006433  696E742E74657874+  "int.text"
00643B  00                 "\0"
                           const [37]: "ArcaneUpgrader.Hint.text"
00643C  04                 const type 4
00643D  07                 string size (7)
00643E  5F616C70686100     "_alpha\0"
                           const [38]: "_alpha"
006445  04                 const type 4
006446  03                 string size (3)
006447  5F7900             "_y\0"
                           const [39]: "_y"
00644A  03                 const type 3
00644B  00003442           const [40]: (0)
00644F  03                 const type 3
006450  000080BF           const [41]: (0)
006454  04                 const type 4
006455  07                 string size (7)
006456  417263616E6500     "Arcane\0"
                           const [42]: "Arcane"
00645D  04                 const type 4
00645E  0A                 string size (10)
00645F  6D496E7374616E63+  "mInstanc"
006467  6500               "e\0"
                           const [43]: "mInstance"
006469  04                 const type 4
00646A  09                 string size (9)
00646B  4E6F744F776E6564+  "NotOwned"
006473  00                 "\0"
                           const [44]: "NotOwned"
006474  01                 const type 3
006475  DE9E396F           const [45]: (1866047198)
006479  04                 const type 4
00647A  14                 string size (20)
00647B  6D55706772616465+  "mUpgrade"
006483  46696E6765727072+  "Fingerpr"
00648B  696E7400           "int\0"
                           const [46]: "mUpgradeFingerprint"
00648F  04                 const type 4
006490  05                 string size (5)
006491  49636F6E00         "Icon\0"
                           const [47]: "Icon"
006496  04                 const type 4
006497  07                 string size (7)
006498  5F776964746800     "_width\0"
                           const [48]: "_width"
00649F  01                 const type 3
0064A0  DEAD95F5           const [49]: (-174740002)
0064A4  01                 const type 3
0064A5  0B477B6B           const [50]: (1803241227)
0064A9  04                 const type 4
0064AA  08                 string size (8)
0064AB  5F68656967687400   "_height\0"
                           const [51]: "_height"
0064B3  03                 const type 3
0064B4  CDCCCC3F           const [52]: (-51)
0064B8  04                 const type 4
0064B9  1E                 string size (30)
0064BA  417263616E655570+  "ArcaneUp"
0064C2  6772616465416E69+  "gradeAni"
0064CA  6D2E417263616E65+  "m.Arcane"
0064D2  2E49636F6E00       ".Icon\0"
                           const [53]: "ArcaneUpgradeAnim.Arcane.Icon"
0064D8  01                 const type 3
0064D9  E7A54344           const [54]: (1145284071)
0064DD  04                 const type 4
0064DE  09                 string size (9)
0064DF  4D6174657269616C+  "Material"
0064E7  00                 "\0"
                           const [55]: "Material"
0064E8  01                 const type 3
0064E9  2FAB2A30           const [56]: (808102703)
0064ED  04                 const type 4
0064EE  0F                 string size (15)
0064EF  5669736962696C69+  "Visibili"
0064F7  747953697A6500     "tySize\0"
                           const [57]: "VisibilitySize"
0064FE  03                 const type 3
0064FF  0000C842           const [58]: (0)
006503  04                 const type 4
006504  10                 string size (16)
006505  44657461696C4D61+  "DetailMa"
00650D  70506172616D7300   "pParams\0"
                           const [59]: "DetailMapParams"
006515  03                 const type 3
006516  CDCCCC3E           const [60]: (-51)
00651A  04                 const type 4
00651B  0A                 string size (10)
00651C  6747616D65446174+  "gGameDat"
006524  6100               "a\0"
                           const [61]: "gGameData"
006526  01                 const type 3
006527  FD052E6F           const [62]: (1865287165)
00652B  01                 const type 3
00652C  6B25B193           const [63]: (-1817107093)
006530  04                 const type 4
006531  15                 string size (21)
006532  4552524F523A204E+  "ERROR: N"
00653A  6F20696E76656E74+  "o invent"
006542  6F72792100         "ory!\0"
                           const [64]: "ERROR: No inventory!"
006547  01                 const type 3
006548  FACEF312           const [65]: (317968122)
00654C  01                 const type 3
00654D  7EAA4006           const [66]: (104901246)
006551  01                 const type 3
006552  17DDCF0E           const [67]: (248503575)
006556  01                 const type 3
006557  D48E598B           const [68]: (-1957065004)
00655B  04                 const type 4
00655C  0B                 string size (11)
00655D  6D4974656D436F75+  "mItemCou"
006565  6E7400             "nt\0"
                           const [69]: "mItemCount"
006568  03                 const type 3
006569  00000040           const [70]: (0)
00656D  03                 const type 3
00656E  0000A041           const [71]: (0)
006572  04                 const type 4
006573  07                 string size (7)
006574  5F636F6C6F7200     "_color\0"
                           const [72]: "_color"
00657B  04                 const type 4
00657C  03                 string size (3)
00657D  5F4700             "_G\0"
                           const [73]: "_G"
006580  04                 const type 4
006581  0F                 string size (15)
006582  5549436F6C6F725F+  "UIColor_"
00658A  59656C6C6F7700     "Yellow\0"
                           const [74]: "UIColor_Yellow"
006591  04                 const type 4
006592  0E                 string size (14)
006593  5549436F6C6F725F+  "UIColor_"
00659B  576869746500       "White\0"
                           const [75]: "UIColor_White"
0065A1  01                 const type 3
0065A2  ACE3A2E2           const [76]: (-492641364)
0065A6  04                 const type 4
0065A7  32                 string size (50)
0065A8  2F4C6F7475732F4C+  "/Lotus/L"
0065B0  616E67756167652F+  "anguage/"
0065B8  4D656E752F4C6F61+  "Menu/Loa"
0065C0  646F75745F557067+  "dout_Upg"
0065C8  7261646553797374+  "radeSyst"
0065D0  656D496E7374616C+  "emInstal"
0065D8  6C00               "l\0"
                           const [77]: "/Lotus/Language/Menu/Loadout_UpgradeSystemInstall"
0065DA  04                 const type 4
0065DB  32                 string size (50)
0065DC  2F4C6F7475732F4C+  "/Lotus/L"
0065E4  616E67756167652F+  "anguage/"
0065EC  4D656E752F417263+  "Menu/Arc"
0065F4  616E654D616E6167+  "aneManag"
0065FC  65725F5570677261+  "er_Upgra"
006604  6465576974684E75+  "deWithNu"
00660C  6D00               "m\0"
                           const [78]: "/Lotus/Language/Menu/ArcaneManager_UpgradeWithNum"
00660E  04                 const type 4
00660F  04                 string size (4)
006610  4E554D00           "NUM\0"
                           const [79]: "NUM"
006614  04                 const type 4
006615  0B                 string size (11)
006616  4C6F7475735F4761+  "Lotus_Ga"
00661E  6D6500             "me\0"
                           const [80]: "Lotus_Game"
006621  01                 const type 3
006622  5B60D5A9           const [81]: (-1445633957)
006626  04                 const type 4
006627  02                 string size (2)
006628  7B00               "{\0"
                           const [82]: "{"
00662A  04                 const type 4
00662B  07                 string size (7)
00662C  226C766C223A00     "\"lvl\":\0"
                           const [83]: "\"lvl\":"
006633  04                 const type 4
006634  02                 string size (2)
006635  7D00               "}\0"
                           const [84]: "}"
006637  01                 const type 3
006638  A57AE8E3           const [85]: (-471303515)
00663C  04                 const type 4
00663D  2F                 string size (47)
00663E  2F4C6F7475732F4C+  "/Lotus/L"
006646  616E67756167652F+  "anguage/"
00664E  4D656E752F417263+  "Menu/Arc"
006656  616E654D616E6167+  "aneManag"
00665E  65725F5570677261+  "er_Upgra"
006666  646548696E7400     "deHint\0"
                           const [86]: "/Lotus/Language/Menu/ArcaneManager_UpgradeHint"
00666D  04                 const type 4
00666E  05                 string size (5)
00666F  4E414D4500         "NAME\0"
                           const [87]: "NAME"
006674  04                 const type 4
006675  08                 string size (8)
006676  3C62723E3C623E00   "<br><b>\0"
                           const [88]: "<br><b>"
00667E  04                 const type 4
00667F  05                 string size (5)
006680  52414E4B00         "RANK\0"
                           const [89]: "RANK"
006685  04                 const type 4
006686  05                 string size (5)
006687  3C2F623E00         "</b>\0"
                           const [90]: "</b>"
00668C  04                 const type 4
00668D  0B                 string size (11)
00668E  3C703E3C666F6E74+  "<p><font"
006696  203E00             " >\0"
                           const [91]: "<p><font >"
006699  04                 const type 4
00669A  0C                 string size (12)
00669B  3C2F666F6E743E3C+  "</font><"
0066A3  2F703E00           "/p>\0"
                           const [92]: "</font></p>"
0066A7  04                 const type 4
0066A8  1E                 string size (30)
0066A9  2F4C6F7475732F4C+  "/Lotus/L"
0066B1  616E67756167652F+  "anguage/"
0066B9  52616E6B732F4D61+  "Ranks/Ma"
0066C1  7852616E6B00       "xRank\0"
                           const [93]: "/Lotus/Language/Ranks/MaxRank"
0066C7  04                 const type 4
0066C8  22                 string size (34)
0066C9  2F4C6F7475732F4C+  "/Lotus/L"
0066D1  616E67756167652F+  "anguage/"
0066D9  4D656E752F4E6578+  "Menu/Nex"
0066E1  7452616E6B436F73+  "tRankCos"
0066E9  7400               "t\0"
                           const [94]: "/Lotus/Language/Menu/NextRankCost"
0066EB  04                 const type 4
0066EC  23                 string size (35)
0066ED  2F4C6F7475732F4C+  "/Lotus/L"
0066F5  616E67756167652F+  "anguage/"
0066FD  4D656E752F4E6578+  "Menu/Nex"
006705  7452616E6B496E73+  "tRankIns"
00670D  756600             "uf\0"
                           const [95]: "/Lotus/Language/Menu/NextRankInsuf"
006710  04                 const type 4
006711  29                 string size (41)
006712  2F4C6F7475732F4C+  "/Lotus/L"
00671A  616E67756167652F+  "anguage/"
006722  4D656E752F417263+  "Menu/Arc"
00672A  616E654D616E6167+  "aneManag"
006732  65725F4D61786564+  "er_Maxed"
00673A  00                 "\0"
                           const [96]: "/Lotus/Language/Menu/ArcaneManager_Maxed"
00673B  04                 const type 4
00673C  05                 string size (5)
00673D  7465787400         "text\0"
                           const [97]: "text"
006742  03                 const type 3
006743  00004842           const [98]: (0)
006747  04                 const type 4
006748  1D                 string size (29)
006749  417263616E655570+  "ArcaneUp"
006751  6772616465722E52+  "grader.R"
006759  616E6B4C6973742E+  "ankList."
006761  52616E6B00         "Rank\0"
                           const [99]: "ArcaneUpgrader.RankList.Rank"
006766  04                 const type 4
006767  1C                 string size (28)
006768  2F4C6F7475732F4C+  "/Lotus/L"
006770  616E67756167652F+  "anguage/"
006778  52616E6B732F5261+  "Ranks/Ra"
006780  6E6B3000           "nk0\0"
                           const [100]: "/Lotus/Language/Ranks/Rank0"
006784  04                 const type 4
006785  2E                 string size (46)
006786  2F4C6F7475732F4C+  "/Lotus/L"
00678E  616E67756167652F+  "anguage/"
006796  4D656E752F476C6F+  "Menu/Glo"
00679E  62616C5F466F726D+  "bal_Form"
0067A6  617474656452616E+  "attedRan"
0067AE  6B4361707300       "kCaps\0"
                           const [101]: "/Lotus/Language/Menu/Global_FormattedRankCaps"
0067B4  04                 const type 4
0067B5  03                 string size (3)
0067B6  202000             "  \0"
                           const [102]: "  "
0067B9  01                 const type 3
0067BA  29AD7585           const [103]: (-2055885527)
0067BE  04                 const type 4
0067BF  0A                 string size (10)
0067C0  756E646566696E65+  "undefine"
0067C8  6400               "d\0"
                           const [104]: "undefined"
0067CA  01                 const type 3
0067CB  A9AF648C           const [105]: (-1939558487)
0067CF  04                 const type 4
0067D0  31                 string size (49)
0067D1  417263616E655570+  "ArcaneUp"
0067D9  6772616465722E52+  "grader.R"
0067E1  616E6B4C6973742E+  "ankList."
0067E9  52616E6B312E6475+  "Rank1.du"
0067F1  706C69636174654D+  "plicateM"
0067F9  6F766965436C6970+  "ovieClip"
006801  00                 "\0"
                           const [106]: "ArcaneUpgrader.RankList.Rank1.duplicateMovieClip"
006802  04                 const type 4
006803  05                 string size (5)
006804  52616E6B00         "Rank\0"
                           const [107]: "Rank"
006809  04                 const type 4
00680A  03                 string size (3)
00680B  496400             "Id\0"
                           const [108]: "Id"
00680E  04                 const type 4
00680F  0E                 string size (14)
006810  3C703E3C666F6E74+  "<p><font"
006818  203E3C623E00       " ><b>\0"
                           const [109]: "<p><font ><b>"
00681E  04                 const type 4
00681F  26                 string size (38)
006820  3C2F623E3C2F666F+  "</b></fo"
006828  6E743E3C666F6E74+  "nt><font"
006830  206C657474657253+  " letterS"
006838  706163696E673D22+  "pacing=\""
006840  302E32223E00       "0.2\">\0"
                           const [110]: "</b></font><font letterSpacing=\"0.2\">"
006846  01                 const type 3
006847  A7960188           const [111]: (-2013161817)
00684B  04                 const type 4
00684C  05                 string size (5)
00684D  4465736300         "Desc\0"
                           const [112]: "Desc"
006852  04                 const type 4
006853  12                 string size (18)
006854  766572746963616C+  "vertical"
00685C  416C69676E6D656E+  "Alignmen"
006864  7400               "t\0"
                           const [113]: "verticalAlignment"
006866  04                 const type 4
006867  07                 string size (7)
006868  63656E74657200     "center\0"
                           const [114]: "center"
00686F  04                 const type 4
006870  05                 string size (5)
006871  476C6F7700         "Glow\0"
                           const [115]: "Glow"
006876  04                 const type 4
006877  05                 string size (5)
006878  4C696E6500         "Line\0"
                           const [116]: "Line"
00687D  04                 const type 4
00687E  13                 string size (19)
00687F  646F747465644C69+  "dottedLi"
006887  6E654D6174657269+  "neMateri"
00688F  616C00             "al\0"
                           const [117]: "dottedLineMaterial"
006892  04                 const type 4
006893  06                 string size (6)
006894  2E4465736300       ".Desc\0"
                           const [118]: ".Desc"
00689A  04                 const type 4
00689B  0B                 string size (11)
00689C  7465787448656967+  "textHeig"
0068A4  687400             "ht\0"
                           const [119]: "textHeight"
0068A7  04                 const type 4
0068A8  07                 string size (7)
0068A9  4261636B657200     "Backer\0"
                           const [120]: "Backer"
0068B0  04                 const type 4
0068B1  09                 string size (9)
0068B2  4772616469656E74+  "Gradient"
0068BA  00                 "\0"
                           const [121]: "Gradient"
0068BB  04                 const type 4
0068BC  05                 string size (5)
0068BD  6D61746800         "math\0"
                           const [122]: "math"
0068C2  01                 const type 3
0068C3  3810018B           const [123]: (-1962864584)
0068C7  03                 const type 3
0068C8  0000AC42           const [124]: (0)
0068CC  03                 const type 3
0068CD  00008040           const [125]: (0)
0068D1  04                 const type 4
0068D2  06                 string size (6)
0068D3  2E4C696E6500       ".Line\0"
                           const [126]: ".Line"
0068D9  04                 const type 4
0068DA  0C                 string size (12)
0068DB  54696C6552657065+  "TileRepe"
0068E3  61747300           "ats\0"
                           const [127]: "TileRepeats"
0068E7  03                 const type 3
0068E8  000080C0           const [128]: (0)
0068EC  04                 const type 4
0068ED  06                 string size (6)
0068EE  436865636B00       "Check\0"
                           const [129]: "Check"
0068F4  04                 const type 4
0068F5  06                 string size (6)
0068F6  2E49636F6E00       ".Icon\0"
                           const [130]: ".Icon"
0068FC  04                 const type 4
0068FD  0A                 string size (10)
0068FE  72616E6B49636F6E+  "rankIcon"
006906  7300               "s\0"
                           const [131]: "rankIcons"
006908  04                 const type 4
006909  07                 string size (7)
00690A  2E436865636B00     ".Check\0"
                           const [132]: ".Check"
006911  04                 const type 4
006912  0A                 string size (10)
006913  636865636B49636F+  "checkIco"
00691B  6E00               "n\0"
                           const [133]: "checkIcon"
00691D  01                 const type 3
00691E  D7261F7E           const [134]: (2115970775)
006922  04                 const type 4
006923  0C                 string size (12)
006924  2E49636F6E426163+  ".IconBac"
00692C  6B657200           "ker\0"
                           const [135]: ".IconBacker"
006930  04                 const type 4
006931  1C                 string size (28)
006932  55494D6174657269+  "UIMateri"
00693A  616C5F5265637461+  "al_Recta"
006942  6E676C654E6F4465+  "ngleNoDe"
00694A  70746800           "pth\0"
                           const [136]: "UIMaterial_RectangleNoDepth"
00694E  04                 const type 4
00694F  08                 string size (8)
006950  2E4261636B657200   ".Backer\0"
                           const [137]: ".Backer"
006958  04                 const type 4
006959  06                 string size (6)
00695A  2E476C6F7700       ".Glow\0"
                           const [138]: ".Glow"
006960  04                 const type 4
006961  09                 string size (9)
006962  676C6F7749636F6E+  "glowIcon"
00696A  00                 "\0"
                           const [139]: "glowIcon"
00696B  04                 const type 4
00696C  0D                 string size (13)
00696D  676C6F774D617465+  "glowMate"
006975  7269616C00         "rial\0"
                           const [140]: "glowMaterial"
00697A  04                 const type 4
00697B  0A                 string size (10)
00697C  2E4772616469656E+  ".Gradien"
006984  7400               "t\0"
                           const [141]: ".Gradient"
006986  04                 const type 4
006987  0B                 string size (11)
006988  6261636B65724963+  "backerIc"
006990  6F6E00             "on\0"
                           const [142]: "backerIcon"
006993  01                 const type 3
006994  46609781           const [143]: (-2120785850)
                           * functions:
006998  00                 sizep (0)
                           * lines:
00699A  07                 sizelineinfo (909)
                           [pc] (line)
00699B  33                 [001] (51)
00699C  02                 [002] (51)
00699D  00                 [003] (51)
00699E  00                 [004] (51)
00699F  33                 [005] (51)
0069A0  02                 [006] (52)
0069A1  00                 [007] (55)
0069A2  00                 [008] (55)
0069A3  33                 [009] (55)
0069A4  02                 [010] (55)
0069A5  00                 [011] (56)
0069A6  00                 [012] (56)
0069A7  33                 [013] (56)
0069A8  02                 [014] (56)
0069A9  00                 [015] (56)
0069AA  00                 [016] (56)
0069AB  33                 [017] (57)
0069AC  02                 [018] (57)
0069AD  00                 [019] (57)
0069AE  00                 [020] (57)
0069AF  34                 [021] (57)
0069B0  02                 [022] (57)
0069B1  00                 [023] (58)
0069B2  00                 [024] (58)
0069B3  37                 [025] (58)
0069B4  02                 [026] (58)
0069B5  00                 [027] (58)
0069B6  00                 [028] (58)
0069B7  37                 [029] (59)
0069B8  02                 [030] (59)
0069B9  00                 [031] (59)
0069BA  00                 [032] (59)
0069BB  37                 [033] (59)
0069BC  02                 [034] (59)
0069BD  00                 [035] (60)
0069BE  00                 [036] (60)
0069BF  37                 [037] (60)
0069C0  02                 [038] (60)
0069C1  00                 [039] (60)
0069C2  00                 [040] (60)
0069C3  38                 [041] (61)
0069C4  02                 [042] (61)
0069C5  00                 [043] (61)
0069C6  00                 [044] (61)
0069C7  38                 [045] (61)
0069C8  02                 [046] (61)
0069C9  00                 [047] (62)
0069CA  00                 [048] (62)
0069CB  38                 [049] (62)
0069CC  02                 [050] (62)
0069CD  00                 [051] (62)
0069CE  00                 [052] (62)
0069CF  38                 [053] (63)
0069D0  02                 [054] (63)
0069D1  00                 [055] (63)
0069D2  00                 [056] (63)
0069D3  38                 [057] (64)
0069D4  02                 [058] (64)
0069D5  00                 [059] (64)
0069D6  00                 [060] (64)
0069D7  38                 [061] (66)
0069D8  02                 [062] (66)
0069D9  00                 [063] (66)
0069DA  00                 [064] (66)
0069DB  39                 [065] (67)
0069DC  02                 [066] (67)
0069DD  00                 [067] (67)
0069DE  00                 [068] (67)
0069DF  39                 [069] (67)
0069E0  02                 [070] (67)
0069E1  00                 [071] (67)
0069E2  00                 [072] (67)
0069E3  39                 [073] (67)
0069E4  02                 [074] (67)
0069E5  00                 [075] (66)
0069E6  00                 [076] (70)
0069E7  39                 [077] (70)
0069E8  02                 [078] (70)
0069E9  00                 [079] (70)
0069EA  00                 [080] (71)
0069EB  39                 [081] (71)
0069EC  02                 [082] (71)
0069ED  00                 [083] (71)
0069EE  00                 [084] (71)
0069EF  39                 [085] (71)
0069F0  02                 [086] (71)
0069F1  00                 [087] (71)
0069F2  00                 [088] (71)
0069F3  3A                 [089] (72)
0069F4  02                 [090] (72)
0069F5  00                 [091] (72)
0069F6  00                 [092] (72)
0069F7  3A                 [093] (72)
0069F8  02                 [094] (72)
0069F9  00                 [095] (72)
0069FA  00                 [096] (72)
0069FB  3A                 [097] (72)
0069FC  02                 [098] (72)
0069FD  00                 [099] (70)
0069FE  00                 [100] (75)
0069FF  3A                 [101] (75)
006A00  02                 [102] (76)
006A01  00                 [103] (76)
006A02  00                 [104] (76)
006A03  3A                 [105] (76)
006A04  02                 [106] (76)
006A05  00                 [107] (76)
006A06  00                 [108] (76)
006A07  3A                 [109] (76)
006A08  02                 [110] (77)
006A09  00                 [111] (77)
006A0A  00                 [112] (77)
006A0B  3B                 [113] (78)
006A0C  02                 [114] (78)
006A0D  00                 [115] (78)
006A0E  00                 [116] (78)
006A0F  3B                 [117] (78)
006A10  02                 [118] (79)
006A11  00                 [119] (80)
006A12  00                 [120] (80)
006A13  3B                 [121] (80)
006A14  02                 [122] (80)
006A15  00                 [123] (80)
006A16  00                 [124] (81)
006A17  3B                 [125] (81)
006A18  02                 [126] (81)
006A19  00                 [127] (81)
006A1A  00                 [128] (81)
006A1B  3B                 [129] (81)
006A1C  02                 [130] (81)
006A1D  00                 [131] (81)
006A1E  00                 [132] (82)
006A1F  3B                 [133] (82)
006A20  02                 [134] (82)
006A21  00                 [135] (82)
006A22  00                 [136] (82)
006A23  3C                 [137] (83)
006A24  02                 [138] (87)
006A25  00                 [139] (87)
006A26  00                 [140] (87)
006A27  3C                 [141] (87)
006A28  02                 [142] (87)
006A29  00                 [143] (87)
006A2A  00                 [144] (87)
006A2B  3C                 [145] (87)
006A2C  02                 [146] (89)
006A2D  00                 [147] (89)
006A2E  00                 [148] (89)
006A2F  3C                 [149] (89)
006A30  02                 [150] (89)
006A31  00                 [151] (90)
006A32  00                 [152] (90)
006A33  3C                 [153] (90)
006A34  02                 [154] (90)
006A35  00                 [155] (90)
006A36  00                 [156] (90)
006A37  3C                 [157] (91)
006A38  02                 [158] (91)
006A39  00                 [159] (91)
006A3A  00                 [160] (91)
006A3B  3D                 [161] (91)
006A3C  02                 [162] (93)
006A3D  00                 [163] (96)
006A3E  00                 [164] (96)
006A3F  3D                 [165] (96)
006A40  02                 [166] (96)
006A41  00                 [167] (96)
006A42  00                 [168] (96)
006A43  3D                 [169] (98)
006A44  02                 [170] (98)
006A45  00                 [171] (99)
006A46  00                 [172] (99)
006A47  3D                 [173] (99)
006A48  02                 [174] (99)
006A49  00                 [175] (99)
006A4A  00                 [176] (99)
006A4B  3D                 [177] (99)
006A4C  02                 [178] (99)
006A4D  00                 [179] (99)
006A4E  00                 [180] (100)
006A4F  3D                 [181] (100)
006A50  02                 [182] (100)
006A51  00                 [183] (100)
006A52  00                 [184] (100)
006A53  3E                 [185] (100)
006A54  02                 [186] (100)
006A55  00                 [187] (103)
006A56  00                 [188] (103)
006A57  3E                 [189] (103)
006A58  02                 [190] (103)
006A59  00                 [191] (104)
006A5A  00                 [192] (104)
006A5B  3E                 [193] (107)
006A5C  02                 [194] (107)
006A5D  00                 [195] (107)
006A5E  00                 [196] (107)
006A5F  3E                 [197] (107)
006A60  02                 [198] (108)
006A61  00                 [199] (108)
006A62  00                 [200] (108)
006A63  3E                 [201] (108)
006A64  02                 [202] (108)
006A65  00                 [203] (108)
006A66  00                 [204] (108)
006A67  3E                 [205] (108)
006A68  02                 [206] (108)
006A69  00                 [207] (108)
006A6A  00                 [208] (108)
006A6B  3F                 [209] (108)
006A6C  02                 [210] (108)
006A6D  00                 [211] (109)
006A6E  00                 [212] (109)
006A6F  3F                 [213] (109)
006A70  02                 [214] (109)
006A71  00                 [215] (109)
006A72  00                 [216] (109)
006A73  3F                 [217] (109)
006A74  02                 [218] (109)
006A75  00                 [219] (109)
006A76  00                 [220] (109)
006A77  3F                 [221] (109)
006A78  02                 [222] (109)
006A79  00                 [223] (109)
006A7A  00                 [224] (111)
006A7B  40                 [225] (111)
006A7C  02                 [226] (111)
006A7D  00                 [227] (111)
006A7E  00                 [228] (111)
006A7F  40                 [229] (111)
006A80  02                 [230] (112)
006A81  00                 [231] (112)
006A82  00                 [232] (112)
006A83  40                 [233] (112)
006A84  02                 [234] (112)
006A85  00                 [235] (112)
006A86  00                 [236] (112)
006A87  40                 [237] (112)
006A88  02                 [238] (112)
006A89  00                 [239] (114)
006A8A  00                 [240] (114)
006A8B  42                 [241] (115)
006A8C  02                 [242] (115)
006A8D  00                 [243] (116)
006A8E  00                 [244] (116)
006A8F  42                 [245] (116)
006A90  02                 [246] (116)
006A91  00                 [247] (116)
006A92  00                 [248] (116)
006A93  42                 [249] (116)
006A94  02                 [250] (116)
006A95  00                 [251] (116)
006A96  00                 [252] (116)
006A97  42                 [253] (118)
006A98  02                 [254] (118)
006A99  00                 [255] (118)
006A9A  00                 [256] (118)
006A9B  43                 [257] (118)
006A9C  02                 [258] (118)
006A9D  00                 [259] (118)
006A9E  00                 [260] (118)
006A9F  43                 [261] (118)
006AA0  02                 [262] (121)
006AA1  00                 [263] (121)
006AA2  00                 [264] (121)
006AA3  43                 [265] (121)
006AA4  02                 [266] (121)
006AA5  00                 [267] (121)
006AA6  00                 [268] (122)
006AA7  43                 [269] (122)
006AA8  02                 [270] (122)
006AA9  00                 [271] (122)
006AAA  00                 [272] (122)
006AAB  43                 [273] (122)
006AAC  02                 [274] (122)
006AAD  00                 [275] (122)
006AAE  00                 [276] (122)
006AAF  43                 [277] (124)
006AB0  02                 [278] (125)
006AB1  00                 [279] (126)
006AB2  00                 [280] (127)
006AB3  43                 [281] (127)
006AB4  02                 [282] (127)
006AB5  00                 [283] (-128)
006AB6  00                 [284] (-128)
006AB7  43                 [285] (-128)
006AB8  02                 [286] (-127)
006AB9  00                 [287] (-127)
006ABA  00                 [288] (-127)
006ABB  43                 [289] (-127)
006ABC  02                 [290] (-127)
006ABD  00                 [291] (-126)
006ABE  00                 [292] (-126)
006ABF  43                 [293] (-126)
006AC0  02                 [294] (-125)
006AC1  00                 [295] (-125)
006AC2  00                 [296] (-125)
006AC3  42                 [297] (-122)
006AC4  02                 [298] (-121)
006AC5  00                 [299] (-120)
006AC6  00                 [300] (-119)
006AC7  46                 [301] (-119)
006AC8  02                 [302] (-118)
006AC9  00                 [303] (-118)
006ACA  00                 [304] (-118)
006ACB  46                 [305] (-118)
006ACC  02                 [306] (-117)
006ACD  00                 [307] (-117)
006ACE  00                 [308] (-117)
006ACF  46                 [309] (-117)
006AD0  02                 [310] (-117)
006AD1  00                 [311] (-117)
006AD2  00                 [312] (-117)
006AD3  46                 [313] (-117)
006AD4  02                 [314] (-117)
006AD5  00                 [315] (-117)
006AD6  00                 [316] (-117)
006AD7  47                 [317] (-116)
006AD8  02                 [318] (-115)
006AD9  00                 [319] (-118)
006ADA  00                 [320] (-114)
006ADB  47                 [321] (-111)
006ADC  02                 [322] (-111)
006ADD  00                 [323] (-111)
006ADE  00                 [324] (-111)
006ADF  47                 [325] (-110)
006AE0  02                 [326] (-110)
006AE1  00                 [327] (-111)
006AE2  00                 [328] (-107)
006AE3  47                 [329] (-107)
006AE4  02                 [330] (-107)
006AE5  00                 [331] (-107)
006AE6  00                 [332] (-107)
006AE7  47                 [333] (-106)
006AE8  02                 [334] (-106)
006AE9  00                 [335] (-107)
006AEA  00                 [336] (-101)
006AEB  47                 [337] (-101)
006AEC  02                 [338] (-101)
006AED  00                 [339] (-101)
006AEE  00                 [340] (-101)
006AEF  47                 [341] (-101)
006AF0  02                 [342] (-101)
006AF1  00                 [343] (-99)
006AF2  00                 [344] (-99)
006AF3  47                 [345] (-99)
006AF4  02                 [346] (-99)
006AF5  00                 [347] (-99)
006AF6  00                 [348] (-99)
006AF7  47                 [349] (-98)
006AF8  02                 [350] (-98)
006AF9  00                 [351] (-97)
006AFA  00                 [352] (-96)
006AFB  48                 [353] (-96)
006AFC  02                 [354] (-96)
006AFD  00                 [355] (-96)
006AFE  00                 [356] (-96)
006AFF  48                 [357] (-95)
006B00  02                 [358] (-95)
006B01  00                 [359] (-96)
006B02  00                 [360] (-92)
006B03  48                 [361] (-92)
006B04  02                 [362] (-90)
006B05  00                 [363] (-90)
006B06  00                 [364] (-90)
006B07  48                 [365] (-90)
006B08  02                 [366] (-89)
006B09  00                 [367] (-89)
006B0A  00                 [368] (-89)
006B0B  48                 [369] (-89)
006B0C  02                 [370] (-89)
006B0D  00                 [371] (-88)
006B0E  00                 [372] (-88)
006B0F  48                 [373] (-88)
006B10  02                 [374] (-88)
006B11  00                 [375] (-88)
006B12  00                 [376] (-88)
006B13  48                 [377] (-88)
006B14  02                 [378] (-88)
006B15  00                 [379] (-88)
006B16  00                 [380] (-88)
006B17  48                 [381] (-88)
006B18  02                 [382] (-88)
006B19  00                 [383] (-88)
006B1A  00                 [384] (-88)
006B1B  48                 [385] (-88)
006B1C  02                 [386] (-87)
006B1D  00                 [387] (-87)
006B1E  00                 [388] (-87)
006B1F  48                 [389] (-87)
006B20  02                 [390] (-87)
006B21  00                 [391] (-87)
006B22  00                 [392] (-87)
006B23  46                 [393] (-87)
006B24  02                 [394] (-87)
006B25  00                 [395] (-87)
006B26  00                 [396] (-87)
006B27  4B                 [397] (-87)
006B28  02                 [398] (-87)
006B29  00                 [399] (-87)
006B2A  00                 [400] (-87)
006B2B  4B                 [401] (-87)
006B2C  02                 [402] (-87)
006B2D  00                 [403] (-87)
006B2E  00                 [404] (-87)
006B2F  4C                 [405] (-90)
006B30  02                 [406] (-84)
006B31  00                 [407] (-84)
006B32  00                 [408] (-84)
006B33  4C                 [409] (-84)
006B34  02                 [410] (-84)
006B35  00                 [411] (-83)
006B36  00                 [412] (-83)
006B37  4C                 [413] (-83)
006B38  02                 [414] (-83)
006B39  00                 [415] (-83)
006B3A  00                 [416] (-83)
006B3B  4C                 [417] (-83)
006B3C  02                 [418] (-83)
006B3D  00                 [419] (-83)
006B3E  00                 [420] (-83)
006B3F  4C                 [421] (-82)
006B40  02                 [422] (-82)
006B41  00                 [423] (-82)
006B42  00                 [424] (-82)
006B43  4C                 [425] (-82)
006B44  02                 [426] (-82)
006B45  00                 [427] (-82)
006B46  00                 [428] (-82)
006B47  4C                 [429] (-82)
006B48  02                 [430] (-82)
006B49  00                 [431] (-82)
006B4A  00                 [432] (-81)
006B4B  4C                 [433] (-80)
006B4C  02                 [434] (-80)
006B4D  00                 [435] (-80)
006B4E  00                 [436] (-80)
006B4F  4D                 [437] (-80)
006B50  02                 [438] (-80)
006B51  00                 [439] (-79)
006B52  00                 [440] (-79)
006B53  4D                 [441] (-79)
006B54  02                 [442] (-79)
006B55  00                 [443] (-79)
006B56  00                 [444] (-79)
006B57  4D                 [445] (-79)
006B58  02                 [446] (-79)
006B59  00                 [447] (-79)
006B5A  00                 [448] (-79)
006B5B  4E                 [449] (-79)
006B5C  02                 [450] (-76)
006B5D  00                 [451] (-76)
006B5E  00                 [452] (-76)
006B5F  4E                 [453] (-76)
006B60  02                 [454] (-75)
006B61  00                 [455] (-75)
006B62  00                 [456] (-75)
006B63  4E                 [457] (-74)
006B64  02                 [458] (-74)
006B65  00                 [459] (-74)
006B66  00                 [460] (-73)
006B67  4E                 [461] (-73)
006B68  02                 [462] (-73)
006B69  00                 [463] (-73)
006B6A  00                 [464] (-73)
006B6B  4E                 [465] (-73)
006B6C  02                 [466] (-73)
006B6D  00                 [467] (-73)
006B6E  00                 [468] (-72)
006B6F  4F                 [469] (-72)
006B70  02                 [470] (-72)
006B71  00                 [471] (-72)
006B72  00                 [472] (-72)
006B73  50                 [473] (-70)
006B74  02                 [474] (-70)
006B75  00                 [475] (-70)
006B76  00                 [476] (-70)
006B77  50                 [477] (-70)
006B78  02                 [478] (-70)
006B79  00                 [479] (-70)
006B7A  00                 [480] (-70)
006B7B  50                 [481] (-70)
006B7C  02                 [482] (-70)
006B7D  00                 [483] (-70)
006B7E  00                 [484] (-70)
006B7F  50                 [485] (-70)
006B80  02                 [486] (-70)
006B81  00                 [487] (-70)
006B82  00                 [488] (-69)
006B83  50                 [489] (-69)
006B84  02                 [490] (-69)
006B85  00                 [491] (-69)
006B86  00                 [492] (-66)
006B87  51                 [493] (-66)
006B88  02                 [494] (-66)
006B89  00                 [495] (-65)
006B8A  00                 [496] (-65)
006B8B  51                 [497] (-64)
006B8C  02                 [498] (-64)
006B8D  00                 [499] (-63)
006B8E  00                 [500] (-63)
006B8F  51                 [501] (-63)
006B90  02                 [502] (-63)
006B91  00                 [503] (-63)
006B92  00                 [504] (-63)
006B93  51                 [505] (-63)
006B94  02                 [506] (-63)
006B95  00                 [507] (-63)
006B96  00                 [508] (-63)
006B97  51                 [509] (-63)
006B98  02                 [510] (-63)
006B99  00                 [511] (-63)
006B9A  00                 [512] (-63)
006B9B  51                 [513] (-63)
006B9C  02                 [514] (-61)
006B9D  00                 [515] (-61)
006B9E  00                 [516] (-61)
006B9F  51                 [517] (-61)
006BA0  02                 [518] (-61)
006BA1  00                 [519] (-61)
006BA2  00                 [520] (-61)
006BA3  51                 [521] (-61)
006BA4  02                 [522] (-61)
006BA5  00                 [523] (-61)
006BA6  00                 [524] (-60)
006BA7  52                 [525] (-58)
006BA8  02                 [526] (-58)
006BA9  00                 [527] (-58)
006BAA  00                 [528] (-58)
006BAB  52                 [529] (-57)
006BAC  02                 [530] (-57)
006BAD  00                 [531] (-57)
006BAE  00                 [532] (-57)
006BAF  52                 [533] (-56)
006BB0  02                 [534] (-55)
006BB1  00                 [535] (-53)
006BB2  00                 [536] (-53)
006BB3  52                 [537] (-53)
006BB4  02                 [538] (-53)
006BB5  00                 [539] (-53)
006BB6  00                 [540] (-53)
006BB7  52                 [541] (-51)
006BB8  02                 [542] (-50)
006BB9  00                 [543] (-50)
006BBA  00                 [544] (-50)
006BBB  53                 [545] (-50)
006BBC  02                 [546] (-49)
006BBD  00                 [547] (-49)
006BBE  00                 [548] (-49)
006BBF  57                 [549] (-49)
006BC0  02                 [550] (-49)
006BC1  00                 [551] (-49)
006BC2  00                 [552] (-49)
006BC3  57                 [553] (-49)
006BC4  02                 [554] (-49)
006BC5  00                 [555] (-49)
006BC6  00                 [556] (-49)
006BC7  57                 [557] (-49)
006BC8  02                 [558] (-48)
006BC9  00                 [559] (-47)
006BCA  00                 [560] (-47)
006BCB  57                 [561] (-47)
006BCC  02                 [562] (-46)
006BCD  00                 [563] (-46)
006BCE  00                 [564] (-46)
006BCF  57                 [565] (-45)
006BD0  02                 [566] (-45)
006BD1  00                 [567] (-45)
006BD2  00                 [568] (-45)
006BD3  57                 [569] (-45)
006BD4  02                 [570] (-45)
006BD5  00                 [571] (-45)
006BD6  00                 [572] (-45)
006BD7  57                 [573] (-45)
006BD8  02                 [574] (-45)
006BD9  00                 [575] (-45)
006BDA  00                 [576] (-45)
006BDB  57                 [577] (-45)
006BDC  02                 [578] (-45)
006BDD  00                 [579] (-44)
006BDE  00                 [580] (-44)
006BDF  59                 [581] (-44)
006BE0  02                 [582] (-44)
006BE1  00                 [583] (-44)
006BE2  00                 [584] (-44)
006BE3  59                 [585] (-44)
006BE4  02                 [586] (-44)
006BE5  00                 [587] (-44)
006BE6  00                 [588] (-44)
006BE7  59                 [589] (-44)
006BE8  02                 [590] (-44)
006BE9  00                 [591] (-44)
006BEA  00                 [592] (-44)
006BEB  59                 [593] (-44)
006BEC  02                 [594] (-44)
006BED  00                 [595] (-44)
006BEE  00                 [596] (-44)
006BEF  59                 [597] (-44)
006BF0  02                 [598] (-44)
006BF1  00                 [599] (-44)
006BF2  00                 [600] (-43)
006BF3  5A                 [601] (-42)
006BF4  02                 [602] (-42)
006BF5  00                 [603] (-42)
006BF6  00                 [604] (-42)
006BF7  5A                 [605] (-42)
006BF8  02                 [606] (-42)
006BF9  00                 [607] (-41)
006BFA  00                 [608] (-41)
006BFB  5A                 [609] (-41)
006BFC  02                 [610] (-41)
006BFD  00                 [611] (-41)
006BFE  00                 [612] (-41)
006BFF  5A                 [613] (-41)
006C00  02                 [614] (-41)
006C01  00                 [615] (-41)
006C02  00                 [616] (-41)
006C03  5A                 [617] (-38)
006C04  02                 [618] (-38)
006C05  00                 [619] (-38)
006C06  00                 [620] (-38)
006C07  5A                 [621] (-38)
006C08  02                 [622] (-38)
006C09  00                 [623] (-37)
006C0A  00                 [624] (-37)
006C0B  5B                 [625] (-37)
006C0C  02                 [626] (-37)
006C0D  00                 [627] (-37)
006C0E  00                 [628] (-37)
006C0F  5B                 [629] (-37)
006C10  02                 [630] (-37)
006C11  00                 [631] (-35)
006C12  00                 [632] (-35)
006C13  5B                 [633] (-35)
006C14  02                 [634] (-35)
006C15  00                 [635] (-35)
006C16  00                 [636] (-35)
006C17  5B                 [637] (-35)
006C18  02                 [638] (-35)
006C19  00                 [639] (-34)
006C1A  00                 [640] (-34)
006C1B  5B                 [641] (-34)
006C1C  02                 [642] (-34)
006C1D  00                 [643] (-34)
006C1E  00                 [644] (-34)
006C1F  5D                 [645] (-34)
006C20  02                 [646] (-34)
006C21  00                 [647] (-32)
006C22  00                 [648] (-32)
006C23  60                 [649] (-31)
006C24  02                 [650] (-29)
006C25  00                 [651] (-29)
006C26  00                 [652] (-29)
006C27  60                 [653] (-28)
006C28  02                 [654] (-28)
006C29  00                 [655] (-28)
006C2A  00                 [656] (-28)
006C2B  60                 [657] (-28)
006C2C  02                 [658] (-28)
006C2D  00                 [659] (-26)
006C2E  00                 [660] (-26)
006C2F  60                 [661] (-26)
006C30  02                 [662] (-26)
006C31  00                 [663] (-26)
006C32  00                 [664] (-26)
006C33  60                 [665] (-26)
006C34  02                 [666] (-25)
006C35  00                 [667] (-25)
006C36  00                 [668] (-25)
006C37  60                 [669] (-25)
006C38  02                 [670] (-25)
006C39  00                 [671] (-25)
006C3A  00                 [672] (-25)
006C3B  62                 [673] (-24)
006C3C  02                 [674] (-24)
006C3D  00                 [675] (-24)
006C3E  00                 [676] (-24)
006C3F  62                 [677] (-24)
006C40  02                 [678] (-24)
006C41  00                 [679] (-24)
006C42  00                 [680] (-23)
006C43  63                 [681] (-23)
006C44  02                 [682] (-23)
006C45  00                 [683] (-23)
006C46  00                 [684] (-23)
006C47  63                 [685] (-23)
006C48  02                 [686] (-23)
006C49  00                 [687] (-22)
006C4A  00                 [688] (-22)
006C4B  63                 [689] (-22)
006C4C  02                 [690] (-22)
006C4D  00                 [691] (-22)
006C4E  00                 [692] (-22)
006C4F  63                 [693] (-22)
006C50  02                 [694] (-22)
006C51  00                 [695] (-22)
006C52  00                 [696] (-22)
006C53  63                 [697] (-22)
006C54  02                 [698] (-22)
006C55  00                 [699] (-22)
006C56  00                 [700] (-22)
006C57  63                 [701] (-22)
006C58  02                 [702] (-22)
006C59  00                 [703] (-22)
006C5A  00                 [704] (-21)
006C5B  63                 [705] (-21)
006C5C  02                 [706] (-21)
006C5D  00                 [707] (-21)
006C5E  00                 [708] (-21)
006C5F  63                 [709] (-21)
006C60  02                 [710] (-21)
006C61  00                 [711] (-21)
006C62  00                 [712] (-21)
006C63  63                 [713] (-21)
006C64  02                 [714] (-20)
006C65  00                 [715] (-20)
006C66  00                 [716] (-20)
006C67  64                 [717] (-20)
006C68  02                 [718] (-20)
006C69  00                 [719] (-20)
006C6A  00                 [720] (-20)
006C6B  64                 [721] (-20)
006C6C  02                 [722] (-20)
006C6D  00                 [723] (-20)
006C6E  00                 [724] (-20)
006C6F  64                 [725] (-20)
006C70  02                 [726] (-20)
006C71  00                 [727] (-18)
006C72  00                 [728] (-18)
006C73  64                 [729] (-18)
006C74  02                 [730] (-18)
006C75  00                 [731] (-18)
006C76  00                 [732] (-18)
006C77  64                 [733] (-18)
006C78  02                 [734] (-17)
006C79  00                 [735] (-17)
006C7A  00                 [736] (-17)
006C7B  64                 [737] (-17)
006C7C  02                 [738] (-17)
006C7D  00                 [739] (-17)
006C7E  00                 [740] (-17)
006C7F  64                 [741] (-17)
006C80  02                 [742] (-17)
006C81  00                 [743] (-17)
006C82  00                 [744] (-16)
006C83  67                 [745] (-16)
006C84  02                 [746] (-16)
006C85  00                 [747] (-16)
006C86  00                 [748] (-16)
006C87  67                 [749] (-16)
006C88  02                 [750] (-16)
006C89  00                 [751] (-15)
006C8A  00                 [752] (-15)
006C8B  67                 [753] (-15)
006C8C  02                 [754] (-15)
006C8D  00                 [755] (-15)
006C8E  00                 [756] (-15)
006C8F  67                 [757] (-15)
006C90  02                 [758] (-14)
006C91  00                 [759] (-14)
006C92  00                 [760] (-14)
006C93  68                 [761] (-14)
006C94  02                 [762] (-14)
006C95  00                 [763] (-14)
006C96  00                 [764] (-13)
006C97  68                 [765] (-12)
006C98  02                 [766] (-12)
006C99  00                 [767] (-12)
006C9A  00                 [768] (-12)
006C9B  6B                 [769] (-12)
006C9C  02                 [770] (-12)
006C9D  00                 [771] (-12)
006C9E  00                 [772] (-11)
006C9F  6B                 [773] (-11)
006CA0  02                 [774] (-11)
006CA1  00                 [775] (-11)
006CA2  00                 [776] (-11)
006CA3  6B                 [777] (-11)
006CA4  02                 [778] (-11)
006CA5  00                 [779] (-11)
006CA6  00                 [780] (-11)
006CA7  6B                 [781] (-11)
006CA8  02                 [782] (-11)
006CA9  00                 [783] (-11)
006CAA  00                 [784] (-11)
006CAB  6B                 [785] (-10)
006CAC  02                 [786] (-10)
006CAD  00                 [787] (-10)
006CAE  00                 [788] (-10)
006CAF  6C                 [789] (-10)
006CB0  02                 [790] (-10)
006CB1  00                 [791] (-10)
006CB2  00                 [792] (-10)
006CB3  6C                 [793] (-10)
006CB4  02                 [794] (-10)
006CB5  00                 [795] (-10)
006CB6  00                 [796] (-8)
006CB7  6C                 [797] (-8)
006CB8  02                 [798] (-8)
006CB9  00                 [799] (-6)
006CBA  00                 [800] (-6)
006CBB  6C                 [801] (-6)
006CBC  02                 [802] (-6)
006CBD  00                 [803] (-6)
006CBE  00                 [804] (-5)
006CBF  6C                 [805] (-5)
006CC0  02                 [806] (-5)
006CC1  00                 [807] (-5)
006CC2  00                 [808] (-5)
006CC3  6C                 [809] (-5)
006CC4  02                 [810] (-5)
006CC5  00                 [811] (-5)
006CC6  00                 [812] (-5)
006CC7  6C                 [813] (-5)
006CC8  02                 [814] (-5)
006CC9  00                 [815] (-5)
006CCA  00                 [816] (-4)
006CCB  6C                 [817] (-4)
006CCC  02                 [818] (-4)
006CCD  00                 [819] (-4)
006CCE  00                 [820] (-4)
006CCF  6C                 [821] (-4)
006CD0  02                 [822] (-4)
006CD1  00                 [823] (-2)
006CD2  00                 [824] (-2)
006CD3  6C                 [825] (-2)
006CD4  02                 [826] (-2)
006CD5  00                 [827] (-2)
006CD6  00                 [828] (-2)
006CD7  6C                 [829] (-2)
006CD8  02                 [830] (-2)
006CD9  00                 [831] (-1)
006CDA  00                 [832] (-1)
006CDB  6C                 [833] (-1)
006CDC  02                 [834] (-1)
006CDD  00                 [835] (-1)
006CDE  00                 [836] (-1)
006CDF  6C                 [837] (-1)
006CE0  02                 [838] (0)
006CE1  00                 [839] (0)
006CE2  00                 [840] (0)
006CE3  6D                 [841] (0)
006CE4  02                 [842] (0)
006CE5  00                 [843] (0)
006CE6  00                 [844] (0)
006CE7  6D                 [845] (1)
006CE8  02                 [846] (1)
006CE9  00                 [847] (1)
006CEA  00                 [848] (1)
006CEB  6D                 [849] (1)
006CEC  02                 [850] (1)
006CED  00                 [851] (1)
006CEE  00                 [852] (1)
006CEF  6D                 [853] (2)
006CF0  02                 [854] (2)
006CF1  00                 [855] (2)
006CF2  00                 [856] (2)
006CF3  6D                 [857] (2)
006CF4  02                 [858] (2)
006CF5  00                 [859] (2)
006CF6  00                 [860] (2)
006CF7  6D                 [861] (3)
006CF8  02                 [862] (3)
006CF9  00                 [863] (3)
006CFA  00                 [864] (3)
006CFB  6D                 [865] (3)
006CFC  02                 [866] (3)
006CFD  00                 [867] (3)
006CFE  00                 [868] (3)
006CFF  6D                 [869] (4)
006D00  02                 [870] (4)
006D01  00                 [871] (4)
006D02  00                 [872] (4)
006D03  6D                 [873] (4)
006D04  02                 [874] (4)
006D05  00                 [875] (4)
006D06  00                 [876] (4)
006D07  6D                 [877] (4)
006D08  02                 [878] (6)
006D09  00                 [879] (6)
006D0A  00                 [880] (6)
006D0B  6D                 [881] (6)
006D0C  02                 [882] (6)
006D0D  00                 [883] (6)
006D0E  00                 [884] (7)
006D0F  6D                 [885] (7)
006D10  02                 [886] (7)
006D11  00                 [887] (7)
006D12  00                 [888] (7)
006D13  6D                 [889] (7)
006D14  02                 [890] (7)
006D15  00                 [891] (7)
006D16  00                 [892] (7)
006D17  6F                 [893] (7)
006D18  02                 [894] (7)
006D19  00                 [895] (7)
006D1A  00                 [896] (7)
006D1B  6F                 [897] (8)
006D1C  02                 [898] (-50)
006D1D  00                 [899] (11)
006D1E  00                 [900] (11)
006D1F  6F                 [901] (11)
006D20  02                 [902] (11)
006D21  00                 [903] (12)
006D22  00                 [904] (12)
006D23  6F                 [905] (12)
006D24  02                 [906] (12)
006D25  00                 [907] (14)
006D26  00                 [908] (14)
006D27  6F                 [909] (15)
                           * locals:
0077CF  00                 sizelocvars (0)
                           * upvalues:
0077D0  00                 sizeupvalues (0)
                           ** end of function **

                           
0077D1                     ** function [15] definition (level 2)
                           ** start of function **
0077D1  00                 string size (0)
                           source name: (none)
0077D3  06                 line defined (785)
0077D4  9D                 last line defined (797)
0077D5  06                 nups (1)
0077D6  01                 numparams (2)
0077D7  02                 is_vararg (0)
0077D8  00                 maxstacksize (6)
                           * code:
0077DA  25                 sizecode (37)
0077DB  8E004000           [01] gettable   2   0   256  ; "Filler"
0077DF  98400000           [02] test       2       1    ; to [4] if false
0077E3  1A000080           [03] jmp        1            ; to [5]
0077E7  8E404000           [04] gettable   2   0   257  ; "EmptySlot"
0077EB  CB000200           [05] newtable   3   0   8    ; array=0, hash=8
0077EF  CCC04081           [06] settable   3   258 259  ; "HideCountThreshold" 0
0077F3  CC800082           [07] settable   3   260 2    ; "IsFiller"
0077F7  CC408082           [08] settable   3   261 1    ; "IsFocused"
0077FB  98400000           [09] test       2       1    ; to [11] if false
0077FF  1A000180           [10] jmp        5            ; to [16]
007803  13010000           [11] getupval   4   0      
007807  0EC14102           [12] gettable   4   4   263  ; "mPrevSelectedId"
00780B  4E014200           [13] gettable   5   0   264  ; "Id"
fail op	35
00780F  63400102           [14] close      1  
007813  1A000080           [15] jmp        1            ; to [17]
007817  17410000           [16] loadbool   4   0   1    ; false, to [18]
00781B  17018000           [17] loadbool   4   1   0    ; true
00781F  CC000183           [18] settable   3   262 4    ; "IsSelected"
007823  0E814200           [19] gettable   4   0   266  ; "Equipped"
007827  CC008184           [20] settable   3   265 4    ; "Locked"
00782B  CC00C385           [21] settable   3   267 268  ; "LockedMsg" "/Lotus/Language/Menu/ItemSelection_Equipped"
00782F  0B410000           [22] newtable   4   0   1    ; array=0, hash=1
007833  0CC14387           [23] settable   4   270 271  ; "TagOverride" "/Lotus/Language/Menu/HowManyRequired"
007837  CC008186           [24] settable   3   269 4    ; "OwnedInfo"
fail op	5
00783B  05018000           [25] getglobal  4   512      ; nil
00783F  1AC00180           [26] jmp        8            ; to [35]
007843  0E414200           [27] gettable   4   0   265  ; "Locked"
007847  18410000           [28] test       4       1    ; to [30] if false
00784B  1A800080           [29] jmp        3            ; to [33]
00784F  0E414400           [30] gettable   4   0   273  ; "Hidden"
fail op	9
007853  09010002           [31] settable   4   4   0  
007857  1A400080           [32] jmp        2            ; to [35]
00785B  17410000           [33] loadbool   4   0   1    ; false, to [35]
00785F  17018000           [34] loadbool   4   1   0    ; true
007863  CC000188           [35] settable   3   272 4    ; "ShowInfoPopup"
007867  DE000001           [36] return     3   2      
00786B  1E008000           [37] return     0   1      
                           * constants:
00786F  12                 sizek (18)
007870  04                 const type 4
007871  07                 string size (7)
007872  46696C6C657200     "Filler\0"
                           const [0]: "Filler"
007879  04                 const type 4
00787A  0A                 string size (10)
00787B  456D707479536C6F+  "EmptySlo"
007883  7400               "t\0"
                           const [1]: "EmptySlot"
007885  04                 const type 4
007886  13                 string size (19)
007887  48696465436F756E+  "HideCoun"
00788F  745468726573686F+  "tThresho"
007897  6C6400             "ld\0"
                           const [2]: "HideCountThreshold"
00789A  03                 const type 3
00789B  0000803F           const [3]: (0)
00789F  04                 const type 4
0078A0  09                 string size (9)
0078A1  497346696C6C6572+  "IsFiller"
0078A9  00                 "\0"
                           const [4]: "IsFiller"
0078AA  04                 const type 4
0078AB  0A                 string size (10)
0078AC  4973466F63757365+  "IsFocuse"
0078B4  6400               "d\0"
                           const [5]: "IsFocused"
0078B6  04                 const type 4
0078B7  0B                 string size (11)
0078B8  497353656C656374+  "IsSelect"
0078C0  656400             "ed\0"
                           const [6]: "IsSelected"
0078C3  04                 const type 4
0078C4  10                 string size (16)
0078C5  6D5072657653656C+  "mPrevSel"
0078CD  6563746564496400   "ectedId\0"
                           const [7]: "mPrevSelectedId"
0078D5  04                 const type 4
0078D6  03                 string size (3)
0078D7  496400             "Id\0"
                           const [8]: "Id"
0078DA  04                 const type 4
0078DB  07                 string size (7)
0078DC  4C6F636B656400     "Locked\0"
                           const [9]: "Locked"
0078E3  04                 const type 4
0078E4  09                 string size (9)
0078E5  4571756970706564+  "Equipped"
0078ED  00                 "\0"
                           const [10]: "Equipped"
0078EE  04                 const type 4
0078EF  0A                 string size (10)
0078F0  4C6F636B65644D73+  "LockedMs"
0078F8  6700               "g\0"
                           const [11]: "LockedMsg"
0078FA  04                 const type 4
0078FB  2C                 string size (44)
0078FC  2F4C6F7475732F4C+  "/Lotus/L"
007904  616E67756167652F+  "anguage/"
00790C  4D656E752F497465+  "Menu/Ite"
007914  6D53656C65637469+  "mSelecti"
00791C  6F6E5F4571756970+  "on_Equip"
007924  70656400           "ped\0"
                           const [12]: "/Lotus/Language/Menu/ItemSelection_Equipped"
007928  04                 const type 4
007929  0A                 string size (10)
00792A  4F776E6564496E66+  "OwnedInf"
007932  6F00               "o\0"
                           const [13]: "OwnedInfo"
007934  04                 const type 4
007935  0C                 string size (12)
007936  5461674F76657272+  "TagOverr"
00793E  69646500           "ide\0"
                           const [14]: "TagOverride"
007942  04                 const type 4
007943  25                 string size (37)
007944  2F4C6F7475732F4C+  "/Lotus/L"
00794C  616E67756167652F+  "anguage/"
007954  4D656E752F486F77+  "Menu/How"
00795C  4D616E7952657175+  "ManyRequ"
007964  6972656400         "ired\0"
                           const [15]: "/Lotus/Language/Menu/HowManyRequired"
007969  04                 const type 4
00796A  0E                 string size (14)
00796B  53686F77496E666F+  "ShowInfo"
007973  506F70757000       "Popup\0"
                           const [16]: "ShowInfoPopup"
007979  04                 const type 4
00797A  07                 string size (7)
00797B  48696464656E00     "Hidden\0"
                           const [17]: "Hidden"
                           * functions:
007982  00                 sizep (0)
                           * lines:
007983  25                 sizelineinfo (37)
                           [pc] (line)
007984  12                 [01] (18)
007985  03                 [02] (18)
007986  00                 [03] (18)
007987  00                 [04] (18)
007988  12                 [05] (19)
007989  03                 [06] (20)
00798A  00                 [07] (21)
00798B  00                 [08] (22)
00798C  12                 [09] (23)
00798D  03                 [10] (23)
00798E  00                 [11] (23)
00798F  00                 [12] (23)
007990  12                 [13] (23)
007991  03                 [14] (23)
007992  00                 [15] (23)
007993  00                 [16] (23)
007994  13                 [17] (23)
007995  03                 [18] (23)
007996  00                 [19] (24)
007997  00                 [20] (24)
007998  14                 [21] (25)
007999  03                 [22] (26)
00799A  00                 [23] (26)
00799B  00                 [24] (26)
00799C  15                 [25] (27)
00799D  03                 [26] (27)
00799E  00                 [27] (27)
00799F  00                 [28] (27)
0079A0  16                 [29] (27)
0079A1  03                 [30] (27)
0079A2  00                 [31] (27)
0079A3  00                 [32] (27)
0079A4  17                 [33] (27)
0079A5  03                 [34] (27)
0079A6  00                 [35] (27)
0079A7  00                 [36] (28)
0079A8  17                 [37] (29)
                           * locals:
007A18  00                 sizelocvars (0)
                           * upvalues:
007A19  00                 sizeupvalues (0)
                           ** end of function **

                           
007A1A                     ** function [16] definition (level 2)
                           ** start of function **
007A1A  00                 string size (0)
                           source name: (none)
007A1C  06                 line defined (799)
007A1D  A1                 last line defined (801)
007A1E  06                 nups (2)
007A1F  02                 numparams (2)
007A20  02                 is_vararg (0)
007A21  00                 maxstacksize (6)
                           * code:
007A23  07                 sizecode (7)
007A24  93000000           [1] getupval   2   0      
007A28  8E004001           [2] gettable   2   2   256  ; 1000090404
007A2C  DD400000           [3] getglobal  3   1        ; mMovie
007A30  13018000           [4] getupval   4   1      
007A34  52010000           [5] move       5   0      
007A38  A2400002           [6] call       2   4   1  
007A3C  1E008000           [7] return     0   1      
                           * constants:
007A40  02                 sizek (2)
007A41  01                 const type 3
007A42  242B9C3B           const [0]: (1000090404)
007A46  04                 const type 4
007A47  07                 string size (7)
007A48  6D4D6F76696500     "mMovie\0"
                           const [1]: "mMovie"
                           * functions:
007A4F  00                 sizep (0)
                           * lines:
007A50  07                 sizelineinfo (7)
                           [pc] (line)
007A51  20                 [1] (32)
007A52  03                 [2] (32)
007A53  00                 [3] (32)
007A54  00                 [4] (32)
007A55  20                 [5] (32)
007A56  03                 [6] (32)
007A57  00                 [7] (33)
                           * locals:
007A6D  00                 sizelocvars (0)
                           * upvalues:
007A6E  00                 sizeupvalues (0)
                           ** end of function **

                           
007A6F                     ** function [17] definition (level 2)
                           ** start of function **
007A6F  00                 string size (0)
                           source name: (none)
007A71  06                 line defined (803)
007A72  A9                 last line defined (809)
007A73  06                 nups (3)
007A74  03                 numparams (1)
007A75  01                 is_vararg (0)
007A76  00                 maxstacksize (8)
                           * code:
007A78  0F                 sizecode (15)
007A79  4E004000           [01] gettable   1   0   256  ; "mClipName"
fail op	35
007A7D  2340C000           [02] close      0  
007A81  1A000080           [03] jmp        1            ; to [5]
007A85  1E008000           [04] return     0   1      
007A89  53000000           [05] getupval   1   0      
007A8D  4E80C000           [06] gettable   1   1   258  ; 81281438
007A91  9DC00000           [07] getglobal  2   3        ; mMovie
007A95  D3008000           [08] getupval   3   1      
007A99  12010000           [09] move       4   0      
007A9D  53010001           [10] getupval   5   2      
007AA1  92010000           [11] move       6   0      
007AA5  D7018000           [12] loadbool   7   1   0    ; true
007AA9  62018001           [13] call       5   3   0  
007AAD  62400000           [14] call       1   0   1  
007AB1  1E008000           [15] return     0   1      
                           * constants:
007AB5  04                 sizek (4)
007AB6  04                 const type 4
007AB7  0A                 string size (10)
007AB8  6D436C69704E616D+  "mClipNam"
007AC0  6500               "e\0"
                           const [0]: "mClipName"
007AC2  00                 const type 0
                           const [1]: nil
007AC3  01                 const type 3
007AC4  9E41D804           const [2]: (81281438)
007AC8  04                 const type 4
007AC9  07                 string size (7)
007ACA  6D4D6F76696500     "mMovie\0"
                           const [3]: "mMovie"
                           * functions:
007AD1  00                 sizep (0)
                           * lines:
007AD2  0F                 sizelineinfo (15)
                           [pc] (line)
007AD3  24                 [01] (36)
007AD4  03                 [02] (36)
007AD5  00                 [03] (36)
007AD6  00                 [04] (37)
007AD7  24                 [05] (40)
007AD8  03                 [06] (40)
007AD9  00                 [07] (40)
007ADA  00                 [08] (40)
007ADB  24                 [09] (40)
007ADC  03                 [10] (40)
007ADD  00                 [11] (40)
007ADE  00                 [12] (40)
007ADF  25                 [13] (40)
007AE0  03                 [14] (40)
007AE1  00                 [15] (41)
                           * locals:
007B0F  00                 sizelocvars (0)
                           * upvalues:
007B10  00                 sizeupvalues (0)
                           ** end of function **

                           
007B11                     ** function [18] definition (level 2)
                           ** start of function **
007B11  00                 string size (0)
                           source name: (none)
007B13  06                 line defined (811)
007B14  B1                 last line defined (817)
007B15  06                 nups (3)
007B16  03                 numparams (1)
007B17  01                 is_vararg (0)
007B18  00                 maxstacksize (8)
                           * code:
007B1A  0F                 sizecode (15)
007B1B  4E004000           [01] gettable   1   0   256  ; "mClipName"
fail op	35
007B1F  2340C000           [02] close      0  
007B23  1A000080           [03] jmp        1            ; to [5]
007B27  1E008000           [04] return     0   1      
007B2B  53000000           [05] getupval   1   0      
007B2F  4E80C000           [06] gettable   1   1   258  ; 81281438
007B33  9DC00000           [07] getglobal  2   3        ; mMovie
007B37  D3008000           [08] getupval   3   1      
007B3B  12010000           [09] move       4   0      
007B3F  53010001           [10] getupval   5   2      
007B43  92010000           [11] move       6   0      
007B47  D7010000           [12] loadbool   7   0   0    ; false
007B4B  62018001           [13] call       5   3   0  
007B4F  62400000           [14] call       1   0   1  
007B53  1E008000           [15] return     0   1      
                           * constants:
007B57  04                 sizek (4)
007B58  04                 const type 4
007B59  0A                 string size (10)
007B5A  6D436C69704E616D+  "mClipNam"
007B62  6500               "e\0"
                           const [0]: "mClipName"
007B64  00                 const type 0
                           const [1]: nil
007B65  01                 const type 3
007B66  9E41D804           const [2]: (81281438)
007B6A  04                 const type 4
007B6B  07                 string size (7)
007B6C  6D4D6F76696500     "mMovie\0"
                           const [3]: "mMovie"
                           * functions:
007B73  00                 sizep (0)
                           * lines:
007B74  0F                 sizelineinfo (15)
                           [pc] (line)
007B75  2C                 [01] (44)
007B76  03                 [02] (44)
007B77  00                 [03] (44)
007B78  00                 [04] (45)
007B79  2C                 [05] (48)
007B7A  03                 [06] (48)
007B7B  00                 [07] (48)
007B7C  00                 [08] (48)
007B7D  2C                 [09] (48)
007B7E  03                 [10] (48)
007B7F  00                 [11] (48)
007B80  00                 [12] (48)
007B81  2D                 [13] (48)
007B82  03                 [14] (48)
007B83  00                 [15] (49)
                           * locals:
007BB1  00                 sizelocvars (0)
                           * upvalues:
007BB2  00                 sizeupvalues (0)
                           ** end of function **

                           
007BB3                     ** function [19] definition (level 2)
                           ** start of function **
007BB3  00                 string size (0)
                           source name: (none)
007BB5  06                 line defined (819)
007BB6  B9                 last line defined (825)
007BB7  06                 nups (3)
007BB8  03                 numparams (1)
007BB9  01                 is_vararg (0)
007BBA  00                 maxstacksize (9)
                           * code:
007BBC  15                 sizecode (21)
007BBD  4E004000           [01] gettable   1   0   256  ; "mClipName"
fail op	35
007BC1  2340C000           [02] close      0  
007BC5  1A000080           [03] jmp        1            ; to [5]
007BC9  1E008000           [04] return     0   1      
007BCD  53000000           [05] getupval   1   0      
007BD1  4E80C000           [06] gettable   1   1   258  ; 1503902066
007BD5  9DC00000           [07] getglobal  2   3        ; mMovie
007BD9  D3008000           [08] getupval   3   1      
007BDD  12010000           [09] move       4   0      
007BE1  53010001           [10] getupval   5   2      
007BE5  92010000           [11] move       6   0      
007BE9  D3018000           [12] getupval   7   1      
007BED  E401C103           [13] self       7   7   260  ; -1749775947
007BF1  E2810001           [14] call       7   2   2  
fail op	35
007BF5  63C00100           [15] close      1  
007BF9  1A000080           [16] jmp        1            ; to [18]
007BFD  D7410000           [17] loadbool   7   0   1    ; false, to [19]
007C01  D7018000           [18] loadbool   7   1   0    ; true
007C05  62018001           [19] call       5   3   0  
007C09  62400000           [20] call       1   0   1  
007C0D  1E008000           [21] return     0   1      
                           * constants:
007C11  05                 sizek (5)
007C12  04                 const type 4
007C13  0A                 string size (10)
007C14  6D436C69704E616D+  "mClipNam"
007C1C  6500               "e\0"
                           const [0]: "mClipName"
007C1E  00                 const type 0
                           const [1]: nil
007C1F  01                 const type 3
007C20  72B9A359           const [2]: (1503902066)
007C24  04                 const type 4
007C25  07                 string size (7)
007C26  6D4D6F76696500     "mMovie\0"
                           const [3]: "mMovie"
007C2D  01                 const type 3
007C2E  B589B497           const [4]: (-1749775947)
                           * functions:
007C32  00                 sizep (0)
                           * lines:
007C33  15                 sizelineinfo (21)
                           [pc] (line)
007C34  34                 [01] (52)
007C35  03                 [02] (52)
007C36  00                 [03] (52)
007C37  00                 [04] (53)
007C38  34                 [05] (56)
007C39  03                 [06] (56)
007C3A  00                 [07] (56)
007C3B  00                 [08] (56)
007C3C  34                 [09] (56)
007C3D  03                 [10] (56)
007C3E  00                 [11] (56)
007C3F  00                 [12] (56)
007C40  35                 [13] (56)
007C41  03                 [14] (56)
007C42  00                 [15] (56)
007C43  00                 [16] (56)
007C44  38                 [17] (56)
007C45  03                 [18] (56)
007C46  00                 [19] (56)
007C47  00                 [20] (56)
007C48  38                 [21] (57)
                           * locals:
007C88  00                 sizelocvars (0)
                           * upvalues:
007C89  00                 sizeupvalues (0)
                           ** end of function **

                           
007C8A                     ** function [20] definition (level 2)
                           ** start of function **
007C8A  00                 string size (0)
                           source name: (none)
007C8C  06                 line defined (827)
007C8D  8B                 last line defined (1035)
007C8E  08                 nups (18)
007C8F  12                 numparams (0)
007C90  00                 is_vararg (0)
007C91  00                 maxstacksize (11)
                           * code:
007C94  02                 sizecode (292)
007C95  1D000000           [001] getglobal  0   0        ; 849075268
007C99  59400000           [002] loadk      1   1        ; "Lotus.Interface.Components.CategorizedGrid"
007C9D  22800001           [003] call       0   2   2  
007CA1  4E804000           [004] gettable   1   0   258  ; -1521463585
007CA5  9DC00000           [005] getglobal  2   3        ; mMovie
007CA9  D9000100           [006] loadk      3   4        ; "ArcaneSelector.Grid.Item"
007CAD  19410100           [007] loadk      4   5        ; 0
007CB1  59810100           [008] loadk      5   6        ; 0
007CB5  99C10100           [009] loadk      6   7        ; "ArcaneSelector.CategoryMenu"
007CB9  D9010200           [010] loadk      7   8        ; "ArcaneSelector.SortMenu"
007CBD  62808003           [011] call       1   7   2  
fail op	8
007CC1  48000000           [012] setupval   1   0      
007CC5  53000000           [013] getupval   1   0      
007CC9  6440C200           [014] self       1   1   265  ; 236168549
007CCD  D9800200           [015] loadk      3   10       ; "ArcaneSelected"
007CD1  19C10200           [016] loadk      4   11       ; "ArcaneFocused"
007CD5  59010300           [017] loadk      5   12       ; "ArcaneUnfocused"
007CD9  62408002           [018] call       1   5   1  
007CDD  53000000           [019] getupval   1   0      
007CE1  4C80C386           [020] settable   1   269 270  ; "ElementDimBuffer" 0
007CE5  53000000           [021] getupval   1   0      
007CE9  4C00C487           [022] settable   1   271 272  ; "ElementWidth" 0
007CED  53000000           [023] getupval   1   0      
007CF1  4C00C488           [024] settable   1   273 272  ; "ElementHeight" 0
007CF5  53000000           [025] getupval   1   0      
007CF9  4CC04489           [026] settable   1   274 275  ; "Width" 0
007CFD  53000000           [027] getupval   1   0      
007D01  4C40458A           [028] settable   1   276 277  ; "Height" 0
007D05  53000000           [029] getupval   1   0      
007D09  4CC0458B           [030] settable   1   278 279  ; "mSelectedScale" 0
007D0D  53000000           [031] getupval   1   0      
007D11  6400C600           [032] self       1   1   280  ; 1035345719
007D15  D9400600           [033] loadk      3   25       ; "ArcaneSelector.ScrollBar"
007D19  19810600           [034] loadk      4   26       ; 0
007D1D  62400002           [035] call       1   4   1  
007D21  53000000           [036] getupval   1   0      
007D25  64C0C600           [037] self       1   1   283  ; -104757962
007D29  62400001           [038] call       1   2   1  
007D2D  53000000           [039] getupval   1   0      
007D31  4C40478E           [040] settable   1   284 285  ; "mUseCornerForSelected" 1
007D35  53000000           [041] getupval   1   0      
007D39  4CC0478F           [042] settable   1   286 287  ; "mSmoothScrollExtraSpace" 0
007D3D  53000000           [043] getupval   1   0      
007D41  4C404890           [044] settable   1   288 289  ; "mSelectElementsOnFocus" 0
007D45  53000000           [045] getupval   1   0      
007D49  4C804691           [046] settable   1   290 282  ; "mScroll" 0
007D4D  53000000           [047] getupval   1   0      
007D51  4C40C791           [048] settable   1   291 285  ; "mSkipRefocusOnScrollRedraw" 1
007D55  53000000           [049] getupval   1   0      
007D59  4E00C900           [050] gettable   1   1   292  ; "mSortMenu"
007D5D  6440C900           [051] self       1   1   293  ; -2011541260
007D61  D9800900           [052] loadk      3   38       ; 0
007D65  62408001           [053] call       1   3   1  
007D69  53000000           [054] getupval   1   0      
007D6D  4EC0C900           [055] gettable   1   1   295  ; "mScrollBar"
007D71  6400CA00           [056] self       1   1   296  ; -492641364
007D75  D7008000           [057] loadbool   3   1   0    ; true
007D79  62408001           [058] call       1   3   1  
007D7D  53000000           [059] getupval   1   0      
007D81  4C40C794           [060] settable   1   297 285  ; "mScrollAlwaysVisible" 1
007D85  53000000           [061] getupval   1   0      
007D89  4CC04A95           [062] settable   1   298 299  ; "mScrollBarHorizontalOffset" nil
007D8D  53000000           [063] getupval   1   0      
007D91  4C404896           [064] settable   1   300 289  ; "mWrapAroundNavigation" 0
007D95  53000000           [065] getupval   1   0      
007D99  4CC0CA96           [066] settable   1   301 299  ; "mPrevSelectedId" nil
007D9D  53000000           [067] getupval   1   0      
007DA1  9DC00B00           [068] getglobal  2   47       ; rectangleVisibleRangeMat
007DA5  4C800097           [069] settable   1   302 2    ; "RectangleVisibleRangeMaterial"
007DA9  53000000           [070] getupval   1   0      
007DAD  9D400C00           [071] getglobal  2   49       ; visibleRangeMat
007DB1  4C800098           [072] settable   1   304 2    ; "VisibleRangeMaterial"
007DB5  53000000           [073] getupval   1   0      
007DB9  9DC00C00           [074] getglobal  2   51       ; textVisibleRangeMat
007DBD  4C800099           [075] settable   1   306 2    ; "TextVisibleRangeMaterial"
007DC1  53000000           [076] getupval   1   0      
007DC5  4E00CD00           [077] gettable   1   1   308  ; "mCategoryMenu"
007DC9  93008000           [078] getupval   2   1      
007DCD  8E804D01           [079] gettable   2   2   310  ; "LEFT_ALIGNED"
007DD1  4C80809A           [080] settable   1   309 2    ; "mAlign"
007DD5  53000000           [081] getupval   1   0      
007DD9  4E00CD00           [082] gettable   1   1   308  ; "mCategoryMenu"
007DDD  4C40C79B           [083] settable   1   311 285  ; "mHideEmptyCategories" 1
007DE1  53000000           [084] getupval   1   0      
007DE5  93000001           [085] getupval   2   2      
007DE9  4C80009C           [086] settable   1   312 2    ; "mClipCreatedCallback"
007DED  53000000           [087] getupval   1   0      
007DF1  93008001           [088] getupval   2   3      
007DF5  4C80809C           [089] settable   1   313 2    ; "mOnFocusedCallback"
007DF9  53000000           [090] getupval   1   0      
007DFD  93000002           [091] getupval   2   4      
007E01  4C80009D           [092] settable   1   314 2    ; "mOnUnfocusedCallback"
007E05  53000000           [093] getupval   1   0      
007E09  93008002           [094] getupval   2   5      
007E0D  4C80809D           [095] settable   1   315 2    ; "mElementDrawCallback"
007E11  53000000           [096] getupval   1   0      
007E15  93000000           [097] getupval   2   0      
007E19  8E404F01           [098] gettable   2   2   317  ; "OnFilteredElementsReady"
007E1D  4C80009E           [099] settable   1   316 2    ; "_ArcaneGrid_OnFilteredElementsReady"
007E21  53000000           [100] getupval   1   0      
007E25  A5000000           [101] closure    2   0      
007E29  13000003           [102] getupval   0   6      
007E2D  13008003           [103] getupval   0   7      
007E31  13000004           [104] getupval   0   8      
007E35  13008004           [105] getupval   0   9      
007E39  13000005           [106] getupval   0   10     
007E3D  4C80809E           [107] settable   1   317 2    ; "OnFilteredElementsReady"
007E41  53000000           [108] getupval   1   0      
007E45  A5400000           [109] closure    2   1      
007E49  13000000           [110] getupval   0   0      
007E4D  13008005           [111] getupval   0   11     
007E51  13000006           [112] getupval   0   12     
007E55  13008006           [113] getupval   0   13     
007E59  13008000           [114] getupval   0   1      
007E5D  13000007           [115] getupval   0   14     
007E61  13008007           [116] getupval   0   15     
007E65  13000005           [117] getupval   0   10     
007E69  4C80009F           [118] settable   1   318 2    ; "mOnSelectedCallback"
007E6D  53000000           [119] getupval   1   0      
007E71  A5800000           [120] closure    2   2      
007E75  13000008           [121] getupval   0   16     
007E79  4C80809F           [122] settable   1   319 2    ; "AdditionalFilterFunction"
007E7D  53000000           [123] getupval   1   0      
007E81  6400D000           [124] self       1   1   320  ; -1364794429
007E85  CBC00000           [125] newtable   3   0   3    ; array=0, hash=3
007E89  1DC10000           [126] getglobal  4   3        ; mMovie
007E8D  24815002           [127] self       4   4   322  ; 98241492
007E91  99C11000           [128] loadk      6   67       ; "/Lotus/Language/Menu/SortBy_Name"
007E95  D7010000           [129] loadbool   7   0   0    ; false
007E99  22810002           [130] call       4   4   2  
007E9D  CC0081A0           [131] settable   3   321 4    ; "Name"
007EA1  CC4051A2           [132] settable   3   324 325  ; "SortId" "NAME"
007EA5  25C10000           [133] closure    4   3      
007EA9  CC0001A3           [134] settable   3   326 4    ; "Attribute"
007EAD  62408001           [135] call       1   3   1  
007EB1  53000000           [136] getupval   1   0      
007EB5  6400D000           [137] self       1   1   320  ; -1364794429
007EB9  CBC00000           [138] newtable   3   0   3    ; array=0, hash=3
007EBD  1DC10000           [139] getglobal  4   3        ; mMovie
007EC1  24815002           [140] self       4   4   322  ; 98241492
007EC5  99C11100           [141] loadk      6   71       ; "/Lotus/Language/Menu/SortBy_Level"
007EC9  D7010000           [142] loadbool   7   0   0    ; false
007ECD  22810002           [143] call       4   4   2  
007ED1  CC0081A0           [144] settable   3   321 4    ; "Name"
007ED5  CC0052A2           [145] settable   3   324 328  ; "SortId" "RANK"
007ED9  25010100           [146] closure    4   4      
007EDD  CC0001A3           [147] settable   3   326 4    ; "Attribute"
007EE1  62408001           [148] call       1   3   1  
007EE5  53000000           [149] getupval   1   0      
007EE9  6400D000           [150] self       1   1   320  ; -1364794429
007EED  CBC00000           [151] newtable   3   0   3    ; array=0, hash=3
007EF1  1DC10000           [152] getglobal  4   3        ; mMovie
007EF5  24815002           [153] self       4   4   322  ; 98241492
007EF9  99411200           [154] loadk      6   73       ; "/Lotus/Language/Menu/Store_Owned"
007EFD  D7010000           [155] loadbool   7   0   0    ; false
007F01  22810002           [156] call       4   4   2  
007F05  CC0081A0           [157] settable   3   321 4    ; "Name"
007F09  CC8052A2           [158] settable   3   324 330  ; "SortId" "COUNT"
007F0D  25410100           [159] closure    4   5      
007F11  CC0001A3           [160] settable   3   326 4    ; "Attribute"
007F15  62408001           [161] call       1   3   1  
007F19  5DC00000           [162] getglobal  1   3        ; mMovie
007F1D  64C0D200           [163] self       1   1   331  ; -2061838267
007F21  62800001           [164] call       1   2   2  
007F25  9D001300           [165] getglobal  2   76       ; gGameData
007F29  A4405301           [166] self       2   2   333  ; 51108662
007F2D  12018000           [167] move       4   1      
007F31  A2808001           [168] call       2   3   2  
fail op	35
007F35  23805301           [169] close      0  
007F39  1A000080           [170] jmp        1            ; to [172]
007F3D  99401100           [171] loadk      2   69       ; "NAME"
007F41  D3000000           [172] getupval   3   0      
007F45  E4C0D301           [173] self       3   3   335  ; 172880522
007F49  52010001           [174] move       5   2      
007F4D  E2408001           [175] call       3   3   1  
007F51  DDC00000           [176] getglobal  3   3        ; mMovie
007F55  E400D401           [177] self       3   3   336  ; 471456102
007F59  59411400           [178] loadk      5   81       ; "CategoryMenu"
007F5D  99811400           [179] loadk      6   82       ; "_visible"
007F61  D3018005           [180] getupval   7   11     
007F65  CEC1D403           [181] gettable   7   7   339  ; "Active"
fail op	9
007F69  C9018003           [182] settable   7   7   0  
007F6D  E2408002           [183] call       3   5   1  
007F71  D3008005           [184] getupval   3   11     
007F75  CEC0D401           [185] gettable   3   3   339  ; "Active"
007F79  D8400000           [186] test       3       1    ; to [188] if false
007F7D  1A801880           [187] jmp        99           ; to [287]
007F81  D3000000           [188] getupval   3   0      
007F85  E400D501           [189] self       3   3   340  ; 791335151
007F89  4BC10000           [190] newtable   5   0   3    ; array=0, hash=3
007F8D  9DC10000           [191] getglobal  6   3        ; mMovie
007F91  A4815003           [192] self       6   6   322  ; 98241492
007F95  19421500           [193] loadk      8   85       ; "/Lotus/Language/Menu/Category_ALL"
007F99  57020000           [194] loadbool   9   0   0    ; false
007F9D  A2810002           [195] call       6   4   2  
007FA1  4C8181A0           [196] settable   5   321 6    ; "Name"
007FA5  9DC11500           [197] getglobal  6   87       ; categoryIcons
007FA9  8E814603           [198] gettable   6   6   282  ; 0
007FAD  4C8101AB           [199] settable   5   342 6    ; "Icon"
007FB1  93018008           [200] getupval   6   17     
007FB5  8E415603           [201] gettable   6   6   345  ; "ALL"
007FB9  4C8101AC           [202] settable   5   344 6    ; "Category"
007FBD  E2408001           [203] call       3   3   1  
007FC1  D3000000           [204] getupval   3   0      
007FC5  E400D501           [205] self       3   3   340  ; 791335151
007FC9  4BC10000           [206] newtable   5   0   3    ; array=0, hash=3
007FCD  9DC10000           [207] getglobal  6   3        ; mMovie
007FD1  A4815003           [208] self       6   6   322  ; 98241492
007FD5  19821600           [209] loadk      8   90       ; "/Lotus/Language/Menu/Category_WARFRAME"
007FD9  57020000           [210] loadbool   9   0   0    ; false
007FDD  A2810002           [211] call       6   4   2  
007FE1  4C8181A0           [212] settable   5   321 6    ; "Name"
007FE5  9DC11500           [213] getglobal  6   87       ; categoryIcons
007FE9  8EC15603           [214] gettable   6   6   347  ; 0
007FED  4C8101AB           [215] settable   5   342 6    ; "Icon"
007FF1  93018008           [216] getupval   6   17     
007FF5  8E015703           [217] gettable   6   6   348  ; "WARFRAME"
007FF9  4C8101AC           [218] settable   5   344 6    ; "Category"
007FFD  E2408001           [219] call       3   3   1  
008001  D3000000           [220] getupval   3   0      
008005  E400D501           [221] self       3   3   340  ; 791335151
008009  4BC10000           [222] newtable   5   0   3    ; array=0, hash=3
00800D  9DC10000           [223] getglobal  6   3        ; mMovie
008011  A4815003           [224] self       6   6   322  ; 98241492
008015  19421700           [225] loadk      8   93       ; "/Lotus/Language/Menu/MenuOperator"
008019  57020000           [226] loadbool   9   0   0    ; false
00801D  A2810002           [227] call       6   4   2  
008021  4C8181A0           [228] settable   5   321 6    ; "Name"
008025  9DC11500           [229] getglobal  6   87       ; categoryIcons
008029  8E815703           [230] gettable   6   6   350  ; 0
00802D  4C8101AB           [231] settable   5   342 6    ; "Icon"
008031  93018008           [232] getupval   6   17     
008035  8EC15703           [233] gettable   6   6   351  ; "OPERATOR"
008039  4C8101AC           [234] settable   5   344 6    ; "Category"
00803D  E2408001           [235] call       3   3   1  
008041  D3000000           [236] getupval   3   0      
008045  E400D501           [237] self       3   3   340  ; 791335151
008049  4BC10000           [238] newtable   5   0   3    ; array=0, hash=3
00804D  9DC10000           [239] getglobal  6   3        ; mMovie
008051  A4815003           [240] self       6   6   322  ; 98241492
008055  19021800           [241] loadk      8   96       ; "/Lotus/Language/Menu/Category_AMPS"
008059  57020000           [242] loadbool   9   0   0    ; false
00805D  A2810002           [243] call       6   4   2  
008061  4C8181A0           [244] settable   5   321 6    ; "Name"
008065  9DC11500           [245] getglobal  6   87       ; categoryIcons
008069  8E814103           [246] gettable   6   6   262  ; 0
00806D  4C8101AB           [247] settable   5   342 6    ; "Icon"
008071  93018008           [248] getupval   6   17     
008075  8E415803           [249] gettable   6   6   353  ; "AMP"
008079  4C8101AC           [250] settable   5   344 6    ; "Category"
00807D  E2408001           [251] call       3   3   1  
008081  D3000000           [252] getupval   3   0      
008085  E400D501           [253] self       3   3   340  ; 791335151
008089  4BC10000           [254] newtable   5   0   3    ; array=0, hash=3
00808D  9D811800           [255] getglobal  6   98       ; string
008091  8EC15803           [256] gettable   6   6   355  ; 1671193642
008095  DDC10000           [257] getglobal  7   3        ; mMovie
008099  E481D003           [258] self       7   7   322  ; 98241492
00809D  59021900           [259] loadk      9   100      ; "/Lotus/Language/Menu/Category_GUNS"
0080A1  97020000           [260] loadbool   10  0   0    ; false
0080A5  E2010002           [261] call       7   4   0  
0080A9  A2810000           [262] call       6   0   2  
0080AD  4C8181A0           [263] settable   5   321 6    ; "Name"
0080B1  9DC11500           [264] getglobal  6   87       ; categoryIcons
0080B5  8E414103           [265] gettable   6   6   261  ; 0
0080B9  4C8101AB           [266] settable   5   342 6    ; "Icon"
0080BD  93018008           [267] getupval   6   17     
0080C1  8E415903           [268] gettable   6   6   357  ; "GUN"
0080C5  4C8101AC           [269] settable   5   344 6    ; "Category"
0080C9  E2408001           [270] call       3   3   1  
0080CD  D3000000           [271] getupval   3   0      
0080D1  E400D501           [272] self       3   3   340  ; 791335151
0080D5  4BC10000           [273] newtable   5   0   3    ; array=0, hash=3
0080D9  9DC10000           [274] getglobal  6   3        ; mMovie
0080DD  A4815003           [275] self       6   6   322  ; 98241492
0080E1  19821900           [276] loadk      8   102      ; "/Lotus/Language/Menu/Category_ZAWS"
0080E5  57020000           [277] loadbool   9   0   0    ; false
0080E9  A2810002           [278] call       6   4   2  
0080ED  4C8181A0           [279] settable   5   321 6    ; "Name"
0080F1  9DC11500           [280] getglobal  6   87       ; categoryIcons
0080F5  8EC15903           [281] gettable   6   6   359  ; 0
0080F9  4C8101AB           [282] settable   5   342 6    ; "Icon"
0080FD  93018008           [283] getupval   6   17     
008101  8E015A03           [284] gettable   6   6   360  ; "ZAW"
008105  4C8101AC           [285] settable   5   344 6    ; "Category"
008109  E2408001           [286] call       3   3   1  
00810D  D3008000           [287] getupval   3   1      
008111  CE40DA01           [288] gettable   3   3   361  ; 630793108
008115  1D811A00           [289] getglobal  4   106      ; _G
008119  0EC15A02           [290] gettable   4   4   363  ; "UISound_WindowOpen"
00811D  E2400001           [291] call       3   2   1  
008121  1E008000           [292] return     0   1      
                           * constants:
008125  6C                 sizek (108)
008126  01                 const type 3
008127  44DC9B32           const [0]: (849075268)
00812B  04                 const type 4
00812C  2B                 string size (43)
00812D  4C6F7475732E496E+  "Lotus.In"
008135  746572666163652E+  "terface."
00813D  436F6D706F6E656E+  "Componen"
008145  74732E4361746567+  "ts.Categ"
00814D  6F72697A65644772+  "orizedGr"
008155  696400             "id\0"
                           const [1]: "Lotus.Interface.Components.CategorizedGrid"
008158  01                 const type 3
008159  DF4E50A5           const [2]: (-1521463585)
00815D  04                 const type 4
00815E  07                 string size (7)
00815F  6D4D6F76696500     "mMovie\0"
                           const [3]: "mMovie"
008166  04                 const type 4
008167  19                 string size (25)
008168  417263616E655365+  "ArcaneSe"
008170  6C6563746F722E47+  "lector.G"
008178  7269642E4974656D+  "rid.Item"
008180  00                 "\0"
                           const [4]: "ArcaneSelector.Grid.Item"
008181  03                 const type 3
008182  0000C040           const [5]: (0)
008186  03                 const type 3
008187  00008040           const [6]: (0)
00818B  04                 const type 4
00818C  1C                 string size (28)
00818D  417263616E655365+  "ArcaneSe"
008195  6C6563746F722E43+  "lector.C"
00819D  617465676F72794D+  "ategoryM"
0081A5  656E7500           "enu\0"
                           const [7]: "ArcaneSelector.CategoryMenu"
0081A9  04                 const type 4
0081AA  18                 string size (24)
0081AB  417263616E655365+  "ArcaneSe"
0081B3  6C6563746F722E53+  "lector.S"
0081BB  6F72744D656E7500   "ortMenu\0"
                           const [8]: "ArcaneSelector.SortMenu"
0081C3  01                 const type 3
0081C4  65A5130E           const [9]: (236168549)
0081C8  04                 const type 4
0081C9  0F                 string size (15)
0081CA  417263616E655365+  "ArcaneSe"
0081D2  6C656374656400     "lected\0"
                           const [10]: "ArcaneSelected"
0081D9  04                 const type 4
0081DA  0E                 string size (14)
0081DB  417263616E65466F+  "ArcaneFo"
0081E3  637573656400       "cused\0"
                           const [11]: "ArcaneFocused"
0081E9  04                 const type 4
0081EA  10                 string size (16)
0081EB  417263616E65556E+  "ArcaneUn"
0081F3  666F637573656400   "focused\0"
                           const [12]: "ArcaneUnfocused"
0081FB  04                 const type 4
0081FC  11                 string size (17)
0081FD  456C656D656E7444+  "ElementD"
008205  696D427566666572+  "imBuffer"
00820D  00                 "\0"
                           const [13]: "ElementDimBuffer"
00820E  03                 const type 3
00820F  0000C041           const [14]: (0)
008213  04                 const type 4
008214  0D                 string size (13)
008215  456C656D656E7457+  "ElementW"
00821D  6964746800         "idth\0"
                           const [15]: "ElementWidth"
008222  03                 const type 3
008223  00000E43           const [16]: (0)
008227  04                 const type 4
008228  0E                 string size (14)
008229  456C656D656E7448+  "ElementH"
008231  656967687400       "eight\0"
                           const [17]: "ElementHeight"
008237  04                 const type 4
008238  06                 string size (6)
008239  576964746800       "Width\0"
                           const [18]: "Width"
00823F  03                 const type 3
008240  00006144           const [19]: (0)
008244  04                 const type 4
008245  07                 string size (7)
008246  48656967687400     "Height\0"
                           const [20]: "Height"
00824D  03                 const type 3
00824E  00002044           const [21]: (0)
008252  04                 const type 4
008253  0F                 string size (15)
008254  6D53656C65637465+  "mSelecte"
00825C  645363616C6500     "dScale\0"
                           const [22]: "mSelectedScale"
008263  03                 const type 3
008264  0000C842           const [23]: (0)
008268  01                 const type 3
008269  371FB63D           const [24]: (1035345719)
00826D  04                 const type 4
00826E  19                 string size (25)
00826F  417263616E655365+  "ArcaneSe"
008277  6C6563746F722E53+  "lector.S"
00827F  63726F6C6C426172+  "crollBar"
008287  00                 "\0"
                           const [25]: "ArcaneSelector.ScrollBar"
008288  03                 const type 3
008289  0000803F           const [26]: (0)
00828D  01                 const type 3
00828E  3685C1F9           const [27]: (-104757962)
008292  04                 const type 4
008293  16                 string size (22)
008294  6D557365436F726E+  "mUseCorn"
00829C  6572466F7253656C+  "erForSel"
0082A4  656374656400       "ected\0"
                           const [28]: "mUseCornerForSelected"
0082AA  01                 const type 3
0082AB  01000000           const [29]: (1)
0082AF  04                 const type 4
0082B0  18                 string size (24)
0082B1  6D536D6F6F746853+  "mSmoothS"
0082B9  63726F6C6C457874+  "crollExt"
0082C1  7261537061636500   "raSpace\0"
                           const [30]: "mSmoothScrollExtraSpace"
0082C9  03                 const type 3
0082CA  00000000           const [31]: (0)
0082CE  04                 const type 4
0082CF  17                 string size (23)
0082D0  6D53656C65637445+  "mSelectE"
0082D8  6C656D656E74734F+  "lementsO"
0082E0  6E466F63757300     "nFocus\0"
                           const [32]: "mSelectElementsOnFocus"
0082E7  01                 const type 3
0082E8  00000000           const [33]: (0)
0082EC  04                 const type 4
0082ED  08                 string size (8)
0082EE  6D5363726F6C6C00   "mScroll\0"
                           const [34]: "mScroll"
0082F6  04                 const type 4
0082F7  1B                 string size (27)
0082F8  6D536B6970526566+  "mSkipRef"
008300  6F6375734F6E5363+  "ocusOnSc"
008308  726F6C6C52656472+  "rollRedr"
008310  617700             "aw\0"
                           const [35]: "mSkipRefocusOnScrollRedraw"
008313  04                 const type 4
008314  0A                 string size (10)
008315  6D536F72744D656E+  "mSortMen"
00831D  7500               "u\0"
                           const [36]: "mSortMenu"
00831F  01                 const type 3
008320  F4501A88           const [37]: (-2011541260)
008324  03                 const type 3
008325  00004843           const [38]: (0)
008329  04                 const type 4
00832A  0B                 string size (11)
00832B  6D5363726F6C6C42+  "mScrollB"
008333  617200             "ar\0"
                           const [39]: "mScrollBar"
008336  01                 const type 3
008337  ACE3A2E2           const [40]: (-492641364)
00833B  04                 const type 4
00833C  15                 string size (21)
00833D  6D5363726F6C6C41+  "mScrollA"
008345  6C77617973566973+  "lwaysVis"
00834D  69626C6500         "ible\0"
                           const [41]: "mScrollAlwaysVisible"
008352  04                 const type 4
008353  1B                 string size (27)
008354  6D5363726F6C6C42+  "mScrollB"
00835C  6172486F72697A6F+  "arHorizo"
008364  6E74616C4F666673+  "ntalOffs"
00836C  657400             "et\0"
                           const [42]: "mScrollBarHorizontalOffset"
00836F  00                 const type 0
                           const [43]: nil
008370  04                 const type 4
008371  16                 string size (22)
008372  6D5772617041726F+  "mWrapAro"
00837A  756E644E61766967+  "undNavig"
008382  6174696F6E00       "ation\0"
                           const [44]: "mWrapAroundNavigation"
008388  04                 const type 4
008389  10                 string size (16)
00838A  6D5072657653656C+  "mPrevSel"
008392  6563746564496400   "ectedId\0"
                           const [45]: "mPrevSelectedId"
00839A  04                 const type 4
00839B  1E                 string size (30)
00839C  52656374616E676C+  "Rectangl"
0083A4  6556697369626C65+  "eVisible"
0083AC  52616E67654D6174+  "RangeMat"
0083B4  657269616C00       "erial\0"
                           const [46]: "RectangleVisibleRangeMaterial"
0083BA  04                 const type 4
0083BB  19                 string size (25)
0083BC  72656374616E676C+  "rectangl"
0083C4  6556697369626C65+  "eVisible"
0083CC  52616E67654D6174+  "RangeMat"
0083D4  00                 "\0"
                           const [47]: "rectangleVisibleRangeMat"
0083D5  04                 const type 4
0083D6  15                 string size (21)
0083D7  56697369626C6552+  "VisibleR"
0083DF  616E67654D617465+  "angeMate"
0083E7  7269616C00         "rial\0"
                           const [48]: "VisibleRangeMaterial"
0083EC  04                 const type 4
0083ED  10                 string size (16)
0083EE  76697369626C6552+  "visibleR"
0083F6  616E67654D617400   "angeMat\0"
                           const [49]: "visibleRangeMat"
0083FE  04                 const type 4
0083FF  19                 string size (25)
008400  5465787456697369+  "TextVisi"
008408  626C6552616E6765+  "bleRange"
008410  4D6174657269616C+  "Material"
008418  00                 "\0"
                           const [50]: "TextVisibleRangeMaterial"
008419  04                 const type 4
00841A  14                 string size (20)
00841B  7465787456697369+  "textVisi"
008423  626C6552616E6765+  "bleRange"
00842B  4D617400           "Mat\0"
                           const [51]: "textVisibleRangeMat"
00842F  04                 const type 4
008430  0E                 string size (14)
008431  6D43617465676F72+  "mCategor"
008439  794D656E7500       "yMenu\0"
                           const [52]: "mCategoryMenu"
00843F  04                 const type 4
008440  07                 string size (7)
008441  6D416C69676E00     "mAlign\0"
                           const [53]: "mAlign"
008448  04                 const type 4
008449  0D                 string size (13)
00844A  4C4546545F414C49+  "LEFT_ALI"
008452  474E454400         "GNED\0"
                           const [54]: "LEFT_ALIGNED"
008457  04                 const type 4
008458  15                 string size (21)
008459  6D48696465456D70+  "mHideEmp"
008461  747943617465676F+  "tyCatego"
008469  7269657300         "ries\0"
                           const [55]: "mHideEmptyCategories"
00846E  04                 const type 4
00846F  15                 string size (21)
008470  6D436C6970437265+  "mClipCre"
008478  6174656443616C6C+  "atedCall"
008480  6261636B00         "back\0"
                           const [56]: "mClipCreatedCallback"
008485  04                 const type 4
008486  13                 string size (19)
008487  6D4F6E466F637573+  "mOnFocus"
00848F  656443616C6C6261+  "edCallba"
008497  636B00             "ck\0"
                           const [57]: "mOnFocusedCallback"
00849A  04                 const type 4
00849B  15                 string size (21)
00849C  6D4F6E556E666F63+  "mOnUnfoc"
0084A4  7573656443616C6C+  "usedCall"
0084AC  6261636B00         "back\0"
                           const [58]: "mOnUnfocusedCallback"
0084B1  04                 const type 4
0084B2  15                 string size (21)
0084B3  6D456C656D656E74+  "mElement"
0084BB  4472617743616C6C+  "DrawCall"
0084C3  6261636B00         "back\0"
                           const [59]: "mElementDrawCallback"
0084C8  04                 const type 4
0084C9  24                 string size (36)
0084CA  5F417263616E6547+  "_ArcaneG"
0084D2  7269645F4F6E4669+  "rid_OnFi"
0084DA  6C7465726564456C+  "lteredEl"
0084E2  656D656E74735265+  "ementsRe"
0084EA  61647900           "ady\0"
                           const [60]: "_ArcaneGrid_OnFilteredElementsReady"
0084EE  04                 const type 4
0084EF  18                 string size (24)
0084F0  4F6E46696C746572+  "OnFilter"
0084F8  6564456C656D656E+  "edElemen"
008500  7473526561647900   "tsReady\0"
                           const [61]: "OnFilteredElementsReady"
008508  04                 const type 4
008509  14                 string size (20)
00850A  6D4F6E53656C6563+  "mOnSelec"
008512  74656443616C6C62+  "tedCallb"
00851A  61636B00           "ack\0"
                           const [62]: "mOnSelectedCallback"
00851E  04                 const type 4
00851F  19                 string size (25)
008520  4164646974696F6E+  "Addition"
008528  616C46696C746572+  "alFilter"
008530  46756E6374696F6E+  "Function"
008538  00                 "\0"
                           const [63]: "AdditionalFilterFunction"
008539  01                 const type 3
00853A  C3E3A6AE           const [64]: (-1364794429)
00853E  04                 const type 4
00853F  05                 string size (5)
008540  4E616D6500         "Name\0"
                           const [65]: "Name"
008545  01                 const type 3
008546  D40BDB05           const [66]: (98241492)
00854A  04                 const type 4
00854B  21                 string size (33)
00854C  2F4C6F7475732F4C+  "/Lotus/L"
008554  616E67756167652F+  "anguage/"
00855C  4D656E752F536F72+  "Menu/Sor"
008564  7442795F4E616D65+  "tBy_Name"
00856C  00                 "\0"
                           const [67]: "/Lotus/Language/Menu/SortBy_Name"
00856D  04                 const type 4
00856E  07                 string size (7)
00856F  536F7274496400     "SortId\0"
                           const [68]: "SortId"
008576  04                 const type 4
008577  05                 string size (5)
008578  4E414D4500         "NAME\0"
                           const [69]: "NAME"
00857D  04                 const type 4
00857E  0A                 string size (10)
00857F  4174747269627574+  "Attribut"
008587  6500               "e\0"
                           const [70]: "Attribute"
008589  04                 const type 4
00858A  22                 string size (34)
00858B  2F4C6F7475732F4C+  "/Lotus/L"
008593  616E67756167652F+  "anguage/"
00859B  4D656E752F536F72+  "Menu/Sor"
0085A3  7442795F4C657665+  "tBy_Leve"
0085AB  6C00               "l\0"
                           const [71]: "/Lotus/Language/Menu/SortBy_Level"
0085AD  04                 const type 4
0085AE  05                 string size (5)
0085AF  52414E4B00         "RANK\0"
                           const [72]: "RANK"
0085B4  04                 const type 4
0085B5  21                 string size (33)
0085B6  2F4C6F7475732F4C+  "/Lotus/L"
0085BE  616E67756167652F+  "anguage/"
0085C6  4D656E752F53746F+  "Menu/Sto"
0085CE  72655F4F776E6564+  "re_Owned"
0085D6  00                 "\0"
                           const [73]: "/Lotus/Language/Menu/Store_Owned"
0085D7  04                 const type 4
0085D8  06                 string size (6)
0085D9  434F554E5400       "COUNT\0"
                           const [74]: "COUNT"
0085DF  01                 const type 3
0085E0  45D81A85           const [75]: (-2061838267)
0085E4  04                 const type 4
0085E5  0A                 string size (10)
0085E6  6747616D65446174+  "gGameDat"
0085EE  6100               "a\0"
                           const [76]: "gGameData"
0085F0  01                 const type 3
0085F1  36DB0B03           const [77]: (51108662)
0085F5  04                 const type 4
0085F6  01                 string size (0)
                           const [78]: ""
0085F8  01                 const type 3
0085F9  8AF24D0A           const [79]: (172880522)
0085FD  01                 const type 3
0085FE  66D9191C           const [80]: (471456102)
008602  04                 const type 4
008603  0D                 string size (13)
008604  43617465676F7279+  "Category"
00860C  4D656E7500         "Menu\0"
                           const [81]: "CategoryMenu"
008611  04                 const type 4
008612  09                 string size (9)
008613  5F76697369626C65+  "_visible"
00861B  00                 "\0"
                           const [82]: "_visible"
00861C  04                 const type 4
00861D  07                 string size (7)
00861E  41637469766500     "Active\0"
                           const [83]: "Active"
008625  01                 const type 3
008626  EFD02A2F           const [84]: (791335151)
00862A  04                 const type 4
00862B  22                 string size (34)
00862C  2F4C6F7475732F4C+  "/Lotus/L"
008634  616E67756167652F+  "anguage/"
00863C  4D656E752F436174+  "Menu/Cat"
008644  65676F72795F414C+  "egory_AL"
00864C  4C00               "L\0"
                           const [85]: "/Lotus/Language/Menu/Category_ALL"
00864E  04                 const type 4
00864F  05                 string size (5)
008650  49636F6E00         "Icon\0"
                           const [86]: "Icon"
008655  04                 const type 4
008656  0E                 string size (14)
008657  63617465676F7279+  "category"
00865F  49636F6E7300       "Icons\0"
                           const [87]: "categoryIcons"
008665  04                 const type 4
008666  09                 string size (9)
008667  43617465676F7279+  "Category"
00866F  00                 "\0"
                           const [88]: "Category"
008670  04                 const type 4
008671  04                 string size (4)
008672  414C4C00           "ALL\0"
                           const [89]: "ALL"
008676  04                 const type 4
008677  27                 string size (39)
008678  2F4C6F7475732F4C+  "/Lotus/L"
008680  616E67756167652F+  "anguage/"
008688  4D656E752F436174+  "Menu/Cat"
008690  65676F72795F5741+  "egory_WA"
008698  524652414D4500     "RFRAME\0"
                           const [90]: "/Lotus/Language/Menu/Category_WARFRAME"
00869F  03                 const type 3
0086A0  00000040           const [91]: (0)
0086A4  04                 const type 4
0086A5  09                 string size (9)
0086A6  5741524652414D45+  "WARFRAME"
0086AE  00                 "\0"
                           const [92]: "WARFRAME"
0086AF  04                 const type 4
0086B0  22                 string size (34)
0086B1  2F4C6F7475732F4C+  "/Lotus/L"
0086B9  616E67756167652F+  "anguage/"
0086C1  4D656E752F4D656E+  "Menu/Men"
0086C9  754F70657261746F+  "uOperato"
0086D1  7200               "r\0"
                           const [93]: "/Lotus/Language/Menu/MenuOperator"
0086D3  03                 const type 3
0086D4  00004040           const [94]: (0)
0086D8  04                 const type 4
0086D9  09                 string size (9)
0086DA  4F50455241544F52+  "OPERATOR"
0086E2  00                 "\0"
                           const [95]: "OPERATOR"
0086E3  04                 const type 4
0086E4  23                 string size (35)
0086E5  2F4C6F7475732F4C+  "/Lotus/L"
0086ED  616E67756167652F+  "anguage/"
0086F5  4D656E752F436174+  "Menu/Cat"
0086FD  65676F72795F414D+  "egory_AM"
008705  505300             "PS\0"
                           const [96]: "/Lotus/Language/Menu/Category_AMPS"
008708  04                 const type 4
008709  04                 string size (4)
00870A  414D5000           "AMP\0"
                           const [97]: "AMP"
00870E  04                 const type 4
00870F  07                 string size (7)
008710  737472696E6700     "string\0"
                           const [98]: "string"
008717  01                 const type 3
008718  2A649C63           const [99]: (1671193642)
00871C  04                 const type 4
00871D  23                 string size (35)
00871E  2F4C6F7475732F4C+  "/Lotus/L"
008726  616E67756167652F+  "anguage/"
00872E  4D656E752F436174+  "Menu/Cat"
008736  65676F72795F4755+  "egory_GU"
00873E  4E5300             "NS\0"
                           const [100]: "/Lotus/Language/Menu/Category_GUNS"
008741  04                 const type 4
008742  04                 string size (4)
008743  47554E00           "GUN\0"
                           const [101]: "GUN"
008747  04                 const type 4
008748  23                 string size (35)
008749  2F4C6F7475732F4C+  "/Lotus/L"
008751  616E67756167652F+  "anguage/"
008759  4D656E752F436174+  "Menu/Cat"
008761  65676F72795F5A41+  "egory_ZA"
008769  575300             "WS\0"
                           const [102]: "/Lotus/Language/Menu/Category_ZAWS"
00876C  03                 const type 3
00876D  0000A040           const [103]: (0)
008771  04                 const type 4
008772  04                 string size (4)
008773  5A415700           "ZAW\0"
                           const [104]: "ZAW"
008777  01                 const type 3
008778  94239925           const [105]: (630793108)
00877C  04                 const type 4
00877D  03                 string size (3)
00877E  5F4700             "_G\0"
                           const [106]: "_G"
008781  04                 const type 4
008782  13                 string size (19)
008783  5549536F756E645F+  "UISound_"
00878B  57696E646F774F70+  "WindowOp"
008793  656E00             "en\0"
                           const [107]: "UISound_WindowOpen"
                           * functions:
008796  06                 sizep (6)
                           
008797                     ** function [0] definition (level 3)
                           ** start of function **
008797  00                 string size (0)
                           source name: (none)
008799  06                 line defined (861)
00879A  93                 last line defined (915)
00879B  07                 nups (5)
00879C  05                 numparams (1)
00879D  01                 is_vararg (0)
00879E  00                 maxstacksize (18)
                           * code:
0087A1  01                 sizecode (140)
0087A2  64004000           [001] self       1   0   256  ; 1999265410
0087A6  62400001           [002] call       1   2   1  
0087AA  4E404000           [003] gettable   1   0   257  ; "mPrevSelection"
0087AE  58400000           [004] test       1       1    ; to [6] if false
0087B2  1A000080           [005] jmp        1            ; to [7]
0087B6  59800000           [006] loadk      1   2        ; 0
0087BA  0C408080           [007] settable   0   257 1    ; "mPrevSelection"
0087BE  5DC00000           [008] getglobal  1   3        ; 1074689893
0087C2  8E004100           [009] gettable   2   0   260  ; "mCurrArcane"
0087C6  62800001           [010] call       1   2   2  
0087CA  58400000           [011] test       1       1    ; to [13] if false
0087CE  1A000B80           [012] jmp        45           ; to [58]
0087D2  59400100           [013] loadk      1   5        ; 0
0087D6  8E804100           [014] gettable   2   0   262  ; "mElements"
0087DA  8A000001           [015] len        2   2      
0087DE  D9400100           [016] loadk      3   5        ; 0
0087E2  50400980           [017] forprep    1   38       ; to [56]
0087E6  4E814100           [018] gettable   5   0   262  ; "mElements"
0087EA  4E018102           [019] gettable   5   5   4  
0087EE  9DC10000           [020] getglobal  6   3        ; 1074689893
0087F2  CEC1C102           [021] gettable   7   5   263  ; "Arcane"
0087F6  A2810001           [022] call       6   2   2  
0087FA  98410000           [023] test       6       1    ; to [25] if false
0087FE  1A800780           [024] jmp        31           ; to [56]
008802  8EC1C102           [025] gettable   6   5   263  ; "Arcane"
008806  8E014203           [026] gettable   6   6   264  ; "mItemId"
00880A  8E414203           [027] gettable   6   6   265  ; "mId"
fail op	35
00880E  63804203           [028] close      1  
008812  1AC00180           [029] jmp        8            ; to [38]
008816  8E014100           [030] gettable   6   0   260  ; "mCurrArcane"
00881A  8E014203           [031] gettable   6   6   264  ; "mItemId"
00881E  8E414203           [032] gettable   6   6   265  ; "mId"
008822  CEC1C102           [033] gettable   7   5   263  ; "Arcane"
008826  CE01C203           [034] gettable   7   7   264  ; "mItemId"
00882A  CE41C203           [035] gettable   7   7   265  ; "mId"
fail op	35
00882E  63C00103           [036] close      1  
008832  1AC00380           [037] jmp        16           ; to [54]
008836  8EC1C102           [038] gettable   6   5   263  ; "Arcane"
00883A  8E014203           [039] gettable   6   6   264  ; "mItemId"
00883E  8E414203           [040] gettable   6   6   265  ; "mId"
fail op	35
008842  23804203           [041] close      0  
008846  1A000380           [042] jmp        13           ; to [56]
00884A  8E014100           [043] gettable   6   0   260  ; "mCurrArcane"
00884E  8E014203           [044] gettable   6   6   264  ; "mItemId"
008852  8E414203           [045] gettable   6   6   265  ; "mId"
fail op	35
008856  23804203           [046] close      0  
00885A  1AC00180           [047] jmp        8            ; to [56]
00885E  8E014100           [048] gettable   6   0   260  ; "mCurrArcane"
008862  8EC14203           [049] gettable   6   6   267  ; "mItemType"
008866  CEC1C102           [050] gettable   7   5   263  ; "Arcane"
00886A  CEC1C203           [051] gettable   7   7   267  ; "mItemType"
fail op	35
00886E  23C00103           [052] close      0  
008872  1A400080           [053] jmp        2            ; to [56]
008876  0C008180           [054] settable   0   257 4    ; "mPrevSelection"
00887A  1A000080           [055] jmp        1            ; to [57]
00887E  5400F67F           [056] forloop    1   -39      ; to [18] if loop
008882  0C004382           [057] settable   0   260 268  ; "mCurrArcane" nil
008886  99810000           [058] loadk      6   2        ; 0
fail op	8
00888A  88010000           [059] setupval   6   0      
00888E  99810000           [060] loadk      6   2        ; 0
fail op	8
008892  88018000           [061] setupval   6   1      
008896  99810000           [062] loadk      6   2        ; 0
fail op	8
00889A  88010001           [063] setupval   6   2      
00889E  8B010000           [064] newtable   6   0   0    ; array=0, hash=0
0088A2  DD410300           [065] getglobal  7   13       ; 1672515847
0088A6  0E824100           [066] gettable   8   0   262  ; "mElements"
0088AA  E2010101           [067] call       7   2   4  
0088AE  1A400880           [068] jmp        34           ; to [103]
0088B2  0E83C305           [069] gettable   12  11  270  ; "Name"
fail op	35
0088B6  63004306           [070] close      1  
0088BA  1A800780           [071] jmp        31           ; to [103]
0088BE  0E83C305           [072] gettable   12  11  270  ; "Name"
0088C2  0E030303           [073] gettable   12  6   12 
fail op	35
0088C6  23004306           [074] close      0  
0088CA  1A800180           [075] jmp        7            ; to [83]
0088CE  4B030000           [076] newtable   13  0   0    ; array=0, hash=0
0088D2  12038006           [077] move       12  13     
0088D6  4E83C305           [078] gettable   13  11  270  ; "Name"
0088DA  8C018306           [079] settable   6   13  12 
0088DE  53030000           [080] getupval   13  0      
0088E2  4343C106           [081] add        13  13  261  ; 0
fail op	8
0088E6  48030000           [082] setupval   13  0      
0088EA  4EC34306           [083] gettable   13  12  271  ; "Owned"
0088EE  58430000           [084] test       13      1    ; to [86] if false
0088F2  1A800180           [085] jmp        7            ; to [93]
0088F6  4E03C405           [086] gettable   13  11  272  ; "NotOwned"
0088FA  58430000           [087] test       13      1    ; to [89] if false
0088FE  1AC00080           [088] jmp        4            ; to [93]
008902  0C43C487           [089] settable   12  271 273  ; "Owned" 1
008906  53038000           [090] getupval   13  1      
00890A  4343C106           [091] add        13  13  261  ; 0
fail op	8
00890E  48038000           [092] setupval   13  1      
008912  4E834406           [093] gettable   13  12  274  ; "Maxed"
008916  58430000           [094] test       13      1    ; to [96] if false
00891A  1A800180           [095] jmp        7            ; to [103]
00891E  4EC3C405           [096] gettable   13  11  275  ; "ArcaneRank"
fail op	35
008922  2300C506           [097] close      0  
008926  1AC00080           [098] jmp        4            ; to [103]
00892A  0C434489           [099] settable   12  274 273  ; "Maxed" 1
00892E  53030001           [100] getupval   13  2      
008932  4343C106           [101] add        13  13  261  ; 0
fail op	8
008936  48030001           [102] setupval   13  2      
00893A  D6810000           [103] tforloop   7       2    ; to [105] if exit
00893E  1AC0F67F           [104] jmp        -36          ; to [69]
008942  5D430500           [105] getglobal  13  21       ; math
008946  4E83C506           [106] gettable   13  13  278  ; 1710846250
00894A  8E434000           [107] gettable   14  0   257  ; "mPrevSelection"
00894E  E4C34500           [108] self       15  0   279  ; -988128099
008952  E2030001           [109] call       15  2   0  
008956  62830000           [110] call       13  0   2  
00895A  0C408380           [111] settable   0   257 13   ; "mPrevSelection"
00895E  4E434000           [112] gettable   13  0   257  ; "mPrevSelection"
fail op	35
008962  6380C006           [113] close      1  
008966  1A000280           [114] jmp        9            ; to [124]
00896A  64034600           [115] self       13  0   280  ; -834239131
00896E  CE434000           [116] gettable   15  0   257  ; "mPrevSelection"
008972  0E444000           [117] gettable   16  0   257  ; "mPrevSelection"
008976  0D444108           [118] sub        16  16  261  ; 0
00897A  4E444600           [119] gettable   17  0   281  ; "mColumns"
00897E  1F440408           [120] mod        16  16  17 
008982  CD038407           [121] sub        15  15  16 
008986  17048000           [122] loadbool   16  1   0    ; true
00898A  62430002           [123] call       13  4   1  
00898E  53038001           [124] getupval   13  3      
008992  62438000           [125] call       13  1   1  
008996  4E834600           [126] gettable   13  0   282  ; "mPrevSelectedId"
fail op	35
00899A  6300C306           [127] close      1  
00899E  1A800280           [128] jmp        11           ; to [140]
0089A2  64034700           [129] self       13  0   284  ; -165724006
0089A6  CE834600           [130] gettable   15  0   282  ; "mPrevSelectedId"
0089AA  62838001           [131] call       13  3   2  
0089AE  0C40838D           [132] settable   0   283 13   ; "mSelectedElement"
0089B2  53030002           [133] getupval   13  4      
0089B6  8EC34600           [134] gettable   14  0   283  ; "mSelectedElement"
0089BA  98430000           [135] test       14      1    ; to [137] if false
0089BE  1A400080           [136] jmp        2            ; to [139]
0089C2  8B430000           [137] newtable   14  0   1    ; array=0, hash=1
0089C6  8C43C48E           [138] settable   14  285 273  ; "Filler" 1
0089CA  62430001           [139] call       13  2   1  
0089CE  1E008000           [140] return     0   1      
                           * constants:
0089D2  1E                 sizek (30)
0089D3  01                 const type 3
0089D4  825E2A77           const [0]: (1999265410)
0089D8  04                 const type 4
0089D9  0F                 string size (15)
0089DA  6D5072657653656C+  "mPrevSel"
0089E2  656374696F6E00     "ection\0"
                           const [1]: "mPrevSelection"
0089E9  03                 const type 3
0089EA  00000000           const [2]: (0)
0089EE  01                 const type 3
0089EF  65770E40           const [3]: (1074689893)
0089F3  04                 const type 4
0089F4  0C                 string size (12)
0089F5  6D43757272417263+  "mCurrArc"
0089FD  616E6500           "ane\0"
                           const [4]: "mCurrArcane"
008A01  03                 const type 3
008A02  0000803F           const [5]: (0)
008A06  04                 const type 4
008A07  0A                 string size (10)
008A08  6D456C656D656E74+  "mElement"
008A10  7300               "s\0"
                           const [6]: "mElements"
008A12  04                 const type 4
008A13  07                 string size (7)
008A14  417263616E6500     "Arcane\0"
                           const [7]: "Arcane"
008A1B  04                 const type 4
008A1C  08                 string size (8)
008A1D  6D4974656D496400   "mItemId\0"
                           const [8]: "mItemId"
008A25  04                 const type 4
008A26  04                 string size (4)
008A27  6D496400           "mId\0"
                           const [9]: "mId"
008A2B  04                 const type 4
008A2C  01                 string size (0)
                           const [10]: ""
008A2E  04                 const type 4
008A2F  0A                 string size (10)
008A30  6D4974656D547970+  "mItemTyp"
008A38  6500               "e\0"
                           const [11]: "mItemType"
008A3A  00                 const type 0
                           const [12]: nil
008A3B  01                 const type 3
008A3C  0791B063           const [13]: (1672515847)
008A40  04                 const type 4
008A41  05                 string size (5)
008A42  4E616D6500         "Name\0"
                           const [14]: "Name"
008A47  04                 const type 4
008A48  06                 string size (6)
008A49  4F776E656400       "Owned\0"
                           const [15]: "Owned"
008A4F  04                 const type 4
008A50  09                 string size (9)
008A51  4E6F744F776E6564+  "NotOwned"
008A59  00                 "\0"
                           const [16]: "NotOwned"
008A5A  01                 const type 3
008A5B  01000000           const [17]: (1)
008A5F  04                 const type 4
008A60  06                 string size (6)
008A61  4D6178656400       "Maxed\0"
                           const [18]: "Maxed"
008A67  04                 const type 4
008A68  0B                 string size (11)
008A69  417263616E655261+  "ArcaneRa"
008A71  6E6B00             "nk\0"
                           const [19]: "ArcaneRank"
008A74  03                 const type 3
008A75  00004040           const [20]: (0)
008A79  04                 const type 4
008A7A  05                 string size (5)
008A7B  6D61746800         "math\0"
                           const [21]: "math"
008A80  01                 const type 3
008A81  2A71F965           const [22]: (1710846250)
008A85  01                 const type 3
008A86  9D5C1AC5           const [23]: (-988128099)
008A8A  01                 const type 3
008A8B  658546CE           const [24]: (-834239131)
008A8F  04                 const type 4
008A90  09                 string size (9)
008A91  6D436F6C756D6E73+  "mColumns"
008A99  00                 "\0"
                           const [25]: "mColumns"
008A9A  04                 const type 4
008A9B  10                 string size (16)
008A9C  6D5072657653656C+  "mPrevSel"
008AA4  6563746564496400   "ectedId\0"
                           const [26]: "mPrevSelectedId"
008AAC  04                 const type 4
008AAD  11                 string size (17)
008AAE  6D53656C65637465+  "mSelecte"
008AB6  64456C656D656E74+  "dElement"
008ABE  00                 "\0"
                           const [27]: "mSelectedElement"
008ABF  01                 const type 3
008AC0  9A401FF6           const [28]: (-165724006)
008AC4  04                 const type 4
008AC5  07                 string size (7)
008AC6  46696C6C657200     "Filler\0"
                           const [29]: "Filler"
                           * functions:
008ACD  00                 sizep (0)
                           * lines:
008ACF  01                 sizelineinfo (140)
                           [pc] (line)
008AD0  5E                 [001] (94)
008AD1  03                 [002] (94)
008AD2  00                 [003] (96)
008AD3  00                 [004] (96)
008AD4  5E                 [005] (96)
008AD5  03                 [006] (96)
008AD6  00                 [007] (96)
008AD7  00                 [008] (97)
008AD8  60                 [009] (97)
008AD9  03                 [010] (97)
008ADA  00                 [011] (97)
008ADB  00                 [012] (97)
008ADC  60                 [013] (98)
008ADD  03                 [014] (98)
008ADE  00                 [015] (98)
008ADF  00                 [016] (98)
008AE0  60                 [017] (98)
008AE1  03                 [018] (99)
008AE2  00                 [019] (99)
008AE3  00                 [020] (100)
008AE4  60                 [021] (100)
008AE5  03                 [022] (100)
008AE6  00                 [023] (100)
008AE7  00                 [024] (100)
008AE8  60                 [025] (101)
008AE9  03                 [026] (101)
008AEA  00                 [027] (101)
008AEB  00                 [028] (101)
008AEC  61                 [029] (101)
008AED  03                 [030] (101)
008AEE  00                 [031] (101)
008AEF  00                 [032] (101)
008AF0  61                 [033] (101)
008AF1  03                 [034] (101)
008AF2  00                 [035] (101)
008AF3  00                 [036] (101)
008AF4  61                 [037] (101)
008AF5  03                 [038] (102)
008AF6  00                 [039] (102)
008AF7  00                 [040] (102)
008AF8  61                 [041] (102)
008AF9  03                 [042] (102)
008AFA  00                 [043] (102)
008AFB  00                 [044] (102)
008AFC  61                 [045] (102)
008AFD  03                 [046] (102)
008AFE  00                 [047] (102)
008AFF  00                 [048] (102)
008B00  62                 [049] (102)
008B01  03                 [050] (102)
008B02  00                 [051] (102)
008B03  00                 [052] (102)
008B04  62                 [053] (102)
008B05  03                 [054] (103)
008B06  00                 [055] (105)
008B07  00                 [056] (98)
008B08  62                 [057] (110)
008B09  03                 [058] (113)
008B0A  00                 [059] (113)
008B0B  00                 [060] (114)
008B0C  62                 [061] (114)
008B0D  03                 [062] (115)
008B0E  00                 [063] (115)
008B0F  00                 [064] (116)
008B10  62                 [065] (117)
008B11  03                 [066] (117)
008B12  00                 [067] (117)
008B13  00                 [068] (117)
008B14  63                 [069] (118)
008B15  03                 [070] (118)
008B16  00                 [071] (118)
008B17  00                 [072] (119)
008B18  63                 [073] (119)
008B19  03                 [074] (120)
008B1A  00                 [075] (120)
008B1B  00                 [076] (121)
008B1C  64                 [077] (121)
008B1D  03                 [078] (122)
008B1E  00                 [079] (122)
008B1F  00                 [080] (123)
008B20  64                 [081] (123)
008B21  03                 [082] (123)
008B22  00                 [083] (125)
008B23  00                 [084] (125)
008B24  64                 [085] (125)
008B25  03                 [086] (125)
008B26  00                 [087] (125)
008B27  00                 [088] (125)
008B28  64                 [089] (126)
008B29  03                 [090] (127)
008B2A  00                 [091] (127)
008B2B  00                 [092] (127)
008B2C  64                 [093] (-127)
008B2D  03                 [094] (-127)
008B2E  00                 [095] (-127)
008B2F  00                 [096] (-127)
008B30  65                 [097] (-127)
008B31  03                 [098] (-127)
008B32  00                 [099] (-126)
008B33  00                 [100] (-125)
008B34  65                 [101] (-125)
008B35  03                 [102] (-125)
008B36  00                 [103] (117)
008B37  00                 [104] (-123)
008B38  65                 [105] (-120)
008B39  03                 [106] (-120)
008B3A  00                 [107] (-120)
008B3B  00                 [108] (-120)
008B3C  65                 [109] (-120)
008B3D  03                 [110] (-120)
008B3E  00                 [111] (-120)
008B3F  00                 [112] (-119)
008B40  65                 [113] (-119)
008B41  03                 [114] (-119)
008B42  00                 [115] (-118)
008B43  00                 [116] (-118)
008B44  65                 [117] (-118)
008B45  03                 [118] (-118)
008B46  00                 [119] (-118)
008B47  00                 [120] (-118)
008B48  65                 [121] (-118)
008B49  03                 [122] (-118)
008B4A  00                 [123] (-118)
008B4B  00                 [124] (-115)
008B4C  65                 [125] (-115)
008B4D  03                 [126] (-113)
008B4E  00                 [127] (-113)
008B4F  00                 [128] (-113)
008B50  65                 [129] (-112)
008B51  03                 [130] (-112)
008B52  00                 [131] (-112)
008B53  00                 [132] (-112)
008B54  65                 [133] (-111)
008B55  03                 [134] (-111)
008B56  00                 [135] (-111)
008B57  00                 [136] (-111)
008B58  65                 [137] (-111)
008B59  03                 [138] (-111)
008B5A  00                 [139] (-111)
008B5B  00                 [140] (-109)
                           * locals:
008D00  00                 sizelocvars (0)
                           * upvalues:
008D01  00                 sizeupvalues (0)
                           ** end of function **

                           
008D02                     ** function [1] definition (level 3)
                           ** start of function **
008D02  00                 string size (0)
                           source name: (none)
008D04  07                 line defined (917)
008D05  C2                 last line defined (962)
008D06  07                 nups (8)
008D07  08                 numparams (1)
008D08  01                 is_vararg (0)
008D09  00                 maxstacksize (6)
                           * code:
008D0B  69                 sizecode (105)
008D0C  4E004000           [001] gettable   1   0   256  ; "mClipName"
fail op	35
008D10  2340C000           [002] close      0  
008D14  1A000080           [003] jmp        1            ; to [5]
008D18  1E008000           [004] return     0   1      
008D1C  53000000           [005] getupval   1   0      
008D20  4E80C000           [006] gettable   1   1   258  ; "mPrevSelectedId"
fail op	35
008D24  6340C000           [007] close      1  
008D28  1AC00580           [008] jmp        24           ; to [33]
008D2C  8EC04000           [009] gettable   2   0   259  ; "Id"
fail op	35
008D30  23808000           [010] close      0  
008D34  1A000580           [011] jmp        21           ; to [33]
008D38  93008000           [012] getupval   2   1      
008D3C  8E004101           [013] gettable   2   2   260  ; "Active"
008D40  98000000           [014] test       2       0    ; to [16] if true
008D44  1A000380           [015] jmp        13           ; to [29]
008D48  9D400100           [016] getglobal  2   5        ; Engine
008D4C  8E804101           [017] gettable   2   2   262  ; -1802437008
008D50  A2808000           [018] call       2   1   2  
008D54  98400000           [019] test       2       1    ; to [21] if false
008D58  1A400180           [020] jmp        6            ; to [27]
008D5C  9DC00100           [021] getglobal  2   7        ; 1491452635
008D60  A2808000           [022] call       2   1   2  
008D64  D3000001           [023] getupval   3   2      
008D68  8DC00001           [024] sub        2   2   3  
fail op	21
008D6C  15004201           [025] concat     0   2   264
008D70  1A400080           [026] jmp        2            ; to [29]
008D74  93008001           [027] getupval   2   3      
008D78  A2408000           [028] call       2   1   1  
008D7C  9DC00100           [029] getglobal  2   7        ; 1491452635
008D80  A2808000           [030] call       2   1   2  
fail op	8
008D84  88000001           [031] setupval   2   2      
008D88  1E008000           [032] return     0   1      
008D8C  93000000           [033] getupval   2   0      
008D90  CEC04000           [034] gettable   3   0   259  ; "Id"
008D94  8CC00081           [035] settable   2   258 3    ; "mPrevSelectedId"
008D98  9DC00100           [036] getglobal  2   7        ; 1491452635
008D9C  A2808000           [037] call       2   1   2  
fail op	8
008DA0  88000001           [038] setupval   2   2      
008DA4  93000002           [039] getupval   2   4      
008DA8  8E404201           [040] gettable   2   2   265  ; 630793108
008DAC  DD800200           [041] getglobal  3   10       ; _G
008DB0  CEC0C201           [042] gettable   3   3   267  ; "UISound_Select"
008DB4  A2400001           [043] call       2   2   1  
008DB8  93000002           [044] getupval   2   4      
008DBC  8E404201           [045] gettable   2   2   265  ; 630793108
008DC0  DD800200           [046] getglobal  3   10       ; _G
008DC4  CE00C301           [047] gettable   3   3   268  ; "UISound_ItemTipSection"
008DC8  A2400001           [048] call       2   2   1  
008DCC  99400300           [049] loadk      2   13       ; 0
fail op	8
008DD0  88008002           [050] setupval   2   5      
008DD4  9D800300           [051] getglobal  2   14       ; 1074689893
008DD8  CEC04300           [052] gettable   3   0   271  ; "Arcane"
008DDC  A2800001           [053] call       2   2   2  
008DE0  98400000           [054] test       2       1    ; to [56] if false
008DE4  1A000380           [055] jmp        13           ; to [69]
008DE8  9D800300           [056] getglobal  2   14       ; 1074689893
008DEC  CEC04300           [057] gettable   3   0   271  ; "Arcane"
008DF0  CE00C401           [058] gettable   3   3   272  ; "mInstance"
008DF4  A2800001           [059] call       2   2   2  
008DF8  98400000           [060] test       2       1    ; to [62] if false
008DFC  1A800180           [061] jmp        7            ; to [69]
008E00  8EC04300           [062] gettable   2   0   271  ; "Arcane"
008E04  8E004401           [063] gettable   2   2   272  ; "mInstance"
008E08  A4404401           [064] self       2   2   273  ; 1866047198
008E0C  0EC14300           [065] gettable   4   0   271  ; "Arcane"
008E10  0E814402           [066] gettable   4   4   274  ; "mUpgradeFingerprint"
008E14  A2808001           [067] call       2   3   2  
fail op	8
008E18  88008002           [068] setupval   2   5      
fail op	35
008E1C  6340C000           [069] close      1  
008E20  1AC00380           [070] jmp        16           ; to [87]
008E24  93000000           [071] getupval   2   0      
008E28  A4C04401           [072] self       2   2   275  ; -165724006
008E2C  12018000           [073] move       4   1      
008E30  A2808001           [074] call       2   3   2  
008E34  DD800300           [075] getglobal  3   14       ; 1074689893
008E38  12010001           [076] move       4   2      
008E3C  E2800001           [077] call       3   2   2  
008E40  D8400000           [078] test       3       1    ; to [80] if false
008E44  1A800180           [079] jmp        7            ; to [87]
008E48  CE004001           [080] gettable   3   2   256  ; "mClipName"
fail op	35
008E4C  6340C001           [081] close      1  
008E50  1AC00080           [082] jmp        4            ; to [87]
008E54  D3000000           [083] getupval   3   0      
008E58  CE00C501           [084] gettable   3   3   276  ; -1552746934
008E5C  12010001           [085] move       4   2      
008E60  E2400001           [086] call       3   2   1  
008E64  D3008000           [087] getupval   3   1      
008E68  CE00C101           [088] gettable   3   3   260  ; "Active"
008E6C  D8000000           [089] test       3       0    ; to [91] if true
008E70  1A400080           [090] jmp        2            ; to [93]
008E74  D3000003           [091] getupval   3   6      
008E78  E2408000           [092] call       3   1   1  
008E7C  D3008003           [093] getupval   3   7      
008E80  12010000           [094] move       4   0      
008E84  57018000           [095] loadbool   5   1   0    ; true
008E88  E2408001           [096] call       3   3   1  
008E8C  CE404500           [097] gettable   3   0   277  ; "Filler"
008E90  D8000000           [098] test       3       0    ; to [100] if true
008E94  1A000080           [099] jmp        1            ; to [101]
008E98  1E008000           [100] return     0   1      
008E9C  D3000000           [101] getupval   3   0      
008EA0  CE00C501           [102] gettable   3   3   276  ; -1552746934
008EA4  12010000           [103] move       4   0      
008EA8  E2400001           [104] call       3   2   1  
008EAC  1E008000           [105] return     0   1      
                           * constants:
008EB0  16                 sizek (22)
008EB1  04                 const type 4
008EB2  0A                 string size (10)
008EB3  6D436C69704E616D+  "mClipNam"
008EBB  6500               "e\0"
                           const [0]: "mClipName"
008EBD  00                 const type 0
                           const [1]: nil
008EBE  04                 const type 4
008EBF  10                 string size (16)
008EC0  6D5072657653656C+  "mPrevSel"
008EC8  6563746564496400   "ectedId\0"
                           const [2]: "mPrevSelectedId"
008ED0  04                 const type 4
008ED1  03                 string size (3)
008ED2  496400             "Id\0"
                           const [3]: "Id"
008ED5  04                 const type 4
008ED6  07                 string size (7)
008ED7  41637469766500     "Active\0"
                           const [4]: "Active"
008EDE  04                 const type 4
008EDF  07                 string size (7)
008EE0  456E67696E6500     "Engine\0"
                           const [5]: "Engine"
008EE7  01                 const type 3
008EE8  70FE9094           const [6]: (-1802437008)
008EEC  01                 const type 3
008EED  DBC2E558           const [7]: (1491452635)
008EF1  03                 const type 3
008EF2  0000003F           const [8]: (0)
008EF6  01                 const type 3
008EF7  94239925           const [9]: (630793108)
008EFB  04                 const type 4
008EFC  03                 string size (3)
008EFD  5F4700             "_G\0"
                           const [10]: "_G"
008F00  04                 const type 4
008F01  0F                 string size (15)
008F02  5549536F756E645F+  "UISound_"
008F0A  53656C65637400     "Select\0"
                           const [11]: "UISound_Select"
008F11  04                 const type 4
008F12  17                 string size (23)
008F13  5549536F756E645F+  "UISound_"
008F1B  4974656D54697053+  "ItemTipS"
008F23  656374696F6E00     "ection\0"
                           const [12]: "UISound_ItemTipSection"
008F2A  03                 const type 3
008F2B  00000000           const [13]: (0)
008F2F  01                 const type 3
008F30  65770E40           const [14]: (1074689893)
008F34  04                 const type 4
008F35  07                 string size (7)
008F36  417263616E6500     "Arcane\0"
                           const [15]: "Arcane"
008F3D  04                 const type 4
008F3E  0A                 string size (10)
008F3F  6D496E7374616E63+  "mInstanc"
008F47  6500               "e\0"
                           const [16]: "mInstance"
008F49  01                 const type 3
008F4A  DE9E396F           const [17]: (1866047198)
008F4E  04                 const type 4
008F4F  14                 string size (20)
008F50  6D55706772616465+  "mUpgrade"
008F58  46696E6765727072+  "Fingerpr"
008F60  696E7400           "int\0"
                           const [18]: "mUpgradeFingerprint"
008F64  01                 const type 3
008F65  9A401FF6           const [19]: (-165724006)
008F69  01                 const type 3
008F6A  4AF672A3           const [20]: (-1552746934)
008F6E  04                 const type 4
008F6F  07                 string size (7)
008F70  46696C6C657200     "Filler\0"
                           const [21]: "Filler"
                           * functions:
008F77  00                 sizep (0)
                           * lines:
008F78  69                 sizelineinfo (105)
                           [pc] (line)
008F79  96                 [001] (-106)
008F7A  03                 [002] (-106)
008F7B  00                 [003] (-106)
008F7C  00                 [004] (-105)
008F7D  96                 [005] (-102)
008F7E  03                 [006] (-102)
008F7F  00                 [007] (-101)
008F80  00                 [008] (-101)
008F81  96                 [009] (-101)
008F82  03                 [010] (-101)
008F83  00                 [011] (-101)
008F84  00                 [012] (-100)
008F85  97                 [013] (-100)
008F86  03                 [014] (-100)
008F87  00                 [015] (-100)
008F88  00                 [016] (-100)
008F89  9A                 [017] (-100)
008F8A  03                 [018] (-100)
008F8B  00                 [019] (-100)
008F8C  00                 [020] (-100)
008F8D  9A                 [021] (-100)
008F8E  03                 [022] (-100)
008F8F  00                 [023] (-100)
008F90  00                 [024] (-100)
008F91  9B                 [025] (-100)
008F92  03                 [026] (-100)
008F93  00                 [027] (-99)
008F94  00                 [028] (-99)
008F95  9B                 [029] (-96)
008F96  03                 [030] (-96)
008F97  00                 [031] (-96)
008F98  00                 [032] (-95)
008F99  9B                 [033] (-92)
008F9A  03                 [034] (-92)
008F9B  00                 [035] (-92)
008F9C  00                 [036] (-90)
008F9D  9B                 [037] (-90)
008F9E  03                 [038] (-90)
008F9F  00                 [039] (-88)
008FA0  00                 [040] (-88)
008FA1  9B                 [041] (-88)
008FA2  03                 [042] (-88)
008FA3  00                 [043] (-88)
008FA4  00                 [044] (-87)
008FA5  9C                 [045] (-87)
008FA6  03                 [046] (-87)
008FA7  00                 [047] (-87)
008FA8  00                 [048] (-87)
008FA9  9C                 [049] (-85)
008FAA  03                 [050] (-85)
008FAB  00                 [051] (-84)
008FAC  00                 [052] (-84)
008FAD  9C                 [053] (-84)
008FAE  03                 [054] (-84)
008FAF  00                 [055] (-84)
008FB0  00                 [056] (-84)
008FB1  9C                 [057] (-84)
008FB2  03                 [058] (-84)
008FB3  00                 [059] (-84)
008FB4  00                 [060] (-84)
008FB5  9C                 [061] (-84)
008FB6  03                 [062] (-83)
008FB7  00                 [063] (-83)
008FB8  00                 [064] (-83)
008FB9  9C                 [065] (-83)
008FBA  03                 [066] (-83)
008FBB  00                 [067] (-83)
008FBC  00                 [068] (-83)
008FBD  9C                 [069] (-80)
008FBE  03                 [070] (-80)
008FBF  00                 [071] (-79)
008FC0  00                 [072] (-79)
008FC1  9C                 [073] (-79)
008FC2  03                 [074] (-79)
008FC3  00                 [075] (-78)
008FC4  00                 [076] (-78)
008FC5  9C                 [077] (-78)
008FC6  03                 [078] (-78)
008FC7  00                 [079] (-78)
008FC8  00                 [080] (-78)
008FC9  9C                 [081] (-78)
008FCA  03                 [082] (-78)
008FCB  00                 [083] (-77)
008FCC  00                 [084] (-77)
008FCD  9C                 [085] (-77)
008FCE  03                 [086] (-77)
008FCF  00                 [087] (-73)
008FD0  00                 [088] (-73)
008FD1  9C                 [089] (-73)
008FD2  03                 [090] (-73)
008FD3  00                 [091] (-72)
008FD4  00                 [092] (-72)
008FD5  9C                 [093] (-69)
008FD6  03                 [094] (-69)
008FD7  00                 [095] (-69)
008FD8  00                 [096] (-69)
008FD9  9C                 [097] (-67)
008FDA  03                 [098] (-67)
008FDB  00                 [099] (-67)
008FDC  00                 [100] (-66)
008FDD  9C                 [101] (-63)
008FDE  03                 [102] (-63)
008FDF  00                 [103] (-63)
008FE0  00                 [104] (-63)
008FE1  9D                 [105] (-62)
                           * locals:
00911D  00                 sizelocvars (0)
                           * upvalues:
00911E  00                 sizeupvalues (0)
                           ** end of function **

                           
00911F                     ** function [2] definition (level 3)
                           ** start of function **
00911F  00                 string size (0)
                           source name: (none)
009121  07                 line defined (964)
009122  CB                 last line defined (971)
009123  07                 nups (1)
009124  01                 numparams (1)
009125  01                 is_vararg (0)
009126  00                 maxstacksize (6)
                           * code:
009128  1D                 sizecode (29)
009129  53000000           [01] getupval   1   0      
00912D  4E00C000           [02] gettable   1   1   256  ; "mLabel"
fail op	35
009131  6340C000           [03] close      1  
009135  1AC00080           [04] jmp        4            ; to [9]
009139  53000000           [05] getupval   1   0      
00913D  4E00C000           [06] gettable   1   1   256  ; "mLabel"
fail op	35
009141  2380C000           [07] close      0  
009145  1A800080           [08] jmp        3            ; to [12]
009149  57000000           [09] loadbool   1   0   0    ; false
00914D  5E000001           [10] return     1   2      
009151  1A000480           [11] jmp        17           ; to [29]
009155  5DC00000           [12] getglobal  1   3        ; string
009159  4E00C100           [13] gettable   1   1   260  ; -565905820
00915D  8E404100           [14] gettable   2   0   261  ; "SearchTerm"
009161  DDC00000           [15] getglobal  3   3        ; string
009165  CE80C101           [16] gettable   3   3   262  ; -1110387163
009169  13010000           [17] getupval   4   0      
00916D  0E014002           [18] gettable   4   4   256  ; "mLabel"
009171  E2800001           [19] call       3   2   2  
009175  19C10100           [20] loadk      4   7        ; 0
009179  57018000           [21] loadbool   5   1   0    ; true
00917D  62808002           [22] call       1   5   2  
fail op	35
009181  2340C000           [23] close      0  
009185  1A000080           [24] jmp        1            ; to [26]
009189  57400000           [25] loadbool   1   0   1    ; false, to [27]
00918D  57008000           [26] loadbool   1   1   0    ; true
fail op	9
009191  89008000           [27] settable   2   1   0  
009195  9E000001           [28] return     2   2      
009199  1E008000           [29] return     0   1      
                           * constants:
00919D  08                 sizek (8)
00919E  04                 const type 4
00919F  07                 string size (7)
0091A0  6D4C6162656C00     "mLabel\0"
                           const [0]: "mLabel"
0091A7  00                 const type 0
                           const [1]: nil
0091A8  04                 const type 4
0091A9  01                 string size (0)
                           const [2]: ""
0091AB  04                 const type 4
0091AC  07                 string size (7)
0091AD  737472696E6700     "string\0"
                           const [3]: "string"
0091B4  01                 const type 3
0091B5  64F644DE           const [4]: (-565905820)
0091B9  04                 const type 4
0091BA  0B                 string size (11)
0091BB  5365617263685465+  "SearchTe"
0091C3  726D00             "rm\0"
                           const [5]: "SearchTerm"
0091C6  01                 const type 3
0091C7  25D6D0BD           const [6]: (-1110387163)
0091CB  03                 const type 3
0091CC  0000803F           const [7]: (0)
                           * functions:
0091D0  00                 sizep (0)
                           * lines:
0091D1  1D                 sizelineinfo (29)
                           [pc] (line)
0091D2  C5                 [01] (-59)
0091D3  03                 [02] (-59)
0091D4  00                 [03] (-59)
0091D5  00                 [04] (-59)
0091D6  C5                 [05] (-59)
0091D7  03                 [06] (-59)
0091D8  00                 [07] (-59)
0091D9  00                 [08] (-59)
0091DA  C5                 [09] (-58)
0091DB  03                 [10] (-58)
0091DC  00                 [11] (-58)
0091DD  00                 [12] (-56)
0091DE  C5                 [13] (-56)
0091DF  03                 [14] (-56)
0091E0  00                 [15] (-56)
0091E1  00                 [16] (-56)
0091E2  C5                 [17] (-56)
0091E3  03                 [18] (-56)
0091E4  00                 [19] (-56)
0091E5  00                 [20] (-56)
0091E6  C5                 [21] (-56)
0091E7  03                 [22] (-56)
0091E8  00                 [23] (-56)
0091E9  00                 [24] (-56)
0091EA  C5                 [25] (-56)
0091EB  03                 [26] (-56)
0091EC  00                 [27] (-55)
0091ED  00                 [28] (-55)
0091EE  C5                 [29] (-53)
                           * locals:
009246  00                 sizelocvars (0)
                           * upvalues:
009247  00                 sizeupvalues (0)
                           ** end of function **

                           
009248                     ** function [3] definition (level 3)
                           ** start of function **
009248  00                 string size (0)
                           source name: (none)
00924A  07                 line defined (972)
00924B  D8                 last line defined (984)
00924C  07                 nups (0)
00924D  00                 numparams (2)
00924E  02                 is_vararg (0)
00924F  00                 maxstacksize (4)
                           * code:
009251  27                 sizecode (39)
009252  8E004000           [01] gettable   2   0   256  ; "NotOwned"
009256  CE00C000           [02] gettable   3   1   256  ; "NotOwned"
fail op	35
00925A  63C00001           [03] close      1  
00925E  1A800080           [04] jmp        3            ; to [8]
009262  8E00C000           [05] gettable   2   1   256  ; "NotOwned"
009266  9E000001           [06] return     2   2      
00926A  1A800780           [07] jmp        31           ; to [39]
00926E  8E404000           [08] gettable   2   0   257  ; "IsNone"
009272  98000000           [09] test       2       0    ; to [11] if true
009276  1A800080           [10] jmp        3            ; to [14]
00927A  97008000           [11] loadbool   2   1   0    ; true
00927E  9E000001           [12] return     2   2      
009282  1A000680           [13] jmp        25           ; to [39]
009286  8E40C000           [14] gettable   2   1   257  ; "IsNone"
00928A  98000000           [15] test       2       0    ; to [17] if true
00928E  1A800080           [16] jmp        3            ; to [20]
009292  97000000           [17] loadbool   2   0   0    ; false
009296  9E000001           [18] return     2   2      
00929A  1A800480           [19] jmp        19           ; to [39]
00929E  8E804000           [20] gettable   2   0   258  ; "Name"
0092A2  CE80C000           [21] gettable   3   1   258  ; "Name"
fail op	35
0092A6  23C00001           [22] close      0  
0092AA  1AC00180           [23] jmp        8            ; to [32]
0092AE  8EC04000           [24] gettable   2   0   259  ; "ArcaneRank"
0092B2  CEC0C000           [25] gettable   3   1   259  ; "ArcaneRank"
fail op	21
0092B6  55808001           [26] concat     1   3   2  
0092BA  1A000080           [27] jmp        1            ; to [29]
0092BE  97400000           [28] loadbool   2   0   1    ; false, to [30]
0092C2  97008000           [29] loadbool   2   1   0    ; true
0092C6  9E000001           [30] return     2   2      
0092CA  1A800180           [31] jmp        7            ; to [39]
0092CE  8E804000           [32] gettable   2   0   258  ; "Name"
0092D2  CE80C000           [33] gettable   3   1   258  ; "Name"
fail op	21
0092D6  55C00001           [34] concat     1   2   3  
0092DA  1A000080           [35] jmp        1            ; to [37]
0092DE  97400000           [36] loadbool   2   0   1    ; false, to [38]
0092E2  97008000           [37] loadbool   2   1   0    ; true
0092E6  9E000001           [38] return     2   2      
0092EA  1E008000           [39] return     0   1      
                           * constants:
0092EE  04                 sizek (4)
0092EF  04                 const type 4
0092F0  09                 string size (9)
0092F1  4E6F744F776E6564+  "NotOwned"
0092F9  00                 "\0"
                           const [0]: "NotOwned"
0092FA  04                 const type 4
0092FB  07                 string size (7)
0092FC  49734E6F6E6500     "IsNone\0"
                           const [1]: "IsNone"
009303  04                 const type 4
009304  05                 string size (5)
009305  4E616D6500         "Name\0"
                           const [2]: "Name"
00930A  04                 const type 4
00930B  0B                 string size (11)
00930C  417263616E655261+  "ArcaneRa"
009314  6E6B00             "nk\0"
                           const [3]: "ArcaneRank"
                           * functions:
009317  00                 sizep (0)
                           * lines:
009318  27                 sizelineinfo (39)
                           [pc] (line)
009319  CD                 [01] (-51)
00931A  03                 [02] (-51)
00931B  00                 [03] (-51)
00931C  00                 [04] (-51)
00931D  CD                 [05] (-50)
00931E  03                 [06] (-50)
00931F  00                 [07] (-50)
009320  00                 [08] (-49)
009321  CD                 [09] (-49)
009322  03                 [10] (-49)
009323  00                 [11] (-48)
009324  00                 [12] (-48)
009325  CD                 [13] (-48)
009326  03                 [14] (-47)
009327  00                 [15] (-47)
009328  00                 [16] (-47)
009329  CE                 [17] (-46)
00932A  03                 [18] (-46)
00932B  00                 [19] (-46)
00932C  00                 [20] (-45)
00932D  CE                 [21] (-45)
00932E  03                 [22] (-45)
00932F  00                 [23] (-45)
009330  00                 [24] (-44)
009331  CE                 [25] (-44)
009332  03                 [26] (-44)
009333  00                 [27] (-44)
009334  00                 [28] (-44)
009335  CF                 [29] (-44)
009336  03                 [30] (-44)
009337  00                 [31] (-44)
009338  00                 [32] (-42)
009339  CF                 [33] (-42)
00933A  03                 [34] (-42)
00933B  00                 [35] (-42)
00933C  00                 [36] (-42)
00933D  CF                 [37] (-42)
00933E  03                 [38] (-42)
00933F  00                 [39] (-40)
                           * locals:
0093B5  00                 sizelocvars (0)
                           * upvalues:
0093B6  00                 sizeupvalues (0)
                           ** end of function **

                           
0093B7                     ** function [4] definition (level 3)
                           ** start of function **
0093B7  00                 string size (0)
                           source name: (none)
0093B9  07                 line defined (985)
0093BA  E5                 last line defined (997)
0093BB  07                 nups (0)
0093BC  00                 numparams (2)
0093BD  02                 is_vararg (0)
0093BE  00                 maxstacksize (4)
                           * code:
0093C0  27                 sizecode (39)
0093C1  8E004000           [01] gettable   2   0   256  ; "NotOwned"
0093C5  CE00C000           [02] gettable   3   1   256  ; "NotOwned"
fail op	35
0093C9  63C00001           [03] close      1  
0093CD  1A800080           [04] jmp        3            ; to [8]
0093D1  8E00C000           [05] gettable   2   1   256  ; "NotOwned"
0093D5  9E000001           [06] return     2   2      
0093D9  1A800780           [07] jmp        31           ; to [39]
0093DD  8E404000           [08] gettable   2   0   257  ; "IsNone"
0093E1  98000000           [09] test       2       0    ; to [11] if true
0093E5  1A800080           [10] jmp        3            ; to [14]
0093E9  97008000           [11] loadbool   2   1   0    ; true
0093ED  9E000001           [12] return     2   2      
0093F1  1A000680           [13] jmp        25           ; to [39]
0093F5  8E40C000           [14] gettable   2   1   257  ; "IsNone"
0093F9  98000000           [15] test       2       0    ; to [17] if true
0093FD  1A800080           [16] jmp        3            ; to [20]
009401  97000000           [17] loadbool   2   0   0    ; false
009405  9E000001           [18] return     2   2      
009409  1A800480           [19] jmp        19           ; to [39]
00940D  8E804000           [20] gettable   2   0   258  ; "ArcaneRank"
009411  CE80C000           [21] gettable   3   1   258  ; "ArcaneRank"
fail op	35
009415  23C00001           [22] close      0  
009419  1AC00180           [23] jmp        8            ; to [32]
00941D  8EC04000           [24] gettable   2   0   259  ; "Name"
009421  CEC0C000           [25] gettable   3   1   259  ; "Name"
fail op	21
009425  55C00001           [26] concat     1   2   3  
009429  1A000080           [27] jmp        1            ; to [29]
00942D  97400000           [28] loadbool   2   0   1    ; false, to [30]
009431  97008000           [29] loadbool   2   1   0    ; true
009435  9E000001           [30] return     2   2      
009439  1A800180           [31] jmp        7            ; to [39]
00943D  8E804000           [32] gettable   2   0   258  ; "ArcaneRank"
009441  CE80C000           [33] gettable   3   1   258  ; "ArcaneRank"
fail op	21
009445  55808001           [34] concat     1   3   2  
009449  1A000080           [35] jmp        1            ; to [37]
00944D  97400000           [36] loadbool   2   0   1    ; false, to [38]
009451  97008000           [37] loadbool   2   1   0    ; true
009455  9E000001           [38] return     2   2      
009459  1E008000           [39] return     0   1      
                           * constants:
00945D  04                 sizek (4)
00945E  04                 const type 4
00945F  09                 string size (9)
009460  4E6F744F776E6564+  "NotOwned"
009468  00                 "\0"
                           const [0]: "NotOwned"
009469  04                 const type 4
00946A  07                 string size (7)
00946B  49734E6F6E6500     "IsNone\0"
                           const [1]: "IsNone"
009472  04                 const type 4
009473  0B                 string size (11)
009474  417263616E655261+  "ArcaneRa"
00947C  6E6B00             "nk\0"
                           const [2]: "ArcaneRank"
00947F  04                 const type 4
009480  05                 string size (5)
009481  4E616D6500         "Name\0"
                           const [3]: "Name"
                           * functions:
009486  00                 sizep (0)
                           * lines:
009487  27                 sizelineinfo (39)
                           [pc] (line)
009488  DA                 [01] (-38)
009489  03                 [02] (-38)
00948A  00                 [03] (-38)
00948B  00                 [04] (-38)
00948C  DA                 [05] (-37)
00948D  03                 [06] (-37)
00948E  00                 [07] (-37)
00948F  00                 [08] (-36)
009490  DA                 [09] (-36)
009491  03                 [10] (-36)
009492  00                 [11] (-35)
009493  00                 [12] (-35)
009494  DA                 [13] (-35)
009495  03                 [14] (-34)
009496  00                 [15] (-34)
009497  00                 [16] (-34)
009498  DB                 [17] (-33)
009499  03                 [18] (-33)
00949A  00                 [19] (-33)
00949B  00                 [20] (-32)
00949C  DB                 [21] (-32)
00949D  03                 [22] (-32)
00949E  00                 [23] (-32)
00949F  00                 [24] (-31)
0094A0  DB                 [25] (-31)
0094A1  03                 [26] (-31)
0094A2  00                 [27] (-31)
0094A3  00                 [28] (-31)
0094A4  DC                 [29] (-31)
0094A5  03                 [30] (-31)
0094A6  00                 [31] (-31)
0094A7  00                 [32] (-29)
0094A8  DC                 [33] (-29)
0094A9  03                 [34] (-29)
0094AA  00                 [35] (-29)
0094AB  00                 [36] (-29)
0094AC  DC                 [37] (-29)
0094AD  03                 [38] (-29)
0094AE  00                 [39] (-27)
                           * locals:
009524  00                 sizelocvars (0)
                           * upvalues:
009525  00                 sizeupvalues (0)
                           ** end of function **

                           
009526                     ** function [5] definition (level 3)
                           ** start of function **
009526  00                 string size (0)
                           source name: (none)
009528  07                 line defined (998)
009529  F7                 last line defined (1015)
00952A  07                 nups (0)
00952B  00                 numparams (2)
00952C  02                 is_vararg (0)
00952D  00                 maxstacksize (6)
                           * code:
00952F  27                 sizecode (39)
009530  8E004000           [01] gettable   2   0   256  ; "NotOwned"
009534  CE00C000           [02] gettable   3   1   256  ; "NotOwned"
fail op	35
009538  63C00001           [03] close      1  
00953C  1A800080           [04] jmp        3            ; to [8]
009540  8E00C000           [05] gettable   2   1   256  ; "NotOwned"
009544  9E000001           [06] return     2   2      
009548  1A800780           [07] jmp        31           ; to [39]
00954C  8E404000           [08] gettable   2   0   257  ; "IsNone"
009550  98000000           [09] test       2       0    ; to [11] if true
009554  1A800080           [10] jmp        3            ; to [14]
009558  97008000           [11] loadbool   2   1   0    ; true
00955C  9E000001           [12] return     2   2      
009560  1A000680           [13] jmp        25           ; to [39]
009564  8E40C000           [14] gettable   2   1   257  ; "IsNone"
009568  98000000           [15] test       2       0    ; to [17] if true
00956C  1A800080           [16] jmp        3            ; to [20]
009570  97000000           [17] loadbool   2   0   0    ; false
009574  9E000001           [18] return     2   2      
009578  1A800480           [19] jmp        19           ; to [39]
00957C  8E804000           [20] gettable   2   0   258  ; "Arcane"
009580  8EC04001           [21] gettable   2   2   259  ; "mItemCount"
009584  CE80C000           [22] gettable   3   1   258  ; "Arcane"
009588  CEC0C001           [23] gettable   3   3   259  ; "mItemCount"
fail op	35
00958C  23C00001           [24] close      0  
009590  1AC00180           [25] jmp        8            ; to [34]
009594  0E014100           [26] gettable   4   0   260  ; "Name"
009598  4E01C100           [27] gettable   5   1   260  ; "Name"
fail op	21
00959C  55400102           [28] concat     1   4   5  
0095A0  1A000080           [29] jmp        1            ; to [31]
0095A4  17410000           [30] loadbool   4   0   1    ; false, to [32]
0095A8  17018000           [31] loadbool   4   1   0    ; true
0095AC  1E010001           [32] return     4   2      
0095B0  1A000180           [33] jmp        5            ; to [39]
fail op	21
0095B4  55808001           [34] concat     1   3   2  
0095B8  1A000080           [35] jmp        1            ; to [37]
0095BC  17410000           [36] loadbool   4   0   1    ; false, to [38]
0095C0  17018000           [37] loadbool   4   1   0    ; true
0095C4  1E010001           [38] return     4   2      
0095C8  1E008000           [39] return     0   1      
                           * constants:
0095CC  05                 sizek (5)
0095CD  04                 const type 4
0095CE  09                 string size (9)
0095CF  4E6F744F776E6564+  "NotOwned"
0095D7  00                 "\0"
                           const [0]: "NotOwned"
0095D8  04                 const type 4
0095D9  07                 string size (7)
0095DA  49734E6F6E6500     "IsNone\0"
                           const [1]: "IsNone"
0095E1  04                 const type 4
0095E2  07                 string size (7)
0095E3  417263616E6500     "Arcane\0"
                           const [2]: "Arcane"
0095EA  04                 const type 4
0095EB  0B                 string size (11)
0095EC  6D4974656D436F75+  "mItemCou"
0095F4  6E7400             "nt\0"
                           const [3]: "mItemCount"
0095F7  04                 const type 4
0095F8  05                 string size (5)
0095F9  4E616D6500         "Name\0"
                           const [4]: "Name"
                           * functions:
0095FE  00                 sizep (0)
                           * lines:
0095FF  27                 sizelineinfo (39)
                           [pc] (line)
009600  E7                 [01] (-25)
009601  03                 [02] (-25)
009602  00                 [03] (-25)
009603  00                 [04] (-25)
009604  E7                 [05] (-24)
009605  03                 [06] (-24)
009606  00                 [07] (-24)
009607  00                 [08] (-23)
009608  E7                 [09] (-23)
009609  03                 [10] (-23)
00960A  00                 [11] (-22)
00960B  00                 [12] (-22)
00960C  E7                 [13] (-22)
00960D  03                 [14] (-21)
00960E  00                 [15] (-21)
00960F  00                 [16] (-21)
009610  E8                 [17] (-20)
009611  03                 [18] (-20)
009612  00                 [19] (-20)
009613  00                 [20] (-18)
009614  E8                 [21] (-18)
009615  03                 [22] (-17)
009616  00                 [23] (-17)
009617  00                 [24] (-15)
009618  E8                 [25] (-15)
009619  03                 [26] (-14)
00961A  00                 [27] (-14)
00961B  00                 [28] (-14)
00961C  E9                 [29] (-14)
00961D  03                 [30] (-14)
00961E  00                 [31] (-14)
00961F  00                 [32] (-14)
009620  E9                 [33] (-14)
009621  03                 [34] (-12)
009622  00                 [35] (-12)
009623  00                 [36] (-12)
009624  E9                 [37] (-12)
009625  03                 [38] (-12)
009626  00                 [39] (-9)
                           * locals:
00969C  00                 sizelocvars (0)
                           * upvalues:
00969D  00                 sizeupvalues (0)
                           ** end of function **

                           * lines:
00969F  02                 sizelineinfo (292)
                           [pc] (line)
0096A0  3C                 [001] (60)
0096A1  03                 [002] (60)
0096A2  00                 [003] (60)
0096A3  00                 [004] (61)
0096A4  3C                 [005] (61)
0096A5  03                 [006] (61)
0096A6  00                 [007] (61)
0096A7  00                 [008] (61)
0096A8  3C                 [009] (61)
0096A9  03                 [010] (61)
0096AA  00                 [011] (61)
0096AB  00                 [012] (61)
0096AC  3D                 [013] (62)
0096AD  03                 [014] (62)
0096AE  00                 [015] (62)
0096AF  00                 [016] (62)
0096B0  3D                 [017] (62)
0096B1  03                 [018] (62)
0096B2  00                 [019] (63)
0096B3  00                 [020] (63)
0096B4  3D                 [021] (64)
0096B5  03                 [022] (64)
0096B6  00                 [023] (65)
0096B7  00                 [024] (65)
0096B8  3D                 [025] (66)
0096B9  03                 [026] (66)
0096BA  00                 [027] (67)
0096BB  00                 [028] (67)
0096BC  3D                 [029] (68)
0096BD  03                 [030] (68)
0096BE  00                 [031] (69)
0096BF  00                 [032] (69)
0096C0  3D                 [033] (69)
0096C1  03                 [034] (69)
0096C2  00                 [035] (69)
0096C3  00                 [036] (70)
0096C4  3D                 [037] (70)
0096C5  03                 [038] (70)
0096C6  00                 [039] (71)
0096C7  00                 [040] (71)
0096C8  3D                 [041] (72)
0096C9  03                 [042] (72)
0096CA  00                 [043] (73)
0096CB  00                 [044] (73)
0096CC  3D                 [045] (74)
0096CD  03                 [046] (74)
0096CE  00                 [047] (75)
0096CF  00                 [048] (75)
0096D0  3E                 [049] (76)
0096D1  03                 [050] (76)
0096D2  00                 [051] (76)
0096D3  00                 [052] (76)
0096D4  3E                 [053] (76)
0096D5  03                 [054] (77)
0096D6  00                 [055] (77)
0096D7  00                 [056] (77)
0096D8  3E                 [057] (77)
0096D9  03                 [058] (77)
0096DA  00                 [059] (78)
0096DB  00                 [060] (78)
0096DC  3E                 [061] (79)
0096DD  03                 [062] (79)
0096DE  00                 [063] (80)
0096DF  00                 [064] (80)
0096E0  3E                 [065] (81)
0096E1  03                 [066] (81)
0096E2  00                 [067] (82)
0096E3  00                 [068] (82)
0096E4  3E                 [069] (82)
0096E5  03                 [070] (83)
0096E6  00                 [071] (83)
0096E7  00                 [072] (83)
0096E8  3F                 [073] (84)
0096E9  03                 [074] (84)
0096EA  00                 [075] (84)
0096EB  00                 [076] (85)
0096EC  3F                 [077] (85)
0096ED  03                 [078] (85)
0096EE  00                 [079] (85)
0096EF  00                 [080] (85)
0096F0  40                 [081] (86)
0096F1  03                 [082] (86)
0096F2  00                 [083] (86)
0096F3  00                 [084] (87)
0096F4  40                 [085] (87)
0096F5  03                 [086] (87)
0096F6  00                 [087] (88)
0096F7  00                 [088] (88)
0096F8  41                 [089] (88)
0096F9  03                 [090] (89)
0096FA  00                 [091] (89)
0096FB  00                 [092] (89)
0096FC  41                 [093] (90)
0096FD  03                 [094] (90)
0096FE  00                 [095] (90)
0096FF  00                 [096] (91)
009700  42                 [097] (91)
009701  03                 [098] (91)
009702  00                 [099] (91)
009703  00                 [100] (92)
009704  42                 [101] (-109)
009705  03                 [102] (-109)
009706  00                 [103] (-109)
009707  00                 [104] (-109)
009708  43                 [105] (-109)
009709  03                 [106] (-109)
00970A  00                 [107] (-109)
00970B  00                 [108] (-108)
00970C  43                 [109] (-62)
00970D  03                 [110] (-62)
00970E  00                 [111] (-62)
00970F  00                 [112] (-62)
009710  44                 [113] (-62)
009711  03                 [114] (-62)
009712  00                 [115] (-62)
009713  00                 [116] (-62)
009714  44                 [117] (-62)
009715  03                 [118] (-62)
009716  00                 [119] (-61)
009717  00                 [120] (-53)
009718  45                 [121] (-53)
009719  03                 [122] (-53)
00971A  00                 [123] (-52)
00971B  00                 [124] (-52)
00971C  45                 [125] (-52)
00971D  03                 [126] (-52)
00971E  00                 [127] (-52)
00971F  00                 [128] (-52)
009720  45                 [129] (-52)
009721  03                 [130] (-52)
009722  00                 [131] (-52)
009723  00                 [132] (-52)
009724  45                 [133] (-40)
009725  03                 [134] (-40)
009726  00                 [135] (-52)
009727  00                 [136] (-39)
009728  45                 [137] (-39)
009729  03                 [138] (-39)
00972A  00                 [139] (-39)
00972B  00                 [140] (-39)
00972C  46                 [141] (-39)
00972D  03                 [142] (-39)
00972E  00                 [143] (-39)
00972F  00                 [144] (-39)
009730  46                 [145] (-39)
009731  03                 [146] (-27)
009732  00                 [147] (-27)
009733  00                 [148] (-39)
009734  46                 [149] (-26)
009735  03                 [150] (-26)
009736  00                 [151] (-26)
009737  00                 [152] (-26)
009738  47                 [153] (-26)
009739  03                 [154] (-26)
00973A  00                 [155] (-26)
00973B  00                 [156] (-26)
00973C  47                 [157] (-26)
00973D  03                 [158] (-26)
00973E  00                 [159] (-9)
00973F  00                 [160] (-9)
009740  48                 [161] (-26)
009741  03                 [162] (-7)
009742  00                 [163] (-7)
009743  00                 [164] (-7)
009744  48                 [165] (-6)
009745  03                 [166] (-6)
009746  00                 [167] (-6)
009747  00                 [168] (-6)
009748  49                 [169] (-5)
009749  03                 [170] (-5)
00974A  00                 [171] (-4)
00974B  00                 [172] (-1)
00974C  49                 [173] (-1)
00974D  03                 [174] (-1)
00974E  00                 [175] (-1)
00974F  00                 [176] (1)
009750  4A                 [177] (1)
009751  03                 [178] (1)
009752  00                 [179] (1)
009753  00                 [180] (1)
009754  4A                 [181] (1)
009755  03                 [182] (1)
009756  00                 [183] (1)
009757  00                 [184] (2)
009758  4B                 [185] (2)
009759  03                 [186] (2)
00975A  00                 [187] (2)
00975B  00                 [188] (3)
00975C  4B                 [189] (3)
00975D  03                 [190] (3)
00975E  00                 [191] (3)
00975F  00                 [192] (3)
009760  4C                 [193] (3)
009761  03                 [194] (3)
009762  00                 [195] (3)
009763  00                 [196] (3)
009764  4C                 [197] (3)
009765  03                 [198] (3)
009766  00                 [199] (3)
009767  00                 [200] (3)
009768  4C                 [201] (3)
009769  03                 [202] (3)
00976A  00                 [203] (3)
00976B  00                 [204] (4)
00976C  4C                 [205] (4)
00976D  03                 [206] (4)
00976E  00                 [207] (4)
00976F  00                 [208] (4)
009770  4C                 [209] (4)
009771  03                 [210] (4)
009772  00                 [211] (4)
009773  00                 [212] (4)
009774  4D                 [213] (4)
009775  03                 [214] (4)
009776  00                 [215] (4)
009777  00                 [216] (4)
009778  4D                 [217] (4)
009779  03                 [218] (4)
00977A  00                 [219] (4)
00977B  00                 [220] (5)
00977C  4D                 [221] (5)
00977D  03                 [222] (5)
00977E  00                 [223] (5)
00977F  00                 [224] (5)
009780  4D                 [225] (5)
009781  03                 [226] (5)
009782  00                 [227] (5)
009783  00                 [228] (5)
009784  4D                 [229] (5)
009785  03                 [230] (5)
009786  00                 [231] (5)
009787  00                 [232] (5)
009788  4E                 [233] (5)
009789  03                 [234] (5)
00978A  00                 [235] (5)
00978B  00                 [236] (6)
00978C  4E                 [237] (6)
00978D  03                 [238] (6)
00978E  00                 [239] (6)
00978F  00                 [240] (6)
009790  4F                 [241] (6)
009791  03                 [242] (6)
009792  00                 [243] (6)
009793  00                 [244] (6)
009794  4F                 [245] (6)
009795  03                 [246] (6)
009796  00                 [247] (6)
009797  00                 [248] (6)
009798  50                 [249] (6)
009799  03                 [250] (6)
00979A  00                 [251] (6)
00979B  00                 [252] (7)
00979C  50                 [253] (7)
00979D  03                 [254] (7)
00979E  00                 [255] (7)
00979F  00                 [256] (7)
0097A0  51                 [257] (7)
0097A1  03                 [258] (7)
0097A2  00                 [259] (7)
0097A3  00                 [260] (7)
0097A4  51                 [261] (7)
0097A5  03                 [262] (7)
0097A6  00                 [263] (7)
0097A7  00                 [264] (7)
0097A8  52                 [265] (7)
0097A9  03                 [266] (7)
0097AA  00                 [267] (7)
0097AB  00                 [268] (7)
0097AC  52                 [269] (7)
0097AD  03                 [270] (7)
0097AE  00                 [271] (8)
0097AF  00                 [272] (8)
0097B0  52                 [273] (8)
0097B1  03                 [274] (8)
0097B2  00                 [275] (8)
0097B3  00                 [276] (8)
0097B4  53                 [277] (8)
0097B5  03                 [278] (8)
0097B6  00                 [279] (8)
0097B7  00                 [280] (8)
0097B8  53                 [281] (8)
0097B9  03                 [282] (8)
0097BA  00                 [283] (8)
0097BB  00                 [284] (8)
0097BC  53                 [285] (8)
0097BD  03                 [286] (8)
0097BE  00                 [287] (10)
0097BF  00                 [288] (10)
0097C0  54                 [289] (10)
0097C1  03                 [290] (10)
0097C2  00                 [291] (10)
0097C3  00                 [292] (11)
                           * locals:
009B30  00                 sizelocvars (0)
                           * upvalues:
009B31  00                 sizeupvalues (0)
                           ** end of function **

                           
009B32                     ** function [21] definition (level 2)
                           ** start of function **
009B32  00                 string size (0)
                           source name: (none)
009B34  08                 line defined (1037)
009B35  97                 last line defined (1047)
009B36  08                 nups (1)
009B37  01                 numparams (2)
009B38  02                 is_vararg (0)
009B39  00                 maxstacksize (5)
                           * code:
009B3B  17                 sizecode (23)
009B3C  9D000000           [01] getglobal  2   0        ; 1074689893
009B40  D2008000           [02] move       3   1      
009B44  A2800001           [03] call       2   2   2  
009B48  98400000           [04] test       2       1    ; to [6] if false
009B4C  1A800080           [05] jmp        3            ; to [9]
009B50  8E40C000           [06] gettable   2   1   257  ; "mEnabled"
009B54  98400000           [07] test       2       1    ; to [9] if false
009B58  1A000080           [08] jmp        1            ; to [10]
009B5C  1E008000           [09] return     0   1      
009B60  A480C000           [10] self       2   1   258  ; -492641364
fail op	9
009B64  09010000           [11] settable   4   0   0  
009B68  A2408001           [12] call       2   3   1  
009B6C  9D000000           [13] getglobal  2   0        ; 1074689893
009B70  D3000000           [14] getupval   3   0      
009B74  A2800001           [15] call       2   2   2  
009B78  98400000           [16] test       2       1    ; to [18] if false
009B7C  1A000180           [17] jmp        5            ; to [23]
009B80  93000000           [18] getupval   2   0      
009B84  8EC04001           [19] gettable   2   2   259  ; "mScrollBar"
009B88  A4804001           [20] self       2   2   258  ; -492641364
009B8C  12010000           [21] move       4   0      
009B90  A2408001           [22] call       2   3   1  
009B94  1E008000           [23] return     0   1      
                           * constants:
009B98  04                 sizek (4)
009B99  01                 const type 3
009B9A  65770E40           const [0]: (1074689893)
009B9E  04                 const type 4
009B9F  09                 string size (9)
009BA0  6D456E61626C6564+  "mEnabled"
009BA8  00                 "\0"
                           const [1]: "mEnabled"
009BA9  01                 const type 3
009BAA  ACE3A2E2           const [2]: (-492641364)
009BAE  04                 const type 4
009BAF  0B                 string size (11)
009BB0  6D5363726F6C6C42+  "mScrollB"
009BB8  617200             "ar\0"
                           const [3]: "mScrollBar"
                           * functions:
009BBB  00                 sizep (0)
                           * lines:
009BBC  17                 sizelineinfo (23)
                           [pc] (line)
009BBD  0E                 [01] (14)
009BBE  04                 [02] (14)
009BBF  00                 [03] (14)
009BC0  00                 [04] (14)
009BC1  0E                 [05] (14)
009BC2  04                 [06] (14)
009BC3  00                 [07] (14)
009BC4  00                 [08] (14)
009BC5  0E                 [09] (15)
009BC6  04                 [10] (18)
009BC7  00                 [11] (18)
009BC8  00                 [12] (18)
009BC9  0E                 [13] (20)
009BCA  04                 [14] (20)
009BCB  00                 [15] (20)
009BCC  00                 [16] (20)
009BCD  0E                 [17] (20)
009BCE  04                 [18] (21)
009BCF  00                 [19] (21)
009BD0  00                 [20] (21)
009BD1  0E                 [21] (21)
009BD2  04                 [22] (21)
009BD3  00                 [23] (23)
                           * locals:
009C19  00                 sizelocvars (0)
                           * upvalues:
009C1A  00                 sizeupvalues (0)
                           ** end of function **

                           
009C1B                     ** function [22] definition (level 2)
                           ** start of function **
009C1B  00                 string size (0)
                           source name: (none)
009C1D  08                 line defined (1049)
009C1E  C4                 last line defined (1092)
009C1F  08                 nups (2)
009C20  02                 numparams (0)
009C21  00                 is_vararg (0)
009C22  00                 maxstacksize (8)
                           * code:
009C24  43                 sizecode (67)
009C25  1D000000           [01] getglobal  0   0        ; mMovie
009C29  24404000           [02] self       0   0   257  ; 98241492
009C2D  99800000           [03] loadk      2   2        ; "/Lotus/Language/Menu/SearchPrompt"
009C31  D7000000           [04] loadbool   3   0   0    ; false
009C35  22800002           [05] call       0   4   2  
009C39  5DC00000           [06] getglobal  1   3        ; 849075268
009C3D  99000100           [07] loadk      2   4        ; "Lotus.Interface.Components.ThemedInputField"
009C41  62800001           [08] call       1   2   2  
009C45  8E40C100           [09] gettable   2   1   261  ; 1191123516
009C49  DD000000           [10] getglobal  3   0        ; mMovie
009C4D  19810100           [11] loadk      4   6        ; "ArcaneSelector.Search"
009C51  46010003           [12] loadnil    5   6      
009C55  D9C10100           [13] loadk      7   7        ; "<MENU_LTHUMB>"
009C59  A2800003           [14] call       2   6   2  
fail op	8
009C5D  88000000           [15] setupval   2   0      
009C61  93000000           [16] getupval   2   0      
009C65  A4004201           [17] self       2   2   264  ; 2026214587
009C69  13010000           [18] getupval   4   0      
009C6D  0E414202           [19] gettable   4   4   265  ; "TYPE"
009C71  0E814202           [20] gettable   4   4   266  ; "PLAIN"
009C75  52010000           [21] move       5   0      
009C79  92010000           [22] move       6   0      
009C7D  A2408002           [23] call       2   5   1  
009C81  93000000           [24] getupval   2   0      
009C85  8C00C385           [25] settable   2   267 268  ; "mMinSize" 0
009C89  93000000           [26] getupval   2   0      
009C8D  8C00C386           [27] settable   2   269 268  ; "mMaxSize" 0
009C91  93000000           [28] getupval   2   0      
009C95  8CC04387           [29] settable   2   270 271  ; "mTextBuffer" 0
009C99  93000000           [30] getupval   2   0      
009C9D  DD400400           [31] getglobal  3   17       ; _G
009CA1  CE80C401           [32] gettable   3   3   274  ; "UITexture_Search"
009CA5  8CC00088           [33] settable   2   272 3    ; "mAltButtonIcon"
009CA9  93000000           [34] getupval   2   0      
009CAD  8C00C589           [35] settable   2   275 276  ; "mAltButtonVisible" 1
009CB1  93000000           [36] getupval   2   0      
009CB5  8C80C58A           [37] settable   2   277 278  ; "mUnfocusedUnderlineColorOverride" nil
009CB9  93000000           [38] getupval   2   0      
009CBD  D3000000           [39] getupval   3   0      
009CC1  CE00C601           [40] gettable   3   3   280  ; "InputFieldTextChanged"
009CC5  8CC0808B           [41] settable   2   279 3    ; "BaseInputFieldTextChanged"
009CC9  93000000           [42] getupval   2   0      
009CCD  E5000000           [43] closure    3   0      
009CD1  13008000           [44] getupval   0   1      
009CD5  8CC0008C           [45] settable   2   280 3    ; "InputFieldTextChanged"
009CD9  93000000           [46] getupval   2   0      
009CDD  D3000000           [47] getupval   3   0      
009CE1  CE80C601           [48] gettable   3   3   282  ; "OnGamepadTransition"
009CE5  8CC0808C           [49] settable   2   281 3    ; "BaseOnGamepadTransition"
009CE9  93000000           [50] getupval   2   0      
009CED  E5400000           [51] closure    3   1      
009CF1  8CC0008D           [52] settable   2   282 3    ; "OnGamepadTransition"
009CF5  93000000           [53] getupval   2   0      
009CF9  D3000000           [54] getupval   3   0      
009CFD  CE00C701           [55] gettable   3   3   284  ; "SetClearHintVisible"
009D01  8CC0808D           [56] settable   2   283 3    ; "BaseSetClearHintVisible"
009D05  93000000           [57] getupval   2   0      
009D09  E5800000           [58] closure    3   2      
009D0D  8CC0008E           [59] settable   2   284 3    ; "SetClearHintVisible"
009D11  93000000           [60] getupval   2   0      
009D15  A4404701           [61] self       2   2   285  ; 928782246
009D19  19810000           [62] loadk      4   2        ; "/Lotus/Language/Menu/SearchPrompt"
009D1D  A2408001           [63] call       2   3   1  
009D21  93000000           [64] getupval   2   0      
009D25  A4804701           [65] self       2   2   286  ; 1685109492
009D29  A2400001           [66] call       2   2   1  
009D2D  1E008000           [67] return     0   1      
                           * constants:
009D31  1F                 sizek (31)
009D32  04                 const type 4
009D33  07                 string size (7)
009D34  6D4D6F76696500     "mMovie\0"
                           const [0]: "mMovie"
009D3B  01                 const type 3
009D3C  D40BDB05           const [1]: (98241492)
009D40  04                 const type 4
009D41  22                 string size (34)
009D42  2F4C6F7475732F4C+  "/Lotus/L"
009D4A  616E67756167652F+  "anguage/"
009D52  4D656E752F536561+  "Menu/Sea"
009D5A  72636850726F6D70+  "rchPromp"
009D62  7400               "t\0"
                           const [2]: "/Lotus/Language/Menu/SearchPrompt"
009D64  01                 const type 3
009D65  44DC9B32           const [3]: (849075268)
009D69  04                 const type 4
009D6A  2C                 string size (44)
009D6B  4C6F7475732E496E+  "Lotus.In"
009D73  746572666163652E+  "terface."
009D7B  436F6D706F6E656E+  "Componen"
009D83  74732E5468656D65+  "ts.Theme"
009D8B  64496E7075744669+  "dInputFi"
009D93  656C6400           "eld\0"
                           const [4]: "Lotus.Interface.Components.ThemedInputField"
009D97  01                 const type 3
009D98  3C1AFF46           const [5]: (1191123516)
009D9C  04                 const type 4
009D9D  16                 string size (22)
009D9E  417263616E655365+  "ArcaneSe"
009DA6  6C6563746F722E53+  "lector.S"
009DAE  656172636800       "earch\0"
                           const [6]: "ArcaneSelector.Search"
009DB4  04                 const type 4
009DB5  0E                 string size (14)
009DB6  3C4D454E555F4C54+  "<MENU_LT"
009DBE  48554D423E00       "HUMB>\0"
                           const [7]: "<MENU_LTHUMB>"
009DC4  01                 const type 3
009DC5  BB94C578           const [8]: (2026214587)
009DC9  04                 const type 4
009DCA  05                 string size (5)
009DCB  5459504500         "TYPE\0"
                           const [9]: "TYPE"
009DD0  04                 const type 4
009DD1  06                 string size (6)
009DD2  504C41494E00       "PLAIN\0"
                           const [10]: "PLAIN"
009DD8  04                 const type 4
009DD9  09                 string size (9)
009DDA  6D4D696E53697A65+  "mMinSize"
009DE2  00                 "\0"
                           const [11]: "mMinSize"
009DE3  03                 const type 3
009DE4  00004843           const [12]: (0)
009DE8  04                 const type 4
009DE9  09                 string size (9)
009DEA  6D4D617853697A65+  "mMaxSize"
009DF2  00                 "\0"
                           const [13]: "mMaxSize"
009DF3  04                 const type 4
009DF4  0C                 string size (12)
009DF5  6D54657874427566+  "mTextBuf"
009DFD  66657200           "fer\0"
                           const [14]: "mTextBuffer"
009E01  03                 const type 3
009E02  00008040           const [15]: (0)
009E06  04                 const type 4
009E07  0F                 string size (15)
009E08  6D416C7442757474+  "mAltButt"
009E10  6F6E49636F6E00     "onIcon\0"
                           const [16]: "mAltButtonIcon"
009E17  04                 const type 4
009E18  03                 string size (3)
009E19  5F4700             "_G\0"
                           const [17]: "_G"
009E1C  04                 const type 4
009E1D  11                 string size (17)
009E1E  5549546578747572+  "UITextur"
009E26  655F536561726368+  "e_Search"
009E2E  00                 "\0"
                           const [18]: "UITexture_Search"
009E2F  04                 const type 4
009E30  12                 string size (18)
009E31  6D416C7442757474+  "mAltButt"
009E39  6F6E56697369626C+  "onVisibl"
009E41  6500               "e\0"
                           const [19]: "mAltButtonVisible"
009E43  01                 const type 3
009E44  01000000           const [20]: (1)
009E48  04                 const type 4
009E49  21                 string size (33)
009E4A  6D556E666F637573+  "mUnfocus"
009E52  6564556E6465726C+  "edUnderl"
009E5A  696E65436F6C6F72+  "ineColor"
009E62  4F76657272696465+  "Override"
009E6A  00                 "\0"
                           const [21]: "mUnfocusedUnderlineColorOverride"
009E6B  00                 const type 0
                           const [22]: nil
009E6C  04                 const type 4
009E6D  1A                 string size (26)
009E6E  42617365496E7075+  "BaseInpu"
009E76  744669656C645465+  "tFieldTe"
009E7E  78744368616E6765+  "xtChange"
009E86  6400               "d\0"
                           const [23]: "BaseInputFieldTextChanged"
009E88  04                 const type 4
009E89  16                 string size (22)
009E8A  496E707574466965+  "InputFie"
009E92  6C64546578744368+  "ldTextCh"
009E9A  616E67656400       "anged\0"
                           const [24]: "InputFieldTextChanged"
009EA0  04                 const type 4
009EA1  18                 string size (24)
009EA2  426173654F6E4761+  "BaseOnGa"
009EAA  6D65706164547261+  "mepadTra"
009EB2  6E736974696F6E00   "nsition\0"
                           const [25]: "BaseOnGamepadTransition"
009EBA  04                 const type 4
009EBB  14                 string size (20)
009EBC  4F6E47616D657061+  "OnGamepa"
009EC4  645472616E736974+  "dTransit"
009ECC  696F6E00           "ion\0"
                           const [26]: "OnGamepadTransition"
009ED0  04                 const type 4
009ED1  18                 string size (24)
009ED2  4261736553657443+  "BaseSetC"
009EDA  6C65617248696E74+  "learHint"
009EE2  56697369626C6500   "Visible\0"
                           const [27]: "BaseSetClearHintVisible"
009EEA  04                 const type 4
009EEB  14                 string size (20)
009EEC  536574436C656172+  "SetClear"
009EF4  48696E7456697369+  "HintVisi"
009EFC  626C6500           "ble\0"
                           const [28]: "SetClearHintVisible"
009F00  01                 const type 3
009F01  A6175C37           const [29]: (928782246)
009F05  01                 const type 3
009F06  F4BA7064           const [30]: (1685109492)
                           * functions:
009F0A  03                 sizep (3)
                           
009F0B                     ** function [0] definition (level 3)
                           ** start of function **
009F0B  00                 string size (0)
                           source name: (none)
009F0D  08                 line defined (1062)
009F0E  B3                 last line defined (1075)
009F0F  08                 nups (1)
009F10  01                 numparams (2)
009F11  02                 is_vararg (0)
009F12  00                 maxstacksize (9)
                           * code:
009F14  29                 sizecode (41)
009F15  8E004000           [01] gettable   2   0   256  ; "mLabel"
009F19  E4404000           [02] self       3   0   257  ; 1996076261
009F1D  52018000           [03] move       5   1      
009F21  E2408001           [04] call       3   3   1  
009F25  CE004000           [05] gettable   3   0   256  ; "mLabel"
fail op	35
009F29  2380C001           [06] close      0  
009F2D  1AC00080           [07] jmp        4            ; to [12]
009F31  DDC00000           [08] getglobal  3   3        ; _G
009F35  CE00C101           [09] gettable   3   3   260  ; "UITexture_Search"
009F39  D8400000           [10] test       3       1    ; to [12] if false
009F3D  1A400080           [11] jmp        2            ; to [14]
009F41  DDC00000           [12] getglobal  3   3        ; _G
009F45  CE40C101           [13] gettable   3   3   261  ; "UITexture_ClearSearch"
009F49  0E814100           [14] gettable   4   0   262  ; "mAltButtonicon"
fail op	35
009F4D  63C00002           [15] close      1  
009F51  1AC00180           [16] jmp        8            ; to [25]
009F55  0CC00083           [17] settable   0   262 3    ; "mAltButtonicon"
009F59  0EC14100           [18] gettable   4   0   263  ; "mMovie"
009F5D  24014202           [19] self       4   4   264  ; 643307062
009F61  8E414200           [20] gettable   6   0   265  ; "mClipName"
009F65  D9810200           [21] loadk      7   10       ; ".BtnAlt"
009F69  82C10103           [22] concat     6   6   7  
009F6D  D2018001           [23] move       7   3      
009F71  22410002           [24] call       4   4   1  
009F75  0E014000           [25] gettable   4   0   256  ; "mLabel"
fail op	35
009F79  63000101           [26] close      1  
009F7D  1A000380           [27] jmp        13           ; to [41]
009F81  13010000           [28] getupval   4   0      
fail op	35
009F85  63C04202           [29] close      1  
009F89  1A400280           [30] jmp        10           ; to [41]
009F8D  13010000           [31] getupval   4   0      
009F91  0C414386           [32] settable   4   268 269  ; "mMuteGridOpenSound" 1
009F95  13010000           [33] getupval   4   0      
009F99  24814302           [34] self       4   4   270  ; 1685109492
009F9D  86010003           [35] loadnil    6   6      
009FA1  D7018000           [36] loadbool   7   1   0    ; true
009FA5  17028000           [37] loadbool   8   1   0    ; true
009FA9  22418002           [38] call       4   5   1  
009FAD  13010000           [39] getupval   4   0      
009FB1  0CC14386           [40] settable   4   268 271  ; "mMuteGridOpenSound" 0
009FB5  1E008000           [41] return     0   1      
                           * constants:
009FB9  10                 sizek (16)
009FBA  04                 const type 4
009FBB  07                 string size (7)
009FBC  6D4C6162656C00     "mLabel\0"
                           const [0]: "mLabel"
009FC3  01                 const type 3
009FC4  E5B4F976           const [1]: (1996076261)
009FC8  04                 const type 4
009FC9  01                 string size (0)
                           const [2]: ""
009FCB  04                 const type 4
009FCC  03                 string size (3)
009FCD  5F4700             "_G\0"
                           const [3]: "_G"
009FD0  04                 const type 4
009FD1  11                 string size (17)
009FD2  5549546578747572+  "UITextur"
009FDA  655F536561726368+  "e_Search"
009FE2  00                 "\0"
                           const [4]: "UITexture_Search"
009FE3  04                 const type 4
009FE4  16                 string size (22)
009FE5  5549546578747572+  "UITextur"
009FED  655F436C65617253+  "e_ClearS"
009FF5  656172636800       "earch\0"
                           const [5]: "UITexture_ClearSearch"
009FFB  04                 const type 4
009FFC  0F                 string size (15)
009FFD  6D416C7442757474+  "mAltButt"
00A005  6F6E69636F6E00     "onicon\0"
                           const [6]: "mAltButtonicon"
00A00C  04                 const type 4
00A00D  07                 string size (7)
00A00E  6D4D6F76696500     "mMovie\0"
                           const [7]: "mMovie"
00A015  01                 const type 3
00A016  36165826           const [8]: (643307062)
00A01A  04                 const type 4
00A01B  0A                 string size (10)
00A01C  6D436C69704E616D+  "mClipNam"
00A024  6500               "e\0"
                           const [9]: "mClipName"
00A026  04                 const type 4
00A027  08                 string size (8)
00A028  2E42746E416C7400   ".BtnAlt\0"
                           const [10]: ".BtnAlt"
00A030  00                 const type 0
                           const [11]: nil
00A031  04                 const type 4
00A032  13                 string size (19)
00A033  6D4D757465477269+  "mMuteGri"
00A03B  644F70656E536F75+  "dOpenSou"
00A043  6E6400             "nd\0"
                           const [12]: "mMuteGridOpenSound"
00A046  01                 const type 3
00A047  01000000           const [13]: (1)
00A04B  01                 const type 3
00A04C  F4BA7064           const [14]: (1685109492)
00A050  01                 const type 3
00A051  00000000           const [15]: (0)
                           * functions:
00A055  00                 sizep (0)
                           * lines:
00A056  29                 sizelineinfo (41)
                           [pc] (line)
00A057  27                 [01] (39)
00A058  04                 [02] (40)
00A059  00                 [03] (40)
00A05A  00                 [04] (40)
00A05B  28                 [05] (41)
00A05C  04                 [06] (41)
00A05D  00                 [07] (41)
00A05E  00                 [08] (41)
00A05F  28                 [09] (41)
00A060  04                 [10] (41)
00A061  00                 [11] (41)
00A062  00                 [12] (41)
00A063  28                 [13] (41)
00A064  04                 [14] (42)
00A065  00                 [15] (42)
00A066  00                 [16] (42)
00A067  29                 [17] (43)
00A068  04                 [18] (44)
00A069  00                 [19] (44)
00A06A  00                 [20] (44)
00A06B  29                 [21] (44)
00A06C  04                 [22] (44)
00A06D  00                 [23] (44)
00A06E  00                 [24] (44)
00A06F  29                 [25] (46)
00A070  04                 [26] (46)
00A071  00                 [27] (46)
00A072  00                 [28] (46)
00A073  29                 [29] (46)
00A074  04                 [30] (46)
00A075  00                 [31] (47)
00A076  00                 [32] (47)
00A077  29                 [33] (48)
00A078  04                 [34] (48)
00A079  00                 [35] (48)
00A07A  00                 [36] (48)
00A07B  29                 [37] (48)
00A07C  04                 [38] (48)
00A07D  00                 [39] (49)
00A07E  00                 [40] (49)
00A07F  29                 [41] (51)
                           * locals:
00A0FB  00                 sizelocvars (0)
                           * upvalues:
00A0FC  00                 sizeupvalues (0)
                           ** end of function **

                           
00A0FD                     ** function [1] definition (level 3)
                           ** start of function **
00A0FD  00                 string size (0)
                           source name: (none)
00A0FF  08                 line defined (1078)
00A100  BB                 last line defined (1083)
00A101  08                 nups (0)
00A102  00                 numparams (1)
00A103  01                 is_vararg (0)
00A104  00                 maxstacksize (8)
                           * code:
00A106  0F                 sizecode (15)
00A107  64004000           [01] self       1   0   256  ; 1696355553
00A10B  62400001           [02] call       1   2   1  
00A10F  5D400000           [03] getglobal  1   1        ; Engine
00A113  4E80C000           [04] gettable   1   1   258  ; -1802437008
00A117  62808000           [05] call       1   1   2  
fail op	9
00A11B  49008000           [06] settable   1   1   0  
00A11F  0C408081           [07] settable   0   259 1    ; "mAltButtonVisible"
00A123  9D000100           [08] getglobal  2   4        ; mMovie
00A127  A4404101           [09] self       2   2   261  ; -2013161817
00A12B  0E814100           [10] gettable   4   0   262  ; "mClipName"
00A12F  59C10100           [11] loadk      5   7        ; "BtnAlt"
00A133  99010200           [12] loadk      6   8        ; "_visible"
00A137  D2018000           [13] move       7   1      
00A13B  A2400003           [14] call       2   6   1  
00A13F  1E008000           [15] return     0   1      
                           * constants:
00A143  09                 sizek (9)
00A144  01                 const type 3
00A145  E1541C65           const [0]: (1696355553)
00A149  04                 const type 4
00A14A  07                 string size (7)
00A14B  456E67696E6500     "Engine\0"
                           const [1]: "Engine"
00A152  01                 const type 3
00A153  70FE9094           const [2]: (-1802437008)
00A157  04                 const type 4
00A158  12                 string size (18)
00A159  6D416C7442757474+  "mAltButt"
00A161  6F6E56697369626C+  "onVisibl"
00A169  6500               "e\0"
                           const [3]: "mAltButtonVisible"
00A16B  04                 const type 4
00A16C  07                 string size (7)
00A16D  6D4D6F76696500     "mMovie\0"
                           const [4]: "mMovie"
00A174  01                 const type 3
00A175  A7960188           const [5]: (-2013161817)
00A179  04                 const type 4
00A17A  0A                 string size (10)
00A17B  6D436C69704E616D+  "mClipNam"
00A183  6500               "e\0"
                           const [6]: "mClipName"
00A185  04                 const type 4
00A186  07                 string size (7)
00A187  42746E416C7400     "BtnAlt\0"
                           const [7]: "BtnAlt"
00A18E  04                 const type 4
00A18F  09                 string size (9)
00A190  5F76697369626C65+  "_visible"
00A198  00                 "\0"
                           const [8]: "_visible"
                           * functions:
00A199  00                 sizep (0)
                           * lines:
00A19A  0F                 sizelineinfo (15)
                           [pc] (line)
00A19B  37                 [01] (55)
00A19C  04                 [02] (55)
00A19D  00                 [03] (56)
00A19E  00                 [04] (56)
00A19F  37                 [05] (56)
00A1A0  04                 [06] (56)
00A1A1  00                 [07] (57)
00A1A2  00                 [08] (58)
00A1A3  38                 [09] (58)
00A1A4  04                 [10] (58)
00A1A5  00                 [11] (58)
00A1A6  00                 [12] (58)
00A1A7  38                 [13] (58)
00A1A8  04                 [14] (58)
00A1A9  00                 [15] (59)
                           * locals:
00A1D7  00                 sizelocvars (0)
                           * upvalues:
00A1D8  00                 sizeupvalues (0)
                           ** end of function **

                           
00A1D9                     ** function [2] definition (level 3)
                           ** start of function **
00A1D9  00                 string size (0)
                           source name: (none)
00A1DB  08                 line defined (1086)
00A1DC  C1                 last line defined (1089)
00A1DD  08                 nups (0)
00A1DE  00                 numparams (2)
00A1DF  02                 is_vararg (0)
00A1E0  00                 maxstacksize (7)
                           * code:
00A1E2  0A                 sizecode (10)
00A1E3  A4004000           [01] self       2   0   256  ; -2081952751
00A1E7  12018000           [02] move       4   1      
00A1EB  A2408001           [03] call       2   3   1  
00A1EF  9D400000           [04] getglobal  2   1        ; mMovie
00A1F3  A4804001           [05] self       2   2   258  ; 471456102
00A1F7  19C10000           [06] loadk      4   3        ; "ArcaneSelector.Stats"
00A1FB  59010100           [07] loadk      5   4        ; "_visible"
fail op	9
00A1FF  89018000           [08] settable   6   1   0  
00A203  A2408002           [09] call       2   5   1  
00A207  1E008000           [10] return     0   1      
                           * constants:
00A20B  05                 sizek (5)
00A20C  01                 const type 3
00A20D  11ECE783           const [0]: (-2081952751)
00A211  04                 const type 4
00A212  07                 string size (7)
00A213  6D4D6F76696500     "mMovie\0"
                           const [1]: "mMovie"
00A21A  01                 const type 3
00A21B  66D9191C           const [2]: (471456102)
00A21F  04                 const type 4
00A220  15                 string size (21)
00A221  417263616E655365+  "ArcaneSe"
00A229  6C6563746F722E53+  "lector.S"
00A231  7461747300         "tats\0"
                           const [3]: "ArcaneSelector.Stats"
00A236  04                 const type 4
00A237  09                 string size (9)
00A238  5F76697369626C65+  "_visible"
00A240  00                 "\0"
                           const [4]: "_visible"
                           * functions:
00A241  00                 sizep (0)
                           * lines:
00A242  0A                 sizelineinfo (10)
                           [pc] (line)
00A243  3F                 [01] (63)
00A244  04                 [02] (63)
00A245  00                 [03] (63)
00A246  00                 [04] (64)
00A247  3F                 [05] (64)
00A248  04                 [06] (64)
00A249  00                 [07] (64)
00A24A  00                 [08] (64)
00A24B  3F                 [09] (64)
00A24C  04                 [10] (65)
                           * locals:
00A26B  00                 sizelocvars (0)
                           * upvalues:
00A26C  00                 sizeupvalues (0)
                           ** end of function **

                           * lines:
00A26D  43                 sizelineinfo (67)
                           [pc] (line)
00A26E  1A                 [01] (26)
00A26F  04                 [02] (26)
00A270  00                 [03] (26)
00A271  00                 [04] (26)
00A272  1A                 [05] (26)
00A273  04                 [06] (27)
00A274  00                 [07] (27)
00A275  00                 [08] (27)
00A276  1A                 [09] (28)
00A277  04                 [10] (28)
00A278  00                 [11] (28)
00A279  00                 [12] (28)
00A27A  1A                 [13] (28)
00A27B  04                 [14] (28)
00A27C  00                 [15] (28)
00A27D  00                 [16] (29)
00A27E  1A                 [17] (29)
00A27F  04                 [18] (29)
00A280  00                 [19] (29)
00A281  00                 [20] (29)
00A282  1B                 [21] (29)
00A283  04                 [22] (29)
00A284  00                 [23] (29)
00A285  00                 [24] (30)
00A286  1B                 [25] (30)
00A287  04                 [26] (31)
00A288  00                 [27] (31)
00A289  00                 [28] (32)
00A28A  1B                 [29] (32)
00A28B  04                 [30] (33)
00A28C  00                 [31] (33)
00A28D  00                 [32] (33)
00A28E  1C                 [33] (33)
00A28F  04                 [34] (34)
00A290  00                 [35] (34)
00A291  00                 [36] (35)
00A292  1C                 [37] (35)
00A293  04                 [38] (36)
00A294  00                 [39] (36)
00A295  00                 [40] (36)
00A296  1C                 [41] (36)
00A297  04                 [42] (37)
00A298  00                 [43] (51)
00A299  00                 [44] (51)
00A29A  1C                 [45] (51)
00A29B  04                 [46] (52)
00A29C  00                 [47] (52)
00A29D  00                 [48] (52)
00A29E  1C                 [49] (52)
00A29F  04                 [50] (53)
00A2A0  00                 [51] (59)
00A2A1  00                 [52] (59)
00A2A2  1C                 [53] (60)
00A2A3  04                 [54] (60)
00A2A4  00                 [55] (60)
00A2A5  00                 [56] (60)
00A2A6  1C                 [57] (61)
00A2A7  04                 [58] (65)
00A2A8  00                 [59] (65)
00A2A9  00                 [60] (66)
00A2AA  1D                 [61] (66)
00A2AB  04                 [62] (66)
00A2AC  00                 [63] (66)
00A2AD  00                 [64] (67)
00A2AE  1D                 [65] (67)
00A2AF  04                 [66] (67)
00A2B0  00                 [67] (68)
                           * locals:
00A37A  00                 sizelocvars (0)
                           * upvalues:
00A37B  00                 sizeupvalues (0)
                           ** end of function **

                           
00A37C                     ** function [23] definition (level 2)
                           ** start of function **
00A37C  00                 string size (0)
                           source name: (none)
00A37E  08                 line defined (1094)
00A37F  C9                 last line defined (1097)
00A380  08                 nups (0)
00A381  00                 numparams (0)
00A382  00                 is_vararg (0)
00A383  00                 maxstacksize (5)
                           * code:
00A385  0D                 sizecode (13)
00A386  1D000000           [01] getglobal  0   0        ; mMovie
00A38A  24404000           [02] self       0   0   257  ; 471456102
00A38E  99800000           [03] loadk      2   2        ; "ArcaneUpgradeAnim.CopiedRank"
00A392  D9C00000           [04] loadk      3   3        ; "_visible"
00A396  17010000           [05] loadbool   4   0   0    ; false
00A39A  22408002           [06] call       0   5   1  
00A39E  1D000000           [07] getglobal  0   0        ; mMovie
00A3A2  24404000           [08] self       0   0   257  ; 471456102
00A3A6  99000100           [09] loadk      2   4        ; "ArcaneUpgradeAnim.Arcane"
00A3AA  D9C00000           [10] loadk      3   3        ; "_visible"
00A3AE  17010000           [11] loadbool   4   0   0    ; false
00A3B2  22408002           [12] call       0   5   1  
00A3B6  1E008000           [13] return     0   1      
                           * constants:
00A3BA  05                 sizek (5)
00A3BB  04                 const type 4
00A3BC  07                 string size (7)
00A3BD  6D4D6F76696500     "mMovie\0"
                           const [0]: "mMovie"
00A3C4  01                 const type 3
00A3C5  66D9191C           const [1]: (471456102)
00A3C9  04                 const type 4
00A3CA  1D                 string size (29)
00A3CB  417263616E655570+  "ArcaneUp"
00A3D3  6772616465416E69+  "gradeAni"
00A3DB  6D2E436F70696564+  "m.Copied"
00A3E3  52616E6B00         "Rank\0"
                           const [2]: "ArcaneUpgradeAnim.CopiedRank"
00A3E8  04                 const type 4
00A3E9  09                 string size (9)
00A3EA  5F76697369626C65+  "_visible"
00A3F2  00                 "\0"
                           const [3]: "_visible"
00A3F3  04                 const type 4
00A3F4  19                 string size (25)
00A3F5  417263616E655570+  "ArcaneUp"
00A3FD  6772616465416E69+  "gradeAni"
00A405  6D2E417263616E65+  "m.Arcane"
00A40D  00                 "\0"
                           const [4]: "ArcaneUpgradeAnim.Arcane"
                           * functions:
00A40E  00                 sizep (0)
                           * lines:
00A40F  0D                 sizelineinfo (13)
                           [pc] (line)
00A410  47                 [01] (71)
00A411  04                 [02] (71)
00A412  00                 [03] (71)
00A413  00                 [04] (71)
00A414  47                 [05] (71)
00A415  04                 [06] (71)
00A416  00                 [07] (72)
00A417  00                 [08] (72)
00A418  47                 [09] (72)
00A419  04                 [10] (72)
00A41A  00                 [11] (72)
00A41B  00                 [12] (72)
00A41C  47                 [13] (73)
                           * locals:
00A444  00                 sizelocvars (0)
                           * upvalues:
00A445  00                 sizeupvalues (0)
                           ** end of function **

                           
00A446                     ** function [24] definition (level 2)
                           ** start of function **
00A446  00                 string size (0)
                           source name: (none)
00A448  08                 line defined (1099)
00A449  E1                 last line defined (1121)
00A44A  08                 nups (4)
00A44B  04                 numparams (0)
00A44C  00                 is_vararg (0)
00A44D  00                 maxstacksize (8)
                           * code:
00A44F  6F                 sizecode (111)
00A450  1D000000           [001] getglobal  0   0        ; mMovie
00A454  24404000           [002] self       0   0   257  ; 471456102
00A458  99800000           [003] loadk      2   2        ; "ArcaneUpgrader.Hint"
00A45C  D9C00000           [004] loadk      3   3        ; "verticalAlignment"
00A460  19010100           [005] loadk      4   4        ; "center"
00A464  22408002           [006] call       0   5   1  
00A468  1D000000           [007] getglobal  0   0        ; mMovie
00A46C  24404100           [008] self       0   0   261  ; 386043535
00A470  99800100           [009] loadk      2   6        ; "ArcaneUpgrader.Hint.text"
00A474  D9C00100           [010] loadk      3   7        ; "/Lotus/Language/Menu/ArcaneManager_UninstallHint"
00A478  22400002           [011] call       0   4   1  
00A47C  1D000000           [012] getglobal  0   0        ; mMovie
00A480  24404000           [013] self       0   0   257  ; 471456102
00A484  99000200           [014] loadk      2   8        ; "ArcaneUpgrader.UpgradeConfirm"
00A488  D9C00000           [015] loadk      3   3        ; "verticalAlignment"
00A48C  19410200           [016] loadk      4   9        ; "bottom"
00A490  22408002           [017] call       0   5   1  
00A494  1D000000           [018] getglobal  0   0        ; mMovie
00A498  24804200           [019] self       0   0   266  ; 2115970775
00A49C  99C00200           [020] loadk      2   11       ; "ArcaneUpgrader.Bg"
00A4A0  DD000300           [021] getglobal  3   12       ; _G
00A4A4  CE40C301           [022] gettable   3   3   269  ; "UIMaterial_RectangleNoDepth"
00A4A8  22400002           [023] call       0   4   1  
00A4AC  1D000000           [024] getglobal  0   0        ; mMovie
00A4B0  24804300           [025] self       0   0   270  ; 808102703
00A4B4  99C00200           [026] loadk      2   11       ; "ArcaneUpgrader.Bg"
00A4B8  D9C00300           [027] loadk      3   15       ; "RectInnerColor"
00A4BC  1D010300           [028] getglobal  4   12       ; _G
00A4C0  0E014402           [029] gettable   4   4   272  ; "UIColorObject_DarkBlue"
00A4C4  0E414402           [030] gettable   4   4   273  ; "r"
00A4C8  5D010300           [031] getglobal  5   12       ; _G
00A4CC  4E01C402           [032] gettable   5   5   272  ; "UIColorObject_DarkBlue"
00A4D0  4E81C402           [033] gettable   5   5   274  ; "g"
00A4D4  9D010300           [034] getglobal  6   12       ; _G
00A4D8  8E014403           [035] gettable   6   6   272  ; "UIColorObject_DarkBlue"
00A4DC  8EC14403           [036] gettable   6   6   275  ; "b"
00A4E0  D9010500           [037] loadk      7   20       ; -51
00A4E4  22400004           [038] call       0   8   1  
00A4E8  1D000000           [039] getglobal  0   0        ; mMovie
00A4EC  24804300           [040] self       0   0   270  ; 808102703
00A4F0  99C00200           [041] loadk      2   11       ; "ArcaneUpgrader.Bg"
00A4F4  D9400500           [042] loadk      3   21       ; "RectEdgeColor"
00A4F8  1D010300           [043] getglobal  4   12       ; _G
00A4FC  0E814502           [044] gettable   4   4   278  ; "UIColorObject_White"
00A500  0E414402           [045] gettable   4   4   273  ; "r"
00A504  5D010300           [046] getglobal  5   12       ; _G
00A508  4E81C502           [047] gettable   5   5   278  ; "UIColorObject_White"
00A50C  4E81C402           [048] gettable   5   5   274  ; "g"
00A510  9D010300           [049] getglobal  6   12       ; _G
00A514  8E814503           [050] gettable   6   6   278  ; "UIColorObject_White"
00A518  8EC14403           [051] gettable   6   6   275  ; "b"
00A51C  D9C10500           [052] loadk      7   23       ; -51
00A520  22400004           [053] call       0   8   1  
00A524  13008000           [054] getupval   0   1      
00A528  0E004600           [055] gettable   0   0   280  ; 1191123516
00A52C  5D000000           [056] getglobal  1   0        ; mMovie
00A530  99400600           [057] loadk      2   25       ; "ArcaneUpgrader.RankUpBtn"
00A534  D9800600           [058] loadk      3   26       ; "Next Rank (3 Arcanes)"
00A538  19C10600           [059] loadk      4   27       ; "RankUpArcane"
00A53C  59010700           [060] loadk      5   28       ; "<MENU_RTRIGGER1>"
00A540  22800003           [061] call       0   6   2  
fail op	8
00A544  08000000           [062] setupval   0   0      
00A548  13000000           [063] getupval   0   0      
00A54C  24404700           [064] self       0   0   285  ; -333955620
00A550  99800700           [065] loadk      2   30       ; 0
00A554  D9C00700           [066] loadk      3   31       ; 0
00A558  13010001           [067] getupval   4   2      
00A55C  0E014802           [068] gettable   4   4   288  ; "CENTER_ALIGNED"
00A560  22408002           [069] call       0   5   1  
00A564  13000000           [070] getupval   0   0      
00A568  24404800           [071] self       0   0   289  ; 1969010055
00A56C  99000100           [072] loadk      2   4        ; "center"
00A570  22408001           [073] call       0   3   1  
00A574  13000000           [074] getupval   0   0      
00A578  24804800           [075] self       0   0   290  ; 707356569
00A57C  99C00800           [076] loadk      2   35       ; 0
00A580  22408001           [077] call       0   3   1  
00A584  13000000           [078] getupval   0   0      
00A588  24004900           [079] self       0   0   292  ; 1685109492
00A58C  22400001           [080] call       0   2   1  
00A590  13008000           [081] getupval   0   1      
00A594  0E004600           [082] gettable   0   0   280  ; 1191123516
00A598  5D000000           [083] getglobal  1   0        ; mMovie
00A59C  99400900           [084] loadk      2   37       ; "ArcaneUpgrader.UpgradeBtn"
00A5A0  D9800900           [085] loadk      3   38       ; "Upgrade (3 Arcanes)"
00A5A4  19C10900           [086] loadk      4   39       ; "UpgradeArcane"
00A5A8  59010A00           [087] loadk      5   40       ; "<MENU_GENERIC1>"
00A5AC  22800003           [088] call       0   6   2  
fail op	8
00A5B0  08008001           [089] setupval   0   3      
00A5B4  13008001           [090] getupval   0   3      
00A5B8  24404700           [091] self       0   0   285  ; -333955620
00A5BC  99800700           [092] loadk      2   30       ; 0
00A5C0  D9400A00           [093] loadk      3   41       ; 0
00A5C4  13010001           [094] getupval   4   2      
00A5C8  0E014802           [095] gettable   4   4   288  ; "CENTER_ALIGNED"
00A5CC  22408002           [096] call       0   5   1  
00A5D0  13008001           [097] getupval   0   3      
00A5D4  24404800           [098] self       0   0   289  ; 1969010055
00A5D8  99000100           [099] loadk      2   4        ; "center"
00A5DC  22408001           [100] call       0   3   1  
00A5E0  13008001           [101] getupval   0   3      
00A5E4  24804A00           [102] self       0   0   298  ; -1464598297
00A5E8  22400001           [103] call       0   2   1  
00A5EC  13008001           [104] getupval   0   3      
00A5F0  24C04A00           [105] self       0   0   299  ; -2011541260
00A5F4  99000B00           [106] loadk      2   44       ; 0
00A5F8  22408001           [107] call       0   3   1  
00A5FC  13008001           [108] getupval   0   3      
00A600  24004900           [109] self       0   0   292  ; 1685109492
00A604  22400001           [110] call       0   2   1  
00A608  1E008000           [111] return     0   1      
                           * constants:
00A60C  2D                 sizek (45)
00A60D  04                 const type 4
00A60E  07                 string size (7)
00A60F  6D4D6F76696500     "mMovie\0"
                           const [0]: "mMovie"
00A616  01                 const type 3
00A617  66D9191C           const [1]: (471456102)
00A61B  04                 const type 4
00A61C  14                 string size (20)
00A61D  417263616E655570+  "ArcaneUp"
00A625  6772616465722E48+  "grader.H"
00A62D  696E7400           "int\0"
                           const [2]: "ArcaneUpgrader.Hint"
00A631  04                 const type 4
00A632  12                 string size (18)
00A633  766572746963616C+  "vertical"
00A63B  416C69676E6D656E+  "Alignmen"
00A643  7400               "t\0"
                           const [3]: "verticalAlignment"
00A645  04                 const type 4
00A646  07                 string size (7)
00A647  63656E74657200     "center\0"
                           const [4]: "center"
00A64E  01                 const type 3
00A64F  8F8E0217           const [5]: (386043535)
00A653  04                 const type 4
00A654  19                 string size (25)
00A655  417263616E655570+  "ArcaneUp"
00A65D  6772616465722E48+  "grader.H"
00A665  696E742E74657874+  "int.text"
00A66D  00                 "\0"
                           const [6]: "ArcaneUpgrader.Hint.text"
00A66E  04                 const type 4
00A66F  31                 string size (49)
00A670  2F4C6F7475732F4C+  "/Lotus/L"
00A678  616E67756167652F+  "anguage/"
00A680  4D656E752F417263+  "Menu/Arc"
00A688  616E654D616E6167+  "aneManag"
00A690  65725F556E696E73+  "er_Unins"
00A698  74616C6C48696E74+  "tallHint"
00A6A0  00                 "\0"
                           const [7]: "/Lotus/Language/Menu/ArcaneManager_UninstallHint"
00A6A1  04                 const type 4
00A6A2  1E                 string size (30)
00A6A3  417263616E655570+  "ArcaneUp"
00A6AB  6772616465722E55+  "grader.U"
00A6B3  706772616465436F+  "pgradeCo"
00A6BB  6E6669726D00       "nfirm\0"
                           const [8]: "ArcaneUpgrader.UpgradeConfirm"
00A6C1  04                 const type 4
00A6C2  07                 string size (7)
00A6C3  626F74746F6D00     "bottom\0"
                           const [9]: "bottom"
00A6CA  01                 const type 3
00A6CB  D7261F7E           const [10]: (2115970775)
00A6CF  04                 const type 4
00A6D0  12                 string size (18)
00A6D1  417263616E655570+  "ArcaneUp"
00A6D9  6772616465722E42+  "grader.B"
00A6E1  6700               "g\0"
                           const [11]: "ArcaneUpgrader.Bg"
00A6E3  04                 const type 4
00A6E4  03                 string size (3)
00A6E5  5F4700             "_G\0"
                           const [12]: "_G"
00A6E8  04                 const type 4
00A6E9  1C                 string size (28)
00A6EA  55494D6174657269+  "UIMateri"
00A6F2  616C5F5265637461+  "al_Recta"
00A6FA  6E676C654E6F4465+  "ngleNoDe"
00A702  70746800           "pth\0"
                           const [13]: "UIMaterial_RectangleNoDepth"
00A706  01                 const type 3
00A707  2FAB2A30           const [14]: (808102703)
00A70B  04                 const type 4
00A70C  0F                 string size (15)
00A70D  52656374496E6E65+  "RectInne"
00A715  72436F6C6F7200     "rColor\0"
                           const [15]: "RectInnerColor"
00A71C  04                 const type 4
00A71D  17                 string size (23)
00A71E  5549436F6C6F724F+  "UIColorO"
00A726  626A6563745F4461+  "bject_Da"
00A72E  726B426C756500     "rkBlue\0"
                           const [16]: "UIColorObject_DarkBlue"
00A735  04                 const type 4
00A736  02                 string size (2)
00A737  7200               "r\0"
                           const [17]: "r"
00A739  04                 const type 4
00A73A  02                 string size (2)
00A73B  6700               "g\0"
                           const [18]: "g"
00A73D  04                 const type 4
00A73E  02                 string size (2)
00A73F  6200               "b\0"
                           const [19]: "b"
00A741  03                 const type 3
00A742  CDCCCC3D           const [20]: (-51)
00A746  04                 const type 4
00A747  0E                 string size (14)
00A748  5265637445646765+  "RectEdge"
00A750  436F6C6F7200       "Color\0"
                           const [21]: "RectEdgeColor"
00A756  04                 const type 4
00A757  14                 string size (20)
00A758  5549436F6C6F724F+  "UIColorO"
00A760  626A6563745F5768+  "bject_Wh"
00A768  69746500           "ite\0"
                           const [22]: "UIColorObject_White"
00A76C  03                 const type 3
00A76D  CDCC4C3E           const [23]: (-51)
00A771  01                 const type 3
00A772  3C1AFF46           const [24]: (1191123516)
00A776  04                 const type 4
00A777  19                 string size (25)
00A778  417263616E655570+  "ArcaneUp"
00A780  6772616465722E52+  "grader.R"
00A788  616E6B557042746E+  "ankUpBtn"
00A790  00                 "\0"
                           const [25]: "ArcaneUpgrader.RankUpBtn"
00A791  04                 const type 4
00A792  16                 string size (22)
00A793  4E6578742052616E+  "Next Ran"
00A79B  6B20283320417263+  "k (3 Arc"
00A7A3  616E65732900       "anes)\0"
                           const [26]: "Next Rank (3 Arcanes)"
00A7A9  04                 const type 4
00A7AA  0D                 string size (13)
00A7AB  52616E6B55704172+  "RankUpAr"
00A7B3  63616E6500         "cane\0"
                           const [27]: "RankUpArcane"
00A7B8  04                 const type 4
00A7B9  11                 string size (17)
00A7BA  3C4D454E555F5254+  "<MENU_RT"
00A7C2  524947474552313E+  "RIGGER1>"
00A7CA  00                 "\0"
                           const [28]: "<MENU_RTRIGGER1>"
00A7CB  01                 const type 3
00A7CC  DC3D18EC           const [29]: (-333955620)
00A7D0  03                 const type 3
00A7D1  008089C3           const [30]: (0)
00A7D5  03                 const type 3
00A7D6  00800944           const [31]: (0)
00A7DA  04                 const type 4
00A7DB  0F                 string size (15)
00A7DC  43454E5445525F41+  "CENTER_A"
00A7E4  4C49474E454400     "LIGNED\0"
                           const [32]: "CENTER_ALIGNED"
00A7EB  01                 const type 3
00A7EC  87B55C75           const [33]: (1969010055)
00A7F0  01                 const type 3
00A7F1  9967292A           const [34]: (707356569)
00A7F5  03                 const type 3
00A7F6  0000AF43           const [35]: (0)
00A7FA  01                 const type 3
00A7FB  F4BA7064           const [36]: (1685109492)
00A7FF  04                 const type 4
00A800  1A                 string size (26)
00A801  417263616E655570+  "ArcaneUp"
00A809  6772616465722E55+  "grader.U"
00A811  7067726164654274+  "pgradeBt"
00A819  6E00               "n\0"
                           const [37]: "ArcaneUpgrader.UpgradeBtn"
00A81B  04                 const type 4
00A81C  14                 string size (20)
00A81D  5570677261646520+  "Upgrade "
00A825  283320417263616E+  "(3 Arcan"
00A82D  65732900           "es)\0"
                           const [38]: "Upgrade (3 Arcanes)"
00A831  04                 const type 4
00A832  0E                 string size (14)
00A833  5570677261646541+  "UpgradeA"
00A83B  7263616E6500       "rcane\0"
                           const [39]: "UpgradeArcane"
00A841  04                 const type 4
00A842  10                 string size (16)
00A843  3C4D454E555F4745+  "<MENU_GE"
00A84B  4E45524943313E00   "NERIC1>\0"
                           const [40]: "<MENU_GENERIC1>"
00A853  03                 const type 3
00A854  00801444           const [41]: (0)
00A858  01                 const type 3
00A859  E700B4A8           const [42]: (-1464598297)
00A85D  01                 const type 3
00A85E  F4501A88           const [43]: (-2011541260)
00A862  03                 const type 3
00A863  0000E143           const [44]: (0)
                           * functions:
00A867  00                 sizep (0)
                           * lines:
00A868  6F                 sizelineinfo (111)
                           [pc] (line)
00A869  4C                 [001] (76)
00A86A  04                 [002] (76)
00A86B  00                 [003] (76)
00A86C  00                 [004] (76)
00A86D  4C                 [005] (76)
00A86E  04                 [006] (76)
00A86F  00                 [007] (77)
00A870  00                 [008] (77)
00A871  4C                 [009] (77)
00A872  04                 [010] (77)
00A873  00                 [011] (77)
00A874  00                 [012] (79)
00A875  4C                 [013] (79)
00A876  04                 [014] (79)
00A877  00                 [015] (79)
00A878  00                 [016] (79)
00A879  4C                 [017] (79)
00A87A  04                 [018] (81)
00A87B  00                 [019] (81)
00A87C  00                 [020] (81)
00A87D  4C                 [021] (81)
00A87E  04                 [022] (81)
00A87F  00                 [023] (81)
00A880  00                 [024] (82)
00A881  4D                 [025] (82)
00A882  04                 [026] (82)
00A883  00                 [027] (82)
00A884  00                 [028] (82)
00A885  4D                 [029] (82)
00A886  04                 [030] (82)
00A887  00                 [031] (82)
00A888  00                 [032] (82)
00A889  4D                 [033] (82)
00A88A  04                 [034] (82)
00A88B  00                 [035] (82)
00A88C  00                 [036] (82)
00A88D  4D                 [037] (82)
00A88E  04                 [038] (82)
00A88F  00                 [039] (83)
00A890  00                 [040] (83)
00A891  4D                 [041] (83)
00A892  04                 [042] (83)
00A893  00                 [043] (83)
00A894  00                 [044] (83)
00A895  4F                 [045] (83)
00A896  04                 [046] (83)
00A897  00                 [047] (83)
00A898  00                 [048] (83)
00A899  4F                 [049] (83)
00A89A  04                 [050] (83)
00A89B  00                 [051] (83)
00A89C  00                 [052] (83)
00A89D  4F                 [053] (83)
00A89E  04                 [054] (85)
00A89F  00                 [055] (85)
00A8A0  00                 [056] (85)
00A8A1  4F                 [057] (85)
00A8A2  04                 [058] (85)
00A8A3  00                 [059] (85)
00A8A4  00                 [060] (85)
00A8A5  4F                 [061] (85)
00A8A6  04                 [062] (85)
00A8A7  00                 [063] (86)
00A8A8  00                 [064] (86)
00A8A9  4F                 [065] (86)
00A8AA  04                 [066] (86)
00A8AB  00                 [067] (86)
00A8AC  00                 [068] (86)
00A8AD  51                 [069] (86)
00A8AE  04                 [070] (87)
00A8AF  00                 [071] (87)
00A8B0  00                 [072] (87)
00A8B1  51                 [073] (87)
00A8B2  04                 [074] (88)
00A8B3  00                 [075] (88)
00A8B4  00                 [076] (88)
00A8B5  51                 [077] (88)
00A8B6  04                 [078] (89)
00A8B7  00                 [079] (89)
00A8B8  00                 [080] (89)
00A8B9  51                 [081] (91)
00A8BA  04                 [082] (91)
00A8BB  00                 [083] (91)
00A8BC  00                 [084] (91)
00A8BD  51                 [085] (91)
00A8BE  04                 [086] (91)
00A8BF  00                 [087] (91)
00A8C0  00                 [088] (91)
00A8C1  51                 [089] (91)
00A8C2  04                 [090] (92)
00A8C3  00                 [091] (92)
00A8C4  00                 [092] (92)
00A8C5  52                 [093] (92)
00A8C6  04                 [094] (92)
00A8C7  00                 [095] (92)
00A8C8  00                 [096] (92)
00A8C9  52                 [097] (93)
00A8CA  04                 [098] (93)
00A8CB  00                 [099] (93)
00A8CC  00                 [100] (93)
00A8CD  52                 [101] (94)
00A8CE  04                 [102] (94)
00A8CF  00                 [103] (94)
00A8D0  00                 [104] (95)
00A8D1  52                 [105] (95)
00A8D2  04                 [106] (95)
00A8D3  00                 [107] (95)
00A8D4  00                 [108] (96)
00A8D5  52                 [109] (96)
00A8D6  04                 [110] (96)
00A8D7  00                 [111] (97)
                           * locals:
00AA25  00                 sizelocvars (0)
                           * upvalues:
00AA26  00                 sizeupvalues (0)
                           ** end of function **

                           
00AA27                     ** function [25] definition (level 2)
                           ** start of function **
00AA27  00                 string size (0)
                           source name: (none)
00AA29  08                 line defined (1123)
00AA2A  9B                 last line defined (1179)
00AA2B  09                 nups (2)
00AA2C  02                 numparams (0)
00AA2D  00                 is_vararg (0)
00AA2E  00                 maxstacksize (39)
                           * code:
00AA31  01                 sizecode (179)
00AA32  1D000000           [001] getglobal  0   0        ; gGameData
00AA36  24404000           [002] self       0   0   257  ; 1865287165
00AA3A  22800001           [003] call       0   2   2  
00AA3E  64804000           [004] self       1   0   258  ; -744042907
00AA42  62800001           [005] call       1   2   2  
00AA46  A4C04000           [006] self       2   0   259  ; -1473626832
00AA4A  A2800001           [007] call       2   2   2  
00AA4E  E4004100           [008] self       3   0   260  ; 1741768226
00AA52  E2800001           [009] call       3   2   2  
00AA56  0B018001           [010] newtable   4   3   0    ; array=3, hash=0
00AA5A  4BC10000           [011] newtable   5   0   3    ; array=0, hash=3
00AA5E  4C418082           [012] settable   5   261 1    ; "Table"
00AA62  9DC10100           [013] getglobal  6   7        ; Lotus_Game
00AA66  8E014203           [014] gettable   6   6   264  ; "LOT_NORMAL"
00AA6A  4C810183           [015] settable   5   262 6    ; "LoadOutType"
00AA6E  9DC10100           [016] getglobal  6   7        ; Lotus_Game
00AA72  8E814203           [017] gettable   6   6   266  ; "SUIT_SLOT"
00AA76  4C818184           [018] settable   5   265 6    ; "Slot"
00AA7A  8BC10000           [019] newtable   6   0   3    ; array=0, hash=3
00AA7E  8C818082           [020] settable   6   261 2    ; "Table"
00AA82  DDC10100           [021] getglobal  7   7        ; Lotus_Game
00AA86  CE01C203           [022] gettable   7   7   264  ; "LOT_NORMAL"
00AA8A  8CC10183           [023] settable   6   262 7    ; "LoadOutType"
00AA8E  DDC10100           [024] getglobal  7   7        ; Lotus_Game
00AA92  CEC1C203           [025] gettable   7   7   267  ; "MELEE_SLOT"
00AA96  8CC18184           [026] settable   6   265 7    ; "Slot"
00AA9A  CBC10000           [027] newtable   7   0   3    ; array=0, hash=3
00AA9E  CCC18082           [028] settable   7   261 3    ; "Table"
00AAA2  1DC20100           [029] getglobal  8   7        ; Lotus_Game
00AAA6  0E024304           [030] gettable   8   8   268  ; "LOT_OPERATOR"
00AAAA  CC010283           [031] settable   7   262 8    ; "LoadOutType"
00AAAE  1DC20100           [032] getglobal  8   7        ; Lotus_Game
00AAB2  0E424304           [033] gettable   8   8   269  ; "LONG_GUN_SLOT"
00AAB6  CC018284           [034] settable   7   265 8    ; "Slot"
00AABA  1B418001           [035] setlist    4   3   1    ; index 1 to 3
00AABE  59810300           [036] loadk      5   14       ; 0
00AAC2  8A010002           [037] len        6   4      
00AAC6  D9810300           [038] loadk      7   14       ; 0
00AACA  50811580           [039] forprep    5   87       ; to [127]
00AACE  4E020202           [040] gettable   9   4   8  
00AAD2  99820300           [041] loadk      10  14       ; 0
00AAD6  CE42C104           [042] gettable   11  9   261  ; "Table"
00AADA  CA028005           [043] len        11  11     
00AADE  19830300           [044] loadk      12  14       ; 0
00AAE2  90C21380           [045] forprep    10  80       ; to [126]
00AAE6  99830300           [046] loadk      14  14       ; 0
00AAEA  D9C30300           [047] loadk      15  15       ; 0
00AAEE  19840300           [048] loadk      16  14       ; 0
00AAF2  90831280           [049] forprep    14  75       ; to [125]
00AAF6  99040400           [050] loadk      18  16       ; 0
00AAFA  D9C40300           [051] loadk      19  15       ; 0
00AAFE  19850300           [052] loadk      20  14       ; 0
00AB02  90441180           [053] forprep    18  70       ; to [124]
00AB06  8E45C104           [054] gettable   22  9   261  ; "Table"
00AB0A  8E45030B           [055] gettable   22  22  13 
00AB0E  A445440B           [056] self       22  22  273  ; 393943382
00AB12  1206800A           [057] move       24  21     
fail op	35
00AB16  63C0C308           [058] close      1  
00AB1A  1A000080           [059] jmp        1            ; to [61]
00AB1E  57460000           [060] loadbool   25  0   1    ; false, to [62]
00AB22  57068000           [061] loadbool   25  1   0    ; true
00AB26  A2850002           [062] call       22  4   2  
00AB2A  DD850400           [063] getglobal  23  18       ; 1074689893
00AB2E  1206000B           [064] move       24  22     
00AB32  E2850001           [065] call       23  2   2  
00AB36  D8450000           [066] test       23      1    ; to [68] if false
00AB3A  1AC00D80           [067] jmp        56           ; to [124]
00AB3E  D9850300           [068] loadk      23  14       ; 0
00AB42  0A06000B           [069] len        24  22     
00AB46  59860300           [070] loadk      25  14       ; 0
00AB4A  D0850C80           [071] forprep    23  51       ; to [123]
00AB4E  CE86060B           [072] gettable   27  22  26 
00AB52  1D870400           [073] getglobal  28  18       ; 1074689893
00AB56  4EC7C40D           [074] gettable   29  27  275  ; "mType"
00AB5A  22870001           [075] call       28  2   2  
00AB5E  18470000           [076] test       28      1    ; to [78] if false
00AB62  1A000B80           [077] jmp        45           ; to [123]
00AB66  0EC7C40D           [078] gettable   28  27  275  ; "mType"
00AB6A  2407450E           [079] self       28  28  276  ; -1957065004
00AB6E  93070000           [080] getupval   30  0      
00AB72  22878001           [081] call       28  3   2  
00AB76  18070000           [082] test       28      0    ; to [84] if true
00AB7A  1A800980           [083] jmp        39           ; to [123]
00AB7E  0E47C50D           [084] gettable   28  27  277  ; "mId"
00AB82  0E47450E           [085] gettable   28  28  277  ; "mId"
fail op	35
00AB86  2380450E           [086] close      0  
00AB8A  1A800880           [087] jmp        35           ; to [123]
00AB8E  1DC70500           [088] getglobal  28  23       ; -1615931716
00AB92  4EC7C40D           [089] gettable   29  27  275  ; "mType"
00AB96  6407C60E           [090] self       29  29  280  ; 455421500
00AB9A  62070001           [091] call       29  2   0  
00AB9E  22870000           [092] call       28  0   2  
00ABA2  53078000           [093] getupval   29  1      
00ABA6  4E07870E           [094] gettable   29  29  28 
fail op	35
00ABAA  2340C60E           [095] close      0  
00ABAE  1A800080           [096] jmp        3            ; to [100]
00ABB2  53078000           [097] getupval   29  1      
00ABB6  8B070000           [098] newtable   30  0   0    ; array=0, hash=0
00ABBA  4C87070E           [099] settable   29  28  30 
00ABBE  5D870600           [100] getglobal  29  26       ; table
00ABC2  4EC7C60E           [101] gettable   29  29  283  ; -431682403
00ABC6  93078000           [102] getupval   30  1      
00ABCA  8E07070F           [103] gettable   30  30  28 
00ABCE  CBC70100           [104] newtable   31  0   7    ; array=0, hash=7
00ABD2  0E48C104           [105] gettable   32  9   261  ; "Table"
00ABD6  0E480310           [106] gettable   32  32  13 
00ABDA  0E084710           [107] gettable   32  32  284  ; "mItemId"
00ABDE  0E484510           [108] gettable   32  32  277  ; "mId"
00ABE2  CC07888A           [109] settable   31  277 32   ; "mId"
00ABE6  CC87868E           [110] settable   31  285 26   ; "mSlot"
00ABEA  CC47058F           [111] settable   31  286 21   ; "mConfigSlot"
fail op	35
00ABEE  63C0C308           [112] close      1  
00ABF2  1A000080           [113] jmp        1            ; to [115]
00ABF6  17480000           [114] loadbool   32  0   1    ; false, to [116]
00ABFA  17088000           [115] loadbool   32  1   0    ; true
00ABFE  CC07888F           [116] settable   31  287 32   ; "mIsPvp"
00AC02  CC474890           [117] settable   31  288 289  ; "IsOperator" 0
00AC06  0E88C104           [118] gettable   32  9   262  ; "LoadOutType"
00AC0A  CC070883           [119] settable   31  262 32   ; "LoadOutType"
00AC0E  0E48C204           [120] gettable   32  9   265  ; "Slot"
00AC12  CC070891           [121] settable   31  290 32   ; "LoadOutSlot"
00AC16  62478001           [122] call       29  3   1  
00AC1A  D4C5F27F           [123] forloop    23  -52      ; to [72] if loop
00AC1E  9404EE7F           [124] forloop    18  -71      ; to [54] if loop
00AC22  94C3EC7F           [125] forloop    14  -76      ; to [50] if loop
00AC26  9482EB7F           [126] forloop    10  -81      ; to [46] if loop
00AC2A  54C1E97F           [127] forloop    5   -88      ; to [40] if loop
00AC2E  5D070000           [128] getglobal  29  0        ; gGameData
00AC32  64C7C80E           [129] self       29  29  291  ; 51109503
00AC36  62870001           [130] call       29  2   2  
00AC3A  4E07C90E           [131] gettable   29  29  292  ; "mOperatorCustomization"
00AC3E  6447C90E           [132] self       29  29  293  ; -2049652196
00AC42  62870001           [133] call       29  2   2  
00AC46  9D870400           [134] getglobal  30  18       ; 1074689893
00AC4A  D207800E           [135] move       31  29     
00AC4E  A2870001           [136] call       30  2   2  
00AC52  98470000           [137] test       30      1    ; to [139] if false
00AC56  1AC00980           [138] jmp        40           ; to [179]
00AC5A  99870300           [139] loadk      30  14       ; 0
00AC5E  D9C70300           [140] loadk      31  15       ; 0
00AC62  19880300           [141] loadk      32  14       ; 0
00AC66  90870880           [142] forprep    30  35       ; to [178]
00AC6A  8E48880E           [143] gettable   34  29  33 
00AC6E  DD880400           [144] getglobal  35  18       ; 1074689893
00AC72  12090011           [145] move       36  34     
00AC76  E2880001           [146] call       35  2   2  
00AC7A  D8480000           [147] test       35      1    ; to [149] if false
00AC7E  1A000780           [148] jmp        29           ; to [178]
00AC82  DD880400           [149] getglobal  35  18       ; 1074689893
00AC86  0EC94411           [150] gettable   36  34  275  ; "mType"
00AC8A  E2880001           [151] call       35  2   2  
00AC8E  D8480000           [152] test       35      1    ; to [154] if false
00AC92  1AC00580           [153] jmp        24           ; to [178]
00AC96  CE484511           [154] gettable   35  34  277  ; "mId"
00AC9A  CE48C511           [155] gettable   35  35  277  ; "mId"
fail op	35
00AC9E  2380C511           [156] close      0  
00ACA2  1AC00480           [157] jmp        20           ; to [178]
00ACA6  DDC80500           [158] getglobal  35  23       ; -1615931716
00ACAA  0EC94411           [159] gettable   36  34  275  ; "mType"
00ACAE  24094612           [160] self       36  36  280  ; 455421500
00ACB2  22090001           [161] call       36  2   0  
00ACB6  E2880000           [162] call       35  0   2  
00ACBA  13098000           [163] getupval   36  1      
00ACBE  0EC90812           [164] gettable   36  36  35 
fail op	35
00ACC2  23404612           [165] close      0  
00ACC6  1A800080           [166] jmp        3            ; to [170]
00ACCA  13098000           [167] getupval   36  1      
00ACCE  4B090000           [168] newtable   37  0   0    ; array=0, hash=0
00ACD2  0C498911           [169] settable   36  35  37 
00ACD6  1D890600           [170] getglobal  36  26       ; table
00ACDA  0EC94612           [171] gettable   36  36  283  ; -431682403
00ACDE  53098000           [172] getupval   37  1      
00ACE2  4EC98812           [173] gettable   37  37  35 
00ACE6  8B890000           [174] newtable   38  0   2    ; array=0, hash=2
00ACEA  8C894990           [175] settable   38  288 294  ; "IsOperator" 1
00ACEE  8C49888E           [176] settable   38  285 33   ; "mSlot"
00ACF2  22498001           [177] call       36  3   1  
00ACF6  94C7F67F           [178] forloop    30  -36      ; to [143] if loop
00ACFA  1E008000           [179] return     0   1      
                           * constants:
00ACFE  27                 sizek (39)
00ACFF  04                 const type 4
00AD00  0A                 string size (10)
00AD01  6747616D65446174+  "gGameDat"
00AD09  6100               "a\0"
                           const [0]: "gGameData"
00AD0B  01                 const type 3
00AD0C  FD052E6F           const [1]: (1865287165)
00AD10  01                 const type 3
00AD11  65CEA6D3           const [2]: (-744042907)
00AD15  01                 const type 3
00AD16  303D2AA8           const [3]: (-1473626832)
00AD1A  01                 const type 3
00AD1B  2246D167           const [4]: (1741768226)
00AD1F  04                 const type 4
00AD20  06                 string size (6)
00AD21  5461626C6500       "Table\0"
                           const [5]: "Table"
00AD27  04                 const type 4
00AD28  0C                 string size (12)
00AD29  4C6F61644F757454+  "LoadOutT"
00AD31  79706500           "ype\0"
                           const [6]: "LoadOutType"
00AD35  04                 const type 4
00AD36  0B                 string size (11)
00AD37  4C6F7475735F4761+  "Lotus_Ga"
00AD3F  6D6500             "me\0"
                           const [7]: "Lotus_Game"
00AD42  04                 const type 4
00AD43  0B                 string size (11)
00AD44  4C4F545F4E4F524D+  "LOT_NORM"
00AD4C  414C00             "AL\0"
                           const [8]: "LOT_NORMAL"
00AD4F  04                 const type 4
00AD50  05                 string size (5)
00AD51  536C6F7400         "Slot\0"
                           const [9]: "Slot"
00AD56  04                 const type 4
00AD57  0A                 string size (10)
00AD58  535549545F534C4F+  "SUIT_SLO"
00AD60  5400               "T\0"
                           const [10]: "SUIT_SLOT"
00AD62  04                 const type 4
00AD63  0B                 string size (11)
00AD64  4D454C45455F534C+  "MELEE_SL"
00AD6C  4F5400             "OT\0"
                           const [11]: "MELEE_SLOT"
00AD6F  04                 const type 4
00AD70  0D                 string size (13)
00AD71  4C4F545F4F504552+  "LOT_OPER"
00AD79  41544F5200         "ATOR\0"
                           const [12]: "LOT_OPERATOR"
00AD7E  04                 const type 4
00AD7F  0E                 string size (14)
00AD80  4C4F4E475F47554E+  "LONG_GUN"
00AD88  5F534C4F5400       "_SLOT\0"
                           const [13]: "LONG_GUN_SLOT"
00AD8E  03                 const type 3
00AD8F  0000803F           const [14]: (0)
00AD93  03                 const type 3
00AD94  00000040           const [15]: (0)
00AD98  03                 const type 3
00AD99  00000000           const [16]: (0)
00AD9D  01                 const type 3
00AD9E  56197B17           const [17]: (393943382)
00ADA2  01                 const type 3
00ADA3  65770E40           const [18]: (1074689893)
00ADA7  04                 const type 4
00ADA8  06                 string size (6)
00ADA9  6D5479706500       "mType\0"
                           const [19]: "mType"
00ADAF  01                 const type 3
00ADB0  D48E598B           const [20]: (-1957065004)
00ADB4  04                 const type 4
00ADB5  04                 string size (4)
00ADB6  6D496400           "mId\0"
                           const [21]: "mId"
00ADBA  04                 const type 4
00ADBB  01                 string size (0)
                           const [22]: ""
00ADBD  01                 const type 3
00ADBE  BCD6AE9F           const [23]: (-1615931716)
00ADC2  01                 const type 3
00ADC3  3C2E251B           const [24]: (455421500)
00ADC7  00                 const type 0
                           const [25]: nil
00ADC8  04                 const type 4
00ADC9  06                 string size (6)
00ADCA  7461626C6500       "table\0"
                           const [26]: "table"
00ADD0  01                 const type 3
00ADD1  9D0C45E6           const [27]: (-431682403)
00ADD5  04                 const type 4
00ADD6  08                 string size (8)
00ADD7  6D4974656D496400   "mItemId\0"
                           const [28]: "mItemId"
00ADDF  04                 const type 4
00ADE0  06                 string size (6)
00ADE1  6D536C6F7400       "mSlot\0"
                           const [29]: "mSlot"
00ADE7  04                 const type 4
00ADE8  0C                 string size (12)
00ADE9  6D436F6E66696753+  "mConfigS"
00ADF1  6C6F7400           "lot\0"
                           const [30]: "mConfigSlot"
00ADF5  04                 const type 4
00ADF6  07                 string size (7)
00ADF7  6D497350767000     "mIsPvp\0"
                           const [31]: "mIsPvp"
00ADFE  04                 const type 4
00ADFF  0B                 string size (11)
00AE00  49734F7065726174+  "IsOperat"
00AE08  6F7200             "or\0"
                           const [32]: "IsOperator"
00AE0B  01                 const type 3
00AE0C  00000000           const [33]: (0)
00AE10  04                 const type 4
00AE11  0C                 string size (12)
00AE12  4C6F61644F757453+  "LoadOutS"
00AE1A  6C6F7400           "lot\0"
                           const [34]: "LoadOutSlot"
00AE1E  01                 const type 3
00AE1F  7FDE0B03           const [35]: (51109503)
00AE23  04                 const type 4
00AE24  17                 string size (23)
00AE25  6D4F70657261746F+  "mOperato"
00AE2D  72437573746F6D69+  "rCustomi"
00AE35  7A6174696F6E00     "zation\0"
                           const [36]: "mOperatorCustomization"
00AE3C  01                 const type 3
00AE3D  1CCAD485           const [37]: (-2049652196)
00AE41  01                 const type 3
00AE42  01000000           const [38]: (1)
                           * functions:
00AE46  00                 sizep (0)
                           * lines:
00AE48  01                 sizelineinfo (179)
                           [pc] (line)
00AE49  64                 [001] (100)
00AE4A  04                 [002] (100)
00AE4B  00                 [003] (100)
00AE4C  00                 [004] (102)
00AE4D  64                 [005] (102)
00AE4E  04                 [006] (103)
00AE4F  00                 [007] (103)
00AE50  00                 [008] (104)
00AE51  64                 [009] (104)
00AE52  04                 [010] (106)
00AE53  00                 [011] (107)
00AE54  00                 [012] (108)
00AE55  66                 [013] (108)
00AE56  04                 [014] (108)
00AE57  00                 [015] (108)
00AE58  00                 [016] (108)
00AE59  66                 [017] (108)
00AE5A  04                 [018] (108)
00AE5B  00                 [019] (108)
00AE5C  00                 [020] (109)
00AE5D  67                 [021] (109)
00AE5E  04                 [022] (109)
00AE5F  00                 [023] (109)
00AE60  00                 [024] (109)
00AE61  67                 [025] (109)
00AE62  04                 [026] (109)
00AE63  00                 [027] (109)
00AE64  00                 [028] (110)
00AE65  68                 [029] (110)
00AE66  04                 [030] (110)
00AE67  00                 [031] (110)
00AE68  00                 [032] (110)
00AE69  68                 [033] (110)
00AE6A  04                 [034] (110)
00AE6B  00                 [035] (111)
00AE6C  00                 [036] (113)
00AE6D  6A                 [037] (113)
00AE6E  04                 [038] (113)
00AE6F  00                 [039] (113)
00AE70  00                 [040] (114)
00AE71  6B                 [041] (115)
00AE72  04                 [042] (115)
00AE73  00                 [043] (115)
00AE74  00                 [044] (115)
00AE75  6C                 [045] (115)
00AE76  04                 [046] (116)
00AE77  00                 [047] (116)
00AE78  00                 [048] (116)
00AE79  6C                 [049] (116)
00AE7A  04                 [050] (117)
00AE7B  00                 [051] (117)
00AE7C  00                 [052] (117)
00AE7D  6C                 [053] (117)
00AE7E  04                 [054] (118)
00AE7F  00                 [055] (118)
00AE80  00                 [056] (118)
00AE81  6C                 [057] (118)
00AE82  04                 [058] (118)
00AE83  00                 [059] (118)
00AE84  00                 [060] (118)
00AE85  6C                 [061] (118)
00AE86  04                 [062] (118)
00AE87  00                 [063] (119)
00AE88  00                 [064] (119)
00AE89  6C                 [065] (119)
00AE8A  04                 [066] (119)
00AE8B  00                 [067] (119)
00AE8C  00                 [068] (120)
00AE8D  6C                 [069] (120)
00AE8E  04                 [070] (120)
00AE8F  00                 [071] (120)
00AE90  00                 [072] (121)
00AE91  6C                 [073] (123)
00AE92  04                 [074] (123)
00AE93  00                 [075] (123)
00AE94  00                 [076] (123)
00AE95  6D                 [077] (123)
00AE96  04                 [078] (124)
00AE97  00                 [079] (124)
00AE98  00                 [080] (124)
00AE99  6D                 [081] (124)
00AE9A  04                 [082] (124)
00AE9B  00                 [083] (124)
00AE9C  00                 [084] (125)
00AE9D  6D                 [085] (125)
00AE9E  04                 [086] (125)
00AE9F  00                 [087] (125)
00AEA0  00                 [088] (127)
00AEA1  6D                 [089] (127)
00AEA2  04                 [090] (127)
00AEA3  00                 [091] (127)
00AEA4  00                 [092] (127)
00AEA5  6D                 [093] (-128)
00AEA6  04                 [094] (-128)
00AEA7  00                 [095] (-128)
00AEA8  00                 [096] (-128)
00AEA9  6D                 [097] (-127)
00AEAA  04                 [098] (-127)
00AEAB  00                 [099] (-127)
00AEAC  00                 [100] (-124)
00AEAD  6D                 [101] (-124)
00AEAE  04                 [102] (-124)
00AEAF  00                 [103] (-124)
00AEB0  00                 [104] (-124)
00AEB1  6D                 [105] (-124)
00AEB2  04                 [106] (-124)
00AEB3  00                 [107] (-124)
00AEB4  00                 [108] (-124)
00AEB5  6E                 [109] (-124)
00AEB6  04                 [110] (-124)
00AEB7  00                 [111] (-124)
00AEB8  00                 [112] (-124)
00AEB9  6E                 [113] (-124)
00AEBA  04                 [114] (-124)
00AEBB  00                 [115] (-124)
00AEBC  00                 [116] (-124)
00AEBD  6E                 [117] (-124)
00AEBE  04                 [118] (-124)
00AEBF  00                 [119] (-124)
00AEC0  00                 [120] (-124)
00AEC1  6E                 [121] (-124)
00AEC2  04                 [122] (-124)
00AEC3  00                 [123] (120)
00AEC4  00                 [124] (117)
00AEC5  6E                 [125] (116)
00AEC6  04                 [126] (115)
00AEC7  00                 [127] (113)
00AEC8  00                 [128] (-115)
00AEC9  6E                 [129] (-115)
00AECA  04                 [130] (-115)
00AECB  00                 [131] (-115)
00AECC  00                 [132] (-115)
00AECD  6E                 [133] (-115)
00AECE  04                 [134] (-114)
00AECF  00                 [135] (-114)
00AED0  00                 [136] (-114)
00AED1  6F                 [137] (-114)
00AED2  04                 [138] (-114)
00AED3  00                 [139] (-113)
00AED4  00                 [140] (-113)
00AED5  71                 [141] (-113)
00AED6  04                 [142] (-113)
00AED7  00                 [143] (-112)
00AED8  00                 [144] (-111)
00AED9  71                 [145] (-111)
00AEDA  04                 [146] (-111)
00AEDB  00                 [147] (-111)
00AEDC  00                 [148] (-111)
00AEDD  71                 [149] (-111)
00AEDE  04                 [150] (-111)
00AEDF  00                 [151] (-111)
00AEE0  00                 [152] (-111)
00AEE1  71                 [153] (-111)
00AEE2  04                 [154] (-111)
00AEE3  00                 [155] (-111)
00AEE4  00                 [156] (-111)
00AEE5  72                 [157] (-111)
00AEE6  04                 [158] (-110)
00AEE7  00                 [159] (-110)
00AEE8  00                 [160] (-110)
00AEE9  73                 [161] (-110)
00AEEA  04                 [162] (-110)
00AEEB  00                 [163] (-109)
00AEEC  00                 [164] (-109)
00AEED  73                 [165] (-109)
00AEEE  04                 [166] (-109)
00AEEF  00                 [167] (-108)
00AEF0  00                 [168] (-108)
00AEF1  73                 [169] (-108)
00AEF2  04                 [170] (-105)
00AEF3  00                 [171] (-105)
00AEF4  00                 [172] (-105)
00AEF5  73                 [173] (-105)
00AEF6  04                 [174] (-105)
00AEF7  00                 [175] (-105)
00AEF8  00                 [176] (-105)
00AEF9  73                 [177] (-105)
00AEFA  04                 [178] (-113)
00AEFB  00                 [179] (-101)
                           * locals:
00B115  00                 sizelocvars (0)
                           * upvalues:
00B116  00                 sizeupvalues (0)
                           ** end of function **

                           
00B117                     ** function [26] definition (level 2)
                           ** start of function **
00B117  00                 string size (0)
                           source name: (none)
00B119  09                 line defined (1181)
00B11A  A6                 last line defined (1190)
00B11B  09                 nups (1)
00B11C  01                 numparams (1)
00B11D  01                 is_vararg (0)
00B11E  00                 maxstacksize (9)
                           * code:
00B120  1B                 sizecode (27)
00B121  53000000           [01] getupval   1   0      
00B125  8B000000           [02] newtable   2   0   0    ; array=0, hash=0
00B129  4C800080           [03] settable   1   256 2    ; "AttachedUpgrades"
00B12D  59400000           [04] loadk      1   1        ; 0
00B131  8A000000           [05] len        2   0      
00B135  D9400000           [06] loadk      3   1        ; 0
00B139  50400480           [07] forprep    1   18       ; to [26]
00B13D  5D810000           [08] getglobal  5   2        ; Lotus_Game
00B141  4EC1C002           [09] gettable   5   5   259  ; -1445633957
00B145  62818000           [10] call       5   1   2  
00B149  8E010100           [11] gettable   6   0   4  
00B14D  8E414103           [12] gettable   6   6   261  ; "mType"
00B151  4C810182           [13] settable   5   260 6    ; "mItemType"
00B155  9DC10100           [14] getglobal  6   7        ; 1037645723
00B159  CE010100           [15] gettable   7   0   4  
00B15D  CE01C203           [16] gettable   7   7   264  ; "mId"
00B161  CE01C203           [17] gettable   7   7   264  ; "mId"
00B165  A2810001           [18] call       6   2   2  
00B169  4C810183           [19] settable   5   262 6    ; "mItemId"
00B16D  9D410200           [20] getglobal  6   9        ; table
00B171  8E814203           [21] gettable   6   6   266  ; -431682403
00B175  D3010000           [22] getupval   7   0      
00B179  CE01C003           [23] gettable   7   7   256  ; "AttachedUpgrades"
00B17D  12028002           [24] move       8   5      
00B181  A2418001           [25] call       6   3   1  
00B185  5400FB7F           [26] forloop    1   -19      ; to [8] if loop
00B189  1E008000           [27] return     0   1      
                           * constants:
00B18D  0B                 sizek (11)
00B18E  04                 const type 4
00B18F  11                 string size (17)
00B190  4174746163686564+  "Attached"
00B198  5570677261646573+  "Upgrades"
00B1A0  00                 "\0"
                           const [0]: "AttachedUpgrades"
00B1A1  03                 const type 3
00B1A2  0000803F           const [1]: (0)
00B1A6  04                 const type 4
00B1A7  0B                 string size (11)
00B1A8  4C6F7475735F4761+  "Lotus_Ga"
00B1B0  6D6500             "me\0"
                           const [2]: "Lotus_Game"
00B1B3  01                 const type 3
00B1B4  5B60D5A9           const [3]: (-1445633957)
00B1B8  04                 const type 4
00B1B9  0A                 string size (10)
00B1BA  6D4974656D547970+  "mItemTyp"
00B1C2  6500               "e\0"
                           const [4]: "mItemType"
00B1C4  04                 const type 4
00B1C5  06                 string size (6)
00B1C6  6D5479706500       "mType\0"
                           const [5]: "mType"
00B1CC  04                 const type 4
00B1CD  08                 string size (8)
00B1CE  6D4974656D496400   "mItemId\0"
                           const [6]: "mItemId"
00B1D6  01                 const type 3
00B1D7  9B37D93D           const [7]: (1037645723)
00B1DB  04                 const type 4
00B1DC  04                 string size (4)
00B1DD  6D496400           "mId\0"
                           const [8]: "mId"
00B1E1  04                 const type 4
00B1E2  06                 string size (6)
00B1E3  7461626C6500       "table\0"
                           const [9]: "table"
00B1E9  01                 const type 3
00B1EA  9D0C45E6           const [10]: (-431682403)
                           * functions:
00B1EE  00                 sizep (0)
                           * lines:
00B1EF  1B                 sizelineinfo (27)
                           [pc] (line)
00B1F0  9E                 [01] (-98)
00B1F1  04                 [02] (-98)
00B1F2  00                 [03] (-98)
00B1F3  00                 [04] (-97)
00B1F4  9E                 [05] (-97)
00B1F5  04                 [06] (-97)
00B1F6  00                 [07] (-97)
00B1F7  00                 [08] (-96)
00B1F8  9E                 [09] (-96)
00B1F9  04                 [10] (-96)
00B1FA  00                 [11] (-95)
00B1FB  00                 [12] (-95)
00B1FC  9F                 [13] (-95)
00B1FD  04                 [14] (-94)
00B1FE  00                 [15] (-94)
00B1FF  00                 [16] (-94)
00B200  9F                 [17] (-94)
00B201  04                 [18] (-94)
00B202  00                 [19] (-94)
00B203  00                 [20] (-92)
00B204  9F                 [21] (-92)
00B205  04                 [22] (-92)
00B206  00                 [23] (-92)
00B207  00                 [24] (-92)
00B208  9F                 [25] (-92)
00B209  04                 [26] (-97)
00B20A  00                 [27] (-90)
                           * locals:
00B25C  00                 sizelocvars (0)
                           * upvalues:
00B25D  00                 sizeupvalues (0)
                           ** end of function **

                           
00B25E                     ** function [27] definition (level 2)
                           ** start of function **
00B25E  00                 string size (0)
                           source name: (none)
00B260  09                 line defined (1192)
00B261  BF                 last line defined (1215)
00B262  09                 nups (1)
00B263  01                 numparams (0)
00B264  00                 is_vararg (0)
00B265  00                 maxstacksize (6)
                           * code:
00B267  3A                 sizecode (58)
00B268  1D000000           [01] getglobal  0   0        ; _T
00B26C  0C80C080           [02] settable   0   257 258  ; "InfoPopup_Data" nil
00B270  1DC00000           [03] getglobal  0   3        ; 1074689893
00B274  5D000000           [04] getglobal  1   0        ; _T
00B278  4E00C100           [05] gettable   1   1   260  ; "HideBackground"
00B27C  22800001           [06] call       0   2   2  
00B280  18400000           [07] test       0       1    ; to [9] if false
00B284  1A800080           [08] jmp        3            ; to [12]
00B288  1D000000           [09] getglobal  0   0        ; _T
00B28C  0E404100           [10] gettable   0   0   261  ; -1873712487
00B290  22408000           [11] call       0   1   1  
00B294  1DC00000           [12] getglobal  0   3        ; 1074689893
00B298  5D000000           [13] getglobal  1   0        ; _T
00B29C  4E80C100           [14] gettable   1   1   262  ; "ArcaneManagerAvatar"
00B2A0  22800001           [15] call       0   2   2  
00B2A4  18400000           [16] test       0       1    ; to [18] if false
00B2A8  1A000180           [17] jmp        5            ; to [23]
00B2AC  1D000000           [18] getglobal  0   0        ; _T
00B2B0  0E804100           [19] gettable   0   0   262  ; "ArcaneManagerAvatar"
00B2B4  24C04100           [20] self       0   0   263  ; 2109594123
00B2B8  97008000           [21] loadbool   2   1   0    ; true
00B2BC  22408001           [22] call       0   3   1  
00B2C0  1DC00000           [23] getglobal  0   3        ; 1074689893
00B2C4  53000000           [24] getupval   1   0      
00B2C8  22800001           [25] call       0   2   2  
00B2CC  18400000           [26] test       0       1    ; to [28] if false
00B2D0  1A000580           [27] jmp        21           ; to [49]
00B2D4  1DC00000           [28] getglobal  0   3        ; 1074689893
00B2D8  5D000200           [29] getglobal  1   8        ; gGameData
00B2DC  22800001           [30] call       0   2   2  
00B2E0  18400000           [31] test       0       1    ; to [33] if false
00B2E4  1AC00380           [32] jmp        16           ; to [49]
00B2E8  13000000           [33] getupval   0   0      
00B2EC  24404200           [34] self       0   0   265  ; -792301503
00B2F0  22800001           [35] call       0   2   2  
00B2F4  5DC00000           [36] getglobal  1   3        ; 1074689893
00B2F8  92000000           [37] move       2   0      
00B2FC  62800001           [38] call       1   2   2  
00B300  58400000           [39] test       1       1    ; to [41] if false
00B304  1AC00180           [40] jmp        8            ; to [49]
00B308  5D800200           [41] getglobal  1   10       ; mMovie
00B30C  64C0C200           [42] self       1   1   267  ; -2061838267
00B310  62800001           [43] call       1   2   2  
00B314  9D000200           [44] getglobal  2   8        ; gGameData
00B318  A4004301           [45] self       2   2   268  ; 234523854
00B31C  12018000           [46] move       4   1      
00B320  52010000           [47] move       5   0      
00B324  A2400002           [48] call       2   4   1  
00B328  9DC00000           [49] getglobal  2   3        ; 1074689893
00B32C  DD000000           [50] getglobal  3   0        ; _T
00B330  CE40C301           [51] gettable   3   3   269  ; "SetSquadOverlayTitle"
00B334  A2800001           [52] call       2   2   2  
00B338  98400000           [53] test       2       1    ; to [55] if false
00B33C  1A800080           [54] jmp        3            ; to [58]
00B340  9D000000           [55] getglobal  2   0        ; _T
00B344  8E804301           [56] gettable   2   2   270  ; 1453523133
00B348  A2408000           [57] call       2   1   1  
00B34C  1E008000           [58] return     0   1      
                           * constants:
00B350  0F                 sizek (15)
00B351  04                 const type 4
00B352  03                 string size (3)
00B353  5F5400             "_T\0"
                           const [0]: "_T"
00B356  04                 const type 4
00B357  0F                 string size (15)
00B358  496E666F506F7075+  "InfoPopu"
00B360  705F4461746100     "p_Data\0"
                           const [1]: "InfoPopup_Data"
00B367  00                 const type 0
                           const [2]: nil
00B368  01                 const type 3
00B369  65770E40           const [3]: (1074689893)
00B36D  04                 const type 4
00B36E  0F                 string size (15)
00B36F  486964654261636B+  "HideBack"
00B377  67726F756E6400     "ground\0"
                           const [4]: "HideBackground"
00B37E  01                 const type 3
00B37F  996A5190           const [5]: (-1873712487)
00B383  04                 const type 4
00B384  14                 string size (20)
00B385  417263616E654D61+  "ArcaneMa"
00B38D  6E61676572417661+  "nagerAva"
00B395  74617200           "tar\0"
                           const [6]: "ArcaneManagerAvatar"
00B399  01                 const type 3
00B39A  0BDABD7D           const [7]: (2109594123)
00B39E  04                 const type 4
00B39F  0A                 string size (10)
00B3A0  6747616D65446174+  "gGameDat"
00B3A8  6100               "a\0"
                           const [8]: "gGameData"
00B3AA  01                 const type 3
00B3AB  4170C6D0           const [9]: (-792301503)
00B3AF  04                 const type 4
00B3B0  07                 string size (7)
00B3B1  6D4D6F76696500     "mMovie\0"
                           const [10]: "mMovie"
00B3B8  01                 const type 3
00B3B9  45D81A85           const [11]: (-2061838267)
00B3BD  01                 const type 3
00B3BE  CE8CFA0D           const [12]: (234523854)
00B3C2  04                 const type 4
00B3C3  15                 string size (21)
00B3C4  5365745371756164+  "SetSquad"
00B3CC  4F7665726C617954+  "OverlayT"
00B3D4  69746C6500         "itle\0"
                           const [13]: "SetSquadOverlayTitle"
00B3D9  01                 const type 3
00B3DA  BD00A356           const [14]: (1453523133)
                           * functions:
00B3DE  00                 sizep (0)
                           * lines:
00B3DF  3A                 sizelineinfo (58)
                           [pc] (line)
00B3E0  A9                 [01] (-87)
00B3E1  04                 [02] (-87)
00B3E2  00                 [03] (-85)
00B3E3  00                 [04] (-85)
00B3E4  A9                 [05] (-85)
00B3E5  04                 [06] (-85)
00B3E6  00                 [07] (-85)
00B3E7  00                 [08] (-85)
00B3E8  AB                 [09] (-84)
00B3E9  04                 [10] (-84)
00B3EA  00                 [11] (-84)
00B3EB  00                 [12] (-81)
00B3EC  AB                 [13] (-81)
00B3ED  04                 [14] (-81)
00B3EE  00                 [15] (-81)
00B3EF  00                 [16] (-81)
00B3F0  AB                 [17] (-81)
00B3F1  04                 [18] (-79)
00B3F2  00                 [19] (-79)
00B3F3  00                 [20] (-79)
00B3F4  AB                 [21] (-79)
00B3F5  04                 [22] (-79)
00B3F6  00                 [23] (-76)
00B3F7  00                 [24] (-76)
00B3F8  AB                 [25] (-76)
00B3F9  04                 [26] (-76)
00B3FA  00                 [27] (-76)
00B3FB  00                 [28] (-76)
00B3FC  AB                 [29] (-76)
00B3FD  04                 [30] (-76)
00B3FE  00                 [31] (-76)
00B3FF  00                 [32] (-76)
00B400  AC                 [33] (-75)
00B401  04                 [34] (-75)
00B402  00                 [35] (-75)
00B403  00                 [36] (-74)
00B404  AC                 [37] (-74)
00B405  04                 [38] (-74)
00B406  00                 [39] (-74)
00B407  00                 [40] (-74)
00B408  AC                 [41] (-73)
00B409  04                 [42] (-73)
00B40A  00                 [43] (-73)
00B40B  00                 [44] (-72)
00B40C  AF                 [45] (-72)
00B40D  04                 [46] (-72)
00B40E  00                 [47] (-72)
00B40F  00                 [48] (-72)
00B410  AF                 [49] (-68)
00B411  04                 [50] (-68)
00B412  00                 [51] (-68)
00B413  00                 [52] (-68)
00B414  AF                 [53] (-68)
00B415  04                 [54] (-68)
00B416  00                 [55] (-67)
00B417  00                 [56] (-67)
00B418  AF                 [57] (-67)
00B419  04                 [58] (-65)
                           * locals:
00B4C8  00                 sizelocvars (0)
                           * upvalues:
00B4C9  00                 sizeupvalues (0)
                           ** end of function **

                           
00B4CA                     ** function [28] definition (level 2)
                           ** start of function **
00B4CA  00                 string size (0)
                           source name: (none)
00B4CC  09                 line defined (1217)
00B4CD  9D                 last line defined (1309)
00B4CE  0A                 nups (15)
00B4CF  0F                 numparams (0)
00B4D0  00                 is_vararg (0)
00B4D1  00                 maxstacksize (10)
                           * code:
00B4D4  02                 sizecode (378)
00B4D5  1D000000           [001] getglobal  0   0        ; -1939558487
00B4D9  5D400000           [002] getglobal  1   1        ; mMovie
00B4DD  99800000           [003] loadk      2   2        ; "ArcaneUpgradeAnim.Arcane.Loom.gotoAndStop"
00B4E1  D9C00000           [004] loadk      3   3        ; 0
00B4E5  22400002           [005] call       0   4   1  
00B4E9  1D000100           [006] getglobal  0   4        ; 1074689893
00B4ED  5D400100           [007] getglobal  1   5        ; _T
00B4F1  4E80C100           [008] gettable   1   1   262  ; "ShowBackground"
00B4F5  22800001           [009] call       0   2   2  
00B4F9  18400000           [010] test       0       1    ; to [12] if false
00B4FD  1A400180           [011] jmp        6            ; to [18]
00B501  1D400100           [012] getglobal  0   5        ; _T
00B505  0EC04100           [013] gettable   0   0   263  ; 398318646
00B509  59000200           [014] loadk      1   8        ; 0
00B50D  86000001           [015] loadnil    2   2      
00B511  D7000000           [016] loadbool   3   0   0    ; false
00B515  22400002           [017] call       0   4   1  
00B519  1D400200           [018] getglobal  0   9        ; gRegion
00B51D  24804200           [019] self       0   0   266  ; 925677844
00B521  22800001           [020] call       0   2   2  
00B525  46008000           [021] loadnil    1   1      
00B529  9D000100           [022] getglobal  2   4        ; 1074689893
00B52D  D2000000           [023] move       3   0      
00B531  A2800001           [024] call       2   2   2  
00B535  98400000           [025] test       2       1    ; to [27] if false
00B539  1A800480           [026] jmp        19           ; to [46]
00B53D  9D400100           [027] getglobal  2   5        ; _T
00B541  8EC04201           [028] gettable   2   2   267  ; "MenuSuitAvatar"
fail op	5
00B545  45400001           [029] getglobal  1   1025     ; nil
00B549  1A800080           [030] jmp        3            ; to [34]
00B54D  A4004300           [031] self       2   0   268  ; -2135866365
00B551  A2800001           [032] call       2   2   2  
00B555  52000001           [033] move       1   2      
00B559  9D000100           [034] getglobal  2   4        ; 1074689893
00B55D  D2008000           [035] move       3   1      
00B561  A2800001           [036] call       2   2   2  
00B565  98400000           [037] test       2       1    ; to [39] if false
00B569  1A800180           [038] jmp        7            ; to [46]
00B56D  A440C300           [039] self       2   1   269  ; -1944400657
00B571  A2800001           [040] call       2   2   2  
00B575  98400000           [041] test       2       1    ; to [43] if false
00B579  1A800080           [042] jmp        3            ; to [46]
00B57D  A4804300           [043] self       2   0   270  ; -1888201767
00B581  A2800001           [044] call       2   2   2  
00B585  52000001           [045] move       1   2      
00B589  9D000100           [046] getglobal  2   4        ; 1074689893
00B58D  D2008000           [047] move       3   1      
00B591  A2800001           [048] call       2   2   2  
00B595  98400000           [049] test       2       1    ; to [51] if false
00B599  1A000280           [050] jmp        9            ; to [60]
00B59D  A440C300           [051] self       2   1   269  ; -1944400657
00B5A1  A2800001           [052] call       2   2   2  
00B5A5  98000000           [053] test       2       0    ; to [55] if true
00B5A9  1A000180           [054] jmp        5            ; to [60]
00B5AD  A4C0C300           [055] self       2   1   271  ; 2109594123
00B5B1  17010000           [056] loadbool   4   0   0    ; false
00B5B5  A2408001           [057] call       2   3   1  
00B5B9  9D400100           [058] getglobal  2   5        ; _T
00B5BD  8C400088           [059] settable   2   272 1    ; "ArcaneManagerAvatar"
00B5C1  9D400100           [060] getglobal  2   5        ; _T
00B5C5  8E404401           [061] gettable   2   2   273  ; "ArcaneEquipInfo"
fail op	35
00B5C9  63804401           [062] close      1  
00B5CD  1A801980           [063] jmp        103          ; to [167]
00B5D1  93000000           [064] getupval   2   0      
00B5D5  8C00C589           [065] settable   2   275 276  ; "Active" 1
00B5D9  93000000           [066] getupval   2   0      
00B5DD  DD400100           [067] getglobal  3   5        ; _T
00B5E1  CE40C401           [068] gettable   3   3   273  ; "ArcaneEquipInfo"
00B5E5  CE40C501           [069] gettable   3   3   277  ; "Callback"
00B5E9  8CC0808A           [070] settable   2   277 3    ; "Callback"
00B5ED  93000000           [071] getupval   2   0      
00B5F1  DD400100           [072] getglobal  3   5        ; _T
00B5F5  CE40C401           [073] gettable   3   3   273  ; "ArcaneEquipInfo"
00B5F9  CE80C501           [074] gettable   3   3   278  ; "Weapon"
00B5FD  8CC0008B           [075] settable   2   278 3    ; "Weapon"
00B601  93000000           [076] getupval   2   0      
00B605  DD400100           [077] getglobal  3   5        ; _T
00B609  CE40C401           [078] gettable   3   3   273  ; "ArcaneEquipInfo"
00B60D  CEC0C501           [079] gettable   3   3   279  ; "Item"
00B611  8CC0808B           [080] settable   2   279 3    ; "Item"
00B615  93000000           [081] getupval   2   0      
00B619  DD400100           [082] getglobal  3   5        ; _T
00B61D  CE40C401           [083] gettable   3   3   273  ; "ArcaneEquipInfo"
00B621  CE00C601           [084] gettable   3   3   280  ; "StoreItem"
00B625  8CC0008C           [085] settable   2   280 3    ; "StoreItem"
00B629  93000000           [086] getupval   2   0      
00B62D  DD400100           [087] getglobal  3   5        ; _T
00B631  CE40C401           [088] gettable   3   3   273  ; "ArcaneEquipInfo"
00B635  CE40C601           [089] gettable   3   3   281  ; "Slot"
00B639  8CC0808C           [090] settable   2   281 3    ; "Slot"
00B63D  93000000           [091] getupval   2   0      
00B641  DD400100           [092] getglobal  3   5        ; _T
00B645  CE40C401           [093] gettable   3   3   273  ; "ArcaneEquipInfo"
00B649  CE80C601           [094] gettable   3   3   282  ; "ConfigSlot"
00B64D  8CC0008D           [095] settable   2   282 3    ; "ConfigSlot"
00B651  9D000100           [096] getglobal  2   4        ; 1074689893
00B655  DD400100           [097] getglobal  3   5        ; _T
00B659  CE40C401           [098] gettable   3   3   273  ; "ArcaneEquipInfo"
00B65D  CEC0C601           [099] gettable   3   3   283  ; "Upgrades"
00B661  A2800001           [100] call       2   2   2  
00B665  98400000           [101] test       2       1    ; to [103] if false
00B669  1AC00180           [102] jmp        8            ; to [111]
00B66D  93000000           [103] getupval   2   0      
00B671  8C00458E           [104] settable   2   284 276  ; "IsOperator" 1
00B675  93008000           [105] getupval   2   1      
00B679  DD400100           [106] getglobal  3   5        ; _T
00B67D  CE40C401           [107] gettable   3   3   273  ; "ArcaneEquipInfo"
00B681  CEC0C601           [108] gettable   3   3   283  ; "Upgrades"
00B685  A2400001           [109] call       2   2   1  
00B689  1A400880           [110] jmp        34           ; to [145]
00B68D  9D000100           [111] getglobal  2   4        ; 1074689893
00B691  DD400100           [112] getglobal  3   5        ; _T
00B695  CE40C401           [113] gettable   3   3   273  ; "ArcaneEquipInfo"
00B699  CEC0C501           [114] gettable   3   3   279  ; "Item"
00B69D  A2800001           [115] call       2   2   2  
00B6A1  98400000           [116] test       2       1    ; to [118] if false
00B6A5  1A800680           [117] jmp        27           ; to [145]
00B6A9  9D400700           [118] getglobal  2   29       ; gGameData
00B6AD  A4804701           [119] self       2   2   286  ; 1865287165
00B6B1  A2800001           [120] call       2   2   2  
00B6B5  DD000100           [121] getglobal  3   4        ; 1074689893
00B6B9  12010001           [122] move       4   2      
00B6BD  E2800001           [123] call       3   2   2  
00B6C1  D8400000           [124] test       3       1    ; to [126] if false
00B6C5  1A800480           [125] jmp        19           ; to [145]
00B6C9  D3000000           [126] getupval   3   0      
00B6CD  24014801           [127] self       4   2   288  ; 393943382
00B6D1  93010000           [128] getupval   6   0      
00B6D5  8EC14503           [129] gettable   6   6   279  ; "Item"
00B6D9  8E414803           [130] gettable   6   6   289  ; "mItemId"
00B6DD  8E814803           [131] gettable   6   6   290  ; "mId"
00B6E1  DD410100           [132] getglobal  7   5        ; _T
00B6E5  CE41C403           [133] gettable   7   7   273  ; "ArcaneEquipInfo"
00B6E9  CE81C603           [134] gettable   7   7   282  ; "ConfigSlot"
00B6ED  1D420100           [135] getglobal  8   5        ; _T
00B6F1  0EC24804           [136] gettable   8   8   291  ; "ArsenalState"
00B6F5  5D020900           [137] getglobal  9   36       ; Lotus_Game
00B6F9  4E42C904           [138] gettable   9   9   293  ; "ARSENAL_STATE_PVP"
fail op	35
00B6FD  63400204           [139] close      1  
00B701  1A000080           [140] jmp        1            ; to [142]
00B705  17420000           [141] loadbool   8   0   1    ; false, to [143]
00B709  17028000           [142] loadbool   8   1   0    ; true
00B70D  22818002           [143] call       4   5   2  
00B711  CC00818F           [144] settable   3   287 4    ; "AttachedUpgrades"
00B715  DD400100           [145] getglobal  3   5        ; _T
00B719  CC80C488           [146] settable   3   273 274  ; "ArcaneEquipInfo" nil
00B71D  DD000100           [147] getglobal  3   4        ; 1074689893
00B721  1D410100           [148] getglobal  4   5        ; _T
00B725  0E814902           [149] gettable   4   4   294  ; "SetSquadOverlayTitle"
00B729  E2800001           [150] call       3   2   2  
00B72D  D8400000           [151] test       3       1    ; to [153] if false
00B731  1A000880           [152] jmp        33           ; to [186]
00B735  DD400100           [153] getglobal  3   5        ; _T
00B739  CEC0C901           [154] gettable   3   3   295  ; 1453523133
00B73D  1D410000           [155] getglobal  4   1        ; mMovie
00B741  24014A02           [156] self       4   4   296  ; 98241492
00B745  99410A00           [157] loadk      6   41       ; "/Lotus/Language/Menu/Loadout_Upgrades"
00B749  D7010000           [158] loadbool   7   0   0    ; false
00B74D  22810002           [159] call       4   4   2  
00B751  5D410000           [160] getglobal  5   1        ; mMovie
00B755  6401CA02           [161] self       5   5   296  ; 98241492
00B759  D9810A00           [162] loadk      7   42       ; "/Lotus/Language/Menu/FoundryEnhancements"
00B75D  17020000           [163] loadbool   8   0   0    ; false
00B761  62010002           [164] call       5   4   0  
00B765  E2400000           [165] call       3   0   1  
00B769  1A800480           [166] jmp        19           ; to [186]
00B76D  DD000100           [167] getglobal  3   4        ; 1074689893
00B771  1D410100           [168] getglobal  4   5        ; _T
00B775  0E814902           [169] gettable   4   4   294  ; "SetSquadOverlayTitle"
00B779  E2800001           [170] call       3   2   2  
00B77D  D8400000           [171] test       3       1    ; to [173] if false
00B781  1A000380           [172] jmp        13           ; to [186]
00B785  DD400100           [173] getglobal  3   5        ; _T
00B789  CEC0C901           [174] gettable   3   3   295  ; 1453523133
00B78D  1D410000           [175] getglobal  4   1        ; mMovie
00B791  24014A02           [176] self       4   4   296  ; 98241492
00B795  99C10A00           [177] loadk      6   43       ; "/Lotus/Language/Menu/MenuFoundry"
00B799  D7010000           [178] loadbool   7   0   0    ; false
00B79D  22810002           [179] call       4   4   2  
00B7A1  5D410000           [180] getglobal  5   1        ; mMovie
00B7A5  6401CA02           [181] self       5   5   296  ; 98241492
00B7A9  D9810A00           [182] loadk      7   42       ; "/Lotus/Language/Menu/FoundryEnhancements"
00B7AD  17020000           [183] loadbool   8   0   0    ; false
00B7B1  62010002           [184] call       5   4   0  
00B7B5  E2400000           [185] call       3   0   1  
00B7B9  D3008001           [186] getupval   3   3      
00B7BD  CE00CB01           [187] gettable   3   3   300  ; 1191123516
00B7C1  1D410000           [188] getglobal  4   1        ; mMovie
00B7C5  E2800001           [189] call       3   2   2  
fail op	8
00B7C9  C8000001           [190] setupval   3   2      
00B7CD  D3000001           [191] getupval   3   2      
00B7D1  E440CB01           [192] self       3   3   301  ; -1716902634
00B7D5  5D410000           [193] getglobal  5   1        ; mMovie
00B7D9  99810B00           [194] loadk      6   46       ; "ArcaneSelector"
00B7DD  CB010001           [195] newtable   7   2   0    ; array=2, hash=0
00B7E1  13020001           [196] getupval   8   2      
00B7E5  0EC24B04           [197] gettable   8   8   303  ; "ANCHOR_V_TOP"
00B7E9  53020001           [198] getupval   9   2      
00B7ED  4E02CC04           [199] gettable   9   9   304  ; "ANCHOR_H_LEFT"
00B7F1  DB410001           [200] setlist    7   2   1    ; index 1 to 2
00B7F5  E2408002           [201] call       3   5   1  
00B7F9  D3000001           [202] getupval   3   2      
00B7FD  E440CB01           [203] self       3   3   301  ; -1716902634
00B801  5D410000           [204] getglobal  5   1        ; mMovie
00B805  99410C00           [205] loadk      6   49       ; "ArcaneUpgrader"
00B809  CB010001           [206] newtable   7   2   0    ; array=2, hash=0
00B80D  13020001           [207] getupval   8   2      
00B811  0EC24B04           [208] gettable   8   8   303  ; "ANCHOR_V_TOP"
00B815  53020001           [209] getupval   9   2      
00B819  4E82CC04           [210] gettable   9   9   306  ; "ANCHOR_H_RIGHT"
00B81D  DB410001           [211] setlist    7   2   1    ; index 1 to 2
00B821  E2408002           [212] call       3   5   1  
00B825  D3000001           [213] getupval   3   2      
00B829  E440CB01           [214] self       3   3   301  ; -1716902634
00B82D  5D410000           [215] getglobal  5   1        ; mMovie
00B831  99C10C00           [216] loadk      6   51       ; "ArcaneUpgradeAnim"
00B835  CB010001           [217] newtable   7   2   0    ; array=2, hash=0
00B839  13020001           [218] getupval   8   2      
00B83D  0EC24B04           [219] gettable   8   8   303  ; "ANCHOR_V_TOP"
00B841  53020001           [220] getupval   9   2      
00B845  4E82CC04           [221] gettable   9   9   306  ; "ANCHOR_H_RIGHT"
00B849  DB410001           [222] setlist    7   2   1    ; index 1 to 2
00B84D  E2408002           [223] call       3   5   1  
00B851  D3000001           [224] getupval   3   2      
00B855  E440CB01           [225] self       3   3   301  ; -1716902634
00B859  5D410000           [226] getglobal  5   1        ; mMovie
00B85D  99010D00           [227] loadk      6   52       ; "Blurer"
00B861  CB010001           [228] newtable   7   2   0    ; array=2, hash=0
00B865  13020001           [229] getupval   8   2      
00B869  0EC24B04           [230] gettable   8   8   303  ; "ANCHOR_V_TOP"
00B86D  53020001           [231] getupval   9   2      
00B871  4E82CC04           [232] gettable   9   9   306  ; "ANCHOR_H_RIGHT"
00B875  DB410001           [233] setlist    7   2   1    ; index 1 to 2
00B879  E2408002           [234] call       3   5   1  
00B87D  D3000001           [235] getupval   3   2      
00B881  E440CB01           [236] self       3   3   301  ; -1716902634
00B885  5D410000           [237] getglobal  5   1        ; mMovie
00B889  99410D00           [238] loadk      6   53       ; "GridBounds"
00B88D  CB010001           [239] newtable   7   2   0    ; array=2, hash=0
00B891  13020001           [240] getupval   8   2      
00B895  0E824D04           [241] gettable   8   8   310  ; "ANCHOR_V_BOTTOM"
00B899  53020001           [242] getupval   9   2      
00B89D  4E82CC04           [243] gettable   9   9   306  ; "ANCHOR_H_RIGHT"
00B8A1  DB410001           [244] setlist    7   2   1    ; index 1 to 2
00B8A5  E2408002           [245] call       3   5   1  
00B8A9  DD400000           [246] getglobal  3   1        ; mMovie
00B8AD  E4C0CD01           [247] self       3   3   311  ; 471456102
00B8B1  59410D00           [248] loadk      5   53       ; "GridBounds"
00B8B5  99010E00           [249] loadk      6   56       ; "_visible"
00B8B9  D7010000           [250] loadbool   7   0   0    ; false
00B8BD  E2408002           [251] call       3   5   1  
00B8C1  DD400000           [252] getglobal  3   1        ; mMovie
00B8C5  E440CE01           [253] self       3   3   313  ; 2115970775
00B8C9  59810E00           [254] loadk      5   58       ; "ArcaneUpgrader.Loom.Left.SingleLoom01"
00B8CD  9DC10E00           [255] getglobal  6   59       ; _G
00B8D1  8E014F03           [256] gettable   6   6   316  ; "UIMaterial_VitruvianLines"
00B8D5  E2400002           [257] call       3   4   1  
00B8D9  DD400000           [258] getglobal  3   1        ; mMovie
00B8DD  E440CE01           [259] self       3   3   313  ; 2115970775
00B8E1  59410F00           [260] loadk      5   61       ; "ArcaneUpgrader.Loom.Left.SingleLoom02"
00B8E5  9DC10E00           [261] getglobal  6   59       ; _G
00B8E9  8E014F03           [262] gettable   6   6   316  ; "UIMaterial_VitruvianLines"
00B8ED  E2400002           [263] call       3   4   1  
00B8F1  DD400000           [264] getglobal  3   1        ; mMovie
00B8F5  E440CE01           [265] self       3   3   313  ; 2115970775
00B8F9  59810F00           [266] loadk      5   62       ; "ArcaneUpgrader.Loom.Left.SingleLoom03"
00B8FD  9DC10E00           [267] getglobal  6   59       ; _G
00B901  8E014F03           [268] gettable   6   6   316  ; "UIMaterial_VitruvianLines"
00B905  E2400002           [269] call       3   4   1  
00B909  DD400000           [270] getglobal  3   1        ; mMovie
00B90D  E440CE01           [271] self       3   3   313  ; 2115970775
00B911  59C10F00           [272] loadk      5   63       ; "ArcaneUpgrader.Loom.Left.SingleLoom04"
00B915  9DC10E00           [273] getglobal  6   59       ; _G
00B919  8E014F03           [274] gettable   6   6   316  ; "UIMaterial_VitruvianLines"
00B91D  E2400002           [275] call       3   4   1  
00B921  DD400000           [276] getglobal  3   1        ; mMovie
00B925  E440CE01           [277] self       3   3   313  ; 2115970775
00B929  59011000           [278] loadk      5   64       ; "ArcaneUpgrader.Loom.Right.SingleLoom01"
00B92D  9DC10E00           [279] getglobal  6   59       ; _G
00B931  8E014F03           [280] gettable   6   6   316  ; "UIMaterial_VitruvianLines"
00B935  E2400002           [281] call       3   4   1  
00B939  DD400000           [282] getglobal  3   1        ; mMovie
00B93D  E440CE01           [283] self       3   3   313  ; 2115970775
00B941  59411000           [284] loadk      5   65       ; "ArcaneUpgrader.Loom.Right.SingleLoom02"
00B945  9DC10E00           [285] getglobal  6   59       ; _G
00B949  8E014F03           [286] gettable   6   6   316  ; "UIMaterial_VitruvianLines"
00B94D  E2400002           [287] call       3   4   1  
00B951  DD400000           [288] getglobal  3   1        ; mMovie
00B955  E440CE01           [289] self       3   3   313  ; 2115970775
00B959  59811000           [290] loadk      5   66       ; "ArcaneUpgrader.Loom.Right.SingleLoom03"
00B95D  9DC10E00           [291] getglobal  6   59       ; _G
00B961  8E014F03           [292] gettable   6   6   316  ; "UIMaterial_VitruvianLines"
00B965  E2400002           [293] call       3   4   1  
00B969  DD400000           [294] getglobal  3   1        ; mMovie
00B96D  E440CE01           [295] self       3   3   313  ; 2115970775
00B971  59C11000           [296] loadk      5   67       ; "ArcaneUpgrader.Loom.Right.SingleLoom04"
00B975  9DC10E00           [297] getglobal  6   59       ; _G
00B979  8E014F03           [298] gettable   6   6   316  ; "UIMaterial_VitruvianLines"
00B97D  E2400002           [299] call       3   4   1  
00B981  DD400000           [300] getglobal  3   1        ; mMovie
00B985  E440CE01           [301] self       3   3   313  ; 2115970775
00B989  59011100           [302] loadk      5   68       ; "ArcaneUpgradeAnim.Arcane.Loom.StraightLoomMain01"
00B98D  9DC10E00           [303] getglobal  6   59       ; _G
00B991  8E014F03           [304] gettable   6   6   316  ; "UIMaterial_VitruvianLines"
00B995  E2400002           [305] call       3   4   1  
00B999  DD400000           [306] getglobal  3   1        ; mMovie
00B99D  E440CE01           [307] self       3   3   313  ; 2115970775
00B9A1  59411100           [308] loadk      5   69       ; "ArcaneUpgradeAnim.Arcane.Loom.StraightLoomMain02"
00B9A5  9DC10E00           [309] getglobal  6   59       ; _G
00B9A9  8E014F03           [310] gettable   6   6   316  ; "UIMaterial_VitruvianLines"
00B9AD  E2400002           [311] call       3   4   1  
00B9B1  DD400000           [312] getglobal  3   1        ; mMovie
00B9B5  E440CE01           [313] self       3   3   313  ; 2115970775
00B9B9  59811100           [314] loadk      5   70       ; "ArcaneUpgradeAnim.Arcane.Loom.StraightLoomMain03"
00B9BD  9DC10E00           [315] getglobal  6   59       ; _G
00B9C1  8E014F03           [316] gettable   6   6   316  ; "UIMaterial_VitruvianLines"
00B9C5  E2400002           [317] call       3   4   1  
00B9C9  DD400000           [318] getglobal  3   1        ; mMovie
00B9CD  E440CE01           [319] self       3   3   313  ; 2115970775
00B9D1  59C11100           [320] loadk      5   71       ; "ArcaneUpgradeAnim.Arcane.Loom.StraightLoomMain04"
00B9D5  9DC10E00           [321] getglobal  6   59       ; _G
00B9D9  8E014F03           [322] gettable   6   6   316  ; "UIMaterial_VitruvianLines"
00B9DD  E2400002           [323] call       3   4   1  
00B9E1  DD400000           [324] getglobal  3   1        ; mMovie
00B9E5  E440CE01           [325] self       3   3   313  ; 2115970775
00B9E9  59011200           [326] loadk      5   72       ; "ArcaneUpgradeAnim.Arcane.Loom.StraightLoomMain05"
00B9ED  9DC10E00           [327] getglobal  6   59       ; _G
00B9F1  8E014F03           [328] gettable   6   6   316  ; "UIMaterial_VitruvianLines"
00B9F5  E2400002           [329] call       3   4   1  
00B9F9  DD400000           [330] getglobal  3   1        ; mMovie
00B9FD  E440CE01           [331] self       3   3   313  ; 2115970775
00BA01  59411200           [332] loadk      5   73       ; "ArcaneUpgradeAnim.Arcane.Loom.StraightLoomMain06"
00BA05  9DC10E00           [333] getglobal  6   59       ; _G
00BA09  8E014F03           [334] gettable   6   6   316  ; "UIMaterial_VitruvianLines"
00BA0D  E2400002           [335] call       3   4   1  
00BA11  DD400000           [336] getglobal  3   1        ; mMovie
00BA15  E440CE01           [337] self       3   3   313  ; 2115970775
00BA19  59811200           [338] loadk      5   74       ; "ArcaneUpgradeAnim.Arcane.Loom.StraightLoomMain07"
00BA1D  9DC10E00           [339] getglobal  6   59       ; _G
00BA21  8E014F03           [340] gettable   6   6   316  ; "UIMaterial_VitruvianLines"
00BA25  E2400002           [341] call       3   4   1  
00BA29  DD400000           [342] getglobal  3   1        ; mMovie
00BA2D  E440CE01           [343] self       3   3   313  ; 2115970775
00BA31  59C11200           [344] loadk      5   75       ; "ArcaneUpgradeAnim.Arcane.Loom.StraightLoomMain08"
00BA35  9DC10E00           [345] getglobal  6   59       ; _G
00BA39  8E014F03           [346] gettable   6   6   316  ; "UIMaterial_VitruvianLines"
00BA3D  E2400002           [347] call       3   4   1  
00BA41  D3000002           [348] getupval   3   4      
00BA45  E2408000           [349] call       3   1   1  
00BA49  D3008002           [350] getupval   3   5      
00BA4D  E2408000           [351] call       3   1   1  
00BA51  D3000003           [352] getupval   3   6      
00BA55  E2408000           [353] call       3   1   1  
00BA59  D3008003           [354] getupval   3   7      
00BA5D  E2408000           [355] call       3   1   1  
00BA61  D3000004           [356] getupval   3   8      
00BA65  1D410000           [357] getglobal  4   1        ; mMovie
00BA69  24015302           [358] self       4   4   332  ; -174729759
00BA6D  22810001           [359] call       4   2   2  
00BA71  5D410000           [360] getglobal  5   1        ; mMovie
00BA75  6441D302           [361] self       5   5   333  ; -301556379
00BA79  62010001           [362] call       5   2   0  
00BA7D  E2400000           [363] call       3   0   1  
00BA81  D3008004           [364] getupval   3   9      
00BA85  E2408000           [365] call       3   1   1  
00BA89  D3000005           [366] getupval   3   10     
00BA8D  0B410000           [367] newtable   4   0   1    ; array=0, hash=1
00BA91  0C0145A7           [368] settable   4   334 276  ; "Filler" 1
00BA95  E2400001           [369] call       3   2   1  
00BA99  D3008005           [370] getupval   3   11     
00BA9D  E2408000           [371] call       3   1   1  
00BAA1  D3000006           [372] getupval   3   12     
00BAA5  E2408000           [373] call       3   1   1  
00BAA9  D3008006           [374] getupval   3   13     
00BAAD  E2408000           [375] call       3   1   1  
00BAB1  D7000000           [376] loadbool   3   0   0    ; false
fail op	8
00BAB5  C8000007           [377] setupval   3   14     
00BAB9  1E008000           [378] return     0   1      
                           * constants:
00BABD  4F                 sizek (79)
00BABE  01                 const type 3
00BABF  A9AF648C           const [0]: (-1939558487)
00BAC3  04                 const type 4
00BAC4  07                 string size (7)
00BAC5  6D4D6F76696500     "mMovie\0"
                           const [1]: "mMovie"
00BACC  04                 const type 4
00BACD  2A                 string size (42)
00BACE  417263616E655570+  "ArcaneUp"
00BAD6  6772616465416E69+  "gradeAni"
00BADE  6D2E417263616E65+  "m.Arcane"
00BAE6  2E4C6F6F6D2E676F+  ".Loom.go"
00BAEE  746F416E6453746F+  "toAndSto"
00BAF6  7000               "p\0"
                           const [2]: "ArcaneUpgradeAnim.Arcane.Loom.gotoAndStop"
00BAF8  03                 const type 3
00BAF9  0000803F           const [3]: (0)
00BAFD  01                 const type 3
00BAFE  65770E40           const [4]: (1074689893)
00BB02  04                 const type 4
00BB03  03                 string size (3)
00BB04  5F5400             "_T\0"
                           const [5]: "_T"
00BB07  04                 const type 4
00BB08  0F                 string size (15)
00BB09  53686F774261636B+  "ShowBack"
00BB11  67726F756E6400     "ground\0"
                           const [6]: "ShowBackground"
00BB18  01                 const type 3
00BB19  36DCBD17           const [7]: (398318646)
00BB1D  03                 const type 3
00BB1E  0000803E           const [8]: (0)
00BB22  04                 const type 4
00BB23  08                 string size (8)
00BB24  67526567696F6E00   "gRegion\0"
                           const [9]: "gRegion"
00BB2C  01                 const type 3
00BB2D  14B92C37           const [10]: (925677844)
00BB31  04                 const type 4
00BB32  0F                 string size (15)
00BB33  4D656E7553756974+  "MenuSuit"
00BB3B  41766174617200     "Avatar\0"
                           const [11]: "MenuSuitAvatar"
00BB42  01                 const type 3
00BB43  0344B180           const [12]: (-2135866365)
00BB47  01                 const type 3
00BB48  EFCC1A8C           const [13]: (-1944400657)
00BB4C  01                 const type 3
00BB4D  D953748F           const [14]: (-1888201767)
00BB51  01                 const type 3
00BB52  0BDABD7D           const [15]: (2109594123)
00BB56  04                 const type 4
00BB57  14                 string size (20)
00BB58  417263616E654D61+  "ArcaneMa"
00BB60  6E61676572417661+  "nagerAva"
00BB68  74617200           "tar\0"
                           const [16]: "ArcaneManagerAvatar"
00BB6C  04                 const type 4
00BB6D  10                 string size (16)
00BB6E  417263616E654571+  "ArcaneEq"
00BB76  756970496E666F00   "uipInfo\0"
                           const [17]: "ArcaneEquipInfo"
00BB7E  00                 const type 0
                           const [18]: nil
00BB7F  04                 const type 4
00BB80  07                 string size (7)
00BB81  41637469766500     "Active\0"
                           const [19]: "Active"
00BB88  01                 const type 3
00BB89  01000000           const [20]: (1)
00BB8D  04                 const type 4
00BB8E  09                 string size (9)
00BB8F  43616C6C6261636B+  "Callback"
00BB97  00                 "\0"
                           const [21]: "Callback"
00BB98  04                 const type 4
00BB99  07                 string size (7)
00BB9A  576561706F6E00     "Weapon\0"
                           const [22]: "Weapon"
00BBA1  04                 const type 4
00BBA2  05                 string size (5)
00BBA3  4974656D00         "Item\0"
                           const [23]: "Item"
00BBA8  04                 const type 4
00BBA9  0A                 string size (10)
00BBAA  53746F7265497465+  "StoreIte"
00BBB2  6D00               "m\0"
                           const [24]: "StoreItem"
00BBB4  04                 const type 4
00BBB5  05                 string size (5)
00BBB6  536C6F7400         "Slot\0"
                           const [25]: "Slot"
00BBBB  04                 const type 4
00BBBC  0B                 string size (11)
00BBBD  436F6E666967536C+  "ConfigSl"
00BBC5  6F7400             "ot\0"
                           const [26]: "ConfigSlot"
00BBC8  04                 const type 4
00BBC9  09                 string size (9)
00BBCA  5570677261646573+  "Upgrades"
00BBD2  00                 "\0"
                           const [27]: "Upgrades"
00BBD3  04                 const type 4
00BBD4  0B                 string size (11)
00BBD5  49734F7065726174+  "IsOperat"
00BBDD  6F7200             "or\0"
                           const [28]: "IsOperator"
00BBE0  04                 const type 4
00BBE1  0A                 string size (10)
00BBE2  6747616D65446174+  "gGameDat"
00BBEA  6100               "a\0"
                           const [29]: "gGameData"
00BBEC  01                 const type 3
00BBED  FD052E6F           const [30]: (1865287165)
00BBF1  04                 const type 4
00BBF2  11                 string size (17)
00BBF3  4174746163686564+  "Attached"
00BBFB  5570677261646573+  "Upgrades"
00BC03  00                 "\0"
                           const [31]: "AttachedUpgrades"
00BC04  01                 const type 3
00BC05  56197B17           const [32]: (393943382)
00BC09  04                 const type 4
00BC0A  08                 string size (8)
00BC0B  6D4974656D496400   "mItemId\0"
                           const [33]: "mItemId"
00BC13  04                 const type 4
00BC14  04                 string size (4)
00BC15  6D496400           "mId\0"
                           const [34]: "mId"
00BC19  04                 const type 4
00BC1A  0D                 string size (13)
00BC1B  417273656E616C53+  "ArsenalS"
00BC23  7461746500         "tate\0"
                           const [35]: "ArsenalState"
00BC28  04                 const type 4
00BC29  0B                 string size (11)
00BC2A  4C6F7475735F4761+  "Lotus_Ga"
00BC32  6D6500             "me\0"
                           const [36]: "Lotus_Game"
00BC35  04                 const type 4
00BC36  12                 string size (18)
00BC37  415253454E414C5F+  "ARSENAL_"
00BC3F  53544154455F5056+  "STATE_PV"
00BC47  5000               "P\0"
                           const [37]: "ARSENAL_STATE_PVP"
00BC49  04                 const type 4
00BC4A  15                 string size (21)
00BC4B  5365745371756164+  "SetSquad"
00BC53  4F7665726C617954+  "OverlayT"
00BC5B  69746C6500         "itle\0"
                           const [38]: "SetSquadOverlayTitle"
00BC60  01                 const type 3
00BC61  BD00A356           const [39]: (1453523133)
00BC65  01                 const type 3
00BC66  D40BDB05           const [40]: (98241492)
00BC6A  04                 const type 4
00BC6B  26                 string size (38)
00BC6C  2F4C6F7475732F4C+  "/Lotus/L"
00BC74  616E67756167652F+  "anguage/"
00BC7C  4D656E752F4C6F61+  "Menu/Loa"
00BC84  646F75745F557067+  "dout_Upg"
00BC8C  726164657300       "rades\0"
                           const [41]: "/Lotus/Language/Menu/Loadout_Upgrades"
00BC92  04                 const type 4
00BC93  29                 string size (41)
00BC94  2F4C6F7475732F4C+  "/Lotus/L"
00BC9C  616E67756167652F+  "anguage/"
00BCA4  4D656E752F466F75+  "Menu/Fou"
00BCAC  6E647279456E6861+  "ndryEnha"
00BCB4  6E63656D656E7473+  "ncements"
00BCBC  00                 "\0"
                           const [42]: "/Lotus/Language/Menu/FoundryEnhancements"
00BCBD  04                 const type 4
00BCBE  21                 string size (33)
00BCBF  2F4C6F7475732F4C+  "/Lotus/L"
00BCC7  616E67756167652F+  "anguage/"
00BCCF  4D656E752F4D656E+  "Menu/Men"
00BCD7  75466F756E647279+  "uFoundry"
00BCDF  00                 "\0"
                           const [43]: "/Lotus/Language/Menu/MenuFoundry"
00BCE0  01                 const type 3
00BCE1  3C1AFF46           const [44]: (1191123516)
00BCE5  01                 const type 3
00BCE6  1625AA99           const [45]: (-1716902634)
00BCEA  04                 const type 4
00BCEB  0F                 string size (15)
00BCEC  417263616E655365+  "ArcaneSe"
00BCF4  6C6563746F7200     "lector\0"
                           const [46]: "ArcaneSelector"
00BCFB  04                 const type 4
00BCFC  0D                 string size (13)
00BCFD  414E43484F525F56+  "ANCHOR_V"
00BD05  5F544F5000         "_TOP\0"
                           const [47]: "ANCHOR_V_TOP"
00BD0A  04                 const type 4
00BD0B  0E                 string size (14)
00BD0C  414E43484F525F48+  "ANCHOR_H"
00BD14  5F4C45465400       "_LEFT\0"
                           const [48]: "ANCHOR_H_LEFT"
00BD1A  04                 const type 4
00BD1B  0F                 string size (15)
00BD1C  417263616E655570+  "ArcaneUp"
00BD24  67726164657200     "grader\0"
                           const [49]: "ArcaneUpgrader"
00BD2B  04                 const type 4
00BD2C  0F                 string size (15)
00BD2D  414E43484F525F48+  "ANCHOR_H"
00BD35  5F524947485400     "_RIGHT\0"
                           const [50]: "ANCHOR_H_RIGHT"
00BD3C  04                 const type 4
00BD3D  12                 string size (18)
00BD3E  417263616E655570+  "ArcaneUp"
00BD46  6772616465416E69+  "gradeAni"
00BD4E  6D00               "m\0"
                           const [51]: "ArcaneUpgradeAnim"
00BD50  04                 const type 4
00BD51  07                 string size (7)
00BD52  426C7572657200     "Blurer\0"
                           const [52]: "Blurer"
00BD59  04                 const type 4
00BD5A  0B                 string size (11)
00BD5B  47726964426F756E+  "GridBoun"
00BD63  647300             "ds\0"
                           const [53]: "GridBounds"
00BD66  04                 const type 4
00BD67  10                 string size (16)
00BD68  414E43484F525F56+  "ANCHOR_V"
00BD70  5F424F54544F4D00   "_BOTTOM\0"
                           const [54]: "ANCHOR_V_BOTTOM"
00BD78  01                 const type 3
00BD79  66D9191C           const [55]: (471456102)
00BD7D  04                 const type 4
00BD7E  09                 string size (9)
00BD7F  5F76697369626C65+  "_visible"
00BD87  00                 "\0"
                           const [56]: "_visible"
00BD88  01                 const type 3
00BD89  D7261F7E           const [57]: (2115970775)
00BD8D  04                 const type 4
00BD8E  26                 string size (38)
00BD8F  417263616E655570+  "ArcaneUp"
00BD97  6772616465722E4C+  "grader.L"
00BD9F  6F6F6D2E4C656674+  "oom.Left"
00BDA7  2E53696E676C654C+  ".SingleL"
00BDAF  6F6F6D303100       "oom01\0"
                           const [58]: "ArcaneUpgrader.Loom.Left.SingleLoom01"
00BDB5  04                 const type 4
00BDB6  03                 string size (3)
00BDB7  5F4700             "_G\0"
                           const [59]: "_G"
00BDBA  04                 const type 4
00BDBB  1A                 string size (26)
00BDBC  55494D6174657269+  "UIMateri"
00BDC4  616C5F5669747275+  "al_Vitru"
00BDCC  7669616E4C696E65+  "vianLine"
00BDD4  7300               "s\0"
                           const [60]: "UIMaterial_VitruvianLines"
00BDD6  04                 const type 4
00BDD7  26                 string size (38)
00BDD8  417263616E655570+  "ArcaneUp"
00BDE0  6772616465722E4C+  "grader.L"
00BDE8  6F6F6D2E4C656674+  "oom.Left"
00BDF0  2E53696E676C654C+  ".SingleL"
00BDF8  6F6F6D303200       "oom02\0"
                           const [61]: "ArcaneUpgrader.Loom.Left.SingleLoom02"
00BDFE  04                 const type 4
00BDFF  26                 string size (38)
00BE00  417263616E655570+  "ArcaneUp"
00BE08  6772616465722E4C+  "grader.L"
00BE10  6F6F6D2E4C656674+  "oom.Left"
00BE18  2E53696E676C654C+  ".SingleL"
00BE20  6F6F6D303300       "oom03\0"
                           const [62]: "ArcaneUpgrader.Loom.Left.SingleLoom03"
00BE26  04                 const type 4
00BE27  26                 string size (38)
00BE28  417263616E655570+  "ArcaneUp"
00BE30  6772616465722E4C+  "grader.L"
00BE38  6F6F6D2E4C656674+  "oom.Left"
00BE40  2E53696E676C654C+  ".SingleL"
00BE48  6F6F6D303400       "oom04\0"
                           const [63]: "ArcaneUpgrader.Loom.Left.SingleLoom04"
00BE4E  04                 const type 4
00BE4F  27                 string size (39)
00BE50  417263616E655570+  "ArcaneUp"
00BE58  6772616465722E4C+  "grader.L"
00BE60  6F6F6D2E52696768+  "oom.Righ"
00BE68  742E53696E676C65+  "t.Single"
00BE70  4C6F6F6D303100     "Loom01\0"
                           const [64]: "ArcaneUpgrader.Loom.Right.SingleLoom01"
00BE77  04                 const type 4
00BE78  27                 string size (39)
00BE79  417263616E655570+  "ArcaneUp"
00BE81  6772616465722E4C+  "grader.L"
00BE89  6F6F6D2E52696768+  "oom.Righ"
00BE91  742E53696E676C65+  "t.Single"
00BE99  4C6F6F6D303200     "Loom02\0"
                           const [65]: "ArcaneUpgrader.Loom.Right.SingleLoom02"
00BEA0  04                 const type 4
00BEA1  27                 string size (39)
00BEA2  417263616E655570+  "ArcaneUp"
00BEAA  6772616465722E4C+  "grader.L"
00BEB2  6F6F6D2E52696768+  "oom.Righ"
00BEBA  742E53696E676C65+  "t.Single"
00BEC2  4C6F6F6D303300     "Loom03\0"
                           const [66]: "ArcaneUpgrader.Loom.Right.SingleLoom03"
00BEC9  04                 const type 4
00BECA  27                 string size (39)
00BECB  417263616E655570+  "ArcaneUp"
00BED3  6772616465722E4C+  "grader.L"
00BEDB  6F6F6D2E52696768+  "oom.Righ"
00BEE3  742E53696E676C65+  "t.Single"
00BEEB  4C6F6F6D303400     "Loom04\0"
                           const [67]: "ArcaneUpgrader.Loom.Right.SingleLoom04"
00BEF2  04                 const type 4
00BEF3  31                 string size (49)
00BEF4  417263616E655570+  "ArcaneUp"
00BEFC  6772616465416E69+  "gradeAni"
00BF04  6D2E417263616E65+  "m.Arcane"
00BF0C  2E4C6F6F6D2E5374+  ".Loom.St"
00BF14  7261696768744C6F+  "raightLo"
00BF1C  6F6D4D61696E3031+  "omMain01"
00BF24  00                 "\0"
                           const [68]: "ArcaneUpgradeAnim.Arcane.Loom.StraightLoomMain01"
00BF25  04                 const type 4
00BF26  31                 string size (49)
00BF27  417263616E655570+  "ArcaneUp"
00BF2F  6772616465416E69+  "gradeAni"
00BF37  6D2E417263616E65+  "m.Arcane"
00BF3F  2E4C6F6F6D2E5374+  ".Loom.St"
00BF47  7261696768744C6F+  "raightLo"
00BF4F  6F6D4D61696E3032+  "omMain02"
00BF57  00                 "\0"
                           const [69]: "ArcaneUpgradeAnim.Arcane.Loom.StraightLoomMain02"
00BF58  04                 const type 4
00BF59  31                 string size (49)
00BF5A  417263616E655570+  "ArcaneUp"
00BF62  6772616465416E69+  "gradeAni"
00BF6A  6D2E417263616E65+  "m.Arcane"
00BF72  2E4C6F6F6D2E5374+  ".Loom.St"
00BF7A  7261696768744C6F+  "raightLo"
00BF82  6F6D4D61696E3033+  "omMain03"
00BF8A  00                 "\0"
                           const [70]: "ArcaneUpgradeAnim.Arcane.Loom.StraightLoomMain03"
00BF8B  04                 const type 4
00BF8C  31                 string size (49)
00BF8D  417263616E655570+  "ArcaneUp"
00BF95  6772616465416E69+  "gradeAni"
00BF9D  6D2E417263616E65+  "m.Arcane"
00BFA5  2E4C6F6F6D2E5374+  ".Loom.St"
00BFAD  7261696768744C6F+  "raightLo"
00BFB5  6F6D4D61696E3034+  "omMain04"
00BFBD  00                 "\0"
                           const [71]: "ArcaneUpgradeAnim.Arcane.Loom.StraightLoomMain04"
00BFBE  04                 const type 4
00BFBF  31                 string size (49)
00BFC0  417263616E655570+  "ArcaneUp"
00BFC8  6772616465416E69+  "gradeAni"
00BFD0  6D2E417263616E65+  "m.Arcane"
00BFD8  2E4C6F6F6D2E5374+  ".Loom.St"
00BFE0  7261696768744C6F+  "raightLo"
00BFE8  6F6D4D61696E3035+  "omMain05"
00BFF0  00                 "\0"
                           const [72]: "ArcaneUpgradeAnim.Arcane.Loom.StraightLoomMain05"
00BFF1  04                 const type 4
00BFF2  31                 string size (49)
00BFF3  417263616E655570+  "ArcaneUp"
00BFFB  6772616465416E69+  "gradeAni"
00C003  6D2E417263616E65+  "m.Arcane"
00C00B  2E4C6F6F6D2E5374+  ".Loom.St"
00C013  7261696768744C6F+  "raightLo"
00C01B  6F6D4D61696E3036+  "omMain06"
00C023  00                 "\0"
                           const [73]: "ArcaneUpgradeAnim.Arcane.Loom.StraightLoomMain06"
00C024  04                 const type 4
00C025  31                 string size (49)
00C026  417263616E655570+  "ArcaneUp"
00C02E  6772616465416E69+  "gradeAni"
00C036  6D2E417263616E65+  "m.Arcane"
00C03E  2E4C6F6F6D2E5374+  ".Loom.St"
00C046  7261696768744C6F+  "raightLo"
00C04E  6F6D4D61696E3037+  "omMain07"
00C056  00                 "\0"
                           const [74]: "ArcaneUpgradeAnim.Arcane.Loom.StraightLoomMain07"
00C057  04                 const type 4
00C058  31                 string size (49)
00C059  417263616E655570+  "ArcaneUp"
00C061  6772616465416E69+  "gradeAni"
00C069  6D2E417263616E65+  "m.Arcane"
00C071  2E4C6F6F6D2E5374+  ".Loom.St"
00C079  7261696768744C6F+  "raightLo"
00C081  6F6D4D61696E3038+  "omMain08"
00C089  00                 "\0"
                           const [75]: "ArcaneUpgradeAnim.Arcane.Loom.StraightLoomMain08"
00C08A  01                 const type 3
00C08B  E1D595F5           const [76]: (-174729759)
00C08F  01                 const type 3
00C090  659D06EE           const [77]: (-301556379)
00C094  04                 const type 4
00C095  07                 string size (7)
00C096  46696C6C657200     "Filler\0"
                           const [78]: "Filler"
                           * functions:
00C09D  00                 sizep (0)
                           * lines:
00C09F  02                 sizelineinfo (378)
                           [pc] (line)
00C0A0  C2                 [001] (-62)
00C0A1  04                 [002] (-62)
00C0A2  00                 [003] (-62)
00C0A3  00                 [004] (-62)
00C0A4  C2                 [005] (-62)
00C0A5  04                 [006] (-60)
00C0A6  00                 [007] (-60)
00C0A7  00                 [008] (-60)
00C0A8  C2                 [009] (-60)
00C0A9  04                 [010] (-60)
00C0AA  00                 [011] (-60)
00C0AB  00                 [012] (-59)
00C0AC  C2                 [013] (-59)
00C0AD  04                 [014] (-59)
00C0AE  00                 [015] (-59)
00C0AF  00                 [016] (-59)
00C0B0  C2                 [017] (-59)
00C0B1  04                 [018] (-56)
00C0B2  00                 [019] (-56)
00C0B3  00                 [020] (-56)
00C0B4  C4                 [021] (-55)
00C0B5  04                 [022] (-54)
00C0B6  00                 [023] (-54)
00C0B7  00                 [024] (-54)
00C0B8  C4                 [025] (-54)
00C0B9  04                 [026] (-54)
00C0BA  00                 [027] (-53)
00C0BB  00                 [028] (-53)
00C0BC  C4                 [029] (-53)
00C0BD  04                 [030] (-53)
00C0BE  00                 [031] (-53)
00C0BF  00                 [032] (-53)
00C0C0  C4                 [033] (-53)
00C0C1  04                 [034] (-52)
00C0C2  00                 [035] (-52)
00C0C3  00                 [036] (-52)
00C0C4  C4                 [037] (-52)
00C0C5  04                 [038] (-52)
00C0C6  00                 [039] (-52)
00C0C7  00                 [040] (-52)
00C0C8  C4                 [041] (-52)
00C0C9  04                 [042] (-52)
00C0CA  00                 [043] (-51)
00C0CB  00                 [044] (-51)
00C0CC  C5                 [045] (-51)
00C0CD  04                 [046] (-48)
00C0CE  00                 [047] (-48)
00C0CF  00                 [048] (-48)
00C0D0  C5                 [049] (-48)
00C0D1  04                 [050] (-48)
00C0D2  00                 [051] (-48)
00C0D3  00                 [052] (-48)
00C0D4  C5                 [053] (-48)
00C0D5  04                 [054] (-48)
00C0D6  00                 [055] (-47)
00C0D7  00                 [056] (-47)
00C0D8  C5                 [057] (-47)
00C0D9  04                 [058] (-46)
00C0DA  00                 [059] (-46)
00C0DB  00                 [060] (-43)
00C0DC  C5                 [061] (-43)
00C0DD  04                 [062] (-43)
00C0DE  00                 [063] (-43)
00C0DF  00                 [064] (-42)
00C0E0  C5                 [065] (-42)
00C0E1  04                 [066] (-41)
00C0E2  00                 [067] (-41)
00C0E3  00                 [068] (-41)
00C0E4  C8                 [069] (-41)
00C0E5  04                 [070] (-41)
00C0E6  00                 [071] (-40)
00C0E7  00                 [072] (-40)
00C0E8  C8                 [073] (-40)
00C0E9  04                 [074] (-40)
00C0EA  00                 [075] (-40)
00C0EB  00                 [076] (-39)
00C0EC  C8                 [077] (-39)
00C0ED  04                 [078] (-39)
00C0EE  00                 [079] (-39)
00C0EF  00                 [080] (-39)
00C0F0  C9                 [081] (-38)
00C0F1  04                 [082] (-38)
00C0F2  00                 [083] (-38)
00C0F3  00                 [084] (-38)
00C0F4  CA                 [085] (-38)
00C0F5  04                 [086] (-37)
00C0F6  00                 [087] (-37)
00C0F7  00                 [088] (-37)
00C0F8  CA                 [089] (-37)
00C0F9  04                 [090] (-37)
00C0FA  00                 [091] (-36)
00C0FB  00                 [092] (-36)
00C0FC  CA                 [093] (-36)
00C0FD  04                 [094] (-36)
00C0FE  00                 [095] (-36)
00C0FF  00                 [096] (-34)
00C100  CA                 [097] (-34)
00C101  04                 [098] (-34)
00C102  00                 [099] (-34)
00C103  00                 [100] (-34)
00C104  CA                 [101] (-34)
00C105  04                 [102] (-34)
00C106  00                 [103] (-33)
00C107  00                 [104] (-33)
00C108  CB                 [105] (-32)
00C109  04                 [106] (-32)
00C10A  00                 [107] (-32)
00C10B  00                 [108] (-32)
00C10C  CB                 [109] (-32)
00C10D  04                 [110] (-32)
00C10E  00                 [111] (-31)
00C10F  00                 [112] (-31)
00C110  CB                 [113] (-31)
00C111  04                 [114] (-31)
00C112  00                 [115] (-31)
00C113  00                 [116] (-31)
00C114  CB                 [117] (-31)
00C115  04                 [118] (-30)
00C116  00                 [119] (-30)
00C117  00                 [120] (-30)
00C118  CB                 [121] (-29)
00C119  04                 [122] (-29)
00C11A  00                 [123] (-29)
00C11B  00                 [124] (-29)
00C11C  CB                 [125] (-29)
00C11D  04                 [126] (-28)
00C11E  00                 [127] (-28)
00C11F  00                 [128] (-28)
00C120  CB                 [129] (-28)
00C121  04                 [130] (-28)
00C122  00                 [131] (-28)
00C123  00                 [132] (-28)
00C124  CC                 [133] (-28)
00C125  04                 [134] (-28)
00C126  00                 [135] (-28)
00C127  00                 [136] (-28)
00C128  CC                 [137] (-28)
00C129  04                 [138] (-28)
00C12A  00                 [139] (-28)
00C12B  00                 [140] (-28)
00C12C  CC                 [141] (-28)
00C12D  04                 [142] (-28)
00C12E  00                 [143] (-28)
00C12F  00                 [144] (-28)
00C130  CC                 [145] (-24)
00C131  04                 [146] (-24)
00C132  00                 [147] (-22)
00C133  00                 [148] (-22)
00C134  CC                 [149] (-22)
00C135  04                 [150] (-22)
00C136  00                 [151] (-22)
00C137  00                 [152] (-22)
00C138  CC                 [153] (-21)
00C139  04                 [154] (-21)
00C13A  00                 [155] (-21)
00C13B  00                 [156] (-21)
00C13C  CC                 [157] (-21)
00C13D  04                 [158] (-21)
00C13E  00                 [159] (-21)
00C13F  00                 [160] (-21)
00C140  CC                 [161] (-21)
00C141  04                 [162] (-21)
00C142  00                 [163] (-21)
00C143  00                 [164] (-21)
00C144  CC                 [165] (-21)
00C145  04                 [166] (-20)
00C146  00                 [167] (-18)
00C147  00                 [168] (-18)
00C148  CD                 [169] (-18)
00C149  04                 [170] (-18)
00C14A  00                 [171] (-18)
00C14B  00                 [172] (-18)
00C14C  CD                 [173] (-17)
00C14D  04                 [174] (-17)
00C14E  00                 [175] (-17)
00C14F  00                 [176] (-17)
00C150  CD                 [177] (-17)
00C151  04                 [178] (-17)
00C152  00                 [179] (-17)
00C153  00                 [180] (-17)
00C154  D0                 [181] (-17)
00C155  04                 [182] (-17)
00C156  00                 [183] (-17)
00C157  00                 [184] (-17)
00C158  D0                 [185] (-17)
00C159  04                 [186] (-13)
00C15A  00                 [187] (-13)
00C15B  00                 [188] (-13)
00C15C  D0                 [189] (-13)
00C15D  04                 [190] (-13)
00C15E  00                 [191] (-12)
00C15F  00                 [192] (-12)
00C160  D0                 [193] (-12)
00C161  04                 [194] (-12)
00C162  00                 [195] (-12)
00C163  00                 [196] (-12)
00C164  D0                 [197] (-12)
00C165  04                 [198] (-12)
00C166  00                 [199] (-12)
00C167  00                 [200] (-12)
00C168  D0                 [201] (-12)
00C169  04                 [202] (-11)
00C16A  00                 [203] (-11)
00C16B  00                 [204] (-11)
00C16C  D0                 [205] (-11)
00C16D  04                 [206] (-11)
00C16E  00                 [207] (-11)
00C16F  00                 [208] (-11)
00C170  D0                 [209] (-11)
00C171  04                 [210] (-11)
00C172  00                 [211] (-11)
00C173  00                 [212] (-11)
00C174  D0                 [213] (-10)
00C175  04                 [214] (-10)
00C176  00                 [215] (-10)
00C177  00                 [216] (-10)
00C178  D1                 [217] (-10)
00C179  04                 [218] (-10)
00C17A  00                 [219] (-10)
00C17B  00                 [220] (-10)
00C17C  D1                 [221] (-10)
00C17D  04                 [222] (-10)
00C17E  00                 [223] (-10)
00C17F  00                 [224] (-9)
00C180  D1                 [225] (-9)
00C181  04                 [226] (-9)
00C182  00                 [227] (-9)
00C183  00                 [228] (-9)
00C184  D2                 [229] (-9)
00C185  04                 [230] (-9)
00C186  00                 [231] (-9)
00C187  00                 [232] (-9)
00C188  D2                 [233] (-9)
00C189  04                 [234] (-9)
00C18A  00                 [235] (-8)
00C18B  00                 [236] (-8)
00C18C  D5                 [237] (-8)
00C18D  04                 [238] (-8)
00C18E  00                 [239] (-8)
00C18F  00                 [240] (-8)
00C190  D5                 [241] (-8)
00C191  04                 [242] (-8)
00C192  00                 [243] (-8)
00C193  00                 [244] (-8)
00C194  D5                 [245] (-8)
00C195  04                 [246] (-6)
00C196  00                 [247] (-6)
00C197  00                 [248] (-6)
00C198  D5                 [249] (-6)
00C199  04                 [250] (-6)
00C19A  00                 [251] (-6)
00C19B  00                 [252] (-4)
00C19C  D6                 [253] (-4)
00C19D  04                 [254] (-4)
00C19E  00                 [255] (-4)
00C19F  00                 [256] (-4)
00C1A0  D6                 [257] (-4)
00C1A1  04                 [258] (-3)
00C1A2  00                 [259] (-3)
00C1A3  00                 [260] (-3)
00C1A4  D7                 [261] (-3)
00C1A5  04                 [262] (-3)
00C1A6  00                 [263] (-3)
00C1A7  00                 [264] (-2)
00C1A8  D7                 [265] (-2)
00C1A9  04                 [266] (-2)
00C1AA  00                 [267] (-2)
00C1AB  00                 [268] (-2)
00C1AC  D7                 [269] (-2)
00C1AD  04                 [270] (-1)
00C1AE  00                 [271] (-1)
00C1AF  00                 [272] (-1)
00C1B0  D7                 [273] (-1)
00C1B1  04                 [274] (-1)
00C1B2  00                 [275] (-1)
00C1B3  00                 [276] (0)
00C1B4  D7                 [277] (0)
00C1B5  04                 [278] (0)
00C1B6  00                 [279] (0)
00C1B7  00                 [280] (0)
00C1B8  D8                 [281] (0)
00C1B9  04                 [282] (1)
00C1BA  00                 [283] (1)
00C1BB  00                 [284] (1)
00C1BC  D8                 [285] (1)
00C1BD  04                 [286] (1)
00C1BE  00                 [287] (1)
00C1BF  00                 [288] (2)
00C1C0  D8                 [289] (2)
00C1C1  04                 [290] (2)
00C1C2  00                 [291] (2)
00C1C3  00                 [292] (2)
00C1C4  D8                 [293] (2)
00C1C5  04                 [294] (3)
00C1C6  00                 [295] (3)
00C1C7  00                 [296] (3)
00C1C8  D8                 [297] (3)
00C1C9  04                 [298] (3)
00C1CA  00                 [299] (3)
00C1CB  00                 [300] (5)
00C1CC  D9                 [301] (5)
00C1CD  04                 [302] (5)
00C1CE  00                 [303] (5)
00C1CF  00                 [304] (5)
00C1D0  D9                 [305] (5)
00C1D1  04                 [306] (6)
00C1D2  00                 [307] (6)
00C1D3  00                 [308] (6)
00C1D4  D9                 [309] (6)
00C1D5  04                 [310] (6)
00C1D6  00                 [311] (6)
00C1D7  00                 [312] (7)
00C1D8  D9                 [313] (7)
00C1D9  04                 [314] (7)
00C1DA  00                 [315] (7)
00C1DB  00                 [316] (7)
00C1DC  D9                 [317] (7)
00C1DD  04                 [318] (8)
00C1DE  00                 [319] (8)
00C1DF  00                 [320] (8)
00C1E0  DA                 [321] (8)
00C1E1  04                 [322] (8)
00C1E2  00                 [323] (8)
00C1E3  00                 [324] (9)
00C1E4  DA                 [325] (9)
00C1E5  04                 [326] (9)
00C1E6  00                 [327] (9)
00C1E7  00                 [328] (9)
00C1E8  DA                 [329] (9)
00C1E9  04                 [330] (10)
00C1EA  00                 [331] (10)
00C1EB  00                 [332] (10)
00C1EC  DA                 [333] (10)
00C1ED  04                 [334] (10)
00C1EE  00                 [335] (10)
00C1EF  00                 [336] (11)
00C1F0  DA                 [337] (11)
00C1F1  04                 [338] (11)
00C1F2  00                 [339] (11)
00C1F3  00                 [340] (11)
00C1F4  DB                 [341] (11)
00C1F5  04                 [342] (12)
00C1F6  00                 [343] (12)
00C1F7  00                 [344] (12)
00C1F8  DB                 [345] (12)
00C1F9  04                 [346] (12)
00C1FA  00                 [347] (12)
00C1FB  00                 [348] (14)
00C1FC  DB                 [349] (14)
00C1FD  04                 [350] (15)
00C1FE  00                 [351] (15)
00C1FF  00                 [352] (16)
00C200  DB                 [353] (16)
00C201  04                 [354] (17)
00C202  00                 [355] (17)
00C203  00                 [356] (19)
00C204  DB                 [357] (19)
00C205  04                 [358] (19)
00C206  00                 [359] (19)
00C207  00                 [360] (19)
00C208  DC                 [361] (19)
00C209  04                 [362] (19)
00C20A  00                 [363] (19)
00C20B  00                 [364] (21)
00C20C  DC                 [365] (21)
00C20D  04                 [366] (22)
00C20E  00                 [367] (22)
00C20F  00                 [368] (22)
00C210  DC                 [369] (22)
00C211  04                 [370] (23)
00C212  00                 [371] (23)
00C213  00                 [372] (25)
00C214  DC                 [373] (25)
00C215  04                 [374] (26)
00C216  00                 [375] (26)
00C217  00                 [376] (28)
00C218  DC                 [377] (28)
00C219  04                 [378] (29)
                           * locals:
00C688  00                 sizelocvars (0)
                           * upvalues:
00C689  00                 sizeupvalues (0)
                           ** end of function **

                           
00C68A                     ** function [29] definition (level 2)
                           ** start of function **
00C68A  00                 string size (0)
                           source name: (none)
00C68C  0A                 line defined (1311)
00C68D  B0                 last line defined (1328)
00C68E  0A                 nups (1)
00C68F  01                 numparams (1)
00C690  01                 is_vararg (0)
00C691  00                 maxstacksize (10)
                           * code:
00C693  5C                 sizecode (92)
00C694  53000000           [01] getupval   1   0      
00C698  93000000           [02] getupval   2   0      
00C69C  8E004001           [03] gettable   2   2   256  ; "Timer"
00C6A0  83000001           [04] add        2   2   0  
00C6A4  4C800080           [05] settable   1   256 2    ; "Timer"
00C6A8  53000000           [06] getupval   1   0      
00C6AC  4E00C000           [07] gettable   1   1   256  ; "Timer"
00C6B0  93000000           [08] getupval   2   0      
00C6B4  8E404001           [09] gettable   2   2   257  ; "TransitionTime"
fail op	21
00C6B8  15400001           [10] concat     0   2   1  
00C6BC  1A000780           [11] jmp        29           ; to [41]
00C6C0  53000000           [12] getupval   1   0      
00C6C4  93000000           [13] getupval   2   0      
00C6C8  8EC04001           [14] gettable   2   2   259  ; "TargetX"
00C6CC  4C800081           [15] settable   1   258 2    ; "LastX"
00C6D0  53000000           [16] getupval   1   0      
00C6D4  93000000           [17] getupval   2   0      
00C6D8  8E404101           [18] gettable   2   2   261  ; "TargetY"
00C6DC  4C800082           [19] settable   1   260 2    ; "LastY"
00C6E0  53000000           [20] getupval   1   0      
00C6E4  4C804180           [21] settable   1   256 262  ; "Timer" 0
00C6E8  53000000           [22] getupval   1   0      
00C6EC  9DC00100           [23] getglobal  2   7        ; -1941280958
00C6F0  D3000000           [24] getupval   3   0      
00C6F4  CE00C201           [25] gettable   3   3   264  ; "MaxMovement"
00C6F8  13010000           [26] getupval   4   0      
00C6FC  0E014202           [27] gettable   4   4   264  ; "MaxMovement"
fail op	0
00C700  00010002           [28] move       4   4      
00C704  A2808001           [29] call       2   3   2  
00C708  8D404201           [30] sub        2   2   265  ; 0
00C70C  4C808081           [31] settable   1   259 2    ; "TargetX"
00C710  53000000           [32] getupval   1   0      
00C714  9DC00100           [33] getglobal  2   7        ; -1941280958
00C718  D3000000           [34] getupval   3   0      
00C71C  CE00C201           [35] gettable   3   3   264  ; "MaxMovement"
00C720  13010000           [36] getupval   4   0      
00C724  0E014202           [37] gettable   4   4   264  ; "MaxMovement"
fail op	0
00C728  00010002           [38] move       4   4      
00C72C  A2808001           [39] call       2   3   2  
00C730  4C808082           [40] settable   1   261 2    ; "TargetY"
00C734  53000000           [41] getupval   1   0      
00C738  4E00C000           [42] gettable   1   1   256  ; "Timer"
00C73C  93000000           [43] getupval   2   0      
00C740  8E404001           [44] gettable   2   2   257  ; "TransitionTime"
00C744  5C808000           [45] div        1   1   2  
00C748  93000000           [46] getupval   2   0      
00C74C  8EC04001           [47] gettable   2   2   259  ; "TargetX"
00C750  D3000000           [48] getupval   3   0      
00C754  CE80C001           [49] gettable   3   3   258  ; "LastX"
00C758  8DC00001           [50] sub        2   2   3  
00C75C  DD800200           [51] getglobal  3   10       ; mMovie
00C760  E4C0C201           [52] self       3   3   267  ; 471456102
00C764  59010300           [53] loadk      5   12       ; "ArcaneUpgrader.Icon"
00C768  99410300           [54] loadk      6   13       ; "_x"
fail op	0
00C76C  C0010001           [55] move       7   2      
00C770  DC81C303           [56] div        7   7   270  ; 0
00C774  1DC20300           [57] getglobal  8   15       ; math
00C778  0E024404           [58] gettable   8   8   272  ; -1775039999
00C77C  5DC20300           [59] getglobal  9   15       ; math
00C780  4E42C404           [60] gettable   9   9   273  ; "pi"
00C784  44428004           [61] mul        9   9   1  
00C788  22820001           [62] call       8   2   2  
00C78C  0D824404           [63] sub        8   8   274  ; 0
00C790  C4018203           [64] mul        7   7   8  
00C794  13020000           [65] getupval   8   0      
00C798  0E824004           [66] gettable   8   8   258  ; "LastX"
00C79C  C3018203           [67] add        7   7   8  
00C7A0  E2408002           [68] call       3   5   1  
00C7A4  D3000000           [69] getupval   3   0      
00C7A8  CE40C101           [70] gettable   3   3   261  ; "TargetY"
00C7AC  13010000           [71] getupval   4   0      
00C7B0  0E014102           [72] gettable   4   4   260  ; "LastY"
00C7B4  8D008101           [73] sub        2   3   4  
00C7B8  DD800200           [74] getglobal  3   10       ; mMovie
00C7BC  E4C0C201           [75] self       3   3   267  ; 471456102
00C7C0  59010300           [76] loadk      5   12       ; "ArcaneUpgrader.Icon"
00C7C4  99C10400           [77] loadk      6   19       ; "_y"
fail op	0
00C7C8  C0010001           [78] move       7   2      
00C7CC  DC81C303           [79] div        7   7   270  ; 0
00C7D0  1DC20300           [80] getglobal  8   15       ; math
00C7D4  0E024404           [81] gettable   8   8   272  ; -1775039999
00C7D8  5DC20300           [82] getglobal  9   15       ; math
00C7DC  4E42C404           [83] gettable   9   9   273  ; "pi"
00C7E0  44428004           [84] mul        9   9   1  
00C7E4  22820001           [85] call       8   2   2  
00C7E8  0D824404           [86] sub        8   8   274  ; 0
00C7EC  C4018203           [87] mul        7   7   8  
00C7F0  13020000           [88] getupval   8   0      
00C7F4  0E024104           [89] gettable   8   8   260  ; "LastY"
00C7F8  C3018203           [90] add        7   7   8  
00C7FC  E2408002           [91] call       3   5   1  
00C800  1E008000           [92] return     0   1      
                           * constants:
00C804  14                 sizek (20)
00C805  04                 const type 4
00C806  06                 string size (6)
00C807  54696D657200       "Timer\0"
                           const [0]: "Timer"
00C80D  04                 const type 4
00C80E  0F                 string size (15)
00C80F  5472616E73697469+  "Transiti"
00C817  6F6E54696D6500     "onTime\0"
                           const [1]: "TransitionTime"
00C81E  04                 const type 4
00C81F  06                 string size (6)
00C820  4C6173745800       "LastX\0"
                           const [2]: "LastX"
00C826  04                 const type 4
00C827  08                 string size (8)
00C828  5461726765745800   "TargetX\0"
                           const [3]: "TargetX"
00C830  04                 const type 4
00C831  06                 string size (6)
00C832  4C6173745900       "LastY\0"
                           const [4]: "LastY"
00C838  04                 const type 4
00C839  08                 string size (8)
00C83A  5461726765745900   "TargetY\0"
                           const [5]: "TargetY"
00C842  03                 const type 3
00C843  00000000           const [6]: (0)
00C847  01                 const type 3
00C848  42674A8C           const [7]: (-1941280958)
00C84C  04                 const type 4
00C84D  0C                 string size (12)
00C84E  4D61784D6F76656D+  "MaxMovem"
00C856  656E7400           "ent\0"
                           const [8]: "MaxMovement"
00C85A  03                 const type 3
00C85B  00808943           const [9]: (0)
00C85F  04                 const type 4
00C860  07                 string size (7)
00C861  6D4D6F76696500     "mMovie\0"
                           const [10]: "mMovie"
00C868  01                 const type 3
00C869  66D9191C           const [11]: (471456102)
00C86D  04                 const type 4
00C86E  14                 string size (20)
00C86F  417263616E655570+  "ArcaneUp"
00C877  6772616465722E49+  "grader.I"
00C87F  636F6E00           "con\0"
                           const [12]: "ArcaneUpgrader.Icon"
00C883  04                 const type 4
00C884  03                 string size (3)
00C885  5F7800             "_x\0"
                           const [13]: "_x"
00C888  03                 const type 3
00C889  00000040           const [14]: (0)
00C88D  04                 const type 4
00C88E  05                 string size (5)
00C88F  6D61746800         "math\0"
                           const [15]: "math"
00C894  01                 const type 3
00C895  010A3396           const [16]: (-1775039999)
00C899  04                 const type 4
00C89A  03                 string size (3)
00C89B  706900             "pi\0"
                           const [17]: "pi"
00C89E  03                 const type 3
00C89F  0000803F           const [18]: (0)
00C8A3  04                 const type 4
00C8A4  03                 string size (3)
00C8A5  5F7900             "_y\0"
                           const [19]: "_y"
                           * functions:
00C8A8  00                 sizep (0)
                           * lines:
00C8A9  5C                 sizelineinfo (92)
                           [pc] (line)
00C8AA  20                 [01] (32)
00C8AB  05                 [02] (32)
00C8AC  00                 [03] (32)
00C8AD  00                 [04] (32)
00C8AE  20                 [05] (32)
00C8AF  05                 [06] (33)
00C8B0  00                 [07] (33)
00C8B1  00                 [08] (33)
00C8B2  20                 [09] (33)
00C8B3  05                 [10] (33)
00C8B4  00                 [11] (33)
00C8B5  00                 [12] (34)
00C8B6  20                 [13] (34)
00C8B7  05                 [14] (34)
00C8B8  00                 [15] (34)
00C8B9  00                 [16] (35)
00C8BA  20                 [17] (35)
00C8BB  05                 [18] (35)
00C8BC  00                 [19] (35)
00C8BD  00                 [20] (36)
00C8BE  21                 [21] (36)
00C8BF  05                 [22] (37)
00C8C0  00                 [23] (37)
00C8C1  00                 [24] (37)
00C8C2  21                 [25] (37)
00C8C3  05                 [26] (37)
00C8C4  00                 [27] (37)
00C8C5  00                 [28] (37)
00C8C6  21                 [29] (37)
00C8C7  05                 [30] (37)
00C8C8  00                 [31] (37)
00C8C9  00                 [32] (38)
00C8CA  21                 [33] (38)
00C8CB  05                 [34] (38)
00C8CC  00                 [35] (38)
00C8CD  00                 [36] (38)
00C8CE  21                 [37] (38)
00C8CF  05                 [38] (38)
00C8D0  00                 [39] (38)
00C8D1  00                 [40] (38)
00C8D2  21                 [41] (41)
00C8D3  05                 [42] (41)
00C8D4  00                 [43] (41)
00C8D5  00                 [44] (41)
00C8D6  22                 [45] (41)
00C8D7  05                 [46] (43)
00C8D8  00                 [47] (43)
00C8D9  00                 [48] (43)
00C8DA  22                 [49] (43)
00C8DB  05                 [50] (43)
00C8DC  00                 [51] (44)
00C8DD  00                 [52] (44)
00C8DE  22                 [53] (44)
00C8DF  05                 [54] (44)
00C8E0  00                 [55] (44)
00C8E1  00                 [56] (44)
00C8E2  22                 [57] (44)
00C8E3  05                 [58] (44)
00C8E4  00                 [59] (44)
00C8E5  00                 [60] (44)
00C8E6  23                 [61] (44)
00C8E7  05                 [62] (44)
00C8E8  00                 [63] (44)
00C8E9  00                 [64] (44)
00C8EA  23                 [65] (44)
00C8EB  05                 [66] (44)
00C8EC  00                 [67] (44)
00C8ED  00                 [68] (44)
00C8EE  23                 [69] (46)
00C8EF  05                 [70] (46)
00C8F0  00                 [71] (46)
00C8F1  00                 [72] (46)
00C8F2  23                 [73] (46)
00C8F3  05                 [74] (47)
00C8F4  00                 [75] (47)
00C8F5  00                 [76] (47)
00C8F6  24                 [77] (47)
00C8F7  05                 [78] (47)
00C8F8  00                 [79] (47)
00C8F9  00                 [80] (47)
00C8FA  24                 [81] (47)
00C8FB  05                 [82] (47)
00C8FC  00                 [83] (47)
00C8FD  00                 [84] (47)
00C8FE  25                 [85] (47)
00C8FF  05                 [86] (47)
00C900  00                 [87] (47)
00C901  00                 [88] (47)
00C902  25                 [89] (47)
00C903  05                 [90] (47)
00C904  00                 [91] (47)
00C905  00                 [92] (48)
                           * locals:
00CA1A  00                 sizelocvars (0)
                           * upvalues:
00CA1B  00                 sizeupvalues (0)
                           ** end of function **

                           
00CA1C                     ** function [30] definition (level 2)
                           ** start of function **
00CA1C  00                 string size (0)
                           source name: (none)
00CA1E  0A                 line defined (1330)
00CA1F  B9                 last line defined (1337)
00CA20  0A                 nups (1)
00CA21  01                 numparams (0)
00CA22  00                 is_vararg (0)
00CA23  00                 maxstacksize (5)
                           * code:
00CA25  17                 sizecode (23)
00CA26  1D000000           [01] getglobal  0   0        ; 1661359502
00CA2A  22808000           [02] call       0   1   2  
00CA2E  5D400000           [03] getglobal  1   1        ; mMovie
00CA32  6480C000           [04] self       1   1   258  ; 135097114
00CA36  D2000000           [05] move       3   0      
00CA3A  62408001           [06] call       1   3   1  
00CA3E  53000000           [07] getupval   1   0      
00CA42  92000000           [08] move       2   0      
00CA46  62400001           [09] call       1   2   1  
00CA4A  5DC00000           [10] getglobal  1   3        ; gFlashMgr
00CA4E  6400C100           [11] self       1   1   260  ; 1634586770
00CA52  DD400100           [12] getglobal  3   5        ; _G
00CA56  CE80C101           [13] gettable   3   3   262  ; "UIMovie_DetailedPurchaseDialog"
00CA5A  62808001           [14] call       1   3   2  
fail op	35
00CA5E  63C0C100           [15] close      1  
00CA62  1A000080           [16] jmp        1            ; to [18]
00CA66  57400000           [17] loadbool   1   0   1    ; false, to [19]
00CA6A  57008000           [18] loadbool   1   1   0    ; true
00CA6E  9D400000           [19] getglobal  2   1        ; mMovie
00CA72  A4004201           [20] self       2   2   264  ; 1649906088
00CA76  12018000           [21] move       4   1      
00CA7A  A2408001           [22] call       2   3   1  
00CA7E  1E008000           [23] return     0   1      
                           * constants:
00CA82  09                 sizek (9)
00CA83  01                 const type 3
00CA84  8E550663           const [0]: (1661359502)
00CA88  04                 const type 4
00CA89  07                 string size (7)
00CA8A  6D4D6F76696500     "mMovie\0"
                           const [1]: "mMovie"
00CA91  01                 const type 3
00CA92  1A6B0D08           const [2]: (135097114)
00CA96  04                 const type 4
00CA97  0A                 string size (10)
00CA98  67466C6173684D67+  "gFlashMg"
00CAA0  7200               "r\0"
                           const [3]: "gFlashMgr"
00CAA2  01                 const type 3
00CAA3  92D06D61           const [4]: (1634586770)
00CAA7  04                 const type 4
00CAA8  03                 string size (3)
00CAA9  5F4700             "_G\0"
                           const [5]: "_G"
00CAAC  04                 const type 4
00CAAD  1F                 string size (31)
00CAAE  55494D6F7669655F+  "UIMovie_"
00CAB6  44657461696C6564+  "Detailed"
00CABE  5075726368617365+  "Purchase"
00CAC6  4469616C6F6700     "Dialog\0"
                           const [6]: "UIMovie_DetailedPurchaseDialog"
00CACD  00                 const type 0
                           const [7]: nil
00CACE  01                 const type 3
00CACF  A8915762           const [8]: (1649906088)
                           * functions:
00CAD3  00                 sizep (0)
                           * lines:
00CAD4  17                 sizelineinfo (23)
                           [pc] (line)
00CAD5  33                 [01] (51)
00CAD6  05                 [02] (51)
00CAD7  00                 [03] (52)
00CAD8  00                 [04] (52)
00CAD9  33                 [05] (52)
00CADA  05                 [06] (52)
00CADB  00                 [07] (53)
00CADC  00                 [08] (53)
00CADD  34                 [09] (53)
00CADE  05                 [10] (55)
00CADF  00                 [11] (55)
00CAE0  00                 [12] (55)
00CAE1  34                 [13] (55)
00CAE2  05                 [14] (55)
00CAE3  00                 [15] (55)
00CAE4  00                 [16] (55)
00CAE5  34                 [17] (55)
00CAE6  05                 [18] (55)
00CAE7  00                 [19] (56)
00CAE8  00                 [20] (56)
00CAE9  34                 [21] (56)
00CAEA  05                 [22] (56)
00CAEB  00                 [23] (57)
                           * locals:
00CB31  00                 sizelocvars (0)
                           * upvalues:
00CB32  00                 sizeupvalues (0)
                           ** end of function **

                           
00CB33                     ** function [31] definition (level 2)
                           ** start of function **
00CB33  00                 string size (0)
                           source name: (none)
00CB35  0A                 line defined (1339)
00CB36  D1                 last line defined (1361)
00CB37  0A                 nups (0)
00CB38  00                 numparams (2)
00CB39  02                 is_vararg (0)
00CB3A  00                 maxstacksize (13)
                           * code:
00CB3D  01                 sizecode (145)
00CB3E  A5000000           [001] closure    2   0      
00CB42  12000000           [002] move       0   0      
00CB46  DD000000           [003] getglobal  3   0        ; mMovie
00CB4A  E440C001           [004] self       3   3   257  ; 471456102
00CB4E  59810000           [005] loadk      5   2        ; "ArcaneUpgradeAnim.CopiedRank"
00CB52  99C10000           [006] loadk      6   3        ; "_x"
00CB56  DD010100           [007] getglobal  7   4        ; -174740002
00CB5A  1D020000           [008] getglobal  8   0        ; mMovie
00CB5E  24424104           [009] self       8   8   261  ; 1803241227
00CB62  92020000           [010] move       10  0      
00CB66  D9C20000           [011] loadk      11  3        ; "_x"
00CB6A  22020002           [012] call       8   4   0  
00CB6E  E2810000           [013] call       7   0   2  
00CB72  1D020100           [014] getglobal  8   4        ; -174740002
00CB76  5D020000           [015] getglobal  9   0        ; mMovie
00CB7A  6442C104           [016] self       9   9   261  ; 1803241227
00CB7E  D9820100           [017] loadk      11  6        ; "ArcaneUpgrader.RankList"
00CB82  19C30000           [018] loadk      12  3        ; "_x"
00CB86  62020002           [019] call       9   4   0  
00CB8A  22820000           [020] call       8   0   2  
00CB8E  C3018203           [021] add        7   7   8  
00CB92  E2408002           [022] call       3   5   1  
00CB96  DD000000           [023] getglobal  3   0        ; mMovie
00CB9A  E440C001           [024] self       3   3   257  ; 471456102
00CB9E  59810000           [025] loadk      5   2        ; "ArcaneUpgradeAnim.CopiedRank"
00CBA2  99C10100           [026] loadk      6   7        ; "_y"
00CBA6  DD010100           [027] getglobal  7   4        ; -174740002
00CBAA  1D020000           [028] getglobal  8   0        ; mMovie
00CBAE  24424104           [029] self       8   8   261  ; 1803241227
00CBB2  92020000           [030] move       10  0      
00CBB6  D9C20100           [031] loadk      11  7        ; "_y"
00CBBA  22020002           [032] call       8   4   0  
00CBBE  E2810000           [033] call       7   0   2  
00CBC2  1D020100           [034] getglobal  8   4        ; -174740002
00CBC6  5D020000           [035] getglobal  9   0        ; mMovie
00CBCA  6442C104           [036] self       9   9   261  ; 1803241227
00CBCE  D9820100           [037] loadk      11  6        ; "ArcaneUpgrader.RankList"
00CBD2  19C30100           [038] loadk      12  7        ; "_y"
00CBD6  62020002           [039] call       9   4   0  
00CBDA  22820000           [040] call       8   0   2  
00CBDE  C3018203           [041] add        7   7   8  
00CBE2  E2408002           [042] call       3   5   1  
00CBE6  DD000000           [043] getglobal  3   0        ; mMovie
00CBEA  E440C001           [044] self       3   3   257  ; 471456102
00CBEE  59010200           [045] loadk      5   8        ; "ArcaneUpgradeAnim.CopiedRank.Glow"
00CBF2  99410200           [046] loadk      6   9        ; "_color"
00CBF6  DD010000           [047] getglobal  7   0        ; mMovie
00CBFA  E441C103           [048] self       7   7   261  ; 1803241227
00CBFE  52020000           [049] move       9   0      
00CC02  99820200           [050] loadk      10  10       ; ".Glow"
00CC06  42828204           [051] concat     9   9   10 
00CC0A  99420200           [052] loadk      10  9        ; "_color"
00CC0E  E2010002           [053] call       7   4   0  
00CC12  E2400000           [054] call       3   0   1  
00CC16  DD000000           [055] getglobal  3   0        ; mMovie
00CC1A  E440C001           [056] self       3   3   257  ; 471456102
00CC1E  59C10200           [057] loadk      5   11       ; "ArcaneUpgradeAnim.CopiedRank.Desc"
00CC22  99010300           [058] loadk      6   12       ; "verticalAlignment"
00CC26  DD010000           [059] getglobal  7   0        ; mMovie
00CC2A  E441C103           [060] self       7   7   261  ; 1803241227
00CC2E  52020000           [061] move       9   0      
00CC32  99420300           [062] loadk      10  13       ; ".Desc"
00CC36  42828204           [063] concat     9   9   10 
00CC3A  99020300           [064] loadk      10  12       ; "verticalAlignment"
00CC3E  E2010002           [065] call       7   4   0  
00CC42  E2400000           [066] call       3   0   1  
00CC46  DD000000           [067] getglobal  3   0        ; mMovie
00CC4A  E440C001           [068] self       3   3   257  ; 471456102
00CC4E  59C10200           [069] loadk      5   11       ; "ArcaneUpgradeAnim.CopiedRank.Desc"
00CC52  99810300           [070] loadk      6   14       ; "text"
00CC56  DD010000           [071] getglobal  7   0        ; mMovie
00CC5A  E441C103           [072] self       7   7   261  ; 1803241227
00CC5E  52020000           [073] move       9   0      
00CC62  99420300           [074] loadk      10  13       ; ".Desc"
00CC66  42828204           [075] concat     9   9   10 
00CC6A  99820300           [076] loadk      10  14       ; "text"
00CC6E  E2010002           [077] call       7   4   0  
00CC72  E2400000           [078] call       3   0   1  
00CC76  DD000000           [079] getglobal  3   0        ; mMovie
00CC7A  E440C001           [080] self       3   3   257  ; 471456102
00CC7E  59C10300           [081] loadk      5   15       ; "ArcaneUpgradeAnim.CopiedRank.Backer"
00CC82  99010400           [082] loadk      6   16       ; "_height"
00CC86  DD010000           [083] getglobal  7   0        ; mMovie
00CC8A  E441C103           [084] self       7   7   261  ; 1803241227
00CC8E  52020000           [085] move       9   0      
00CC92  99420400           [086] loadk      10  17       ; ".Backer"
00CC96  42828204           [087] concat     9   9   10 
00CC9A  99020400           [088] loadk      10  16       ; "_height"
00CC9E  E2010002           [089] call       7   4   0  
00CCA2  E2400000           [090] call       3   0   1  
00CCA6  DD000000           [091] getglobal  3   0        ; mMovie
00CCAA  E440C001           [092] self       3   3   257  ; 471456102
00CCAE  59810400           [093] loadk      5   18       ; "ArcaneUpgradeAnim.CopiedRank.Gradient"
00CCB2  99010400           [094] loadk      6   16       ; "_height"
00CCB6  DD010000           [095] getglobal  7   0        ; mMovie
00CCBA  E441C103           [096] self       7   7   261  ; 1803241227
00CCBE  52020000           [097] move       9   0      
00CCC2  99C20400           [098] loadk      10  19       ; ".Gradient"
00CCC6  42828204           [099] concat     9   9   10 
00CCCA  99020400           [100] loadk      10  16       ; "_height"
00CCCE  E2010002           [101] call       7   4   0  
00CCD2  E2400000           [102] call       3   0   1  
00CCD6  DD000000           [103] getglobal  3   0        ; mMovie
00CCDA  E440C001           [104] self       3   3   257  ; 471456102
00CCDE  59010500           [105] loadk      5   20       ; "ArcaneUpgradeAnim.CopiedRank.Line"
00CCE2  99410500           [106] loadk      6   21       ; "_visible"
00CCE6  D7010000           [107] loadbool   7   0   0    ; false
00CCEA  E2408002           [108] call       3   5   1  
00CCEE  DD000000           [109] getglobal  3   0        ; mMovie
00CCF2  E440C001           [110] self       3   3   257  ; 471456102
00CCF6  59810500           [111] loadk      5   22       ; "ArcaneUpgradeAnim.CopiedRank.Check"
00CCFA  99410500           [112] loadk      6   21       ; "_visible"
00CCFE  D7010000           [113] loadbool   7   0   0    ; false
00CD02  E2408002           [114] call       3   5   1  
00CD06  DD000000           [115] getglobal  3   0        ; mMovie
00CD0A  E4C0C501           [116] self       3   3   279  ; 643307062
00CD0E  59010200           [117] loadk      5   8        ; "ArcaneUpgradeAnim.CopiedRank.Glow"
00CD12  9D010600           [118] getglobal  6   24       ; glowIcon
00CD16  E2400002           [119] call       3   4   1  
00CD1A  DD000000           [120] getglobal  3   0        ; mMovie
00CD1E  E4C0C501           [121] self       3   3   279  ; 643307062
00CD22  59410600           [122] loadk      5   25       ; "ArcaneUpgradeAnim.CopiedRank.Icon"
00CD26  9D810600           [123] getglobal  6   26       ; rankIcons
00CD2A  8E410003           [124] gettable   6   6   1  
00CD2E  E2400002           [125] call       3   4   1  
00CD32  DD000000           [126] getglobal  3   0        ; mMovie
00CD36  E4C0C601           [127] self       3   3   283  ; 2115970775
00CD3A  59010700           [128] loadk      5   28       ; "ArcaneUpgradeAnim.CopiedRank.IconBacker"
00CD3E  9D410700           [129] getglobal  6   29       ; _G
00CD42  8E814703           [130] gettable   6   6   286  ; "UIMaterial_RectangleNoDepth"
00CD46  E2400002           [131] call       3   4   1  
00CD4A  DD000000           [132] getglobal  3   0        ; mMovie
00CD4E  E4C0C601           [133] self       3   3   283  ; 2115970775
00CD52  59C10300           [134] loadk      5   15       ; "ArcaneUpgradeAnim.CopiedRank.Backer"
00CD56  9D410700           [135] getglobal  6   29       ; _G
00CD5A  8E814703           [136] gettable   6   6   286  ; "UIMaterial_RectangleNoDepth"
00CD5E  E2400002           [137] call       3   4   1  
00CD62  DD000000           [138] getglobal  3   0        ; mMovie
00CD66  E4C0C701           [139] self       3   3   287  ; 1145284071
00CD6A  59810400           [140] loadk      5   18       ; "ArcaneUpgradeAnim.CopiedRank.Gradient"
00CD6E  9D010800           [141] getglobal  6   32       ; backerIcon
00CD72  DD410700           [142] getglobal  7   29       ; _G
00CD76  CE81C703           [143] gettable   7   7   286  ; "UIMaterial_RectangleNoDepth"
00CD7A  E2408002           [144] call       3   5   1  
00CD7E  1E008000           [145] return     0   1      
                           * constants:
00CD82  21                 sizek (33)
00CD83  04                 const type 4
00CD84  07                 string size (7)
00CD85  6D4D6F76696500     "mMovie\0"
                           const [0]: "mMovie"
00CD8C  01                 const type 3
00CD8D  66D9191C           const [1]: (471456102)
00CD91  04                 const type 4
00CD92  1D                 string size (29)
00CD93  417263616E655570+  "ArcaneUp"
00CD9B  6772616465416E69+  "gradeAni"
00CDA3  6D2E436F70696564+  "m.Copied"
00CDAB  52616E6B00         "Rank\0"
                           const [2]: "ArcaneUpgradeAnim.CopiedRank"
00CDB0  04                 const type 4
00CDB1  03                 string size (3)
00CDB2  5F7800             "_x\0"
                           const [3]: "_x"
00CDB5  01                 const type 3
00CDB6  DEAD95F5           const [4]: (-174740002)
00CDBA  01                 const type 3
00CDBB  0B477B6B           const [5]: (1803241227)
00CDBF  04                 const type 4
00CDC0  18                 string size (24)
00CDC1  417263616E655570+  "ArcaneUp"
00CDC9  6772616465722E52+  "grader.R"
00CDD1  616E6B4C69737400   "ankList\0"
                           const [6]: "ArcaneUpgrader.RankList"
00CDD9  04                 const type 4
00CDDA  03                 string size (3)
00CDDB  5F7900             "_y\0"
                           const [7]: "_y"
00CDDE  04                 const type 4
00CDDF  22                 string size (34)
00CDE0  417263616E655570+  "ArcaneUp"
00CDE8  6772616465416E69+  "gradeAni"
00CDF0  6D2E436F70696564+  "m.Copied"
00CDF8  52616E6B2E476C6F+  "Rank.Glo"
00CE00  7700               "w\0"
                           const [8]: "ArcaneUpgradeAnim.CopiedRank.Glow"
00CE02  04                 const type 4
00CE03  07                 string size (7)
00CE04  5F636F6C6F7200     "_color\0"
                           const [9]: "_color"
00CE0B  04                 const type 4
00CE0C  06                 string size (6)
00CE0D  2E476C6F7700       ".Glow\0"
                           const [10]: ".Glow"
00CE13  04                 const type 4
00CE14  22                 string size (34)
00CE15  417263616E655570+  "ArcaneUp"
00CE1D  6772616465416E69+  "gradeAni"
00CE25  6D2E436F70696564+  "m.Copied"
00CE2D  52616E6B2E446573+  "Rank.Des"
00CE35  6300               "c\0"
                           const [11]: "ArcaneUpgradeAnim.CopiedRank.Desc"
00CE37  04                 const type 4
00CE38  12                 string size (18)
00CE39  766572746963616C+  "vertical"
00CE41  416C69676E6D656E+  "Alignmen"
00CE49  7400               "t\0"
                           const [12]: "verticalAlignment"
00CE4B  04                 const type 4
00CE4C  06                 string size (6)
00CE4D  2E4465736300       ".Desc\0"
                           const [13]: ".Desc"
00CE53  04                 const type 4
00CE54  05                 string size (5)
00CE55  7465787400         "text\0"
                           const [14]: "text"
00CE5A  04                 const type 4
00CE5B  24                 string size (36)
00CE5C  417263616E655570+  "ArcaneUp"
00CE64  6772616465416E69+  "gradeAni"
00CE6C  6D2E436F70696564+  "m.Copied"
00CE74  52616E6B2E426163+  "Rank.Bac"
00CE7C  6B657200           "ker\0"
                           const [15]: "ArcaneUpgradeAnim.CopiedRank.Backer"
00CE80  04                 const type 4
00CE81  08                 string size (8)
00CE82  5F68656967687400   "_height\0"
                           const [16]: "_height"
00CE8A  04                 const type 4
00CE8B  08                 string size (8)
00CE8C  2E4261636B657200   ".Backer\0"
                           const [17]: ".Backer"
00CE94  04                 const type 4
00CE95  26                 string size (38)
00CE96  417263616E655570+  "ArcaneUp"
00CE9E  6772616465416E69+  "gradeAni"
00CEA6  6D2E436F70696564+  "m.Copied"
00CEAE  52616E6B2E477261+  "Rank.Gra"
00CEB6  6469656E7400       "dient\0"
                           const [18]: "ArcaneUpgradeAnim.CopiedRank.Gradient"
00CEBC  04                 const type 4
00CEBD  0A                 string size (10)
00CEBE  2E4772616469656E+  ".Gradien"
00CEC6  7400               "t\0"
                           const [19]: ".Gradient"
00CEC8  04                 const type 4
00CEC9  22                 string size (34)
00CECA  417263616E655570+  "ArcaneUp"
00CED2  6772616465416E69+  "gradeAni"
00CEDA  6D2E436F70696564+  "m.Copied"
00CEE2  52616E6B2E4C696E+  "Rank.Lin"
00CEEA  6500               "e\0"
                           const [20]: "ArcaneUpgradeAnim.CopiedRank.Line"
00CEEC  04                 const type 4
00CEED  09                 string size (9)
00CEEE  5F76697369626C65+  "_visible"
00CEF6  00                 "\0"
                           const [21]: "_visible"
00CEF7  04                 const type 4
00CEF8  23                 string size (35)
00CEF9  417263616E655570+  "ArcaneUp"
00CF01  6772616465416E69+  "gradeAni"
00CF09  6D2E436F70696564+  "m.Copied"
00CF11  52616E6B2E436865+  "Rank.Che"
00CF19  636B00             "ck\0"
                           const [22]: "ArcaneUpgradeAnim.CopiedRank.Check"
00CF1C  01                 const type 3
00CF1D  36165826           const [23]: (643307062)
00CF21  04                 const type 4
00CF22  09                 string size (9)
00CF23  676C6F7749636F6E+  "glowIcon"
00CF2B  00                 "\0"
                           const [24]: "glowIcon"
00CF2C  04                 const type 4
00CF2D  22                 string size (34)
00CF2E  417263616E655570+  "ArcaneUp"
00CF36  6772616465416E69+  "gradeAni"
00CF3E  6D2E436F70696564+  "m.Copied"
00CF46  52616E6B2E49636F+  "Rank.Ico"
00CF4E  6E00               "n\0"
                           const [25]: "ArcaneUpgradeAnim.CopiedRank.Icon"
00CF50  04                 const type 4
00CF51  0A                 string size (10)
00CF52  72616E6B49636F6E+  "rankIcon"
00CF5A  7300               "s\0"
                           const [26]: "rankIcons"
00CF5C  01                 const type 3
00CF5D  D7261F7E           const [27]: (2115970775)
00CF61  04                 const type 4
00CF62  28                 string size (40)
00CF63  417263616E655570+  "ArcaneUp"
00CF6B  6772616465416E69+  "gradeAni"
00CF73  6D2E436F70696564+  "m.Copied"
00CF7B  52616E6B2E49636F+  "Rank.Ico"
00CF83  6E4261636B657200   "nBacker\0"
                           const [28]: "ArcaneUpgradeAnim.CopiedRank.IconBacker"
00CF8B  04                 const type 4
00CF8C  03                 string size (3)
00CF8D  5F4700             "_G\0"
                           const [29]: "_G"
00CF90  04                 const type 4
00CF91  1C                 string size (28)
00CF92  55494D6174657269+  "UIMateri"
00CF9A  616C5F5265637461+  "al_Recta"
00CFA2  6E676C654E6F4465+  "ngleNoDe"
00CFAA  70746800           "pth\0"
                           const [30]: "UIMaterial_RectangleNoDepth"
00CFAE  01                 const type 3
00CFAF  E7A54344           const [31]: (1145284071)
00CFB3  04                 const type 4
00CFB4  0B                 string size (11)
00CFB5  6261636B65724963+  "backerIc"
00CFBD  6F6E00             "on\0"
                           const [32]: "backerIcon"
                           * functions:
00CFC0  01                 sizep (1)
                           
00CFC1                     ** function [0] definition (level 3)
                           ** start of function **
00CFC1  00                 string size (0)
                           source name: (none)
00CFC3  0A                 line defined (1340)
00CFC4  C0                 last line defined (1344)
00CFC5  0A                 nups (1)
00CFC6  01                 numparams (2)
00CFC7  02                 is_vararg (0)
00CFC8  00                 maxstacksize (12)
                           * code:
00CFCA  11                 sizecode (17)
00CFCB  93000000           [01] getupval   2   0      
00CFCF  D2000000           [02] move       3   0      
00CFD3  82C00001           [03] concat     2   2   3  
00CFD7  D9000000           [04] loadk      3   0        ; "ArcaneUpgradeAnim.CopiedRank"
00CFDB  12010000           [05] move       4   0      
00CFDF  C2008101           [06] concat     3   3   4  
00CFE3  1D410000           [07] getglobal  4   1        ; mMovie
00CFE7  24814002           [08] self       4   4   258  ; 471456102
00CFEB  92018001           [09] move       6   3      
00CFEF  D2018000           [10] move       7   1      
00CFF3  1D420000           [11] getglobal  8   1        ; mMovie
00CFF7  24C24004           [12] self       8   8   259  ; 1803241227
00CFFB  92020001           [13] move       10  2      
00CFFF  D2028000           [14] move       11  1      
00D003  22020002           [15] call       8   4   0  
00D007  22410000           [16] call       4   0   1  
00D00B  1E008000           [17] return     0   1      
                           * constants:
00D00F  04                 sizek (4)
00D010  04                 const type 4
00D011  1D                 string size (29)
00D012  417263616E655570+  "ArcaneUp"
00D01A  6772616465416E69+  "gradeAni"
00D022  6D2E436F70696564+  "m.Copied"
00D02A  52616E6B00         "Rank\0"
                           const [0]: "ArcaneUpgradeAnim.CopiedRank"
00D02F  04                 const type 4
00D030  07                 string size (7)
00D031  6D4D6F76696500     "mMovie\0"
                           const [1]: "mMovie"
00D038  01                 const type 3
00D039  66D9191C           const [2]: (471456102)
00D03D  01                 const type 3
00D03E  0B477B6B           const [3]: (1803241227)
                           * functions:
00D042  00                 sizep (0)
                           * lines:
00D043  11                 sizelineinfo (17)
                           [pc] (line)
00D044  3D                 [01] (61)
00D045  05                 [02] (61)
00D046  00                 [03] (61)
00D047  00                 [04] (62)
00D048  3D                 [05] (62)
00D049  05                 [06] (62)
00D04A  00                 [07] (63)
00D04B  00                 [08] (63)
00D04C  3D                 [09] (63)
00D04D  05                 [10] (63)
00D04E  00                 [11] (63)
00D04F  00                 [12] (63)
00D050  3E                 [13] (63)
00D051  05                 [14] (63)
00D052  00                 [15] (63)
00D053  00                 [16] (63)
00D054  3E                 [17] (64)
                           * locals:
00D088  00                 sizelocvars (0)
                           * upvalues:
00D089  00                 sizeupvalues (0)
                           ** end of function **

                           * lines:
00D08B  01                 sizelineinfo (145)
                           [pc] (line)
00D08C  40                 [001] (64)
00D08D  05                 [002] (64)
00D08E  00                 [003] (66)
00D08F  00                 [004] (66)
00D090  40                 [005] (66)
00D091  05                 [006] (66)
00D092  00                 [007] (66)
00D093  00                 [008] (66)
00D094  42                 [009] (66)
00D095  05                 [010] (66)
00D096  00                 [011] (66)
00D097  00                 [012] (66)
00D098  42                 [013] (66)
00D099  05                 [014] (66)
00D09A  00                 [015] (66)
00D09B  00                 [016] (66)
00D09C  42                 [017] (66)
00D09D  05                 [018] (66)
00D09E  00                 [019] (66)
00D09F  00                 [020] (66)
00D0A0  42                 [021] (66)
00D0A1  05                 [022] (66)
00D0A2  00                 [023] (67)
00D0A3  00                 [024] (67)
00D0A4  42                 [025] (67)
00D0A5  05                 [026] (67)
00D0A6  00                 [027] (67)
00D0A7  00                 [028] (67)
00D0A8  42                 [029] (67)
00D0A9  05                 [030] (67)
00D0AA  00                 [031] (67)
00D0AB  00                 [032] (67)
00D0AC  42                 [033] (67)
00D0AD  05                 [034] (67)
00D0AE  00                 [035] (67)
00D0AF  00                 [036] (67)
00D0B0  42                 [037] (67)
00D0B1  05                 [038] (67)
00D0B2  00                 [039] (67)
00D0B3  00                 [040] (67)
00D0B4  42                 [041] (67)
00D0B5  05                 [042] (67)
00D0B6  00                 [043] (68)
00D0B7  00                 [044] (68)
00D0B8  42                 [045] (68)
00D0B9  05                 [046] (68)
00D0BA  00                 [047] (68)
00D0BB  00                 [048] (68)
00D0BC  42                 [049] (68)
00D0BD  05                 [050] (68)
00D0BE  00                 [051] (68)
00D0BF  00                 [052] (68)
00D0C0  42                 [053] (68)
00D0C1  05                 [054] (68)
00D0C2  00                 [055] (69)
00D0C3  00                 [056] (69)
00D0C4  42                 [057] (69)
00D0C5  05                 [058] (69)
00D0C6  00                 [059] (69)
00D0C7  00                 [060] (69)
00D0C8  42                 [061] (69)
00D0C9  05                 [062] (69)
00D0CA  00                 [063] (69)
00D0CB  00                 [064] (69)
00D0CC  42                 [065] (69)
00D0CD  05                 [066] (69)
00D0CE  00                 [067] (70)
00D0CF  00                 [068] (70)
00D0D0  42                 [069] (70)
00D0D1  05                 [070] (70)
00D0D2  00                 [071] (70)
00D0D3  00                 [072] (70)
00D0D4  42                 [073] (70)
00D0D5  05                 [074] (70)
00D0D6  00                 [075] (70)
00D0D7  00                 [076] (70)
00D0D8  42                 [077] (70)
00D0D9  05                 [078] (70)
00D0DA  00                 [079] (71)
00D0DB  00                 [080] (71)
00D0DC  42                 [081] (71)
00D0DD  05                 [082] (71)
00D0DE  00                 [083] (71)
00D0DF  00                 [084] (71)
00D0E0  42                 [085] (71)
00D0E1  05                 [086] (71)
00D0E2  00                 [087] (71)
00D0E3  00                 [088] (71)
00D0E4  43                 [089] (71)
00D0E5  05                 [090] (71)
00D0E6  00                 [091] (72)
00D0E7  00                 [092] (72)
00D0E8  43                 [093] (72)
00D0E9  05                 [094] (72)
00D0EA  00                 [095] (72)
00D0EB  00                 [096] (72)
00D0EC  43                 [097] (72)
00D0ED  05                 [098] (72)
00D0EE  00                 [099] (72)
00D0EF  00                 [100] (72)
00D0F0  43                 [101] (72)
00D0F1  05                 [102] (72)
00D0F2  00                 [103] (73)
00D0F3  00                 [104] (73)
00D0F4  43                 [105] (73)
00D0F5  05                 [106] (73)
00D0F6  00                 [107] (73)
00D0F7  00                 [108] (73)
00D0F8  43                 [109] (74)
00D0F9  05                 [110] (74)
00D0FA  00                 [111] (74)
00D0FB  00                 [112] (74)
00D0FC  43                 [113] (74)
00D0FD  05                 [114] (74)
00D0FE  00                 [115] (76)
00D0FF  00                 [116] (76)
00D100  43                 [117] (76)
00D101  05                 [118] (76)
00D102  00                 [119] (76)
00D103  00                 [120] (77)
00D104  43                 [121] (77)
00D105  05                 [122] (77)
00D106  00                 [123] (77)
00D107  00                 [124] (77)
00D108  43                 [125] (77)
00D109  05                 [126] (78)
00D10A  00                 [127] (78)
00D10B  00                 [128] (78)
00D10C  43                 [129] (78)
00D10D  05                 [130] (78)
00D10E  00                 [131] (78)
00D10F  00                 [132] (79)
00D110  43                 [133] (79)
00D111  05                 [134] (79)
00D112  00                 [135] (79)
00D113  00                 [136] (79)
00D114  43                 [137] (79)
00D115  05                 [138] (80)
00D116  00                 [139] (80)
00D117  00                 [140] (80)
00D118  43                 [141] (80)
00D119  05                 [142] (80)
00D11A  00                 [143] (80)
00D11B  00                 [144] (80)
00D11C  43                 [145] (81)
                           * locals:
00D2D0  00                 sizelocvars (0)
                           * upvalues:
00D2D1  00                 sizeupvalues (0)
                           ** end of function **

                           
00D2D2                     ** function [32] definition (level 2)
                           ** start of function **
00D2D2  00                 string size (0)
                           source name: (none)
00D2D4  0A                 line defined (1363)
00D2D5  EE                 last line defined (1390)
00D2D6  0A                 nups (4)
00D2D7  04                 numparams (1)
00D2D8  01                 is_vararg (0)
00D2D9  00                 maxstacksize (14)
                           * code:
00D2DC  01                 sizecode (138)
00D2DD  53000000           [001] getupval   1   0      
00D2E1  4E00C000           [002] gettable   1   1   256  ; 630793108
00D2E5  9D400000           [003] getglobal  2   1        ; installStartSound
00D2E9  62400001           [004] call       1   2   1  
00D2ED  53008000           [005] getupval   1   1      
00D2F1  4380C000           [006] add        1   1   258  ; 0
00D2F5  99C00000           [007] loadk      2   3        ; "ArcaneUpgrader.RankList.Rank"
00D2F9  D2008000           [008] move       3   1      
00D2FD  82C00001           [009] concat     2   2   3  
00D301  DD000100           [010] getglobal  3   4        ; -174740002
00D305  1D410100           [011] getglobal  4   5        ; mMovie
00D309  24814102           [012] self       4   4   262  ; 1803241227
00D30D  99C10100           [013] loadk      6   7        ; "ArcaneUpgrader.Icon"
00D311  D9010200           [014] loadk      7   8        ; "_width"
00D315  22010002           [015] call       4   4   0  
00D319  E2800000           [016] call       3   0   2  
00D31D  1D010100           [017] getglobal  4   4        ; -174740002
00D321  5D410100           [018] getglobal  5   5        ; mMovie
00D325  6481C102           [019] self       5   5   262  ; 1803241227
00D329  D9410200           [020] loadk      7   9        ; "ArcaneUpgradeAnim.Arcane.Icon"
00D32D  19020200           [021] loadk      8   8        ; "_width"
00D331  62010002           [022] call       5   4   0  
00D335  22810000           [023] call       4   0   2  
00D339  DC008101           [024] div        3   3   4  
00D33D  C480C201           [025] mul        3   3   266  ; 0
00D341  13010001           [026] getupval   4   2      
00D345  52010001           [027] move       5   2      
00D349  92018000           [028] move       6   1      
00D34D  22418001           [029] call       4   3   1  
00D351  1D410100           [030] getglobal  4   5        ; mMovie
00D355  24C14202           [031] self       4   4   267  ; 471456102
00D359  92010001           [032] move       6   2      
00D35D  D9010300           [033] loadk      7   12       ; "_visible"
00D361  17020000           [034] loadbool   8   0   0    ; false
00D365  22418002           [035] call       4   5   1  
00D369  1D410100           [036] getglobal  4   5        ; mMovie
00D36D  24C14202           [037] self       4   4   267  ; 471456102
00D371  99C10100           [038] loadk      6   7        ; "ArcaneUpgrader.Icon"
00D375  D9410300           [039] loadk      7   13       ; "_alpha"
00D379  19820300           [040] loadk      8   14       ; 0
00D37D  22418002           [041] call       4   5   1  
00D381  1D410100           [042] getglobal  4   5        ; mMovie
00D385  24C14202           [043] self       4   4   267  ; 471456102
00D389  99C10300           [044] loadk      6   15       ; "ArcaneUpgradeAnim.CopiedRank"
00D38D  D9010300           [045] loadk      7   12       ; "_visible"
00D391  17028000           [046] loadbool   8   1   0    ; true
00D395  22418002           [047] call       4   5   1  
00D399  1D410100           [048] getglobal  4   5        ; mMovie
00D39D  24C14202           [049] self       4   4   267  ; 471456102
00D3A1  99010400           [050] loadk      6   16       ; "ArcaneUpgradeAnim.Arcane"
00D3A5  D9010300           [051] loadk      7   12       ; "_visible"
00D3A9  17028000           [052] loadbool   8   1   0    ; true
00D3AD  22418002           [053] call       4   5   1  
00D3B1  1D410100           [054] getglobal  4   5        ; mMovie
00D3B5  24C14202           [055] self       4   4   267  ; 471456102
00D3B9  99010400           [056] loadk      6   16       ; "ArcaneUpgradeAnim.Arcane"
00D3BD  D9410400           [057] loadk      7   17       ; "_xscale"
00D3C1  12028001           [058] move       8   3      
00D3C5  22418002           [059] call       4   5   1  
00D3C9  1D410100           [060] getglobal  4   5        ; mMovie
00D3CD  24C14202           [061] self       4   4   267  ; 471456102
00D3D1  99010400           [062] loadk      6   16       ; "ArcaneUpgradeAnim.Arcane"
00D3D5  D9810400           [063] loadk      7   18       ; "_yscale"
00D3D9  12028001           [064] move       8   3      
00D3DD  22418002           [065] call       4   5   1  
00D3E1  1D410100           [066] getglobal  4   5        ; mMovie
00D3E5  24C14202           [067] self       4   4   267  ; 471456102
00D3E9  99010400           [068] loadk      6   16       ; "ArcaneUpgradeAnim.Arcane"
00D3ED  D9C10400           [069] loadk      7   19       ; "_y"
00D3F1  1D420100           [070] getglobal  8   5        ; mMovie
00D3F5  24824104           [071] self       8   8   262  ; 1803241227
00D3F9  99C20100           [072] loadk      10  7        ; "ArcaneUpgrader.Icon"
00D3FD  D9C20400           [073] loadk      11  19       ; "_y"
00D401  22020002           [074] call       8   4   0  
00D405  22410000           [075] call       4   0   1  
00D409  1D410100           [076] getglobal  4   5        ; mMovie
00D40D  24C14202           [077] self       4   4   267  ; 471456102
00D411  99010400           [078] loadk      6   16       ; "ArcaneUpgradeAnim.Arcane"
00D415  D9010500           [079] loadk      7   20       ; "_x"
00D419  1D420100           [080] getglobal  8   5        ; mMovie
00D41D  24824104           [081] self       8   8   262  ; 1803241227
00D421  99C20100           [082] loadk      10  7        ; "ArcaneUpgrader.Icon"
00D425  D9020500           [083] loadk      11  20       ; "_x"
00D429  22020002           [084] call       8   4   0  
00D42D  22410000           [085] call       4   0   1  
00D431  1D410500           [086] getglobal  4   21       ; 1390508688
00D435  5D410100           [087] getglobal  5   5        ; mMovie
00D439  99C10300           [088] loadk      6   15       ; "ArcaneUpgradeAnim.CopiedRank"
00D43D  DD810500           [089] getglobal  7   22       ; UISys
00D441  CEC1C503           [090] gettable   7   7   279  ; "FlashInstance_EASE_OUT"
00D445  0B028000           [091] newtable   8   1   0    ; array=1, hash=0
00D449  59C20400           [092] loadk      9   19       ; "_y"
00D44D  1B428000           [093] setlist    8   1   1    ; index 1 to 1
00D451  4B028000           [094] newtable   9   1   0    ; array=1, hash=0
00D455  99020600           [095] loadk      10  24       ; 0
00D459  5B428000           [096] setlist    9   1   1    ; index 1 to 1
00D45D  99420600           [097] loadk      10  25       ; 0
00D461  22418003           [098] call       4   7   1  
00D465  1D410500           [099] getglobal  4   21       ; 1390508688
00D469  5D410100           [100] getglobal  5   5        ; mMovie
00D46D  99810600           [101] loadk      6   26       ; "ArcaneUpgrader"
00D471  DD810500           [102] getglobal  7   22       ; UISys
00D475  CEC1C503           [103] gettable   7   7   279  ; "FlashInstance_EASE_OUT"
00D479  0B028000           [104] newtable   8   1   0    ; array=1, hash=0
00D47D  59420300           [105] loadk      9   13       ; "_alpha"
00D481  1B428000           [106] setlist    8   1   1    ; index 1 to 1
00D485  4B028000           [107] newtable   9   1   0    ; array=1, hash=0
00D489  99820300           [108] loadk      10  14       ; 0
00D48D  5B428000           [109] setlist    9   1   1    ; index 1 to 1
00D491  99420600           [110] loadk      10  25       ; 0
00D495  D9820300           [111] loadk      11  14       ; 0
00D499  25030000           [112] closure    12  0      
00D49D  12000001           [113] move       0   2      
00D4A1  22418004           [114] call       4   9   1  
00D4A5  1D410500           [115] getglobal  4   21       ; 1390508688
00D4A9  5D410100           [116] getglobal  5   5        ; mMovie
00D4AD  99010400           [117] loadk      6   16       ; "ArcaneUpgradeAnim.Arcane"
00D4B1  DD810500           [118] getglobal  7   22       ; UISys
00D4B5  CEC1C603           [119] gettable   7   7   283  ; "FlashInstance_EASE_OUT_BACK"
00D4B9  0B020002           [120] newtable   8   4   0    ; array=4, hash=0
00D4BD  59020500           [121] loadk      9   20       ; "_x"
00D4C1  99C20400           [122] loadk      10  19       ; "_y"
00D4C5  D9420400           [123] loadk      11  17       ; "_xscale"
00D4C9  19830400           [124] loadk      12  18       ; "_yscale"
00D4CD  1B420002           [125] setlist    8   4   1    ; index 1 to 4
00D4D1  4B020002           [126] newtable   9   4   0    ; array=4, hash=0
00D4D5  99020700           [127] loadk      10  28       ; 0
00D4D9  D9420700           [128] loadk      11  29       ; 0
00D4DD  19830200           [129] loadk      12  10       ; 0
00D4E1  59830200           [130] loadk      13  10       ; 0
00D4E5  5B420002           [131] setlist    9   4   1    ; index 1 to 4
00D4E9  99420600           [132] loadk      10  25       ; 0
00D4ED  D9820300           [133] loadk      11  14       ; 0
00D4F1  25430000           [134] closure    12  1      
00D4F5  12000000           [135] move       0   0      
00D4F9  13008001           [136] getupval   0   3      
00D4FD  22418004           [137] call       4   9   1  
00D501  1E008000           [138] return     0   1      
                           * constants:
00D505  1E                 sizek (30)
00D506  01                 const type 3
00D507  94239925           const [0]: (630793108)
00D50B  04                 const type 4
00D50C  12                 string size (18)
00D50D  696E7374616C6C53+  "installS"
00D515  74617274536F756E+  "tartSoun"
00D51D  6400               "d\0"
                           const [1]: "installStartSound"
00D51F  03                 const type 3
00D520  0000803F           const [2]: (0)
00D524  04                 const type 4
00D525  1D                 string size (29)
00D526  417263616E655570+  "ArcaneUp"
00D52E  6772616465722E52+  "grader.R"
00D536  616E6B4C6973742E+  "ankList."
00D53E  52616E6B00         "Rank\0"
                           const [3]: "ArcaneUpgrader.RankList.Rank"
00D543  01                 const type 3
00D544  DEAD95F5           const [4]: (-174740002)
00D548  04                 const type 4
00D549  07                 string size (7)
00D54A  6D4D6F76696500     "mMovie\0"
                           const [5]: "mMovie"
00D551  01                 const type 3
00D552  0B477B6B           const [6]: (1803241227)
00D556  04                 const type 4
00D557  14                 string size (20)
00D558  417263616E655570+  "ArcaneUp"
00D560  6772616465722E49+  "grader.I"
00D568  636F6E00           "con\0"
                           const [7]: "ArcaneUpgrader.Icon"
00D56C  04                 const type 4
00D56D  07                 string size (7)
00D56E  5F776964746800     "_width\0"
                           const [8]: "_width"
00D575  04                 const type 4
00D576  1E                 string size (30)
00D577  417263616E655570+  "ArcaneUp"
00D57F  6772616465416E69+  "gradeAni"
00D587  6D2E417263616E65+  "m.Arcane"
00D58F  2E49636F6E00       ".Icon\0"
                           const [9]: "ArcaneUpgradeAnim.Arcane.Icon"
00D595  03                 const type 3
00D596  0000C842           const [10]: (0)
00D59A  01                 const type 3
00D59B  66D9191C           const [11]: (471456102)
00D59F  04                 const type 4
00D5A0  09                 string size (9)
00D5A1  5F76697369626C65+  "_visible"
00D5A9  00                 "\0"
                           const [12]: "_visible"
00D5AA  04                 const type 4
00D5AB  07                 string size (7)
00D5AC  5F616C70686100     "_alpha\0"
                           const [13]: "_alpha"
00D5B3  03                 const type 3
00D5B4  00000000           const [14]: (0)
00D5B8  04                 const type 4
00D5B9  1D                 string size (29)
00D5BA  417263616E655570+  "ArcaneUp"
00D5C2  6772616465416E69+  "gradeAni"
00D5CA  6D2E436F70696564+  "m.Copied"
00D5D2  52616E6B00         "Rank\0"
                           const [15]: "ArcaneUpgradeAnim.CopiedRank"
00D5D7  04                 const type 4
00D5D8  19                 string size (25)
00D5D9  417263616E655570+  "ArcaneUp"
00D5E1  6772616465416E69+  "gradeAni"
00D5E9  6D2E417263616E65+  "m.Arcane"
00D5F1  00                 "\0"
                           const [16]: "ArcaneUpgradeAnim.Arcane"
00D5F2  04                 const type 4
00D5F3  08                 string size (8)
00D5F4  5F787363616C6500   "_xscale\0"
                           const [17]: "_xscale"
00D5FC  04                 const type 4
00D5FD  08                 string size (8)
00D5FE  5F797363616C6500   "_yscale\0"
                           const [18]: "_yscale"
00D606  04                 const type 4
00D607  03                 string size (3)
00D608  5F7900             "_y\0"
                           const [19]: "_y"
00D60B  04                 const type 4
00D60C  03                 string size (3)
00D60D  5F7800             "_x\0"
                           const [20]: "_x"
00D610  01                 const type 3
00D611  907AE152           const [21]: (1390508688)
00D615  04                 const type 4
00D616  06                 string size (6)
00D617  554953797300       "UISys\0"
                           const [22]: "UISys"
00D61D  04                 const type 4
00D61E  17                 string size (23)
00D61F  466C617368496E73+  "FlashIns"
00D627  74616E63655F4541+  "tance_EA"
00D62F  53455F4F555400     "SE_OUT\0"
                           const [23]: "FlashInstance_EASE_OUT"
00D636  03                 const type 3
00D637  0000FA43           const [24]: (0)
00D63B  03                 const type 3
00D63C  0000003F           const [25]: (0)
00D640  04                 const type 4
00D641  0F                 string size (15)
00D642  417263616E655570+  "ArcaneUp"
00D64A  67726164657200     "grader\0"
                           const [26]: "ArcaneUpgrader"
00D651  04                 const type 4
00D652  1C                 string size (28)
00D653  466C617368496E73+  "FlashIns"
00D65B  74616E63655F4541+  "tance_EA"
00D663  53455F4F55545F42+  "SE_OUT_B"
00D66B  41434B00           "ACK\0"
                           const [27]: "FlashInstance_EASE_OUT_BACK"
00D66F  03                 const type 3
00D670  008089C3           const [28]: (0)
00D674  03                 const type 3
00D675  00004843           const [29]: (0)
                           * functions:
00D679  02                 sizep (2)
                           
00D67A                     ** function [0] definition (level 3)
                           ** start of function **
00D67A  00                 string size (0)
                           source name: (none)
00D67C  0A                 line defined (1380)
00D67D  E6                 last line defined (1382)
00D67E  0A                 nups (1)
00D67F  01                 numparams (0)
00D680  00                 is_vararg (0)
00D681  00                 maxstacksize (5)
                           * code:
00D683  07                 sizecode (7)
00D684  1D000000           [1] getglobal  0   0        ; mMovie
00D688  24404000           [2] self       0   0   257  ; 471456102
00D68C  93000000           [3] getupval   2   0      
00D690  D9800000           [4] loadk      3   2        ; "_visible"
00D694  17018000           [5] loadbool   4   1   0    ; true
00D698  22408002           [6] call       0   5   1  
00D69C  1E008000           [7] return     0   1      
                           * constants:
00D6A0  03                 sizek (3)
00D6A1  04                 const type 4
00D6A2  07                 string size (7)
00D6A3  6D4D6F76696500     "mMovie\0"
                           const [0]: "mMovie"
00D6AA  01                 const type 3
00D6AB  66D9191C           const [1]: (471456102)
00D6AF  04                 const type 4
00D6B0  09                 string size (9)
00D6B1  5F76697369626C65+  "_visible"
00D6B9  00                 "\0"
                           const [2]: "_visible"
                           * functions:
00D6BA  00                 sizep (0)
                           * lines:
00D6BB  07                 sizelineinfo (7)
                           [pc] (line)
00D6BC  65                 [1] (101)
00D6BD  05                 [2] (101)
00D6BE  00                 [3] (101)
00D6BF  00                 [4] (101)
00D6C0  65                 [5] (101)
00D6C1  05                 [6] (101)
00D6C2  00                 [7] (102)
                           * locals:
00D6D8  00                 sizelocvars (0)
                           * upvalues:
00D6D9  00                 sizeupvalues (0)
                           ** end of function **

                           
00D6DA                     ** function [1] definition (level 3)
                           ** start of function **
00D6DA  00                 string size (0)
                           source name: (none)
00D6DC  0A                 line defined (1384)
00D6DD  ED                 last line defined (1389)
00D6DE  0A                 nups (2)
00D6DF  02                 numparams (0)
00D6E0  00                 is_vararg (0)
00D6E1  00                 maxstacksize (4)
                           * code:
00D6E3  0D                 sizecode (13)
00D6E4  1D000000           [01] getglobal  0   0        ; -1939558487
00D6E8  5D400000           [02] getglobal  1   1        ; mMovie
00D6EC  99800000           [03] loadk      2   2        ; "ArcaneUpgradeAnim.Arcane.Loom.gotoAndPlay"
00D6F0  D9C00000           [04] loadk      3   3        ; 0
00D6F4  22400002           [05] call       0   4   1  
00D6F8  13000000           [06] getupval   0   0      
fail op	35
00D6FC  63004100           [07] close      1  
00D700  1AC00080           [08] jmp        4            ; to [13]
00D704  13008000           [09] getupval   0   1      
00D708  53000000           [10] getupval   1   0      
00D70C  97008000           [11] loadbool   2   1   0    ; true
00D710  22408001           [12] call       0   3   1  
00D714  1E008000           [13] return     0   1      
                           * constants:
00D718  05                 sizek (5)
00D719  01                 const type 3
00D71A  A9AF648C           const [0]: (-1939558487)
00D71E  04                 const type 4
00D71F  07                 string size (7)
00D720  6D4D6F76696500     "mMovie\0"
                           const [1]: "mMovie"
00D727  04                 const type 4
00D728  2A                 string size (42)
00D729  417263616E655570+  "ArcaneUp"
00D731  6772616465416E69+  "gradeAni"
00D739  6D2E417263616E65+  "m.Arcane"
00D741  2E4C6F6F6D2E676F+  ".Loom.go"
00D749  746F416E64506C61+  "toAndPla"
00D751  7900               "y\0"
                           const [2]: "ArcaneUpgradeAnim.Arcane.Loom.gotoAndPlay"
00D753  03                 const type 3
00D754  0000803F           const [3]: (0)
00D758  00                 const type 0
                           const [4]: nil
                           * functions:
00D759  00                 sizep (0)
                           * lines:
00D75A  0D                 sizelineinfo (13)
                           [pc] (line)
00D75B  69                 [01] (105)
00D75C  05                 [02] (105)
00D75D  00                 [03] (105)
00D75E  00                 [04] (105)
00D75F  69                 [05] (105)
00D760  05                 [06] (106)
00D761  00                 [07] (106)
00D762  00                 [08] (106)
00D763  69                 [09] (107)
00D764  05                 [10] (107)
00D765  00                 [11] (107)
00D766  00                 [12] (107)
00D767  69                 [13] (109)
                           * locals:
00D78F  00                 sizelocvars (0)
                           * upvalues:
00D790  00                 sizeupvalues (0)
                           ** end of function **

                           * lines:
00D792  01                 sizelineinfo (138)
                           [pc] (line)
00D793  54                 [001] (84)
00D794  05                 [002] (84)
00D795  00                 [003] (84)
00D796  00                 [004] (84)
00D797  54                 [005] (85)
00D798  05                 [006] (85)
00D799  00                 [007] (86)
00D79A  00                 [008] (86)
00D79B  54                 [009] (86)
00D79C  05                 [010] (87)
00D79D  00                 [011] (87)
00D79E  00                 [012] (87)
00D79F  54                 [013] (87)
00D7A0  05                 [014] (87)
00D7A1  00                 [015] (87)
00D7A2  00                 [016] (87)
00D7A3  55                 [017] (87)
00D7A4  05                 [018] (87)
00D7A5  00                 [019] (87)
00D7A6  00                 [020] (87)
00D7A7  55                 [021] (87)
00D7A8  05                 [022] (87)
00D7A9  00                 [023] (87)
00D7AA  00                 [024] (87)
00D7AB  56                 [025] (87)
00D7AC  05                 [026] (88)
00D7AD  00                 [027] (88)
00D7AE  00                 [028] (88)
00D7AF  56                 [029] (88)
00D7B0  05                 [030] (89)
00D7B1  00                 [031] (89)
00D7B2  00                 [032] (89)
00D7B3  56                 [033] (89)
00D7B4  05                 [034] (89)
00D7B5  00                 [035] (89)
00D7B6  00                 [036] (90)
00D7B7  57                 [037] (90)
00D7B8  05                 [038] (90)
00D7B9  00                 [039] (90)
00D7BA  00                 [040] (90)
00D7BB  57                 [041] (90)
00D7BC  05                 [042] (91)
00D7BD  00                 [043] (91)
00D7BE  00                 [044] (91)
00D7BF  57                 [045] (91)
00D7C0  05                 [046] (91)
00D7C1  00                 [047] (91)
00D7C2  00                 [048] (92)
00D7C3  57                 [049] (92)
00D7C4  05                 [050] (92)
00D7C5  00                 [051] (92)
00D7C6  00                 [052] (92)
00D7C7  57                 [053] (92)
00D7C8  05                 [054] (93)
00D7C9  00                 [055] (93)
00D7CA  00                 [056] (93)
00D7CB  57                 [057] (93)
00D7CC  05                 [058] (93)
00D7CD  00                 [059] (93)
00D7CE  00                 [060] (94)
00D7CF  57                 [061] (94)
00D7D0  05                 [062] (94)
00D7D1  00                 [063] (94)
00D7D2  00                 [064] (94)
00D7D3  57                 [065] (94)
00D7D4  05                 [066] (95)
00D7D5  00                 [067] (95)
00D7D6  00                 [068] (95)
00D7D7  57                 [069] (95)
00D7D8  05                 [070] (95)
00D7D9  00                 [071] (95)
00D7DA  00                 [072] (95)
00D7DB  57                 [073] (95)
00D7DC  05                 [074] (95)
00D7DD  00                 [075] (95)
00D7DE  00                 [076] (96)
00D7DF  57                 [077] (96)
00D7E0  05                 [078] (96)
00D7E1  00                 [079] (96)
00D7E2  00                 [080] (96)
00D7E3  57                 [081] (96)
00D7E4  05                 [082] (96)
00D7E5  00                 [083] (96)
00D7E6  00                 [084] (96)
00D7E7  57                 [085] (96)
00D7E8  05                 [086] (98)
00D7E9  00                 [087] (98)
00D7EA  00                 [088] (98)
00D7EB  57                 [089] (98)
00D7EC  05                 [090] (98)
00D7ED  00                 [091] (98)
00D7EE  00                 [092] (98)
00D7EF  57                 [093] (98)
00D7F0  05                 [094] (98)
00D7F1  00                 [095] (98)
00D7F2  00                 [096] (98)
00D7F3  57                 [097] (98)
00D7F4  05                 [098] (98)
00D7F5  00                 [099] (99)
00D7F6  00                 [100] (99)
00D7F7  58                 [101] (99)
00D7F8  05                 [102] (99)
00D7F9  00                 [103] (99)
00D7FA  00                 [104] (99)
00D7FB  58                 [105] (99)
00D7FC  05                 [106] (99)
00D7FD  00                 [107] (99)
00D7FE  00                 [108] (99)
00D7FF  58                 [109] (99)
00D800  05                 [110] (99)
00D801  00                 [111] (99)
00D802  00                 [112] (102)
00D803  58                 [113] (102)
00D804  05                 [114] (99)
00D805  00                 [115] (103)
00D806  00                 [116] (103)
00D807  59                 [117] (103)
00D808  05                 [118] (103)
00D809  00                 [119] (103)
00D80A  00                 [120] (103)
00D80B  59                 [121] (103)
00D80C  05                 [122] (103)
00D80D  00                 [123] (103)
00D80E  00                 [124] (103)
00D80F  59                 [125] (103)
00D810  05                 [126] (103)
00D811  00                 [127] (103)
00D812  00                 [128] (103)
00D813  59                 [129] (103)
00D814  05                 [130] (103)
00D815  00                 [131] (103)
00D816  00                 [132] (103)
00D817  59                 [133] (103)
00D818  05                 [134] (109)
00D819  00                 [135] (109)
00D81A  00                 [136] (109)
00D81B  59                 [137] (103)
00D81C  05                 [138] (110)
                           * locals:
00D9BB  00                 sizelocvars (0)
                           * upvalues:
00D9BC  00                 sizeupvalues (0)
                           ** end of function **

                           
00D9BD                     ** function [33] definition (level 2)
                           ** start of function **
00D9BD  00                 string size (0)
                           source name: (none)
00D9BF  0A                 line defined (1392)
00D9C0  8C                 last line defined (1420)
00D9C1  0B                 nups (3)
00D9C2  03                 numparams (0)
00D9C3  00                 is_vararg (0)
00D9C4  00                 maxstacksize (15)
                           * code:
00D9C6  5E                 sizecode (94)
00D9C7  13000000           [01] getupval   0   0      
00D9CB  0E004000           [02] gettable   0   0   256  ; 630793108
00D9CF  5D400000           [03] getglobal  1   1        ; installSuccessSound
00D9D3  22400001           [04] call       0   2   1  
00D9D7  1D800000           [05] getglobal  0   2        ; -174740002
00D9DB  5DC00000           [06] getglobal  1   3        ; mMovie
00D9DF  6400C100           [07] self       1   1   260  ; 1803241227
00D9E3  D9400100           [08] loadk      3   5        ; "ArcaneUpgrader.Icon"
00D9E7  19810100           [09] loadk      4   6        ; "_width"
00D9EB  62000002           [10] call       1   4   0  
00D9EF  22800000           [11] call       0   0   2  
00D9F3  5D800000           [12] getglobal  1   2        ; -174740002
00D9F7  9DC00000           [13] getglobal  2   3        ; mMovie
00D9FB  A4004101           [14] self       2   2   260  ; 1803241227
00D9FF  19C10100           [15] loadk      4   7        ; "ArcaneUpgradeAnim.Arcane.Icon"
00DA03  59810100           [16] loadk      5   6        ; "_width"
00DA07  A2000002           [17] call       2   4   0  
00DA0B  62800000           [18] call       1   0   2  
00DA0F  1C400000           [19] div        0   0   1  
00DA13  04004200           [20] mul        0   0   264  ; 0
00DA17  5D400200           [21] getglobal  1   9        ; 1074689893
00DA1B  9D800200           [22] getglobal  2   10       ; upgradeFx
00DA1F  62800001           [23] call       1   2   2  
00DA23  58400000           [24] test       1       1    ; to [26] if false
00DA27  1AC00380           [25] jmp        16           ; to [42]
00DA2B  53008000           [26] getupval   1   1      
00DA2F  4EC0C200           [27] gettable   1   1   267  ; 110860349
00DA33  9DC00000           [28] getglobal  2   3        ; mMovie
00DA37  D9000300           [29] loadk      3   12       ; "ArcaneUpgradeAnim.Arcane"
00DA3B  62C08001           [30] call       1   3   3  
00DA3F  D3008000           [31] getupval   3   1      
00DA43  CE40C301           [32] gettable   3   3   269  ; -1154517407
00DA47  1DC10000           [33] getglobal  4   3        ; mMovie
00DA4B  5D810200           [34] getglobal  5   10       ; upgradeFx
00DA4F  92018000           [35] move       6   1      
00DA53  D2010001           [36] move       7   2      
00DA57  E2808002           [37] call       3   5   2  
00DA5B  13018000           [38] getupval   4   1      
00DA5F  0E814302           [39] gettable   4   4   270  ; -1384654363
00DA63  52018001           [40] move       5   3      
00DA67  22410001           [41] call       4   2   1  
00DA6B  19C10300           [42] loadk      4   15       ; 0
00DA6F  5D010400           [43] getglobal  5   16       ; 1390508688
00DA73  9DC10000           [44] getglobal  6   3        ; mMovie
00DA77  D9410400           [45] loadk      7   17       ; "ArcaneUpgrader"
00DA7B  1D820400           [46] getglobal  8   18       ; UISys
00DA7F  0EC24404           [47] gettable   8   8   275  ; "FlashInstance_EASE_OUT"
00DA83  4B028000           [48] newtable   9   1   0    ; array=1, hash=0
00DA87  99020500           [49] loadk      10  20       ; "_alpha"
00DA8B  5B428000           [50] setlist    9   1   1    ; index 1 to 1
00DA8F  8B028000           [51] newtable   10  1   0    ; array=1, hash=0
00DA93  D9020200           [52] loadk      11  8        ; 0
00DA97  9B428000           [53] setlist    10  1   1    ; index 1 to 1
00DA9B  D9420500           [54] loadk      11  21       ; -102
00DA9F  12030002           [55] move       12  4      
00DAA3  62410004           [56] call       5   8   1  
00DAA7  5D010400           [57] getglobal  5   16       ; 1390508688
00DAAB  9DC10000           [58] getglobal  6   3        ; mMovie
00DAAF  D9010300           [59] loadk      7   12       ; "ArcaneUpgradeAnim.Arcane"
00DAB3  1D820400           [60] getglobal  8   18       ; UISys
00DAB7  0E824504           [61] gettable   8   8   278  ; "FlashInstance_EASE_OUT_BACK"
00DABB  4B020002           [62] newtable   9   4   0    ; array=4, hash=0
00DABF  99C20500           [63] loadk      10  23       ; "_x"
00DAC3  D9020600           [64] loadk      11  24       ; "_y"
00DAC7  19430600           [65] loadk      12  25       ; "_xscale"
00DACB  59830600           [66] loadk      13  26       ; "_yscale"
00DACF  5B420002           [67] setlist    9   4   1    ; index 1 to 4
00DAD3  8B020002           [68] newtable   10  4   0    ; array=4, hash=0
00DAD7  D9C20600           [69] loadk      11  27       ; 0
00DADB  19030700           [70] loadk      12  28       ; 0
00DADF  52030000           [71] move       13  0      
00DAE3  92030000           [72] move       14  0      
00DAE7  9B420002           [73] setlist    10  4   1    ; index 1 to 4
00DAEB  D9420500           [74] loadk      11  21       ; -102
00DAEF  12030002           [75] move       12  4      
00DAF3  65030000           [76] closure    13  0      
00DAF7  13000001           [77] getupval   0   2      
00DAFB  62418004           [78] call       5   9   1  
00DAFF  5D010400           [79] getglobal  5   16       ; 1390508688
00DB03  9DC10000           [80] getglobal  6   3        ; mMovie
00DB07  D9410700           [81] loadk      7   29       ; "ArcaneUpgradeAnim.CopiedRank"
00DB0B  1D820400           [82] getglobal  8   18       ; UISys
00DB0F  0EC24404           [83] gettable   8   8   275  ; "FlashInstance_EASE_OUT"
00DB13  4B028000           [84] newtable   9   1   0    ; array=1, hash=0
00DB17  99020500           [85] loadk      10  20       ; "_alpha"
00DB1B  5B428000           [86] setlist    9   1   1    ; index 1 to 1
00DB1F  8B028000           [87] newtable   10  1   0    ; array=1, hash=0
00DB23  D9020700           [88] loadk      11  28       ; 0
00DB27  9B428000           [89] setlist    10  1   1    ; index 1 to 1
00DB2B  D9420500           [90] loadk      11  21       ; -102
00DB2F  12030002           [91] move       12  4      
00DB33  65430000           [92] closure    13  1      
00DB37  62418004           [93] call       5   9   1  
00DB3B  1E008000           [94] return     0   1      
                           * constants:
00DB3F  1E                 sizek (30)
00DB40  01                 const type 3
00DB41  94239925           const [0]: (630793108)
00DB45  04                 const type 4
00DB46  14                 string size (20)
00DB47  696E7374616C6C53+  "installS"
00DB4F  756363657373536F+  "uccessSo"
00DB57  756E6400           "und\0"
                           const [1]: "installSuccessSound"
00DB5B  01                 const type 3
00DB5C  DEAD95F5           const [2]: (-174740002)
00DB60  04                 const type 4
00DB61  07                 string size (7)
00DB62  6D4D6F76696500     "mMovie\0"
                           const [3]: "mMovie"
00DB69  01                 const type 3
00DB6A  0B477B6B           const [4]: (1803241227)
00DB6E  04                 const type 4
00DB6F  14                 string size (20)
00DB70  417263616E655570+  "ArcaneUp"
00DB78  6772616465722E49+  "grader.I"
00DB80  636F6E00           "con\0"
                           const [5]: "ArcaneUpgrader.Icon"
00DB84  04                 const type 4
00DB85  07                 string size (7)
00DB86  5F776964746800     "_width\0"
                           const [6]: "_width"
00DB8D  04                 const type 4
00DB8E  1E                 string size (30)
00DB8F  417263616E655570+  "ArcaneUp"
00DB97  6772616465416E69+  "gradeAni"
00DB9F  6D2E417263616E65+  "m.Arcane"
00DBA7  2E49636F6E00       ".Icon\0"
                           const [7]: "ArcaneUpgradeAnim.Arcane.Icon"
00DBAD  03                 const type 3
00DBAE  0000C842           const [8]: (0)
00DBB2  01                 const type 3
00DBB3  65770E40           const [9]: (1074689893)
00DBB7  04                 const type 4
00DBB8  0A                 string size (10)
00DBB9  7570677261646546+  "upgradeF"
00DBC1  7800               "x\0"
                           const [10]: "upgradeFx"
00DBC3  01                 const type 3
00DBC4  3D989B06           const [11]: (110860349)
00DBC8  04                 const type 4
00DBC9  19                 string size (25)
00DBCA  417263616E655570+  "ArcaneUp"
00DBD2  6772616465416E69+  "gradeAni"
00DBDA  6D2E417263616E65+  "m.Arcane"
00DBE2  00                 "\0"
                           const [12]: "ArcaneUpgradeAnim.Arcane"
00DBE3  01                 const type 3
00DBE4  61762FBB           const [13]: (-1154517407)
00DBE8  01                 const type 3
00DBE9  E5D977AD           const [14]: (-1384654363)
00DBED  03                 const type 3
00DBEE  0000003F           const [15]: (0)
00DBF2  01                 const type 3
00DBF3  907AE152           const [16]: (1390508688)
00DBF7  04                 const type 4
00DBF8  0F                 string size (15)
00DBF9  417263616E655570+  "ArcaneUp"
00DC01  67726164657200     "grader\0"
                           const [17]: "ArcaneUpgrader"
00DC08  04                 const type 4
00DC09  06                 string size (6)
00DC0A  554953797300       "UISys\0"
                           const [18]: "UISys"
00DC10  04                 const type 4
00DC11  17                 string size (23)
00DC12  466C617368496E73+  "FlashIns"
00DC1A  74616E63655F4541+  "tance_EA"
00DC22  53455F4F555400     "SE_OUT\0"
                           const [19]: "FlashInstance_EASE_OUT"
00DC29  04                 const type 4
00DC2A  07                 string size (7)
00DC2B  5F616C70686100     "_alpha\0"
                           const [20]: "_alpha"
00DC32  03                 const type 3
00DC33  9A99993E           const [21]: (-102)
00DC37  04                 const type 4
00DC38  1C                 string size (28)
00DC39  466C617368496E73+  "FlashIns"
00DC41  74616E63655F4541+  "tance_EA"
00DC49  53455F4F55545F42+  "SE_OUT_B"
00DC51  41434B00           "ACK\0"
                           const [22]: "FlashInstance_EASE_OUT_BACK"
00DC55  04                 const type 4
00DC56  03                 string size (3)
00DC57  5F7800             "_x\0"
                           const [23]: "_x"
00DC5A  04                 const type 4
00DC5B  03                 string size (3)
00DC5C  5F7900             "_y\0"
                           const [24]: "_y"
00DC5F  04                 const type 4
00DC60  08                 string size (8)
00DC61  5F787363616C6500   "_xscale\0"
                           const [25]: "_xscale"
00DC69  04                 const type 4
00DC6A  08                 string size (8)
00DC6B  5F797363616C6500   "_yscale\0"
                           const [26]: "_yscale"
00DC73  03                 const type 3
00DC74  008089C3           const [27]: (0)
00DC78  03                 const type 3
00DC79  00000000           const [28]: (0)
00DC7D  04                 const type 4
00DC7E  1D                 string size (29)
00DC7F  417263616E655570+  "ArcaneUp"
00DC87  6772616465416E69+  "gradeAni"
00DC8F  6D2E436F70696564+  "m.Copied"
00DC97  52616E6B00         "Rank\0"
                           const [29]: "ArcaneUpgradeAnim.CopiedRank"
                           * functions:
00DC9C  02                 sizep (2)
                           
00DC9D                     ** function [0] definition (level 3)
                           ** start of function **
00DC9D  00                 string size (0)
                           source name: (none)
00DC9F  0A                 line defined (1406)
00DCA0  86                 last line defined (1414)
00DCA1  0B                 nups (1)
00DCA2  01                 numparams (0)
00DCA3  00                 is_vararg (0)
00DCA4  00                 maxstacksize (5)
                           * code:
00DCA6  1F                 sizecode (31)
00DCA7  1D000000           [01] getglobal  0   0        ; mMovie
00DCAB  24404000           [02] self       0   0   257  ; 471456102
00DCAF  99800000           [03] loadk      2   2        ; "ArcaneUpgradeAnim.Arcane"
00DCB3  D9C00000           [04] loadk      3   3        ; "_visible"
00DCB7  17010000           [05] loadbool   4   0   0    ; false
00DCBB  22408002           [06] call       0   5   1  
00DCBF  1D000000           [07] getglobal  0   0        ; mMovie
00DCC3  24404000           [08] self       0   0   257  ; 471456102
00DCC7  99000100           [09] loadk      2   4        ; "ArcaneUpgrader.Icon"
00DCCB  D9400100           [10] loadk      3   5        ; "_alpha"
00DCCF  19810100           [11] loadk      4   6        ; 0
00DCD3  22408002           [12] call       0   5   1  
00DCD7  1D000000           [13] getglobal  0   0        ; mMovie
00DCDB  24404000           [14] self       0   0   257  ; 471456102
00DCDF  99000100           [15] loadk      2   4        ; "ArcaneUpgrader.Icon"
00DCE3  D9C00100           [16] loadk      3   7        ; "_x"
00DCE7  19010200           [17] loadk      4   8        ; 0
00DCEB  22408002           [18] call       0   5   1  
00DCEF  1D000000           [19] getglobal  0   0        ; mMovie
00DCF3  24404000           [20] self       0   0   257  ; 471456102
00DCF7  99000100           [21] loadk      2   4        ; "ArcaneUpgrader.Icon"
00DCFB  D9400200           [22] loadk      3   9        ; "_y"
00DCFF  19810200           [23] loadk      4   10       ; 0
00DD03  22408002           [24] call       0   5   1  
00DD07  13000000           [25] getupval   0   0      
00DD0B  0C00C285           [26] settable   0   267 264  ; "LastX" 0
00DD0F  13000000           [27] getupval   0   0      
00DD13  0C804286           [28] settable   0   268 266  ; "LastY" 0
00DD17  13000000           [29] getupval   0   0      
00DD1B  0C80C286           [30] settable   0   269 266  ; "Timer" 0
00DD1F  1E008000           [31] return     0   1      
                           * constants:
00DD23  0E                 sizek (14)
00DD24  04                 const type 4
00DD25  07                 string size (7)
00DD26  6D4D6F76696500     "mMovie\0"
                           const [0]: "mMovie"
00DD2D  01                 const type 3
00DD2E  66D9191C           const [1]: (471456102)
00DD32  04                 const type 4
00DD33  19                 string size (25)
00DD34  417263616E655570+  "ArcaneUp"
00DD3C  6772616465416E69+  "gradeAni"
00DD44  6D2E417263616E65+  "m.Arcane"
00DD4C  00                 "\0"
                           const [2]: "ArcaneUpgradeAnim.Arcane"
00DD4D  04                 const type 4
00DD4E  09                 string size (9)
00DD4F  5F76697369626C65+  "_visible"
00DD57  00                 "\0"
                           const [3]: "_visible"
00DD58  04                 const type 4
00DD59  14                 string size (20)
00DD5A  417263616E655570+  "ArcaneUp"
00DD62  6772616465722E49+  "grader.I"
00DD6A  636F6E00           "con\0"
                           const [4]: "ArcaneUpgrader.Icon"
00DD6E  04                 const type 4
00DD6F  07                 string size (7)
00DD70  5F616C70686100     "_alpha\0"
                           const [5]: "_alpha"
00DD77  03                 const type 3
00DD78  0000C842           const [6]: (0)
00DD7C  04                 const type 4
00DD7D  03                 string size (3)
00DD7E  5F7800             "_x\0"
                           const [7]: "_x"
00DD81  03                 const type 3
00DD82  008089C3           const [8]: (0)
00DD86  04                 const type 4
00DD87  03                 string size (3)
00DD88  5F7900             "_y\0"
                           const [9]: "_y"
00DD8B  03                 const type 3
00DD8C  00000000           const [10]: (0)
00DD90  04                 const type 4
00DD91  06                 string size (6)
00DD92  4C6173745800       "LastX\0"
                           const [11]: "LastX"
00DD98  04                 const type 4
00DD99  06                 string size (6)
00DD9A  4C6173745900       "LastY\0"
                           const [12]: "LastY"
00DDA0  04                 const type 4
00DDA1  06                 string size (6)
00DDA2  54696D657200       "Timer\0"
                           const [13]: "Timer"
                           * functions:
00DDA8  00                 sizep (0)
                           * lines:
00DDA9  1F                 sizelineinfo (31)
                           [pc] (line)
00DDAA  7F                 [01] (127)
00DDAB  05                 [02] (127)
00DDAC  00                 [03] (127)
00DDAD  00                 [04] (127)
00DDAE  7F                 [05] (127)
00DDAF  05                 [06] (127)
00DDB0  00                 [07] (-128)
00DDB1  00                 [08] (-128)
00DDB2  7F                 [09] (-128)
00DDB3  05                 [10] (-128)
00DDB4  00                 [11] (-128)
00DDB5  00                 [12] (-128)
00DDB6  7F                 [13] (-127)
00DDB7  05                 [14] (-127)
00DDB8  00                 [15] (-127)
00DDB9  00                 [16] (-127)
00DDBA  7F                 [17] (-127)
00DDBB  05                 [18] (-127)
00DDBC  00                 [19] (-126)
00DDBD  00                 [20] (-126)
00DDBE  7F                 [21] (-126)
00DDBF  05                 [22] (-126)
00DDC0  00                 [23] (-126)
00DDC1  00                 [24] (-126)
00DDC2  80                 [25] (-125)
00DDC3  05                 [26] (-125)
00DDC4  00                 [27] (-124)
00DDC5  00                 [28] (-124)
00DDC6  80                 [29] (-123)
00DDC7  05                 [30] (-123)
00DDC8  00                 [31] (-122)
                           * locals:
00DE26  00                 sizelocvars (0)
                           * upvalues:
00DE27  00                 sizeupvalues (0)
                           ** end of function **

                           
00DE28                     ** function [1] definition (level 3)
                           ** start of function **
00DE28  00                 string size (0)
                           source name: (none)
00DE2A  0B                 line defined (1416)
00DE2B  8B                 last line defined (1419)
00DE2C  0B                 nups (0)
00DE2D  00                 numparams (0)
00DE2E  00                 is_vararg (0)
00DE2F  00                 maxstacksize (5)
                           * code:
00DE31  0D                 sizecode (13)
00DE32  1D000000           [01] getglobal  0   0        ; mMovie
00DE36  24404000           [02] self       0   0   257  ; 471456102
00DE3A  99800000           [03] loadk      2   2        ; "ArcaneUpgradeAnim.CopiedRank"
00DE3E  D9C00000           [04] loadk      3   3        ; "_visible"
00DE42  17010000           [05] loadbool   4   0   0    ; false
00DE46  22408002           [06] call       0   5   1  
00DE4A  1D000000           [07] getglobal  0   0        ; mMovie
00DE4E  24404000           [08] self       0   0   257  ; 471456102
00DE52  99800000           [09] loadk      2   2        ; "ArcaneUpgradeAnim.CopiedRank"
00DE56  D9000100           [10] loadk      3   4        ; "_alpha"
00DE5A  19410100           [11] loadk      4   5        ; 0
00DE5E  22408002           [12] call       0   5   1  
00DE62  1E008000           [13] return     0   1      
                           * constants:
00DE66  06                 sizek (6)
00DE67  04                 const type 4
00DE68  07                 string size (7)
00DE69  6D4D6F76696500     "mMovie\0"
                           const [0]: "mMovie"
00DE70  01                 const type 3
00DE71  66D9191C           const [1]: (471456102)
00DE75  04                 const type 4
00DE76  1D                 string size (29)
00DE77  417263616E655570+  "ArcaneUp"
00DE7F  6772616465416E69+  "gradeAni"
00DE87  6D2E436F70696564+  "m.Copied"
00DE8F  52616E6B00         "Rank\0"
                           const [2]: "ArcaneUpgradeAnim.CopiedRank"
00DE94  04                 const type 4
00DE95  09                 string size (9)
00DE96  5F76697369626C65+  "_visible"
00DE9E  00                 "\0"
                           const [3]: "_visible"
00DE9F  04                 const type 4
00DEA0  07                 string size (7)
00DEA1  5F616C70686100     "_alpha\0"
                           const [4]: "_alpha"
00DEA8  03                 const type 3
00DEA9  0000C842           const [5]: (0)
                           * functions:
00DEAD  00                 sizep (0)
                           * lines:
00DEAE  0D                 sizelineinfo (13)
                           [pc] (line)
00DEAF  89                 [01] (-119)
00DEB0  05                 [02] (-119)
00DEB1  00                 [03] (-119)
00DEB2  00                 [04] (-119)
00DEB3  89                 [05] (-119)
00DEB4  05                 [06] (-119)
00DEB5  00                 [07] (-118)
00DEB6  00                 [08] (-118)
00DEB7  89                 [09] (-118)
00DEB8  05                 [10] (-118)
00DEB9  00                 [11] (-118)
00DEBA  00                 [12] (-118)
00DEBB  89                 [13] (-117)
                           * locals:
00DEE3  00                 sizelocvars (0)
                           * upvalues:
00DEE4  00                 sizeupvalues (0)
                           ** end of function **

                           * lines:
00DEE5  5E                 sizelineinfo (94)
                           [pc] (line)
00DEE6  71                 [01] (113)
00DEE7  05                 [02] (113)
00DEE8  00                 [03] (113)
00DEE9  00                 [04] (113)
00DEEA  71                 [05] (115)
00DEEB  05                 [06] (115)
00DEEC  00                 [07] (115)
00DEED  00                 [08] (115)
00DEEE  71                 [09] (115)
00DEEF  05                 [10] (115)
00DEF0  00                 [11] (115)
00DEF1  00                 [12] (115)
00DEF2  71                 [13] (115)
00DEF3  05                 [14] (115)
00DEF4  00                 [15] (115)
00DEF5  00                 [16] (115)
00DEF6  73                 [17] (115)
00DEF7  05                 [18] (115)
00DEF8  00                 [19] (115)
00DEF9  00                 [20] (115)
00DEFA  73                 [21] (117)
00DEFB  05                 [22] (117)
00DEFC  00                 [23] (117)
00DEFD  00                 [24] (117)
00DEFE  73                 [25] (117)
00DEFF  05                 [26] (118)
00DF00  00                 [27] (118)
00DF01  00                 [28] (118)
00DF02  73                 [29] (118)
00DF03  05                 [30] (118)
00DF04  00                 [31] (119)
00DF05  00                 [32] (119)
00DF06  73                 [33] (119)
00DF07  05                 [34] (119)
00DF08  00                 [35] (119)
00DF09  00                 [36] (119)
00DF0A  73                 [37] (119)
00DF0B  05                 [38] (120)
00DF0C  00                 [39] (120)
00DF0D  00                 [40] (120)
00DF0E  73                 [41] (120)
00DF0F  05                 [42] (123)
00DF10  00                 [43] (124)
00DF11  00                 [44] (124)
00DF12  73                 [45] (124)
00DF13  05                 [46] (124)
00DF14  00                 [47] (124)
00DF15  00                 [48] (124)
00DF16  73                 [49] (124)
00DF17  05                 [50] (124)
00DF18  00                 [51] (124)
00DF19  00                 [52] (124)
00DF1A  73                 [53] (124)
00DF1B  05                 [54] (124)
00DF1C  00                 [55] (124)
00DF1D  00                 [56] (124)
00DF1E  73                 [57] (125)
00DF1F  05                 [58] (125)
00DF20  00                 [59] (125)
00DF21  00                 [60] (125)
00DF22  73                 [61] (125)
00DF23  05                 [62] (125)
00DF24  00                 [63] (125)
00DF25  00                 [64] (125)
00DF26  73                 [65] (125)
00DF27  05                 [66] (125)
00DF28  00                 [67] (125)
00DF29  00                 [68] (125)
00DF2A  73                 [69] (125)
00DF2B  05                 [70] (125)
00DF2C  00                 [71] (125)
00DF2D  00                 [72] (125)
00DF2E  73                 [73] (125)
00DF2F  05                 [74] (125)
00DF30  00                 [75] (125)
00DF31  00                 [76] (-122)
00DF32  73                 [77] (-122)
00DF33  05                 [78] (125)
00DF34  00                 [79] (-121)
00DF35  00                 [80] (-121)
00DF36  75                 [81] (-121)
00DF37  05                 [82] (-121)
00DF38  00                 [83] (-121)
00DF39  00                 [84] (-121)
00DF3A  75                 [85] (-121)
00DF3B  05                 [86] (-121)
00DF3C  00                 [87] (-121)
00DF3D  00                 [88] (-121)
00DF3E  75                 [89] (-121)
00DF3F  05                 [90] (-121)
00DF40  00                 [91] (-121)
00DF41  00                 [92] (-117)
00DF42  75                 [93] (-121)
00DF43  05                 [94] (-116)
                           * locals:
00E05E  00                 sizelocvars (0)
                           * upvalues:
00E05F  00                 sizeupvalues (0)
                           ** end of function **

                           
00E060                     ** function [34] definition (level 2)
                           ** start of function **
00E060  00                 string size (0)
                           source name: (none)
00E062  0B                 line defined (1422)
00E063  97                 last line defined (1431)
00E064  0B                 nups (3)
00E065  03                 numparams (2)
00E066  02                 is_vararg (0)
00E067  00                 maxstacksize (6)
                           * code:
00E069  13                 sizecode (19)
00E06A  97000000           [01] loadbool   2   0   0    ; false
fail op	8
00E06E  88000000           [02] setupval   2   0      
00E072  9D000000           [03] getglobal  2   0        ; _T
00E076  8E404001           [04] gettable   2   2   257  ; "BackgroundMovie"
00E07A  A4804001           [05] self       2   2   258  ; 1167009705
00E07E  19C10000           [06] loadk      4   3        ; "ShowBlockingMessage"
00E082  59010100           [07] loadk      5   4        ; "0"
00E086  A2400002           [08] call       2   4   1  
00E08A  18400000           [09] test       0       1    ; to [11] if false
00E08E  1A000180           [10] jmp        5            ; to [16]
00E092  93008000           [11] getupval   2   1      
00E096  8E404101           [12] gettable   2   2   261  ; 185724978
00E09A  D9800100           [13] loadk      3   6        ; "/Lotus/Language/Menu/ArcaneManager_UpgradeFailed"
00E09E  A2400001           [14] call       2   2   1  
00E0A2  1A800080           [15] jmp        3            ; to [19]
00E0A6  93000001           [16] getupval   2   2      
00E0AA  D2008000           [17] move       3   1      
00E0AE  A2400001           [18] call       2   2   1  
00E0B2  1E008000           [19] return     0   1      
                           * constants:
00E0B6  07                 sizek (7)
00E0B7  04                 const type 4
00E0B8  03                 string size (3)
00E0B9  5F5400             "_T\0"
                           const [0]: "_T"
00E0BC  04                 const type 4
00E0BD  10                 string size (16)
00E0BE  4261636B67726F75+  "Backgrou"
00E0C6  6E644D6F76696500   "ndMovie\0"
                           const [1]: "BackgroundMovie"
00E0CE  01                 const type 3
00E0CF  A9278F45           const [2]: (1167009705)
00E0D3  04                 const type 4
00E0D4  14                 string size (20)
00E0D5  53686F77426C6F63+  "ShowBloc"
00E0DD  6B696E674D657373+  "kingMess"
00E0E5  61676500           "age\0"
                           const [3]: "ShowBlockingMessage"
00E0E9  04                 const type 4
00E0EA  02                 string size (2)
00E0EB  3000               "0\0"
                           const [4]: "0"
00E0ED  01                 const type 3
00E0EE  32F0110B           const [5]: (185724978)
00E0F2  04                 const type 4
00E0F3  31                 string size (49)
00E0F4  2F4C6F7475732F4C+  "/Lotus/L"
00E0FC  616E67756167652F+  "anguage/"
00E104  4D656E752F417263+  "Menu/Arc"
00E10C  616E654D616E6167+  "aneManag"
00E114  65725F5570677261+  "er_Upgra"
00E11C  64654661696C6564+  "deFailed"
00E124  00                 "\0"
                           const [6]: "/Lotus/Language/Menu/ArcaneManager_UpgradeFailed"
                           * functions:
00E125  00                 sizep (0)
                           * lines:
00E126  13                 sizelineinfo (19)
                           [pc] (line)
00E127  8F                 [01] (-113)
00E128  05                 [02] (-113)
00E129  00                 [03] (-112)
00E12A  00                 [04] (-112)
00E12B  8F                 [05] (-112)
00E12C  05                 [06] (-112)
00E12D  00                 [07] (-112)
00E12E  00                 [08] (-112)
00E12F  90                 [09] (-110)
00E130  05                 [10] (-110)
00E131  00                 [11] (-109)
00E132  00                 [12] (-109)
00E133  90                 [13] (-109)
00E134  05                 [14] (-109)
00E135  00                 [15] (-109)
00E136  00                 [16] (-107)
00E137  90                 [17] (-107)
00E138  05                 [18] (-107)
00E139  00                 [19] (-105)
                           * locals:
00E173  00                 sizelocvars (0)
                           * upvalues:
00E174  00                 sizeupvalues (0)
                           ** end of function **

                           
00E175                     ** function [35] definition (level 2)
                           ** start of function **
00E175  00                 string size (0)
                           source name: (none)
00E177  0B                 line defined (1433)
00E178  A0                 last line defined (1440)
00E179  0B                 nups (3)
00E17A  03                 numparams (1)
00E17B  01                 is_vararg (0)
00E17C  00                 maxstacksize (6)
                           * code:
00E17E  18                 sizecode (24)
00E17F  5D000000           [01] getglobal  1   0        ; -174740002
00E183  92000000           [02] move       2   0      
00E187  62800001           [03] call       1   2   2  
00E18B  9D400000           [04] getglobal  2   1        ; Engine
00E18F  8E804001           [05] gettable   2   2   258  ; "CI_SELECT"
fail op	35
00E193  23808000           [06] close      0  
00E197  1AC00380           [07] jmp        16           ; to [24]
00E19B  57008000           [08] loadbool   1   1   0    ; true
fail op	8
00E19F  48000000           [09] setupval   1   0      
00E1A3  5DC00000           [10] getglobal  1   3        ; gGameData
00E1A7  6400C100           [11] self       1   1   260  ; 513656180
00E1AB  D3008000           [12] getupval   3   1      
00E1AF  CE40C101           [13] gettable   3   3   261  ; "mSelectedElement"
00E1B3  CE80C101           [14] gettable   3   3   262  ; "Arcane"
00E1B7  13010001           [15] getupval   4   2      
00E1BB  59C10100           [16] loadk      5   7        ; "OnUpgradeArcane"
00E1BF  62408002           [17] call       1   5   1  
00E1C3  5D000200           [18] getglobal  1   8        ; _T
00E1C7  4E40C200           [19] gettable   1   1   265  ; "BackgroundMovie"
00E1CB  6480C200           [20] self       1   1   266  ; 1167009705
00E1CF  D9C00200           [21] loadk      3   11       ; "ShowBlockingMessage"
00E1D3  19010300           [22] loadk      4   12       ; "2"
00E1D7  62400002           [23] call       1   4   1  
00E1DB  1E008000           [24] return     0   1      
                           * constants:
00E1DF  0D                 sizek (13)
00E1E0  01                 const type 3
00E1E1  DEAD95F5           const [0]: (-174740002)
00E1E5  04                 const type 4
00E1E6  07                 string size (7)
00E1E7  456E67696E6500     "Engine\0"
                           const [1]: "Engine"
00E1EE  04                 const type 4
00E1EF  0A                 string size (10)
00E1F0  43495F53454C4543+  "CI_SELEC"
00E1F8  5400               "T\0"
                           const [2]: "CI_SELECT"
00E1FA  04                 const type 4
00E1FB  0A                 string size (10)
00E1FC  6747616D65446174+  "gGameDat"
00E204  6100               "a\0"
                           const [3]: "gGameData"
00E206  01                 const type 3
00E207  74C59D1E           const [4]: (513656180)
00E20B  04                 const type 4
00E20C  11                 string size (17)
00E20D  6D53656C65637465+  "mSelecte"
00E215  64456C656D656E74+  "dElement"
00E21D  00                 "\0"
                           const [5]: "mSelectedElement"
00E21E  04                 const type 4
00E21F  07                 string size (7)
00E220  417263616E6500     "Arcane\0"
                           const [6]: "Arcane"
00E227  04                 const type 4
00E228  10                 string size (16)
00E229  4F6E557067726164+  "OnUpgrad"
00E231  65417263616E6500   "eArcane\0"
                           const [7]: "OnUpgradeArcane"
00E239  04                 const type 4
00E23A  03                 string size (3)
00E23B  5F5400             "_T\0"
                           const [8]: "_T"
00E23E  04                 const type 4
00E23F  10                 string size (16)
00E240  4261636B67726F75+  "Backgrou"
00E248  6E644D6F76696500   "ndMovie\0"
                           const [9]: "BackgroundMovie"
00E250  01                 const type 3
00E251  A9278F45           const [10]: (1167009705)
00E255  04                 const type 4
00E256  14                 string size (20)
00E257  53686F77426C6F63+  "ShowBloc"
00E25F  6B696E674D657373+  "kingMess"
00E267  61676500           "age\0"
                           const [11]: "ShowBlockingMessage"
00E26B  04                 const type 4
00E26C  02                 string size (2)
00E26D  3200               "2\0"
                           const [12]: "2"
                           * functions:
00E26F  00                 sizep (0)
                           * lines:
00E270  18                 sizelineinfo (24)
                           [pc] (line)
00E271  9A                 [01] (-102)
00E272  05                 [02] (-102)
00E273  00                 [03] (-102)
00E274  00                 [04] (-102)
00E275  9A                 [05] (-102)
00E276  05                 [06] (-102)
00E277  00                 [07] (-102)
00E278  00                 [08] (-101)
00E279  9A                 [09] (-101)
00E27A  05                 [10] (-99)
00E27B  00                 [11] (-99)
00E27C  00                 [12] (-99)
00E27D  9A                 [13] (-99)
00E27E  05                 [14] (-99)
00E27F  00                 [15] (-99)
00E280  00                 [16] (-99)
00E281  9A                 [17] (-99)
00E282  05                 [18] (-98)
00E283  00                 [19] (-98)
00E284  00                 [20] (-98)
00E285  9A                 [21] (-98)
00E286  05                 [22] (-98)
00E287  00                 [23] (-98)
00E288  00                 [24] (-96)
                           * locals:
00E2D1  00                 sizelocvars (0)
                           * upvalues:
00E2D2  00                 sizeupvalues (0)
                           ** end of function **

                           
00E2D3                     ** function [36] definition (level 2)
                           ** start of function **
00E2D3  00                 string size (0)
                           source name: (none)
00E2D5  0B                 line defined (1442)
00E2D6  CB                 last line defined (1483)
00E2D7  0B                 nups (5)
00E2D8  05                 numparams (1)
00E2D9  01                 is_vararg (0)
00E2DA  00                 maxstacksize (19)
                           * code:
00E2DD  01                 sizecode (148)
00E2DE  5D000000           [001] getglobal  1   0        ; -174740002
00E2E2  92000000           [002] move       2   0      
00E2E6  62800001           [003] call       1   2   2  
00E2EA  9D400000           [004] getglobal  2   1        ; Engine
00E2EE  8E804001           [005] gettable   2   2   258  ; "CI_SELECT"
fail op	35
00E2F2  23808000           [006] close      0  
00E2F6  1AC02280           [007] jmp        140          ; to [148]
00E2FA  5DC00000           [008] getglobal  1   3        ; gGameData
00E2FE  6400C100           [009] self       1   1   260  ; 1865287165
00E302  62800001           [010] call       1   2   2  
00E306  9D400100           [011] getglobal  2   5        ; -1615931716
00E30A  D3000000           [012] getupval   3   0      
00E30E  CE80C101           [013] gettable   3   3   262  ; "mSelectedElement"
00E312  CEC0C101           [014] gettable   3   3   263  ; "Arcane"
00E316  CE00C201           [015] gettable   3   3   264  ; "mItemType"
00E31A  E440C201           [016] self       3   3   265  ; 455421500
00E31E  E2000001           [017] call       3   2   0  
00E322  A2800000           [018] call       2   0   2  
00E326  D9800200           [019] loadk      3   10       ; 0
00E32A  13018000           [020] getupval   4   1      
00E32E  0E810002           [021] gettable   4   4   2  
00E332  0A010002           [022] len        4   4      
00E336  59810200           [023] loadk      5   10       ; 0
00E33A  D0001C80           [024] forprep    3   113      ; to [138]
00E33E  D3018000           [025] getupval   7   1      
00E342  CE818003           [026] gettable   7   7   2  
00E346  CE818103           [027] gettable   7   7   6  
00E34A  0EC2C203           [028] gettable   8   7   267  ; "IsOperator"
00E34E  18020000           [029] test       8       0    ; to [31] if true
00E352  1A000680           [030] jmp        25           ; to [56]
00E356  1DC20000           [031] getglobal  8   3        ; gGameData
00E35A  24024304           [032] self       8   8   268  ; 51109503
00E35E  22820001           [033] call       8   2   2  
00E362  0E424304           [034] gettable   8   8   269  ; "mOperatorCustomization"
00E366  64824304           [035] self       9   8   270  ; -2049652196
00E36A  62820001           [036] call       9   2   2  
00E36E  8EC2C303           [037] gettable   10  7   271  ; "mSlot"
00E372  DD020400           [038] getglobal  11  16       ; Lotus_Game
00E376  CE42C405           [039] gettable   11  11  273  ; 670730051
00E37A  E2828000           [040] call       11  1   2  
00E37E  4CC20205           [041] settable   9   10  11 
00E382  A4824404           [042] self       10  8   274  ; -2063693753
00E386  12038004           [043] move       12  9      
00E38A  A2428001           [044] call       10  3   1  
00E38E  A4C2C400           [045] self       10  1   275  ; 170006454
00E392  12030004           [046] move       12  8      
00E396  A2428001           [047] call       10  3   1  
00E39A  93020001           [048] getupval   10  2      
00E39E  8EC24205           [049] gettable   10  10  267  ; "IsOperator"
00E3A2  98020000           [050] test       10      0    ; to [52] if true
00E3A6  1A401580           [051] jmp        86           ; to [138]
00E3AA  93028001           [052] getupval   10  3      
00E3AE  D2028004           [053] move       11  9      
00E3B2  A2420001           [054] call       10  2   1  
00E3B6  1A401480           [055] jmp        82           ; to [138]
00E3BA  A402C500           [056] self       10  1   276  ; -756359745
00E3BE  0E43C503           [057] gettable   12  7   277  ; "LoadOutType"
00E3C2  4E83C503           [058] gettable   13  7   278  ; "LoadOutSlot"
00E3C6  8EC3C503           [059] gettable   14  7   279  ; "mId"
00E3CA  A2828002           [060] call       10  5   2  
00E3CE  DD020600           [061] getglobal  11  24       ; 1074689893
00E3D2  12030005           [062] move       12  10     
00E3D6  E2820001           [063] call       11  2   2  
00E3DA  D8420000           [064] test       11      1    ; to [66] if false
00E3DE  1AC01180           [065] jmp        72           ; to [138]
00E3E2  E4424605           [066] self       11  10  281  ; 393943382
00E3E6  4E83C603           [067] gettable   13  7   282  ; "mConfigSlot"
00E3EA  8EC3C603           [068] gettable   14  7   283  ; "mIsPvp"
00E3EE  E2820002           [069] call       11  4   2  
00E3F2  1D030600           [070] getglobal  12  24       ; 1074689893
00E3F6  52038005           [071] move       13  11     
00E3FA  22830001           [072] call       12  2   2  
00E3FE  18430000           [073] test       12      1    ; to [75] if false
00E402  1A800F80           [074] jmp        63           ; to [138]
00E406  0EC3C303           [075] gettable   12  7   271  ; "mSlot"
00E40A  5D030400           [076] getglobal  13  16       ; Lotus_Game
00E40E  4E43C406           [077] gettable   13  13  273  ; 670730051
00E412  62838000           [078] call       13  1   2  
00E416  CC420306           [079] settable   11  12  13 
00E41A  2403C700           [080] self       12  1   284  ; 82716918
00E41E  8EC3C503           [081] gettable   14  7   279  ; "mId"
00E422  CE83C603           [082] gettable   15  7   282  ; "mConfigSlot"
00E426  0EC4C603           [083] gettable   16  7   283  ; "mIsPvp"
00E42A  52048005           [084] move       17  11     
00E42E  22430003           [085] call       12  6   1  
00E432  13030001           [086] getupval   12  2      
00E436  0E434706           [087] gettable   12  12  285  ; "Active"
00E43A  18030000           [088] test       12      0    ; to [90] if true
00E43E  1AC00B80           [089] jmp        48           ; to [138]
00E442  13030001           [090] getupval   12  2      
00E446  0E834706           [091] gettable   12  12  286  ; "Item"
00E44A  0EC34706           [092] gettable   12  12  287  ; "mItemId"
00E44E  0EC34506           [093] gettable   12  12  279  ; "mId"
00E452  4EC3C503           [094] gettable   13  7   279  ; "mId"
fail op	35
00E456  23400306           [095] close      0  
00E45A  1A000A80           [096] jmp        41           ; to [138]
00E45E  13030001           [097] getupval   12  2      
00E462  0E834706           [098] gettable   12  12  286  ; "Item"
00E466  24034706           [099] self       12  12  284  ; 82716918
00E46A  92038005           [100] move       14  11     
00E46E  CE83C603           [101] gettable   15  7   282  ; "mConfigSlot"
00E472  0EC4C603           [102] gettable   16  7   283  ; "mIsPvp"
00E476  22438002           [103] call       12  5   1  
00E47A  13030001           [104] getupval   12  2      
00E47E  0E034806           [105] gettable   12  12  288  ; "ConfigSlot"
00E482  4E83C603           [106] gettable   13  7   282  ; "mConfigSlot"
fail op	35
00E486  23400306           [107] close      0  
00E48A  1A000780           [108] jmp        29           ; to [138]
00E48E  1D430800           [109] getglobal  12  33       ; _T
00E492  0E834806           [110] gettable   12  12  290  ; "ArsenalState"
00E496  5D030400           [111] getglobal  13  16       ; Lotus_Game
00E49A  4EC3C806           [112] gettable   13  13  291  ; "ARSENAL_STATE_PVP"
fail op	35
00E49E  63400306           [113] close      1  
00E4A2  1A000080           [114] jmp        1            ; to [116]
00E4A6  17430000           [115] loadbool   12  0   1    ; false, to [117]
00E4AA  17038000           [116] loadbool   12  1   0    ; true
00E4AE  4EC3C603           [117] gettable   13  7   283  ; "mIsPvp"
fail op	35
00E4B2  23400306           [118] close      0  
00E4B6  1A400480           [119] jmp        18           ; to [138]
00E4BA  13030001           [120] getupval   12  2      
00E4BE  6443C600           [121] self       13  1   281  ; 393943382
00E4C2  D3030001           [122] getupval   15  2      
00E4C6  CE83C707           [123] gettable   15  15  286  ; "Item"
00E4CA  CEC3C707           [124] gettable   15  15  287  ; "mItemId"
00E4CE  CEC3C507           [125] gettable   15  15  279  ; "mId"
00E4D2  13040001           [126] getupval   16  2      
00E4D6  0E044808           [127] gettable   16  16  288  ; "ConfigSlot"
00E4DA  5D440800           [128] getglobal  17  33       ; _T
00E4DE  4E84C808           [129] gettable   17  17  290  ; "ArsenalState"
00E4E2  9D040400           [130] getglobal  18  16       ; Lotus_Game
00E4E6  8EC44809           [131] gettable   18  18  291  ; "ARSENAL_STATE_PVP"
fail op	35
00E4EA  63808408           [132] close      1  
00E4EE  1A000080           [133] jmp        1            ; to [135]
00E4F2  57440000           [134] loadbool   17  0   1    ; false, to [136]
00E4F6  57048000           [135] loadbool   17  1   0    ; true
00E4FA  62838002           [136] call       13  5   2  
00E4FE  0C430392           [137] settable   12  292 13   ; "AttachedUpgrades"
00E502  D440E37F           [138] forloop    3   -114     ; to [25] if loop
00E506  17038000           [139] loadbool   12  1   0    ; true
fail op	8
00E50A  08030002           [140] setupval   12  4      
00E50E  13038000           [141] getupval   12  1      
00E512  0C434901           [142] settable   12  2   293  ; nil
00E516  1D830900           [143] getglobal  12  38       ; mMovie
00E51A  24C34906           [144] self       12  12  295  ; 1167009705
00E51E  99030A00           [145] loadk      14  40       ; "OnConfirmUpgradeArcane"
00E522  D2030000           [146] move       15  0      
00E526  22430002           [147] call       12  4   1  
00E52A  1E008000           [148] return     0   1      
                           * constants:
00E52E  29                 sizek (41)
00E52F  01                 const type 3
00E530  DEAD95F5           const [0]: (-174740002)
00E534  04                 const type 4
00E535  07                 string size (7)
00E536  456E67696E6500     "Engine\0"
                           const [1]: "Engine"
00E53D  04                 const type 4
00E53E  0A                 string size (10)
00E53F  43495F53454C4543+  "CI_SELEC"
00E547  5400               "T\0"
                           const [2]: "CI_SELECT"
00E549  04                 const type 4
00E54A  0A                 string size (10)
00E54B  6747616D65446174+  "gGameDat"
00E553  6100               "a\0"
                           const [3]: "gGameData"
00E555  01                 const type 3
00E556  FD052E6F           const [4]: (1865287165)
00E55A  01                 const type 3
00E55B  BCD6AE9F           const [5]: (-1615931716)
00E55F  04                 const type 4
00E560  11                 string size (17)
00E561  6D53656C65637465+  "mSelecte"
00E569  64456C656D656E74+  "dElement"
00E571  00                 "\0"
                           const [6]: "mSelectedElement"
00E572  04                 const type 4
00E573  07                 string size (7)
00E574  417263616E6500     "Arcane\0"
                           const [7]: "Arcane"
00E57B  04                 const type 4
00E57C  0A                 string size (10)
00E57D  6D4974656D547970+  "mItemTyp"
00E585  6500               "e\0"
                           const [8]: "mItemType"
00E587  01                 const type 3
00E588  3C2E251B           const [9]: (455421500)
00E58C  03                 const type 3
00E58D  0000803F           const [10]: (0)
00E591  04                 const type 4
00E592  0B                 string size (11)
00E593  49734F7065726174+  "IsOperat"
00E59B  6F7200             "or\0"
                           const [11]: "IsOperator"
00E59E  01                 const type 3
00E59F  7FDE0B03           const [12]: (51109503)
00E5A3  04                 const type 4
00E5A4  17                 string size (23)
00E5A5  6D4F70657261746F+  "mOperato"
00E5AD  72437573746F6D69+  "rCustomi"
00E5B5  7A6174696F6E00     "zation\0"
                           const [13]: "mOperatorCustomization"
00E5BC  01                 const type 3
00E5BD  1CCAD485           const [14]: (-2049652196)
00E5C1  04                 const type 4
00E5C2  06                 string size (6)
00E5C3  6D536C6F7400       "mSlot\0"
                           const [15]: "mSlot"
00E5C9  04                 const type 4
00E5CA  0B                 string size (11)
00E5CB  4C6F7475735F4761+  "Lotus_Ga"
00E5D3  6D6500             "me\0"
                           const [16]: "Lotus_Game"
00E5D6  01                 const type 3
00E5D7  4387FA27           const [17]: (670730051)
00E5DB  01                 const type 3
00E5DC  4788FE84           const [18]: (-2063693753)
00E5E0  01                 const type 3
00E5E1  B617220A           const [19]: (170006454)
00E5E5  01                 const type 3
00E5E6  BFDDEAD2           const [20]: (-756359745)
00E5EA  04                 const type 4
00E5EB  0C                 string size (12)
00E5EC  4C6F61644F757454+  "LoadOutT"
00E5F4  79706500           "ype\0"
                           const [21]: "LoadOutType"
00E5F8  04                 const type 4
00E5F9  0C                 string size (12)
00E5FA  4C6F61644F757453+  "LoadOutS"
00E602  6C6F7400           "lot\0"
                           const [22]: "LoadOutSlot"
00E606  04                 const type 4
00E607  04                 string size (4)
00E608  6D496400           "mId\0"
                           const [23]: "mId"
00E60C  01                 const type 3
00E60D  65770E40           const [24]: (1074689893)
00E611  01                 const type 3
00E612  56197B17           const [25]: (393943382)
00E616  04                 const type 4
00E617  0C                 string size (12)
00E618  6D436F6E66696753+  "mConfigS"
00E620  6C6F7400           "lot\0"
                           const [26]: "mConfigSlot"
00E624  04                 const type 4
00E625  07                 string size (7)
00E626  6D497350767000     "mIsPvp\0"
                           const [27]: "mIsPvp"
00E62D  01                 const type 3
00E62E  F628EE04           const [28]: (82716918)
00E632  04                 const type 4
00E633  07                 string size (7)
00E634  41637469766500     "Active\0"
                           const [29]: "Active"
00E63B  04                 const type 4
00E63C  05                 string size (5)
00E63D  4974656D00         "Item\0"
                           const [30]: "Item"
00E642  04                 const type 4
00E643  08                 string size (8)
00E644  6D4974656D496400   "mItemId\0"
                           const [31]: "mItemId"
00E64C  04                 const type 4
00E64D  0B                 string size (11)
00E64E  436F6E666967536C+  "ConfigSl"
00E656  6F7400             "ot\0"
                           const [32]: "ConfigSlot"
00E659  04                 const type 4
00E65A  03                 string size (3)
00E65B  5F5400             "_T\0"
                           const [33]: "_T"
00E65E  04                 const type 4
00E65F  0D                 string size (13)
00E660  417273656E616C53+  "ArsenalS"
00E668  7461746500         "tate\0"
                           const [34]: "ArsenalState"
00E66D  04                 const type 4
00E66E  12                 string size (18)
00E66F  415253454E414C5F+  "ARSENAL_"
00E677  53544154455F5056+  "STATE_PV"
00E67F  5000               "P\0"
                           const [35]: "ARSENAL_STATE_PVP"
00E681  04                 const type 4
00E682  11                 string size (17)
00E683  4174746163686564+  "Attached"
00E68B  5570677261646573+  "Upgrades"
00E693  00                 "\0"
                           const [36]: "AttachedUpgrades"
00E694  00                 const type 0
                           const [37]: nil
00E695  04                 const type 4
00E696  07                 string size (7)
00E697  6D4D6F76696500     "mMovie\0"
                           const [38]: "mMovie"
00E69E  01                 const type 3
00E69F  A9278F45           const [39]: (1167009705)
00E6A3  04                 const type 4
00E6A4  17                 string size (23)
00E6A5  4F6E436F6E666972+  "OnConfir"
00E6AD  6D55706772616465+  "mUpgrade"
00E6B5  417263616E6500     "Arcane\0"
                           const [40]: "OnConfirmUpgradeArcane"
                           * functions:
00E6BC  00                 sizep (0)
                           * lines:
00E6BE  01                 sizelineinfo (148)
                           [pc] (line)
00E6BF  A3                 [001] (-93)
00E6C0  05                 [002] (-93)
00E6C1  00                 [003] (-93)
00E6C2  00                 [004] (-93)
00E6C3  A3                 [005] (-93)
00E6C4  05                 [006] (-93)
00E6C5  00                 [007] (-93)
00E6C6  00                 [008] (-92)
00E6C7  A3                 [009] (-92)
00E6C8  05                 [010] (-92)
00E6C9  00                 [011] (-91)
00E6CA  00                 [012] (-91)
00E6CB  A3                 [013] (-91)
00E6CC  05                 [014] (-91)
00E6CD  00                 [015] (-91)
00E6CE  00                 [016] (-91)
00E6CF  A3                 [017] (-91)
00E6D0  05                 [018] (-91)
00E6D1  00                 [019] (-90)
00E6D2  00                 [020] (-90)
00E6D3  A3                 [021] (-90)
00E6D4  05                 [022] (-90)
00E6D5  00                 [023] (-90)
00E6D6  00                 [024] (-90)
00E6D7  A3                 [025] (-89)
00E6D8  05                 [026] (-89)
00E6D9  00                 [027] (-89)
00E6DA  00                 [028] (-87)
00E6DB  A4                 [029] (-87)
00E6DC  05                 [030] (-87)
00E6DD  00                 [031] (-86)
00E6DE  00                 [032] (-86)
00E6DF  A4                 [033] (-86)
00E6E0  05                 [034] (-86)
00E6E1  00                 [035] (-85)
00E6E2  00                 [036] (-85)
00E6E3  A4                 [037] (-84)
00E6E4  05                 [038] (-84)
00E6E5  00                 [039] (-84)
00E6E6  00                 [040] (-84)
00E6E7  A5                 [041] (-84)
00E6E8  05                 [042] (-83)
00E6E9  00                 [043] (-83)
00E6EA  00                 [044] (-83)
00E6EB  A5                 [045] (-82)
00E6EC  05                 [046] (-82)
00E6ED  00                 [047] (-82)
00E6EE  00                 [048] (-80)
00E6EF  A5                 [049] (-80)
00E6F0  05                 [050] (-80)
00E6F1  00                 [051] (-80)
00E6F2  00                 [052] (-79)
00E6F3  A5                 [053] (-79)
00E6F4  05                 [054] (-79)
00E6F5  00                 [055] (-78)
00E6F6  00                 [056] (-76)
00E6F7  A5                 [057] (-76)
00E6F8  05                 [058] (-76)
00E6F9  00                 [059] (-76)
00E6FA  00                 [060] (-76)
00E6FB  A5                 [061] (-75)
00E6FC  05                 [062] (-75)
00E6FD  00                 [063] (-75)
00E6FE  00                 [064] (-75)
00E6FF  A5                 [065] (-75)
00E700  05                 [066] (-74)
00E701  00                 [067] (-74)
00E702  00                 [068] (-74)
00E703  A5                 [069] (-74)
00E704  05                 [070] (-73)
00E705  00                 [071] (-73)
00E706  00                 [072] (-73)
00E707  A6                 [073] (-73)
00E708  05                 [074] (-73)
00E709  00                 [075] (-72)
00E70A  00                 [076] (-72)
00E70B  A6                 [077] (-72)
00E70C  05                 [078] (-72)
00E70D  00                 [079] (-72)
00E70E  00                 [080] (-71)
00E70F  A6                 [081] (-71)
00E710  05                 [082] (-71)
00E711  00                 [083] (-71)
00E712  00                 [084] (-71)
00E713  A6                 [085] (-71)
00E714  05                 [086] (-69)
00E715  00                 [087] (-69)
00E716  00                 [088] (-69)
00E717  A6                 [089] (-69)
00E718  05                 [090] (-69)
00E719  00                 [091] (-69)
00E71A  00                 [092] (-69)
00E71B  A6                 [093] (-69)
00E71C  05                 [094] (-69)
00E71D  00                 [095] (-69)
00E71E  00                 [096] (-69)
00E71F  A7                 [097] (-68)
00E720  05                 [098] (-68)
00E721  00                 [099] (-68)
00E722  00                 [100] (-68)
00E723  A7                 [101] (-68)
00E724  05                 [102] (-68)
00E725  00                 [103] (-68)
00E726  00                 [104] (-67)
00E727  A7                 [105] (-67)
00E728  05                 [106] (-67)
00E729  00                 [107] (-67)
00E72A  00                 [108] (-67)
00E72B  A9                 [109] (-67)
00E72C  05                 [110] (-67)
00E72D  00                 [111] (-67)
00E72E  00                 [112] (-67)
00E72F  A9                 [113] (-67)
00E730  05                 [114] (-67)
00E731  00                 [115] (-67)
00E732  00                 [116] (-67)
00E733  A9                 [117] (-67)
00E734  05                 [118] (-67)
00E735  00                 [119] (-67)
00E736  00                 [120] (-66)
00E737  AA                 [121] (-66)
00E738  05                 [122] (-66)
00E739  00                 [123] (-66)
00E73A  00                 [124] (-66)
00E73B  AA                 [125] (-66)
00E73C  05                 [126] (-66)
00E73D  00                 [127] (-66)
00E73E  00                 [128] (-66)
00E73F  AA                 [129] (-66)
00E740  05                 [130] (-66)
00E741  00                 [131] (-66)
00E742  00                 [132] (-66)
00E743  AA                 [133] (-66)
00E744  05                 [134] (-66)
00E745  00                 [135] (-66)
00E746  00                 [136] (-66)
00E747  AB                 [137] (-66)
00E748  05                 [138] (-90)
00E749  00                 [139] (-58)
00E74A  00                 [140] (-58)
00E74B  AB                 [141] (-57)
00E74C  05                 [142] (-57)
00E74D  00                 [143] (-55)
00E74E  00                 [144] (-55)
00E74F  AC                 [145] (-55)
00E750  05                 [146] (-55)
00E751  00                 [147] (-55)
00E752  00                 [148] (-53)
                           * locals:
00E90F  00                 sizelocvars (0)
                           * upvalues:
00E910  00                 sizeupvalues (0)
                           ** end of function **

                           
00E911                     ** function [37] definition (level 2)
                           ** start of function **
00E911  00                 string size (0)
                           source name: (none)
00E913  0B                 line defined (1485)
00E914  D7                 last line defined (1495)
00E915  0B                 nups (4)
00E916  04                 numparams (0)
00E917  00                 is_vararg (0)
00E918  00                 maxstacksize (2)
                           * code:
00E91A  1C                 sizecode (28)
00E91B  13000000           [01] getupval   0   0      
00E91F  0E004000           [02] gettable   0   0   256  ; 630793108
00E923  5D400000           [03] getglobal  1   1        ; _G
00E927  4E80C000           [04] gettable   1   1   258  ; "UISound_ButtonSelect"
00E92B  22400001           [05] call       0   2   1  
00E92F  13008000           [06] getupval   0   1      
fail op	35
00E933  63C04000           [07] close      1  
00E937  1A800280           [08] jmp        11           ; to [20]
00E93B  1D000100           [09] getglobal  0   4        ; 1074689893
00E93F  53000001           [10] getupval   1   2      
00E943  22800001           [11] call       0   2   2  
00E947  18400000           [12] test       0       1    ; to [14] if false
00E94B  1A400180           [13] jmp        6            ; to [20]
00E94F  1D000100           [14] getglobal  0   4        ; 1074689893
00E953  53000001           [15] getupval   1   2      
00E957  4E40C100           [16] gettable   1   1   261  ; "mSelectedElement"
00E95B  22800001           [17] call       0   2   2  
00E95F  18000000           [18] test       0       0    ; to [20] if true
00E963  1A000080           [19] jmp        1            ; to [21]
00E967  1E008000           [20] return     0   1      
00E96B  13008000           [21] getupval   0   1      
00E96F  03804100           [22] add        0   0   262  ; 0
fail op	8
00E973  08008000           [23] setupval   0   1      
00E977  13008001           [24] getupval   0   3      
00E97B  53000001           [25] getupval   1   2      
00E97F  4E40C100           [26] gettable   1   1   261  ; "mSelectedElement"
00E983  22400001           [27] call       0   2   1  
00E987  1E008000           [28] return     0   1      
                           * constants:
00E98B  07                 sizek (7)
00E98C  01                 const type 3
00E98D  94239925           const [0]: (630793108)
00E991  04                 const type 4
00E992  03                 string size (3)
00E993  5F4700             "_G\0"
                           const [1]: "_G"
00E996  04                 const type 4
00E997  15                 string size (21)
00E998  5549536F756E645F+  "UISound_"
00E9A0  427574746F6E5365+  "ButtonSe"
00E9A8  6C65637400         "lect\0"
                           const [2]: "UISound_ButtonSelect"
00E9AD  03                 const type 3
00E9AE  00008040           const [3]: (0)
00E9B2  01                 const type 3
00E9B3  65770E40           const [4]: (1074689893)
00E9B7  04                 const type 4
00E9B8  11                 string size (17)
00E9B9  6D53656C65637465+  "mSelecte"
00E9C1  64456C656D656E74+  "dElement"
00E9C9  00                 "\0"
                           const [5]: "mSelectedElement"
00E9CA  03                 const type 3
00E9CB  0000803F           const [6]: (0)
                           * functions:
00E9CF  00                 sizep (0)
                           * lines:
00E9D0  1C                 sizelineinfo (28)
                           [pc] (line)
00E9D1  CE                 [01] (-50)
00E9D2  05                 [02] (-50)
00E9D3  00                 [03] (-50)
00E9D4  00                 [04] (-50)
00E9D5  CE                 [05] (-50)
00E9D6  05                 [06] (-48)
00E9D7  00                 [07] (-48)
00E9D8  00                 [08] (-48)
00E9D9  CE                 [09] (-48)
00E9DA  05                 [10] (-48)
00E9DB  00                 [11] (-48)
00E9DC  00                 [12] (-48)
00E9DD  CE                 [13] (-48)
00E9DE  05                 [14] (-48)
00E9DF  00                 [15] (-48)
00E9E0  00                 [16] (-48)
00E9E1  CE                 [17] (-48)
00E9E2  05                 [18] (-48)
00E9E3  00                 [19] (-48)
00E9E4  00                 [20] (-47)
00E9E5  D0                 [21] (-44)
00E9E6  05                 [22] (-44)
00E9E7  00                 [23] (-44)
00E9E8  00                 [24] (-42)
00E9E9  D0                 [25] (-42)
00E9EA  05                 [26] (-42)
00E9EB  00                 [27] (-42)
00E9EC  00                 [28] (-41)
                           * locals:
00EA41  00                 sizelocvars (0)
                           * upvalues:
00EA42  00                 sizeupvalues (0)
                           ** end of function **

                           
00EA43                     ** function [38] definition (level 2)
                           ** start of function **
00EA43  00                 string size (0)
                           source name: (none)
00EA45  0B                 line defined (1497)
00EA46  82                 last line defined (1538)
00EA47  0C                 nups (5)
00EA48  05                 numparams (0)
00EA49  00                 is_vararg (0)
00EA4A  00                 maxstacksize (19)
                           * code:
00EA4C  6B                 sizecode (107)
00EA4D  1D000000           [001] getglobal  0   0        ; _T
00EA51  0E404000           [002] gettable   0   0   257  ; "TestUpgradeAnim"
00EA55  18000000           [003] test       0       0    ; to [5] if true
00EA59  1A800080           [004] jmp        3            ; to [8]
00EA5D  13000000           [005] getupval   0   0      
00EA61  22408000           [006] call       0   1   1  
00EA65  1E008000           [007] return     0   1      
00EA69  1D800000           [008] getglobal  0   2        ; 1074689893
00EA6D  5DC00000           [009] getglobal  1   3        ; gGameData
00EA71  22800001           [010] call       0   2   2  
00EA75  18400000           [011] test       0       1    ; to [13] if false
00EA79  1A800180           [012] jmp        7            ; to [20]
00EA7D  13008000           [013] getupval   0   1      
fail op	35
00EA81  63004100           [014] close      1  
00EA85  1AC00080           [015] jmp        4            ; to [20]
00EA89  13008000           [016] getupval   0   1      
00EA8D  0E404100           [017] gettable   0   0   261  ; "mSelectedElement"
fail op	35
00EA91  23004100           [018] close      0  
00EA95  1A000080           [019] jmp        1            ; to [21]
00EA99  1E008000           [020] return     0   1      
00EA9D  13008000           [021] getupval   0   1      
00EAA1  0E404100           [022] gettable   0   0   261  ; "mSelectedElement"
00EAA5  4E804100           [023] gettable   1   0   262  ; "Arcane"
00EAA9  4EC0C100           [024] gettable   1   1   263  ; "mInstance"
00EAAD  6400C200           [025] self       1   1   264  ; 1866047198
00EAB1  CE804100           [026] gettable   3   0   262  ; "Arcane"
00EAB5  CE40C201           [027] gettable   3   3   265  ; "mUpgradeFingerprint"
00EAB9  62808001           [028] call       1   3   2  
00EABD  99800200           [029] loadk      2   10       ; 0
00EAC1  D2008000           [030] move       3   1      
00EAC5  13010001           [031] getupval   4   2      
00EAC9  0DC14202           [032] sub        4   4   267  ; 0
00EACD  59C10200           [033] loadk      5   11       ; 0
00EAD1  D0400080           [034] forprep    3   2        ; to [37]
00EAD5  C3810101           [035] add        7   2   6  
00EAD9  8300C303           [036] add        2   7   268  ; 0
00EADD  D400FF7F           [037] forloop    3   -3       ; to [35] if loop
00EAE1  D9810200           [038] loadk      7   10       ; 0
00EAE5  1D420300           [039] getglobal  8   13       ; mMovie
00EAE9  24824304           [040] self       8   8   270  ; 98241492
00EAED  8E824100           [041] gettable   10  0   262  ; "Arcane"
00EAF1  8EC24105           [042] gettable   10  10  263  ; "mInstance"
00EAF5  A4C24305           [043] self       10  10  271  ; 1634497718
00EAF9  A2820001           [044] call       10  2   2  
00EAFD  A4024405           [045] self       10  10  272  ; 1590141906
00EB01  A2820001           [046] call       10  2   2  
00EB05  D7020000           [047] loadbool   11  0   0    ; false
00EB09  22820002           [048] call       8   4   2  
00EB0D  53028000           [049] getupval   9   1      
00EB11  6442C404           [050] self       9   9   273  ; -1658822453
00EB15  E5020000           [051] closure    11  0      
00EB19  12000000           [052] move       0   0      
00EB1D  12008003           [053] move       0   7      
00EB21  62428001           [054] call       9   3   1  
00EB25  53028001           [055] getupval   9   3      
00EB29  4E82C404           [056] gettable   9   9   274  ; -132701534
00EB2D  8E824100           [057] gettable   10  0   262  ; "Arcane"
00EB31  8EC24405           [058] gettable   10  10  275  ; "mItemId"
00EB35  8E024505           [059] gettable   10  10  276  ; "mId"
fail op	35
00EB39  63404505           [060] close      1  
00EB3D  1A000080           [061] jmp        1            ; to [63]
00EB41  97420000           [062] loadbool   10  0   1    ; false, to [64]
00EB45  97028000           [063] loadbool   10  1   0    ; true
00EB49  D9C20200           [064] loadk      11  11       ; 0
00EB4D  19830200           [065] loadk      12  10       ; 0
00EB51  62820002           [066] call       9   4   2  
00EB55  43420201           [067] add        9   2   9  
fail op	33
00EB59  21408203           [068] tforloop   0       9    ; to [70] if exit
00EB5D  1A800580           [069] jmp        23           ; to [93]
00EB61  9D820500           [070] getglobal  10  22       ; -1615931716
00EB65  CE824100           [071] gettable   11  0   262  ; "Arcane"
00EB69  CEC2C505           [072] gettable   11  11  279  ; "mItemType"
00EB6D  E402C605           [073] self       11  11  280  ; 455421500
00EB71  E2020001           [074] call       11  2   0  
00EB75  A2820000           [075] call       10  0   2  
00EB79  D3020002           [076] getupval   11  4      
00EB7D  CE828205           [077] gettable   11  11  10 
fail op	35
00EB81  6300C105           [078] close      1  
00EB85  1A000380           [079] jmp        13           ; to [93]
00EB89  DD420300           [080] getglobal  11  13       ; mMovie
00EB8D  E482C305           [081] self       11  11  270  ; 98241492
00EB91  59430600           [082] loadk      13  25       ; "/Lotus/Language/Menu/ArcaneManager_InstalledWarning"
00EB95  97030000           [083] loadbool   14  0   0    ; false
00EB99  CB430000           [084] newtable   15  0   1    ; array=0, hash=1
00EB9D  CC03028D           [085] settable   15  282 8    ; "ARCANE"
00EBA1  E2828002           [086] call       11  5   2  
00EBA5  13038001           [087] getupval   12  3      
00EBA9  0EC34606           [088] gettable   12  12  283  ; 479758160
00EBAD  52038005           [089] move       13  11     
00EBB1  99030700           [090] loadk      14  28       ; "OnConfirmUnequipArcanes"
00EBB5  22438001           [091] call       12  3   1  
00EBB9  1E008000           [092] return     0   1      
00EBBD  13038001           [093] getupval   12  3      
00EBC1  0EC34606           [094] gettable   12  12  283  ; 479758160
00EBC5  5D430300           [095] getglobal  13  13       ; mMovie
00EBC9  6483C306           [096] self       13  13  270  ; 98241492
00EBCD  D9430700           [097] loadk      15  29       ; "/Lotus/Language/Menu/ArcaneManager_UpgradeConfirm"
00EBD1  17040000           [098] loadbool   16  0   0    ; false
00EBD5  4BC40000           [099] newtable   17  0   3    ; array=0, hash=3
00EBD9  4C84008F           [100] settable   17  286 2    ; "NUM"
00EBDD  4C04028D           [101] settable   17  282 8    ; "ARCANE"
00EBE1  93040001           [102] getupval   18  2      
00EBE5  4C84848F           [103] settable   17  287 18   ; "RANK"
00EBE9  62838002           [104] call       13  5   2  
00EBED  99030800           [105] loadk      14  32       ; "OnConfirmUpgradeArcane"
00EBF1  22438001           [106] call       12  3   1  
00EBF5  1E008000           [107] return     0   1      
                           * constants:
00EBF9  21                 sizek (33)
00EBFA  04                 const type 4
00EBFB  03                 string size (3)
00EBFC  5F5400             "_T\0"
                           const [0]: "_T"
00EBFF  04                 const type 4
00EC00  10                 string size (16)
00EC01  5465737455706772+  "TestUpgr"
00EC09  616465416E696D00   "adeAnim\0"
                           const [1]: "TestUpgradeAnim"
00EC11  01                 const type 3
00EC12  65770E40           const [2]: (1074689893)
00EC16  04                 const type 4
00EC17  0A                 string size (10)
00EC18  6747616D65446174+  "gGameDat"
00EC20  6100               "a\0"
                           const [3]: "gGameData"
00EC22  00                 const type 0
                           const [4]: nil
00EC23  04                 const type 4
00EC24  11                 string size (17)
00EC25  6D53656C65637465+  "mSelecte"
00EC2D  64456C656D656E74+  "dElement"
00EC35  00                 "\0"
                           const [5]: "mSelectedElement"
00EC36  04                 const type 4
00EC37  07                 string size (7)
00EC38  417263616E6500     "Arcane\0"
                           const [6]: "Arcane"
00EC3F  04                 const type 4
00EC40  0A                 string size (10)
00EC41  6D496E7374616E63+  "mInstanc"
00EC49  6500               "e\0"
                           const [7]: "mInstance"
00EC4B  01                 const type 3
00EC4C  DE9E396F           const [8]: (1866047198)
00EC50  04                 const type 4
00EC51  14                 string size (20)
00EC52  6D55706772616465+  "mUpgrade"
00EC5A  46696E6765727072+  "Fingerpr"
00EC62  696E7400           "int\0"
                           const [9]: "mUpgradeFingerprint"
00EC66  03                 const type 3
00EC67  00000000           const [10]: (0)
00EC6B  03                 const type 3
00EC6C  0000803F           const [11]: (0)
00EC70  03                 const type 3
00EC71  00000040           const [12]: (0)
00EC75  04                 const type 4
00EC76  07                 string size (7)
00EC77  6D4D6F76696500     "mMovie\0"
                           const [13]: "mMovie"
00EC7E  01                 const type 3
00EC7F  D40BDB05           const [14]: (98241492)
00EC83  01                 const type 3
00EC84  B6746C61           const [15]: (1634497718)
00EC88  01                 const type 3
00EC89  D2A3C75E           const [16]: (1590141906)
00EC8D  01                 const type 3
00EC8E  CB60209D           const [17]: (-1658822453)
00EC92  01                 const type 3
00EC93  A22217F8           const [18]: (-132701534)
00EC97  04                 const type 4
00EC98  08                 string size (8)
00EC99  6D4974656D496400   "mItemId\0"
                           const [19]: "mItemId"
00ECA1  04                 const type 4
00ECA2  04                 string size (4)
00ECA3  6D496400           "mId\0"
                           const [20]: "mId"
00ECA7  04                 const type 4
00ECA8  01                 string size (0)
                           const [21]: ""
00ECAA  01                 const type 3
00ECAB  BCD6AE9F           const [22]: (-1615931716)
00ECAF  04                 const type 4
00ECB0  0A                 string size (10)
00ECB1  6D4974656D547970+  "mItemTyp"
00ECB9  6500               "e\0"
                           const [23]: "mItemType"
00ECBB  01                 const type 3
00ECBC  3C2E251B           const [24]: (455421500)
00ECC0  04                 const type 4
00ECC1  34                 string size (52)
00ECC2  2F4C6F7475732F4C+  "/Lotus/L"
00ECCA  616E67756167652F+  "anguage/"
00ECD2  4D656E752F417263+  "Menu/Arc"
00ECDA  616E654D616E6167+  "aneManag"
00ECE2  65725F496E737461+  "er_Insta"
00ECEA  6C6C65645761726E+  "lledWarn"
00ECF2  696E6700           "ing\0"
                           const [25]: "/Lotus/Language/Menu/ArcaneManager_InstalledWarning"
00ECF6  04                 const type 4
00ECF7  07                 string size (7)
00ECF8  415243414E4500     "ARCANE\0"
                           const [26]: "ARCANE"
00ECFF  01                 const type 3
00ED00  5087981C           const [27]: (479758160)
00ED04  04                 const type 4
00ED05  18                 string size (24)
00ED06  4F6E436F6E666972+  "OnConfir"
00ED0E  6D556E6571756970+  "mUnequip"
00ED16  417263616E657300   "Arcanes\0"
                           const [28]: "OnConfirmUnequipArcanes"
00ED1E  04                 const type 4
00ED1F  32                 string size (50)
00ED20  2F4C6F7475732F4C+  "/Lotus/L"
00ED28  616E67756167652F+  "anguage/"
00ED30  4D656E752F417263+  "Menu/Arc"
00ED38  616E654D616E6167+  "aneManag"
00ED40  65725F5570677261+  "er_Upgra"
00ED48  6465436F6E666972+  "deConfir"
00ED50  6D00               "m\0"
                           const [29]: "/Lotus/Language/Menu/ArcaneManager_UpgradeConfirm"
00ED52  04                 const type 4
00ED53  04                 string size (4)
00ED54  4E554D00           "NUM\0"
                           const [30]: "NUM"
00ED58  04                 const type 4
00ED59  05                 string size (5)
00ED5A  52414E4B00         "RANK\0"
                           const [31]: "RANK"
00ED5F  04                 const type 4
00ED60  17                 string size (23)
00ED61  4F6E436F6E666972+  "OnConfir"
00ED69  6D55706772616465+  "mUpgrade"
00ED71  417263616E6500     "Arcane\0"
                           const [32]: "OnConfirmUpgradeArcane"
                           * functions:
00ED78  01                 sizep (1)
                           
00ED79                     ** function [0] definition (level 3)
                           ** start of function **
00ED79  00                 string size (0)
                           source name: (none)
00ED7B  0B                 line defined (1517)
00ED7C  F1                 last line defined (1521)
00ED7D  0B                 nups (2)
00ED7E  02                 numparams (1)
00ED7F  01                 is_vararg (0)
00ED80  00                 maxstacksize (3)
                           * code:
00ED82  13                 sizecode (19)
00ED83  4E004000           [01] gettable   1   0   256  ; "Arcane"
fail op	35
00ED87  6340C000           [02] close      1  
00ED8B  1A800380           [03] jmp        15           ; to [19]
00ED8F  4E004000           [04] gettable   1   0   256  ; "Arcane"
00ED93  4E80C000           [05] gettable   1   1   258  ; "mItemId"
00ED97  4EC0C000           [06] gettable   1   1   259  ; "mId"
fail op	35
00ED9B  2300C100           [07] close      0  
00ED9F  1A400280           [08] jmp        10           ; to [19]
00EDA3  4E004000           [09] gettable   1   0   256  ; "Arcane"
00EDA7  4E40C100           [10] gettable   1   1   261  ; "mItemType"
00EDAB  93000000           [11] getupval   2   0      
00EDAF  8E004001           [12] gettable   2   2   256  ; "Arcane"
00EDB3  8E404101           [13] gettable   2   2   261  ; "mItemType"
fail op	35
00EDB7  23808000           [14] close      0  
00EDBB  1A800080           [15] jmp        3            ; to [19]
00EDBF  4E004000           [16] gettable   1   0   256  ; "Arcane"
00EDC3  4E80C100           [17] gettable   1   1   262  ; "mItemCount"
fail op	8
00EDC7  48008000           [18] setupval   1   1      
00EDCB  1E008000           [19] return     0   1      
                           * constants:
00EDCF  07                 sizek (7)
00EDD0  04                 const type 4
00EDD1  07                 string size (7)
00EDD2  417263616E6500     "Arcane\0"
                           const [0]: "Arcane"
00EDD9  00                 const type 0
                           const [1]: nil
00EDDA  04                 const type 4
00EDDB  08                 string size (8)
00EDDC  6D4974656D496400   "mItemId\0"
                           const [2]: "mItemId"
00EDE4  04                 const type 4
00EDE5  04                 string size (4)
00EDE6  6D496400           "mId\0"
                           const [3]: "mId"
00EDEA  04                 const type 4
00EDEB  01                 string size (0)
                           const [4]: ""
00EDED  04                 const type 4
00EDEE  0A                 string size (10)
00EDEF  6D4974656D547970+  "mItemTyp"
00EDF7  6500               "e\0"
                           const [5]: "mItemType"
00EDF9  04                 const type 4
00EDFA  0B                 string size (11)
00EDFB  6D4974656D436F75+  "mItemCou"
00EE03  6E7400             "nt\0"
                           const [6]: "mItemCount"
                           * functions:
00EE06  00                 sizep (0)
                           * lines:
00EE07  13                 sizelineinfo (19)
                           [pc] (line)
00EE08  EE                 [01] (-18)
00EE09  05                 [02] (-18)
00EE0A  00                 [03] (-18)
00EE0B  00                 [04] (-18)
00EE0C  EE                 [05] (-18)
00EE0D  05                 [06] (-18)
00EE0E  00                 [07] (-18)
00EE0F  00                 [08] (-18)
00EE10  EE                 [09] (-18)
00EE11  05                 [10] (-18)
00EE12  00                 [11] (-18)
00EE13  00                 [12] (-18)
00EE14  EE                 [13] (-18)
00EE15  05                 [14] (-18)
00EE16  00                 [15] (-18)
00EE17  00                 [16] (-17)
00EE18  EE                 [17] (-17)
00EE19  05                 [18] (-17)
00EE1A  00                 [19] (-15)
                           * locals:
00EE54  00                 sizelocvars (0)
                           * upvalues:
00EE55  00                 sizeupvalues (0)
                           ** end of function **

                           * lines:
00EE56  6B                 sizelineinfo (107)
                           [pc] (line)
00EE57  DA                 [001] (-38)
00EE58  05                 [002] (-38)
00EE59  00                 [003] (-38)
00EE5A  00                 [004] (-38)
00EE5B  DA                 [005] (-37)
00EE5C  05                 [006] (-37)
00EE5D  00                 [007] (-36)
00EE5E  00                 [008] (-33)
00EE5F  DA                 [009] (-33)
00EE60  05                 [010] (-33)
00EE61  00                 [011] (-33)
00EE62  00                 [012] (-33)
00EE63  DA                 [013] (-33)
00EE64  05                 [014] (-33)
00EE65  00                 [015] (-33)
00EE66  00                 [016] (-33)
00EE67  DB                 [017] (-33)
00EE68  05                 [018] (-33)
00EE69  00                 [019] (-33)
00EE6A  00                 [020] (-32)
00EE6B  DB                 [021] (-29)
00EE6C  05                 [022] (-29)
00EE6D  00                 [023] (-28)
00EE6E  00                 [024] (-28)
00EE6F  DC                 [025] (-28)
00EE70  05                 [026] (-28)
00EE71  00                 [027] (-28)
00EE72  00                 [028] (-28)
00EE73  DF                 [029] (-27)
00EE74  05                 [030] (-26)
00EE75  00                 [031] (-26)
00EE76  00                 [032] (-26)
00EE77  DF                 [033] (-26)
00EE78  05                 [034] (-26)
00EE79  00                 [035] (-25)
00EE7A  00                 [036] (-25)
00EE7B  DF                 [037] (-26)
00EE7C  05                 [038] (-23)
00EE7D  00                 [039] (-22)
00EE7E  00                 [040] (-22)
00EE7F  DF                 [041] (-22)
00EE80  05                 [042] (-22)
00EE81  00                 [043] (-22)
00EE82  00                 [044] (-22)
00EE83  DF                 [045] (-22)
00EE84  05                 [046] (-22)
00EE85  00                 [047] (-22)
00EE86  00                 [048] (-22)
00EE87  DF                 [049] (-20)
00EE88  05                 [050] (-20)
00EE89  00                 [051] (-15)
00EE8A  00                 [052] (-15)
00EE8B  DF                 [053] (-15)
00EE8C  05                 [054] (-20)
00EE8D  00                 [055] (-12)
00EE8E  00                 [056] (-12)
00EE8F  DF                 [057] (-12)
00EE90  05                 [058] (-12)
00EE91  00                 [059] (-12)
00EE92  00                 [060] (-12)
00EE93  DF                 [061] (-12)
00EE94  05                 [062] (-12)
00EE95  00                 [063] (-12)
00EE96  00                 [064] (-12)
00EE97  DF                 [065] (-12)
00EE98  05                 [066] (-12)
00EE99  00                 [067] (-12)
00EE9A  00                 [068] (-11)
00EE9B  DF                 [069] (-11)
00EE9C  05                 [070] (-8)
00EE9D  00                 [071] (-8)
00EE9E  00                 [072] (-8)
00EE9F  DF                 [073] (-8)
00EEA0  05                 [074] (-8)
00EEA1  00                 [075] (-8)
00EEA2  00                 [076] (-7)
00EEA3  E0                 [077] (-7)
00EEA4  05                 [078] (-7)
00EEA5  00                 [079] (-7)
00EEA6  00                 [080] (-6)
00EEA7  E3                 [081] (-6)
00EEA8  05                 [082] (-6)
00EEA9  00                 [083] (-6)
00EEAA  00                 [084] (-6)
00EEAB  E3                 [085] (-6)
00EEAC  05                 [086] (-6)
00EEAD  00                 [087] (-5)
00EEAE  00                 [088] (-5)
00EEAF  E4                 [089] (-5)
00EEB0  05                 [090] (-5)
00EEB1  00                 [091] (-5)
00EEB2  00                 [092] (-3)
00EEB3  E4                 [093] (1)
00EEB4  05                 [094] (1)
00EEB5  00                 [095] (1)
00EEB6  00                 [096] (1)
00EEB7  E4                 [097] (1)
00EEB8  05                 [098] (1)
00EEB9  00                 [099] (1)
00EEBA  00                 [100] (1)
00EEBB  E4                 [101] (1)
00EEBC  05                 [102] (1)
00EEBD  00                 [103] (1)
00EEBE  00                 [104] (1)
00EEBF  E4                 [105] (1)
00EEC0  05                 [106] (1)
00EEC1  00                 [107] (2)
                           * locals:
00F003  00                 sizelocvars (0)
                           * upvalues:
00F004  00                 sizeupvalues (0)
                           ** end of function **

                           
00F005                     ** function [39] definition (level 2)
                           ** start of function **
00F005  00                 string size (0)
                           source name: (none)
00F007  0C                 line defined (1540)
00F008  88                 last line defined (1544)
00F009  0C                 nups (1)
00F00A  01                 numparams (1)
00F00B  01                 is_vararg (0)
00F00C  00                 maxstacksize (5)
                           * code:
00F00E  0C                 sizecode (12)
00F00F  5D000000           [01] getglobal  1   0        ; 1074689893
00F013  93000000           [02] getupval   2   0      
00F017  62800001           [03] call       1   2   2  
00F01B  58400000           [04] test       1       1    ; to [6] if false
00F01F  1A400180           [05] jmp        6            ; to [12]
00F023  53000000           [06] getupval   1   0      
00F027  6440C000           [07] self       1   1   257  ; -1967297336
00F02B  DD800000           [08] getglobal  3   2        ; -174740002
00F02F  12010000           [09] move       4   0      
00F033  E2000001           [10] call       3   2   0  
00F037  62400000           [11] call       1   0   1  
00F03B  1E008000           [12] return     0   1      
                           * constants:
00F03F  03                 sizek (3)
00F040  01                 const type 3
00F041  65770E40           const [0]: (1074689893)
00F045  01                 const type 3
00F046  C86CBD8A           const [1]: (-1967297336)
00F04A  01                 const type 3
00F04B  DEAD95F5           const [2]: (-174740002)
                           * functions:
00F04F  00                 sizep (0)
                           * lines:
00F050  0C                 sizelineinfo (12)
                           [pc] (line)
00F051  05                 [01] (5)
00F052  06                 [02] (5)
00F053  00                 [03] (5)
00F054  00                 [04] (5)
00F055  05                 [05] (5)
00F056  06                 [06] (6)
00F057  00                 [07] (6)
00F058  00                 [08] (6)
00F059  05                 [09] (6)
00F05A  06                 [10] (6)
00F05B  00                 [11] (6)
00F05C  00                 [12] (8)
                           * locals:
00F081  00                 sizelocvars (0)
                           * upvalues:
00F082  00                 sizeupvalues (0)
                           ** end of function **

                           
00F083                     ** function [40] definition (level 2)
                           ** start of function **
00F083  00                 string size (0)
                           source name: (none)
00F085  0C                 line defined (1546)
00F086  8E                 last line defined (1550)
00F087  0C                 nups (1)
00F088  01                 numparams (1)
00F089  01                 is_vararg (0)
00F08A  00                 maxstacksize (5)
                           * code:
00F08C  0C                 sizecode (12)
00F08D  5D000000           [01] getglobal  1   0        ; 1074689893
00F091  93000000           [02] getupval   2   0      
00F095  62800001           [03] call       1   2   2  
00F099  58400000           [04] test       1       1    ; to [6] if false
00F09D  1A400180           [05] jmp        6            ; to [12]
00F0A1  53000000           [06] getupval   1   0      
00F0A5  6440C000           [07] self       1   1   257  ; 561426718
00F0A9  DD800000           [08] getglobal  3   2        ; -174740002
00F0AD  12010000           [09] move       4   0      
00F0B1  E2000001           [10] call       3   2   0  
00F0B5  62400000           [11] call       1   0   1  
00F0B9  1E008000           [12] return     0   1      
                           * constants:
00F0BD  03                 sizek (3)
00F0BE  01                 const type 3
00F0BF  65770E40           const [0]: (1074689893)
00F0C3  01                 const type 3
00F0C4  1EB17621           const [1]: (561426718)
00F0C8  01                 const type 3
00F0C9  DEAD95F5           const [2]: (-174740002)
                           * functions:
00F0CD  00                 sizep (0)
                           * lines:
00F0CE  0C                 sizelineinfo (12)
                           [pc] (line)
00F0CF  0B                 [01] (11)
00F0D0  06                 [02] (11)
00F0D1  00                 [03] (11)
00F0D2  00                 [04] (11)
00F0D3  0B                 [05] (11)
00F0D4  06                 [06] (12)
00F0D5  00                 [07] (12)
00F0D6  00                 [08] (12)
00F0D7  0B                 [09] (12)
00F0D8  06                 [10] (12)
00F0D9  00                 [11] (12)
00F0DA  00                 [12] (14)
                           * locals:
00F0FF  00                 sizelocvars (0)
                           * upvalues:
00F100  00                 sizeupvalues (0)
                           ** end of function **

                           
00F101                     ** function [41] definition (level 2)
                           ** start of function **
00F101  00                 string size (0)
                           source name: (none)
00F103  0C                 line defined (1552)
00F104  94                 last line defined (1556)
00F105  0C                 nups (2)
00F106  02                 numparams (1)
00F107  01                 is_vararg (0)
00F108  00                 maxstacksize (5)
                           * code:
00F10A  10                 sizecode (16)
00F10B  53000000           [01] getupval   1   0      
00F10F  58400000           [02] test       1       1    ; to [4] if false
00F113  1AC00280           [03] jmp        12           ; to [16]
00F117  5D000000           [04] getglobal  1   0        ; 1074689893
00F11B  93008000           [05] getupval   2   1      
00F11F  62800001           [06] call       1   2   2  
00F123  58400000           [07] test       1       1    ; to [9] if false
00F127  1A800180           [08] jmp        7            ; to [16]
00F12B  53008000           [09] getupval   1   1      
00F12F  6440C000           [10] self       1   1   257  ; 1002639746
00F133  DD800000           [11] getglobal  3   2        ; -174740002
00F137  12010000           [12] move       4   0      
00F13B  E2800001           [13] call       3   2   2  
00F13F  17018000           [14] loadbool   4   1   0    ; true
00F143  62400002           [15] call       1   4   1  
00F147  1E008000           [16] return     0   1      
                           * constants:
00F14B  03                 sizek (3)
00F14C  01                 const type 3
00F14D  65770E40           const [0]: (1074689893)
00F151  01                 const type 3
00F152  8211C33B           const [1]: (1002639746)
00F156  01                 const type 3
00F157  DEAD95F5           const [2]: (-174740002)
                           * functions:
00F15B  00                 sizep (0)
                           * lines:
00F15C  10                 sizelineinfo (16)
                           [pc] (line)
00F15D  11                 [01] (17)
00F15E  06                 [02] (17)
00F15F  00                 [03] (17)
00F160  00                 [04] (17)
00F161  11                 [05] (17)
00F162  06                 [06] (17)
00F163  00                 [07] (17)
00F164  00                 [08] (17)
00F165  11                 [09] (18)
00F166  06                 [10] (18)
00F167  00                 [11] (18)
00F168  00                 [12] (18)
00F169  11                 [13] (18)
00F16A  06                 [14] (18)
00F16B  00                 [15] (18)
00F16C  00                 [16] (20)
                           * locals:
00F19D  00                 sizelocvars (0)
                           * upvalues:
00F19E  00                 sizeupvalues (0)
                           ** end of function **

                           
00F19F                     ** function [42] definition (level 2)
                           ** start of function **
00F19F  00                 string size (0)
                           source name: (none)
00F1A1  0C                 line defined (1558)
00F1A2  9D                 last line defined (1565)
00F1A3  0C                 nups (3)
00F1A4  03                 numparams (1)
00F1A5  01                 is_vararg (0)
00F1A6  00                 maxstacksize (3)
                           * code:
00F1A8  11                 sizecode (17)
00F1A9  5D000000           [01] getglobal  1   0        ; -174740002
00F1AD  92000000           [02] move       2   0      
00F1B1  62800001           [03] call       1   2   2  
00F1B5  12008000           [04] move       0   1      
fail op	35
00F1B9  63404000           [05] close      1  
00F1BD  1A400280           [06] jmp        10           ; to [17]
00F1C1  53000000           [07] getupval   1   0      
00F1C5  4E80C000           [08] gettable   1   1   258  ; 630793108
00F1C9  9DC00000           [09] getglobal  2   3        ; _G
00F1CD  8E004101           [10] gettable   2   2   260  ; "UISound_Focus"
00F1D1  62400001           [11] call       1   2   1  
00F1D5  43404100           [12] add        1   0   261  ; 0
fail op	8
00F1D9  48008000           [13] setupval   1   1      
00F1DD  53000001           [14] getupval   1   2      
00F1E1  92000000           [15] move       2   0      
00F1E5  62400001           [16] call       1   2   1  
00F1E9  1E008000           [17] return     0   1      
                           * constants:
00F1ED  06                 sizek (6)
00F1EE  01                 const type 3
00F1EF  DEAD95F5           const [0]: (-174740002)
00F1F3  00                 const type 0
                           const [1]: nil
00F1F4  01                 const type 3
00F1F5  94239925           const [2]: (630793108)
00F1F9  04                 const type 4
00F1FA  03                 string size (3)
00F1FB  5F4700             "_G\0"
                           const [3]: "_G"
00F1FE  04                 const type 4
00F1FF  0E                 string size (14)
00F200  5549536F756E645F+  "UISound_"
00F208  466F63757300       "Focus\0"
                           const [4]: "UISound_Focus"
00F20E  03                 const type 3
00F20F  0000803F           const [5]: (0)
                           * functions:
00F213  00                 sizep (0)
                           * lines:
00F214  11                 sizelineinfo (17)
                           [pc] (line)
00F215  17                 [01] (23)
00F216  06                 [02] (23)
00F217  00                 [03] (23)
00F218  00                 [04] (23)
00F219  17                 [05] (24)
00F21A  06                 [06] (24)
00F21B  00                 [07] (25)
00F21C  00                 [08] (25)
00F21D  17                 [09] (25)
00F21E  06                 [10] (25)
00F21F  00                 [11] (25)
00F220  00                 [12] (26)
00F221  17                 [13] (26)
00F222  06                 [14] (27)
00F223  00                 [15] (27)
00F224  00                 [16] (27)
00F225  18                 [17] (29)
                           * locals:
00F259  00                 sizelocvars (0)
                           * upvalues:
00F25A  00                 sizeupvalues (0)
                           ** end of function **

                           
00F25B                     ** function [43] definition (level 2)
                           ** start of function **
00F25B  00                 string size (0)
                           source name: (none)
00F25D  0C                 line defined (1567)
00F25E  A7                 last line defined (1575)
00F25F  0C                 nups (2)
00F260  02                 numparams (1)
00F261  01                 is_vararg (0)
00F262  00                 maxstacksize (3)
                           * code:
00F264  13                 sizecode (19)
00F265  5D000000           [01] getglobal  1   0        ; -174740002
00F269  92000000           [02] move       2   0      
00F26D  62800001           [03] call       1   2   2  
00F271  12008000           [04] move       0   1      
fail op	35
00F275  63404000           [05] close      1  
00F279  1AC00280           [06] jmp        12           ; to [19]
00F27D  53000000           [07] getupval   1   0      
fail op	35
00F281  6340C000           [08] close      1  
00F285  1A000280           [09] jmp        9            ; to [19]
00F289  53000000           [10] getupval   1   0      
00F28D  83804000           [11] add        2   0   258  ; 0
fail op	35
00F291  23808000           [12] close      0  
00F295  1A400080           [13] jmp        2            ; to [16]
00F299  46008000           [14] loadnil    1   1      
fail op	8
00F29D  48000000           [15] setupval   1   0      
00F2A1  53008000           [16] getupval   1   1      
00F2A5  92000000           [17] move       2   0      
00F2A9  62400001           [18] call       1   2   1  
00F2AD  1E008000           [19] return     0   1      
                           * constants:
00F2B1  03                 sizek (3)
00F2B2  01                 const type 3
00F2B3  DEAD95F5           const [0]: (-174740002)
00F2B7  00                 const type 0
                           const [1]: nil
00F2B8  03                 const type 3
00F2B9  0000803F           const [2]: (0)
                           * functions:
00F2BD  00                 sizep (0)
                           * lines:
00F2BE  13                 sizelineinfo (19)
                           [pc] (line)
00F2BF  20                 [01] (32)
00F2C0  06                 [02] (32)
00F2C1  00                 [03] (32)
00F2C2  00                 [04] (32)
00F2C3  20                 [05] (33)
00F2C4  06                 [06] (33)
00F2C5  00                 [07] (33)
00F2C6  00                 [08] (33)
00F2C7  20                 [09] (33)
00F2C8  06                 [10] (34)
00F2C9  00                 [11] (34)
00F2CA  00                 [12] (34)
00F2CB  20                 [13] (34)
00F2CC  06                 [14] (35)
00F2CD  00                 [15] (35)
00F2CE  00                 [16] (37)
00F2CF  21                 [17] (37)
00F2D0  06                 [18] (37)
00F2D1  00                 [19] (39)
                           * locals:
00F30B  00                 sizelocvars (0)
                           * upvalues:
00F30C  00                 sizeupvalues (0)
                           ** end of function **

                           
00F30D                     ** function [44] definition (level 2)
                           ** start of function **
00F30D  00                 string size (0)
                           source name: (none)
00F30F  0C                 line defined (1577)
00F310  BC                 last line defined (1596)
00F311  0C                 nups (5)
00F312  05                 numparams (1)
00F313  01                 is_vararg (0)
00F314  00                 maxstacksize (4)
                           * code:
00F316  1E                 sizecode (30)
00F317  5D000000           [01] getglobal  1   0        ; -174740002
00F31B  92000000           [02] move       2   0      
00F31F  62800001           [03] call       1   2   2  
00F323  12008000           [04] move       0   1      
00F327  53000000           [05] getupval   1   0      
fail op	35
00F32B  63404000           [06] close      1  
00F32F  1A400180           [07] jmp        6            ; to [14]
00F333  93008000           [08] getupval   2   1      
fail op	21
00F337  15800000           [09] concat     0   0   2  
00F33B  1A400080           [10] jmp        2            ; to [13]
00F33F  53008000           [11] getupval   1   1      
00F343  1A000080           [12] jmp        1            ; to [14]
00F347  52000000           [13] move       1   0      
00F34B  93000000           [14] getupval   2   0      
fail op	35
00F34F  63400001           [15] close      1  
00F353  1A000380           [16] jmp        13           ; to [30]
fail op	8
00F357  48000000           [17] setupval   1   0      
00F35B  93000001           [18] getupval   2   2      
00F35F  D3008001           [19] getupval   3   3      
00F363  CE80C001           [20] gettable   3   3   258  ; "mSelectedElement"
00F367  A2400001           [21] call       2   2   1  
00F36B  93000000           [22] getupval   2   0      
fail op	35
00F36F  23400001           [23] close      0  
00F373  1A000180           [24] jmp        5            ; to [30]
00F377  93000002           [25] getupval   2   4      
00F37B  8EC04001           [26] gettable   2   2   259  ; 630793108
00F37F  DD000100           [27] getglobal  3   4        ; _G
00F383  CE40C101           [28] gettable   3   3   261  ; "UISound_ButtonSelect"
00F387  A2400001           [29] call       2   2   1  
00F38B  1E008000           [30] return     0   1      
                           * constants:
00F38F  06                 sizek (6)
00F390  01                 const type 3
00F391  DEAD95F5           const [0]: (-174740002)
00F395  00                 const type 0
                           const [1]: nil
00F396  04                 const type 4
00F397  11                 string size (17)
00F398  6D53656C65637465+  "mSelecte"
00F3A0  64456C656D656E74+  "dElement"
00F3A8  00                 "\0"
                           const [2]: "mSelectedElement"
00F3A9  01                 const type 3
00F3AA  94239925           const [3]: (630793108)
00F3AE  04                 const type 4
00F3AF  03                 string size (3)
00F3B0  5F4700             "_G\0"
                           const [4]: "_G"
00F3B3  04                 const type 4
00F3B4  15                 string size (21)
00F3B5  5549536F756E645F+  "UISound_"
00F3BD  427574746F6E5365+  "ButtonSe"
00F3C5  6C65637400         "lect\0"
                           const [5]: "UISound_ButtonSelect"
                           * functions:
00F3CA  00                 sizep (0)
                           * lines:
00F3CB  1E                 sizelineinfo (30)
                           [pc] (line)
00F3CC  2A                 [01] (42)
00F3CD  06                 [02] (42)
00F3CE  00                 [03] (42)
00F3CF  00                 [04] (42)
00F3D0  2A                 [05] (43)
00F3D1  06                 [06] (44)
00F3D2  00                 [07] (44)
00F3D3  00                 [08] (45)
00F3D4  2A                 [09] (45)
00F3D5  06                 [10] (45)
00F3D6  00                 [11] (46)
00F3D7  00                 [12] (46)
00F3D8  2A                 [13] (48)
00F3D9  06                 [14] (51)
00F3DA  00                 [15] (51)
00F3DB  00                 [16] (51)
00F3DC  2B                 [17] (52)
00F3DD  06                 [18] (53)
00F3DE  00                 [19] (53)
00F3DF  00                 [20] (53)
00F3E0  2C                 [21] (53)
00F3E1  06                 [22] (56)
00F3E2  00                 [23] (56)
00F3E3  00                 [24] (56)
00F3E4  2C                 [25] (57)
00F3E5  06                 [26] (57)
00F3E6  00                 [27] (57)
00F3E7  00                 [28] (57)
00F3E8  2D                 [29] (57)
00F3E9  06                 [30] (60)
                           * locals:
00F444  00                 sizelocvars (0)
                           * upvalues:
00F445  00                 sizeupvalues (0)
                           ** end of function **

                           
00F446                     ** function [45] definition (level 2)
                           ** start of function **
00F446  00                 string size (0)
                           source name: (none)
00F448  0C                 line defined (1598)
00F449  C0                 last line defined (1600)
00F44A  0C                 nups (2)
00F44B  02                 numparams (0)
00F44C  00                 is_vararg (0)
00F44D  00                 maxstacksize (3)
                           * code:
00F44F  05                 sizecode (5)
00F450  13000000           [1] getupval   0   0      
00F454  57000000           [2] loadbool   1   0   0    ; false
00F458  93008000           [3] getupval   2   1      
00F45C  22408001           [4] call       0   3   1  
00F460  1E008000           [5] return     0   1      
                           * constants:
00F464  00                 sizek (0)
                           * functions:
00F465  00                 sizep (0)
                           * lines:
00F466  05                 sizelineinfo (5)
                           [pc] (line)
00F467  3F                 [1] (63)
00F468  06                 [2] (63)
00F469  00                 [3] (63)
00F46A  00                 [4] (63)
00F46B  3F                 [5] (64)
                           * locals:
00F47B  00                 sizelocvars (0)
                           * upvalues:
00F47C  00                 sizeupvalues (0)
                           ** end of function **

                           
00F47D                     ** function [46] definition (level 2)
                           ** start of function **
00F47D  00                 string size (0)
                           source name: (none)
00F47F  0C                 line defined (1602)
00F480  C4                 last line defined (1604)
00F481  0C                 nups (2)
00F482  02                 numparams (0)
00F483  00                 is_vararg (0)
00F484  00                 maxstacksize (3)
                           * code:
00F486  05                 sizecode (5)
00F487  13000000           [1] getupval   0   0      
00F48B  57008000           [2] loadbool   1   1   0    ; true
00F48F  93008000           [3] getupval   2   1      
00F493  22408001           [4] call       0   3   1  
00F497  1E008000           [5] return     0   1      
                           * constants:
00F49B  00                 sizek (0)
                           * functions:
00F49C  00                 sizep (0)
                           * lines:
00F49D  05                 sizelineinfo (5)
                           [pc] (line)
00F49E  43                 [1] (67)
00F49F  06                 [2] (67)
00F4A0  00                 [3] (67)
00F4A1  00                 [4] (67)
00F4A2  43                 [5] (68)
                           * locals:
00F4B2  00                 sizelocvars (0)
                           * upvalues:
00F4B3  00                 sizeupvalues (0)
                           ** end of function **

                           
00F4B4                     ** function [47] definition (level 2)
                           ** start of function **
00F4B4  00                 string size (0)
                           source name: (none)
00F4B6  0C                 line defined (1606)
00F4B7  CC                 last line defined (1612)
00F4B8  0C                 nups (1)
00F4B9  01                 numparams (1)
00F4BA  01                 is_vararg (0)
00F4BB  00                 maxstacksize (5)
                           * code:
00F4BD  10                 sizecode (16)
00F4BE  53000000           [01] getupval   1   0      
fail op	35
00F4C2  6300C000           [02] close      1  
00F4C6  1AC00080           [03] jmp        4            ; to [8]
00F4CA  53000000           [04] getupval   1   0      
00F4CE  4E40C000           [05] gettable   1   1   257  ; "mCategoryMenu"
fail op	35
00F4D2  2300C000           [06] close      0  
00F4D6  1A000080           [07] jmp        1            ; to [9]
00F4DA  1E008000           [08] return     0   1      
00F4DE  53000000           [09] getupval   1   0      
00F4E2  4E40C000           [10] gettable   1   1   257  ; "mCategoryMenu"
00F4E6  6480C000           [11] self       1   1   258  ; -1967297336
00F4EA  DDC00000           [12] getglobal  3   3        ; -174740002
00F4EE  12010000           [13] move       4   0      
00F4F2  E2000001           [14] call       3   2   0  
00F4F6  62400000           [15] call       1   0   1  
00F4FA  1E008000           [16] return     0   1      
                           * constants:
00F4FE  04                 sizek (4)
00F4FF  00                 const type 0
                           const [0]: nil
00F500  04                 const type 4
00F501  0E                 string size (14)
00F502  6D43617465676F72+  "mCategor"
00F50A  794D656E7500       "yMenu\0"
                           const [1]: "mCategoryMenu"
00F510  01                 const type 3
00F511  C86CBD8A           const [2]: (-1967297336)
00F515  01                 const type 3
00F516  DEAD95F5           const [3]: (-174740002)
                           * functions:
00F51A  00                 sizep (0)
                           * lines:
00F51B  10                 sizelineinfo (16)
                           [pc] (line)
00F51C  47                 [01] (71)
00F51D  06                 [02] (71)
00F51E  00                 [03] (71)
00F51F  00                 [04] (71)
00F520  47                 [05] (71)
00F521  06                 [06] (71)
00F522  00                 [07] (71)
00F523  00                 [08] (72)
00F524  47                 [09] (75)
00F525  06                 [10] (75)
00F526  00                 [11] (75)
00F527  00                 [12] (75)
00F528  47                 [13] (75)
00F529  06                 [14] (75)
00F52A  00                 [15] (75)
00F52B  00                 [16] (76)
                           * locals:
00F55C  00                 sizelocvars (0)
                           * upvalues:
00F55D  00                 sizeupvalues (0)
                           ** end of function **

                           
00F55E                     ** function [48] definition (level 2)
                           ** start of function **
00F55E  00                 string size (0)
                           source name: (none)
00F560  0C                 line defined (1614)
00F561  D4                 last line defined (1620)
00F562  0C                 nups (1)
00F563  01                 numparams (1)
00F564  01                 is_vararg (0)
00F565  00                 maxstacksize (5)
                           * code:
00F567  10                 sizecode (16)
00F568  53000000           [01] getupval   1   0      
fail op	35
00F56C  6300C000           [02] close      1  
00F570  1AC00080           [03] jmp        4            ; to [8]
00F574  53000000           [04] getupval   1   0      
00F578  4E40C000           [05] gettable   1   1   257  ; "mCategoryMenu"
fail op	35
00F57C  2300C000           [06] close      0  
00F580  1A000080           [07] jmp        1            ; to [9]
00F584  1E008000           [08] return     0   1      
00F588  53000000           [09] getupval   1   0      
00F58C  4E40C000           [10] gettable   1   1   257  ; "mCategoryMenu"
00F590  6480C000           [11] self       1   1   258  ; 561426718
00F594  DDC00000           [12] getglobal  3   3        ; -174740002
00F598  12010000           [13] move       4   0      
00F59C  E2000001           [14] call       3   2   0  
00F5A0  62400000           [15] call       1   0   1  
00F5A4  1E008000           [16] return     0   1      
                           * constants:
00F5A8  04                 sizek (4)
00F5A9  00                 const type 0
                           const [0]: nil
00F5AA  04                 const type 4
00F5AB  0E                 string size (14)
00F5AC  6D43617465676F72+  "mCategor"
00F5B4  794D656E7500       "yMenu\0"
                           const [1]: "mCategoryMenu"
00F5BA  01                 const type 3
00F5BB  1EB17621           const [2]: (561426718)
00F5BF  01                 const type 3
00F5C0  DEAD95F5           const [3]: (-174740002)
                           * functions:
00F5C4  00                 sizep (0)
                           * lines:
00F5C5  10                 sizelineinfo (16)
                           [pc] (line)
00F5C6  4F                 [01] (79)
00F5C7  06                 [02] (79)
00F5C8  00                 [03] (79)
00F5C9  00                 [04] (79)
00F5CA  4F                 [05] (79)
00F5CB  06                 [06] (79)
00F5CC  00                 [07] (79)
00F5CD  00                 [08] (80)
00F5CE  4F                 [09] (83)
00F5CF  06                 [10] (83)
00F5D0  00                 [11] (83)
00F5D1  00                 [12] (83)
00F5D2  4F                 [13] (83)
00F5D3  06                 [14] (83)
00F5D4  00                 [15] (83)
00F5D5  00                 [16] (84)
                           * locals:
00F606  00                 sizelocvars (0)
                           * upvalues:
00F607  00                 sizeupvalues (0)
                           ** end of function **

                           
00F608                     ** function [49] definition (level 2)
                           ** start of function **
00F608  00                 string size (0)
                           source name: (none)
00F60A  0C                 line defined (1622)
00F60B  DC                 last line defined (1628)
00F60C  0C                 nups (2)
00F60D  02                 numparams (1)
00F60E  01                 is_vararg (0)
00F60F  00                 maxstacksize (5)
                           * code:
00F611  14                 sizecode (20)
00F612  53000000           [01] getupval   1   0      
00F616  58400000           [02] test       1       1    ; to [4] if false
00F61A  1A800180           [03] jmp        7            ; to [11]
00F61E  53008000           [04] getupval   1   1      
fail op	35
00F622  6300C000           [05] close      1  
00F626  1AC00080           [06] jmp        4            ; to [11]
00F62A  53008000           [07] getupval   1   1      
00F62E  4E40C000           [08] gettable   1   1   257  ; "mCategoryMenu"
fail op	35
00F632  2300C000           [09] close      0  
00F636  1A000080           [10] jmp        1            ; to [12]
00F63A  1E008000           [11] return     0   1      
00F63E  53008000           [12] getupval   1   1      
00F642  4E40C000           [13] gettable   1   1   257  ; "mCategoryMenu"
00F646  6480C000           [14] self       1   1   258  ; 1002639746
00F64A  DDC00000           [15] getglobal  3   3        ; -174740002
00F64E  12010000           [16] move       4   0      
00F652  E2800001           [17] call       3   2   2  
00F656  17018000           [18] loadbool   4   1   0    ; true
00F65A  62400002           [19] call       1   4   1  
00F65E  1E008000           [20] return     0   1      
                           * constants:
00F662  04                 sizek (4)
00F663  00                 const type 0
                           const [0]: nil
00F664  04                 const type 4
00F665  0E                 string size (14)
00F666  6D43617465676F72+  "mCategor"
00F66E  794D656E7500       "yMenu\0"
                           const [1]: "mCategoryMenu"
00F674  01                 const type 3
00F675  8211C33B           const [2]: (1002639746)
00F679  01                 const type 3
00F67A  DEAD95F5           const [3]: (-174740002)
                           * functions:
00F67E  00                 sizep (0)
                           * lines:
00F67F  14                 sizelineinfo (20)
                           [pc] (line)
00F680  57                 [01] (87)
00F681  06                 [02] (87)
00F682  00                 [03] (87)
00F683  00                 [04] (87)
00F684  57                 [05] (87)
00F685  06                 [06] (87)
00F686  00                 [07] (87)
00F687  00                 [08] (87)
00F688  57                 [09] (87)
00F689  06                 [10] (87)
00F68A  00                 [11] (88)
00F68B  00                 [12] (91)
00F68C  57                 [13] (91)
00F68D  06                 [14] (91)
00F68E  00                 [15] (91)
00F68F  00                 [16] (91)
00F690  57                 [17] (91)
00F691  06                 [18] (91)
00F692  00                 [19] (91)
00F693  00                 [20] (92)
                           * locals:
00F6D0  00                 sizelocvars (0)
                           * upvalues:
00F6D1  00                 sizeupvalues (0)
                           ** end of function **

                           
00F6D2                     ** function [50] definition (level 2)
                           ** start of function **
00F6D2  00                 string size (0)
                           source name: (none)
00F6D4  0C                 line defined (1630)
00F6D5  E2                 last line defined (1634)
00F6D6  0C                 nups (1)
00F6D7  01                 numparams (1)
00F6D8  01                 is_vararg (0)
00F6D9  00                 maxstacksize (5)
                           * code:
00F6DB  0E                 sizecode (14)
00F6DC  5D000000           [01] getglobal  1   0        ; 1074689893
00F6E0  93000000           [02] getupval   2   0      
00F6E4  8E404001           [03] gettable   2   2   257  ; "mSortMenu"
00F6E8  62800001           [04] call       1   2   2  
00F6EC  58400000           [05] test       1       1    ; to [7] if false
00F6F0  1A800180           [06] jmp        7            ; to [14]
00F6F4  53000000           [07] getupval   1   0      
00F6F8  4E40C000           [08] gettable   1   1   257  ; "mSortMenu"
00F6FC  6480C000           [09] self       1   1   258  ; -1967297336
00F700  DDC00000           [10] getglobal  3   3        ; -174740002
00F704  12010000           [11] move       4   0      
00F708  E2000001           [12] call       3   2   0  
00F70C  62400000           [13] call       1   0   1  
00F710  1E008000           [14] return     0   1      
                           * constants:
00F714  04                 sizek (4)
00F715  01                 const type 3
00F716  65770E40           const [0]: (1074689893)
00F71A  04                 const type 4
00F71B  0A                 string size (10)
00F71C  6D536F72744D656E+  "mSortMen"
00F724  7500               "u\0"
                           const [1]: "mSortMenu"
00F726  01                 const type 3
00F727  C86CBD8A           const [2]: (-1967297336)
00F72B  01                 const type 3
00F72C  DEAD95F5           const [3]: (-174740002)
                           * functions:
00F730  00                 sizep (0)
                           * lines:
00F731  0E                 sizelineinfo (14)
                           [pc] (line)
00F732  5F                 [01] (95)
00F733  06                 [02] (95)
00F734  00                 [03] (95)
00F735  00                 [04] (95)
00F736  5F                 [05] (95)
00F737  06                 [06] (95)
00F738  00                 [07] (96)
00F739  00                 [08] (96)
00F73A  5F                 [09] (96)
00F73B  06                 [10] (96)
00F73C  00                 [11] (96)
00F73D  00                 [12] (96)
00F73E  5F                 [13] (96)
00F73F  06                 [14] (98)
                           * locals:
00F76A  00                 sizelocvars (0)
                           * upvalues:
00F76B  00                 sizeupvalues (0)
                           ** end of function **

                           
00F76C                     ** function [51] definition (level 2)
                           ** start of function **
00F76C  00                 string size (0)
                           source name: (none)
00F76E  0C                 line defined (1636)
00F76F  E8                 last line defined (1640)
00F770  0C                 nups (1)
00F771  01                 numparams (1)
00F772  01                 is_vararg (0)
00F773  00                 maxstacksize (5)
                           * code:
00F775  0E                 sizecode (14)
00F776  5D000000           [01] getglobal  1   0        ; 1074689893
00F77A  93000000           [02] getupval   2   0      
00F77E  8E404001           [03] gettable   2   2   257  ; "mSortMenu"
00F782  62800001           [04] call       1   2   2  
00F786  58400000           [05] test       1       1    ; to [7] if false
00F78A  1A800180           [06] jmp        7            ; to [14]
00F78E  53000000           [07] getupval   1   0      
00F792  4E40C000           [08] gettable   1   1   257  ; "mSortMenu"
00F796  6480C000           [09] self       1   1   258  ; 561426718
00F79A  DDC00000           [10] getglobal  3   3        ; -174740002
00F79E  12010000           [11] move       4   0      
00F7A2  E2000001           [12] call       3   2   0  
00F7A6  62400000           [13] call       1   0   1  
00F7AA  1E008000           [14] return     0   1      
                           * constants:
00F7AE  04                 sizek (4)
00F7AF  01                 const type 3
00F7B0  65770E40           const [0]: (1074689893)
00F7B4  04                 const type 4
00F7B5  0A                 string size (10)
00F7B6  6D536F72744D656E+  "mSortMen"
00F7BE  7500               "u\0"
                           const [1]: "mSortMenu"
00F7C0  01                 const type 3
00F7C1  1EB17621           const [2]: (561426718)
00F7C5  01                 const type 3
00F7C6  DEAD95F5           const [3]: (-174740002)
                           * functions:
00F7CA  00                 sizep (0)
                           * lines:
00F7CB  0E                 sizelineinfo (14)
                           [pc] (line)
00F7CC  65                 [01] (101)
00F7CD  06                 [02] (101)
00F7CE  00                 [03] (101)
00F7CF  00                 [04] (101)
00F7D0  65                 [05] (101)
00F7D1  06                 [06] (101)
00F7D2  00                 [07] (102)
00F7D3  00                 [08] (102)
00F7D4  65                 [09] (102)
00F7D5  06                 [10] (102)
00F7D6  00                 [11] (102)
00F7D7  00                 [12] (102)
00F7D8  65                 [13] (102)
00F7D9  06                 [14] (104)
                           * locals:
00F804  00                 sizelocvars (0)
                           * upvalues:
00F805  00                 sizeupvalues (0)
                           ** end of function **

                           
00F806                     ** function [52] definition (level 2)
                           ** start of function **
00F806  00                 string size (0)
                           source name: (none)
00F808  0C                 line defined (1642)
00F809  EE                 last line defined (1646)
00F80A  0C                 nups (2)
00F80B  02                 numparams (1)
00F80C  01                 is_vararg (0)
00F80D  00                 maxstacksize (5)
                           * code:
00F80F  12                 sizecode (18)
00F810  53000000           [01] getupval   1   0      
00F814  58400000           [02] test       1       1    ; to [4] if false
00F818  1A400380           [03] jmp        14           ; to [18]
00F81C  5D000000           [04] getglobal  1   0        ; 1074689893
00F820  93008000           [05] getupval   2   1      
00F824  8E404001           [06] gettable   2   2   257  ; "mSortMenu"
00F828  62800001           [07] call       1   2   2  
00F82C  58400000           [08] test       1       1    ; to [10] if false
00F830  1AC00180           [09] jmp        8            ; to [18]
00F834  53008000           [10] getupval   1   1      
00F838  4E40C000           [11] gettable   1   1   257  ; "mSortMenu"
00F83C  6480C000           [12] self       1   1   258  ; 1002639746
00F840  DDC00000           [13] getglobal  3   3        ; -174740002
00F844  12010000           [14] move       4   0      
00F848  E2800001           [15] call       3   2   2  
00F84C  17018000           [16] loadbool   4   1   0    ; true
00F850  62400002           [17] call       1   4   1  
00F854  1E008000           [18] return     0   1      
                           * constants:
00F858  04                 sizek (4)
00F859  01                 const type 3
00F85A  65770E40           const [0]: (1074689893)
00F85E  04                 const type 4
00F85F  0A                 string size (10)
00F860  6D536F72744D656E+  "mSortMen"
00F868  7500               "u\0"
                           const [1]: "mSortMenu"
00F86A  01                 const type 3
00F86B  8211C33B           const [2]: (1002639746)
00F86F  01                 const type 3
00F870  DEAD95F5           const [3]: (-174740002)
                           * functions:
00F874  00                 sizep (0)
                           * lines:
00F875  12                 sizelineinfo (18)
                           [pc] (line)
00F876  6B                 [01] (107)
00F877  06                 [02] (107)
00F878  00                 [03] (107)
00F879  00                 [04] (107)
00F87A  6B                 [05] (107)
00F87B  06                 [06] (107)
00F87C  00                 [07] (107)
00F87D  00                 [08] (107)
00F87E  6B                 [09] (107)
00F87F  06                 [10] (108)
00F880  00                 [11] (108)
00F881  00                 [12] (108)
00F882  6B                 [13] (108)
00F883  06                 [14] (108)
00F884  00                 [15] (108)
00F885  00                 [16] (108)
00F886  6B                 [17] (108)
00F887  06                 [18] (110)
                           * locals:
00F8BE  00                 sizelocvars (0)
                           * upvalues:
00F8BF  00                 sizeupvalues (0)
                           ** end of function **

                           
00F8C0                     ** function [53] definition (level 2)
                           ** start of function **
00F8C0  00                 string size (0)
                           source name: (none)
00F8C2  0C                 line defined (1648)
00F8C3  F5                 last line defined (1653)
00F8C4  0C                 nups (2)
00F8C5  02                 numparams (0)
00F8C6  00                 is_vararg (0)
00F8C7  00                 maxstacksize (2)
                           * code:
00F8C9  0E                 sizecode (14)
00F8CA  13000000           [01] getupval   0   0      
00F8CE  18400000           [02] test       0       1    ; to [4] if false
00F8D2  1AC00180           [03] jmp        8            ; to [12]
00F8D6  1D000000           [04] getglobal  0   0        ; 1074689893
00F8DA  53008000           [05] getupval   1   1      
00F8DE  22800001           [06] call       0   2   2  
00F8E2  18400000           [07] test       0       1    ; to [9] if false
00F8E6  1A800080           [08] jmp        3            ; to [12]
00F8EA  13008000           [09] getupval   0   1      
00F8EE  24404000           [10] self       0   0   257  ; 651772705
00F8F2  22400001           [11] call       0   2   1  
00F8F6  17008000           [12] loadbool   0   1   0    ; true
00F8FA  1E000001           [13] return     0   2      
00F8FE  1E008000           [14] return     0   1      
                           * constants:
00F902  02                 sizek (2)
00F903  01                 const type 3
00F904  65770E40           const [0]: (1074689893)
00F908  01                 const type 3
00F909  2143D926           const [1]: (651772705)
                           * functions:
00F90D  00                 sizep (0)
                           * lines:
00F90E  0E                 sizelineinfo (14)
                           [pc] (line)
00F90F  71                 [01] (113)
00F910  06                 [02] (113)
00F911  00                 [03] (113)
00F912  00                 [04] (113)
00F913  71                 [05] (113)
00F914  06                 [06] (113)
00F915  00                 [07] (113)
00F916  00                 [08] (113)
00F917  71                 [09] (114)
00F918  06                 [10] (114)
00F919  00                 [11] (114)
00F91A  00                 [12] (116)
00F91B  71                 [13] (116)
00F91C  06                 [14] (117)
                           * locals:
00F947  00                 sizelocvars (0)
                           * upvalues:
00F948  00                 sizeupvalues (0)
                           ** end of function **

                           
00F949                     ** function [54] definition (level 2)
                           ** start of function **
00F949  00                 string size (0)
                           source name: (none)
00F94B  0C                 line defined (1655)
00F94C  FC                 last line defined (1660)
00F94D  0C                 nups (2)
00F94E  02                 numparams (0)
00F94F  00                 is_vararg (0)
00F950  00                 maxstacksize (2)
                           * code:
00F952  0E                 sizecode (14)
00F953  13000000           [01] getupval   0   0      
00F957  18400000           [02] test       0       1    ; to [4] if false
00F95B  1AC00180           [03] jmp        8            ; to [12]
00F95F  1D000000           [04] getglobal  0   0        ; 1074689893
00F963  53008000           [05] getupval   1   1      
00F967  22800001           [06] call       0   2   2  
00F96B  18400000           [07] test       0       1    ; to [9] if false
00F96F  1A800080           [08] jmp        3            ; to [12]
00F973  13008000           [09] getupval   0   1      
00F977  24404000           [10] self       0   0   257  ; 1437795008
00F97B  22400001           [11] call       0   2   1  
00F97F  17008000           [12] loadbool   0   1   0    ; true
00F983  1E000001           [13] return     0   2      
00F987  1E008000           [14] return     0   1      
                           * constants:
00F98B  02                 sizek (2)
00F98C  01                 const type 3
00F98D  65770E40           const [0]: (1074689893)
00F991  01                 const type 3
00F992  C002B355           const [1]: (1437795008)
                           * functions:
00F996  00                 sizep (0)
                           * lines:
00F997  0E                 sizelineinfo (14)
                           [pc] (line)
00F998  78                 [01] (120)
00F999  06                 [02] (120)
00F99A  00                 [03] (120)
00F99B  00                 [04] (120)
00F99C  78                 [05] (120)
00F99D  06                 [06] (120)
00F99E  00                 [07] (120)
00F99F  00                 [08] (120)
00F9A0  78                 [09] (121)
00F9A1  06                 [10] (121)
00F9A2  00                 [11] (121)
00F9A3  00                 [12] (123)
00F9A4  78                 [13] (123)
00F9A5  06                 [14] (124)
                           * locals:
00F9D0  00                 sizelocvars (0)
                           * upvalues:
00F9D1  00                 sizeupvalues (0)
                           ** end of function **

                           
00F9D2                     ** function [55] definition (level 2)
                           ** start of function **
00F9D2  00                 string size (0)
                           source name: (none)
00F9D4  0C                 line defined (1662)
00F9D5  82                 last line defined (1666)
00F9D6  0D                 nups (1)
00F9D7  01                 numparams (0)
00F9D8  00                 is_vararg (0)
00F9D9  00                 maxstacksize (2)
                           * code:
00F9DB  0A                 sizecode (10)
00F9DC  13000000           [01] getupval   0   0      
00F9E0  0E004000           [02] gettable   0   0   256  ; "mSortMenu"
00F9E4  0E404000           [03] gettable   0   0   257  ; "mVisible"
00F9E8  18000000           [04] test       0       0    ; to [6] if true
00F9EC  1AC00080           [05] jmp        4            ; to [10]
00F9F0  13000000           [06] getupval   0   0      
00F9F4  0E004000           [07] gettable   0   0   256  ; "mSortMenu"
00F9F8  24804000           [08] self       0   0   258  ; -199401524
00F9FC  22400001           [09] call       0   2   1  
00FA00  1E008000           [10] return     0   1      
                           * constants:
00FA04  03                 sizek (3)
00FA05  04                 const type 4
00FA06  0A                 string size (10)
00FA07  6D536F72744D656E+  "mSortMen"
00FA0F  7500               "u\0"
                           const [0]: "mSortMenu"
00FA11  04                 const type 4
00FA12  09                 string size (9)
00FA13  6D56697369626C65+  "mVisible"
00FA1B  00                 "\0"
                           const [1]: "mVisible"
00FA1C  01                 const type 3
00FA1D  CC5F1DF4           const [2]: (-199401524)
                           * functions:
00FA21  00                 sizep (0)
                           * lines:
00FA22  0A                 sizelineinfo (10)
                           [pc] (line)
00FA23  7F                 [01] (127)
00FA24  06                 [02] (127)
00FA25  00                 [03] (127)
00FA26  00                 [04] (127)
00FA27  7F                 [05] (127)
00FA28  06                 [06] (-128)
00FA29  00                 [07] (-128)
00FA2A  00                 [08] (-128)
00FA2B  7F                 [09] (-128)
00FA2C  06                 [10] (-126)
                           * locals:
00FA4B  00                 sizelocvars (0)
                           * upvalues:
00FA4C  00                 sizeupvalues (0)
                           ** end of function **

                           
00FA4D                     ** function [56] definition (level 2)
                           ** start of function **
00FA4D  00                 string size (0)
                           source name: (none)
00FA4F  0D                 line defined (1668)
00FA50  8A                 last line defined (1674)
00FA51  0D                 nups (2)
00FA52  02                 numparams (0)
00FA53  00                 is_vararg (0)
00FA54  00                 maxstacksize (4)
                           * code:
00FA56  13                 sizecode (19)
00FA57  13000000           [01] getupval   0   0      
00FA5B  18400000           [02] test       0       1    ; to [4] if false
00FA5F  1A800380           [03] jmp        15           ; to [19]
00FA63  1D000000           [04] getglobal  0   0        ; 1074689893
00FA67  53008000           [05] getupval   1   1      
00FA6B  22800001           [06] call       0   2   2  
00FA6F  18400000           [07] test       0       1    ; to [9] if false
00FA73  1A400280           [08] jmp        10           ; to [19]
00FA77  13008000           [09] getupval   0   1      
00FA7B  24404000           [10] self       0   0   257  ; -665590474
00FA7F  22800001           [11] call       0   2   2  
00FA83  18400000           [12] test       0       1    ; to [14] if false
00FA87  1A000180           [13] jmp        5            ; to [19]
00FA8B  1D800000           [14] getglobal  0   2        ; mMovie
00FA8F  24C04000           [15] self       0   0   259  ; 1167009705
00FA93  99000100           [16] loadk      2   4        ; "Close"
00FA97  D9400100           [17] loadk      3   5        ; ""
00FA9B  22400002           [18] call       0   4   1  
00FA9F  1E008000           [19] return     0   1      
                           * constants:
00FAA3  06                 sizek (6)
00FAA4  01                 const type 3
00FAA5  65770E40           const [0]: (1074689893)
00FAA9  01                 const type 3
00FAAA  36E553D8           const [1]: (-665590474)
00FAAE  04                 const type 4
00FAAF  07                 string size (7)
00FAB0  6D4D6F76696500     "mMovie\0"
                           const [2]: "mMovie"
00FAB7  01                 const type 3
00FAB8  A9278F45           const [3]: (1167009705)
00FABC  04                 const type 4
00FABD  06                 string size (6)
00FABE  436C6F736500       "Close\0"
                           const [4]: "Close"
00FAC4  04                 const type 4
00FAC5  01                 string size (0)
                           const [5]: ""
                           * functions:
00FAC7  00                 sizep (0)
                           * lines:
00FAC8  13                 sizelineinfo (19)
                           [pc] (line)
00FAC9  85                 [01] (-123)
00FACA  06                 [02] (-123)
00FACB  00                 [03] (-123)
00FACC  00                 [04] (-123)
00FACD  85                 [05] (-123)
00FACE  06                 [06] (-123)
00FACF  00                 [07] (-123)
00FAD0  00                 [08] (-123)
00FAD1  85                 [09] (-122)
00FAD2  06                 [10] (-122)
00FAD3  00                 [11] (-122)
00FAD4  00                 [12] (-122)
00FAD5  85                 [13] (-122)
00FAD6  06                 [14] (-121)
00FAD7  00                 [15] (-121)
00FAD8  00                 [16] (-121)
00FAD9  85                 [17] (-121)
00FADA  06                 [18] (-121)
00FADB  00                 [19] (-118)
                           * locals:
00FB15  00                 sizelocvars (0)
                           * upvalues:
00FB16  00                 sizeupvalues (0)
                           ** end of function **

                           
00FB17                     ** function [57] definition (level 2)
                           ** start of function **
00FB17  00                 string size (0)
                           source name: (none)
00FB19  0D                 line defined (1676)
00FB1A  9A                 last line defined (1690)
00FB1B  0D                 nups (2)
00FB1C  02                 numparams (2)
00FB1D  02                 is_vararg (0)
00FB1E  00                 maxstacksize (7)
                           * code:
00FB20  21                 sizecode (33)
00FB21  93000000           [01] getupval   2   0      
00FB25  98000000           [02] test       2       0    ; to [4] if true
00FB29  1A000080           [03] jmp        1            ; to [5]
00FB2D  1E008000           [04] return     0   1      
00FB31  86000001           [05] loadnil    2   2      
00FB35  DD000000           [06] getglobal  3   0        ; 1074689893
00FB39  13018000           [07] getupval   4   1      
00FB3D  E2800001           [08] call       3   2   2  
00FB41  D8400000           [09] test       3       1    ; to [11] if false
00FB45  1AC00180           [10] jmp        8            ; to [19]
00FB49  DD000000           [11] getglobal  3   0        ; 1074689893
00FB4D  13018000           [12] getupval   4   1      
00FB51  0E414002           [13] gettable   4   4   257  ; "mScrollBar"
00FB55  E2800001           [14] call       3   2   2  
00FB59  D8400000           [15] test       3       1    ; to [17] if false
00FB5D  1A400080           [16] jmp        2            ; to [19]
00FB61  D3008000           [17] getupval   3   1      
00FB65  8E40C001           [18] gettable   2   3   257  ; "mScrollBar"
00FB69  DD000000           [19] getglobal  3   0        ; 1074689893
00FB6D  12010001           [20] move       4   2      
00FB71  E2800001           [21] call       3   2   2  
00FB75  D8400000           [22] test       3       1    ; to [24] if false
00FB79  1A800180           [23] jmp        7            ; to [31]
00FB7D  E4804001           [24] self       3   2   258  ; -1622081655
00FB81  5DC10000           [25] getglobal  5   3        ; -174740002
00FB85  92018000           [26] move       6   1      
00FB89  62810001           [27] call       5   2   2  
00FB8D  9D010100           [28] getglobal  6   4        ; _G
00FB91  8E414103           [29] gettable   6   6   261  ; "UISound_Scroll"
00FB95  E2400002           [30] call       3   4   1  
00FB99  D7000000           [31] loadbool   3   0   0    ; false
00FB9D  DE000001           [32] return     3   2      
00FBA1  1E008000           [33] return     0   1      
                           * constants:
00FBA5  06                 sizek (6)
00FBA6  01                 const type 3
00FBA7  65770E40           const [0]: (1074689893)
00FBAB  04                 const type 4
00FBAC  0B                 string size (11)
00FBAD  6D5363726F6C6C42+  "mScrollB"
00FBB5  617200             "ar\0"
                           const [1]: "mScrollBar"
00FBB8  01                 const type 3
00FBB9  89FF509F           const [2]: (-1622081655)
00FBBD  01                 const type 3
00FBBE  DEAD95F5           const [3]: (-174740002)
00FBC2  04                 const type 4
00FBC3  03                 string size (3)
00FBC4  5F4700             "_G\0"
                           const [4]: "_G"
00FBC7  04                 const type 4
00FBC8  0F                 string size (15)
00FBC9  5549536F756E645F+  "UISound_"
00FBD1  5363726F6C6C00     "Scroll\0"
                           const [5]: "UISound_Scroll"
                           * functions:
00FBD8  00                 sizep (0)
                           * lines:
00FBD9  21                 sizelineinfo (33)
                           [pc] (line)
00FBDA  8D                 [01] (-115)
00FBDB  06                 [02] (-115)
00FBDC  00                 [03] (-115)
00FBDD  00                 [04] (-114)
00FBDE  8D                 [05] (-111)
00FBDF  06                 [06] (-110)
00FBE0  00                 [07] (-110)
00FBE1  00                 [08] (-110)
00FBE2  8D                 [09] (-110)
00FBE3  06                 [10] (-110)
00FBE4  00                 [11] (-110)
00FBE5  00                 [12] (-110)
00FBE6  8E                 [13] (-110)
00FBE7  06                 [14] (-110)
00FBE8  00                 [15] (-110)
00FBE9  00                 [16] (-110)
00FBEA  91                 [17] (-109)
00FBEB  06                 [18] (-109)
00FBEC  00                 [19] (-107)
00FBED  00                 [20] (-107)
00FBEE  92                 [21] (-107)
00FBEF  06                 [22] (-107)
00FBF0  00                 [23] (-107)
00FBF1  00                 [24] (-106)
00FBF2  92                 [25] (-106)
00FBF3  06                 [26] (-106)
00FBF4  00                 [27] (-106)
00FBF5  00                 [28] (-106)
00FBF6  92                 [29] (-106)
00FBF7  06                 [30] (-106)
00FBF8  00                 [31] (-103)
00FBF9  00                 [32] (-103)
00FBFA  92                 [33] (-102)
                           * locals:
00FC5E  00                 sizelocvars (0)
                           * upvalues:
00FC5F  00                 sizeupvalues (0)
                           ** end of function **

                           
00FC60                     ** function [58] definition (level 2)
                           ** start of function **
00FC60  00                 string size (0)
                           source name: (none)
00FC62  0D                 line defined (1692)
00FC63  A4                 last line defined (1700)
00FC64  0D                 nups (2)
00FC65  02                 numparams (1)
00FC66  01                 is_vararg (0)
00FC67  00                 maxstacksize (3)
                           * code:
00FC69  11                 sizecode (17)
00FC6A  5D000000           [01] getglobal  1   0        ; 1074689893
00FC6E  93000000           [02] getupval   2   0      
00FC72  62800001           [03] call       1   2   2  
00FC76  58400000           [04] test       1       1    ; to [6] if false
00FC7A  1A800080           [05] jmp        3            ; to [9]
00FC7E  53000000           [06] getupval   1   0      
00FC82  6440C000           [07] self       1   1   257  ; 1685109492
00FC86  62400001           [08] call       1   2   1  
00FC8A  5D000000           [09] getglobal  1   0        ; 1074689893
00FC8E  93008000           [10] getupval   2   1      
00FC92  62800001           [11] call       1   2   2  
00FC96  58400000           [12] test       1       1    ; to [14] if false
00FC9A  1A800080           [13] jmp        3            ; to [17]
00FC9E  53008000           [14] getupval   1   1      
00FCA2  6440C000           [15] self       1   1   257  ; 1685109492
00FCA6  62400001           [16] call       1   2   1  
00FCAA  1E008000           [17] return     0   1      
                           * constants:
00FCAE  02                 sizek (2)
00FCAF  01                 const type 3
00FCB0  65770E40           const [0]: (1074689893)
00FCB4  01                 const type 3
00FCB5  F4BA7064           const [1]: (1685109492)
                           * functions:
00FCB9  00                 sizep (0)
                           * lines:
00FCBA  11                 sizelineinfo (17)
                           [pc] (line)
00FCBB  9D                 [01] (-99)
00FCBC  06                 [02] (-99)
00FCBD  00                 [03] (-99)
00FCBE  00                 [04] (-99)
00FCBF  9D                 [05] (-99)
00FCC0  06                 [06] (-98)
00FCC1  00                 [07] (-98)
00FCC2  00                 [08] (-98)
00FCC3  9D                 [09] (-95)
00FCC4  06                 [10] (-95)
00FCC5  00                 [11] (-95)
00FCC6  00                 [12] (-95)
00FCC7  9D                 [13] (-95)
00FCC8  06                 [14] (-94)
00FCC9  00                 [15] (-94)
00FCCA  00                 [16] (-94)
00FCCB  9D                 [17] (-92)
                           * locals:
00FCFF  00                 sizelocvars (0)
                           * upvalues:
00FD00  00                 sizeupvalues (0)
                           ** end of function **

                           
00FD01                     ** function [59] definition (level 2)
                           ** start of function **
00FD01  00                 string size (0)
                           source name: (none)
00FD03  0D                 line defined (1702)
00FD04  A8                 last line defined (1704)
00FD05  0D                 nups (0)
00FD06  00                 numparams (0)
00FD07  00                 is_vararg (0)
00FD08  00                 maxstacksize (2)
                           * code:
00FD0A  03                 sizecode (3)
00FD0B  17008000           [1] loadbool   0   1   0    ; true
00FD0F  1E000001           [2] return     0   2      
00FD13  1E008000           [3] return     0   1      
                           * constants:
00FD17  00                 sizek (0)
                           * functions:
00FD18  00                 sizep (0)
                           * lines:
00FD19  03                 sizelineinfo (3)
                           [pc] (line)
00FD1A  A7                 [1] (-89)
00FD1B  06                 [2] (-89)
00FD1C  00                 [3] (-88)
                           * locals:
00FD26  00                 sizelocvars (0)
                           * upvalues:
00FD27  00                 sizeupvalues (0)
                           ** end of function **

                           
00FD28                     ** function [60] definition (level 2)
                           ** start of function **
00FD28  00                 string size (0)
                           source name: (none)
00FD2A  0D                 line defined (1706)
00FD2B  AF                 last line defined (1711)
00FD2C  0D                 nups (1)
00FD2D  01                 numparams (0)
00FD2E  00                 is_vararg (0)
00FD2F  00                 maxstacksize (2)
                           * code:
00FD31  0C                 sizecode (12)
00FD32  13000000           [01] getupval   0   0      
00FD36  22408000           [02] call       0   1   1  
00FD3A  1D000000           [03] getglobal  0   0        ; 1074689893
00FD3E  5D400000           [04] getglobal  1   1        ; _T
00FD42  4E80C000           [05] gettable   1   1   258  ; "ShowBackground"
00FD46  22800001           [06] call       0   2   2  
00FD4A  18400000           [07] test       0       1    ; to [9] if false
00FD4E  1A800080           [08] jmp        3            ; to [12]
00FD52  1D400000           [09] getglobal  0   1        ; _T
00FD56  0EC04000           [10] gettable   0   0   259  ; 398318646
00FD5A  22408000           [11] call       0   1   1  
00FD5E  1E008000           [12] return     0   1      
                           * constants:
00FD62  04                 sizek (4)
00FD63  01                 const type 3
00FD64  65770E40           const [0]: (1074689893)
00FD68  04                 const type 4
00FD69  03                 string size (3)
00FD6A  5F5400             "_T\0"
                           const [1]: "_T"
00FD6D  04                 const type 4
00FD6E  0F                 string size (15)
00FD6F  53686F774261636B+  "ShowBack"
00FD77  67726F756E6400     "ground\0"
                           const [2]: "ShowBackground"
00FD7E  01                 const type 3
00FD7F  36DCBD17           const [3]: (398318646)
                           * functions:
00FD83  00                 sizep (0)
                           * lines:
00FD84  0C                 sizelineinfo (12)
                           [pc] (line)
00FD85  AB                 [01] (-85)
00FD86  06                 [02] (-85)
00FD87  00                 [03] (-84)
00FD88  00                 [04] (-84)
00FD89  AB                 [05] (-84)
00FD8A  06                 [06] (-84)
00FD8B  00                 [07] (-84)
00FD8C  00                 [08] (-84)
00FD8D  AC                 [09] (-83)
00FD8E  06                 [10] (-83)
00FD8F  00                 [11] (-83)
00FD90  00                 [12] (-81)
                           * locals:
00FDB5  00                 sizelocvars (0)
                           * upvalues:
00FDB6  00                 sizeupvalues (0)
                           ** end of function **

                           * lines:
00FDB8  03                 sizelineinfo (392)
                           [pc] (line)
00FDB9  12                 [001] (18)
00FDBA  00                 [002] (18)
00FDBB  00                 [003] (18)
00FDBC  00                 [004] (20)
00FDBD  12                 [005] (20)
00FDBE  00                 [006] (20)
00FDBF  00                 [007] (21)
00FDC0  00                 [008] (21)
00FDC1  12                 [009] (21)
00FDC2  00                 [010] (22)
00FDC3  00                 [011] (22)
00FDC4  00                 [012] (22)
00FDC5  14                 [013] (23)
00FDC6  00                 [014] (23)
00FDC7  00                 [015] (23)
00FDC8  00                 [016] (24)
00FDC9  14                 [017] (24)
00FDCA  00                 [018] (24)
00FDCB  00                 [019] (25)
00FDCC  00                 [020] (25)
00FDCD  14                 [021] (25)
00FDCE  00                 [022] (26)
00FDCF  00                 [023] (26)
00FDD0  00                 [024] (26)
00FDD1  15                 [025] (28)
00FDD2  00                 [026] (28)
00FDD3  00                 [027] (28)
00FDD4  00                 [028] (30)
00FDD5  15                 [029] (30)
00FDD6  00                 [030] (30)
00FDD7  00                 [031] (31)
00FDD8  00                 [032] (31)
00FDD9  15                 [033] (31)
00FDDA  00                 [034] (34)
00FDDB  00                 [035] (39)
00FDDC  00                 [036] (40)
00FDDD  16                 [037] (41)
00FDDE  00                 [038] (42)
00FDDF  00                 [039] (43)
00FDE0  00                 [040] (44)
00FDE1  16                 [041] (45)
00FDE2  00                 [042] (46)
00FDE3  00                 [043] (47)
00FDE4  00                 [044] (48)
00FDE5  16                 [045] (49)
00FDE6  00                 [046] (50)
00FDE7  00                 [047] (52)
00FDE8  00                 [048] (53)
00FDE9  17                 [049] (54)
00FDEA  00                 [050] (56)
00FDEB  00                 [051] (57)
00FDEC  00                 [052] (58)
00FDED  17                 [053] (59)
00FDEE  00                 [054] (60)
00FDEF  00                 [055] (61)
00FDF0  00                 [056] (62)
00FDF1  17                 [057] (63)
00FDF2  00                 [058] (66)
00FDF3  00                 [059] (68)
00FDF4  00                 [060] (69)
00FDF5  18                 [061] (70)
00FDF6  00                 [062] (71)
00FDF7  00                 [063] (72)
00FDF8  00                 [064] (73)
00FDF9  18                 [065] (74)
00FDFA  00                 [066] (77)
00FDFB  00                 [067] (79)
00FDFC  00                 [068] (80)
00FDFD  18                 [069] (81)
00FDFE  00                 [070] (82)
00FDFF  00                 [071] (83)
00FE00  00                 [072] (84)
00FE01  19                 [073] (-124)
00FE02  00                 [074] (-124)
00FE03  00                 [075] (-124)
00FE04  00                 [076] (-124)
00FE05  19                 [077] (-124)
00FE06  00                 [078] (-124)
00FE07  00                 [079] (-124)
00FE08  00                 [080] (-124)
00FE09  19                 [081] (-120)
00FE0A  00                 [082] (-120)
00FE0B  00                 [083] (-120)
00FE0C  00                 [084] (-122)
00FE0D  1A                 [085] (-116)
00FE0E  00                 [086] (-116)
00FE0F  00                 [087] (-116)
00FE10  00                 [088] (-118)
00FE11  1A                 [089] (-26)
00FE12  00                 [090] (-26)
00FE13  00                 [091] (-26)
00FE14  00                 [092] (-26)
00FE15  1A                 [093] (-26)
00FE16  00                 [094] (-26)
00FE17  00                 [095] (-26)
00FE18  00                 [096] (-26)
00FE19  1C                 [097] (-26)
00FE1A  00                 [098] (-12)
00FE1B  00                 [099] (-12)
00FE1C  00                 [100] (-12)
00FE1D  1C                 [101] (-12)
00FE1E  00                 [102] (-2)
00FE1F  00                 [103] (-2)
00FE20  00                 [104] (-2)
00FE21  1C                 [105] (-2)
00FE22  00                 [106] (-10)
00FE23  00                 [107] (5)
00FE24  00                 [108] (5)
00FE25  1E                 [109] (5)
00FE26  00                 [110] (5)
00FE27  00                 [111] (0)
00FE28  00                 [112] (22)
00FE29  1E                 [113] (51)
00FE2A  00                 [114] (51)
00FE2B  00                 [115] (51)
00FE2C  00                 [116] (51)
00FE2D  1E                 [117] (51)
00FE2E  00                 [118] (51)
00FE2F  00                 [119] (51)
00FE30  00                 [120] (55)
00FE31  1F                 [121] (55)
00FE32  00                 [122] (55)
00FE33  00                 [123] (53)
00FE34  00                 [124] (77)
00FE35  1F                 [125] (77)
00FE36  00                 [126] (77)
00FE37  00                 [127] (77)
00FE38  00                 [128] (77)
00FE39  1F                 [129] (19)
00FE3A  00                 [130] (19)
00FE3B  00                 [131] (19)
00FE3C  00                 [132] (19)
00FE3D  22                 [133] (19)
00FE3E  00                 [134] (19)
00FE3F  00                 [135] (19)
00FE40  00                 [136] (19)
00FE41  27                 [137] (19)
00FE42  00                 [138] (19)
00FE43  00                 [139] (34)
00FE44  00                 [140] (48)
00FE45  28                 [141] (48)
00FE46  00                 [142] (48)
00FE47  00                 [143] (48)
00FE48  00                 [144] (15)
00FE49  29                 [145] (15)
00FE4A  00                 [146] (15)
00FE4B  00                 [147] (15)
00FE4C  00                 [148] (15)
00FE4D  2A                 [149] (15)
00FE4E  00                 [150] (15)
00FE4F  00                 [151] (15)
00FE50  00                 [152] (15)
00FE51  2B                 [153] (15)
00FE52  00                 [154] (15)
00FE53  00                 [155] (15)
00FE54  00                 [156] (15)
00FE55  2C                 [157] (15)
00FE56  00                 [158] (15)
00FE57  00                 [159] (15)
00FE58  00                 [160] (15)
00FE59  2D                 [161] (29)
00FE5A  00                 [162] (29)
00FE5B  00                 [163] (33)
00FE5C  00                 [164] (33)
00FE5D  2E                 [165] (33)
00FE5E  00                 [166] (41)
00FE5F  00                 [167] (41)
00FE60  00                 [168] (41)
00FE61  2F                 [169] (41)
00FE62  00                 [170] (49)
00FE63  00                 [171] (49)
00FE64  00                 [172] (49)
00FE65  30                 [173] (49)
00FE66  00                 [174] (57)
00FE67  00                 [175] (57)
00FE68  00                 [176] (57)
00FE69  31                 [177] (57)
00FE6A  00                 [178] (11)
00FE6B  00                 [179] (11)
00FE6C  00                 [180] (11)
00FE6D  32                 [181] (11)
00FE6E  00                 [182] (11)
00FE6F  00                 [183] (11)
00FE70  00                 [184] (11)
00FE71  34                 [185] (11)
00FE72  00                 [186] (11)
00FE73  00                 [187] (11)
00FE74  00                 [188] (11)
00FE75  35                 [189] (11)
00FE76  00                 [190] (11)
00FE77  00                 [191] (11)
00FE78  00                 [192] (11)
00FE79  36                 [193] (11)
00FE7A  00                 [194] (11)
00FE7B  00                 [195] (11)
00FE7C  00                 [196] (11)
00FE7D  38                 [197] (23)
00FE7E  00                 [198] (23)
00FE7F  00                 [199] (68)
00FE80  00                 [200] (68)
00FE81  39                 [201] (68)
00FE82  00                 [202] (73)
00FE83  00                 [203] (97)
00FE84  00                 [204] (97)
00FE85  3A                 [205] (97)
00FE86  00                 [206] (97)
00FE87  00                 [207] (97)
00FE88  00                 [208] (-101)
00FE89  3B                 [209] (-101)
00FE8A  00                 [210] (-101)
00FE8B  00                 [211] (-90)
00FE8C  00                 [212] (-90)
00FE8D  3C                 [213] (-65)
00FE8E  00                 [214] (-65)
00FE8F  00                 [215] (-65)
00FE90  00                 [216] (-88)
00FE91  3D                 [217] (29)
00FE92  00                 [218] (29)
00FE93  00                 [219] (29)
00FE94  00                 [220] (29)
00FE95  3E                 [221] (29)
00FE96  00                 [222] (29)
00FE97  00                 [223] (29)
00FE98  00                 [224] (29)
00FE99  3F                 [225] (29)
00FE9A  00                 [226] (29)
00FE9B  00                 [227] (29)
00FE9C  00                 [228] (29)
00FE9D  42                 [229] (29)
00FE9E  00                 [230] (29)
00FE9F  00                 [231] (29)
00FEA0  00                 [232] (29)
00FEA1  44                 [233] (29)
00FEA2  00                 [234] (-63)
00FEA3  00                 [235] (48)
00FEA4  00                 [236] (48)
00FEA5  45                 [237] (57)
00FEA6  00                 [238] (57)
00FEA7  00                 [239] (57)
00FEA8  00                 [240] (50)
00FEA9  46                 [241] (81)
00FEAA  00                 [242] (110)
00FEAB  00                 [243] (110)
00FEAC  00                 [244] (110)
00FEAD  47                 [245] (110)
00FEAE  00                 [246] (110)
00FEAF  00                 [247] (-116)
00FEB0  00                 [248] (-116)
00FEB1  48                 [249] (-116)
00FEB2  00                 [250] (-116)
00FEB3  00                 [251] (-116)
00FEB4  00                 [252] (112)
00FEB5  49                 [253] (-105)
00FEB6  00                 [254] (-105)
00FEB7  00                 [255] (-105)
00FEB8  00                 [256] (-105)
00FEB9  4A                 [257] (-105)
00FEBA  00                 [258] (-114)
00FEBB  00                 [259] (-96)
00FEBC  00                 [260] (-96)
00FEBD  4D                 [261] (-96)
00FEBE  00                 [262] (-96)
00FEBF  00                 [263] (-96)
00FEC0  00                 [264] (-103)
00FEC1  4F                 [265] (-53)
00FEC2  00                 [266] (-53)
00FEC3  00                 [267] (-53)
00FEC4  00                 [268] (-53)
00FEC5  50                 [269] (-53)
00FEC6  00                 [270] (-53)
00FEC7  00                 [271] (-53)
00FEC8  00                 [272] (-94)
00FEC9  51                 [273] (-41)
00FECA  00                 [274] (-41)
00FECB  00                 [275] (-41)
00FECC  00                 [276] (-41)
00FECD  52                 [277] (-41)
00FECE  00                 [278] (-41)
00FECF  00                 [279] (-51)
00FED0  00                 [280] (2)
00FED1  53                 [281] (2)
00FED2  00                 [282] (2)
00FED3  00                 [283] (2)
00FED4  00                 [284] (2)
00FED5  54                 [285] (2)
00FED6  00                 [286] (2)
00FED7  00                 [287] (-39)
00FED8  00                 [288] (8)
00FED9  84                 [289] (8)
00FEDA  00                 [290] (8)
00FEDB  00                 [291] (4)
00FEDC  00                 [292] (14)
00FEDD  84                 [293] (14)
00FEDE  00                 [294] (14)
00FEDF  00                 [295] (10)
00FEE0  00                 [296] (20)
00FEE1  84                 [297] (20)
00FEE2  00                 [298] (20)
00FEE3  00                 [299] (20)
00FEE4  00                 [300] (16)
00FEE5  84                 [301] (29)
00FEE6  00                 [302] (29)
00FEE7  00                 [303] (29)
00FEE8  00                 [304] (29)
00FEE9  84                 [305] (29)
00FEEA  00                 [306] (22)
00FEEB  00                 [307] (39)
00FEEC  00                 [308] (39)
00FEED  84                 [309] (39)
00FEEE  00                 [310] (39)
00FEEF  00                 [311] (31)
00FEF0  00                 [312] (60)
00FEF1  84                 [313] (60)
00FEF2  00                 [314] (60)
00FEF3  00                 [315] (60)
00FEF4  00                 [316] (60)
00FEF5  84                 [317] (60)
00FEF6  00                 [318] (60)
00FEF7  00                 [319] (41)
00FEF8  00                 [320] (64)
00FEF9  88                 [321] (64)
00FEFA  00                 [322] (64)
00FEFB  00                 [323] (64)
00FEFC  00                 [324] (62)
00FEFD  88                 [325] (68)
00FEFE  00                 [326] (68)
00FEFF  00                 [327] (68)
00FF00  00                 [328] (68)
00FF01  88                 [329] (66)
00FF02  00                 [330] (76)
00FF03  00                 [331] (76)
00FF04  00                 [332] (76)
00FF05  86                 [333] (70)
00FF06  00                 [334] (84)
00FF07  00                 [335] (84)
00FF08  00                 [336] (84)
00FF09  8C                 [337] (78)
00FF0A  00                 [338] (92)
00FF0B  00                 [339] (92)
00FF0C  00                 [340] (92)
00FF0D  8C                 [341] (92)
00FF0E  00                 [342] (86)
00FF0F  00                 [343] (98)
00FF10  00                 [344] (98)
00FF11  8C                 [345] (98)
00FF12  00                 [346] (94)
00FF13  00                 [347] (104)
00FF14  00                 [348] (104)
00FF15  8A                 [349] (104)
00FF16  00                 [350] (100)
00FF17  00                 [351] (110)
00FF18  00                 [352] (110)
00FF19  E6                 [353] (110)
00FF1A  00                 [354] (110)
00FF1B  00                 [355] (106)
00FF1C  00                 [356] (117)
00FF1D  E6                 [357] (117)
00FF1E  00                 [358] (117)
00FF1F  00                 [359] (117)
00FF20  00                 [360] (112)
00FF21  E6                 [361] (124)
00FF22  00                 [362] (124)
00FF23  00                 [363] (124)
00FF24  00                 [364] (124)
00FF25  E6                 [365] (119)
00FF26  00                 [366] (-126)
00FF27  00                 [367] (-126)
00FF28  00                 [368] (-126)
00FF29  E6                 [369] (126)
00FF2A  00                 [370] (-118)
00FF2B  00                 [371] (-118)
00FF2C  00                 [372] (-118)
00FF2D  E6                 [373] (-118)
00FF2E  00                 [374] (-124)
00FF2F  00                 [375] (-102)
00FF30  00                 [376] (-102)
00FF31  E6                 [377] (-102)
00FF32  00                 [378] (-102)
00FF33  00                 [379] (-116)
00FF34  00                 [380] (-92)
00FF35  E6                 [381] (-92)
00FF36  00                 [382] (-92)
00FF37  00                 [383] (-92)
00FF38  00                 [384] (-100)
00FF39  E6                 [385] (-88)
00FF3A  00                 [386] (-88)
00FF3B  00                 [387] (-90)
00FF3C  00                 [388] (-81)
00FF3D  F4                 [389] (-81)
00FF3E  00                 [390] (-81)
00FF3F  00                 [391] (-86)
00FF40  00                 [392] (-81)
                           * locals:
0103D9  00                 sizelocvars (0)
                           * upvalues:
0103DA  00                 sizeupvalues (0)
                           ** end of function **

0103DB                     ** end of chunk **
