1	C:\wlua_dump\path\Lotus\InterfaceCipher.lua
Pos   Hex Data           Description or Code
------------------------------------------------------------------------
0000                     ** source chunk: C:\wlua_dump\path\Lotus\InterfaceCipher.lua
                         ** global header start **
0000  7F                 header signature: ""
0001  00                 version (major:minor hex digits)
0002  00                 format (0=official)
0003  00                 endianness (1=little endian)
0004  00                 size of int (bytes)
0005  00                 size of size_t (bytes)
0006  02                 size of Instruction (bytes)
0007  41                 size of number (bytes)
0008  C8                 integral (1=integral)
4200
                         * number type: single
                         * x86 standard (32-bit, little endian, doubles)
                         ** global header end **
EE.Interface.Utilities
Lotus.Interface.LotusUtilities
A
B
C
D
E
F
G
X
Y
PreviewLine
FriendlyFireTacAlert
PanicButtonRazorback
Tried
Success
Timer
ReturnFalse
onRawInputEvent
WedgeRollOver
WedgeRollOut
SetDifficulty
EffectFadeOut
WaitForHackingAnimDone
Shutdown
Initialize
NotifyClose
onKeyDown_MENU_CANCEL
Update
onKeyDown_MENU_GENERIC2
onKeyDown_MENU_GENERIC1
onKeyDown_MENU_SELECT
onKeyDown_MENU_LTRIGGER2
onKeyDown_MENU_RTRIGGER2
onKeyDown_MENU_X
onKeyUp_MENU_X
onKeyDown_MENU_Y
onKeyUp_MENU_Y
UseCipher
IconCacheFlushed
mMovie
math
mMovie
_rotation
targetRotation
_G
StalkerMode
.Line
mMovie
_visible
true
._currentFrame
10
Label.text
/Lotus/Language/Menu/GrineerCipherSolved
solveSound
_color
._x
._y
UISys
FlashInstance_EASE_IN_OUT_BACK
_x
_y
nothing
FlashInstance_LINEAR
mMovie
cipherType
gGameRules
requiredItems
cipherSound
mMovie
targetRotation
_alpha
cipherSound
gRegion
Lotus_Game
CP_GENERAL
mMovie
CiphersLeft
text
x 
mMovie
targetRotation
.Line
_visible
true
gRegion
hackingLoopAnims

mMovie
clickable
false
CipherButton
Focus
Btn
_alpha
targetRotation
nil
undefined
clickFX
gRegion
/Lotus/Types/Actions/RiotMoaHackAction
rightAdditiveTwitch
leftAdditiveTwitch
math
.Line
_visible
true
.gotoAndStop
On
Off
pressSound
a
b
table
mMovie
_rotation
_x
_y
math
mMovie
_x
_y
math
.Line
_visible
.gotoAndStop
Off
a
b
Engine
EN_MOUSE_B0
1
EN_MOUSE_B1
EN_ENTER
mMovie
.Bg.gotoAndStop
Selected
Engine
mMovie
.Bg.gotoAndStop
Active
Engine
a
b
table
math
mMovie
D
X
Y
math
PreviewLine
CursorPreviewLine
_rotation
CursorPreviewLine.InnerLine
_width
B
E
G
F
C
A
sectionId->
enabled
true
A
B
D
C
E
F
G
mMovie
_visible
.Bg.gotoAndStop
Selected
Active
enabled
clickable
Middle
.Line
math
_T
cipherForgiveness
hackingTutorialOverride
WareframeChallenge
ObjectiveTimer
Data
Time
Inactive
table
gRegion
Lotus_Game
CP_GENERAL
Game
AVATAR_TIME_LIMIT_INCREASE
CiphersLeft
text
x 
._x
._y
_x
_y
UISys
FlashInstance_EASE_IN_OUT_BACK
gDecorationType
gLensFlareType
Lotus_Game
UNLIT_ATTEN
gRegion
gRegion
hackingLoopAnims
hackingEndAnims
gEntityType
objectsToHide
gRegion
_T
lastSlot
Engine
MAIN_HAND
InventoryControllerBase_ES_INSTANT_EQUIP
gGameRules
ScopeDebug: Show from Cipher
ShowReticle

ShowAbilityDots
EffectFadeOut
gRegion
mMovie
WaitForHackingAnimDone
_T
lastSlot
Engine
MAIN_HAND
InventoryControllerBase_ES_INSTANT_EQUIP
Engine
mMovie
RightCallout.text
/Lotus/Language/Menu/CipherTurnRight
LeftCallout.text
/Lotus/Language/Menu/CipherTurnLeft
RightCallout
text

LeftCallout
gGameRules
sortieId

periodicMissionTag
ELITE_ALERT_PERIODIC_MISSION_TAG
ELITE_ALERT_PERIODIC_MISSION_TAG_ALT
nightmare
failureDamagePct
goalTag
mMovie
gRegion
ReviveStation
startSound
_root
_alpha
ThreatLabel
_visible
ThreatLabel.text
/Lotus/Language/Menu/IntrusionDetected
Label.text
/Lotus/Language/Menu/GrineerCipher
CursorPreviewLine.InnerLine
_width
Engine
MAIN_HAND
_T
lastSlot
gLotusOperatorAvatarType
InventoryControllerBase_ES_INSTANT_EQUIP
SLOT_12
projectorDeco
EMPTY_SYMBOL
ScopeDebug: Hide from Cipher
HideReticle
HideAbilityDots
Focus
/Lotus/Language/Game/HackingAction_UseCipher
/Lotus/Language/Game/UseGenericItem
ITEM
Lotus.Interface.Components.Button
CipherButton
UseCipher
<MENU_GENERIC2>
mAlignment
center
mWidth
WareframeChallenge
CiphersLeft
CipherIcon
CipherBg
text
CursorPreviewLine
_color
PreviewLine
Bg
Bg2
Bg3
gChallengeMgr
gEndlessExterminationGameRulesType
RZ_KEYBOARD_DEVICE
mMovie
_rotation
targetRotation
math
failSound
mMovie
Label.text
/Lotus/Language/Menu/GrineerCipherFailed
_color
failureDamagePct
gRegion
Engine
baseAmount
DT_HEALTH_DRAIN
failureDamageProc
TORSO
math
.0
string
%.
.
mMovie
Time
text
[
]
beepSound
_T
WareframeChallenge
threatSound
ThreatLabel
_visible
gRegion
Game
AVATAR_REHACK_CHANCE
mMovie
Engine
failSound
openDelay
mMovie
Bg
UISys
FlashInstance_EASE_OUT
_alpha
Bg2
_z
Bg3
gRegion
_root
math
_x
_y
Engine
Tried
_T
autoHacked
table
Game
AVATAR_HACK_CHANCE
Success
Timer
/Lotus/Language/Mods/AutoHackModName
X
X
Y
Y
                         
0001                     ** function [0] definition (level 1)
                         ** start of function **
0001  00                 string size (0)
                         source name: (none)
0002  00                 line defined (0)
0003  00                 last line defined (0)
0004  00                 nups (0)
0005  00                 numparams (0)
0006  02                 is_vararg (2)
0007  41                 maxstacksize (65)
                         * code:
0009  02                 sizecode (328)
000A  1D000000           [001] getglobal  0   0        ; 849075268
000E  59400000           [002] loadk      1   1        ; "EE.Interface.Utilities"
0012  22800001           [003] call       0   2   2  
0016  5D000000           [004] getglobal  1   0        ; 849075268
001A  99800000           [005] loadk      2   2        ; "Lotus.Interface.LotusUtilities"
001E  62800001           [006] call       1   2   2  
0022  97000000           [007] loadbool   2   0   0    ; false
0026  D9C00000           [008] loadk      3   3        ; 0
002A  12018001           [009] move       4   3      
002E  59010100           [010] loadk      5   4        ; 0
0032  8B018003           [011] newtable   6   7   0    ; array=7, hash=0
0036  D9410100           [012] loadk      7   5        ; "A"
003A  19820100           [013] loadk      8   6        ; "B"
003E  59C20100           [014] loadk      9   7        ; "C"
0042  99020200           [015] loadk      10  8        ; "D"
0046  D9420200           [016] loadk      11  9        ; "E"
004A  19830200           [017] loadk      12  10       ; "F"
004E  59C30200           [018] loadk      13  11       ; "G"
0052  9B418003           [019] setlist    6   7   1    ; index 1 to 7
0056  CB010000           [020] newtable   7   0   0    ; array=0, hash=0
005A  17020000           [021] loadbool   8   0   0    ; false
005E  4B020000           [022] newtable   9   0   0    ; array=0, hash=0
0062  97020000           [023] loadbool   10  0   0    ; false
0066  D7020000           [024] loadbool   11  0   0    ; false
006A  19030100           [025] loadk      12  4        ; 0
006E  4BC30000           [026] newtable   13  0   3    ; array=0, hash=3
0072  4C034186           [027] settable   13  268 260  ; "X" 0
0076  4C03C186           [028] settable   13  269 260  ; "Y" 0
007A  4CC34387           [029] settable   13  270 271  ; "PreviewLine" 1
007E  86030007           [030] loadnil    14  14     
0082  D7030000           [031] loadbool   15  0   0    ; false
0086  19040400           [032] loadk      16  16       ; 0
008A  57040000           [033] loadbool   17  0   0    ; false
008E  97048000           [034] loadbool   18  1   0    ; true
0092  C6048009           [035] loadnil    19  19     
0096  1D450400           [036] getglobal  20  17       ; -332969190
009A  59850400           [037] loadk      21  18       ; "FriendlyFireTacAlert"
009E  22850001           [038] call       20  2   2  
00A2  5D450400           [039] getglobal  21  17       ; -332969190
00A6  99C50400           [040] loadk      22  19       ; "PanicButtonRazorback"
00AA  62850001           [041] call       21  2   2  
00AE  97050000           [042] loadbool   22  0   0    ; false
00B2  D9050500           [043] loadk      23  20       ; 0
00B6  17060000           [044] loadbool   24  0   0    ; false
00BA  4BC60000           [045] newtable   25  0   3    ; array=0, hash=3
00BE  4C86C58A           [046] settable   25  277 278  ; "Tried" 0
00C2  4C86C58B           [047] settable   25  279 278  ; "Success" 0
00C6  4C46468C           [048] settable   25  280 281  ; "Timer" 0
00CA  99060100           [049] loadk      26  4        ; 0
00CE  D7060000           [050] loadbool   27  0   0    ; false
00D2  1D870600           [051] getglobal  28  26       ; 508519041
00D6  22878000           [052] call       28  1   2  
00DA  4B070000           [053] newtable   29  0   0    ; array=0, hash=0
00DE  99C70600           [054] loadk      30  27       ; 0
00E2  D9070100           [055] loadk      31  4        ; 0
00E6  06088010           [056] loadnil    32  33     
00EA  99C80000           [057] loadk      34  3        ; 0
00EE  E5080000           [058] closure    35  0      
00F2  E0080700           [059] setglobal  35  28       ; ReturnFalse
00F6  E0480700           [060] setglobal  35  29       ; 73843042
00FA  E5480000           [061] closure    35  1      
00FE  12000009           [062] move       0   18     
0102  25890000           [063] closure    36  2      
0106  65C90000           [064] closure    37  3      
010A  12000001           [065] move       0   2      
010E  1200000B           [066] move       0   22     
0112  12000005           [067] move       0   10     
0116  12008003           [068] move       0   7      
011A  12008001           [069] move       0   3      
011E  12000000           [070] move       0   0      
0122  12000006           [071] move       0   12     
0126  A5090100           [072] closure    38  4      
012A  1200000B           [073] move       0   22     
012E  E5490100           [074] closure    39  5      
0132  12008002           [075] move       0   5      
0136  12000000           [076] move       0   0      
013A  12000001           [077] move       0   2      
013E  12008012           [078] move       0   37     
0142  258A0100           [079] closure    40  6      
0146  12008003           [080] move       0   7      
014A  12000000           [081] move       0   0      
014E  12000001           [082] move       0   2      
0152  12008012           [083] move       0   37     
0156  65CA0100           [084] closure    41  7      
015A  12008001           [085] move       0   3      
015E  12008002           [086] move       0   5      
0162  12000013           [087] move       0   38     
0166  1200000B           [088] move       0   22     
016A  12000014           [089] move       0   40     
016E  A50A0200           [090] closure    42  8      
0172  1200800E           [091] move       0   29     
0176  E54A0200           [092] closure    43  9      
017A  258B0200           [093] closure    44  10     
017E  12008001           [094] move       0   3      
0182  12000000           [095] move       0   0      
0186  12008015           [096] move       0   43     
018A  12000001           [097] move       0   2      
018E  12008004           [098] move       0   9      
0192  12000015           [099] move       0   42     
0196  65CB0200           [100] closure    45  11     
019A  A50B0300           [101] closure    46  12     
019E  12008016           [102] move       0   45     
01A2  E54B0300           [103] closure    47  13     
01A6  12008003           [104] move       0   7      
01AA  12000017           [105] move       0   46     
01AE  258C0300           [106] closure    48  14     
01B2  65CC0300           [107] closure    49  15     
01B6  12000018           [108] move       0   48     
01BA  860C0019           [109] loadnil    50  50     
01BE  E50C0400           [110] closure    51  16     
01C2  12000019           [111] move       0   50     
01C6  12000009           [112] move       0   18     
01CA  12000016           [113] move       0   44     
01CE  12008007           [114] move       0   15     
01D2  12000006           [115] move       0   12     
01D6  12000005           [116] move       0   10     
01DA  E08C0700           [117] setglobal  51  30       ; onRawInputEvent
01DE  E0CC0700           [118] setglobal  51  31       ; 290863379
01E2  E54C0400           [119] closure    51  17     
01E6  12008001           [120] move       0   3      
01EA  12000019           [121] move       0   50     
01EE  258D0400           [122] closure    52  18     
01F2  12008019           [123] move       0   51     
01F6  200D0800           [124] setglobal  52  32       ; WedgeRollOver
01FA  204D0800           [125] setglobal  52  33       ; 643256599
01FE  25CD0400           [126] closure    52  19     
0202  12008001           [127] move       0   3      
0206  12000019           [128] move       0   50     
020A  650D0500           [129] closure    53  20     
020E  1200001A           [130] move       0   52     
0212  608D0800           [131] setglobal  53  34       ; WedgeRollOut
0216  60CD0800           [132] setglobal  53  35       ; -1066208887
021A  654D0500           [133] closure    53  21     
021E  A58D0500           [134] closure    54  22     
0222  12000000           [135] move       0   0      
0226  12008006           [136] move       0   13     
022A  12000019           [137] move       0   50     
022E  1200001A           [138] move       0   52     
0232  12008019           [139] move       0   51     
0236  E5CD0500           [140] closure    55  23     
023A  1200800E           [141] move       0   29     
023E  250E0600           [142] closure    56  24     
0242  12008003           [143] move       0   7      
0246  12000003           [144] move       0   6      
024A  12000000           [145] move       0   0      
024E  12000019           [146] move       0   50     
0252  12008001           [147] move       0   3      
0256  12000008           [148] move       0   16     
025A  12008004           [149] move       0   9      
025E  12008017           [150] move       0   47     
0262  1200800F           [151] move       0   31     
0266  1200000F           [152] move       0   30     
026A  1200001C           [153] move       0   56     
026E  1200801A           [154] move       0   53     
0272  12008018           [155] move       0   49     
0276  12000012           [156] move       0   36     
027A  12000013           [157] move       0   38     
027E  12008002           [158] move       0   5      
0282  12000011           [159] move       0   34     
0286  12000007           [160] move       0   14     
028A  12008008           [161] move       0   17     
028E  12000009           [162] move       0   18     
0292  654E0600           [163] closure    57  25     
0296  12000008           [164] move       0   16     
029A  1200001C           [165] move       0   56     
029E  600E0900           [166] setglobal  57  36       ; SetDifficulty
02A2  604E0900           [167] setglobal  57  37       ; -1356168136
02A6  658E0600           [168] closure    57  26     
02AA  12008009           [169] move       0   19     
02AE  608E0900           [170] setglobal  57  38       ; EffectFadeOut
02B2  60CE0900           [171] setglobal  57  39       ; -1478522275
02B6  65CE0600           [172] closure    57  27     
02BA  A50E0700           [173] closure    58  28     
02BE  E54E0700           [174] closure    59  29     
02C2  1200801C           [175] move       0   57     
02C6  E00E0A00           [176] setglobal  59  40       ; WaitForHackingAnimDone
02CA  E04E0A00           [177] setglobal  59  41       ; 343298084
02CE  E58E0700           [178] closure    59  30     
02D2  12008009           [179] move       0   19     
02D6  1200001D           [180] move       0   58     
02DA  1200000C           [181] move       0   24     
02DE  12000005           [182] move       0   10     
02E2  E08E0A00           [183] setglobal  59  42       ; Shutdown
02E6  E0CE0A00           [184] setglobal  59  43       ; 1012367267
02EA  E5CE0700           [185] closure    59  31     
02EE  250F0800           [186] closure    60  32     
02F2  12008000           [187] move       0   1      
02F6  12000000           [188] move       0   0      
02FA  1200000A           [189] move       0   20     
02FE  1200800A           [190] move       0   21     
0302  1200000B           [191] move       0   22     
0306  1200800B           [192] move       0   23     
030A  1200000C           [193] move       0   24     
030E  12008007           [194] move       0   15     
0312  1200001D           [195] move       0   58     
0316  12008009           [196] move       0   19     
031A  1200801B           [197] move       0   55     
031E  12000013           [198] move       0   38     
0322  12000007           [199] move       0   14     
0326  12008006           [200] move       0   13     
032A  1200001B           [201] move       0   54     
032E  12008010           [202] move       0   33     
0332  1200801D           [203] move       0   59     
0336  200F0B00           [204] setglobal  60  44       ; Initialize
033A  204F0B00           [205] setglobal  60  45       ; 1650753590
033E  254F0800           [206] closure    60  33     
0342  658F0800           [207] closure    61  34     
0346  12000000           [208] move       0   0      
034A  12008005           [209] move       0   11     
034E  12008001           [210] move       0   3      
0352  12000006           [211] move       0   12     
0356  12008003           [212] move       0   7      
035A  A5CF0800           [213] closure    62  35     
035E  E50F0900           [214] closure    63  36     
0362  12008001           [215] move       0   3      
0366  12000004           [216] move       0   8      
036A  12000002           [217] move       0   4      
036E  12000000           [218] move       0   0      
0372  1200001F           [219] move       0   62     
0376  12008004           [220] move       0   9      
037A  12008003           [221] move       0   7      
037E  1200001C           [222] move       0   56     
0382  1200801E           [223] move       0   61     
0386  25500900           [224] closure    64  37     
038A  12000005           [225] move       0   10     
038E  1200801E           [226] move       0   61     
0392  12000006           [227] move       0   12     
0396  20900B00           [228] setglobal  64  46       ; NotifyClose
039A  20D00B00           [229] setglobal  64  47       ; -732443904
039E  25880900           [230] closure    32  38     
03A2  12000009           [231] move       0   18     
03A6  12000005           [232] move       0   10     
03AA  12008005           [233] move       0   11     
03AE  12008010           [234] move       0   33     
03B2  25D00900           [235] closure    64  39     
03B6  12000009           [236] move       0   18     
03BA  12000004           [237] move       0   8      
03BE  12008001           [238] move       0   3      
03C2  1200801E           [239] move       0   61     
03C6  12000010           [240] move       0   32     
03CA  12000005           [241] move       0   10     
03CE  12000000           [242] move       0   0      
03D2  20100C00           [243] setglobal  64  48       ; onKeyDown_MENU_CANCEL
03D6  20500C00           [244] setglobal  64  49       ; 1529613096
03DA  25100A00           [245] closure    64  40     
03DE  1200800D           [246] move       0   27     
03E2  1200000D           [247] move       0   26     
03E6  12008008           [248] move       0   17     
03EA  1200800B           [249] move       0   23     
03EE  12008003           [250] move       0   7      
03F2  12000012           [251] move       0   36     
03F6  12000009           [252] move       0   18     
03FA  12008011           [253] move       0   35     
03FE  1200001E           [254] move       0   60     
0402  12008012           [255] move       0   37     
0406  1200801F           [256] move       0   63     
040A  12000006           [257] move       0   12     
040E  12000010           [258] move       0   32     
0412  12000005           [259] move       0   10     
0416  12008010           [260] move       0   33     
041A  12008001           [261] move       0   3      
041E  12000011           [262] move       0   34     
0422  1200800C           [263] move       0   25     
0426  12000014           [264] move       0   40     
042A  1200000E           [265] move       0   28     
042E  12008000           [266] move       0   1      
0432  20900C00           [267] setglobal  64  50       ; Update
0436  20D00C00           [268] setglobal  64  51       ; -1938777623
043A  25500A00           [269] closure    64  41     
043E  12000009           [270] move       0   18     
0442  12000007           [271] move       0   14     
0446  20100D00           [272] setglobal  64  52       ; onKeyDown_MENU_GENERIC2
044A  20500D00           [273] setglobal  64  53       ; 602154840
044E  25900A00           [274] closure    64  42     
0452  12000009           [275] move       0   18     
0456  12000016           [276] move       0   44     
045A  12000019           [277] move       0   50     
045E  20900D00           [278] setglobal  64  54       ; onKeyDown_MENU_GENERIC1
0462  20D00D00           [279] setglobal  64  55       ; -1431471040
0466  25D00A00           [280] closure    64  43     
046A  12000009           [281] move       0   18     
046E  12000016           [282] move       0   44     
0472  12000019           [283] move       0   50     
0476  20100E00           [284] setglobal  64  56       ; onKeyDown_MENU_SELECT
047A  20500E00           [285] setglobal  64  57       ; -287499569
047E  25100B00           [286] closure    64  44     
0482  12000009           [287] move       0   18     
0486  12000016           [288] move       0   44     
048A  12000019           [289] move       0   50     
048E  20900E00           [290] setglobal  64  58       ; onKeyDown_MENU_LTRIGGER2
0492  20D00E00           [291] setglobal  64  59       ; -1680304416
0496  25500B00           [292] closure    64  45     
049A  12000009           [293] move       0   18     
049E  12000016           [294] move       0   44     
04A2  12000019           [295] move       0   50     
04A6  20100F00           [296] setglobal  64  60       ; onKeyDown_MENU_RTRIGGER2
04AA  20500F00           [297] setglobal  64  61       ; 266665867
04AE  25900B00           [298] closure    64  46     
04B2  12008006           [299] move       0   13     
04B6  1200001B           [300] move       0   54     
04BA  20900F00           [301] setglobal  64  62       ; onKeyDown_MENU_X
04BE  20D00F00           [302] setglobal  64  63       ; -1741400568
04C2  25D00B00           [303] closure    64  47     
04C6  12008006           [304] move       0   13     
04CA  1200001B           [305] move       0   54     
04CE  20101000           [306] setglobal  64  64       ; onKeyUp_MENU_X
04D2  20501000           [307] setglobal  64  65       ; -1345409204
04D6  25100C00           [308] closure    64  48     
04DA  12008006           [309] move       0   13     
04DE  1200001B           [310] move       0   54     
04E2  20901000           [311] setglobal  64  66       ; onKeyDown_MENU_Y
04E6  20D01000           [312] setglobal  64  67       ; 1480429011
04EA  25500C00           [313] closure    64  49     
04EE  12008006           [314] move       0   13     
04F2  1200001B           [315] move       0   54     
04F6  20101100           [316] setglobal  64  68       ; onKeyUp_MENU_Y
04FA  20501100           [317] setglobal  64  69       ; 206176771
04FE  25900C00           [318] closure    64  50     
0502  12000009           [319] move       0   18     
0506  12008014           [320] move       0   41     
050A  20901100           [321] setglobal  64  70       ; UseCipher
050E  20D01100           [322] setglobal  64  71       ; -303238703
0512  25D00C00           [323] closure    64  51     
0516  1200801D           [324] move       0   59     
051A  12000007           [325] move       0   14     
051E  20101200           [326] setglobal  64  72       ; IconCacheFlushed
0522  20501200           [327] setglobal  64  73       ; 1553117039
0526  1E008000           [328] return     0   1      
                         * constants:
052A  4A                 sizek (74)
052B  01                 const type 3
052C  44DC9B32           const [0]: (849075268)
0530  04                 const type 4
0531  17                 string size (23)
0532  45452E496E746572+  "EE.Inter"
053A  666163652E557469+  "face.Uti"
0542  6C697469657300     "lities\0"
                         const [1]: "EE.Interface.Utilities"
0549  04                 const type 4
054A  1F                 string size (31)
054B  4C6F7475732E496E+  "Lotus.In"
0553  746572666163652E+  "terface."
055B  4C6F747573557469+  "LotusUti"
0563  6C697469657300     "lities\0"
                         const [2]: "Lotus.Interface.LotusUtilities"
056A  03                 const type 3
056B  0000A041           const [3]: (0)
056F  03                 const type 3
0570  00000000           const [4]: (0)
0574  04                 const type 4
0575  02                 string size (2)
0576  4100               "A\0"
                         const [5]: "A"
0578  04                 const type 4
0579  02                 string size (2)
057A  4200               "B\0"
                         const [6]: "B"
057C  04                 const type 4
057D  02                 string size (2)
057E  4300               "C\0"
                         const [7]: "C"
0580  04                 const type 4
0581  02                 string size (2)
0582  4400               "D\0"
                         const [8]: "D"
0584  04                 const type 4
0585  02                 string size (2)
0586  4500               "E\0"
                         const [9]: "E"
0588  04                 const type 4
0589  02                 string size (2)
058A  4600               "F\0"
                         const [10]: "F"
058C  04                 const type 4
058D  02                 string size (2)
058E  4700               "G\0"
                         const [11]: "G"
0590  04                 const type 4
0591  02                 string size (2)
0592  5800               "X\0"
                         const [12]: "X"
0594  04                 const type 4
0595  02                 string size (2)
0596  5900               "Y\0"
                         const [13]: "Y"
0598  04                 const type 4
0599  0C                 string size (12)
059A  507265766965774C+  "PreviewL"
05A2  696E6500           "ine\0"
                         const [14]: "PreviewLine"
05A6  01                 const type 3
05A7  01000000           const [15]: (1)
05AB  03                 const type 3
05AC  00004040           const [16]: (0)
05B0  01                 const type 3
05B1  1A4B27EC           const [17]: (-332969190)
05B5  04                 const type 4
05B6  15                 string size (21)
05B7  467269656E646C79+  "Friendly"
05BF  4669726554616341+  "FireTacA"
05C7  6C65727400         "lert\0"
                         const [18]: "FriendlyFireTacAlert"
05CC  04                 const type 4
05CD  15                 string size (21)
05CE  50616E6963427574+  "PanicBut"
05D6  746F6E52617A6F72+  "tonRazor"
05DE  6261636B00         "back\0"
                         const [19]: "PanicButtonRazorback"
05E3  03                 const type 3
05E4  000080BF           const [20]: (0)
05E8  04                 const type 4
05E9  06                 string size (6)
05EA  547269656400       "Tried\0"
                         const [21]: "Tried"
05F0  01                 const type 3
05F1  00000000           const [22]: (0)
05F5  04                 const type 4
05F6  08                 string size (8)
05F7  5375636365737300   "Success\0"
                         const [23]: "Success"
05FF  04                 const type 4
0600  06                 string size (6)
0601  54696D657200       "Timer\0"
                         const [24]: "Timer"
0607  03                 const type 3
0608  0000A03F           const [25]: (0)
060C  01                 const type 3
060D  81624F1E           const [26]: (508519041)
0611  03                 const type 3
0612  0000A040           const [27]: (0)
0616  04                 const type 4
0617  0C                 string size (12)
0618  52657475726E4661+  "ReturnFa"
0620  6C736500           "lse\0"
                         const [28]: "ReturnFalse"
0624  01                 const type 3
0625  62C16604           const [29]: (73843042)
0629  04                 const type 4
062A  10                 string size (16)
062B  6F6E526177496E70+  "onRawInp"
0633  75744576656E7400   "utEvent\0"
                         const [30]: "onRawInputEvent"
063B  01                 const type 3
063C  13395611           const [31]: (290863379)
0640  04                 const type 4
0641  0E                 string size (14)
0642  5765646765526F6C+  "WedgeRol"
064A  6C4F76657200       "lOver\0"
                         const [32]: "WedgeRollOver"
0650  01                 const type 3
0651  17515726           const [33]: (643256599)
0655  04                 const type 4
0656  0D                 string size (13)
0657  5765646765526F6C+  "WedgeRol"
065F  6C4F757400         "lOut\0"
                         const [34]: "WedgeRollOut"
0664  01                 const type 3
0665  89F172C0           const [35]: (-1066208887)
0669  04                 const type 4
066A  0E                 string size (14)
066B  5365744469666669+  "SetDiffi"
0673  63756C747900       "culty\0"
                         const [36]: "SetDifficulty"
0679  01                 const type 3
067A  38842AAF           const [37]: (-1356168136)
067E  04                 const type 4
067F  0E                 string size (14)
0680  4566666563744661+  "EffectFa"
0688  64654F757400       "deOut\0"
                         const [38]: "EffectFadeOut"
068E  01                 const type 3
068F  5D8ADFA7           const [39]: (-1478522275)
0693  04                 const type 4
0694  17                 string size (23)
0695  57616974466F7248+  "WaitForH"
069D  61636B696E67416E+  "ackingAn"
06A5  696D446F6E6500     "imDone\0"
                         const [40]: "WaitForHackingAnimDone"
06AC  01                 const type 3
06AD  24507614           const [41]: (343298084)
06B1  04                 const type 4
06B2  09                 string size (9)
06B3  53687574646F776E+  "Shutdown"
06BB  00                 "\0"
                         const [42]: "Shutdown"
06BC  01                 const type 3
06BD  A37F573C           const [43]: (1012367267)
06C1  04                 const type 4
06C2  0B                 string size (11)
06C3  496E697469616C69+  "Initiali"
06CB  7A6500             "ze\0"
                         const [44]: "Initialize"
06CE  01                 const type 3
06CF  36806462           const [45]: (1650753590)
06D3  04                 const type 4
06D4  0C                 string size (12)
06D5  4E6F74696679436C+  "NotifyCl"
06DD  6F736500           "ose\0"
                         const [46]: "NotifyClose"
06E1  01                 const type 3
06E2  00CB57D4           const [47]: (-732443904)
06E6  04                 const type 4
06E7  16                 string size (22)
06E8  6F6E4B6579446F77+  "onKeyDow"
06F0  6E5F4D454E555F43+  "n_MENU_C"
06F8  414E43454C00       "ANCEL\0"
                         const [48]: "onKeyDown_MENU_CANCEL"
06FE  01                 const type 3
06FF  280B2C5B           const [49]: (1529613096)
0703  04                 const type 4
0704  07                 string size (7)
0705  55706461746500     "Update\0"
                         const [50]: "Update"
070C  01                 const type 3
070D  E999708C           const [51]: (-1938777623)
0711  04                 const type 4
0712  18                 string size (24)
0713  6F6E4B6579446F77+  "onKeyDow"
071B  6E5F4D454E555F47+  "n_MENU_G"
0723  454E455249433200   "ENERIC2\0"
                         const [52]: "onKeyDown_MENU_GENERIC2"
072B  01                 const type 3
072C  5827E423           const [53]: (602154840)
0730  04                 const type 4
0731  18                 string size (24)
0732  6F6E4B6579446F77+  "onKeyDow"
073A  6E5F4D454E555F47+  "n_MENU_G"
0742  454E455249433100   "ENERIC1\0"
                         const [54]: "onKeyDown_MENU_GENERIC1"
074A  01                 const type 3
074B  407CADAA           const [55]: (-1431471040)
074F  04                 const type 4
0750  16                 string size (22)
0751  6F6E4B6579446F77+  "onKeyDow"
0759  6E5F4D454E555F53+  "n_MENU_S"
0761  454C45435400       "ELECT\0"
                         const [56]: "onKeyDown_MENU_SELECT"
0767  01                 const type 3
0768  CF1ADDEE           const [57]: (-287499569)
076C  04                 const type 4
076D  19                 string size (25)
076E  6F6E4B6579446F77+  "onKeyDow"
0776  6E5F4D454E555F4C+  "n_MENU_L"
077E  5452494747455232+  "TRIGGER2"
0786  00                 "\0"
                         const [58]: "onKeyDown_MENU_LTRIGGER2"
0787  01                 const type 3
0788  E096D89B           const [59]: (-1680304416)
078C  04                 const type 4
078D  19                 string size (25)
078E  6F6E4B6579446F77+  "onKeyDow"
0796  6E5F4D454E555F52+  "n_MENU_R"
079E  5452494747455232+  "TRIGGER2"
07A6  00                 "\0"
                         const [60]: "onKeyDown_MENU_RTRIGGER2"
07A7  01                 const type 3
07A8  8BFFE40F           const [61]: (266665867)
07AC  04                 const type 4
07AD  11                 string size (17)
07AE  6F6E4B6579446F77+  "onKeyDow"
07B6  6E5F4D454E555F58+  "n_MENU_X"
07BE  00                 "\0"
                         const [62]: "onKeyDown_MENU_X"
07BF  01                 const type 3
07C0  08563498           const [63]: (-1741400568)
07C4  04                 const type 4
07C5  0F                 string size (15)
07C6  6F6E4B657955705F+  "onKeyUp_"
07CE  4D454E555F5800     "MENU_X\0"
                         const [64]: "onKeyUp_MENU_X"
07D5  01                 const type 3
07D6  4CAFCEAF           const [65]: (-1345409204)
07DA  04                 const type 4
07DB  11                 string size (17)
07DC  6F6E4B6579446F77+  "onKeyDow"
07E4  6E5F4D454E555F59+  "n_MENU_Y"
07EC  00                 "\0"
                         const [66]: "onKeyDown_MENU_Y"
07ED  01                 const type 3
07EE  D38D3D58           const [67]: (1480429011)
07F2  04                 const type 4
07F3  0F                 string size (15)
07F4  6F6E4B657955705F+  "onKeyUp_"
07FC  4D454E555F5900     "MENU_Y\0"
                         const [68]: "onKeyUp_MENU_Y"
0803  01                 const type 3
0804  03024A0C           const [69]: (206176771)
0808  04                 const type 4
0809  0A                 string size (10)
080A  5573654369706865+  "UseCiphe"
0812  7200               "r\0"
                         const [70]: "UseCipher"
0814  01                 const type 3
0815  D1F1ECED           const [71]: (-303238703)
0819  04                 const type 4
081A  11                 string size (17)
081B  49636F6E43616368+  "IconCach"
0823  65466C7573686564+  "eFlushed"
082B  00                 "\0"
                         const [72]: "IconCacheFlushed"
082C  01                 const type 3
082D  6FAF925C           const [73]: (1553117039)
                         * functions:
0831  34                 sizep (52)
                         
0832                     ** function [0] definition (level 2)
                         ** start of function **
0832  00                 string size (0)
                         source name: (none)
0833  3C                 line defined (60)
0834  3E                 last line defined (62)
0835  00                 nups (0)
0836  00                 numparams (0)
0837  00                 is_vararg (0)
0838  02                 maxstacksize (2)
                         * code:
0839  03                 sizecode (3)
083A  17000000           [1] loadbool   0   0   0    ; false
083E  1E000001           [2] return     0   2      
0842  1E008000           [3] return     0   1      
                         * constants:
0846  00                 sizek (0)
                         * functions:
0847  00                 sizep (0)
                         * lines:
0848  03                 sizelineinfo (3)
                         [pc] (line)
0849  3D                 [1] (61)
084A  00                 [2] (61)
084B  00                 [3] (62)
                         * locals:
0855  00                 sizelocvars (0)
                         * upvalues:
0856  00                 sizeupvalues (0)
                         ** end of function **

                         
0857                     ** function [1] definition (level 2)
                         ** start of function **
0857  00                 string size (0)
                         source name: (none)
0858  40                 line defined (64)
0859  48                 last line defined (72)
085A  01                 nups (1)
085B  01                 numparams (1)
085C  00                 is_vararg (0)
085D  05                 maxstacksize (5)
                         * code:
085E  14                 sizecode (20)
085F  57008000           [01] loadbool   1   1   0    ; true
fail op	8
0863  48000000           [02] setupval   1   0      
0867  5D000000           [03] getglobal  1   0        ; mMovie
086B  6440C000           [04] self       1   1   257  ; 2082429591
086F  62800001           [05] call       1   2   2  
0873  9D800000           [06] getglobal  2   2        ; 1074689893
0877  D2008000           [07] move       3   1      
087B  A2800001           [08] call       2   2   2  
087F  98400000           [09] test       2       1    ; to [11] if false
0883  1A400180           [10] jmp        6            ; to [17]
0887  A4C0C000           [11] self       2   1   259  ; -1499772696
088B  19010100           [12] loadk      4   4        ; 0
088F  A2408001           [13] call       2   3   1  
0893  A440C100           [14] self       2   1   261  ; 112381581
0897  12010000           [15] move       4   0      
089B  A2408001           [16] call       2   3   1  
089F  9D000000           [17] getglobal  2   0        ; mMovie
08A3  A4804101           [18] self       2   2   262  ; -1517569684
08A7  A2400001           [19] call       2   2   1  
08AB  1E008000           [20] return     0   1      
                         * constants:
08AF  07                 sizek (7)
08B0  04                 const type 4
08B1  07                 string size (7)
08B2  6D4D6F76696500     "mMovie\0"
                         const [0]: "mMovie"
08B9  01                 const type 3
08BA  975A1F7C           const [1]: (2082429591)
08BE  01                 const type 3
08BF  65770E40           const [2]: (1074689893)
08C3  01                 const type 3
08C4  E8489BA6           const [3]: (-1499772696)
08C8  03                 const type 3
08C9  00000000           const [4]: (0)
08CD  01                 const type 3
08CE  8DCEB206           const [5]: (112381581)
08D2  01                 const type 3
08D3  6CB98BA5           const [6]: (-1517569684)
                         * functions:
08D7  00                 sizep (0)
                         * lines:
08D8  14                 sizelineinfo (20)
                         [pc] (line)
08D9  41                 [01] (65)
08DA  00                 [02] (65)
08DB  00                 [03] (66)
08DC  00                 [04] (66)
08DD  41                 [05] (66)
08DE  00                 [06] (67)
08DF  00                 [07] (67)
08E0  00                 [08] (67)
08E1  42                 [09] (67)
08E2  00                 [10] (67)
08E3  00                 [11] (68)
08E4  00                 [12] (68)
08E5  42                 [13] (68)
08E6  00                 [14] (69)
08E7  00                 [15] (69)
08E8  00                 [16] (69)
08E9  42                 [17] (71)
08EA  00                 [18] (71)
08EB  00                 [19] (71)
08EC  00                 [20] (72)
                         * locals:
0929  00                 sizelocvars (0)
                         * upvalues:
092A  00                 sizeupvalues (0)
                         ** end of function **

                         
092B                     ** function [2] definition (level 2)
                         ** start of function **
092B  00                 string size (0)
                         source name: (none)
092C  4B                 line defined (75)
092D  50                 last line defined (80)
092E  00                 nups (0)
092F  01                 numparams (1)
0930  00                 is_vararg (0)
0931  08                 maxstacksize (8)
                         * code:
0932  1A                 sizecode (26)
0933  4B008002           [01] newtable   1   5   0    ; array=5, hash=0
0937  99000000           [02] loadk      2   0        ; 0
093B  D9400000           [03] loadk      3   1        ; 0
093F  19810000           [04] loadk      4   2        ; 0
0943  59C10000           [05] loadk      5   3        ; 0
0947  99010100           [06] loadk      6   4        ; 0
094B  5B408002           [07] setlist    1   5   1    ; index 1 to 5
094F  9D400100           [08] getglobal  2   5        ; math
0953  8E804101           [09] gettable   2   2   262  ; -2040962569
0957  D9C00100           [10] loadk      3   7        ; 0
095B  0A018000           [11] len        4   1      
095F  A2808001           [12] call       2   3   2  
0963  8E808000           [13] gettable   2   1   2  
0967  DD000200           [14] getglobal  3   8        ; mMovie
096B  E440C201           [15] self       3   3   265  ; 471456102
096F  52010000           [16] move       5   0      
0973  99810200           [17] loadk      6   10       ; "_rotation"
0977  D2010001           [18] move       7   2      
097B  E2408002           [19] call       3   5   1  
097F  DD000200           [20] getglobal  3   8        ; mMovie
0983  E440C201           [21] self       3   3   265  ; 471456102
0987  52010000           [22] move       5   0      
098B  99C10200           [23] loadk      6   11       ; "targetRotation"
098F  D2010001           [24] move       7   2      
0993  E2408002           [25] call       3   5   1  
0997  1E008000           [26] return     0   1      
                         * constants:
099B  0C                 sizek (12)
099C  03                 const type 3
099D  00007042           const [0]: (0)
09A1  03                 const type 3
09A2  0000F042           const [1]: (0)
09A6  03                 const type 3
09A7  00003443           const [2]: (0)
09AB  03                 const type 3
09AC  00007043           const [3]: (0)
09B0  03                 const type 3
09B1  00009643           const [4]: (0)
09B5  04                 const type 4
09B6  05                 string size (5)
09B7  6D61746800         "math\0"
                         const [5]: "math"
09BC  01                 const type 3
09BD  F7615986           const [6]: (-2040962569)
09C1  03                 const type 3
09C2  0000803F           const [7]: (0)
09C6  04                 const type 4
09C7  07                 string size (7)
09C8  6D4D6F76696500     "mMovie\0"
                         const [8]: "mMovie"
09CF  01                 const type 3
09D0  66D9191C           const [9]: (471456102)
09D4  04                 const type 4
09D5  0A                 string size (10)
09D6  5F726F746174696F+  "_rotatio"
09DE  6E00               "n\0"
                         const [10]: "_rotation"
09E0  04                 const type 4
09E1  0F                 string size (15)
09E2  746172676574526F+  "targetRo"
09EA  746174696F6E00     "tation\0"
                         const [11]: "targetRotation"
                         * functions:
09F1  00                 sizep (0)
                         * lines:
09F2  1A                 sizelineinfo (26)
                         [pc] (line)
09F3  4C                 [01] (76)
09F4  00                 [02] (76)
09F5  00                 [03] (76)
09F6  00                 [04] (76)
09F7  4C                 [05] (76)
09F8  00                 [06] (76)
09F9  00                 [07] (76)
09FA  00                 [08] (77)
09FB  4C                 [09] (77)
09FC  00                 [10] (77)
09FD  00                 [11] (77)
09FE  00                 [12] (77)
09FF  4C                 [13] (77)
0A00  00                 [14] (78)
0A01  00                 [15] (78)
0A02  00                 [16] (78)
0A03  4C                 [17] (78)
0A04  00                 [18] (78)
0A05  00                 [19] (78)
0A06  00                 [20] (79)
0A07  4C                 [21] (79)
0A08  00                 [22] (79)
0A09  00                 [23] (79)
0A0A  00                 [24] (79)
0A0B  4C                 [25] (79)
0A0C  00                 [26] (80)
                         * locals:
0A5B  00                 sizelocvars (0)
                         * upvalues:
0A5C  00                 sizeupvalues (0)
                         ** end of function **

                         
0A5D                     ** function [3] definition (level 2)
                         ** start of function **
0A5D  00                 string size (0)
                         source name: (none)
0A5E  52                 line defined (82)
0A5F  83                 last line defined (131)
0A60  01                 nups (7)
0A61  07                 numparams (1)
0A62  01                 is_vararg (0)
0A63  00                 maxstacksize (31)
                         * code:
0A66  01                 sizecode (138)
0A67  53000000           [001] getupval   1   0      
0A6B  58000000           [002] test       1       0    ; to [4] if true
0A6F  1A000180           [003] jmp        5            ; to [9]
0A73  53008000           [004] getupval   1   1      
0A77  58000000           [005] test       1       0    ; to [7] if true
0A7B  1A800080           [006] jmp        3            ; to [10]
0A7F  18400000           [007] test       0       1    ; to [9] if false
0A83  1A000080           [008] jmp        1            ; to [10]
0A87  1E008000           [009] return     0   1      
0A8B  57000000           [010] loadbool   1   0   0    ; false
fail op	8
0A8F  48000000           [011] setupval   1   0      
0A93  57008000           [012] loadbool   1   1   0    ; true
fail op	8
0A97  48000001           [013] setupval   1   2      
0A9B  18400000           [014] test       0       1    ; to [16] if false
0A9F  1A400A80           [015] jmp        42           ; to [58]
0AA3  5D000000           [016] getglobal  1   0        ; _G
0AA7  4E40C000           [017] gettable   1   1   257  ; "StalkerMode"
0AAB  58400000           [018] test       1       1    ; to [20] if false
0AAF  1A400980           [019] jmp        38           ; to [58]
0AB3  59800000           [020] loadk      1   2        ; 0
0AB7  93008001           [021] getupval   2   3      
0ABB  8A000001           [022] len        2   2      
0ABF  D9800000           [023] loadk      3   2        ; 0
0AC3  50C00780           [024] forprep    1   32       ; to [57]
0AC7  59810000           [025] loadk      5   2        ; 0
0ACB  99C10000           [026] loadk      6   3        ; 0
0ACF  D9810000           [027] loadk      7   2        ; 0
0AD3  50810580           [028] forprep    5   23       ; to [52]
0AD7  53028001           [029] getupval   9   3      
0ADB  4E028104           [030] gettable   9   9   4  
0ADF  99020100           [031] loadk      10  4        ; ".Line"
0AE3  D2020004           [032] move       11  8      
0AE7  42C28204           [033] concat     9   9   11 
0AEB  9D420100           [034] getglobal  10  5        ; mMovie
0AEF  A4824105           [035] self       10  10  262  ; 1803241227
0AF3  12038004           [036] move       12  9      
0AF7  59C30100           [037] loadk      13  7        ; "_visible"
0AFB  A2820002           [038] call       10  4   2  
fail op	35
0AFF  23004205           [039] close      0  
0B03  1A800280           [040] jmp        11           ; to [52]
0B07  9D420100           [041] getglobal  10  5        ; mMovie
0B0B  A4824105           [042] self       10  10  262  ; 1803241227
0B0F  12038004           [043] move       12  9      
0B13  59430200           [044] loadk      13  9        ; "._currentFrame"
0B17  02430306           [045] concat     12  12  13 
0B1B  A2828001           [046] call       10  3   2  
fail op	35
0B1F  63804205           [047] close      1  
0B23  1A800080           [048] jmp        3            ; to [52]
0B27  97020000           [049] loadbool   10  0   0    ; false
fail op	8
0B2B  88020001           [050] setupval   10  2      
0B2F  1A000080           [051] jmp        1            ; to [53]
0B33  54C1F97F           [052] forloop    5   -24      ; to [29] if loop
0B37  93020001           [053] getupval   10  2      
0B3B  98420000           [054] test       10      1    ; to [56] if false
0B3F  1A000080           [055] jmp        1            ; to [57]
0B43  1A000080           [056] jmp        1            ; to [58]
0B47  5480F77F           [057] forloop    1   -33      ; to [25] if loop
0B4B  93020001           [058] getupval   10  2      
0B4F  98020000           [059] test       10      0    ; to [61] if true
0B53  1A001380           [060] jmp        77           ; to [138]
0B57  9D420100           [061] getglobal  10  5        ; mMovie
0B5B  A4C24205           [062] self       10  10  267  ; 386043535
0B5F  19030300           [063] loadk      12  12       ; "Label.text"
0B63  59430300           [064] loadk      13  13       ; "/Lotus/Language/Menu/GrineerCipherSolved"
0B67  A2420002           [065] call       10  4   1  
0B6B  99820300           [066] loadk      10  14       ; 0
fail op	8
0B6F  88020002           [067] setupval   10  4      
0B73  93028002           [068] getupval   10  5      
0B77  8EC24305           [069] gettable   10  10  271  ; 630793108
0B7B  DD020400           [070] getglobal  11  16       ; solveSound
0B7F  A2420001           [071] call       10  2   1  
0B83  99820000           [072] loadk      10  2        ; 0
fail op	8
0B87  88020003           [073] setupval   10  6      
0B8B  99820000           [074] loadk      10  2        ; 0
0B8F  D3028001           [075] getupval   11  3      
0B93  CA028005           [076] len        11  11     
0B97  19830000           [077] loadk      12  2        ; 0
0B9B  90820180           [078] forprep    10  7        ; to [86]
0B9F  9D430100           [079] getglobal  14  5        ; mMovie
0BA3  A4434407           [080] self       14  14  273  ; 471456102
0BA7  13048001           [081] getupval   16  3      
0BAB  0E440308           [082] gettable   16  16  13 
0BAF  59840400           [083] loadk      17  18       ; "_color"
0BB3  99C40400           [084] loadk      18  19       ; -2
0BB7  A2438002           [085] call       14  5   1  
0BBB  94C2FD7F           [086] forloop    10  -8       ; to [79] if loop
0BBF  99830000           [087] loadk      14  2        ; 0
0BC3  D3038001           [088] getupval   15  3      
0BC7  CA038007           [089] len        15  15     
0BCB  19840000           [090] loadk      16  2        ; 0
0BCF  90430880           [091] forprep    14  34       ; to [126]
0BD3  9D440100           [092] getglobal  18  5        ; mMovie
0BD7  A4844109           [093] self       18  18  262  ; 1803241227
0BDB  13058001           [094] getupval   20  3      
0BDF  0E45040A           [095] gettable   20  20  17 
0BE3  59050500           [096] loadk      21  20       ; "._x"
0BE7  0245050A           [097] concat     20  20  21 
0BEB  A2848001           [098] call       18  3   2  
0BEF  DD440100           [099] getglobal  19  5        ; mMovie
0BF3  E484C109           [100] self       19  19  262  ; 1803241227
0BF7  53058001           [101] getupval   21  3      
0BFB  4E45840A           [102] gettable   21  21  17 
0BFF  99450500           [103] loadk      22  21       ; "._y"
0C03  4285850A           [104] concat     21  21  22 
0C07  E2848001           [105] call       19  3   2  
0C0B  0D854509           [106] sub        20  18  278  ; 0
0C0F  4DC5C509           [107] sub        21  19  279  ; 0
0C13  9D050600           [108] getglobal  22  24       ; 1390508688
0C17  DD450100           [109] getglobal  23  5        ; mMovie
0C1B  13068001           [110] getupval   24  3      
0C1F  0E46040C           [111] gettable   24  24  17 
0C23  5D460600           [112] getglobal  25  25       ; UISys
0C27  4E86C60C           [113] gettable   25  25  282  ; "FlashInstance_EASE_IN_OUT_BACK"
0C2B  8B060001           [114] newtable   26  2   0    ; array=2, hash=0
0C2F  D9C60600           [115] loadk      27  27       ; "_x"
0C33  19070700           [116] loadk      28  28       ; "_y"
0C37  9B460001           [117] setlist    26  2   1    ; index 1 to 2
0C3B  CB060001           [118] newtable   27  2   0    ; array=2, hash=0
0C3F  0447470A           [119] mul        28  20  285  ; 0
0C43  03070709           [120] add        28  18  28 
0C47  4447C70A           [121] mul        29  21  285  ; 0
0C4B  43478709           [122] add        29  19  29 
0C4F  DB460001           [123] setlist    27  2   1    ; index 1 to 2
0C53  19870000           [124] loadk      28  2        ; 0
0C57  A2458003           [125] call       22  7   1  
0C5B  9403F77F           [126] forloop    14  -35      ; to [92] if loop
0C5F  9D050600           [127] getglobal  22  24       ; 1390508688
0C63  DD450100           [128] getglobal  23  5        ; mMovie
0C67  19860700           [129] loadk      24  30       ; "nothing"
0C6B  5D460600           [130] getglobal  25  25       ; UISys
0C6F  4EC6C70C           [131] gettable   25  25  287  ; "FlashInstance_LINEAR"
0C73  8B060000           [132] newtable   26  0   0    ; array=0, hash=0
0C77  CB060000           [133] newtable   27  0   0    ; array=0, hash=0
0C7B  19870300           [134] loadk      28  14       ; 0
0C7F  59070800           [135] loadk      29  32       ; -102
0C83  A5070000           [136] closure    30  0      
0C87  A2458004           [137] call       22  9   1  
0C8B  1E008000           [138] return     0   1      
                         * constants:
0C8F  21                 sizek (33)
0C90  04                 const type 4
0C91  03                 string size (3)
0C92  5F4700             "_G\0"
                         const [0]: "_G"
0C95  04                 const type 4
0C96  0C                 string size (12)
0C97  5374616C6B65724D+  "StalkerM"
0C9F  6F646500           "ode\0"
                         const [1]: "StalkerMode"
0CA3  03                 const type 3
0CA4  0000803F           const [2]: (0)
0CA8  03                 const type 3
0CA9  0000C040           const [3]: (0)
0CAD  04                 const type 4
0CAE  06                 string size (6)
0CAF  2E4C696E6500       ".Line\0"
                         const [4]: ".Line"
0CB5  04                 const type 4
0CB6  07                 string size (7)
0CB7  6D4D6F76696500     "mMovie\0"
                         const [5]: "mMovie"
0CBE  01                 const type 3
0CBF  0B477B6B           const [6]: (1803241227)
0CC3  04                 const type 4
0CC4  09                 string size (9)
0CC5  5F76697369626C65+  "_visible"
0CCD  00                 "\0"
                         const [7]: "_visible"
0CCE  04                 const type 4
0CCF  05                 string size (5)
0CD0  7472756500         "true\0"
                         const [8]: "true"
0CD5  04                 const type 4
0CD6  0F                 string size (15)
0CD7  2E5F63757272656E+  "._curren"
0CDF  744672616D6500     "tFrame\0"
                         const [9]: "._currentFrame"
0CE6  04                 const type 4
0CE7  03                 string size (3)
0CE8  313000             "10\0"
                         const [10]: "10"
0CEB  01                 const type 3
0CEC  8F8E0217           const [11]: (386043535)
0CF0  04                 const type 4
0CF1  0B                 string size (11)
0CF2  4C6162656C2E7465+  "Label.te"
0CFA  787400             "xt\0"
                         const [12]: "Label.text"
0CFD  04                 const type 4
0CFE  29                 string size (41)
0CFF  2F4C6F7475732F4C+  "/Lotus/L"
0D07  616E67756167652F+  "anguage/"
0D0F  4D656E752F477269+  "Menu/Gri"
0D17  6E65657243697068+  "neerCiph"
0D1F  6572536F6C766564+  "erSolved"
0D27  00                 "\0"
                         const [13]: "/Lotus/Language/Menu/GrineerCipherSolved"
0D28  03                 const type 3
0D29  00000000           const [14]: (0)
0D2D  01                 const type 3
0D2E  94239925           const [15]: (630793108)
0D32  04                 const type 4
0D33  0B                 string size (11)
0D34  736F6C7665536F75+  "solveSou"
0D3C  6E6400             "nd\0"
                         const [16]: "solveSound"
0D3F  01                 const type 3
0D40  66D9191C           const [17]: (471456102)
0D44  04                 const type 4
0D45  07                 string size (7)
0D46  5F636F6C6F7200     "_color\0"
                         const [18]: "_color"
0D4D  03                 const type 3
0D4E  FEFFF34A           const [19]: (-2)
0D52  04                 const type 4
0D53  04                 string size (4)
0D54  2E5F7800           "._x\0"
                         const [20]: "._x"
0D58  04                 const type 4
0D59  04                 string size (4)
0D5A  2E5F7900           "._y\0"
                         const [21]: "._y"
0D5E  03                 const type 3
0D5F  00002044           const [22]: (0)
0D63  03                 const type 3
0D64  0000B443           const [23]: (0)
0D68  01                 const type 3
0D69  907AE152           const [24]: (1390508688)
0D6D  04                 const type 4
0D6E  06                 string size (6)
0D6F  554953797300       "UISys\0"
                         const [25]: "UISys"
0D75  04                 const type 4
0D76  1F                 string size (31)
0D77  466C617368496E73+  "FlashIns"
0D7F  74616E63655F4541+  "tance_EA"
0D87  53455F494E5F4F55+  "SE_IN_OU"
0D8F  545F4241434B00     "T_BACK\0"
                         const [26]: "FlashInstance_EASE_IN_OUT_BACK"
0D96  04                 const type 4
0D97  03                 string size (3)
0D98  5F7800             "_x\0"
                         const [27]: "_x"
0D9B  04                 const type 4
0D9C  03                 string size (3)
0D9D  5F7900             "_y\0"
                         const [28]: "_y"
0DA0  03                 const type 3
0DA1  00004040           const [29]: (0)
0DA5  04                 const type 4
0DA6  08                 string size (8)
0DA7  6E6F7468696E6700   "nothing\0"
                         const [30]: "nothing"
0DAF  04                 const type 4
0DB0  15                 string size (21)
0DB1  466C617368496E73+  "FlashIns"
0DB9  74616E63655F4C49+  "tance_LI"
0DC1  4E45415200         "NEAR\0"
                         const [31]: "FlashInstance_LINEAR"
0DC6  03                 const type 3
0DC7  9A99993E           const [32]: (-102)
                         * functions:
0DCB  01                 sizep (1)
                         
0DCC                     ** function [0] definition (level 3)
                         ** start of function **
0DCC  00                 string size (0)
                         source name: (none)
0DCE  01                 line defined (129)
0DCF  81                 last line defined (129)
0DD0  01                 nups (0)
0DD1  00                 numparams (0)
0DD2  00                 is_vararg (0)
0DD3  00                 maxstacksize (3)
                         * code:
0DD5  07                 sizecode (7)
0DD6  1D000000           [1] getglobal  0   0        ; mMovie
0DDA  24404000           [2] self       0   0   257  ; 2082429591
0DDE  22800001           [3] call       0   2   2  
0DE2  24804000           [4] self       0   0   258  ; -1499772696
0DE6  99C00000           [5] loadk      2   3        ; 0
0DEA  22408001           [6] call       0   3   1  
0DEE  1E008000           [7] return     0   1      
                         * constants:
0DF2  04                 sizek (4)
0DF3  04                 const type 4
0DF4  07                 string size (7)
0DF5  6D4D6F76696500     "mMovie\0"
                         const [0]: "mMovie"
0DFC  01                 const type 3
0DFD  975A1F7C           const [1]: (2082429591)
0E01  01                 const type 3
0E02  E8489BA6           const [2]: (-1499772696)
0E06  03                 const type 3
0E07  0000803F           const [3]: (0)
                         * functions:
0E0B  00                 sizep (0)
                         * lines:
0E0C  07                 sizelineinfo (7)
                         [pc] (line)
0E0D  81                 [1] (-127)
0E0E  00                 [2] (-127)
0E0F  00                 [3] (-127)
0E10  00                 [4] (-127)
0E11  81                 [5] (-127)
0E12  00                 [6] (-127)
0E13  00                 [7] (-127)
                         * locals:
0E29  00                 sizelocvars (0)
                         * upvalues:
0E2A  00                 sizeupvalues (0)
                         ** end of function **

                         * lines:
0E2C  01                 sizelineinfo (138)
                         [pc] (line)
0E2D  53                 [001] (83)
0E2E  00                 [002] (83)
0E2F  00                 [003] (83)
0E30  00                 [004] (83)
0E31  53                 [005] (83)
0E32  00                 [006] (83)
0E33  00                 [007] (83)
0E34  00                 [008] (83)
0E35  53                 [009] (84)
0E36  00                 [010] (87)
0E37  00                 [011] (87)
0E38  00                 [012] (88)
0E39  53                 [013] (88)
0E3A  00                 [014] (92)
0E3B  00                 [015] (92)
0E3C  00                 [016] (92)
0E3D  53                 [017] (92)
0E3E  00                 [018] (92)
0E3F  00                 [019] (92)
0E40  00                 [020] (95)
0E41  53                 [021] (95)
0E42  00                 [022] (95)
0E43  00                 [023] (95)
0E44  00                 [024] (95)
0E45  53                 [025] (96)
0E46  00                 [026] (96)
0E47  00                 [027] (96)
0E48  00                 [028] (96)
0E49  53                 [029] (97)
0E4A  00                 [030] (97)
0E4B  00                 [031] (97)
0E4C  00                 [032] (97)
0E4D  54                 [033] (97)
0E4E  00                 [034] (98)
0E4F  00                 [035] (98)
0E50  00                 [036] (98)
0E51  57                 [037] (98)
0E52  00                 [038] (98)
0E53  00                 [039] (98)
0E54  00                 [040] (98)
0E55  57                 [041] (98)
0E56  00                 [042] (98)
0E57  00                 [043] (98)
0E58  00                 [044] (98)
0E59  58                 [045] (98)
0E5A  00                 [046] (98)
0E5B  00                 [047] (98)
0E5C  00                 [048] (98)
0E5D  58                 [049] (100)
0E5E  00                 [050] (100)
0E5F  00                 [051] (101)
0E60  00                 [052] (96)
0E61  5C                 [053] (105)
0E62  00                 [054] (105)
0E63  00                 [055] (105)
0E64  00                 [056] (106)
0E65  5C                 [057] (95)
0E66  00                 [058] (111)
0E67  00                 [059] (111)
0E68  00                 [060] (111)
0E69  5C                 [061] (112)
0E6A  00                 [062] (112)
0E6B  00                 [063] (112)
0E6C  00                 [064] (112)
0E6D  5C                 [065] (112)
0E6E  00                 [066] (113)
0E6F  00                 [067] (113)
0E70  00                 [068] (114)
0E71  5C                 [069] (114)
0E72  00                 [070] (114)
0E73  00                 [071] (114)
0E74  00                 [072] (115)
0E75  5C                 [073] (115)
0E76  00                 [074] (117)
0E77  00                 [075] (117)
0E78  00                 [076] (117)
0E79  5F                 [077] (117)
0E7A  00                 [078] (117)
0E7B  00                 [079] (118)
0E7C  00                 [080] (118)
0E7D  5F                 [081] (118)
0E7E  00                 [082] (118)
0E7F  00                 [083] (118)
0E80  00                 [084] (118)
0E81  5F                 [085] (118)
0E82  00                 [086] (117)
0E83  00                 [087] (121)
0E84  00                 [088] (121)
0E85  5F                 [089] (121)
0E86  00                 [090] (121)
0E87  00                 [091] (121)
0E88  00                 [092] (122)
0E89  5F                 [093] (122)
0E8A  00                 [094] (122)
0E8B  00                 [095] (122)
0E8C  00                 [096] (122)
0E8D  60                 [097] (122)
0E8E  00                 [098] (122)
0E8F  00                 [099] (123)
0E90  00                 [100] (123)
0E91  60                 [101] (123)
0E92  00                 [102] (123)
0E93  00                 [103] (123)
0E94  00                 [104] (123)
0E95  60                 [105] (123)
0E96  00                 [106] (124)
0E97  00                 [107] (125)
0E98  00                 [108] (126)
0E99  60                 [109] (126)
0E9A  00                 [110] (126)
0E9B  00                 [111] (126)
0E9C  00                 [112] (126)
0E9D  61                 [113] (126)
0E9E  00                 [114] (126)
0E9F  00                 [115] (126)
0EA0  00                 [116] (126)
0EA1  61                 [117] (126)
0EA2  00                 [118] (126)
0EA3  00                 [119] (126)
0EA4  00                 [120] (126)
0EA5  61                 [121] (126)
0EA6  00                 [122] (126)
0EA7  00                 [123] (126)
0EA8  00                 [124] (126)
0EA9  61                 [125] (126)
0EAA  00                 [126] (121)
0EAB  00                 [127] (-127)
0EAC  00                 [128] (-127)
0EAD  61                 [129] (-127)
0EAE  00                 [130] (-127)
0EAF  00                 [131] (-127)
0EB0  00                 [132] (-127)
0EB1  62                 [133] (-127)
0EB2  00                 [134] (-127)
0EB3  00                 [135] (-127)
0EB4  00                 [136] (-127)
0EB5  62                 [137] (-127)
0EB6  00                 [138] (-125)
                         * locals:
1055  00                 sizelocvars (0)
                         * upvalues:
1056  00                 sizeupvalues (0)
                         ** end of function **

                         
1057                     ** function [4] definition (level 2)
                         ** start of function **
1057  00                 string size (0)
                         source name: (none)
1059  01                 line defined (133)
105A  8E                 last line defined (142)
105B  01                 nups (1)
105C  01                 numparams (0)
105D  00                 is_vararg (0)
105E  00                 maxstacksize (8)
                         * code:
1060  12                 sizecode (18)
1061  1D000000           [01] getglobal  0   0        ; cipherType
1065  53000000           [02] getupval   1   0      
1069  58000000           [03] test       1       0    ; to [5] if true
106D  1AC00280           [04] jmp        12           ; to [17]
1071  5D400000           [05] getglobal  1   1        ; 1672515847
1075  9D800000           [06] getglobal  2   2        ; gGameRules
1079  A4C04001           [07] self       2   2   259  ; -1201441975
107D  A2800001           [08] call       2   2   2  
1081  8E004101           [09] gettable   2   2   260  ; "requiredItems"
1085  62000101           [10] call       1   2   4  
1089  1A800080           [11] jmp        3            ; to [15]
108D  A441C102           [12] self       6   5   261  ; 813153904
1091  A2810001           [13] call       6   2   2  
1095  12000003           [14] move       0   6      
1099  56800000           [15] tforloop   1       2    ; to [17] if exit
109D  1A80FE7F           [16] jmp        -5           ; to [12]
10A1  1E000001           [17] return     0   2      
10A5  1E008000           [18] return     0   1      
                         * constants:
10A9  06                 sizek (6)
10AA  04                 const type 4
10AB  0B                 string size (11)
10AC  6369706865725479+  "cipherTy"
10B4  706500             "pe\0"
                         const [0]: "cipherType"
10B7  01                 const type 3
10B8  0791B063           const [1]: (1672515847)
10BC  04                 const type 4
10BD  0B                 string size (11)
10BE  6747616D6552756C+  "gGameRul"
10C6  657300             "es\0"
                         const [2]: "gGameRules"
10C9  01                 const type 3
10CA  497363B8           const [3]: (-1201441975)
10CE  04                 const type 4
10CF  0E                 string size (14)
10D0  7265717569726564+  "required"
10D8  4974656D7300       "Items\0"
                         const [4]: "requiredItems"
10DE  01                 const type 3
10DF  70BE7730           const [5]: (813153904)
                         * functions:
10E3  00                 sizep (0)
                         * lines:
10E4  12                 sizelineinfo (18)
                         [pc] (line)
10E5  86                 [01] (-122)
10E6  00                 [02] (-121)
10E7  00                 [03] (-121)
10E8  00                 [04] (-121)
10E9  87                 [05] (-119)
10EA  00                 [06] (-119)
10EB  00                 [07] (-119)
10EC  00                 [08] (-119)
10ED  87                 [09] (-119)
10EE  00                 [10] (-119)
10EF  00                 [11] (-119)
10F0  00                 [12] (-118)
10F1  87                 [13] (-118)
10F2  00                 [14] (-118)
10F3  00                 [15] (-119)
10F4  00                 [16] (-118)
10F5  89                 [17] (-115)
10F6  00                 [18] (-114)
                         * locals:
112D  00                 sizelocvars (0)
                         * upvalues:
112E  00                 sizeupvalues (0)
                         ** end of function **

                         
112F                     ** function [5] definition (level 2)
                         ** start of function **
112F  00                 string size (0)
                         source name: (none)
1131  01                 line defined (144)
1132  99                 last line defined (153)
1133  01                 nups (4)
1134  04                 numparams (0)
1135  00                 is_vararg (0)
1136  00                 maxstacksize (2)
                         * code:
1138  0E                 sizecode (14)
1139  13000000           [01] getupval   0   0      
fail op	35
113D  23004000           [02] close      0  
1141  1A000080           [03] jmp        1            ; to [5]
1145  1E008000           [04] return     0   1      
1149  13008000           [05] getupval   0   1      
114D  0E404000           [06] gettable   0   0   257  ; 630793108
1151  5D800000           [07] getglobal  1   2        ; cipherSound
1155  22400001           [08] call       0   2   1  
1159  17008000           [09] loadbool   0   1   0    ; true
fail op	8
115D  08000001           [10] setupval   0   2      
1161  13008001           [11] getupval   0   3      
1165  57008000           [12] loadbool   1   1   0    ; true
1169  22400001           [13] call       0   2   1  
116D  1E008000           [14] return     0   1      
                         * constants:
1171  03                 sizek (3)
1172  03                 const type 3
1173  00000000           const [0]: (0)
1177  01                 const type 3
1178  94239925           const [1]: (630793108)
117C  04                 const type 4
117D  0C                 string size (12)
117E  636970686572536F+  "cipherSo"
1186  756E6400           "und\0"
                         const [2]: "cipherSound"
                         * functions:
118A  00                 sizep (0)
                         * lines:
118B  0E                 sizelineinfo (14)
                         [pc] (line)
118C  91                 [01] (-111)
118D  00                 [02] (-111)
118E  00                 [03] (-111)
118F  00                 [04] (-110)
1190  91                 [05] (-107)
1191  00                 [06] (-107)
1192  00                 [07] (-107)
1193  00                 [08] (-107)
1194  91                 [09] (-105)
1195  00                 [10] (-105)
1196  00                 [11] (-104)
1197  00                 [12] (-104)
1198  92                 [13] (-104)
1199  00                 [14] (-103)
                         * locals:
11C4  00                 sizelocvars (0)
                         * upvalues:
11C5  00                 sizeupvalues (0)
                         ** end of function **

                         
11C6                     ** function [6] definition (level 2)
                         ** start of function **
11C6  00                 string size (0)
                         source name: (none)
11C8  01                 line defined (155)
11C9  A5                 last line defined (165)
11CA  01                 nups (4)
11CB  04                 numparams (0)
11CC  00                 is_vararg (0)
11CD  00                 maxstacksize (9)
                         * code:
11CF  1E                 sizecode (30)
11D0  19000000           [01] loadk      0   0        ; 0
11D4  53000000           [02] getupval   1   0      
11D8  4A008000           [03] len        1   1      
11DC  99000000           [04] loadk      2   0        ; 0
11E0  10400380           [05] forprep    0   14       ; to [20]
11E4  1D410000           [06] getglobal  4   1        ; mMovie
11E8  24814002           [07] self       4   4   258  ; 471456102
11EC  93010000           [08] getupval   6   0      
11F0  8EC10003           [09] gettable   6   6   3  
11F4  D9C10000           [10] loadk      7   3        ; "targetRotation"
11F8  19020100           [11] loadk      8   4        ; 0
11FC  22418002           [12] call       4   5   1  
1200  1D410000           [13] getglobal  4   1        ; mMovie
1204  24814002           [14] self       4   4   258  ; 471456102
1208  93010000           [15] getupval   6   0      
120C  8EC10003           [16] gettable   6   6   3  
1210  D9410100           [17] loadk      7   5        ; "_alpha"
1214  19820100           [18] loadk      8   6        ; 0
1218  22418002           [19] call       4   5   1  
121C  1400FC7F           [20] forloop    0   -15      ; to [6] if loop
1220  13018000           [21] getupval   4   1      
1224  0EC14102           [22] gettable   4   4   263  ; 630793108
1228  5D010200           [23] getglobal  5   8        ; cipherSound
122C  22410001           [24] call       4   2   1  
1230  17018000           [25] loadbool   4   1   0    ; true
fail op	8
1234  08010001           [26] setupval   4   2      
1238  13018001           [27] getupval   4   3      
123C  57018000           [28] loadbool   5   1   0    ; true
1240  22410001           [29] call       4   2   1  
1244  1E008000           [30] return     0   1      
                         * constants:
1248  09                 sizek (9)
1249  03                 const type 3
124A  0000803F           const [0]: (0)
124E  04                 const type 4
124F  07                 string size (7)
1250  6D4D6F76696500     "mMovie\0"
                         const [1]: "mMovie"
1257  01                 const type 3
1258  66D9191C           const [2]: (471456102)
125C  04                 const type 4
125D  0F                 string size (15)
125E  746172676574526F+  "targetRo"
1266  746174696F6E00     "tation\0"
                         const [3]: "targetRotation"
126D  03                 const type 3
126E  00000000           const [4]: (0)
1272  04                 const type 4
1273  07                 string size (7)
1274  5F616C70686100     "_alpha\0"
                         const [5]: "_alpha"
127B  03                 const type 3
127C  00004842           const [6]: (0)
1280  01                 const type 3
1281  94239925           const [7]: (630793108)
1285  04                 const type 4
1286  0C                 string size (12)
1287  636970686572536F+  "cipherSo"
128F  756E6400           "und\0"
                         const [8]: "cipherSound"
                         * functions:
1293  00                 sizep (0)
                         * lines:
1294  1E                 sizelineinfo (30)
                         [pc] (line)
1295  9C                 [01] (-100)
1296  00                 [02] (-100)
1297  00                 [03] (-100)
1298  00                 [04] (-100)
1299  9C                 [05] (-100)
129A  00                 [06] (-99)
129B  00                 [07] (-99)
129C  00                 [08] (-99)
129D  9C                 [09] (-99)
129E  00                 [10] (-99)
129F  00                 [11] (-99)
12A0  00                 [12] (-99)
12A1  9C                 [13] (-98)
12A2  00                 [14] (-98)
12A3  00                 [15] (-98)
12A4  00                 [16] (-98)
12A5  9C                 [17] (-98)
12A6  00                 [18] (-98)
12A7  00                 [19] (-98)
12A8  00                 [20] (-100)
12A9  9D                 [21] (-95)
12AA  00                 [22] (-95)
12AB  00                 [23] (-95)
12AC  00                 [24] (-95)
12AD  9D                 [25] (-93)
12AE  00                 [26] (-93)
12AF  00                 [27] (-92)
12B0  00                 [28] (-92)
12B1  9D                 [29] (-92)
12B2  00                 [30] (-91)
                         * locals:
130D  00                 sizelocvars (0)
                         * upvalues:
130E  00                 sizeupvalues (0)
                         ** end of function **

                         
130F                     ** function [7] definition (level 2)
                         ** start of function **
130F  00                 string size (0)
                         source name: (none)
1311  01                 line defined (167)
1312  CE                 last line defined (206)
1313  01                 nups (5)
1314  05                 numparams (0)
1315  00                 is_vararg (0)
1316  00                 maxstacksize (16)
                         * code:
1318  56                 sizecode (86)
1319  13000000           [01] getupval   0   0      
fail op	33
131D  21004000           [02] tforloop   0       256  ; to [4] if exit
1321  1A000080           [03] jmp        1            ; to [5]
1325  1E008000           [04] return     0   1      
1329  13008000           [05] getupval   0   1      
fail op	35
132D  23004000           [06] close      0  
1331  1A000080           [07] jmp        1            ; to [9]
1335  1E008000           [08] return     0   1      
1339  13000001           [09] getupval   0   2      
133D  22808000           [10] call       0   1   2  
1341  57000000           [11] loadbool   1   0   0    ; false
1345  9D400000           [12] getglobal  2   1        ; gRegion
1349  A4804001           [13] self       2   2   258  ; 65205951
134D  A2800001           [14] call       2   2   2  
1351  DDC00000           [15] getglobal  3   3        ; 1074689893
1355  12010001           [16] move       4   2      
1359  E2800001           [17] call       3   2   2  
135D  D8400000           [18] test       3       1    ; to [20] if false
1361  1AC00B80           [19] jmp        48           ; to [68]
1365  E4004101           [20] self       3   2   260  ; -1917464545
1369  E2800001           [21] call       3   2   2  
136D  1DC10000           [22] getglobal  4   3        ; 1074689893
1371  52018001           [23] move       5   3      
1375  22810001           [24] call       4   2   2  
1379  18410000           [25] test       4       1    ; to [27] if false
137D  1A000A80           [26] jmp        41           ; to [68]
1381  19410100           [27] loadk      4   5        ; 0
1385  6481C101           [28] self       5   3   262  ; -2144646911
1389  DDC10100           [29] getglobal  7   7        ; Lotus_Game
138D  CE01C203           [30] gettable   7   7   264  ; "CP_GENERAL"
1391  62818001           [31] call       5   3   2  
1395  99410100           [32] loadk      6   5        ; 0
1399  10010880           [33] forprep    4   33       ; to [67]
139D  2442C201           [34] self       8   3   265  ; 28428114
13A1  8D42C103           [35] sub        10  7   261  ; 0
13A5  DDC20100           [36] getglobal  11  7        ; Lotus_Game
13A9  CE02C205           [37] gettable   11  11  264  ; "CP_GENERAL"
13AD  22820002           [38] call       8   4   2  
13B1  5DC20000           [39] getglobal  9   3        ; 1074689893
13B5  92020004           [40] move       10  8      
13B9  62820001           [41] call       9   2   2  
13BD  58420000           [42] test       9       1    ; to [44] if false
13C1  1A800580           [43] jmp        23           ; to [67]
13C5  64824204           [44] self       9   8   266  ; -1957065004
13C9  D2020000           [45] move       11  0      
13CD  62828001           [46] call       9   3   2  
13D1  58020000           [47] test       9       0    ; to [49] if true
13D5  1A400480           [48] jmp        18           ; to [67]
13D9  64C2C201           [49] self       9   3   267  ; 1797259670
13DD  CD42C103           [50] sub        11  7   261  ; 0
13E1  1DC30100           [51] getglobal  12  7        ; Lotus_Game
13E5  0E034206           [52] gettable   12  12  264  ; "CP_GENERAL"
13E9  62820002           [53] call       9   4   2  
fail op	21
13ED  15400280           [54] concat     0   256 9  
13F1  1A800280           [55] jmp        11           ; to [67]
13F5  53028001           [56] getupval   9   3      
13F9  58420000           [57] test       9       1    ; to [59] if false
13FD  1A400180           [58] jmp        6            ; to [65]
1401  6402C301           [59] self       9   3   268  ; 1275171695
1405  CD42C103           [60] sub        11  7   261  ; 0
1409  1DC30100           [61] getglobal  12  7        ; Lotus_Game
140D  0E034206           [62] gettable   12  12  264  ; "CP_GENERAL"
1411  57038000           [63] loadbool   13  1   0    ; true
1415  62428002           [64] call       9   5   1  
1419  57008000           [65] loadbool   1   1   0    ; true
141D  1A000080           [66] jmp        1            ; to [68]
1421  1441F77F           [67] forloop    4   -34      ; to [34] if loop
1425  58400000           [68] test       1       1    ; to [70] if false
1429  1A000080           [69] jmp        1            ; to [71]
142D  1E008000           [70] return     0   1      
1431  53028000           [71] getupval   9   1      
1435  4D42C104           [72] sub        9   9   261  ; 0
fail op	8
1439  48028000           [73] setupval   9   1      
143D  5D420300           [74] getglobal  9   13       ; mMovie
1441  6482C304           [75] self       9   9   270  ; -693657623
1445  D9C20300           [76] loadk      11  15       ; "CiphersLeft"
1449  19030400           [77] loadk      12  16       ; "text"
144D  59430400           [78] loadk      13  17       ; "x "
1451  9D830400           [79] getglobal  14  18       ; -1615931716
1455  D3038000           [80] getupval   15  1      
1459  A2830001           [81] call       14  2   2  
145D  42838306           [82] concat     13  13  14 
1461  62428002           [83] call       9   5   1  
1465  53020002           [84] getupval   9   4      
1469  62428000           [85] call       9   1   1  
146D  1E008000           [86] return     0   1      
                         * constants:
1471  13                 sizek (19)
1472  03                 const type 3
1473  00000000           const [0]: (0)
1477  04                 const type 4
1478  08                 string size (8)
1479  67526567696F6E00   "gRegion\0"
                         const [1]: "gRegion"
1481  01                 const type 3
1482  BFF6E203           const [2]: (65205951)
1486  01                 const type 3
1487  65770E40           const [3]: (1074689893)
148B  01                 const type 3
148C  1FD0B58D           const [4]: (-1917464545)
1490  03                 const type 3
1491  0000803F           const [5]: (0)
1495  01                 const type 3
1496  01492B80           const [6]: (-2144646911)
149A  04                 const type 4
149B  0B                 string size (11)
149C  4C6F7475735F4761+  "Lotus_Ga"
14A4  6D6500             "me\0"
                         const [7]: "Lotus_Game"
14A7  04                 const type 4
14A8  0B                 string size (11)
14A9  43505F47454E4552+  "CP_GENER"
14B1  414C00             "AL\0"
                         const [8]: "CP_GENERAL"
14B4  01                 const type 3
14B5  52C7B101           const [9]: (28428114)
14B9  01                 const type 3
14BA  D48E598B           const [10]: (-1957065004)
14BE  01                 const type 3
14BF  9601206B           const [11]: (1797259670)
14C3  01                 const type 3
14C4  6F93014C           const [12]: (1275171695)
14C8  04                 const type 4
14C9  07                 string size (7)
14CA  6D4D6F76696500     "mMovie\0"
                         const [13]: "mMovie"
14D1  01                 const type 3
14D2  E99FA7D6           const [14]: (-693657623)
14D6  04                 const type 4
14D7  0C                 string size (12)
14D8  436970686572734C+  "CiphersL"
14E0  65667400           "eft\0"
                         const [15]: "CiphersLeft"
14E4  04                 const type 4
14E5  05                 string size (5)
14E6  7465787400         "text\0"
                         const [16]: "text"
14EB  04                 const type 4
14EC  03                 string size (3)
14ED  782000             "x \0"
                         const [17]: "x "
14F0  01                 const type 3
14F1  BCD6AE9F           const [18]: (-1615931716)
                         * functions:
14F5  00                 sizep (0)
                         * lines:
14F6  56                 sizelineinfo (86)
                         [pc] (line)
14F7  A8                 [01] (-88)
14F8  00                 [02] (-88)
14F9  00                 [03] (-88)
14FA  00                 [04] (-87)
14FB  A8                 [05] (-84)
14FC  00                 [06] (-84)
14FD  00                 [07] (-84)
14FE  00                 [08] (-83)
14FF  A8                 [09] (-80)
1500  00                 [10] (-80)
1501  00                 [11] (-79)
1502  00                 [12] (-78)
1503  A9                 [13] (-78)
1504  00                 [14] (-78)
1505  00                 [15] (-77)
1506  00                 [16] (-77)
1507  AC                 [17] (-77)
1508  00                 [18] (-77)
1509  00                 [19] (-77)
150A  00                 [20] (-76)
150B  AC                 [21] (-76)
150C  00                 [22] (-74)
150D  00                 [23] (-74)
150E  00                 [24] (-74)
150F  AC                 [25] (-74)
1510  00                 [26] (-74)
1511  00                 [27] (-73)
1512  00                 [28] (-73)
1513  AD                 [29] (-73)
1514  00                 [30] (-73)
1515  00                 [31] (-73)
1516  00                 [32] (-73)
1517  B0                 [33] (-73)
1518  00                 [34] (-72)
1519  00                 [35] (-72)
151A  00                 [36] (-72)
151B  B0                 [37] (-72)
151C  00                 [38] (-72)
151D  00                 [39] (-70)
151E  00                 [40] (-70)
151F  B1                 [41] (-70)
1520  00                 [42] (-70)
1521  00                 [43] (-70)
1522  00                 [44] (-70)
1523  B2                 [45] (-70)
1524  00                 [46] (-70)
1525  00                 [47] (-70)
1526  00                 [48] (-70)
1527  B2                 [49] (-70)
1528  00                 [50] (-70)
1529  00                 [51] (-70)
152A  00                 [52] (-70)
152B  B2                 [53] (-70)
152C  00                 [54] (-70)
152D  00                 [55] (-70)
152E  00                 [56] (-69)
152F  B3                 [57] (-69)
1530  00                 [58] (-69)
1531  00                 [59] (-68)
1532  00                 [60] (-68)
1533  B3                 [61] (-68)
1534  00                 [62] (-68)
1535  00                 [63] (-68)
1536  00                 [64] (-68)
1537  B3                 [65] (-66)
1538  00                 [66] (-65)
1539  00                 [67] (-73)
153A  00                 [68] (-59)
153B  B3                 [69] (-59)
153C  00                 [70] (-58)
153D  00                 [71] (-55)
153E  00                 [72] (-55)
153F  B3                 [73] (-55)
1540  00                 [74] (-53)
1541  00                 [75] (-53)
1542  00                 [76] (-53)
1543  B4                 [77] (-53)
1544  00                 [78] (-53)
1545  00                 [79] (-53)
1546  00                 [80] (-53)
1547  B4                 [81] (-53)
1548  00                 [82] (-53)
1549  00                 [83] (-53)
154A  00                 [84] (-51)
154B  B6                 [85] (-51)
154C  00                 [86] (-50)
                         * locals:
164F  00                 sizelocvars (0)
                         * upvalues:
1650  00                 sizeupvalues (0)
                         ** end of function **

                         
1651                     ** function [8] definition (level 2)
                         ** start of function **
1651  00                 string size (0)
                         source name: (none)
1653  01                 line defined (208)
1654  E9                 last line defined (233)
1655  01                 nups (1)
1656  01                 numparams (3)
1657  03                 is_vararg (0)
1658  00                 maxstacksize (12)
                         * code:
165A  2B                 sizecode (43)
165B  1C014001           [01] div        4   2   256  ; 0
165F  03018100           [02] add        4   1   4  
fail op	21
1663  15008180           [03] concat     0   257 4  
1667  1A000080           [04] jmp        1            ; to [6]
166B  0D414002           [05] sub        4   4   257  ; 0
166F  53010000           [06] getupval   5   0      
1673  4E018002           [07] gettable   5   5   0  
1677  4E018102           [08] gettable   5   5   4  
fail op	35
167B  6380C002           [09] close      1  
167F  1A800780           [10] jmp        31           ; to [42]
1683  9DC10000           [11] getglobal  6   3        ; -174740002
1687  DD010100           [12] getglobal  7   4        ; mMovie
168B  E441C103           [13] self       7   7   261  ; 1803241227
168F  52028002           [14] move       9   5      
1693  99820100           [15] loadk      10  6        ; "targetRotation"
1697  E2010002           [16] call       7   4   0  
169B  A2810000           [17] call       6   0   2  
fail op	35
169F  63804003           [18] close      1  
16A3  1A400580           [19] jmp        22           ; to [42]
16A7  C3C14102           [20] add        7   4   263  ; 0
16AB  1C024003           [21] div        8   6   256  ; 0
16AF  CD018203           [22] sub        7   7   8  
fail op	21
16B3  15C08180           [23] concat     0   257 7  
16B7  1A400080           [24] jmp        2            ; to [27]
16BB  CD41C003           [25] sub        7   7   257  ; 0
16BF  1A800080           [26] jmp        3            ; to [30]
fail op	33
16C3  2100C203           [27] tforloop   0       264  ; to [29] if exit
16C7  1A000080           [28] jmp        1            ; to [30]
16CB  C341C003           [29] add        7   7   257  ; 0
16CF  12028002           [30] move       8   5      
16D3  59420200           [31] loadk      9   9        ; ".Line"
16D7  92028003           [32] move       10  7      
16DB  C2810204           [33] concat     7   8   10 
16DF  1D020100           [34] getglobal  8   4        ; mMovie
16E3  24424104           [35] self       8   8   261  ; 1803241227
16E7  92028003           [36] move       10  7      
16EB  D9820200           [37] loadk      11  10       ; "_visible"
16EF  22820002           [38] call       8   4   2  
fail op	35
16F3  23C04204           [39] close      0  
16F7  1A000080           [40] jmp        1            ; to [42]
16FB  D2008003           [41] move       3   7      
16FF  DE000001           [42] return     3   2      
1703  1E008000           [43] return     0   1      
                         * constants:
1707  0C                 sizek (12)
1708  03                 const type 3
1709  00007042           const [0]: (0)
170D  03                 const type 3
170E  0000C040           const [1]: (0)
1712  00                 const type 0
                         const [2]: nil
1713  01                 const type 3
1714  DEAD95F5           const [3]: (-174740002)
1718  04                 const type 4
1719  07                 string size (7)
171A  6D4D6F76696500     "mMovie\0"
                         const [4]: "mMovie"
1721  01                 const type 3
1722  0B477B6B           const [5]: (1803241227)
1726  04                 const type 4
1727  0F                 string size (15)
1728  746172676574526F+  "targetRo"
1730  746174696F6E00     "tation\0"
                         const [6]: "targetRotation"
1737  03                 const type 3
1738  00004040           const [7]: (0)
173C  03                 const type 3
173D  00000000           const [8]: (0)
1741  04                 const type 4
1742  06                 string size (6)
1743  2E4C696E6500       ".Line\0"
                         const [9]: ".Line"
1749  04                 const type 4
174A  09                 string size (9)
174B  5F76697369626C65+  "_visible"
1753  00                 "\0"
                         const [10]: "_visible"
1754  04                 const type 4
1755  05                 string size (5)
1756  7472756500         "true\0"
                         const [11]: "true"
                         * functions:
175B  00                 sizep (0)
                         * lines:
175C  2B                 sizelineinfo (43)
                         [pc] (line)
175D  D3                 [01] (-45)
175E  00                 [02] (-44)
175F  00                 [03] (-43)
1760  00                 [04] (-43)
1761  D4                 [05] (-42)
1762  00                 [06] (-40)
1763  00                 [07] (-40)
1764  00                 [08] (-40)
1765  D5                 [09] (-39)
1766  00                 [10] (-39)
1767  00                 [11] (-38)
1768  00                 [12] (-38)
1769  D5                 [13] (-38)
176A  00                 [14] (-38)
176B  00                 [15] (-38)
176C  00                 [16] (-38)
176D  D6                 [17] (-38)
176E  00                 [18] (-37)
176F  00                 [19] (-37)
1770  00                 [20] (-36)
1771  D8                 [21] (-36)
1772  00                 [22] (-36)
1773  00                 [23] (-35)
1774  00                 [24] (-35)
1775  D8                 [25] (-34)
1776  00                 [26] (-34)
1777  00                 [27] (-33)
1778  00                 [28] (-33)
1779  D8                 [29] (-32)
177A  00                 [30] (-30)
177B  00                 [31] (-30)
177C  00                 [32] (-30)
177D  D9                 [33] (-30)
177E  00                 [34] (-29)
177F  00                 [35] (-29)
1780  00                 [36] (-29)
1781  D9                 [37] (-29)
1782  00                 [38] (-29)
1783  00                 [39] (-29)
1784  00                 [40] (-29)
1785  DA                 [41] (-28)
1786  00                 [42] (-24)
1787  00                 [43] (-23)
                         * locals:
1809  00                 sizelocvars (0)
                         * upvalues:
180A  00                 sizeupvalues (0)
                         ** end of function **

                         
180B                     ** function [9] definition (level 2)
                         ** start of function **
180B  00                 string size (0)
                         source name: (none)
180D  01                 line defined (235)
180E  F3                 last line defined (243)
180F  01                 nups (0)
1810  00                 numparams (0)
1811  00                 is_vararg (0)
1812  00                 maxstacksize (9)
                         * code:
1814  13                 sizecode (19)
1815  1D000000           [01] getglobal  0   0        ; gRegion
1819  24404000           [02] self       0   0   257  ; 65205951
181D  22800001           [03] call       0   2   2  
1821  5D800000           [04] getglobal  1   2        ; 248503575
1825  9DC00000           [05] getglobal  2   3        ; hackingLoopAnims
1829  62000101           [06] call       1   2   4  
182D  1A800180           [07] jmp        7            ; to [15]
1831  A4014100           [08] self       6   0   260  ; -1224103631
1835  12028002           [09] move       8   5      
1839  A2818001           [10] call       6   3   2  
183D  98010000           [11] test       6       0    ; to [13] if true
1841  1A400080           [12] jmp        2            ; to [15]
1845  97018000           [13] loadbool   6   1   0    ; true
1849  9E010001           [14] return     6   2      
184D  56800000           [15] tforloop   1       2    ; to [17] if exit
1851  1A80FD7F           [16] jmp        -9           ; to [8]
1855  97010000           [17] loadbool   6   0   0    ; false
1859  9E010001           [18] return     6   2      
185D  1E008000           [19] return     0   1      
                         * constants:
1861  05                 sizek (5)
1862  04                 const type 4
1863  08                 string size (8)
1864  67526567696F6E00   "gRegion\0"
                         const [0]: "gRegion"
186C  01                 const type 3
186D  BFF6E203           const [1]: (65205951)
1871  01                 const type 3
1872  17DDCF0E           const [2]: (248503575)
1876  04                 const type 4
1877  11                 string size (17)
1878  6861636B696E674C+  "hackingL"
1880  6F6F70416E696D73+  "oopAnims"
1888  00                 "\0"
                         const [3]: "hackingLoopAnims"
1889  01                 const type 3
188A  31A909B7           const [4]: (-1224103631)
                         * functions:
188E  00                 sizep (0)
                         * lines:
188F  13                 sizelineinfo (19)
                         [pc] (line)
1890  EC                 [01] (-20)
1891  00                 [02] (-20)
1892  00                 [03] (-20)
1893  00                 [04] (-19)
1894  EC                 [05] (-19)
1895  00                 [06] (-19)
1896  00                 [07] (-19)
1897  00                 [08] (-18)
1898  EC                 [09] (-18)
1899  00                 [10] (-18)
189A  00                 [11] (-18)
189B  00                 [12] (-18)
189C  ED                 [13] (-17)
189D  00                 [14] (-17)
189E  00                 [15] (-19)
189F  00                 [16] (-16)
18A0  ED                 [17] (-14)
18A1  00                 [18] (-14)
18A2  00                 [19] (-13)
                         * locals:
18DC  00                 sizelocvars (0)
                         * upvalues:
18DD  00                 sizeupvalues (0)
                         ** end of function **

                         
18DE                     ** function [10] definition (level 2)
                         ** start of function **
18DE  00                 string size (0)
                         source name: (none)
18E0  01                 line defined (245)
18E1  CB                 last line defined (331)
18E2  02                 nups (6)
18E3  06                 numparams (2)
18E4  02                 is_vararg (0)
18E5  00                 maxstacksize (16)
                         * code:
18E8  01                 sizecode (208)
18E9  93000000           [001] getupval   2   0      
fail op	33
18ED  61004001           [002] tforloop   1       256  ; to [4] if exit
18F1  1A400080           [003] jmp        2            ; to [6]
fail op	35
18F5  23404000           [004] close      0  
18F9  1A000080           [005] jmp        1            ; to [7]
18FD  1E008000           [006] return     0   1      
1901  9D800000           [007] getglobal  2   2        ; mMovie
1905  A4C04001           [008] self       2   2   259  ; 1803241227
1909  12010000           [009] move       4   0      
190D  59010100           [010] loadk      5   4        ; "clickable"
1911  A2800002           [011] call       2   4   2  
fail op	35
1915  23404101           [012] close      0  
1919  1A000080           [013] jmp        1            ; to [15]
191D  1E008000           [014] return     0   1      
fail op	35
1921  63804100           [015] close      1  
1925  1AC00080           [016] jmp        4            ; to [21]
fail op	35
1929  63C04100           [017] close      1  
192D  1A400080           [018] jmp        2            ; to [21]
fail op	35
1931  23004200           [019] close      0  
1935  1A000080           [020] jmp        1            ; to [22]
1939  1E008000           [021] return     0   1      
193D  9D400200           [022] getglobal  2   9        ; -174740002
1941  DD800000           [023] getglobal  3   2        ; mMovie
1945  E4C0C001           [024] self       3   3   259  ; 1803241227
1949  52010000           [025] move       5   0      
194D  99810200           [026] loadk      6   10       ; "_alpha"
1951  E2000002           [027] call       3   4   0  
1955  A2800000           [028] call       2   0   2  
fail op	35
1959  23C04201           [029] close      0  
195D  1A000080           [030] jmp        1            ; to [32]
1961  1E008000           [031] return     0   1      
1965  9D800000           [032] getglobal  2   2        ; mMovie
1969  A4C04001           [033] self       2   2   259  ; 1803241227
196D  12010000           [034] move       4   0      
1971  59010300           [035] loadk      5   12       ; "targetRotation"
1975  A2800002           [036] call       2   4   2  
fail op	35
1979  63404301           [037] close      1  
197D  1AC00080           [038] jmp        4            ; to [43]
fail op	35
1981  63804301           [039] close      1  
1985  1A400080           [040] jmp        2            ; to [43]
fail op	35
1989  23C04301           [041] close      0  
198D  1A000080           [042] jmp        1            ; to [44]
1991  1E008000           [043] return     0   1      
1995  DD000400           [044] getglobal  3   16       ; 1074689893
1999  1D410400           [045] getglobal  4   17       ; clickFX
199D  E2800001           [046] call       3   2   2  
19A1  D8400000           [047] test       3       1    ; to [49] if false
19A5  1A400180           [048] jmp        6            ; to [55]
19A9  D3008000           [049] getupval   3   1      
19AD  CE80C401           [050] gettable   3   3   274  ; -1407588540
19B1  1D810000           [051] getglobal  4   2        ; mMovie
19B5  52010000           [052] move       5   0      
19B9  9D410400           [053] getglobal  6   17       ; clickFX
19BD  E2400002           [054] call       3   4   1  
19C1  DDC00400           [055] getglobal  3   19       ; gRegion
19C5  E400C501           [056] self       3   3   276  ; 65205951
19C9  E2800001           [057] call       3   2   2  
19CD  1D810000           [058] getglobal  4   2        ; mMovie
19D1  24414502           [059] self       4   4   277  ; 2082429591
19D5  22810001           [060] call       4   2   2  
19D9  5D810500           [061] getglobal  5   22       ; 738251817
19DD  99C10500           [062] loadk      6   23       ; "/Lotus/Types/Actions/RiotMoaHackAction"
19E1  62810001           [063] call       5   2   2  
19E5  93010001           [064] getupval   6   2      
19E9  A2818000           [065] call       6   1   2  
19ED  98010000           [066] test       6       0    ; to [68] if true
19F1  1A000B80           [067] jmp        45           ; to [113]
fail op	21
19F5  15400080           [068] concat     0   256 1  
19F9  1A400580           [069] jmp        22           ; to [92]
19FD  9D010400           [070] getglobal  6   16       ; 1074689893
1A01  D2010002           [071] move       7   4      
1A05  A2810001           [072] call       6   2   2  
1A09  98410000           [073] test       6       1    ; to [75] if false
1A0D  1A800280           [074] jmp        11           ; to [86]
1A11  A4014602           [075] self       6   4   280  ; -1957065004
1A15  12028002           [076] move       8   5      
1A19  A2818001           [077] call       6   3   2  
1A1D  98010000           [078] test       6       0    ; to [80] if true
1A21  1A400180           [079] jmp        6            ; to [86]
1A25  A441C601           [080] self       6   3   281  ; 2056776437
1A29  1D820600           [081] getglobal  8   26       ; rightAdditiveTwitch
1A2D  0EC24604           [082] gettable   8   8   283  ; 0
1A31  57020000           [083] loadbool   9   0   0    ; false
1A35  A2410002           [084] call       6   4   1  
1A39  1A800680           [085] jmp        27           ; to [113]
1A3D  A441C601           [086] self       6   3   281  ; 2056776437
1A41  1D820600           [087] getglobal  8   26       ; rightAdditiveTwitch
1A45  0E024704           [088] gettable   8   8   284  ; 0
1A49  57020000           [089] loadbool   9   0   0    ; false
1A4D  A2410002           [090] call       6   4   1  
1A51  1A000580           [091] jmp        21           ; to [113]
1A55  9D010400           [092] getglobal  6   16       ; 1074689893
1A59  D2010002           [093] move       7   4      
1A5D  A2810001           [094] call       6   2   2  
1A61  98410000           [095] test       6       1    ; to [97] if false
1A65  1A800280           [096] jmp        11           ; to [108]
1A69  A4014602           [097] self       6   4   280  ; -1957065004
1A6D  12028002           [098] move       8   5      
1A71  A2818001           [099] call       6   3   2  
1A75  98010000           [100] test       6       0    ; to [102] if true
1A79  1A400180           [101] jmp        6            ; to [108]
1A7D  A441C601           [102] self       6   3   281  ; 2056776437
1A81  1D420700           [103] getglobal  8   29       ; leftAdditiveTwitch
1A85  0EC24604           [104] gettable   8   8   283  ; 0
1A89  57020000           [105] loadbool   9   0   0    ; false
1A8D  A2410002           [106] call       6   4   1  
1A91  1A000180           [107] jmp        5            ; to [113]
1A95  A441C601           [108] self       6   3   281  ; 2056776437
1A99  1D420700           [109] getglobal  8   29       ; leftAdditiveTwitch
1A9D  0E024704           [110] gettable   8   8   284  ; 0
1AA1  57020000           [111] loadbool   9   0   0    ; false
1AA5  A2410002           [112] call       6   4   1  
1AA9  9D410200           [113] getglobal  6   9        ; -174740002
1AAD  D2010001           [114] move       7   2      
1AB1  A2810001           [115] call       6   2   2  
1AB5  92000003           [116] move       2   6      
fail op	35
1AB9  23C04301           [117] close      0  
1ABD  1A000080           [118] jmp        1            ; to [120]
1AC1  1E008000           [119] return     0   1      
1AC5  83400001           [120] add        2   2   1  
1AC9  9D810700           [121] getglobal  6   30       ; math
1ACD  8EC14703           [122] gettable   6   6   287  ; -150971781
1AD1  C4014801           [123] mul        7   2   288  ; 0
1AD5  DC01C803           [124] div        7   7   288  ; 0
1AD9  C341C803           [125] add        7   7   289  ; 0
1ADD  A2810001           [126] call       6   2   2  
1AE1  92000003           [127] move       2   6      
1AE5  9D810700           [128] getglobal  6   30       ; math
1AE9  8E814803           [129] gettable   6   6   290  ; -1103876996
1AED  D2010001           [130] move       7   2      
1AF1  19C20800           [131] loadk      8   35       ; 0
1AF5  A2818001           [132] call       6   3   2  
1AF9  92000003           [133] move       2   6      
fail op	33
1AFD  21004901           [134] tforloop   0       292  ; to [136] if exit
1B01  1A000080           [135] jmp        1            ; to [137]
1B05  83808091           [136] add        2   291 2    ; 0
1B09  9D810000           [137] getglobal  6   2        ; mMovie
1B0D  A4414903           [138] self       6   6   293  ; 471456102
1B11  12020000           [139] move       8   0      
1B15  59020300           [140] loadk      9   12       ; "targetRotation"
1B19  92020001           [141] move       10  2      
1B1D  A2418002           [142] call       6   5   1  
1B21  97018000           [143] loadbool   6   1   0    ; true
fail op	8
1B25  88018001           [144] setupval   6   3      
1B29  93010002           [145] getupval   6   4      
1B2D  8C814900           [146] settable   6   0   294  ; 1
1B31  86018003           [147] loadnil    6   7      
1B35  19020700           [148] loadk      8   28       ; 0
1B39  59C20900           [149] loadk      9   39       ; 0
1B3D  99020700           [150] loadk      10  28       ; 0
1B41  10820C80           [151] forprep    8   51       ; to [203]
1B45  12030000           [152] move       12  0      
1B49  59030A00           [153] loadk      13  40       ; ".Line"
1B4D  92038005           [154] move       14  11     
1B51  82810306           [155] concat     6   12  14 
1B55  13038002           [156] getupval   12  5      
1B59  52030000           [157] move       13  0      
1B5D  92038005           [158] move       14  11     
1B61  D2030001           [159] move       15  2      
1B65  22830002           [160] call       12  4   2  
1B69  D2010006           [161] move       7   12     
1B6D  1D830000           [162] getglobal  12  2        ; mMovie
1B71  24C34006           [163] self       12  12  259  ; 1803241227
1B75  92030003           [164] move       14  6      
1B79  D9430A00           [165] loadk      15  41       ; "_visible"
1B7D  22830002           [166] call       12  4   2  
fail op	35
1B81  23804A06           [167] close      0  
1B85  1A000680           [168] jmp        25           ; to [194]
fail op	35
1B89  63C0C303           [169] close      1  
1B8D  1A800380           [170] jmp        15           ; to [186]
1B91  1DC30A00           [171] getglobal  12  43       ; -1939558487
1B95  5D830000           [172] getglobal  13  2        ; mMovie
1B99  92030003           [173] move       14  6      
1B9D  D9030B00           [174] loadk      15  44       ; ".gotoAndStop"
1BA1  82C30307           [175] concat     14  14  15 
1BA5  D9430B00           [176] loadk      15  45       ; "On"
1BA9  22430002           [177] call       12  4   1  
1BAD  1DC30A00           [178] getglobal  12  43       ; -1939558487
1BB1  5D830000           [179] getglobal  13  2        ; mMovie
1BB5  92038003           [180] move       14  7      
1BB9  D9030B00           [181] loadk      15  44       ; ".gotoAndStop"
1BBD  82C30307           [182] concat     14  14  15 
1BC1  D9430B00           [183] loadk      15  45       ; "On"
1BC5  22430002           [184] call       12  4   1  
1BC9  1A000480           [185] jmp        17           ; to [203]
1BCD  1DC30A00           [186] getglobal  12  43       ; -1939558487
1BD1  5D830000           [187] getglobal  13  2        ; mMovie
1BD5  92030003           [188] move       14  6      
1BD9  D9030B00           [189] loadk      15  44       ; ".gotoAndStop"
1BDD  82C30307           [190] concat     14  14  15 
1BE1  D9830B00           [191] loadk      15  46       ; "Off"
1BE5  22430002           [192] call       12  4   1  
1BE9  1A000280           [193] jmp        9            ; to [203]
fail op	35
1BED  63C0C303           [194] close      1  
1BF1  1A800180           [195] jmp        7            ; to [203]
1BF5  1DC30A00           [196] getglobal  12  43       ; -1939558487
1BF9  5D830000           [197] getglobal  13  2        ; mMovie
1BFD  92038003           [198] move       14  7      
1C01  D9030B00           [199] loadk      15  44       ; ".gotoAndStop"
1C05  82C30307           [200] concat     14  14  15 
1C09  D9830B00           [201] loadk      15  46       ; "Off"
1C0D  22430002           [202] call       12  4   1  
1C11  14C2F27F           [203] forloop    8   -52      ; to [152] if loop
1C15  13038000           [204] getupval   12  1      
1C19  0EC34B06           [205] gettable   12  12  303  ; 630793108
1C1D  5D030C00           [206] getglobal  13  48       ; pressSound
1C21  22430001           [207] call       12  2   1  
1C25  1E008000           [208] return     0   1      
                         * constants:
1C29  31                 sizek (49)
1C2A  03                 const type 3
1C2B  00000000           const [0]: (0)
1C2F  04                 const type 4
1C30  01                 string size (0)
                         const [1]: ""
1C32  04                 const type 4
1C33  07                 string size (7)
1C34  6D4D6F76696500     "mMovie\0"
                         const [2]: "mMovie"
1C3B  01                 const type 3
1C3C  0B477B6B           const [3]: (1803241227)
1C40  04                 const type 4
1C41  0A                 string size (10)
1C42  636C69636B61626C+  "clickabl"
1C4A  6500               "e\0"
                         const [4]: "clickable"
1C4C  04                 const type 4
1C4D  06                 string size (6)
1C4E  66616C736500       "false\0"
                         const [5]: "false"
1C54  04                 const type 4
1C55  0D                 string size (13)
1C56  4369706865724275+  "CipherBu"
1C5E  74746F6E00         "tton\0"
                         const [6]: "CipherButton"
1C63  04                 const type 4
1C64  06                 string size (6)
1C65  466F63757300       "Focus\0"
                         const [7]: "Focus"
1C6B  04                 const type 4
1C6C  04                 string size (4)
1C6D  42746E00           "Btn\0"
                         const [8]: "Btn"
1C71  01                 const type 3
1C72  DEAD95F5           const [9]: (-174740002)
1C76  04                 const type 4
1C77  07                 string size (7)
1C78  5F616C70686100     "_alpha\0"
                         const [10]: "_alpha"
1C7F  03                 const type 3
1C80  00004842           const [11]: (0)
1C84  04                 const type 4
1C85  0F                 string size (15)
1C86  746172676574526F+  "targetRo"
1C8E  746174696F6E00     "tation\0"
                         const [12]: "targetRotation"
1C95  04                 const type 4
1C96  04                 string size (4)
1C97  6E696C00           "nil\0"
                         const [13]: "nil"
1C9B  04                 const type 4
1C9C  0A                 string size (10)
1C9D  756E646566696E65+  "undefine"
1CA5  6400               "d\0"
                         const [14]: "undefined"
1CA7  00                 const type 0
                         const [15]: nil
1CA8  01                 const type 3
1CA9  65770E40           const [16]: (1074689893)
1CAD  04                 const type 4
1CAE  08                 string size (8)
1CAF  636C69636B465800   "clickFX\0"
                         const [17]: "clickFX"
1CB7  01                 const type 3
1CB8  44E719AC           const [18]: (-1407588540)
1CBC  04                 const type 4
1CBD  08                 string size (8)
1CBE  67526567696F6E00   "gRegion\0"
                         const [19]: "gRegion"
1CC6  01                 const type 3
1CC7  BFF6E203           const [20]: (65205951)
1CCB  01                 const type 3
1CCC  975A1F7C           const [21]: (2082429591)
1CD0  01                 const type 3
1CD1  29D4002C           const [22]: (738251817)
1CD5  04                 const type 4
1CD6  27                 string size (39)
1CD7  2F4C6F7475732F54+  "/Lotus/T"
1CDF  797065732F416374+  "ypes/Act"
1CE7  696F6E732F52696F+  "ions/Rio"
1CEF  744D6F614861636B+  "tMoaHack"
1CF7  416374696F6E00     "Action\0"
                         const [23]: "/Lotus/Types/Actions/RiotMoaHackAction"
1CFE  01                 const type 3
1CFF  D48E598B           const [24]: (-1957065004)
1D03  01                 const type 3
1D04  F5EA977A           const [25]: (2056776437)
1D08  04                 const type 4
1D09  14                 string size (20)
1D0A  7269676874416464+  "rightAdd"
1D12  6974697665547769+  "itiveTwi"
1D1A  74636800           "tch\0"
                         const [26]: "rightAdditiveTwitch"
1D1E  03                 const type 3
1D1F  00000040           const [27]: (0)
1D23  03                 const type 3
1D24  0000803F           const [28]: (0)
1D28  04                 const type 4
1D29  13                 string size (19)
1D2A  6C65667441646469+  "leftAddi"
1D32  7469766554776974+  "tiveTwit"
1D3A  636800             "ch\0"
                         const [29]: "leftAdditiveTwitch"
1D3D  04                 const type 4
1D3E  05                 string size (5)
1D3F  6D61746800         "math\0"
                         const [30]: "math"
1D44  01                 const type 3
1D45  7B5A00F7           const [31]: (-150971781)
1D49  03                 const type 3
1D4A  00007042           const [32]: (0)
1D4E  03                 const type 3
1D4F  0000003F           const [33]: (0)
1D53  01                 const type 3
1D54  7C2C34BE           const [34]: (-1103876996)
1D58  03                 const type 3
1D59  0000B443           const [35]: (0)
1D5D  03                 const type 3
1D5E  000034C3           const [36]: (0)
1D62  01                 const type 3
1D63  66D9191C           const [37]: (471456102)
1D67  01                 const type 3
1D68  01000000           const [38]: (1)
1D6C  03                 const type 3
1D6D  0000C040           const [39]: (0)
1D71  04                 const type 4
1D72  06                 string size (6)
1D73  2E4C696E6500       ".Line\0"
                         const [40]: ".Line"
1D79  04                 const type 4
1D7A  09                 string size (9)
1D7B  5F76697369626C65+  "_visible"
1D83  00                 "\0"
                         const [41]: "_visible"
1D84  04                 const type 4
1D85  05                 string size (5)
1D86  7472756500         "true\0"
                         const [42]: "true"
1D8B  01                 const type 3
1D8C  A9AF648C           const [43]: (-1939558487)
1D90  04                 const type 4
1D91  0D                 string size (13)
1D92  2E676F746F416E64+  ".gotoAnd"
1D9A  53746F7000         "Stop\0"
                         const [44]: ".gotoAndStop"
1D9F  04                 const type 4
1DA0  03                 string size (3)
1DA1  4F6E00             "On\0"
                         const [45]: "On"
1DA4  04                 const type 4
1DA5  04                 string size (4)
1DA6  4F666600           "Off\0"
                         const [46]: "Off"
1DAA  01                 const type 3
1DAB  94239925           const [47]: (630793108)
1DAF  04                 const type 4
1DB0  0B                 string size (11)
1DB1  7072657373536F75+  "pressSou"
1DB9  6E6400             "nd\0"
                         const [48]: "pressSound"
                         * functions:
1DBC  00                 sizep (0)
                         * lines:
1DBE  01                 sizelineinfo (208)
                         [pc] (line)
1DBF  F6                 [001] (-10)
1DC0  00                 [002] (-10)
1DC1  00                 [003] (-10)
1DC2  00                 [004] (-10)
1DC3  F6                 [005] (-10)
1DC4  00                 [006] (-9)
1DC5  00                 [007] (-6)
1DC6  00                 [008] (-6)
1DC7  F6                 [009] (-6)
1DC8  00                 [010] (-6)
1DC9  00                 [011] (-6)
1DCA  00                 [012] (-6)
1DCB  F6                 [013] (-6)
1DCC  00                 [014] (-5)
1DCD  00                 [015] (-2)
1DCE  00                 [016] (-2)
1DCF  F6                 [017] (-2)
1DD0  00                 [018] (-2)
1DD1  00                 [019] (-2)
1DD2  00                 [020] (-2)
1DD3  F7                 [021] (-1)
1DD4  00                 [022] (2)
1DD5  00                 [023] (2)
1DD6  00                 [024] (2)
1DD7  FA                 [025] (2)
1DD8  00                 [026] (2)
1DD9  00                 [027] (2)
1DDA  00                 [028] (2)
1DDB  FA                 [029] (2)
1DDC  00                 [030] (2)
1DDD  00                 [031] (3)
1DDE  00                 [032] (6)
1DDF  FA                 [033] (6)
1DE0  00                 [034] (6)
1DE1  00                 [035] (6)
1DE2  00                 [036] (6)
1DE3  FA                 [037] (8)
1DE4  00                 [038] (8)
1DE5  00                 [039] (8)
1DE6  00                 [040] (8)
1DE7  FA                 [041] (8)
1DE8  00                 [042] (8)
1DE9  00                 [043] (9)
1DEA  00                 [044] (12)
1DEB  FA                 [045] (12)
1DEC  00                 [046] (12)
1DED  00                 [047] (12)
1DEE  00                 [048] (12)
1DEF  FA                 [049] (13)
1DF0  00                 [050] (13)
1DF1  00                 [051] (13)
1DF2  00                 [052] (13)
1DF3  FB                 [053] (13)
1DF4  00                 [054] (13)
1DF5  00                 [055] (16)
1DF6  00                 [056] (16)
1DF7  FE                 [057] (16)
1DF8  00                 [058] (17)
1DF9  00                 [059] (17)
1DFA  00                 [060] (17)
1DFB  FE                 [061] (18)
1DFC  00                 [062] (18)
1DFD  00                 [063] (18)
1DFE  00                 [064] (19)
1DFF  FE                 [065] (19)
1E00  00                 [066] (19)
1E01  00                 [067] (19)
1E02  00                 [068] (20)
1E03  FE                 [069] (20)
1E04  00                 [070] (21)
1E05  00                 [071] (21)
1E06  00                 [072] (21)
1E07  FE                 [073] (21)
1E08  00                 [074] (21)
1E09  00                 [075] (21)
1E0A  00                 [076] (21)
1E0B  FE                 [077] (21)
1E0C  00                 [078] (21)
1E0D  00                 [079] (21)
1E0E  00                 [080] (22)
1E0F  FF                 [081] (22)
1E10  00                 [082] (22)
1E11  00                 [083] (22)
1E12  00                 [084] (22)
1E13  02                 [085] (22)
1E14  01                 [086] (24)
1E15  00                 [087] (24)
1E16  00                 [088] (24)
1E17  02                 [089] (24)
1E18  01                 [090] (24)
1E19  00                 [091] (25)
1E1A  00                 [092] (27)
1E1B  02                 [093] (27)
1E1C  01                 [094] (27)
1E1D  00                 [095] (27)
1E1E  00                 [096] (27)
1E1F  02                 [097] (27)
1E20  01                 [098] (27)
1E21  00                 [099] (27)
1E22  00                 [100] (27)
1E23  02                 [101] (27)
1E24  01                 [102] (28)
1E25  00                 [103] (28)
1E26  00                 [104] (28)
1E27  02                 [105] (28)
1E28  01                 [106] (28)
1E29  00                 [107] (28)
1E2A  00                 [108] (30)
1E2B  02                 [109] (30)
1E2C  01                 [110] (30)
1E2D  00                 [111] (30)
1E2E  00                 [112] (30)
1E2F  02                 [113] (35)
1E30  01                 [114] (35)
1E31  00                 [115] (35)
1E32  00                 [116] (35)
1E33  02                 [117] (37)
1E34  01                 [118] (37)
1E35  00                 [119] (38)
1E36  00                 [120] (41)
1E37  03                 [121] (42)
1E38  01                 [122] (42)
1E39  00                 [123] (42)
1E3A  00                 [124] (42)
1E3B  06                 [125] (42)
1E3C  01                 [126] (42)
1E3D  00                 [127] (42)
1E3E  00                 [128] (44)
1E3F  06                 [129] (44)
1E40  01                 [130] (44)
1E41  00                 [131] (44)
1E42  00                 [132] (44)
1E43  06                 [133] (44)
1E44  01                 [134] (46)
1E45  00                 [135] (46)
1E46  00                 [136] (47)
1E47  06                 [137] (50)
1E48  01                 [138] (50)
1E49  00                 [139] (50)
1E4A  00                 [140] (50)
1E4B  06                 [141] (50)
1E4C  01                 [142] (50)
1E4D  00                 [143] (52)
1E4E  00                 [144] (52)
1E4F  08                 [145] (53)
1E50  01                 [146] (53)
1E51  00                 [147] (55)
1E52  00                 [148] (57)
1E53  08                 [149] (57)
1E54  01                 [150] (57)
1E55  00                 [151] (57)
1E56  00                 [152] (58)
1E57  08                 [153] (58)
1E58  01                 [154] (58)
1E59  00                 [155] (58)
1E5A  00                 [156] (59)
1E5B  08                 [157] (59)
1E5C  01                 [158] (59)
1E5D  00                 [159] (59)
1E5E  00                 [160] (59)
1E5F  08                 [161] (59)
1E60  01                 [162] (60)
1E61  00                 [163] (60)
1E62  00                 [164] (60)
1E63  08                 [165] (60)
1E64  01                 [166] (60)
1E65  00                 [167] (60)
1E66  00                 [168] (60)
1E67  09                 [169] (61)
1E68  01                 [170] (61)
1E69  00                 [171] (62)
1E6A  00                 [172] (62)
1E6B  0C                 [173] (62)
1E6C  01                 [174] (62)
1E6D  00                 [175] (62)
1E6E  00                 [176] (62)
1E6F  0C                 [177] (62)
1E70  01                 [178] (63)
1E71  00                 [179] (63)
1E72  00                 [180] (63)
1E73  0C                 [181] (63)
1E74  01                 [182] (63)
1E75  00                 [183] (63)
1E76  00                 [184] (63)
1E77  0C                 [185] (63)
1E78  01                 [186] (65)
1E79  00                 [187] (65)
1E7A  00                 [188] (65)
1E7B  0C                 [189] (65)
1E7C  01                 [190] (65)
1E7D  00                 [191] (65)
1E7E  00                 [192] (65)
1E7F  0D                 [193] (66)
1E80  01                 [194] (68)
1E81  00                 [195] (68)
1E82  00                 [196] (69)
1E83  0D                 [197] (69)
1E84  01                 [198] (69)
1E85  00                 [199] (69)
1E86  00                 [200] (69)
1E87  0D                 [201] (69)
1E88  01                 [202] (69)
1E89  00                 [203] (57)
1E8A  00                 [204] (74)
1E8B  0D                 [205] (74)
1E8C  01                 [206] (74)
1E8D  00                 [207] (74)
1E8E  00                 [208] (75)
                         * locals:
20FF  00                 sizelocvars (0)
                         * upvalues:
2100  00                 sizeupvalues (0)
                         ** end of function **

                         
2101                     ** function [11] definition (level 2)
                         ** start of function **
2101  00                 string size (0)
                         source name: (none)
2103  02                 line defined (333)
2104  D3                 last line defined (339)
2105  02                 nups (0)
2106  00                 numparams (2)
2107  02                 is_vararg (0)
2108  00                 maxstacksize (3)
                         * code:
210A  09                 sizecode (9)
210B  8E008000           [1] gettable   2   1   0  
fail op	35
210F  23004001           [2] close      0  
2113  1A400080           [3] jmp        2            ; to [6]
2117  4C404000           [4] settable   1   0   257  ; 0
211B  1A800080           [5] jmp        3            ; to [9]
211F  8E008000           [6] gettable   2   1   0  
2123  83404001           [7] add        2   2   257  ; 0
2127  4C800000           [8] settable   1   0   2  
212B  1E008000           [9] return     0   1      
                         * constants:
212F  02                 sizek (2)
2130  00                 const type 0
                         const [0]: nil
2131  03                 const type 3
2132  0000803F           const [1]: (0)
                         * functions:
2136  00                 sizep (0)
                         * lines:
2137  09                 sizelineinfo (9)
                         [pc] (line)
2138  4E                 [1] (78)
2139  01                 [2] (78)
213A  00                 [3] (78)
213B  00                 [4] (79)
213C  4E                 [5] (79)
213D  01                 [6] (81)
213E  00                 [7] (81)
213F  00                 [8] (81)
2140  4E                 [9] (83)
                         * locals:
215C  00                 sizelocvars (0)
                         * upvalues:
215D  00                 sizeupvalues (0)
                         ** end of function **

                         
215E                     ** function [12] definition (level 2)
                         ** start of function **
215E  00                 string size (0)
                         source name: (none)
2160  02                 line defined (341)
2161  E5                 last line defined (357)
2162  02                 nups (1)
2163  01                 numparams (4)
2164  04                 is_vararg (0)
2165  00                 maxstacksize (12)
                         * code:
2167  28                 sizecode (40)
2168  19010000           [01] loadk      4   0        ; 0
216C  4A010001           [02] len        5   2      
2170  99010000           [03] loadk      6   0        ; 0
2174  10410480           [04] forprep    4   18       ; to [23]
2178  0EC20101           [05] gettable   8   2   7  
217C  0E424004           [06] gettable   8   8   257  ; "a"
fail op	35
2180  23000004           [07] close      0  
2184  1A000180           [08] jmp        5            ; to [14]
2188  0EC20101           [09] gettable   8   2   7  
218C  0E824004           [10] gettable   8   8   258  ; "b"
fail op	35
2190  23400004           [11] close      0  
2194  1A000080           [12] jmp        1            ; to [14]
2198  1E008000           [13] return     0   1      
219C  0EC20101           [14] gettable   8   2   7  
21A0  0E424004           [15] gettable   8   8   257  ; "a"
fail op	35
21A4  23400004           [16] close      0  
21A8  1A000180           [17] jmp        5            ; to [23]
21AC  0EC20101           [18] gettable   8   2   7  
21B0  0E824004           [19] gettable   8   8   258  ; "b"
fail op	35
21B4  23000004           [20] close      0  
21B8  1A000080           [21] jmp        1            ; to [23]
21BC  1E008000           [22] return     0   1      
21C0  1401FB7F           [23] forloop    4   -19      ; to [5] if loop
21C4  0B820000           [24] newtable   8   0   2    ; array=0, hash=2
21C8  0C028080           [25] settable   8   257 0    ; "a"
21CC  0C420081           [26] settable   8   258 1    ; "b"
21D0  5DC20000           [27] getglobal  9   3        ; table
21D4  4E02C104           [28] gettable   9   9   260  ; -431682403
21D8  92020001           [29] move       10  2      
21DC  D2020004           [30] move       11  8      
21E0  62428001           [31] call       9   3   1  
21E4  53020000           [32] getupval   9   0      
21E8  92020000           [33] move       10  0      
21EC  D2028001           [34] move       11  3      
21F0  62428001           [35] call       9   3   1  
21F4  53020000           [36] getupval   9   0      
21F8  92028000           [37] move       10  1      
21FC  D2028001           [38] move       11  3      
2200  62428001           [39] call       9   3   1  
2204  1E008000           [40] return     0   1      
                         * constants:
2208  05                 sizek (5)
2209  03                 const type 3
220A  0000803F           const [0]: (0)
220E  04                 const type 4
220F  02                 string size (2)
2210  6100               "a\0"
                         const [1]: "a"
2212  04                 const type 4
2213  02                 string size (2)
2214  6200               "b\0"
                         const [2]: "b"
2216  04                 const type 4
2217  06                 string size (6)
2218  7461626C6500       "table\0"
                         const [3]: "table"
221E  01                 const type 3
221F  9D0C45E6           const [4]: (-431682403)
                         * functions:
2223  00                 sizep (0)
                         * lines:
2224  28                 sizelineinfo (40)
                         [pc] (line)
2225  56                 [01] (86)
2226  01                 [02] (86)
2227  00                 [03] (86)
2228  00                 [04] (86)
2229  56                 [05] (88)
222A  01                 [06] (88)
222B  00                 [07] (88)
222C  00                 [08] (88)
222D  56                 [09] (88)
222E  01                 [10] (88)
222F  00                 [11] (88)
2230  00                 [12] (88)
2231  56                 [13] (89)
2232  01                 [14] (92)
2233  00                 [15] (92)
2234  00                 [16] (92)
2235  58                 [17] (92)
2236  01                 [18] (92)
2237  00                 [19] (92)
2238  00                 [20] (92)
2239  58                 [21] (92)
223A  01                 [22] (93)
223B  00                 [23] (86)
223C  00                 [24] (97)
223D  58                 [25] (97)
223E  01                 [26] (97)
223F  00                 [27] (98)
2240  00                 [28] (98)
2241  58                 [29] (98)
2242  01                 [30] (98)
2243  00                 [31] (98)
2244  00                 [32] (99)
2245  58                 [33] (99)
2246  01                 [34] (99)
2247  00                 [35] (99)
2248  00                 [36] (100)
2249  58                 [37] (100)
224A  01                 [38] (100)
224B  00                 [39] (100)
224C  00                 [40] (101)
                         * locals:
22C5  00                 sizelocvars (0)
                         * upvalues:
22C6  00                 sizeupvalues (0)
                         ** end of function **

                         
22C7                     ** function [13] definition (level 2)
                         ** start of function **
22C7  00                 string size (0)
                         source name: (none)
22C9  02                 line defined (359)
22CA  FE                 last line defined (382)
22CB  02                 nups (2)
22CC  02                 numparams (3)
22CD  03                 is_vararg (0)
22CE  00                 maxstacksize (21)
                         * code:
22D0  40                 sizecode (64)
22D1  DD000000           [01] getglobal  3   0        ; mMovie
22D5  E440C001           [02] self       3   3   257  ; 471456102
22D9  52010000           [03] move       5   0      
22DD  99810000           [04] loadk      6   2        ; "_rotation"
22E1  D9C10000           [05] loadk      7   3        ; 0
22E5  E2408002           [06] call       3   5   1  
22E9  D9000100           [07] loadk      3   4        ; 0
22ED  1D410100           [08] getglobal  4   5        ; -174740002
22F1  5D010000           [09] getglobal  5   0        ; mMovie
22F5  6481C102           [10] self       5   5   262  ; 1803241227
22F9  D2010000           [11] move       7   0      
22FD  19C20100           [12] loadk      8   7        ; "_x"
2301  62010002           [13] call       5   4   0  
2305  22810000           [14] call       4   0   2  
2309  5D410100           [15] getglobal  5   5        ; -174740002
230D  9D010000           [16] getglobal  6   0        ; mMovie
2311  A4814103           [17] self       6   6   262  ; 1803241227
2315  12020000           [18] move       8   0      
2319  59020200           [19] loadk      9   8        ; "_y"
231D  A2010002           [20] call       6   4   0  
2321  62810000           [21] call       5   0   2  
2325  99410200           [22] loadk      6   9        ; 0
2329  D3010000           [23] getupval   7   0      
232D  CA018003           [24] len        7   7      
2331  19420200           [25] loadk      8   9        ; 0
2335  90C10880           [26] forprep    6   36       ; to [63]
2339  93020000           [27] getupval   10  0      
233D  8E420205           [28] gettable   10  10  9  
fail op	35
2341  63000005           [29] close      1  
2345  1AC00780           [30] jmp        32           ; to [63]
2349  93020000           [31] getupval   10  0      
234D  8E420205           [32] gettable   10  10  9  
2351  DD420100           [33] getglobal  11  5        ; -174740002
2355  1D030000           [34] getglobal  12  0        ; mMovie
2359  24834106           [35] self       12  12  262  ; 1803241227
235D  92030005           [36] move       14  10     
2361  D9C30100           [37] loadk      15  7        ; "_x"
2365  22030002           [38] call       12  4   0  
2369  E2820000           [39] call       11  0   2  
236D  1D430100           [40] getglobal  12  5        ; -174740002
2371  5D030000           [41] getglobal  13  0        ; mMovie
2375  6483C106           [42] self       13  13  262  ; 1803241227
2379  D2030005           [43] move       15  10     
237D  19040200           [44] loadk      16  8        ; "_y"
2381  62030002           [45] call       13  4   0  
2385  22830000           [46] call       12  0   2  
2389  4D038105           [47] sub        13  11  4  
238D  8D430106           [48] sub        14  12  5  
2391  DD830200           [49] getglobal  15  10       ; math
2395  CEC3C207           [50] gettable   15  15  267  ; 786779368
2399  04448306           [51] mul        16  13  13 
239D  44840307           [52] mul        17  14  14 
23A1  03440408           [53] add        16  16  17 
23A5  E2830001           [54] call       15  2   2  
fail op	21
23A9  15C08007           [55] concat     0   15  3  
23AD  1A400180           [56] jmp        6            ; to [63]
23B1  13048000           [57] getupval   16  1      
23B5  52040000           [58] move       17  0      
23B9  92040005           [59] move       18  10     
23BD  D2048000           [60] move       19  1      
23C1  12050001           [61] move       20  2      
23C5  22448002           [62] call       16  5   1  
23C9  9481F67F           [63] forloop    6   -37      ; to [27] if loop
23CD  1E008000           [64] return     0   1      
                         * constants:
23D1  0C                 sizek (12)
23D2  04                 const type 4
23D3  07                 string size (7)
23D4  6D4D6F76696500     "mMovie\0"
                         const [0]: "mMovie"
23DB  01                 const type 3
23DC  66D9191C           const [1]: (471456102)
23E0  04                 const type 4
23E1  0A                 string size (10)
23E2  5F726F746174696F+  "_rotatio"
23EA  6E00               "n\0"
                         const [2]: "_rotation"
23EC  03                 const type 3
23ED  00000000           const [3]: (0)
23F1  03                 const type 3
23F2  00009643           const [4]: (0)
23F6  01                 const type 3
23F7  DEAD95F5           const [5]: (-174740002)
23FB  01                 const type 3
23FC  0B477B6B           const [6]: (1803241227)
2400  04                 const type 4
2401  03                 string size (3)
2402  5F7800             "_x\0"
                         const [7]: "_x"
2405  04                 const type 4
2406  03                 string size (3)
2407  5F7900             "_y\0"
                         const [8]: "_y"
240A  03                 const type 3
240B  0000803F           const [9]: (0)
240F  04                 const type 4
2410  05                 string size (5)
2411  6D61746800         "math\0"
                         const [10]: "math"
2416  01                 const type 3
2417  E84CE52E           const [11]: (786779368)
                         * functions:
241B  00                 sizep (0)
                         * lines:
241C  40                 sizelineinfo (64)
                         [pc] (line)
241D  68                 [01] (104)
241E  01                 [02] (104)
241F  00                 [03] (104)
2420  00                 [04] (104)
2421  68                 [05] (104)
2422  01                 [06] (104)
2423  00                 [07] (105)
2424  00                 [08] (107)
2425  68                 [09] (107)
2426  01                 [10] (107)
2427  00                 [11] (107)
2428  00                 [12] (107)
2429  68                 [13] (107)
242A  01                 [14] (107)
242B  00                 [15] (108)
242C  00                 [16] (108)
242D  68                 [17] (108)
242E  01                 [18] (108)
242F  00                 [19] (108)
2430  00                 [20] (108)
2431  68                 [21] (108)
2432  01                 [22] (110)
2433  00                 [23] (110)
2434  00                 [24] (110)
2435  69                 [25] (110)
2436  01                 [26] (110)
2437  00                 [27] (111)
2438  00                 [28] (111)
2439  6B                 [29] (111)
243A  01                 [30] (111)
243B  00                 [31] (112)
243C  00                 [32] (112)
243D  6B                 [33] (114)
243E  01                 [34] (114)
243F  00                 [35] (114)
2440  00                 [36] (114)
2441  6B                 [37] (114)
2442  01                 [38] (114)
2443  00                 [39] (114)
2444  00                 [40] (115)
2445  6B                 [41] (115)
2446  01                 [42] (115)
2447  00                 [43] (115)
2448  00                 [44] (115)
2449  6B                 [45] (115)
244A  01                 [46] (115)
244B  00                 [47] (117)
244C  00                 [48] (118)
244D  6B                 [49] (120)
244E  01                 [50] (120)
244F  00                 [51] (120)
2450  00                 [52] (120)
2451  6B                 [53] (120)
2452  01                 [54] (120)
2453  00                 [55] (121)
2454  00                 [56] (121)
2455  6C                 [57] (122)
2456  01                 [58] (122)
2457  00                 [59] (122)
2458  00                 [60] (122)
2459  6C                 [61] (122)
245A  01                 [62] (122)
245B  00                 [63] (110)
245C  00                 [64] (126)
                         * locals:
251D  00                 sizelocvars (0)
                         * upvalues:
251E  00                 sizeupvalues (0)
                         ** end of function **

                         
251F                     ** function [14] definition (level 2)
                         ** start of function **
251F  00                 string size (0)
                         source name: (none)
2521  03                 line defined (384)
2522  9A                 last line defined (410)
2523  03                 nups (0)
2524  00                 numparams (2)
2525  02                 is_vararg (0)
2526  00                 maxstacksize (21)
                         * code:
2528  53                 sizecode (83)
2529  9D000000           [01] getglobal  2   0        ; -174740002
252D  DD400000           [02] getglobal  3   1        ; mMovie
2531  E480C001           [03] self       3   3   258  ; 1803241227
2535  52010000           [04] move       5   0      
2539  99C10000           [05] loadk      6   3        ; "_x"
253D  E2000002           [06] call       3   4   0  
2541  A2800000           [07] call       2   0   2  
2545  DD000000           [08] getglobal  3   0        ; -174740002
2549  1D410000           [09] getglobal  4   1        ; mMovie
254D  24814002           [10] self       4   4   258  ; 1803241227
2551  92010000           [11] move       6   0      
2555  D9010100           [12] loadk      7   4        ; "_y"
2559  22010002           [13] call       4   4   0  
255D  E2800000           [14] call       3   0   2  
2561  1D010000           [15] getglobal  4   0        ; -174740002
2565  5D410000           [16] getglobal  5   1        ; mMovie
2569  6481C002           [17] self       5   5   258  ; 1803241227
256D  D2018000           [18] move       7   1      
2571  19C20000           [19] loadk      8   3        ; "_x"
2575  62010002           [20] call       5   4   0  
2579  22810000           [21] call       4   0   2  
257D  5D010000           [22] getglobal  5   0        ; -174740002
2581  9D410000           [23] getglobal  6   1        ; mMovie
2585  A4814003           [24] self       6   6   258  ; 1803241227
2589  12028000           [25] move       8   1      
258D  59020100           [26] loadk      9   4        ; "_y"
2591  A2010002           [27] call       6   4   0  
2595  62810000           [28] call       5   0   2  
2599  8D810002           [29] sub        6   4   2  
259D  84414103           [30] mul        6   6   261  ; 0
25A1  CDC18002           [31] sub        7   5   3  
25A5  C441C103           [32] mul        7   7   261  ; 0
25A9  1D820100           [33] getglobal  8   6        ; math
25AD  0EC24104           [34] gettable   8   8   263  ; 131206581
25B1  5D820100           [35] getglobal  9   6        ; math
25B5  4E02C204           [36] gettable   9   9   264  ; 1063477592
25B9  92020003           [37] move       10  6      
fail op	0
25BD  C0028003           [38] move       11  7      
25C1  62028001           [39] call       9   3   0  
25C5  22820000           [40] call       8   0   2  
fail op	21
25C9  15404204           [41] concat     0   8   265
25CD  1A000080           [42] jmp        1            ; to [44]
25D1  03824204           [43] add        8   8   266  ; 0
25D5  4B020003           [44] newtable   9   6   0    ; array=6, hash=0
25D9  99C20200           [45] loadk      10  11       ; 0
25DD  D9020300           [46] loadk      11  12       ; 0
25E1  19430300           [47] loadk      12  13       ; 0
25E5  59830300           [48] loadk      13  14       ; 0
25E9  99C30300           [49] loadk      14  15       ; 0
25ED  D9030400           [50] loadk      15  16       ; 0
25F1  5B420003           [51] setlist    9   6   1    ; index 1 to 6
25F5  99420400           [52] loadk      10  17       ; 0
25F9  CA028004           [53] len        11  9      
25FD  19430400           [54] loadk      12  17       ; 0
2601  90420680           [55] forprep    10  26       ; to [82]
2605  9D830100           [56] getglobal  14  6        ; math
2609  8E834407           [57] gettable   14  14  274  ; -113279800
260D  CE438304           [58] gettable   15  9   13 
2611  CD038207           [59] sub        15  15  8  
2615  A2830001           [60] call       14  2   2  
fail op	21
2619  15C04407           [61] concat     0   14  275
261D  1A800480           [62] jmp        19           ; to [82]
2621  DD430000           [63] getglobal  15  1        ; mMovie
2625  E403C507           [64] self       15  15  276  ; 471456102
2629  52040000           [65] move       17  0      
262D  99440500           [66] loadk      18  21       ; ".Line"
2631  D2048006           [67] move       19  13     
2635  42C48408           [68] concat     17  17  19 
2639  99840500           [69] loadk      18  22       ; "_visible"
263D  D7048000           [70] loadbool   19  1   0    ; true
2641  E2438002           [71] call       15  5   1  
2645  DDC30500           [72] getglobal  15  23       ; -1939558487
2649  1D440000           [73] getglobal  16  1        ; mMovie
264D  52040000           [74] move       17  0      
2651  99440500           [75] loadk      18  21       ; ".Line"
2655  D2048006           [76] move       19  13     
2659  19050600           [77] loadk      20  24       ; ".gotoAndStop"
265D  42048508           [78] concat     17  17  20 
2661  99440600           [79] loadk      18  25       ; "Off"
2665  E2430002           [80] call       15  4   1  
2669  1E008000           [81] return     0   1      
266D  9402F97F           [82] forloop    10  -27      ; to [56] if loop
2671  1E008000           [83] return     0   1      
                         * constants:
2675  1A                 sizek (26)
2676  01                 const type 3
2677  DEAD95F5           const [0]: (-174740002)
267B  04                 const type 4
267C  07                 string size (7)
267D  6D4D6F76696500     "mMovie\0"
                         const [1]: "mMovie"
2684  01                 const type 3
2685  0B477B6B           const [2]: (1803241227)
2689  04                 const type 4
268A  03                 string size (3)
268B  5F7800             "_x\0"
                         const [3]: "_x"
268E  04                 const type 4
268F  03                 string size (3)
2690  5F7900             "_y\0"
                         const [4]: "_y"
2693  03                 const type 3
2694  0000003F           const [5]: (0)
2698  04                 const type 4
2699  05                 string size (5)
269A  6D61746800         "math\0"
                         const [6]: "math"
269F  01                 const type 3
26A0  B50DD207           const [7]: (131206581)
26A4  01                 const type 3
26A5  5861633F           const [8]: (1063477592)
26A9  03                 const type 3
26AA  0000A042           const [9]: (0)
26AE  03                 const type 3
26AF  0000B443           const [10]: (0)
26B3  03                 const type 3
26B4  0000B442           const [11]: (0)
26B8  03                 const type 3
26B9  00001643           const [12]: (0)
26BD  03                 const type 3
26BE  00005243           const [13]: (0)
26C2  03                 const type 3
26C3  00008743           const [14]: (0)
26C7  03                 const type 3
26C8  0000A543           const [15]: (0)
26CC  03                 const type 3
26CD  0000C343           const [16]: (0)
26D1  03                 const type 3
26D2  0000803F           const [17]: (0)
26D6  01                 const type 3
26D7  C87C3FF9           const [18]: (-113279800)
26DB  03                 const type 3
26DC  00002041           const [19]: (0)
26E0  01                 const type 3
26E1  66D9191C           const [20]: (471456102)
26E5  04                 const type 4
26E6  06                 string size (6)
26E7  2E4C696E6500       ".Line\0"
                         const [21]: ".Line"
26ED  04                 const type 4
26EE  09                 string size (9)
26EF  5F76697369626C65+  "_visible"
26F7  00                 "\0"
                         const [22]: "_visible"
26F8  01                 const type 3
26F9  A9AF648C           const [23]: (-1939558487)
26FD  04                 const type 4
26FE  0D                 string size (13)
26FF  2E676F746F416E64+  ".gotoAnd"
2707  53746F7000         "Stop\0"
                         const [24]: ".gotoAndStop"
270C  04                 const type 4
270D  04                 string size (4)
270E  4F666600           "Off\0"
                         const [25]: "Off"
                         * functions:
2712  00                 sizep (0)
                         * lines:
2713  53                 sizelineinfo (83)
                         [pc] (line)
2714  81                 [01] (-127)
2715  01                 [02] (-127)
2716  00                 [03] (-127)
2717  00                 [04] (-127)
2718  81                 [05] (-127)
2719  01                 [06] (-127)
271A  00                 [07] (-127)
271B  00                 [08] (-126)
271C  81                 [09] (-126)
271D  01                 [10] (-126)
271E  00                 [11] (-126)
271F  00                 [12] (-126)
2720  81                 [13] (-126)
2721  01                 [14] (-126)
2722  00                 [15] (-125)
2723  00                 [16] (-125)
2724  81                 [17] (-125)
2725  01                 [18] (-125)
2726  00                 [19] (-125)
2727  00                 [20] (-125)
2728  81                 [21] (-125)
2729  01                 [22] (-124)
272A  00                 [23] (-124)
272B  00                 [24] (-124)
272C  81                 [25] (-124)
272D  01                 [26] (-124)
272E  00                 [27] (-124)
272F  00                 [28] (-124)
2730  82                 [29] (-123)
2731  01                 [30] (-123)
2732  00                 [31] (-122)
2733  00                 [32] (-122)
2734  82                 [33] (-120)
2735  01                 [34] (-120)
2736  00                 [35] (-120)
2737  00                 [36] (-120)
2738  82                 [37] (-120)
2739  01                 [38] (-120)
273A  00                 [39] (-120)
273B  00                 [40] (-120)
273C  82                 [41] (-119)
273D  01                 [42] (-119)
273E  00                 [43] (-118)
273F  00                 [44] (-113)
2740  82                 [45] (-113)
2741  01                 [46] (-113)
2742  00                 [47] (-113)
2743  00                 [48] (-113)
2744  82                 [49] (-113)
2745  01                 [50] (-113)
2746  00                 [51] (-113)
2747  00                 [52] (-111)
2748  82                 [53] (-111)
2749  01                 [54] (-111)
274A  00                 [55] (-111)
274B  00                 [56] (-110)
274C  83                 [57] (-110)
274D  01                 [58] (-110)
274E  00                 [59] (-110)
274F  00                 [60] (-110)
2750  83                 [61] (-108)
2751  01                 [62] (-108)
2752  00                 [63] (-107)
2753  00                 [64] (-107)
2754  83                 [65] (-107)
2755  01                 [66] (-107)
2756  00                 [67] (-107)
2757  00                 [68] (-107)
2758  83                 [69] (-107)
2759  01                 [70] (-107)
275A  00                 [71] (-107)
275B  00                 [72] (-106)
275C  83                 [73] (-106)
275D  01                 [74] (-106)
275E  00                 [75] (-106)
275F  00                 [76] (-106)
2760  83                 [77] (-106)
2761  01                 [78] (-106)
2762  00                 [79] (-106)
2763  00                 [80] (-106)
2764  83                 [81] (-105)
2765  01                 [82] (-111)
2766  00                 [83] (-102)
                         * locals:
2860  00                 sizelocvars (0)
                         * upvalues:
2861  00                 sizeupvalues (0)
                         ** end of function **

                         
2862                     ** function [15] definition (level 2)
                         ** start of function **
2862  00                 string size (0)
                         source name: (none)
2864  03                 line defined (412)
2865  A1                 last line defined (417)
2866  03                 nups (1)
2867  01                 numparams (1)
2868  01                 is_vararg (0)
2869  00                 maxstacksize (8)
                         * code:
286B  12                 sizecode (18)
286C  59000000           [01] loadk      1   0        ; 0
2870  8A000000           [02] len        2   0      
2874  D9000000           [03] loadk      3   0        ; 0
2878  50C00280           [04] forprep    1   12       ; to [17]
287C  53010000           [05] getupval   5   0      
2880  8E010100           [06] gettable   6   0   4  
2884  8E414003           [07] gettable   6   6   257  ; "a"
2888  CE010100           [08] gettable   7   0   4  
288C  CE81C003           [09] gettable   7   7   258  ; "b"
2890  62418001           [10] call       5   3   1  
2894  53010000           [11] getupval   5   0      
2898  8E010100           [12] gettable   6   0   4  
289C  8E814003           [13] gettable   6   6   258  ; "b"
28A0  CE010100           [14] gettable   7   0   4  
28A4  CE41C003           [15] gettable   7   7   257  ; "a"
28A8  62418001           [16] call       5   3   1  
28AC  5480FC7F           [17] forloop    1   -13      ; to [5] if loop
28B0  1E008000           [18] return     0   1      
                         * constants:
28B4  03                 sizek (3)
28B5  03                 const type 3
28B6  0000803F           const [0]: (0)
28BA  04                 const type 4
28BB  02                 string size (2)
28BC  6100               "a\0"
                         const [1]: "a"
28BE  04                 const type 4
28BF  02                 string size (2)
28C0  6200               "b\0"
                         const [2]: "b"
                         * functions:
28C2  00                 sizep (0)
                         * lines:
28C3  12                 sizelineinfo (18)
                         [pc] (line)
28C4  9D                 [01] (-99)
28C5  01                 [02] (-99)
28C6  00                 [03] (-99)
28C7  00                 [04] (-99)
28C8  9D                 [05] (-98)
28C9  01                 [06] (-98)
28CA  00                 [07] (-98)
28CB  00                 [08] (-98)
28CC  9D                 [09] (-98)
28CD  01                 [10] (-98)
28CE  00                 [11] (-97)
28CF  00                 [12] (-97)
28D0  9D                 [13] (-97)
28D1  01                 [14] (-97)
28D2  00                 [15] (-97)
28D3  00                 [16] (-97)
28D4  9E                 [17] (-99)
28D5  01                 [18] (-95)
                         * locals:
290C  00                 sizelocvars (0)
                         * upvalues:
290D  00                 sizeupvalues (0)
                         ** end of function **

                         
290E                     ** function [16] definition (level 2)
                         ** start of function **
290E  00                 string size (0)
                         source name: (none)
2910  03                 line defined (421)
2911  B9                 last line defined (441)
2912  03                 nups (6)
2913  06                 numparams (3)
2914  03                 is_vararg (0)
2915  00                 maxstacksize (7)
                         * code:
2917  24                 sizecode (36)
2918  D3000000           [01] getupval   3   0      
291C  1D010000           [02] getglobal  4   0        ; Engine
2920  0E414002           [03] gettable   4   4   257  ; -1802437008
2924  22818000           [04] call       4   1   2  
2928  18410000           [05] test       4       1    ; to [7] if false
292C  1A800080           [06] jmp        3            ; to [10]
2930  13018000           [07] getupval   4   1      
2934  18010000           [08] test       4       0    ; to [10] if true
2938  1A000080           [09] jmp        1            ; to [11]
293C  1E008000           [10] return     0   1      
fail op	35
2940  2380C000           [11] close      0  
2944  1A400180           [12] jmp        6            ; to [19]
fail op	35
2948  23C04001           [13] close      0  
294C  1AC00080           [14] jmp        4            ; to [19]
2950  13010001           [15] getupval   4   2      
2954  52018001           [16] move       5   3      
2958  99010100           [17] loadk      6   4        ; 0
295C  22418001           [18] call       4   3   1  
fail op	35
2960  2340C100           [19] close      0  
2964  1A400180           [20] jmp        6            ; to [27]
fail op	35
2968  23C04001           [21] close      0  
296C  1AC00080           [22] jmp        4            ; to [27]
2970  13010001           [23] getupval   4   2      
2974  52018001           [24] move       5   3      
2978  99810100           [25] loadk      6   6        ; 0
297C  22418001           [26] call       4   3   1  
2980  13018001           [27] getupval   4   3      
2984  18010000           [28] test       4       0    ; to [30] if true
2988  1A400180           [29] jmp        6            ; to [36]
fail op	35
298C  23C0C100           [30] close      0  
2990  1AC00080           [31] jmp        4            ; to [36]
2994  19010200           [32] loadk      4   8        ; -51
fail op	8
2998  08010002           [33] setupval   4   4      
299C  17018000           [34] loadbool   4   1   0    ; true
fail op	8
29A0  08018002           [35] setupval   4   5      
29A4  1E008000           [36] return     0   1      
                         * constants:
29A8  09                 sizek (9)
29A9  04                 const type 4
29AA  07                 string size (7)
29AB  456E67696E6500     "Engine\0"
                         const [0]: "Engine"
29B2  01                 const type 3
29B3  70FE9094           const [1]: (-1802437008)
29B7  04                 const type 4
29B8  0C                 string size (12)
29B9  454E5F4D4F555345+  "EN_MOUSE"
29C1  5F423000           "_B0\0"
                         const [2]: "EN_MOUSE_B0"
29C5  04                 const type 4
29C6  02                 string size (2)
29C7  3100               "1\0"
                         const [3]: "1"
29C9  03                 const type 3
29CA  00007042           const [4]: (0)
29CE  04                 const type 4
29CF  0C                 string size (12)
29D0  454E5F4D4F555345+  "EN_MOUSE"
29D8  5F423100           "_B1\0"
                         const [5]: "EN_MOUSE_B1"
29DC  03                 const type 3
29DD  000070C2           const [6]: (0)
29E1  04                 const type 4
29E2  09                 string size (9)
29E3  454E5F454E544552+  "EN_ENTER"
29EB  00                 "\0"
                         const [7]: "EN_ENTER"
29EC  03                 const type 3
29ED  CDCCCC3D           const [8]: (-51)
                         * functions:
29F1  00                 sizep (0)
                         * lines:
29F2  24                 sizelineinfo (36)
                         [pc] (line)
29F3  A6                 [01] (-90)
29F4  01                 [02] (-88)
29F5  00                 [03] (-88)
29F6  00                 [04] (-88)
29F7  A8                 [05] (-88)
29F8  01                 [06] (-88)
29F9  00                 [07] (-88)
29FA  00                 [08] (-88)
29FB  A8                 [09] (-88)
29FC  01                 [10] (-87)
29FD  00                 [11] (-85)
29FE  00                 [12] (-85)
29FF  A8                 [13] (-84)
2A00  01                 [14] (-84)
2A01  00                 [15] (-83)
2A02  00                 [16] (-83)
2A03  A8                 [17] (-83)
2A04  01                 [18] (-83)
2A05  00                 [19] (-80)
2A06  00                 [20] (-80)
2A07  A8                 [21] (-79)
2A08  01                 [22] (-79)
2A09  00                 [23] (-78)
2A0A  00                 [24] (-78)
2A0B  A8                 [25] (-78)
2A0C  01                 [26] (-78)
2A0D  00                 [27] (-75)
2A0E  00                 [28] (-75)
2A0F  A8                 [29] (-75)
2A10  01                 [30] (-75)
2A11  00                 [31] (-75)
2A12  00                 [32] (-74)
2A13  A8                 [33] (-74)
2A14  01                 [34] (-73)
2A15  00                 [35] (-73)
2A16  00                 [36] (-71)
                         * locals:
2A83  00                 sizelocvars (0)
                         * upvalues:
2A84  00                 sizeupvalues (0)
                         ** end of function **

                         
2A85                     ** function [17] definition (level 2)
                         ** start of function **
2A85  00                 string size (0)
                         source name: (none)
2A87  03                 line defined (443)
2A88  C0                 last line defined (448)
2A89  03                 nups (2)
2A8A  02                 numparams (1)
2A8B  01                 is_vararg (0)
2A8C  00                 maxstacksize (5)
                         * code:
2A8E  0C                 sizecode (12)
2A8F  53000000           [01] getupval   1   0      
fail op	21
2A93  15400080           [02] concat     0   256 1  
2A97  1AC00180           [03] jmp        8            ; to [12]
fail op	8
2A9B  08008000           [04] setupval   0   1      
2A9F  5D400000           [05] getglobal  1   1        ; -1939558487
2AA3  9D800000           [06] getglobal  2   2        ; mMovie
2AA7  D2000000           [07] move       3   0      
2AAB  19C10000           [08] loadk      4   3        ; ".Bg.gotoAndStop"
2AAF  C2008101           [09] concat     3   3   4  
2AB3  19010100           [10] loadk      4   4        ; "Selected"
2AB7  62400002           [11] call       1   4   1  
2ABB  1E008000           [12] return     0   1      
                         * constants:
2ABF  05                 sizek (5)
2AC0  03                 const type 3
2AC1  00000000           const [0]: (0)
2AC5  01                 const type 3
2AC6  A9AF648C           const [1]: (-1939558487)
2ACA  04                 const type 4
2ACB  07                 string size (7)
2ACC  6D4D6F76696500     "mMovie\0"
                         const [2]: "mMovie"
2AD3  04                 const type 4
2AD4  10                 string size (16)
2AD5  2E42672E676F746F+  ".Bg.goto"
2ADD  416E6453746F7000   "AndStop\0"
                         const [3]: ".Bg.gotoAndStop"
2AE5  04                 const type 4
2AE6  09                 string size (9)
2AE7  53656C6563746564+  "Selected"
2AEF  00                 "\0"
                         const [4]: "Selected"
                         * functions:
2AF0  00                 sizep (0)
                         * lines:
2AF1  0C                 sizelineinfo (12)
                         [pc] (line)
2AF2  BC                 [01] (-68)
2AF3  01                 [02] (-68)
2AF4  00                 [03] (-68)
2AF5  00                 [04] (-67)
2AF6  BC                 [05] (-66)
2AF7  01                 [06] (-66)
2AF8  00                 [07] (-66)
2AF9  00                 [08] (-66)
2AFA  BC                 [09] (-66)
2AFB  01                 [10] (-66)
2AFC  00                 [11] (-66)
2AFD  00                 [12] (-64)
                         * locals:
2B22  00                 sizelocvars (0)
                         * upvalues:
2B23  00                 sizeupvalues (0)
                         ** end of function **

                         
2B24                     ** function [18] definition (level 2)
                         ** start of function **
2B24  00                 string size (0)
                         source name: (none)
2B26  03                 line defined (450)
2B27  C6                 last line defined (454)
2B28  03                 nups (1)
2B29  01                 numparams (1)
2B2A  01                 is_vararg (0)
2B2B  00                 maxstacksize (3)
                         * code:
2B2D  09                 sizecode (9)
2B2E  5D000000           [1] getglobal  1   0        ; Engine
2B32  4E40C000           [2] gettable   1   1   257  ; -1802437008
2B36  62808000           [3] call       1   1   2  
2B3A  58400000           [4] test       1       1    ; to [6] if false
2B3E  1A800080           [5] jmp        3            ; to [9]
2B42  53000000           [6] getupval   1   0      
2B46  92000000           [7] move       2   0      
2B4A  62400001           [8] call       1   2   1  
2B4E  1E008000           [9] return     0   1      
                         * constants:
2B52  02                 sizek (2)
2B53  04                 const type 4
2B54  07                 string size (7)
2B55  456E67696E6500     "Engine\0"
                         const [0]: "Engine"
2B5C  01                 const type 3
2B5D  70FE9094           const [1]: (-1802437008)
                         * functions:
2B61  00                 sizep (0)
                         * lines:
2B62  09                 sizelineinfo (9)
                         [pc] (line)
2B63  C3                 [1] (-61)
2B64  01                 [2] (-61)
2B65  00                 [3] (-61)
2B66  00                 [4] (-61)
2B67  C3                 [5] (-61)
2B68  01                 [6] (-60)
2B69  00                 [7] (-60)
2B6A  00                 [8] (-60)
2B6B  C3                 [9] (-58)
                         * locals:
2B87  00                 sizelocvars (0)
                         * upvalues:
2B88  00                 sizeupvalues (0)
                         ** end of function **

                         
2B89                     ** function [19] definition (level 2)
                         ** start of function **
2B89  00                 string size (0)
                         source name: (none)
2B8B  03                 line defined (456)
2B8C  CD                 last line defined (461)
2B8D  03                 nups (2)
2B8E  02                 numparams (1)
2B8F  01                 is_vararg (0)
2B90  00                 maxstacksize (5)
                         * code:
2B92  0D                 sizecode (13)
2B93  53000000           [01] getupval   1   0      
fail op	21
2B97  15400080           [02] concat     0   256 1  
2B9B  1A000280           [03] jmp        9            ; to [13]
2B9F  5D400000           [04] getglobal  1   1        ; -1939558487
2BA3  9D800000           [05] getglobal  2   2        ; mMovie
2BA7  D2000000           [06] move       3   0      
2BAB  19C10000           [07] loadk      4   3        ; ".Bg.gotoAndStop"
2BAF  C2008101           [08] concat     3   3   4  
2BB3  19010100           [09] loadk      4   4        ; "Active"
2BB7  62400002           [10] call       1   4   1  
2BBB  46008000           [11] loadnil    1   1      
fail op	8
2BBF  48008000           [12] setupval   1   1      
2BC3  1E008000           [13] return     0   1      
                         * constants:
2BC7  05                 sizek (5)
2BC8  03                 const type 3
2BC9  00000000           const [0]: (0)
2BCD  01                 const type 3
2BCE  A9AF648C           const [1]: (-1939558487)
2BD2  04                 const type 4
2BD3  07                 string size (7)
2BD4  6D4D6F76696500     "mMovie\0"
                         const [2]: "mMovie"
2BDB  04                 const type 4
2BDC  10                 string size (16)
2BDD  2E42672E676F746F+  ".Bg.goto"
2BE5  416E6453746F7000   "AndStop\0"
                         const [3]: ".Bg.gotoAndStop"
2BED  04                 const type 4
2BEE  07                 string size (7)
2BEF  41637469766500     "Active\0"
                         const [4]: "Active"
                         * functions:
2BF6  00                 sizep (0)
                         * lines:
2BF7  0D                 sizelineinfo (13)
                         [pc] (line)
2BF8  C9                 [01] (-55)
2BF9  01                 [02] (-55)
2BFA  00                 [03] (-55)
2BFB  00                 [04] (-54)
2BFC  C9                 [05] (-54)
2BFD  01                 [06] (-54)
2BFE  00                 [07] (-54)
2BFF  00                 [08] (-54)
2C00  C9                 [09] (-54)
2C01  01                 [10] (-54)
2C02  00                 [11] (-53)
2C03  00                 [12] (-53)
2C04  CA                 [13] (-51)
                         * locals:
2C2C  00                 sizelocvars (0)
                         * upvalues:
2C2D  00                 sizeupvalues (0)
                         ** end of function **

                         
2C2E                     ** function [20] definition (level 2)
                         ** start of function **
2C2E  00                 string size (0)
                         source name: (none)
2C30  03                 line defined (463)
2C31  D3                 last line defined (467)
2C32  03                 nups (1)
2C33  01                 numparams (1)
2C34  01                 is_vararg (0)
2C35  00                 maxstacksize (3)
                         * code:
2C37  09                 sizecode (9)
2C38  5D000000           [1] getglobal  1   0        ; Engine
2C3C  4E40C000           [2] gettable   1   1   257  ; -1802437008
2C40  62808000           [3] call       1   1   2  
2C44  58400000           [4] test       1       1    ; to [6] if false
2C48  1A800080           [5] jmp        3            ; to [9]
2C4C  53000000           [6] getupval   1   0      
2C50  92000000           [7] move       2   0      
2C54  62400001           [8] call       1   2   1  
2C58  1E008000           [9] return     0   1      
                         * constants:
2C5C  02                 sizek (2)
2C5D  04                 const type 4
2C5E  07                 string size (7)
2C5F  456E67696E6500     "Engine\0"
                         const [0]: "Engine"
2C66  01                 const type 3
2C67  70FE9094           const [1]: (-1802437008)
                         * functions:
2C6B  00                 sizep (0)
                         * lines:
2C6C  09                 sizelineinfo (9)
                         [pc] (line)
2C6D  D0                 [1] (-48)
2C6E  01                 [2] (-48)
2C6F  00                 [3] (-48)
2C70  00                 [4] (-48)
2C71  D0                 [5] (-48)
2C72  01                 [6] (-47)
2C73  00                 [7] (-47)
2C74  00                 [8] (-47)
2C75  D0                 [9] (-45)
                         * locals:
2C91  00                 sizelocvars (0)
                         * upvalues:
2C92  00                 sizeupvalues (0)
                         ** end of function **

                         
2C93                     ** function [21] definition (level 2)
                         ** start of function **
2C93  00                 string size (0)
                         source name: (none)
2C95  03                 line defined (469)
2C96  E1                 last line defined (481)
2C97  03                 nups (0)
2C98  00                 numparams (2)
2C99  02                 is_vararg (0)
2C9A  00                 maxstacksize (11)
                         * code:
2C9C  1E                 sizecode (30)
2C9D  8B000000           [01] newtable   2   0   0    ; array=0, hash=0
2CA1  D9000000           [02] loadk      3   0        ; 0
2CA5  0A010000           [03] len        4   0      
2CA9  59010000           [04] loadk      5   0        ; 0
2CAD  D0000380           [05] forprep    3   13       ; to [19]
2CB1  CE810100           [06] gettable   7   0   6  
2CB5  CE41C003           [07] gettable   7   7   257  ; "a"
fail op	35
2CB9  63408003           [08] close      1  
2CBD  1AC00080           [09] jmp        4            ; to [14]
2CC1  CE810100           [10] gettable   7   0   6  
2CC5  CE81C003           [11] gettable   7   7   258  ; "b"
fail op	35
2CC9  23408003           [12] close      0  
2CCD  1A000180           [13] jmp        5            ; to [19]
2CD1  DDC10000           [14] getglobal  7   3        ; table
2CD5  CE01C103           [15] gettable   7   7   260  ; -431682403
2CD9  12020001           [16] move       8   2      
2CDD  52020003           [17] move       9   6      
2CE1  E2418001           [18] call       7   3   1  
2CE5  D440FC7F           [19] forloop    3   -14      ; to [6] if loop
2CE9  DD410100           [20] getglobal  7   5        ; math
2CED  CE81C103           [21] gettable   7   7   262  ; -2040962569
2CF1  19020000           [22] loadk      8   0        ; 0
2CF5  4A020001           [23] len        9   2      
2CF9  E2818001           [24] call       7   3   2  
2CFD  1DC20000           [25] getglobal  8   3        ; table
2D01  0EC24104           [26] gettable   8   8   263  ; -843973282
2D05  52020000           [27] move       9   0      
2D09  92028003           [28] move       10  7      
2D0D  22428001           [29] call       8   3   1  
2D11  1E008000           [30] return     0   1      
                         * constants:
2D15  08                 sizek (8)
2D16  03                 const type 3
2D17  0000803F           const [0]: (0)
2D1B  04                 const type 4
2D1C  02                 string size (2)
2D1D  6100               "a\0"
                         const [1]: "a"
2D1F  04                 const type 4
2D20  02                 string size (2)
2D21  6200               "b\0"
                         const [2]: "b"
2D23  04                 const type 4
2D24  06                 string size (6)
2D25  7461626C6500       "table\0"
                         const [3]: "table"
2D2B  01                 const type 3
2D2C  9D0C45E6           const [4]: (-431682403)
2D30  04                 const type 4
2D31  05                 string size (5)
2D32  6D61746800         "math\0"
                         const [5]: "math"
2D37  01                 const type 3
2D38  F7615986           const [6]: (-2040962569)
2D3C  01                 const type 3
2D3D  5EFDB1CD           const [7]: (-843973282)
                         * functions:
2D41  00                 sizep (0)
                         * lines:
2D42  1E                 sizelineinfo (30)
                         [pc] (line)
2D43  D6                 [01] (-42)
2D44  01                 [02] (-40)
2D45  00                 [03] (-40)
2D46  00                 [04] (-40)
2D47  D8                 [05] (-40)
2D48  01                 [06] (-39)
2D49  00                 [07] (-39)
2D4A  00                 [08] (-39)
2D4B  D8                 [09] (-39)
2D4C  01                 [10] (-39)
2D4D  00                 [11] (-39)
2D4E  00                 [12] (-39)
2D4F  D8                 [13] (-39)
2D50  01                 [14] (-38)
2D51  00                 [15] (-38)
2D52  00                 [16] (-38)
2D53  D8                 [17] (-38)
2D54  01                 [18] (-38)
2D55  00                 [19] (-40)
2D56  00                 [20] (-34)
2D57  D9                 [21] (-34)
2D58  01                 [22] (-34)
2D59  00                 [23] (-34)
2D5A  00                 [24] (-34)
2D5B  D9                 [25] (-32)
2D5C  01                 [26] (-32)
2D5D  00                 [27] (-32)
2D5E  00                 [28] (-32)
2D5F  D9                 [29] (-32)
2D60  01                 [30] (-31)
                         * locals:
2DBB  00                 sizelocvars (0)
                         * upvalues:
2DBC  00                 sizeupvalues (0)
                         ** end of function **

                         
2DBD                     ** function [22] definition (level 2)
                         ** start of function **
2DBD  00                 string size (0)
                         source name: (none)
2DBF  03                 line defined (483)
2DC0  85                 last line defined (517)
2DC1  04                 nups (5)
2DC2  05                 numparams (0)
2DC3  00                 is_vararg (0)
2DC4  00                 maxstacksize (12)
                         * code:
2DC6  68                 sizecode (104)
2DC7  1D000000           [001] getglobal  0   0        ; mMovie
2DCB  24404000           [002] self       0   0   257  ; -1021004755
2DCF  97000000           [003] loadbool   2   0   0    ; false
2DD3  22408001           [004] call       0   3   1  
2DD7  19800000           [005] loadk      0   2        ; "D"
2DDB  46008000           [006] loadnil    1   1      
2DDF  93000000           [007] getupval   2   0      
2DE3  8EC04001           [008] gettable   2   2   259  ; 763922181
2DE7  CB800000           [009] newtable   3   0   2    ; array=0, hash=2
2DEB  CC404182           [010] settable   3   260 261  ; "X" 0
2DEF  CC404183           [011] settable   3   262 261  ; "Y" 0
2DF3  13018000           [012] getupval   4   1      
2DF7  A2808001           [013] call       2   3   2  
fail op	21
2DFB  15808083           [014] concat     0   263 2  
2DFF  1A800680           [015] jmp        27           ; to [43]
2E03  DD000200           [016] getglobal  3   8        ; math
2E07  CE40C201           [017] gettable   3   3   265  ; 1063477592
2E0B  13018000           [018] getupval   4   1      
2E0F  0E014102           [019] gettable   4   4   260  ; "X"
2E13  53018000           [020] getupval   5   1      
2E17  4E81C102           [021] gettable   5   5   262  ; "Y"
2E1B  E2808001           [022] call       3   3   2  
2E1F  5C80C201           [023] div        1   3   266  ; -7
fail op	21
2E23  1540C100           [024] concat     0   1   261
2E27  1A000080           [025] jmp        1            ; to [27]
2E2B  43C0C200           [026] add        1   1   267  ; 0
2E2F  D3008000           [027] getupval   3   1      
2E33  CE00C301           [028] gettable   3   3   268  ; "PreviewLine"
2E37  D8000000           [029] test       3       0    ; to [31] if true
2E3B  1AC00280           [030] jmp        12           ; to [43]
2E3F  DD400300           [031] getglobal  3   13       ; 1668611480
2E43  12018000           [032] move       4   1      
2E47  59410100           [033] loadk      5   5        ; 0
2E4B  99C10200           [034] loadk      6   11       ; 0
2E4F  E2800002           [035] call       3   4   2  
2E53  C4C00087           [036] mul        3   270 3    ; 0
2E57  1D010000           [037] getglobal  4   0        ; mMovie
2E5B  24C14302           [038] self       4   4   271  ; 471456102
2E5F  99010400           [039] loadk      6   16       ; "CursorPreviewLine"
2E63  D9410400           [040] loadk      7   17       ; "_rotation"
2E67  0D82C401           [041] sub        8   3   274  ; 0
2E6B  22418002           [042] call       4   5   1  
2E6F  13018000           [043] getupval   4   1      
2E73  0E014302           [044] gettable   4   4   268  ; "PreviewLine"
2E77  18010000           [045] test       4       0    ; to [47] if true
2E7B  1A400380           [046] jmp        14           ; to [61]
2E7F  1D010000           [047] getglobal  4   0        ; mMovie
2E83  24C14302           [048] self       4   4   271  ; 471456102
2E87  99C10400           [049] loadk      6   19       ; "CursorPreviewLine.InnerLine"
2E8B  D9010500           [050] loadk      7   20       ; "_width"
2E8F  13020000           [051] getupval   8   0      
2E93  0E424504           [052] gettable   8   8   277  ; -132701534
fail op	21
2E97  5580008B           [053] concat     1   278 2  
2E9B  1A000080           [054] jmp        1            ; to [56]
2E9F  57420000           [055] loadbool   9   0   1    ; false, to [57]
2EA3  57028000           [056] loadbool   9   1   0    ; true
2EA7  99C20500           [057] loadk      10  23       ; 0
2EAB  D9C20200           [058] loadk      11  11       ; 0
2EAF  22020002           [059] call       8   4   0  
2EB3  22410000           [060] call       4   0   1  
2EB7  0B010003           [061] newtable   4   6   0    ; array=6, hash=0
2EBB  59010600           [062] loadk      5   24       ; "B"
2EBF  99410600           [063] loadk      6   25       ; "E"
2EC3  D9810600           [064] loadk      7   26       ; "G"
2EC7  19C20600           [065] loadk      8   27       ; "F"
2ECB  59020700           [066] loadk      9   28       ; "C"
2ECF  99420700           [067] loadk      10  29       ; "A"
2ED3  1B410003           [068] setlist    4   6   1    ; index 1 to 6
2ED7  5D810700           [069] getglobal  5   30       ; 1074689893
2EDB  92018000           [070] move       6   1      
2EDF  62810001           [071] call       5   2   2  
2EE3  58410000           [072] test       5       1    ; to [74] if false
2EE7  1A400380           [073] jmp        14           ; to [88]
2EEB  5D010200           [074] getglobal  5   8        ; math
2EEF  4EC1C702           [075] gettable   5   5   287  ; -150971781
2EF3  8A010002           [076] len        6   4      
2EF7  84410003           [077] mul        6   6   1  
2EFB  62810001           [078] call       5   2   2  
2EFF  43C1C202           [079] add        5   5   267  ; 0
2F03  9D010800           [080] getglobal  6   32       ; -1817107093
2F07  D9410800           [081] loadk      7   33       ; "sectionId->"
2F0B  1D820800           [082] getglobal  8   34       ; -1615931716
2F0F  52028002           [083] move       9   5      
2F13  22820001           [084] call       8   2   2  
2F17  C2018203           [085] concat     7   7   8  
2F1B  A2410001           [086] call       6   2   1  
2F1F  0E400102           [087] gettable   0   4   5  
2F23  93010001           [088] getupval   6   2      
fail op	35
2F27  63C04803           [089] close      1  
2F2B  1A800080           [090] jmp        3            ; to [94]
2F2F  93018001           [091] getupval   6   3      
2F33  D3010001           [092] getupval   7   2      
2F37  A2410001           [093] call       6   2   1  
2F3B  9D010000           [094] getglobal  6   0        ; mMovie
2F3F  A4014903           [095] self       6   6   292  ; 1803241227
2F43  12020000           [096] move       8   0      
2F47  59420900           [097] loadk      9   37       ; "enabled"
2F4B  A2810002           [098] call       6   4   2  
fail op	35
2F4F  23804903           [099] close      0  
2F53  1A800080           [100] jmp        3            ; to [104]
2F57  93010002           [101] getupval   6   4      
2F5B  D2010000           [102] move       7   0      
2F5F  A2410001           [103] call       6   2   1  
2F63  1E008000           [104] return     0   1      
                         * constants:
2F67  27                 sizek (39)
2F68  04                 const type 4
2F69  07                 string size (7)
2F6A  6D4D6F76696500     "mMovie\0"
                         const [0]: "mMovie"
2F71  01                 const type 3
2F72  2DB424C3           const [1]: (-1021004755)
2F76  04                 const type 4
2F77  02                 string size (2)
2F78  4400               "D\0"
                         const [2]: "D"
2F7A  01                 const type 3
2F7B  0587882D           const [3]: (763922181)
2F7F  04                 const type 4
2F80  02                 string size (2)
2F81  5800               "X\0"
                         const [4]: "X"
2F83  03                 const type 3
2F84  00000000           const [5]: (0)
2F88  04                 const type 4
2F89  02                 string size (2)
2F8A  5900               "Y\0"
                         const [6]: "Y"
2F8C  03                 const type 3
2F8D  9A99993E           const [7]: (-102)
2F91  04                 const type 4
2F92  05                 string size (5)
2F93  6D61746800         "math\0"
                         const [8]: "math"
2F98  01                 const type 3
2F99  5861633F           const [9]: (1063477592)
2F9D  03                 const type 3
2F9E  F90FC940           const [10]: (-7)
2FA2  03                 const type 3
2FA3  0000803F           const [11]: (0)
2FA7  04                 const type 4
2FA8  0C                 string size (12)
2FA9  507265766965774C+  "PreviewL"
2FB1  696E6500           "ine\0"
                         const [12]: "PreviewLine"
2FB5  01                 const type 3
2FB6  98FD7463           const [13]: (1668611480)
2FBA  03                 const type 3
2FBB  0000B443           const [14]: (0)
2FBF  01                 const type 3
2FC0  66D9191C           const [15]: (471456102)
2FC4  04                 const type 4
2FC5  12                 string size (18)
2FC6  437572736F725072+  "CursorPr"
2FCE  65766965774C696E+  "eviewLin"
2FD6  6500               "e\0"
                         const [16]: "CursorPreviewLine"
2FD8  04                 const type 4
2FD9  0A                 string size (10)
2FDA  5F726F746174696F+  "_rotatio"
2FE2  6E00               "n\0"
                         const [17]: "_rotation"
2FE4  03                 const type 3
2FE5  0000B442           const [18]: (0)
2FE9  04                 const type 4
2FEA  1C                 string size (28)
2FEB  437572736F725072+  "CursorPr"
2FF3  65766965774C696E+  "eviewLin"
2FFB  652E496E6E65724C+  "e.InnerL"
3003  696E6500           "ine\0"
                         const [19]: "CursorPreviewLine.InnerLine"
3007  04                 const type 4
3008  07                 string size (7)
3009  5F776964746800     "_width\0"
                         const [20]: "_width"
3010  01                 const type 3
3011  A22217F8           const [21]: (-132701534)
3015  03                 const type 3
3016  6F12833A           const [22]: (111)
301A  03                 const type 3
301B  0000C842           const [23]: (0)
301F  04                 const type 4
3020  02                 string size (2)
3021  4200               "B\0"
                         const [24]: "B"
3023  04                 const type 4
3024  02                 string size (2)
3025  4500               "E\0"
                         const [25]: "E"
3027  04                 const type 4
3028  02                 string size (2)
3029  4700               "G\0"
                         const [26]: "G"
302B  04                 const type 4
302C  02                 string size (2)
302D  4600               "F\0"
                         const [27]: "F"
302F  04                 const type 4
3030  02                 string size (2)
3031  4300               "C\0"
                         const [28]: "C"
3033  04                 const type 4
3034  02                 string size (2)
3035  4100               "A\0"
                         const [29]: "A"
3037  01                 const type 3
3038  65770E40           const [30]: (1074689893)
303C  01                 const type 3
303D  7B5A00F7           const [31]: (-150971781)
3041  01                 const type 3
3042  6B25B193           const [32]: (-1817107093)
3046  04                 const type 4
3047  0C                 string size (12)
3048  73656374696F6E49+  "sectionI"
3050  642D3E00           "d->\0"
                         const [33]: "sectionId->"
3054  01                 const type 3
3055  BCD6AE9F           const [34]: (-1615931716)
3059  00                 const type 0
                         const [35]: nil
305A  01                 const type 3
305B  0B477B6B           const [36]: (1803241227)
305F  04                 const type 4
3060  08                 string size (8)
3061  656E61626C656400   "enabled\0"
                         const [37]: "enabled"
3069  04                 const type 4
306A  05                 string size (5)
306B  7472756500         "true\0"
                         const [38]: "true"
                         * functions:
3070  00                 sizep (0)
                         * lines:
3071  68                 sizelineinfo (104)
                         [pc] (line)
3072  E5                 [001] (-27)
3073  01                 [002] (-27)
3074  00                 [003] (-27)
3075  00                 [004] (-27)
3076  E5                 [005] (-25)
3077  01                 [006] (-24)
3078  00                 [007] (-23)
3079  00                 [008] (-23)
307A  E5                 [009] (-23)
307B  01                 [010] (-23)
307C  00                 [011] (-23)
307D  00                 [012] (-23)
307E  E5                 [013] (-23)
307F  01                 [014] (-22)
3080  00                 [015] (-22)
3081  00                 [016] (-21)
3082  E7                 [017] (-21)
3083  01                 [018] (-21)
3084  00                 [019] (-21)
3085  00                 [020] (-21)
3086  E8                 [021] (-21)
3087  01                 [022] (-21)
3088  00                 [023] (-21)
3089  00                 [024] (-20)
308A  E9                 [025] (-20)
308B  01                 [026] (-19)
308C  00                 [027] (-17)
308D  00                 [028] (-17)
308E  E9                 [029] (-17)
308F  01                 [030] (-17)
3090  00                 [031] (-16)
3091  00                 [032] (-16)
3092  E9                 [033] (-16)
3093  01                 [034] (-16)
3094  00                 [035] (-16)
3095  00                 [036] (-16)
3096  E9                 [037] (-15)
3097  01                 [038] (-15)
3098  00                 [039] (-15)
3099  00                 [040] (-15)
309A  E9                 [041] (-15)
309B  01                 [042] (-15)
309C  00                 [043] (-12)
309D  00                 [044] (-12)
309E  E9                 [045] (-12)
309F  01                 [046] (-12)
30A0  00                 [047] (-11)
30A1  00                 [048] (-11)
30A2  E9                 [049] (-11)
30A3  01                 [050] (-11)
30A4  00                 [051] (-11)
30A5  00                 [052] (-11)
30A6  EA                 [053] (-11)
30A7  01                 [054] (-11)
30A8  00                 [055] (-11)
30A9  00                 [056] (-11)
30AA  EA                 [057] (-11)
30AB  01                 [058] (-11)
30AC  00                 [059] (-11)
30AD  00                 [060] (-11)
30AE  EB                 [061] (-8)
30AF  01                 [062] (-8)
30B0  00                 [063] (-8)
30B1  00                 [064] (-8)
30B2  EB                 [065] (-8)
30B3  01                 [066] (-8)
30B4  00                 [067] (-8)
30B5  00                 [068] (-8)
30B6  EB                 [069] (-7)
30B7  01                 [070] (-7)
30B8  00                 [071] (-7)
30B9  00                 [072] (-7)
30BA  EB                 [073] (-7)
30BB  01                 [074] (-6)
30BC  00                 [075] (-6)
30BD  00                 [076] (-6)
30BE  EB                 [077] (-6)
30BF  01                 [078] (-6)
30C0  00                 [079] (-6)
30C1  00                 [080] (-5)
30C2  EB                 [081] (-5)
30C3  01                 [082] (-5)
30C4  00                 [083] (-5)
30C5  00                 [084] (-5)
30C6  EB                 [085] (-5)
30C7  01                 [086] (-5)
30C8  00                 [087] (-4)
30C9  00                 [088] (-1)
30CA  EB                 [089] (-1)
30CB  01                 [090] (-1)
30CC  00                 [091] (0)
30CD  00                 [092] (0)
30CE  EC                 [093] (0)
30CF  01                 [094] (2)
30D0  00                 [095] (2)
30D1  00                 [096] (2)
30D2  EC                 [097] (2)
30D3  01                 [098] (2)
30D4  00                 [099] (2)
30D5  00                 [100] (2)
30D6  ED                 [101] (3)
30D7  01                 [102] (3)
30D8  00                 [103] (3)
30D9  00                 [104] (5)
                         * locals:
3212  00                 sizelocvars (0)
                         * upvalues:
3213  00                 sizeupvalues (0)
                         ** end of function **

                         
3214                     ** function [23] definition (level 2)
                         ** start of function **
3214  00                 string size (0)
                         source name: (none)
3216  04                 line defined (519)
3217  AF                 last line defined (559)
3218  04                 nups (1)
3219  01                 numparams (0)
321A  00                 is_vararg (0)
321B  00                 maxstacksize (2)
                         * code:
321D  60                 sizecode (96)
321E  0B000000           [01] newtable   0   0   0    ; array=0, hash=0
fail op	8
3222  08000000           [02] setupval   0   0      
3226  13000000           [03] getupval   0   0      
322A  4B000000           [04] newtable   1   0   0    ; array=0, hash=0
322E  0C400080           [05] settable   0   256 1    ; "A"
3232  13000000           [06] getupval   0   0      
3236  0E004000           [07] gettable   0   0   256  ; "A"
323A  0C80C080           [08] settable   0   257 258  ; 0 "B"
323E  13000000           [09] getupval   0   0      
3242  0E004000           [10] gettable   0   0   256  ; "A"
3246  0C00C181           [11] settable   0   259 260  ; 0 "D"
324A  13000000           [12] getupval   0   0      
324E  0E004000           [13] gettable   0   0   256  ; "A"
3252  0C80C182           [14] settable   0   261 262  ; 0 "C"
3256  13000000           [15] getupval   0   0      
325A  4B000000           [16] newtable   1   0   0    ; array=0, hash=0
325E  0C400081           [17] settable   0   258 1    ; "B"
3262  13000000           [18] getupval   0   0      
3266  0E804000           [19] gettable   0   0   258  ; "B"
326A  0CC0C181           [20] settable   0   259 263  ; 0 "E"
326E  13000000           [21] getupval   0   0      
3272  0E804000           [22] gettable   0   0   258  ; "B"
3276  0C00C182           [23] settable   0   261 260  ; 0 "D"
327A  13000000           [24] getupval   0   0      
327E  0E804000           [25] gettable   0   0   258  ; "B"
3282  0C004084           [26] settable   0   264 256  ; 0 "A"
3286  13000000           [27] getupval   0   0      
328A  4B000000           [28] newtable   1   0   0    ; array=0, hash=0
328E  0C400083           [29] settable   0   262 1    ; "C"
3292  13000000           [30] getupval   0   0      
3296  0E804100           [31] gettable   0   0   262  ; "C"
329A  0C00C180           [32] settable   0   257 260  ; 0 "D"
329E  13000000           [33] getupval   0   0      
32A2  0E804100           [34] gettable   0   0   262  ; "C"
32A6  0C40C281           [35] settable   0   259 265  ; 0 "F"
32AA  13000000           [36] getupval   0   0      
32AE  0E804100           [37] gettable   0   0   262  ; "C"
32B2  0C004085           [38] settable   0   266 256  ; 0 "A"
32B6  13000000           [39] getupval   0   0      
32BA  4B000000           [40] newtable   1   0   0    ; array=0, hash=0
32BE  0C400082           [41] settable   0   260 1    ; "D"
32C2  13000000           [42] getupval   0   0      
32C6  0E004100           [43] gettable   0   0   260  ; "D"
32CA  0CC0C180           [44] settable   0   257 263  ; 0 "E"
32CE  13000000           [45] getupval   0   0      
32D2  0E004100           [46] gettable   0   0   260  ; "D"
32D6  0CC0C281           [47] settable   0   259 267  ; 0 "G"
32DA  13000000           [48] getupval   0   0      
32DE  0E004100           [49] gettable   0   0   260  ; "D"
32E2  0C40C282           [50] settable   0   261 265  ; 0 "F"
32E6  13000000           [51] getupval   0   0      
32EA  0E004100           [52] gettable   0   0   260  ; "D"
32EE  0C804184           [53] settable   0   264 262  ; 0 "C"
32F2  13000000           [54] getupval   0   0      
32F6  0E004100           [55] gettable   0   0   260  ; "D"
32FA  0C004086           [56] settable   0   268 256  ; 0 "A"
32FE  13000000           [57] getupval   0   0      
3302  0E004100           [58] gettable   0   0   260  ; "D"
3306  0C804085           [59] settable   0   266 258  ; 0 "B"
330A  13000000           [60] getupval   0   0      
330E  4B000000           [61] newtable   1   0   0    ; array=0, hash=0
3312  0C408083           [62] settable   0   263 1    ; "E"
3316  13000000           [63] getupval   0   0      
331A  0EC04100           [64] gettable   0   0   263  ; "E"
331E  0CC0C282           [65] settable   0   261 267  ; 0 "G"
3322  13000000           [66] getupval   0   0      
3326  0EC04100           [67] gettable   0   0   263  ; "E"
332A  0C004184           [68] settable   0   264 260  ; 0 "D"
332E  13000000           [69] getupval   0   0      
3332  0EC04100           [70] gettable   0   0   263  ; "E"
3336  0C804086           [71] settable   0   268 258  ; 0 "B"
333A  13000000           [72] getupval   0   0      
333E  4B000000           [73] newtable   1   0   0    ; array=0, hash=0
3342  0C408084           [74] settable   0   265 1    ; "F"
3346  13000000           [75] getupval   0   0      
334A  0E404200           [76] gettable   0   0   265  ; "F"
334E  0CC0C280           [77] settable   0   257 267  ; 0 "G"
3352  13000000           [78] getupval   0   0      
3356  0E404200           [79] gettable   0   0   265  ; "F"
335A  0C804186           [80] settable   0   268 262  ; 0 "C"
335E  13000000           [81] getupval   0   0      
3362  0E404200           [82] gettable   0   0   265  ; "F"
3366  0C004185           [83] settable   0   266 260  ; 0 "D"
336A  13000000           [84] getupval   0   0      
336E  4B000000           [85] newtable   1   0   0    ; array=0, hash=0
3372  0C408085           [86] settable   0   267 1    ; "G"
3376  13000000           [87] getupval   0   0      
337A  0EC04200           [88] gettable   0   0   267  ; "G"
337E  0C404284           [89] settable   0   264 265  ; 0 "F"
3382  13000000           [90] getupval   0   0      
3386  0EC04200           [91] gettable   0   0   267  ; "G"
338A  0C004186           [92] settable   0   268 260  ; 0 "D"
338E  13000000           [93] getupval   0   0      
3392  0EC04200           [94] gettable   0   0   267  ; "G"
3396  0CC04185           [95] settable   0   266 263  ; 0 "E"
339A  1E008000           [96] return     0   1      
                         * constants:
339E  0D                 sizek (13)
339F  04                 const type 4
33A0  02                 string size (2)
33A1  4100               "A\0"
                         const [0]: "A"
33A3  03                 const type 3
33A4  0000803F           const [1]: (0)
33A8  04                 const type 4
33A9  02                 string size (2)
33AA  4200               "B\0"
                         const [2]: "B"
33AC  03                 const type 3
33AD  00000040           const [3]: (0)
33B1  04                 const type 4
33B2  02                 string size (2)
33B3  4400               "D\0"
                         const [4]: "D"
33B5  03                 const type 3
33B6  00004040           const [5]: (0)
33BA  04                 const type 4
33BB  02                 string size (2)
33BC  4300               "C\0"
                         const [6]: "C"
33BE  04                 const type 4
33BF  02                 string size (2)
33C0  4500               "E\0"
                         const [7]: "E"
33C2  03                 const type 3
33C3  00008040           const [8]: (0)
33C7  04                 const type 4
33C8  02                 string size (2)
33C9  4600               "F\0"
                         const [9]: "F"
33CB  03                 const type 3
33CC  0000C040           const [10]: (0)
33D0  04                 const type 4
33D1  02                 string size (2)
33D2  4700               "G\0"
                         const [11]: "G"
33D4  03                 const type 3
33D5  0000A040           const [12]: (0)
                         * functions:
33D9  00                 sizep (0)
                         * lines:
33DA  60                 sizelineinfo (96)
                         [pc] (line)
33DB  08                 [01] (8)
33DC  02                 [02] (8)
33DD  00                 [03] (10)
33DE  00                 [04] (10)
33DF  08                 [05] (10)
33E0  02                 [06] (11)
33E1  00                 [07] (11)
33E2  00                 [08] (11)
33E3  0A                 [09] (12)
33E4  02                 [10] (12)
33E5  00                 [11] (12)
33E6  00                 [12] (13)
33E7  0A                 [13] (13)
33E8  02                 [14] (13)
33E9  00                 [15] (15)
33EA  00                 [16] (15)
33EB  0A                 [17] (15)
33EC  02                 [18] (16)
33ED  00                 [19] (16)
33EE  00                 [20] (16)
33EF  0B                 [21] (17)
33F0  02                 [22] (17)
33F1  00                 [23] (17)
33F2  00                 [24] (18)
33F3  0B                 [25] (18)
33F4  02                 [26] (18)
33F5  00                 [27] (20)
33F6  00                 [28] (20)
33F7  0B                 [29] (20)
33F8  02                 [30] (21)
33F9  00                 [31] (21)
33FA  00                 [32] (21)
33FB  0C                 [33] (22)
33FC  02                 [34] (22)
33FD  00                 [35] (22)
33FE  00                 [36] (23)
33FF  0C                 [37] (23)
3400  02                 [38] (23)
3401  00                 [39] (25)
3402  00                 [40] (25)
3403  0C                 [41] (25)
3404  02                 [42] (26)
3405  00                 [43] (26)
3406  00                 [44] (26)
3407  0D                 [45] (27)
3408  02                 [46] (27)
3409  00                 [47] (27)
340A  00                 [48] (28)
340B  0D                 [49] (28)
340C  02                 [50] (28)
340D  00                 [51] (29)
340E  00                 [52] (29)
340F  0D                 [53] (29)
3410  02                 [54] (30)
3411  00                 [55] (30)
3412  00                 [56] (30)
3413  0F                 [57] (31)
3414  02                 [58] (31)
3415  00                 [59] (31)
3416  00                 [60] (33)
3417  0F                 [61] (33)
3418  02                 [62] (33)
3419  00                 [63] (34)
341A  00                 [64] (34)
341B  0F                 [65] (34)
341C  02                 [66] (35)
341D  00                 [67] (35)
341E  00                 [68] (35)
341F  10                 [69] (36)
3420  02                 [70] (36)
3421  00                 [71] (36)
3422  00                 [72] (38)
3423  10                 [73] (38)
3424  02                 [74] (38)
3425  00                 [75] (39)
3426  00                 [76] (39)
3427  10                 [77] (39)
3428  02                 [78] (40)
3429  00                 [79] (40)
342A  00                 [80] (40)
342B  11                 [81] (41)
342C  02                 [82] (41)
342D  00                 [83] (41)
342E  00                 [84] (43)
342F  11                 [85] (43)
3430  02                 [86] (43)
3431  00                 [87] (44)
3432  00                 [88] (44)
3433  11                 [89] (44)
3434  02                 [90] (45)
3435  00                 [91] (45)
3436  00                 [92] (45)
3437  12                 [93] (46)
3438  02                 [94] (46)
3439  00                 [95] (46)
343A  00                 [96] (47)
                         * locals:
355B  00                 sizelocvars (0)
                         * upvalues:
355C  00                 sizeupvalues (0)
                         ** end of function **

                         
355D                     ** function [24] definition (level 2)
                         ** start of function **
355D  00                 string size (0)
                         source name: (none)
355F  04                 line defined (561)
3560  BF                 last line defined (703)
3561  05                 nups (20)
3562  14                 numparams (0)
3563  00                 is_vararg (0)
3564  00                 maxstacksize (64)
                         * code:
3567  03                 sizecode (435)
3568  0B000000           [001] newtable   0   0   0    ; array=0, hash=0
fail op	8
356C  08000000           [002] setupval   0   0      
3570  19000000           [003] loadk      0   0        ; 0
3574  53008000           [004] getupval   1   1      
3578  4A008000           [005] len        1   1      
357C  99000000           [006] loadk      2   0        ; 0
3580  10001380           [007] forprep    0   77       ; to [85]
3584  13010000           [008] getupval   4   0      
3588  53018000           [009] getupval   5   1      
358C  4EC18002           [010] gettable   5   5   3  
3590  0C418101           [011] settable   4   3   5  
3594  1D410000           [012] getglobal  4   1        ; mMovie
3598  24814002           [013] self       4   4   258  ; 471456102
359C  93010000           [014] getupval   6   0      
35A0  8EC10003           [015] gettable   6   6   3  
35A4  D9C10000           [016] loadk      7   3        ; "_visible"
35A8  17028000           [017] loadbool   8   1   0    ; true
35AC  22418002           [018] call       4   5   1  
35B0  1D010100           [019] getglobal  4   4        ; -1939558487
35B4  5D410000           [020] getglobal  5   1        ; mMovie
35B8  93010000           [021] getupval   6   0      
35BC  D3010000           [022] getupval   7   0      
35C0  CA018003           [023] len        7   7      
35C4  8EC10103           [024] gettable   6   6   7  
35C8  D9410100           [025] loadk      7   5        ; ".Bg.gotoAndStop"
35CC  82C10103           [026] concat     6   6   7  
35D0  D3010001           [027] getupval   7   2      
35D4  CE81C103           [028] gettable   7   7   262  ; -132701534
35D8  13028001           [029] getupval   8   3      
35DC  53020000           [030] getupval   9   0      
35E0  93020000           [031] getupval   10  0      
35E4  8A020005           [032] len        10  10     
35E8  4E828204           [033] gettable   9   9   10 
fail op	35
35EC  63400204           [034] close      1  
35F0  1A000080           [035] jmp        1            ; to [37]
35F4  17420000           [036] loadbool   8   0   1    ; false, to [38]
35F8  17028000           [037] loadbool   8   1   0    ; true
35FC  59C20100           [038] loadk      9   7        ; "Selected"
3600  99020200           [039] loadk      10  8        ; "Active"
3604  E2010002           [040] call       7   4   0  
3608  22410000           [041] call       4   0   1  
360C  1D410000           [042] getglobal  4   1        ; mMovie
3610  24814002           [043] self       4   4   258  ; 471456102
3614  93010000           [044] getupval   6   0      
3618  D3010000           [045] getupval   7   0      
361C  CA018003           [046] len        7   7      
3620  8EC10103           [047] gettable   6   6   7  
3624  D9410200           [048] loadk      7   9        ; "enabled"
3628  17028000           [049] loadbool   8   1   0    ; true
362C  22418002           [050] call       4   5   1  
3630  1D410000           [051] getglobal  4   1        ; mMovie
3634  24814002           [052] self       4   4   258  ; 471456102
3638  93010000           [053] getupval   6   0      
363C  D3010000           [054] getupval   7   0      
3640  CA018003           [055] len        7   7      
3644  8EC10103           [056] gettable   6   6   7  
3648  D9810200           [057] loadk      7   10       ; "clickable"
364C  17028000           [058] loadbool   8   1   0    ; true
3650  22418002           [059] call       4   5   1  
3654  1D410000           [060] getglobal  4   1        ; mMovie
3658  24C14202           [061] self       4   4   267  ; -2013161817
365C  93010000           [062] getupval   6   0      
3660  D3010000           [063] getupval   7   0      
3664  CA018003           [064] len        7   7      
3668  8EC10103           [065] gettable   6   6   7  
366C  D9010300           [066] loadk      7   12       ; "Middle"
3670  19C20000           [067] loadk      8   3        ; "_visible"
3674  57028000           [068] loadbool   9   1   0    ; true
3678  22410003           [069] call       4   6   1  
367C  19010000           [070] loadk      4   0        ; 0
3680  59410300           [071] loadk      5   13       ; 0
3684  99010000           [072] loadk      6   0        ; 0
3688  10410280           [073] forprep    4   10       ; to [84]
368C  1D420000           [074] getglobal  8   1        ; mMovie
3690  24824004           [075] self       8   8   258  ; 471456102
3694  93020000           [076] getupval   10  0      
3698  8EC20005           [077] gettable   10  10  3  
369C  D9820300           [078] loadk      11  14       ; ".Line"
36A0  12038003           [079] move       12  7      
36A4  82020305           [080] concat     10  10  12 
36A8  D9C20000           [081] loadk      11  3        ; "_visible"
36AC  17030000           [082] loadbool   12  0   0    ; false
36B0  22428002           [083] call       8   5   1  
36B4  1401FD7F           [084] forloop    4   -11      ; to [74] if loop
36B8  1440EC7F           [085] forloop    0   -78      ; to [8] if loop
36BC  1DC20300           [086] getglobal  8   15       ; math
36C0  0E024404           [087] gettable   8   8   272  ; -2040962569
36C4  59420400           [088] loadk      9   17       ; 0
36C8  99820400           [089] loadk      10  18       ; 0
36CC  22828001           [090] call       8   3   2  
fail op	8
36D0  08020002           [091] setupval   8   4      
36D4  1DC20400           [092] getglobal  8   19       ; _T
36D8  0E024504           [093] gettable   8   8   276  ; "cipherForgiveness"
36DC  18020000           [094] test       8       0    ; to [96] if true
36E0  1A400080           [095] jmp        2            ; to [98]
36E4  19420500           [096] loadk      8   21       ; 0
fail op	8
36E8  08020002           [097] setupval   8   4      
36EC  13020001           [098] getupval   8   2      
36F0  0E824504           [099] gettable   8   8   278  ; -2001492098
36F4  53020000           [100] getupval   9   0      
36F8  22820001           [101] call       8   2   2  
fail op	8
36FC  08020000           [102] setupval   8   0      
3700  1DC20500           [103] getglobal  8   23       ; 1074689893
3704  5DC20400           [104] getglobal  9   19       ; _T
3708  4E02C604           [105] gettable   9   9   280  ; "hackingTutorialOverride"
370C  22820001           [106] call       8   2   2  
3710  18420000           [107] test       8       1    ; to [109] if false
3714  1AC00080           [108] jmp        4            ; to [113]
3718  1DC20400           [109] getglobal  8   19       ; _T
371C  0E024604           [110] gettable   8   8   280  ; "hackingTutorialOverride"
fail op	8
3720  08028002           [111] setupval   8   5      
3724  1A800380           [112] jmp        15           ; to [128]
3728  1DC20400           [113] getglobal  8   19       ; _T
372C  0E424604           [114] gettable   8   8   281  ; "WareframeChallenge"
3730  18020000           [115] test       8       0    ; to [117] if true
3734  1A800280           [116] jmp        11           ; to [128]
3738  19820600           [117] loadk      8   26       ; 0
fail op	8
373C  08028002           [118] setupval   8   5      
3740  1DC20400           [119] getglobal  8   19       ; _T
3744  0EC24604           [120] gettable   8   8   283  ; "ObjectiveTimer"
3748  18020000           [121] test       8       0    ; to [123] if true
374C  1A000180           [122] jmp        5            ; to [128]
3750  1DC20400           [123] getglobal  8   19       ; _T
3754  0EC24604           [124] gettable   8   8   283  ; "ObjectiveTimer"
3758  0E024704           [125] gettable   8   8   284  ; "Data"
375C  0E424704           [126] gettable   8   8   285  ; "Time"
fail op	8
3760  08020002           [127] setupval   8   4      
3764  19820600           [128] loadk      8   26       ; 0
3768  53028002           [129] getupval   9   5      
fail op	35
376C  2380C704           [130] close      0  
3770  1A400080           [131] jmp        2            ; to [134]
3774  19C20700           [132] loadk      8   31       ; 0
3778  1A000280           [133] jmp        9            ; to [143]
377C  53028002           [134] getupval   9   5      
fail op	35
3780  23C0C704           [135] close      0  
3784  1A400080           [136] jmp        2            ; to [139]
3788  19820700           [137] loadk      8   30       ; 0
378C  1AC00080           [138] jmp        4            ; to [143]
3790  53028002           [139] getupval   9   5      
fail op	35
3794  2380C604           [140] close      0  
3798  1A000080           [141] jmp        1            ; to [143]
379C  19020800           [142] loadk      8   32       ; 0
37A0  59020000           [143] loadk      9   0        ; 0
37A4  92020004           [144] move       10  8      
37A8  D9020000           [145] loadk      11  0        ; 0
37AC  50C20A80           [146] forprep    9   44       ; to [191]
37B0  5D030100           [147] getglobal  13  4        ; -1939558487
37B4  9D430000           [148] getglobal  14  1        ; mMovie
37B8  D3030000           [149] getupval   15  0      
37BC  13040000           [150] getupval   16  0      
37C0  0A040008           [151] len        16  16     
37C4  CE038407           [152] gettable   15  15  16 
37C8  19440100           [153] loadk      16  5        ; ".Bg.gotoAndStop"
37CC  C2038407           [154] concat     15  15  16 
37D0  19440800           [155] loadk      16  33       ; "Inactive"
37D4  62430002           [156] call       13  4   1  
37D8  5D430000           [157] getglobal  13  1        ; mMovie
37DC  6483C006           [158] self       13  13  258  ; 471456102
37E0  D3030000           [159] getupval   15  0      
37E4  13040000           [160] getupval   16  0      
37E8  0A040008           [161] len        16  16     
37EC  CE038407           [162] gettable   15  15  16 
37F0  19440200           [163] loadk      16  9        ; "enabled"
37F4  57040000           [164] loadbool   17  0   0    ; false
37F8  62438002           [165] call       13  5   1  
37FC  5D430000           [166] getglobal  13  1        ; mMovie
3800  6483C006           [167] self       13  13  258  ; 471456102
3804  D3030000           [168] getupval   15  0      
3808  13040000           [169] getupval   16  0      
380C  0A040008           [170] len        16  16     
3810  CE038407           [171] gettable   15  15  16 
3814  19840200           [172] loadk      16  10       ; "clickable"
3818  57040000           [173] loadbool   17  0   0    ; false
381C  62438002           [174] call       13  5   1  
3820  5D430000           [175] getglobal  13  1        ; mMovie
3824  64C3C206           [176] self       13  13  267  ; -2013161817
3828  D3030000           [177] getupval   15  0      
382C  13040000           [178] getupval   16  0      
3830  0A040008           [179] len        16  16     
3834  CE038407           [180] gettable   15  15  16 
3838  19040300           [181] loadk      16  12       ; "Middle"
383C  59C40000           [182] loadk      17  3        ; "_visible"
3840  97040000           [183] loadbool   18  0   0    ; false
3844  62430003           [184] call       13  6   1  
3848  5D830800           [185] getglobal  13  34       ; table
384C  4EC3C806           [186] gettable   13  13  291  ; -843973282
3850  93030000           [187] getupval   14  0      
3854  D3030000           [188] getupval   15  0      
3858  CA038007           [189] len        15  15     
385C  62438001           [190] call       13  3   1  
3860  5482F47F           [191] forloop    9   -45      ; to [147] if loop
3864  4B030000           [192] newtable   13  0   0    ; array=0, hash=0
fail op	8
3868  48030003           [193] setupval   13  6      
386C  4B030000           [194] newtable   13  0   0    ; array=0, hash=0
3870  8B030000           [195] newtable   14  0   0    ; array=0, hash=0
3874  D9030000           [196] loadk      15  0        ; 0
3878  13040000           [197] getupval   16  0      
387C  0A040008           [198] len        16  16     
3880  59040000           [199] loadk      17  0        ; 0
3884  D0430180           [200] forprep    15  6        ; to [207]
3888  D3048003           [201] getupval   19  7      
388C  13050000           [202] getupval   20  0      
3890  0E85040A           [203] gettable   20  20  18 
3894  52058006           [204] move       21  13     
3898  92050007           [205] move       22  14     
389C  E2440002           [206] call       19  4   1  
38A0  D403FE7F           [207] forloop    15  -7       ; to [201] if loop
38A4  D3040000           [208] getupval   19  0      
38A8  CA048009           [209] len        19  19     
38AC  19050000           [210] loadk      20  0        ; 0
38B0  59050900           [211] loadk      21  36       ; 0
38B4  D0840680           [212] forprep    19  27       ; to [240]
38B8  D7050000           [213] loadbool   23  0   0    ; false
38BC  1D460900           [214] getglobal  24  37       ; 248503575
38C0  52060007           [215] move       25  14     
38C4  22060101           [216] call       24  2   4  
38C8  1A400180           [217] jmp        6            ; to [224]
38CC  53070000           [218] getupval   29  0      
38D0  4E87850E           [219] gettable   29  29  22 
fail op	35
38D4  23C0860E           [220] close      0  
38D8  1A400080           [221] jmp        2            ; to [224]
38DC  D7058000           [222] loadbool   23  1   0    ; true
38E0  1A400080           [223] jmp        2            ; to [226]
38E4  16860000           [224] tforloop   24      2    ; to [226] if exit
38E8  1AC0FD7F           [225] jmp        -8           ; to [218]
38EC  D8450000           [226] test       23      1    ; to [228] if false
38F0  1AC00280           [227] jmp        12           ; to [240]
38F4  5D470000           [228] getglobal  29  1        ; mMovie
38F8  6487C00E           [229] self       29  29  258  ; 471456102
38FC  D3070000           [230] getupval   31  0      
3900  CE87850F           [231] gettable   31  31  22 
3904  19C80000           [232] loadk      32  3        ; "_visible"
3908  57080000           [233] loadbool   33  0   0    ; false
390C  62478002           [234] call       29  5   1  
3910  5D870800           [235] getglobal  29  34       ; table
3914  4EC7C80E           [236] gettable   29  29  291  ; -843973282
3918  93070000           [237] getupval   30  0      
391C  D207000B           [238] move       31  22     
3920  62478001           [239] call       29  3   1  
3924  D4C4F87F           [240] forloop    19  -28      ; to [213] if loop
3928  53070000           [241] getupval   29  0      
392C  4A07800E           [242] len        29  29     
fail op	35
3930  2300C80E           [243] close      0  
3934  1A000380           [244] jmp        13           ; to [258]
3938  53070004           [245] getupval   29  8      
393C  4307C00E           [246] add        29  29  256  ; 0
fail op	8
3940  48070004           [247] setupval   29  8      
3944  53070004           [248] getupval   29  8      
3948  93078004           [249] getupval   30  9      
fail op	33
394C  2140070F           [250] tforloop   0       29   ; to [252] if exit
3950  1A800080           [251] jmp        3            ; to [255]
3954  53078002           [252] getupval   29  5      
3958  4307C00E           [253] add        29  29  256  ; 0
fail op	8
395C  48078002           [254] setupval   29  5      
3960  53070005           [255] getupval   29  10     
3964  62478000           [256] call       29  1   1  
3968  1E008000           [257] return     0   1      
396C  5D470900           [258] getglobal  29  37       ; 248503575
3970  92070007           [259] move       30  14     
3974  62070101           [260] call       29  2   4  
3978  1AC00180           [261] jmp        8            ; to [270]
fail op	21
397C  1540088D           [262] concat     0   282 33 
3980  1A400180           [263] jmp        6            ; to [270]
3984  93088005           [264] getupval   34  11     
3988  D2088006           [265] move       35  13     
398C  12090010           [266] move       36  32     
3990  A2488001           [267] call       34  3   1  
3994  4D08C010           [268] sub        33  33  256  ; 0
3998  1AC0FD7F           [269] jmp        -8           ; to [262]
399C  56870000           [270] tforloop   29      2    ; to [272] if exit
39A0  1A40FD7F           [271] jmp        -10          ; to [262]
39A4  93080006           [272] getupval   34  12     
39A8  D2088006           [273] move       35  13     
39AC  A2480001           [274] call       34  2   1  
39B0  99080000           [275] loadk      34  0        ; 0
39B4  D3080000           [276] getupval   35  0      
39B8  CA088011           [277] len        35  35     
39BC  19090000           [278] loadk      36  0        ; 0
39C0  90C80080           [279] forprep    34  4        ; to [284]
39C4  93098006           [280] getupval   38  13     
39C8  D3090000           [281] getupval   39  0      
39CC  CE498913           [282] gettable   39  39  37 
39D0  A2490001           [283] call       38  2   1  
39D4  9488FE7F           [284] forloop    34  -5       ; to [280] if loop
39D8  9D490000           [285] getglobal  38  1        ; mMovie
39DC  A4894913           [286] self       38  38  294  ; 1800181858
39E0  170A8000           [287] loadbool   40  1   0    ; true
39E4  A2498001           [288] call       38  3   1  
39E8  9DC90900           [289] getglobal  38  39       ; gRegion
39EC  A4094A13           [290] self       38  38  296  ; 65205951
39F0  A2890001           [291] call       38  2   2  
39F4  DDC90500           [292] getglobal  39  23       ; 1074689893
39F8  120A0013           [293] move       40  38     
39FC  E2890001           [294] call       39  2   2  
3A00  D8490000           [295] test       39      1    ; to [297] if false
3A04  1AC00E80           [296] jmp        60           ; to [357]
3A08  E4494A13           [297] self       39  38  297  ; -1917464545
3A0C  E2890001           [298] call       39  2   2  
3A10  1DCA0500           [299] getglobal  40  23       ; 1074689893
3A14  520A8013           [300] move       41  39     
3A18  228A0001           [301] call       40  2   2  
3A1C  184A0000           [302] test       40      1    ; to [304] if false
3A20  1A000D80           [303] jmp        53           ; to [357]
3A24  130A0007           [304] getupval   40  14     
3A28  228A8000           [305] call       40  1   2  
3A2C  590A0000           [306] loadk      41  0        ; 0
3A30  A48ACA13           [307] self       42  39  298  ; -2144646911
3A34  1DCB0A00           [308] getglobal  44  43       ; Lotus_Game
3A38  0E0B4B16           [309] gettable   44  44  300  ; "CP_GENERAL"
3A3C  A28A8001           [310] call       42  3   2  
3A40  D90A0000           [311] loadk      43  0        ; 0
3A44  508A0580           [312] forprep    41  23       ; to [336]
3A48  644BCB13           [313] self       45  39  301  ; 28428114
3A4C  CD0B4016           [314] sub        47  44  256  ; 0
3A50  1DCC0A00           [315] getglobal  48  43       ; Lotus_Game
3A54  0E0C4B18           [316] gettable   48  48  300  ; "CP_GENERAL"
3A58  628B0002           [317] call       45  4   2  
3A5C  9DCB0500           [318] getglobal  46  23       ; 1074689893
3A60  D20B8016           [319] move       47  45     
3A64  A28B0001           [320] call       46  2   2  
3A68  984B0000           [321] test       46      1    ; to [323] if false
3A6C  1A000380           [322] jmp        13           ; to [336]
3A70  A48BCB16           [323] self       46  45  302  ; -1957065004
3A74  120C0014           [324] move       48  40     
3A78  A28B8001           [325] call       46  3   2  
3A7C  980B0000           [326] test       46      0    ; to [328] if true
3A80  1AC00180           [327] jmp        8            ; to [336]
3A84  930B8007           [328] getupval   46  15     
3A88  E4CBCB13           [329] self       47  39  303  ; 1797259670
3A8C  4D0C4016           [330] sub        49  44  256  ; 0
3A90  9DCC0A00           [331] getglobal  50  43       ; Lotus_Game
3A94  8E0C4B19           [332] gettable   50  50  300  ; "CP_GENERAL"
3A98  E28B0002           [333] call       47  4   2  
3A9C  83CB0B17           [334] add        46  46  47 
fail op	8
3AA0  880B8007           [335] setupval   46  15     
3AA4  54CAF97F           [336] forloop    41  -24      ; to [313] if loop
3AA8  A40BCC13           [337] self       46  39  304  ; 1769516121
3AAC  A28B0001           [338] call       46  2   2  
3AB0  DDCB0500           [339] getglobal  47  23       ; 1074689893
3AB4  120C0017           [340] move       48  46     
3AB8  E28B0001           [341] call       47  2   2  
3ABC  D84B0000           [342] test       47      1    ; to [344] if false
3AC0  1A000380           [343] jmp        13           ; to [357]
3AC4  E44BCC13           [344] self       47  39  305  ; -940929887
3AC8  590C0800           [345] loadk      49  32       ; 0
3ACC  9D8C0C00           [346] getglobal  50  50       ; Game
3AD0  8ECC4C19           [347] gettable   50  50  307  ; "AVATAR_TIME_LIMIT_INCREASE"
3AD4  E40C4D17           [348] self       51  46  308  ; -491574171
3AD8  E28C0001           [349] call       51  2   2  
3ADC  120D0017           [350] move       52  46     
3AE0  E28B0003           [351] call       47  6   2  
3AE4  130C0002           [352] getupval   48  4      
3AE8  03CC0B18           [353] add        48  48  47 
fail op	8
3AEC  080C0002           [354] setupval   48  4      
3AF0  130C0002           [355] getupval   48  4      
fail op	8
3AF4  080C0008           [356] setupval   48  16     
3AF8  130C8008           [357] getupval   48  17     
3AFC  244C4D18           [358] self       48  48  309  ; -492641364
3B00  930C8007           [359] getupval   50  15     
fail op	21
3B04  55800C90           [360] concat     1   288 50 
3B08  1A000080           [361] jmp        1            ; to [363]
3B0C  974C0000           [362] loadbool   50  0   1    ; false, to [364]
3B10  970C8000           [363] loadbool   50  1   0    ; true
3B14  224C8001           [364] call       48  3   1  
3B18  1D4C0000           [365] getglobal  48  1        ; mMovie
3B1C  248C4D18           [366] self       48  48  310  ; -693657623
3B20  99CC0D00           [367] loadk      50  55       ; "CiphersLeft"
3B24  D90C0E00           [368] loadk      51  56       ; "text"
3B28  194D0E00           [369] loadk      52  57       ; "x "
3B2C  5D8D0E00           [370] getglobal  53  58       ; -1615931716
3B30  930D8007           [371] getupval   54  15     
3B34  628D0001           [372] call       53  2   2  
3B38  024D0D1A           [373] concat     52  52  53 
3B3C  224C8002           [374] call       48  5   1  
3B40  190C0000           [375] loadk      48  0        ; 0
3B44  530C0000           [376] getupval   49  0      
3B48  4A0C8018           [377] len        49  49     
3B4C  990C0000           [378] loadk      50  0        ; 0
3B50  10CC0B80           [379] forprep    48  48       ; to [428]
3B54  1D4D0000           [380] getglobal  52  1        ; mMovie
3B58  24CD4E1A           [381] self       52  52  315  ; 1803241227
3B5C  930D0000           [382] getupval   54  0      
3B60  8ECD0C1B           [383] gettable   54  54  51 
3B64  D90D0F00           [384] loadk      55  60       ; "._x"
3B68  82CD0D1B           [385] concat     54  54  55 
3B6C  228D8001           [386] call       52  3   2  
3B70  5D4D0000           [387] getglobal  53  1        ; mMovie
3B74  64CDCE1A           [388] self       53  53  315  ; 1803241227
3B78  D30D0000           [389] getupval   55  0      
3B7C  CECD8C1B           [390] gettable   55  55  51 
3B80  194E0F00           [391] loadk      56  61       ; "._y"
3B84  C20D8E1B           [392] concat     55  55  56 
3B88  628D8001           [393] call       53  3   2  
3B8C  8D8D4F1A           [394] sub        54  52  318  ; 0
3B90  CDCDCF1A           [395] sub        55  53  319  ; 0
3B94  1D4E0000           [396] getglobal  56  1        ; mMovie
3B98  248E401C           [397] self       56  56  258  ; 471456102
3B9C  930E0000           [398] getupval   58  0      
3BA0  8ECE0C1D           [399] gettable   58  58  51 
3BA4  D90E1000           [400] loadk      59  64       ; "_x"
3BA8  04CF471B           [401] mul        60  54  287  ; 0
3BAC  030F0F1A           [402] add        60  52  60 
3BB0  224E8002           [403] call       56  5   1  
3BB4  1D4E0000           [404] getglobal  56  1        ; mMovie
3BB8  248E401C           [405] self       56  56  258  ; 471456102
3BBC  930E0000           [406] getupval   58  0      
3BC0  8ECE0C1D           [407] gettable   58  58  51 
3BC4  D94E1000           [408] loadk      59  65       ; "_y"
3BC8  04CFC71B           [409] mul        60  55  287  ; 0
3BCC  030F8F1A           [410] add        60  53  60 
3BD0  224E8002           [411] call       56  5   1  
3BD4  1D8E1000           [412] getglobal  56  66       ; 1390508688
3BD8  5D4E0000           [413] getglobal  57  1        ; mMovie
3BDC  930E0000           [414] getupval   58  0      
3BE0  8ECE0C1D           [415] gettable   58  58  51 
3BE4  DDCE1000           [416] getglobal  59  67       ; UISys
3BE8  CE0ED11D           [417] gettable   59  59  324  ; "FlashInstance_EASE_IN_OUT_BACK"
3BEC  0B0F0001           [418] newtable   60  2   0    ; array=2, hash=0
3BF0  590F1000           [419] loadk      61  64       ; "_x"
3BF4  994F1000           [420] loadk      62  65       ; "_y"
3BF8  1B4F0001           [421] setlist    60  2   1    ; index 1 to 2
3BFC  4B0F0001           [422] newtable   61  2   0    ; array=2, hash=0
3C00  920F001A           [423] move       62  52     
3C04  D20F801A           [424] move       63  53     
3C08  5B4F0001           [425] setlist    61  2   1    ; index 1 to 2
3C0C  990F0000           [426] loadk      62  0        ; 0
3C10  224E8003           [427] call       56  7   1  
3C14  148CF37F           [428] forloop    48  -49      ; to [380] if loop
3C18  130E0002           [429] getupval   56  4      
fail op	8
3C1C  080E0008           [430] setupval   56  16     
3C20  170E8000           [431] loadbool   56  1   0    ; true
fail op	8
3C24  080E0009           [432] setupval   56  18     
3C28  170E0000           [433] loadbool   56  0   0    ; false
fail op	8
3C2C  080E8009           [434] setupval   56  19     
3C30  1E008000           [435] return     0   1      
                         * constants:
3C34  45                 sizek (69)
3C35  03                 const type 3
3C36  0000803F           const [0]: (0)
3C3A  04                 const type 4
3C3B  07                 string size (7)
3C3C  6D4D6F76696500     "mMovie\0"
                         const [1]: "mMovie"
3C43  01                 const type 3
3C44  66D9191C           const [2]: (471456102)
3C48  04                 const type 4
3C49  09                 string size (9)
3C4A  5F76697369626C65+  "_visible"
3C52  00                 "\0"
                         const [3]: "_visible"
3C53  01                 const type 3
3C54  A9AF648C           const [4]: (-1939558487)
3C58  04                 const type 4
3C59  10                 string size (16)
3C5A  2E42672E676F746F+  ".Bg.goto"
3C62  416E6453746F7000   "AndStop\0"
                         const [5]: ".Bg.gotoAndStop"
3C6A  01                 const type 3
3C6B  A22217F8           const [6]: (-132701534)
3C6F  04                 const type 4
3C70  09                 string size (9)
3C71  53656C6563746564+  "Selected"
3C79  00                 "\0"
                         const [7]: "Selected"
3C7A  04                 const type 4
3C7B  07                 string size (7)
3C7C  41637469766500     "Active\0"
                         const [8]: "Active"
3C83  04                 const type 4
3C84  08                 string size (8)
3C85  656E61626C656400   "enabled\0"
                         const [9]: "enabled"
3C8D  04                 const type 4
3C8E  0A                 string size (10)
3C8F  636C69636B61626C+  "clickabl"
3C97  6500               "e\0"
                         const [10]: "clickable"
3C99  01                 const type 3
3C9A  A7960188           const [11]: (-2013161817)
3C9E  04                 const type 4
3C9F  07                 string size (7)
3CA0  4D6964646C6500     "Middle\0"
                         const [12]: "Middle"
3CA7  03                 const type 3
3CA8  0000C040           const [13]: (0)
3CAC  04                 const type 4
3CAD  06                 string size (6)
3CAE  2E4C696E6500       ".Line\0"
                         const [14]: ".Line"
3CB4  04                 const type 4
3CB5  05                 string size (5)
3CB6  6D61746800         "math\0"
                         const [15]: "math"
3CBB  01                 const type 3
3CBC  F7615986           const [16]: (-2040962569)
3CC0  03                 const type 3
3CC1  00007041           const [17]: (0)
3CC5  03                 const type 3
3CC6  0000A041           const [18]: (0)
3CCA  04                 const type 4
3CCB  03                 string size (3)
3CCC  5F5400             "_T\0"
                         const [19]: "_T"
3CCF  04                 const type 4
3CD0  12                 string size (18)
3CD1  636970686572466F+  "cipherFo"
3CD9  72676976656E6573+  "rgivenes"
3CE1  7300               "s\0"
                         const [20]: "cipherForgiveness"
3CE3  03                 const type 3
3CE4  00009643           const [21]: (0)
3CE8  01                 const type 3
3CE9  7EA7B388           const [22]: (-2001492098)
3CED  01                 const type 3
3CEE  65770E40           const [23]: (1074689893)
3CF2  04                 const type 4
3CF3  18                 string size (24)
3CF4  6861636B696E6754+  "hackingT"
3CFC  75746F7269616C4F+  "utorialO"
3D04  7665727269646500   "verride\0"
                         const [24]: "hackingTutorialOverride"
3D0C  04                 const type 4
3D0D  13                 string size (19)
3D0E  576172656672616D+  "Warefram"
3D16  654368616C6C656E+  "eChallen"
3D1E  676500             "ge\0"
                         const [25]: "WareframeChallenge"
3D21  03                 const type 3
3D22  00008040           const [26]: (0)
3D26  04                 const type 4
3D27  0F                 string size (15)
3D28  4F626A6563746976+  "Objectiv"
3D30  6554696D657200     "eTimer\0"
                         const [27]: "ObjectiveTimer"
3D37  04                 const type 4
3D38  05                 string size (5)
3D39  4461746100         "Data\0"
                         const [28]: "Data"
3D3E  04                 const type 4
3D3F  05                 string size (5)
3D40  54696D6500         "Time\0"
                         const [29]: "Time"
3D45  03                 const type 3
3D46  00000040           const [30]: (0)
3D4A  03                 const type 3
3D4B  00004040           const [31]: (0)
3D4F  03                 const type 3
3D50  00000000           const [32]: (0)
3D54  04                 const type 4
3D55  09                 string size (9)
3D56  496E616374697665+  "Inactive"
3D5E  00                 "\0"
                         const [33]: "Inactive"
3D5F  04                 const type 4
3D60  06                 string size (6)
3D61  7461626C6500       "table\0"
                         const [34]: "table"
3D67  01                 const type 3
3D68  5EFDB1CD           const [35]: (-843973282)
3D6C  03                 const type 3
3D6D  000080BF           const [36]: (0)
3D71  01                 const type 3
3D72  17DDCF0E           const [37]: (248503575)
3D76  01                 const type 3
3D77  62984C6B           const [38]: (1800181858)
3D7B  04                 const type 4
3D7C  08                 string size (8)
3D7D  67526567696F6E00   "gRegion\0"
                         const [39]: "gRegion"
3D85  01                 const type 3
3D86  BFF6E203           const [40]: (65205951)
3D8A  01                 const type 3
3D8B  1FD0B58D           const [41]: (-1917464545)
3D8F  01                 const type 3
3D90  01492B80           const [42]: (-2144646911)
3D94  04                 const type 4
3D95  0B                 string size (11)
3D96  4C6F7475735F4761+  "Lotus_Ga"
3D9E  6D6500             "me\0"
                         const [43]: "Lotus_Game"
3DA1  04                 const type 4
3DA2  0B                 string size (11)
3DA3  43505F47454E4552+  "CP_GENER"
3DAB  414C00             "AL\0"
                         const [44]: "CP_GENERAL"
3DAE  01                 const type 3
3DAF  52C7B101           const [45]: (28428114)
3DB3  01                 const type 3
3DB4  D48E598B           const [46]: (-1957065004)
3DB8  01                 const type 3
3DB9  9601206B           const [47]: (1797259670)
3DBD  01                 const type 3
3DBE  59AC7869           const [48]: (1769516121)
3DC2  01                 const type 3
3DC3  A18CEAC7           const [49]: (-940929887)
3DC7  04                 const type 4
3DC8  05                 string size (5)
3DC9  47616D6500         "Game\0"
                         const [50]: "Game"
3DCE  04                 const type 4
3DCF  1B                 string size (27)
3DD0  4156415441525F54+  "AVATAR_T"
3DD8  494D455F4C494D49+  "IME_LIMI"
3DE0  545F494E43524541+  "T_INCREA"
3DE8  534500             "SE\0"
                         const [51]: "AVATAR_TIME_LIMIT_INCREASE"
3DEB  01                 const type 3
3DEC  652CB3E2           const [52]: (-491574171)
3DF0  01                 const type 3
3DF1  ACE3A2E2           const [53]: (-492641364)
3DF5  01                 const type 3
3DF6  E99FA7D6           const [54]: (-693657623)
3DFA  04                 const type 4
3DFB  0C                 string size (12)
3DFC  436970686572734C+  "CiphersL"
3E04  65667400           "eft\0"
                         const [55]: "CiphersLeft"
3E08  04                 const type 4
3E09  05                 string size (5)
3E0A  7465787400         "text\0"
                         const [56]: "text"
3E0F  04                 const type 4
3E10  03                 string size (3)
3E11  782000             "x \0"
                         const [57]: "x "
3E14  01                 const type 3
3E15  BCD6AE9F           const [58]: (-1615931716)
3E19  01                 const type 3
3E1A  0B477B6B           const [59]: (1803241227)
3E1E  04                 const type 4
3E1F  04                 string size (4)
3E20  2E5F7800           "._x\0"
                         const [60]: "._x"
3E24  04                 const type 4
3E25  04                 string size (4)
3E26  2E5F7900           "._y\0"
                         const [61]: "._y"
3E2A  03                 const type 3
3E2B  00002044           const [62]: (0)
3E2F  03                 const type 3
3E30  0000B443           const [63]: (0)
3E34  04                 const type 4
3E35  03                 string size (3)
3E36  5F7800             "_x\0"
                         const [64]: "_x"
3E39  04                 const type 4
3E3A  03                 string size (3)
3E3B  5F7900             "_y\0"
                         const [65]: "_y"
3E3E  01                 const type 3
3E3F  907AE152           const [66]: (1390508688)
3E43  04                 const type 4
3E44  06                 string size (6)
3E45  554953797300       "UISys\0"
                         const [67]: "UISys"
3E4B  04                 const type 4
3E4C  1F                 string size (31)
3E4D  466C617368496E73+  "FlashIns"
3E55  74616E63655F4541+  "tance_EA"
3E5D  53455F494E5F4F55+  "SE_IN_OU"
3E65  545F4241434B00     "T_BACK\0"
                         const [68]: "FlashInstance_EASE_IN_OUT_BACK"
                         * functions:
3E6C  00                 sizep (0)
                         * lines:
3E6E  03                 sizelineinfo (435)
                         [pc] (line)
3E6F  32                 [001] (50)
3E70  02                 [002] (50)
3E71  00                 [003] (51)
3E72  00                 [004] (51)
3E73  32                 [005] (51)
3E74  02                 [006] (51)
3E75  00                 [007] (51)
3E76  00                 [008] (52)
3E77  33                 [009] (52)
3E78  02                 [010] (52)
3E79  00                 [011] (52)
3E7A  00                 [012] (53)
3E7B  33                 [013] (53)
3E7C  02                 [014] (53)
3E7D  00                 [015] (53)
3E7E  00                 [016] (53)
3E7F  33                 [017] (53)
3E80  02                 [018] (53)
3E81  00                 [019] (54)
3E82  00                 [020] (54)
3E83  33                 [021] (54)
3E84  02                 [022] (54)
3E85  00                 [023] (54)
3E86  00                 [024] (54)
3E87  33                 [025] (54)
3E88  02                 [026] (54)
3E89  00                 [027] (54)
3E8A  00                 [028] (54)
3E8B  34                 [029] (54)
3E8C  02                 [030] (54)
3E8D  00                 [031] (54)
3E8E  00                 [032] (54)
3E8F  34                 [033] (54)
3E90  02                 [034] (54)
3E91  00                 [035] (54)
3E92  00                 [036] (54)
3E93  34                 [037] (54)
3E94  02                 [038] (54)
3E95  00                 [039] (54)
3E96  00                 [040] (54)
3E97  34                 [041] (54)
3E98  02                 [042] (55)
3E99  00                 [043] (55)
3E9A  00                 [044] (55)
3E9B  35                 [045] (55)
3E9C  02                 [046] (55)
3E9D  00                 [047] (55)
3E9E  00                 [048] (55)
3E9F  35                 [049] (55)
3EA0  02                 [050] (55)
3EA1  00                 [051] (56)
3EA2  00                 [052] (56)
3EA3  35                 [053] (56)
3EA4  02                 [054] (56)
3EA5  00                 [055] (56)
3EA6  00                 [056] (56)
3EA7  35                 [057] (56)
3EA8  02                 [058] (56)
3EA9  00                 [059] (56)
3EAA  00                 [060] (57)
3EAB  35                 [061] (57)
3EAC  02                 [062] (57)
3EAD  00                 [063] (57)
3EAE  00                 [064] (57)
3EAF  35                 [065] (57)
3EB0  02                 [066] (57)
3EB1  00                 [067] (57)
3EB2  00                 [068] (57)
3EB3  35                 [069] (57)
3EB4  02                 [070] (58)
3EB5  00                 [071] (58)
3EB6  00                 [072] (58)
3EB7  36                 [073] (58)
3EB8  02                 [074] (59)
3EB9  00                 [075] (59)
3EBA  00                 [076] (59)
3EBB  36                 [077] (59)
3EBC  02                 [078] (59)
3EBD  00                 [079] (59)
3EBE  00                 [080] (59)
3EBF  36                 [081] (59)
3EC0  02                 [082] (59)
3EC1  00                 [083] (59)
3EC2  00                 [084] (58)
3EC3  36                 [085] (51)
3EC4  02                 [086] (63)
3EC5  00                 [087] (63)
3EC6  00                 [088] (63)
3EC7  36                 [089] (63)
3EC8  02                 [090] (63)
3EC9  00                 [091] (63)
3ECA  00                 [092] (65)
3ECB  36                 [093] (65)
3ECC  02                 [094] (65)
3ECD  00                 [095] (65)
3ECE  00                 [096] (66)
3ECF  36                 [097] (66)
3ED0  02                 [098] (69)
3ED1  00                 [099] (69)
3ED2  00                 [100] (69)
3ED3  36                 [101] (69)
3ED4  02                 [102] (69)
3ED5  00                 [103] (71)
3ED6  00                 [104] (71)
3ED7  36                 [105] (71)
3ED8  02                 [106] (71)
3ED9  00                 [107] (71)
3EDA  00                 [108] (71)
3EDB  36                 [109] (72)
3EDC  02                 [110] (72)
3EDD  00                 [111] (72)
3EDE  00                 [112] (72)
3EDF  36                 [113] (73)
3EE0  02                 [114] (73)
3EE1  00                 [115] (73)
3EE2  00                 [116] (73)
3EE3  36                 [117] (74)
3EE4  02                 [118] (74)
3EE5  00                 [119] (75)
3EE6  00                 [120] (75)
3EE7  36                 [121] (75)
3EE8  02                 [122] (75)
3EE9  00                 [123] (76)
3EEA  00                 [124] (76)
3EEB  36                 [125] (76)
3EEC  02                 [126] (76)
3EED  00                 [127] (76)
3EEE  00                 [128] (81)
3EEF  36                 [129] (82)
3EF0  02                 [130] (82)
3EF1  00                 [131] (82)
3EF2  00                 [132] (83)
3EF3  36                 [133] (83)
3EF4  02                 [134] (84)
3EF5  00                 [135] (84)
3EF6  00                 [136] (84)
3EF7  36                 [137] (85)
3EF8  02                 [138] (85)
3EF9  00                 [139] (86)
3EFA  00                 [140] (86)
3EFB  36                 [141] (86)
3EFC  02                 [142] (87)
3EFD  00                 [143] (90)
3EFE  00                 [144] (90)
3EFF  36                 [145] (90)
3F00  02                 [146] (90)
3F01  00                 [147] (91)
3F02  00                 [148] (91)
3F03  36                 [149] (91)
3F04  02                 [150] (91)
3F05  00                 [151] (91)
3F06  00                 [152] (91)
3F07  36                 [153] (91)
3F08  02                 [154] (91)
3F09  00                 [155] (91)
3F0A  00                 [156] (91)
3F0B  36                 [157] (92)
3F0C  02                 [158] (92)
3F0D  00                 [159] (92)
3F0E  00                 [160] (92)
3F0F  36                 [161] (92)
3F10  02                 [162] (92)
3F11  00                 [163] (92)
3F12  00                 [164] (92)
3F13  37                 [165] (92)
3F14  02                 [166] (93)
3F15  00                 [167] (93)
3F16  00                 [168] (93)
3F17  37                 [169] (93)
3F18  02                 [170] (93)
3F19  00                 [171] (93)
3F1A  00                 [172] (93)
3F1B  37                 [173] (93)
3F1C  02                 [174] (93)
3F1D  00                 [175] (94)
3F1E  00                 [176] (94)
3F1F  37                 [177] (94)
3F20  02                 [178] (94)
3F21  00                 [179] (94)
3F22  00                 [180] (94)
3F23  37                 [181] (94)
3F24  02                 [182] (94)
3F25  00                 [183] (94)
3F26  00                 [184] (94)
3F27  37                 [185] (95)
3F28  02                 [186] (95)
3F29  00                 [187] (95)
3F2A  00                 [188] (95)
3F2B  37                 [189] (95)
3F2C  02                 [190] (95)
3F2D  00                 [191] (90)
3F2E  00                 [192] (98)
3F2F  37                 [193] (98)
3F30  02                 [194] (99)
3F31  00                 [195] (100)
3F32  00                 [196] (102)
3F33  37                 [197] (102)
3F34  02                 [198] (102)
3F35  00                 [199] (102)
3F36  00                 [200] (102)
3F37  38                 [201] (103)
3F38  02                 [202] (103)
3F39  00                 [203] (103)
3F3A  00                 [204] (103)
3F3B  38                 [205] (103)
3F3C  02                 [206] (103)
3F3D  00                 [207] (102)
3F3E  00                 [208] (106)
3F3F  38                 [209] (106)
3F40  02                 [210] (106)
3F41  00                 [211] (106)
3F42  00                 [212] (106)
3F43  38                 [213] (107)
3F44  02                 [214] (108)
3F45  00                 [215] (108)
3F46  00                 [216] (108)
3F47  38                 [217] (108)
3F48  02                 [218] (109)
3F49  00                 [219] (109)
3F4A  00                 [220] (109)
3F4B  38                 [221] (109)
3F4C  02                 [222] (110)
3F4D  00                 [223] (111)
3F4E  00                 [224] (108)
3F4F  38                 [225] (112)
3F50  02                 [226] (114)
3F51  00                 [227] (114)
3F52  00                 [228] (115)
3F53  38                 [229] (115)
3F54  02                 [230] (115)
3F55  00                 [231] (115)
3F56  00                 [232] (115)
3F57  38                 [233] (115)
3F58  02                 [234] (115)
3F59  00                 [235] (116)
3F5A  00                 [236] (116)
3F5B  39                 [237] (116)
3F5C  02                 [238] (116)
3F5D  00                 [239] (116)
3F5E  00                 [240] (106)
3F5F  39                 [241] (120)
3F60  02                 [242] (120)
3F61  00                 [243] (120)
3F62  00                 [244] (120)
3F63  39                 [245] (123)
3F64  02                 [246] (123)
3F65  00                 [247] (123)
3F66  00                 [248] (124)
3F67  39                 [249] (124)
3F68  02                 [250] (124)
3F69  00                 [251] (124)
3F6A  00                 [252] (-128)
3F6B  39                 [253] (-128)
3F6C  02                 [254] (-128)
3F6D  00                 [255] (-126)
3F6E  00                 [256] (-126)
3F6F  39                 [257] (-125)
3F70  02                 [258] (-122)
3F71  00                 [259] (-122)
3F72  00                 [260] (-122)
3F73  39                 [261] (-122)
3F74  02                 [262] (-121)
3F75  00                 [263] (-121)
3F76  00                 [264] (-120)
3F77  39                 [265] (-120)
3F78  02                 [266] (-120)
3F79  00                 [267] (-120)
3F7A  00                 [268] (-119)
3F7B  39                 [269] (-119)
3F7C  02                 [270] (-122)
3F7D  00                 [271] (-118)
3F7E  00                 [272] (-115)
3F7F  39                 [273] (-115)
3F80  02                 [274] (-115)
3F81  00                 [275] (-113)
3F82  00                 [276] (-113)
3F83  3A                 [277] (-113)
3F84  02                 [278] (-113)
3F85  00                 [279] (-113)
3F86  00                 [280] (-112)
3F87  3A                 [281] (-112)
3F88  02                 [282] (-112)
3F89  00                 [283] (-112)
3F8A  00                 [284] (-113)
3F8B  3A                 [285] (-109)
3F8C  02                 [286] (-109)
3F8D  00                 [287] (-109)
3F8E  00                 [288] (-109)
3F8F  3A                 [289] (-107)
3F90  02                 [290] (-107)
3F91  00                 [291] (-107)
3F92  00                 [292] (-106)
3F93  3B                 [293] (-106)
3F94  02                 [294] (-106)
3F95  00                 [295] (-106)
3F96  00                 [296] (-106)
3F97  3B                 [297] (-105)
3F98  02                 [298] (-105)
3F99  00                 [299] (-103)
3F9A  00                 [300] (-103)
3F9B  3B                 [301] (-103)
3F9C  02                 [302] (-103)
3F9D  00                 [303] (-103)
3F9E  00                 [304] (-102)
3F9F  3B                 [305] (-102)
3FA0  02                 [306] (-101)
3FA1  00                 [307] (-101)
3FA2  00                 [308] (-101)
3FA3  3B                 [309] (-101)
3FA4  02                 [310] (-101)
3FA5  00                 [311] (-101)
3FA6  00                 [312] (-101)
3FA7  3B                 [313] (-100)
3FA8  02                 [314] (-100)
3FA9  00                 [315] (-100)
3FAA  00                 [316] (-100)
3FAB  3B                 [317] (-100)
3FAC  02                 [318] (-98)
3FAD  00                 [319] (-98)
3FAE  00                 [320] (-98)
3FAF  3B                 [321] (-98)
3FB0  02                 [322] (-98)
3FB1  00                 [323] (-98)
3FB2  00                 [324] (-98)
3FB3  3B                 [325] (-98)
3FB4  02                 [326] (-98)
3FB5  00                 [327] (-98)
3FB6  00                 [328] (-97)
3FB7  3B                 [329] (-97)
3FB8  02                 [330] (-97)
3FB9  00                 [331] (-97)
3FBA  00                 [332] (-97)
3FBB  3A                 [333] (-97)
3FBC  02                 [334] (-97)
3FBD  00                 [335] (-97)
3FBE  00                 [336] (-101)
3FBF  33                 [337] (-92)
3FC0  02                 [338] (-92)
3FC1  00                 [339] (-91)
3FC2  00                 [340] (-91)
3FC3  3F                 [341] (-91)
3FC4  02                 [342] (-91)
3FC5  00                 [343] (-91)
3FC6  00                 [344] (-90)
3FC7  3F                 [345] (-90)
3FC8  02                 [346] (-90)
3FC9  00                 [347] (-90)
3FCA  00                 [348] (-90)
3FCB  3F                 [349] (-90)
3FCC  02                 [350] (-90)
3FCD  00                 [351] (-90)
3FCE  00                 [352] (-89)
3FCF  3F                 [353] (-89)
3FD0  02                 [354] (-89)
3FD1  00                 [355] (-88)
3FD2  00                 [356] (-88)
3FD3  3F                 [357] (-83)
3FD4  02                 [358] (-83)
3FD5  00                 [359] (-83)
3FD6  00                 [360] (-83)
3FD7  3F                 [361] (-83)
3FD8  02                 [362] (-83)
3FD9  00                 [363] (-83)
3FDA  00                 [364] (-83)
3FDB  41                 [365] (-82)
3FDC  02                 [366] (-82)
3FDD  00                 [367] (-82)
3FDE  00                 [368] (-82)
3FDF  41                 [369] (-82)
3FE0  02                 [370] (-82)
3FE1  00                 [371] (-82)
3FE2  00                 [372] (-82)
3FE3  41                 [373] (-82)
3FE4  02                 [374] (-82)
3FE5  00                 [375] (-80)
3FE6  00                 [376] (-80)
3FE7  41                 [377] (-80)
3FE8  02                 [378] (-80)
3FE9  00                 [379] (-80)
3FEA  00                 [380] (-79)
3FEB  42                 [381] (-79)
3FEC  02                 [382] (-79)
3FED  00                 [383] (-79)
3FEE  00                 [384] (-79)
3FEF  42                 [385] (-79)
3FF0  02                 [386] (-79)
3FF1  00                 [387] (-78)
3FF2  00                 [388] (-78)
3FF3  45                 [389] (-78)
3FF4  02                 [390] (-78)
3FF5  00                 [391] (-78)
3FF6  00                 [392] (-78)
3FF7  45                 [393] (-78)
3FF8  02                 [394] (-77)
3FF9  00                 [395] (-76)
3FFA  00                 [396] (-75)
3FFB  45                 [397] (-75)
3FFC  02                 [398] (-75)
3FFD  00                 [399] (-75)
3FFE  00                 [400] (-75)
3FFF  45                 [401] (-75)
4000  02                 [402] (-75)
4001  00                 [403] (-75)
4002  00                 [404] (-74)
4003  45                 [405] (-74)
4004  02                 [406] (-74)
4005  00                 [407] (-74)
4006  00                 [408] (-74)
4007  47                 [409] (-74)
4008  02                 [410] (-74)
4009  00                 [411] (-74)
400A  00                 [412] (-73)
400B  47                 [413] (-73)
400C  02                 [414] (-73)
400D  00                 [415] (-73)
400E  00                 [416] (-73)
400F  47                 [417] (-73)
4010  02                 [418] (-73)
4011  00                 [419] (-73)
4012  00                 [420] (-73)
4013  47                 [421] (-73)
4014  02                 [422] (-73)
4015  00                 [423] (-73)
4016  00                 [424] (-73)
4017  47                 [425] (-73)
4018  02                 [426] (-73)
4019  00                 [427] (-73)
401A  00                 [428] (-80)
401B  47                 [429] (-69)
401C  02                 [430] (-69)
401D  00                 [431] (-67)
401E  00                 [432] (-67)
401F  48                 [433] (-66)
4020  02                 [434] (-66)
4021  00                 [435] (-65)
                         * locals:
453B  00                 sizelocvars (0)
                         * upvalues:
453C  00                 sizeupvalues (0)
                         ** end of function **

                         
453D                     ** function [25] definition (level 2)
                         ** start of function **
453D  00                 string size (0)
                         source name: (none)
453F  05                 line defined (705)
4540  C5                 last line defined (709)
4541  05                 nups (2)
4542  02                 numparams (1)
4543  01                 is_vararg (0)
4544  00                 maxstacksize (3)
                         * code:
4546  07                 sizecode (7)
4547  5D000000           [1] getglobal  1   0        ; -174740002
454B  92000000           [2] move       2   0      
454F  62800001           [3] call       1   2   2  
fail op	8
4553  48000000           [4] setupval   1   0      
4557  53008000           [5] getupval   1   1      
455B  62408000           [6] call       1   1   1  
455F  1E008000           [7] return     0   1      
                         * constants:
4563  01                 sizek (1)
4564  01                 const type 3
4565  DEAD95F5           const [0]: (-174740002)
                         * functions:
4569  00                 sizep (0)
                         * lines:
456A  07                 sizelineinfo (7)
                         [pc] (line)
456B  C2                 [1] (-62)
456C  02                 [2] (-62)
456D  00                 [3] (-62)
456E  00                 [4] (-62)
456F  C2                 [5] (-60)
4570  02                 [6] (-60)
4571  00                 [7] (-59)
                         * locals:
4587  00                 sizelocvars (0)
                         * upvalues:
4588  00                 sizeupvalues (0)
                         ** end of function **

                         
4589                     ** function [26] definition (level 2)
                         ** start of function **
4589  00                 string size (0)
                         source name: (none)
458B  05                 line defined (711)
458C  DC                 last line defined (732)
458D  05                 nups (1)
458E  01                 numparams (1)
458F  01                 is_vararg (0)
4590  00                 maxstacksize (13)
                         * code:
4592  39                 sizecode (57)
4593  59000000           [01] loadk      1   0        ; 0
4597  A4404000           [02] self       2   0   257  ; 366271214
459B  1D810000           [03] getglobal  4   2        ; gDecorationType
459F  A2808001           [04] call       2   3   2  
45A3  E4C04000           [05] self       3   0   259  ; -1625438872
45A7  5D010100           [06] getglobal  5   4        ; gLensFlareType
45AB  E2808001           [07] call       3   3   2  
fail op	21
45AF  15408082           [08] concat     0   261 1  
45B3  1A800680           [09] jmp        27           ; to [37]
45B7  1D810100           [10] getglobal  4   6        ; 1672515847
45BB  52010001           [11] move       5   2      
45BF  22010101           [12] call       4   2   4  
45C3  1A000180           [13] jmp        5            ; to [19]
45C7  64C24104           [14] self       9   8   263  ; -786111647
45CB  DD020200           [15] getglobal  11  8        ; Lotus_Game
45CF  CE42C205           [16] gettable   11  11  265  ; "UNLIT_ATTEN"
45D3  12038000           [17] move       12  1      
45D7  62420002           [18] call       9   4   1  
45DB  16810000           [19] tforloop   4       2    ; to [21] if exit
45DF  1A00FE7F           [20] jmp        -7           ; to [14]
45E3  5D820200           [21] getglobal  9   10       ; 1074689893
45E7  92028001           [22] move       10  3      
45EB  62820001           [23] call       9   2   2  
45EF  58420000           [24] test       9       1    ; to [26] if false
45F3  1A800080           [25] jmp        3            ; to [29]
45F7  64C2C201           [26] self       9   3   267  ; -1107555868
45FB  D2028000           [27] move       11  1      
45FF  62428001           [28] call       9   3   1  
4603  5D020300           [29] getglobal  9   12       ; 1289681407
4607  62828000           [30] call       9   1   2  
460B  4442C304           [31] mul        9   9   269  ; 0
460F  4D408200           [32] sub        1   1   9  
4613  5D820300           [33] getglobal  9   14       ; 538022378
4617  99420100           [34] loadk      10  5        ; 0
461B  62420001           [35] call       9   2   1  
461F  1A80F87F           [36] jmp        -29          ; to [8]
fail op	21
4623  1500C000           [37] concat     0   1   256
4627  1A400380           [38] jmp        14           ; to [53]
462B  64C24300           [39] self       9   0   271  ; -703571861
462F  D2028000           [40] move       11  1      
4633  62428001           [41] call       9   3   1  
4637  64024400           [42] self       9   0   272  ; 1786666898
463B  CD420080           [43] sub        11  256 1    ; 0
463F  62428001           [44] call       9   3   1  
4643  5D020300           [45] getglobal  9   12       ; 1289681407
4647  62828000           [46] call       9   1   2  
464B  4442C404           [47] mul        9   9   273  ; 0
464F  43408200           [48] add        1   1   9  
4653  5D820300           [49] getglobal  9   14       ; 538022378
4657  99420100           [50] loadk      10  5        ; 0
465B  62420001           [51] call       9   2   1  
465F  1AC0FB7F           [52] jmp        -16          ; to [37]
4663  5D820400           [53] getglobal  9   18       ; gRegion
4667  64C2C404           [54] self       9   9   275  ; -1693828985
466B  D3020000           [55] getupval   11  0      
466F  62428001           [56] call       9   3   1  
4673  1E008000           [57] return     0   1      
                         * constants:
4677  14                 sizek (20)
4678  03                 const type 3
4679  0000803F           const [0]: (0)
467D  01                 const type 3
467E  EEDAD415           const [1]: (366271214)
4682  04                 const type 4
4683  10                 string size (16)
4684  674465636F726174+  "gDecorat"
468C  696F6E5479706500   "ionType\0"
                         const [2]: "gDecorationType"
4694  01                 const type 3
4695  68C51D9F           const [3]: (-1625438872)
4699  04                 const type 4
469A  0F                 string size (15)
469B  674C656E73466C61+  "gLensFla"
46A3  72655479706500     "reType\0"
                         const [4]: "gLensFlareType"
46AA  03                 const type 3
46AB  00000000           const [5]: (0)
46AF  01                 const type 3
46B0  0791B063           const [6]: (1672515847)
46B4  01                 const type 3
46B5  61E324D1           const [7]: (-786111647)
46B9  04                 const type 4
46BA  0B                 string size (11)
46BB  4C6F7475735F4761+  "Lotus_Ga"
46C3  6D6500             "me\0"
                         const [8]: "Lotus_Game"
46C6  04                 const type 4
46C7  0C                 string size (12)
46C8  554E4C49545F4154+  "UNLIT_AT"
46D0  54454E00           "TEN\0"
                         const [9]: "UNLIT_ATTEN"
46D4  01                 const type 3
46D5  65770E40           const [10]: (1074689893)
46D9  01                 const type 3
46DA  E409FCBD           const [11]: (-1107555868)
46DE  01                 const type 3
46DF  FFF9DE4C           const [12]: (1289681407)
46E3  03                 const type 3
46E4  00008040           const [13]: (0)
46E8  01                 const type 3
46E9  EA911120           const [14]: (538022378)
46ED  01                 const type 3
46EE  6B5810D6           const [15]: (-703571861)
46F2  01                 const type 3
46F3  925F7E6A           const [16]: (1786666898)
46F7  03                 const type 3
46F8  00004040           const [17]: (0)
46FC  04                 const type 4
46FD  08                 string size (8)
46FE  67526567696F6E00   "gRegion\0"
                         const [18]: "gRegion"
4706  01                 const type 3
4707  87380A9B           const [19]: (-1693828985)
                         * functions:
470B  00                 sizep (0)
                         * lines:
470C  39                 sizelineinfo (57)
                         [pc] (line)
470D  C8                 [01] (-56)
470E  02                 [02] (-55)
470F  00                 [03] (-55)
4710  00                 [04] (-55)
4711  C9                 [05] (-54)
4712  02                 [06] (-54)
4713  00                 [07] (-54)
4714  00                 [08] (-53)
4715  C9                 [09] (-53)
4716  02                 [10] (-52)
4717  00                 [11] (-52)
4718  00                 [12] (-52)
4719  C9                 [13] (-52)
471A  02                 [14] (-51)
471B  00                 [15] (-51)
471C  00                 [16] (-51)
471D  CA                 [17] (-51)
471E  02                 [18] (-51)
471F  00                 [19] (-52)
4720  00                 [20] (-51)
4721  CA                 [21] (-49)
4722  02                 [22] (-49)
4723  00                 [23] (-49)
4724  00                 [24] (-49)
4725  CA                 [25] (-49)
4726  02                 [26] (-48)
4727  00                 [27] (-48)
4728  00                 [28] (-48)
4729  CB                 [29] (-46)
472A  02                 [30] (-46)
472B  00                 [31] (-46)
472C  00                 [32] (-46)
472D  CB                 [33] (-45)
472E  02                 [34] (-45)
472F  00                 [35] (-45)
4730  00                 [36] (-45)
4731  CC                 [37] (-43)
4732  02                 [38] (-43)
4733  00                 [39] (-42)
4734  00                 [40] (-42)
4735  CC                 [41] (-42)
4736  02                 [42] (-41)
4737  00                 [43] (-41)
4738  00                 [44] (-41)
4739  CC                 [45] (-40)
473A  02                 [46] (-40)
473B  00                 [47] (-40)
473C  00                 [48] (-40)
473D  CC                 [49] (-39)
473E  02                 [50] (-39)
473F  00                 [51] (-39)
4740  00                 [52] (-39)
4741  CD                 [53] (-37)
4742  02                 [54] (-37)
4743  00                 [55] (-37)
4744  00                 [56] (-37)
4745  CD                 [57] (-36)
                         * locals:
47F1  00                 sizelocvars (0)
                         * upvalues:
47F2  00                 sizeupvalues (0)
                         ** end of function **

                         
47F3                     ** function [27] definition (level 2)
                         ** start of function **
47F3  00                 string size (0)
                         source name: (none)
47F5  05                 line defined (734)
47F6  EB                 last line defined (747)
47F7  05                 nups (0)
47F8  00                 numparams (0)
47F9  00                 is_vararg (0)
47FA  00                 maxstacksize (14)
                         * code:
47FC  20                 sizecode (32)
47FD  1D000000           [01] getglobal  0   0        ; gRegion
4801  24404000           [02] self       0   0   257  ; 65205951
4805  22800001           [03] call       0   2   2  
4809  5D800000           [04] getglobal  1   2        ; 248503575
480D  9DC00000           [05] getglobal  2   3        ; hackingLoopAnims
4811  62000101           [06] call       1   2   4  
4815  1A800180           [07] jmp        7            ; to [15]
4819  A4014100           [08] self       6   0   260  ; -1224103631
481D  12028002           [09] move       8   5      
4821  A2818001           [10] call       6   3   2  
4825  98010000           [11] test       6       0    ; to [13] if true
4829  1A400080           [12] jmp        2            ; to [15]
482D  97018000           [13] loadbool   6   1   0    ; true
4831  9E010001           [14] return     6   2      
4835  56800000           [15] tforloop   1       2    ; to [17] if exit
4839  1A80FD7F           [16] jmp        -9           ; to [8]
483D  9D810000           [17] getglobal  6   2        ; 248503575
4841  DD410100           [18] getglobal  7   5        ; hackingEndAnims
4845  A2010101           [19] call       6   2   4  
4849  1A800180           [20] jmp        7            ; to [28]
484D  E4024100           [21] self       11  0   260  ; -1224103631
4851  52030005           [22] move       13  10     
4855  E2828001           [23] call       11  3   2  
4859  D8020000           [24] test       11      0    ; to [26] if true
485D  1A400080           [25] jmp        2            ; to [28]
4861  D7028000           [26] loadbool   11  1   0    ; true
4865  DE020001           [27] return     11  2      
4869  96810000           [28] tforloop   6       2    ; to [30] if exit
486D  1A80FD7F           [29] jmp        -9           ; to [21]
4871  D7020000           [30] loadbool   11  0   0    ; false
4875  DE020001           [31] return     11  2      
4879  1E008000           [32] return     0   1      
                         * constants:
487D  06                 sizek (6)
487E  04                 const type 4
487F  08                 string size (8)
4880  67526567696F6E00   "gRegion\0"
                         const [0]: "gRegion"
4888  01                 const type 3
4889  BFF6E203           const [1]: (65205951)
488D  01                 const type 3
488E  17DDCF0E           const [2]: (248503575)
4892  04                 const type 4
4893  11                 string size (17)
4894  6861636B696E674C+  "hackingL"
489C  6F6F70416E696D73+  "oopAnims"
48A4  00                 "\0"
                         const [3]: "hackingLoopAnims"
48A5  01                 const type 3
48A6  31A909B7           const [4]: (-1224103631)
48AA  04                 const type 4
48AB  10                 string size (16)
48AC  6861636B696E6745+  "hackingE"
48B4  6E64416E696D7300   "ndAnims\0"
                         const [5]: "hackingEndAnims"
                         * functions:
48BC  00                 sizep (0)
                         * lines:
48BD  20                 sizelineinfo (32)
                         [pc] (line)
48BE  DF                 [01] (-33)
48BF  02                 [02] (-33)
48C0  00                 [03] (-33)
48C1  00                 [04] (-32)
48C2  DF                 [05] (-32)
48C3  02                 [06] (-32)
48C4  00                 [07] (-32)
48C5  00                 [08] (-31)
48C6  DF                 [09] (-31)
48C7  02                 [10] (-31)
48C8  00                 [11] (-31)
48C9  00                 [12] (-31)
48CA  E0                 [13] (-30)
48CB  02                 [14] (-30)
48CC  00                 [15] (-32)
48CD  00                 [16] (-29)
48CE  E0                 [17] (-27)
48CF  02                 [18] (-27)
48D0  00                 [19] (-27)
48D1  00                 [20] (-27)
48D2  E0                 [21] (-26)
48D3  02                 [22] (-26)
48D4  00                 [23] (-26)
48D5  00                 [24] (-26)
48D6  E0                 [25] (-26)
48D7  02                 [26] (-25)
48D8  00                 [27] (-25)
48D9  00                 [28] (-27)
48DA  E1                 [29] (-24)
48DB  02                 [30] (-22)
48DC  00                 [31] (-22)
48DD  00                 [32] (-21)
                         * locals:
493E  00                 sizelocvars (0)
                         * upvalues:
493F  00                 sizeupvalues (0)
                         ** end of function **

                         
4940                     ** function [28] definition (level 2)
                         ** start of function **
4940  00                 string size (0)
                         source name: (none)
4942  05                 line defined (749)
4943  FB                 last line defined (763)
4944  05                 nups (0)
4945  00                 numparams (2)
4946  02                 is_vararg (0)
4947  00                 maxstacksize (16)
                         * code:
4949  1D                 sizecode (29)
494A  A4004000           [01] self       2   0   256  ; 366271214
494E  1D410000           [02] getglobal  4   1        ; gEntityType
4952  A2808001           [03] call       2   3   2  
4956  D9800000           [04] loadk      3   2        ; 0
495A  58000000           [05] test       1       0    ; to [7] if true
495E  1A000080           [06] jmp        1            ; to [8]
4962  D9C00000           [07] loadk      3   3        ; 0
4966  19810000           [08] loadk      4   2        ; 0
496A  4A010001           [09] len        5   2      
496E  99810000           [10] loadk      6   2        ; 0
4972  10C10380           [11] forprep    4   16       ; to [28]
4976  0EC20101           [12] gettable   8   2   7  
497A  59820000           [13] loadk      9   2        ; 0
497E  9D020100           [14] getglobal  10  4        ; objectsToHide
4982  8A020005           [15] len        10  10     
4986  D9820000           [16] loadk      11  2        ; 0
498A  50020280           [17] forprep    9   9        ; to [27]
498E  64434104           [18] self       13  8   261  ; -1957065004
4992  DD030100           [19] getglobal  15  4        ; objectsToHide
4996  CE038307           [20] gettable   15  15  12 
499A  62838001           [21] call       13  3   2  
499E  58030000           [22] test       13      0    ; to [24] if true
49A2  1A800080           [23] jmp        3            ; to [27]
49A6  64834104           [24] self       13  8   262  ; -703571861
49AA  D2038001           [25] move       15  3      
49AE  62438001           [26] call       13  3   1  
49B2  5442FD7F           [27] forloop    9   -10      ; to [18] if loop
49B6  1481FB7F           [28] forloop    4   -17      ; to [12] if loop
49BA  1E008000           [29] return     0   1      
                         * constants:
49BE  07                 sizek (7)
49BF  01                 const type 3
49C0  EEDAD415           const [0]: (366271214)
49C4  04                 const type 4
49C5  0C                 string size (12)
49C6  67456E7469747954+  "gEntityT"
49CE  79706500           "ype\0"
                         const [1]: "gEntityType"
49D2  03                 const type 3
49D3  0000803F           const [2]: (0)
49D7  03                 const type 3
49D8  00000000           const [3]: (0)
49DC  04                 const type 4
49DD  0E                 string size (14)
49DE  6F626A6563747354+  "objectsT"
49E6  6F4869646500       "oHide\0"
                         const [4]: "objectsToHide"
49EC  01                 const type 3
49ED  D48E598B           const [5]: (-1957065004)
49F1  01                 const type 3
49F2  6B5810D6           const [6]: (-703571861)
                         * functions:
49F6  00                 sizep (0)
                         * lines:
49F7  1D                 sizelineinfo (29)
                         [pc] (line)
49F8  EE                 [01] (-18)
49F9  02                 [02] (-18)
49FA  00                 [03] (-18)
49FB  00                 [04] (-17)
49FC  EE                 [05] (-16)
49FD  02                 [06] (-16)
49FE  00                 [07] (-15)
49FF  00                 [08] (-13)
4A00  EE                 [09] (-13)
4A01  02                 [10] (-13)
4A02  00                 [11] (-13)
4A03  00                 [12] (-12)
4A04  EF                 [13] (-11)
4A05  02                 [14] (-11)
4A06  00                 [15] (-11)
4A07  00                 [16] (-11)
4A08  F0                 [17] (-11)
4A09  02                 [18] (-10)
4A0A  00                 [19] (-10)
4A0B  00                 [20] (-10)
4A0C  F0                 [21] (-10)
4A0D  02                 [22] (-10)
4A0E  00                 [23] (-10)
4A0F  00                 [24] (-9)
4A10  F1                 [25] (-9)
4A11  02                 [26] (-9)
4A12  00                 [27] (-11)
4A13  00                 [28] (-13)
4A14  F3                 [29] (-5)
                         * locals:
4A6C  00                 sizelocvars (0)
                         * upvalues:
4A6D  00                 sizeupvalues (0)
                         ** end of function **

                         
4A6E                     ** function [29] definition (level 2)
                         ** start of function **
4A6E  00                 string size (0)
                         source name: (none)
4A70  05                 line defined (765)
4A71  85                 last line defined (773)
4A72  06                 nups (1)
4A73  01                 numparams (0)
4A74  00                 is_vararg (0)
4A75  00                 maxstacksize (6)
                         * code:
4A77  1C                 sizecode (28)
4A78  1D000000           [01] getglobal  0   0        ; gRegion
4A7C  24404000           [02] self       0   0   257  ; 65205951
4A80  22800001           [03] call       0   2   2  
4A84  53000000           [04] getupval   1   0      
4A88  62808000           [05] call       1   1   2  
4A8C  58000000           [06] test       1       0    ; to [8] if true
4A90  1AC00080           [07] jmp        4            ; to [12]
4A94  5D800000           [08] getglobal  1   2        ; 538022378
4A98  99C00000           [09] loadk      2   3        ; 0
4A9C  62400001           [10] call       1   2   1  
4AA0  1AC0FD7F           [11] jmp        -8           ; to [4]
4AA4  5D000100           [12] getglobal  1   4        ; 1074689893
4AA8  9D400100           [13] getglobal  2   5        ; _T
4AAC  8E804101           [14] gettable   2   2   262  ; "lastSlot"
4AB0  62800001           [15] call       1   2   2  
4AB4  58400000           [16] test       1       1    ; to [18] if false
4AB8  1A400280           [17] jmp        10           ; to [28]
4ABC  64C04100           [18] self       1   0   263  ; -1917464545
4AC0  62800001           [19] call       1   2   2  
4AC4  6400C200           [20] self       1   1   264  ; 688774453
4AC8  DD400100           [21] getglobal  3   5        ; _T
4ACC  CE80C101           [22] gettable   3   3   262  ; "lastSlot"
4AD0  1D410200           [23] getglobal  4   9        ; Engine
4AD4  0E814202           [24] gettable   4   4   266  ; "MAIN_HAND"
4AD8  5D410200           [25] getglobal  5   9        ; Engine
4ADC  4EC1C202           [26] gettable   5   5   267  ; "InventoryControllerBase_ES_INSTANT_EQUIP"
4AE0  62408002           [27] call       1   5   1  
4AE4  1E008000           [28] return     0   1      
                         * constants:
4AE8  0C                 sizek (12)
4AE9  04                 const type 4
4AEA  08                 string size (8)
4AEB  67526567696F6E00   "gRegion\0"
                         const [0]: "gRegion"
4AF3  01                 const type 3
4AF4  BFF6E203           const [1]: (65205951)
4AF8  01                 const type 3
4AF9  EA911120           const [2]: (538022378)
4AFD  03                 const type 3
4AFE  00000000           const [3]: (0)
4B02  01                 const type 3
4B03  65770E40           const [4]: (1074689893)
4B07  04                 const type 4
4B08  03                 string size (3)
4B09  5F5400             "_T\0"
                         const [5]: "_T"
4B0C  04                 const type 4
4B0D  09                 string size (9)
4B0E  6C617374536C6F74+  "lastSlot"
4B16  00                 "\0"
                         const [6]: "lastSlot"
4B17  01                 const type 3
4B18  1FD0B58D           const [7]: (-1917464545)
4B1C  01                 const type 3
4B1D  35DD0D29           const [8]: (688774453)
4B21  04                 const type 4
4B22  07                 string size (7)
4B23  456E67696E6500     "Engine\0"
                         const [9]: "Engine"
4B2A  04                 const type 4
4B2B  0A                 string size (10)
4B2C  4D41494E5F48414E+  "MAIN_HAN"
4B34  4400               "D\0"
                         const [10]: "MAIN_HAND"
4B36  04                 const type 4
4B37  29                 string size (41)
4B38  496E76656E746F72+  "Inventor"
4B40  79436F6E74726F6C+  "yControl"
4B48  6C6572426173655F+  "lerBase_"
4B50  45535F494E535441+  "ES_INSTA"
4B58  4E545F4551554950+  "NT_EQUIP"
4B60  00                 "\0"
                         const [11]: "InventoryControllerBase_ES_INSTANT_EQUIP"
                         * functions:
4B61  00                 sizep (0)
                         * lines:
4B62  1C                 sizelineinfo (28)
                         [pc] (line)
4B63  FE                 [01] (-2)
4B64  02                 [02] (-2)
4B65  00                 [03] (-2)
4B66  00                 [04] (-1)
4B67  FE                 [05] (-1)
4B68  02                 [06] (-1)
4B69  00                 [07] (-1)
4B6A  00                 [08] (0)
4B6B  FE                 [09] (0)
4B6C  02                 [10] (0)
4B6D  00                 [11] (0)
4B6E  00                 [12] (2)
4B6F  FF                 [13] (2)
4B70  02                 [14] (2)
4B71  00                 [15] (2)
4B72  00                 [16] (2)
4B73  FF                 [17] (2)
4B74  02                 [18] (3)
4B75  00                 [19] (3)
4B76  00                 [20] (3)
4B77  FF                 [21] (3)
4B78  02                 [22] (3)
4B79  00                 [23] (3)
4B7A  00                 [24] (3)
4B7B  FF                 [25] (3)
4B7C  02                 [26] (3)
4B7D  00                 [27] (3)
4B7E  00                 [28] (5)
                         * locals:
4BD3  00                 sizelocvars (0)
                         * upvalues:
4BD4  00                 sizeupvalues (0)
                         ** end of function **

                         
4BD5                     ** function [30] definition (level 2)
                         ** start of function **
4BD5  00                 string size (0)
                         source name: (none)
4BD7  06                 line defined (775)
4BD8  B4                 last line defined (820)
4BD9  06                 nups (4)
4BDA  04                 numparams (0)
4BDB  00                 is_vararg (0)
4BDC  00                 maxstacksize (14)
                         * code:
4BDF  01                 sizecode (142)
4BE0  1D000000           [001] getglobal  0   0        ; 1074689893
4BE4  5D400000           [002] getglobal  1   1        ; gGameRules
4BE8  22800001           [003] call       0   2   2  
4BEC  18400000           [004] test       0       1    ; to [6] if false
4BF0  1A800480           [005] jmp        19           ; to [25]
4BF4  1D400000           [006] getglobal  0   1        ; gGameRules
4BF8  24804000           [007] self       0   0   258  ; -2029400442
4BFC  22800001           [008] call       0   2   2  
4C00  5D000000           [009] getglobal  1   0        ; 1074689893
4C04  92000000           [010] move       2   0      
4C08  62800001           [011] call       1   2   2  
4C0C  58400000           [012] test       1       1    ; to [14] if false
4C10  1A800280           [013] jmp        11           ; to [25]
4C14  5DC00000           [014] getglobal  1   3        ; -1817107093
4C18  99000100           [015] loadk      2   4        ; "ScopeDebug: Show from Cipher"
4C1C  62400001           [016] call       1   2   1  
4C20  64404100           [017] self       1   0   261  ; 1167009705
4C24  D9800100           [018] loadk      3   6        ; "ShowReticle"
4C28  19C10100           [019] loadk      4   7        ; ""
4C2C  62400002           [020] call       1   4   1  
4C30  64404100           [021] self       1   0   261  ; 1167009705
4C34  D9000200           [022] loadk      3   8        ; "ShowAbilityDots"
4C38  19C10100           [023] loadk      4   7        ; ""
4C3C  62400002           [024] call       1   4   1  
4C40  5D000000           [025] getglobal  1   0        ; 1074689893
4C44  93000000           [026] getupval   2   0      
4C48  62800001           [027] call       1   2   2  
4C4C  58400000           [028] test       1       1    ; to [30] if false
4C50  1A800180           [029] jmp        7            ; to [37]
4C54  53000000           [030] getupval   1   0      
4C58  6440C200           [031] self       1   1   265  ; -1302048094
4C5C  DD800200           [032] getglobal  3   10       ; -332969190
4C60  19C10200           [033] loadk      4   11       ; "EffectFadeOut"
4C64  E2800001           [034] call       3   2   2  
4C68  17010000           [035] loadbool   4   0   0    ; false
4C6C  62400002           [036] call       1   4   1  
4C70  5D000000           [037] getglobal  1   0        ; 1074689893
4C74  9D400000           [038] getglobal  2   1        ; gGameRules
4C78  62800001           [039] call       1   2   2  
4C7C  58400000           [040] test       1       1    ; to [42] if false
4C80  1AC00080           [041] jmp        4            ; to [46]
4C84  5D400000           [042] getglobal  1   1        ; gGameRules
4C88  6400C300           [043] self       1   1   268  ; 1861369943
4C8C  D7000000           [044] loadbool   3   0   0    ; false
4C90  62408001           [045] call       1   3   1  
4C94  5D400300           [046] getglobal  1   13       ; gRegion
4C98  6480C300           [047] self       1   1   270  ; 65205951
4C9C  62800001           [048] call       1   2   2  
4CA0  9D000000           [049] getglobal  2   0        ; 1074689893
4CA4  D2008000           [050] move       3   1      
4CA8  A2800001           [051] call       2   2   2  
4CAC  98400000           [052] test       2       1    ; to [54] if false
4CB0  1AC00080           [053] jmp        4            ; to [58]
4CB4  93008000           [054] getupval   2   1      
4CB8  D2008000           [055] move       3   1      
4CBC  17018000           [056] loadbool   4   1   0    ; true
4CC0  A2408001           [057] call       2   3   1  
4CC4  93000001           [058] getupval   2   2      
4CC8  98000000           [059] test       2       0    ; to [61] if true
4CCC  1AC00880           [060] jmp        36           ; to [97]
4CD0  93008001           [061] getupval   2   3      
4CD4  98000000           [062] test       2       0    ; to [64] if true
4CD8  1A000880           [063] jmp        33           ; to [97]
4CDC  9D400300           [064] getglobal  2   13       ; gRegion
4CE0  A4C04301           [065] self       2   2   271  ; 1224466847
4CE4  A2800001           [066] call       2   2   2  
4CE8  DD000400           [067] getglobal  3   16       ; 248503575
4CEC  12010001           [068] move       4   2      
4CF0  E2000101           [069] call       3   2   4  
4CF4  1A000480           [070] jmp        17           ; to [88]
4CF8  1D020000           [071] getglobal  8   0        ; 1074689893
4CFC  6442C403           [072] self       9   7   273  ; -2135866365
4D00  62020001           [073] call       9   2   0  
4D04  22820000           [074] call       8   0   2  
4D08  18420000           [075] test       8       1    ; to [77] if false
4D0C  1A400180           [076] jmp        6            ; to [83]
4D10  2442C403           [077] self       8   7   273  ; -2135866365
4D14  22820001           [078] call       8   2   2  
4D18  24824404           [079] self       8   8   274  ; 1511086594
4D1C  22820001           [080] call       8   2   2  
4D20  18020000           [081] test       8       0    ; to [83] if true
4D24  1A000180           [082] jmp        5            ; to [88]
4D28  1D420000           [083] getglobal  8   1        ; gGameRules
4D2C  24C24404           [084] self       8   8   275  ; -27834691
4D30  92028003           [085] move       10  7      
4D34  D7020000           [086] loadbool   11  0   0    ; false
4D38  22420002           [087] call       8   4   1  
4D3C  D6800000           [088] tforloop   3       2    ; to [90] if exit
4D40  1A00FB7F           [089] jmp        -19          ; to [71]
4D44  1D420300           [090] getglobal  8   13       ; gRegion
4D48  24024504           [091] self       8   8   276  ; -1693828985
4D4C  9D420500           [092] getglobal  10  21       ; mMovie
4D50  A4824505           [093] self       10  10  278  ; 2082429591
4D54  A2020001           [094] call       10  2   0  
4D58  22420000           [095] call       8   0   1  
4D5C  1A000380           [096] jmp        13           ; to [110]
4D60  1D420500           [097] getglobal  8   21       ; mMovie
4D64  24824504           [098] self       8   8   278  ; 2082429591
4D68  22820001           [099] call       8   2   2  
4D6C  5D020000           [100] getglobal  9   0        ; 1074689893
4D70  92020004           [101] move       10  8      
4D74  62820001           [102] call       9   2   2  
4D78  58420000           [103] test       9       1    ; to [105] if false
4D7C  1A000180           [104] jmp        5            ; to [110]
4D80  53028001           [105] getupval   9   3      
4D84  58020000           [106] test       9       0    ; to [108] if true
4D88  1A400080           [107] jmp        2            ; to [110]
4D8C  64C24504           [108] self       9   8   279  ; 766584623
4D90  62420001           [109] call       9   2   1  
4D94  5D020000           [110] getglobal  9   0        ; 1074689893
4D98  92028000           [111] move       10  1      
4D9C  62820001           [112] call       9   2   2  
4DA0  58420000           [113] test       9       1    ; to [115] if false
4DA4  1A800680           [114] jmp        27           ; to [142]
4DA8  6482C400           [115] self       9   1   274  ; 1511086594
4DAC  62820001           [116] call       9   2   2  
4DB0  58420000           [117] test       9       1    ; to [119] if false
4DB4  1A800180           [118] jmp        7            ; to [126]
4DB8  6442C200           [119] self       9   1   265  ; -1302048094
4DBC  DD820200           [120] getglobal  11  10       ; -332969190
4DC0  19030600           [121] loadk      12  24       ; "WaitForHackingAnimDone"
4DC4  E2820001           [122] call       11  2   2  
4DC8  17038000           [123] loadbool   12  1   0    ; true
4DCC  62420002           [124] call       9   4   1  
4DD0  1AC00380           [125] jmp        16           ; to [142]
4DD4  5D020000           [126] getglobal  9   0        ; 1074689893
4DD8  9D420600           [127] getglobal  10  25       ; _T
4DDC  8E824605           [128] gettable   10  10  282  ; "lastSlot"
4DE0  62820001           [129] call       9   2   2  
4DE4  58420000           [130] test       9       1    ; to [132] if false
4DE8  1A400280           [131] jmp        10           ; to [142]
4DEC  64C2C600           [132] self       9   1   283  ; -1917464545
4DF0  62820001           [133] call       9   2   2  
4DF4  6402C704           [134] self       9   9   284  ; 688774453
4DF8  DD420600           [135] getglobal  11  25       ; _T
4DFC  CE82C605           [136] gettable   11  11  282  ; "lastSlot"
4E00  1D430700           [137] getglobal  12  29       ; Engine
4E04  0E834706           [138] gettable   12  12  286  ; "MAIN_HAND"
4E08  5D430700           [139] getglobal  13  29       ; Engine
4E0C  4EC3C706           [140] gettable   13  13  287  ; "InventoryControllerBase_ES_INSTANT_EQUIP"
4E10  62428002           [141] call       9   5   1  
4E14  1E008000           [142] return     0   1      
                         * constants:
4E18  20                 sizek (32)
4E19  01                 const type 3
4E1A  65770E40           const [0]: (1074689893)
4E1E  04                 const type 4
4E1F  0B                 string size (11)
4E20  6747616D6552756C+  "gGameRul"
4E28  657300             "es\0"
                         const [1]: "gGameRules"
4E2B  01                 const type 3
4E2C  86CE0987           const [2]: (-2029400442)
4E30  01                 const type 3
4E31  6B25B193           const [3]: (-1817107093)
4E35  04                 const type 4
4E36  1D                 string size (29)
4E37  53636F7065446562+  "ScopeDeb"
4E3F  75673A2053686F77+  "ug: Show"
4E47  2066726F6D204369+  " from Ci"
4E4F  7068657200         "pher\0"
                         const [4]: "ScopeDebug: Show from Cipher"
4E54  01                 const type 3
4E55  A9278F45           const [5]: (1167009705)
4E59  04                 const type 4
4E5A  0C                 string size (12)
4E5B  53686F7752657469+  "ShowReti"
4E63  636C6500           "cle\0"
                         const [6]: "ShowReticle"
4E67  04                 const type 4
4E68  01                 string size (0)
                         const [7]: ""
4E6A  04                 const type 4
4E6B  10                 string size (16)
4E6C  53686F774162696C+  "ShowAbil"
4E74  697479446F747300   "ityDots\0"
                         const [8]: "ShowAbilityDots"
4E7C  01                 const type 3
4E7D  A25264B2           const [9]: (-1302048094)
4E81  01                 const type 3
4E82  1A4B27EC           const [10]: (-332969190)
4E86  04                 const type 4
4E87  0E                 string size (14)
4E88  4566666563744661+  "EffectFa"
4E90  64654F757400       "deOut\0"
                         const [11]: "EffectFadeOut"
4E96  01                 const type 3
4E97  5740F26E           const [12]: (1861369943)
4E9B  04                 const type 4
4E9C  08                 string size (8)
4E9D  67526567696F6E00   "gRegion\0"
                         const [13]: "gRegion"
4EA5  01                 const type 3
4EA6  BFF6E203           const [14]: (65205951)
4EAA  01                 const type 3
4EAB  9FE1FB48           const [15]: (1224466847)
4EAF  01                 const type 3
4EB0  17DDCF0E           const [16]: (248503575)
4EB4  01                 const type 3
4EB5  0344B180           const [17]: (-2135866365)
4EB9  01                 const type 3
4EBA  025A115A           const [18]: (1511086594)
4EBE  01                 const type 3
4EBF  BD4657FE           const [19]: (-27834691)
4EC3  01                 const type 3
4EC4  87380A9B           const [20]: (-1693828985)
4EC8  04                 const type 4
4EC9  07                 string size (7)
4ECA  6D4D6F76696500     "mMovie\0"
                         const [21]: "mMovie"
4ED1  01                 const type 3
4ED2  975A1F7C           const [22]: (2082429591)
4ED6  01                 const type 3
4ED7  2F27B12D           const [23]: (766584623)
4EDB  04                 const type 4
4EDC  17                 string size (23)
4EDD  57616974466F7248+  "WaitForH"
4EE5  61636B696E67416E+  "ackingAn"
4EED  696D446F6E6500     "imDone\0"
                         const [24]: "WaitForHackingAnimDone"
4EF4  04                 const type 4
4EF5  03                 string size (3)
4EF6  5F5400             "_T\0"
                         const [25]: "_T"
4EF9  04                 const type 4
4EFA  09                 string size (9)
4EFB  6C617374536C6F74+  "lastSlot"
4F03  00                 "\0"
                         const [26]: "lastSlot"
4F04  01                 const type 3
4F05  1FD0B58D           const [27]: (-1917464545)
4F09  01                 const type 3
4F0A  35DD0D29           const [28]: (688774453)
4F0E  04                 const type 4
4F0F  07                 string size (7)
4F10  456E67696E6500     "Engine\0"
                         const [29]: "Engine"
4F17  04                 const type 4
4F18  0A                 string size (10)
4F19  4D41494E5F48414E+  "MAIN_HAN"
4F21  4400               "D\0"
                         const [30]: "MAIN_HAND"
4F23  04                 const type 4
4F24  29                 string size (41)
4F25  496E76656E746F72+  "Inventor"
4F2D  79436F6E74726F6C+  "yControl"
4F35  6C6572426173655F+  "lerBase_"
4F3D  45535F494E535441+  "ES_INSTA"
4F45  4E545F4551554950+  "NT_EQUIP"
4F4D  00                 "\0"
                         const [31]: "InventoryControllerBase_ES_INSTANT_EQUIP"
                         * functions:
4F4E  00                 sizep (0)
                         * lines:
4F50  01                 sizelineinfo (142)
                         [pc] (line)
4F51  08                 [001] (8)
4F52  03                 [002] (8)
4F53  00                 [003] (8)
4F54  00                 [004] (8)
4F55  08                 [005] (8)
4F56  03                 [006] (9)
4F57  00                 [007] (9)
4F58  00                 [008] (9)
4F59  08                 [009] (10)
4F5A  03                 [010] (10)
4F5B  00                 [011] (10)
4F5C  00                 [012] (10)
4F5D  08                 [013] (10)
4F5E  03                 [014] (11)
4F5F  00                 [015] (11)
4F60  00                 [016] (11)
4F61  08                 [017] (12)
4F62  03                 [018] (12)
4F63  00                 [019] (12)
4F64  00                 [020] (12)
4F65  09                 [021] (13)
4F66  03                 [022] (13)
4F67  00                 [023] (13)
4F68  00                 [024] (13)
4F69  09                 [025] (16)
4F6A  03                 [026] (16)
4F6B  00                 [027] (16)
4F6C  00                 [028] (16)
4F6D  09                 [029] (16)
4F6E  03                 [030] (17)
4F6F  00                 [031] (17)
4F70  00                 [032] (17)
4F71  0A                 [033] (17)
4F72  03                 [034] (17)
4F73  00                 [035] (17)
4F74  00                 [036] (17)
4F75  0A                 [037] (20)
4F76  03                 [038] (20)
4F77  00                 [039] (20)
4F78  00                 [040] (20)
4F79  0A                 [041] (20)
4F7A  03                 [042] (21)
4F7B  00                 [043] (21)
4F7C  00                 [044] (21)
4F7D  0A                 [045] (21)
4F7E  03                 [046] (24)
4F7F  00                 [047] (24)
4F80  00                 [048] (24)
4F81  0A                 [049] (25)
4F82  03                 [050] (25)
4F83  00                 [051] (25)
4F84  00                 [052] (25)
4F85  0B                 [053] (25)
4F86  03                 [054] (26)
4F87  00                 [055] (26)
4F88  00                 [056] (26)
4F89  0B                 [057] (26)
4F8A  03                 [058] (29)
4F8B  00                 [059] (29)
4F8C  00                 [060] (29)
4F8D  0B                 [061] (29)
4F8E  03                 [062] (29)
4F8F  00                 [063] (29)
4F90  00                 [064] (30)
4F91  0C                 [065] (30)
4F92  03                 [066] (30)
4F93  00                 [067] (31)
4F94  00                 [068] (31)
4F95  0C                 [069] (31)
4F96  03                 [070] (31)
4F97  00                 [071] (32)
4F98  00                 [072] (32)
4F99  0C                 [073] (32)
4F9A  03                 [074] (32)
4F9B  00                 [075] (32)
4F9C  00                 [076] (32)
4F9D  0C                 [077] (32)
4F9E  03                 [078] (32)
4F9F  00                 [079] (32)
4FA0  00                 [080] (32)
4FA1  0D                 [081] (32)
4FA2  03                 [082] (32)
4FA3  00                 [083] (33)
4FA4  00                 [084] (33)
4FA5  0D                 [085] (33)
4FA6  03                 [086] (33)
4FA7  00                 [087] (33)
4FA8  00                 [088] (31)
4FA9  0D                 [089] (34)
4FAA  03                 [090] (36)
4FAB  00                 [091] (36)
4FAC  00                 [092] (36)
4FAD  0D                 [093] (36)
4FAE  03                 [094] (36)
4FAF  00                 [095] (36)
4FB0  00                 [096] (36)
4FB1  10                 [097] (38)
4FB2  03                 [098] (38)
4FB3  00                 [099] (38)
4FB4  00                 [100] (39)
4FB5  10                 [101] (39)
4FB6  03                 [102] (39)
4FB7  00                 [103] (39)
4FB8  00                 [104] (39)
4FB9  10                 [105] (39)
4FBA  03                 [106] (39)
4FBB  00                 [107] (39)
4FBC  00                 [108] (40)
4FBD  10                 [109] (40)
4FBE  03                 [110] (43)
4FBF  00                 [111] (43)
4FC0  00                 [112] (43)
4FC1  10                 [113] (43)
4FC2  03                 [114] (43)
4FC3  00                 [115] (44)
4FC4  00                 [116] (44)
4FC5  11                 [117] (44)
4FC6  03                 [118] (44)
4FC7  00                 [119] (45)
4FC8  00                 [120] (45)
4FC9  11                 [121] (45)
4FCA  03                 [122] (45)
4FCB  00                 [123] (45)
4FCC  00                 [124] (45)
4FCD  11                 [125] (45)
4FCE  03                 [126] (47)
4FCF  00                 [127] (47)
4FD0  00                 [128] (47)
4FD1  11                 [129] (47)
4FD2  03                 [130] (47)
4FD3  00                 [131] (47)
4FD4  00                 [132] (48)
4FD5  11                 [133] (48)
4FD6  03                 [134] (48)
4FD7  00                 [135] (48)
4FD8  00                 [136] (48)
4FD9  11                 [137] (48)
4FDA  03                 [138] (48)
4FDB  00                 [139] (48)
4FDC  00                 [140] (48)
4FDD  11                 [141] (48)
4FDE  03                 [142] (52)
                         * locals:
5189  00                 sizelocvars (0)
                         * upvalues:
518A  00                 sizeupvalues (0)
                         ** end of function **

                         
518B                     ** function [31] definition (level 2)
                         ** start of function **
518B  00                 string size (0)
                         source name: (none)
518D  06                 line defined (822)
518E  BE                 last line defined (830)
518F  06                 nups (0)
5190  00                 numparams (0)
5191  00                 is_vararg (0)
5192  00                 maxstacksize (5)
                         * code:
5194  1D                 sizecode (29)
5195  1D000000           [01] getglobal  0   0        ; Engine
5199  0E404000           [02] gettable   0   0   257  ; -1802437008
519D  22808000           [03] call       0   1   2  
51A1  18000000           [04] test       0       0    ; to [6] if true
51A5  1A800280           [05] jmp        11           ; to [17]
51A9  1D800000           [06] getglobal  0   2        ; mMovie
51AD  24C04000           [07] self       0   0   259  ; 386043535
51B1  99000100           [08] loadk      2   4        ; "RightCallout.text"
51B5  D9400100           [09] loadk      3   5        ; "/Lotus/Language/Menu/CipherTurnRight"
51B9  22400002           [10] call       0   4   1  
51BD  1D800000           [11] getglobal  0   2        ; mMovie
51C1  24C04000           [12] self       0   0   259  ; 386043535
51C5  99800100           [13] loadk      2   6        ; "LeftCallout.text"
51C9  D9C00100           [14] loadk      3   7        ; "/Lotus/Language/Menu/CipherTurnLeft"
51CD  22400002           [15] call       0   4   1  
51D1  1AC00280           [16] jmp        12           ; to [29]
51D5  1D800000           [17] getglobal  0   2        ; mMovie
51D9  24004200           [18] self       0   0   264  ; 471456102
51DD  99400200           [19] loadk      2   9        ; "RightCallout"
51E1  D9800200           [20] loadk      3   10       ; "text"
51E5  19C10200           [21] loadk      4   11       ; ""
51E9  22408002           [22] call       0   5   1  
51ED  1D800000           [23] getglobal  0   2        ; mMovie
51F1  24004200           [24] self       0   0   264  ; 471456102
51F5  99000300           [25] loadk      2   12       ; "LeftCallout"
51F9  D9800200           [26] loadk      3   10       ; "text"
51FD  19C10200           [27] loadk      4   11       ; ""
5201  22408002           [28] call       0   5   1  
5205  1E008000           [29] return     0   1      
                         * constants:
5209  0D                 sizek (13)
520A  04                 const type 4
520B  07                 string size (7)
520C  456E67696E6500     "Engine\0"
                         const [0]: "Engine"
5213  01                 const type 3
5214  70FE9094           const [1]: (-1802437008)
5218  04                 const type 4
5219  07                 string size (7)
521A  6D4D6F76696500     "mMovie\0"
                         const [2]: "mMovie"
5221  01                 const type 3
5222  8F8E0217           const [3]: (386043535)
5226  04                 const type 4
5227  12                 string size (18)
5228  526967687443616C+  "RightCal"
5230  6C6F75742E746578+  "lout.tex"
5238  7400               "t\0"
                         const [4]: "RightCallout.text"
523A  04                 const type 4
523B  25                 string size (37)
523C  2F4C6F7475732F4C+  "/Lotus/L"
5244  616E67756167652F+  "anguage/"
524C  4D656E752F436970+  "Menu/Cip"
5254  6865725475726E52+  "herTurnR"
525C  6967687400         "ight\0"
                         const [5]: "/Lotus/Language/Menu/CipherTurnRight"
5261  04                 const type 4
5262  11                 string size (17)
5263  4C65667443616C6C+  "LeftCall"
526B  6F75742E74657874+  "out.text"
5273  00                 "\0"
                         const [6]: "LeftCallout.text"
5274  04                 const type 4
5275  24                 string size (36)
5276  2F4C6F7475732F4C+  "/Lotus/L"
527E  616E67756167652F+  "anguage/"
5286  4D656E752F436970+  "Menu/Cip"
528E  6865725475726E4C+  "herTurnL"
5296  65667400           "eft\0"
                         const [7]: "/Lotus/Language/Menu/CipherTurnLeft"
529A  01                 const type 3
529B  66D9191C           const [8]: (471456102)
529F  04                 const type 4
52A0  0D                 string size (13)
52A1  526967687443616C+  "RightCal"
52A9  6C6F757400         "lout\0"
                         const [9]: "RightCallout"
52AE  04                 const type 4
52AF  05                 string size (5)
52B0  7465787400         "text\0"
                         const [10]: "text"
52B5  04                 const type 4
52B6  01                 string size (0)
                         const [11]: ""
52B8  04                 const type 4
52B9  0C                 string size (12)
52BA  4C65667443616C6C+  "LeftCall"
52C2  6F757400           "out\0"
                         const [12]: "LeftCallout"
                         * functions:
52C6  00                 sizep (0)
                         * lines:
52C7  1D                 sizelineinfo (29)
                         [pc] (line)
52C8  37                 [01] (55)
52C9  03                 [02] (55)
52CA  00                 [03] (55)
52CB  00                 [04] (55)
52CC  37                 [05] (55)
52CD  03                 [06] (56)
52CE  00                 [07] (56)
52CF  00                 [08] (56)
52D0  37                 [09] (56)
52D1  03                 [10] (56)
52D2  00                 [11] (57)
52D3  00                 [12] (57)
52D4  37                 [13] (57)
52D5  03                 [14] (57)
52D6  00                 [15] (57)
52D7  00                 [16] (57)
52D8  37                 [17] (59)
52D9  03                 [18] (59)
52DA  00                 [19] (59)
52DB  00                 [20] (59)
52DC  38                 [21] (59)
52DD  03                 [22] (59)
52DE  00                 [23] (60)
52DF  00                 [24] (60)
52E0  38                 [25] (60)
52E1  03                 [26] (60)
52E2  00                 [27] (60)
52E3  00                 [28] (60)
52E4  38                 [29] (62)
                         * locals:
533C  00                 sizelocvars (0)
                         * upvalues:
533D  00                 sizeupvalues (0)
                         ** end of function **

                         
533E                     ** function [32] definition (level 2)
                         ** start of function **
533E  00                 string size (0)
                         source name: (none)
5340  06                 line defined (832)
5341  AE                 last line defined (942)
5342  07                 nups (17)
5343  11                 numparams (0)
5344  00                 is_vararg (0)
5345  00                 maxstacksize (19)
                         * code:
5348  03                 sizecode (391)
5349  1D000000           [001] getglobal  0   0        ; gGameRules
534D  24404000           [002] self       0   0   257  ; -1201441975
5351  22800001           [003] call       0   2   2  
5355  4E804000           [004] gettable   1   0   258  ; "sortieId"
fail op	35
5359  23C0C000           [005] close      0  
535D  1A000380           [006] jmp        13           ; to [20]
5361  4E004100           [007] gettable   1   0   260  ; "periodicMissionTag"
5365  93000000           [008] getupval   2   0      
5369  8E404101           [009] gettable   2   2   261  ; "ELITE_ALERT_PERIODIC_MISSION_TAG"
fail op	35
536D  63808000           [010] close      1  
5371  1AC00180           [011] jmp        8            ; to [20]
5375  4E004100           [012] gettable   1   0   260  ; "periodicMissionTag"
5379  93000000           [013] getupval   2   0      
537D  8E804101           [014] gettable   2   2   262  ; "ELITE_ALERT_PERIODIC_MISSION_TAG_ALT"
fail op	35
5381  63808000           [015] close      1  
5385  1A800080           [016] jmp        3            ; to [20]
5389  4EC04100           [017] gettable   1   0   263  ; "nightmare"
538D  58000000           [018] test       1       0    ; to [20] if true
5391  1A800280           [019] jmp        11           ; to [31]
5395  53008000           [020] getupval   1   1      
5399  4E40C200           [021] gettable   1   1   265  ; -132701534
539D  8E804000           [022] gettable   2   0   258  ; "sortieId"
fail op	35
53A1  63C04001           [023] close      1  
53A5  1A000080           [024] jmp        1            ; to [26]
53A9  97400000           [025] loadbool   2   0   1    ; false, to [27]
53AD  97008000           [026] loadbool   2   1   0    ; true
53B1  D9800200           [027] loadk      3   10       ; 0
53B5  19C10200           [028] loadk      4   11       ; 0
53B9  62800002           [029] call       1   4   2  
53BD  60000200           [030] setglobal  1   8        ; failureDamagePct
53C1  4E004300           [031] gettable   1   0   268  ; "goalTag"
53C5  93000001           [032] getupval   2   2      
fail op	35
53C9  23808000           [033] close      0  
53CD  1A000780           [034] jmp        29           ; to [64]
53D1  5D400300           [035] getglobal  1   13       ; mMovie
53D5  6480C300           [036] self       1   1   270  ; 2082429591
53D9  62800001           [037] call       1   2   2  
53DD  9DC00300           [038] getglobal  2   15       ; gRegion
53E1  A4004401           [039] self       2   2   272  ; 1851708733
53E5  13018001           [040] getupval   4   3      
53E9  6441C400           [041] self       5   1   273  ; 1839670529
53ED  62810001           [042] call       5   2   2  
53F1  99810400           [043] loadk      6   18       ; 0
53F5  D9C10400           [044] loadk      7   19       ; 0
53F9  A2800003           [045] call       2   6   2  
53FD  DD000500           [046] getglobal  3   20       ; 1074689893
5401  12010001           [047] move       4   2      
5405  E2800001           [048] call       3   2   2  
5409  D8400000           [049] test       3       1    ; to [51] if false
540D  1A000380           [050] jmp        13           ; to [64]
5411  E4404501           [051] self       3   2   277  ; -830264577
5415  E2800001           [052] call       3   2   2  
5419  13018001           [053] getupval   4   3      
fail op	35
541D  63008101           [054] close      1  
5421  1A000080           [055] jmp        1            ; to [57]
5425  D7400000           [056] loadbool   3   0   1    ; false, to [58]
5429  D7008000           [057] loadbool   3   1   0    ; true
fail op	8
542D  C8000002           [058] setupval   3   4      
5431  D3000002           [059] getupval   3   4      
5435  D8000000           [060] test       3       0    ; to [62] if true
5439  1A400080           [061] jmp        2            ; to [64]
543D  D9800500           [062] loadk      3   22       ; -102
fail op	8
5441  C8008002           [063] setupval   3   5      
5445  DD400300           [064] getglobal  3   13       ; mMovie
5449  E480C301           [065] self       3   3   270  ; 2082429591
544D  E2800001           [066] call       3   2   2  
5451  E440C501           [067] self       3   3   277  ; -830264577
5455  E2800001           [068] call       3   2   2  
5459  1DC10500           [069] getglobal  4   23       ; -332969190
545D  59010600           [070] loadk      5   24       ; "ReviveStation"
5461  22810001           [071] call       4   2   2  
fail op	35
5465  63008101           [072] close      1  
5469  1A000080           [073] jmp        1            ; to [75]
546D  D7400000           [074] loadbool   3   0   1    ; false, to [76]
5471  D7008000           [075] loadbool   3   1   0    ; true
fail op	8
5475  C8000003           [076] setupval   3   6      
5479  DD000000           [077] getglobal  3   0        ; gGameRules
547D  E440C601           [078] self       3   3   281  ; 1861369943
5481  57018000           [079] loadbool   5   1   0    ; true
5485  E2408001           [080] call       3   3   1  
5489  D3008000           [081] getupval   3   1      
548D  CE80C601           [082] gettable   3   3   282  ; 630793108
5491  1DC10600           [083] getglobal  4   27       ; startSound
5495  E2400001           [084] call       3   2   1  
5499  D7000000           [085] loadbool   3   0   0    ; false
fail op	8
549D  C8008003           [086] setupval   3   7      
54A1  DD400300           [087] getglobal  3   13       ; mMovie
54A5  E400C701           [088] self       3   3   284  ; 471456102
54A9  59410700           [089] loadk      5   29       ; "_root"
54AD  99810700           [090] loadk      6   30       ; "_alpha"
54B1  D9810400           [091] loadk      7   18       ; 0
54B5  E2408002           [092] call       3   5   1  
54B9  DD400300           [093] getglobal  3   13       ; mMovie
54BD  E4C0C701           [094] self       3   3   287  ; -403402525
54C1  59810400           [095] loadk      5   18       ; 0
54C5  E2408001           [096] call       3   3   1  
54C9  DD400300           [097] getglobal  3   13       ; mMovie
54CD  E400C701           [098] self       3   3   284  ; 471456102
54D1  59010800           [099] loadk      5   32       ; "ThreatLabel"
54D5  99410800           [100] loadk      6   33       ; "_visible"
54D9  D7010000           [101] loadbool   7   0   0    ; false
54DD  E2408002           [102] call       3   5   1  
54E1  DD400300           [103] getglobal  3   13       ; mMovie
54E5  E480C801           [104] self       3   3   290  ; 386043535
54E9  59C10800           [105] loadk      5   35       ; "ThreatLabel.text"
54ED  99010900           [106] loadk      6   36       ; "/Lotus/Language/Menu/IntrusionDetected"
54F1  E2400002           [107] call       3   4   1  
54F5  DD400300           [108] getglobal  3   13       ; mMovie
54F9  E480C801           [109] self       3   3   290  ; 386043535
54FD  59410900           [110] loadk      5   37       ; "Label.text"
5501  99810900           [111] loadk      6   38       ; "/Lotus/Language/Menu/GrineerCipher"
5505  E2400002           [112] call       3   4   1  
5509  DD400300           [113] getglobal  3   13       ; mMovie
550D  E400C701           [114] self       3   3   284  ; 471456102
5511  59C10900           [115] loadk      5   39       ; "CursorPreviewLine.InnerLine"
5515  99010A00           [116] loadk      6   40       ; "_width"
5519  D9410A00           [117] loadk      7   41       ; 0
551D  E2408002           [118] call       3   5   1  
5521  DDC00300           [119] getglobal  3   15       ; gRegion
5525  E480CA01           [120] self       3   3   298  ; 65205951
5529  E2800001           [121] call       3   2   2  
552D  24C1CA01           [122] self       4   3   299  ; -1917464545
5531  22810001           [123] call       4   2   2  
5535  64014B02           [124] self       5   4   300  ; 1856017039
5539  DD410B00           [125] getglobal  7   45       ; Engine
553D  CE81CB03           [126] gettable   7   7   302  ; "MAIN_HAND"
5541  62818001           [127] call       5   3   2  
5545  93010004           [128] getupval   6   8      
5549  D2018001           [129] move       7   3      
554D  17020000           [130] loadbool   8   0   0    ; false
5551  A2418001           [131] call       6   3   1  
5555  9D010500           [132] getglobal  6   20       ; 1074689893
5559  D2018002           [133] move       7   5      
555D  A2810001           [134] call       6   2   2  
5561  98410000           [135] test       6       1    ; to [137] if false
5565  1AC00080           [136] jmp        4            ; to [141]
5569  9DC10B00           [137] getglobal  6   47       ; _T
556D  E441CC02           [138] self       7   5   305  ; -1057537912
5571  E2810001           [139] call       7   2   2  
5575  8CC10198           [140] settable   6   304 7    ; "lastSlot"
5579  9D010500           [141] getglobal  6   20       ; 1074689893
557D  DDC10B00           [142] getglobal  7   47       ; _T
5581  CE01CC03           [143] gettable   7   7   304  ; "lastSlot"
5585  A2810001           [144] call       6   2   2  
5589  98410000           [145] test       6       1    ; to [147] if false
558D  1A800280           [146] jmp        11           ; to [158]
5591  A481CC01           [147] self       6   3   306  ; -1957065004
5595  1DC20C00           [148] getglobal  8   51       ; gLotusOperatorAvatarType
5599  A2818001           [149] call       6   3   2  
559D  98410000           [150] test       6       1    ; to [152] if false
55A1  1A400180           [151] jmp        6            ; to [158]
55A5  A4014D02           [152] self       6   4   308  ; -1740876233
55A9  1D420B00           [153] getglobal  8   45       ; Engine
55AD  0E824B04           [154] gettable   8   8   302  ; "MAIN_HAND"
55B1  5D420B00           [155] getglobal  9   45       ; Engine
55B5  4E42CD04           [156] gettable   9   9   309  ; "InventoryControllerBase_ES_INSTANT_EQUIP"
55B9  A2410002           [157] call       6   4   1  
55BD  A481CC01           [158] self       6   3   306  ; -1957065004
55C1  1DC20C00           [159] getglobal  8   51       ; gLotusOperatorAvatarType
55C5  A2818001           [160] call       6   3   2  
55C9  98410000           [161] test       6       1    ; to [163] if false
55CD  1AC00180           [162] jmp        8            ; to [171]
55D1  A4814D02           [163] self       6   4   310  ; 688774453
55D5  1D420B00           [164] getglobal  8   45       ; Engine
55D9  0EC24D04           [165] gettable   8   8   311  ; "SLOT_12"
55DD  5D420B00           [166] getglobal  9   45       ; Engine
55E1  4E82CB04           [167] gettable   9   9   302  ; "MAIN_HAND"
55E5  9D420B00           [168] getglobal  10  45       ; Engine
55E9  8E424D05           [169] gettable   10  10  309  ; "InventoryControllerBase_ES_INSTANT_EQUIP"
55ED  A2418002           [170] call       6   5   1  
55F1  A401CE01           [171] self       6   3   312  ; -1421644046
55F5  1D420E00           [172] getglobal  8   57       ; projectorDeco
55F9  5D820E00           [173] getglobal  9   58       ; EMPTY_SYMBOL
55FD  9DC20E00           [174] getglobal  10  59       ; 572299008
5601  D9820400           [175] loadk      11  18       ; 0
5605  19030F00           [176] loadk      12  60       ; -10
5609  59430F00           [177] loadk      13  61       ; -82
560D  A2820002           [178] call       10  4   2  
5611  DD820F00           [179] getglobal  11  62       ; 508519041
5615  19C30F00           [180] loadk      12  63       ; 0
5619  59031000           [181] loadk      13  64       ; 0
561D  99830400           [182] loadk      14  18       ; 0
5621  E2020002           [183] call       11  4   0  
5625  A2810000           [184] call       6   0   2  
fail op	8
5629  88018004           [185] setupval   6   9      
562D  9D010500           [186] getglobal  6   20       ; 1074689893
5631  D3018004           [187] getupval   7   9      
5635  A2810001           [188] call       6   2   2  
5639  98410000           [189] test       6       1    ; to [191] if false
563D  1AC00080           [190] jmp        4            ; to [195]
5641  93018004           [191] getupval   6   9      
5645  A4415003           [192] self       6   6   321  ; 615408335
5649  17028000           [193] loadbool   8   1   0    ; true
564D  A2418001           [194] call       6   3   1  
5651  93010005           [195] getupval   6   10     
5655  A2418000           [196] call       6   1   1  
5659  9D010000           [197] getglobal  6   0        ; gGameRules
565D  A4815003           [198] self       6   6   322  ; -2029400442
5661  A2810001           [199] call       6   2   2  
5665  DD010500           [200] getglobal  7   20       ; 1074689893
5669  12020003           [201] move       8   6      
566D  E2810001           [202] call       7   2   2  
5671  D8410000           [203] test       7       1    ; to [205] if false
5675  1A800280           [204] jmp        11           ; to [216]
5679  DDC11000           [205] getglobal  7   67       ; -1817107093
567D  19021100           [206] loadk      8   68       ; "ScopeDebug: Hide from Cipher"
5681  E2410001           [207] call       7   2   1  
5685  E4415103           [208] self       7   6   325  ; 1167009705
5689  59821100           [209] loadk      9   70       ; "HideReticle"
568D  99C20000           [210] loadk      10  3        ; ""
5691  E2410002           [211] call       7   4   1  
5695  E4415103           [212] self       7   6   325  ; 1167009705
5699  59C21100           [213] loadk      9   71       ; "HideAbilityDots"
569D  99C20000           [214] loadk      10  3        ; ""
56A1  E2410002           [215] call       7   4   1  
56A5  DD410300           [216] getglobal  7   13       ; mMovie
56A9  E401D203           [217] self       7   7   328  ; -116120652
56AD  59421200           [218] loadk      9   73       ; "Focus"
56B1  E2418001           [219] call       7   3   1  
56B5  DD410B00           [220] getglobal  7   45       ; Engine
56B9  CE81D203           [221] gettable   7   7   330  ; -1802437008
56BD  E2818000           [222] call       7   1   2  
56C1  D8410000           [223] test       7       1    ; to [225] if false
56C5  1AC00080           [224] jmp        4            ; to [229]
56C9  DD410300           [225] getglobal  7   13       ; mMovie
56CD  E4C1D203           [226] self       7   7   331  ; -1021004755
56D1  57028000           [227] loadbool   9   1   0    ; true
56D5  E2418001           [228] call       7   3   1  
56D9  D9011300           [229] loadk      7   76       ; "/Lotus/Language/Game/HackingAction_UseCipher"
56DD  13020002           [230] getupval   8   4      
56E1  18020000           [231] test       8       0    ; to [233] if true
56E5  1A000480           [232] jmp        17           ; to [250]
56E9  1D421300           [233] getglobal  8   77       ; 2083004503
56ED  53028005           [234] getupval   9   11     
56F1  62028000           [235] call       9   1   0  
56F5  22820000           [236] call       8   0   2  
56F9  5D821300           [237] getglobal  9   78       ; -421772368
56FD  99C21300           [238] loadk      10  79       ; "/Lotus/Language/Game/UseGenericItem"
5701  CB420000           [239] newtable   11  0   1    ; array=0, hash=1
5705  1D831300           [240] getglobal  12  78       ; -421772368
5709  5D431400           [241] getglobal  13  81       ; -1615931716
570D  A4835404           [242] self       14  8   338  ; 1634497718
5711  A2030001           [243] call       14  2   0  
5715  62830000           [244] call       13  0   2  
5719  86030007           [245] loadnil    14  14     
571D  22838001           [246] call       12  3   2  
5721  CC0203A8           [247] settable   11  336 12   ; "ITEM"
5725  62828001           [248] call       9   3   2  
5729  D2018004           [249] move       7   9      
572D  5DC21400           [250] getglobal  9   83       ; 849075268
5731  99021500           [251] loadk      10  84       ; "Lotus.Interface.Components.Button"
5735  62820001           [252] call       9   2   2  
5739  8E42D504           [253] gettable   10  9   341  ; -231553440
573D  DD420300           [254] getglobal  11  13       ; mMovie
5741  19831500           [255] loadk      12  86       ; "CipherButton"
5745  52038003           [256] move       13  7      
5749  99C31500           [257] loadk      14  87       ; "UseCipher"
574D  D9031600           [258] loadk      15  88       ; "<MENU_GENERIC2>"
5751  06048008           [259] loadnil    16  17     
5755  97048000           [260] loadbool   18  1   0    ; true
5759  A2828004           [261] call       10  9   2  
fail op	8
575D  88020006           [262] setupval   10  12     
5761  93020006           [263] getupval   10  12     
5765  8C82D6AC           [264] settable   10  345 346  ; "mAlignment" "center"
5769  93020006           [265] getupval   10  12     
576D  8C02D7AD           [266] settable   10  347 348  ; "mWidth" 0
5771  93020006           [267] getupval   10  12     
5775  A4425705           [268] self       10  10  349  ; 1685109492
5779  A2420001           [269] call       10  2   1  
577D  9D020200           [270] getglobal  10  8        ; failureDamagePct
fail op	21
5781  55800289           [271] concat     1   274 10 
5785  1AC00080           [272] jmp        4            ; to [277]
5789  9DC20B00           [273] getglobal  10  47       ; _T
578D  8E825705           [274] gettable   10  10  350  ; "WareframeChallenge"
5791  98020000           [275] test       10      0    ; to [277] if true
5795  1A400580           [276] jmp        22           ; to [299]
5799  93020006           [277] getupval   10  12     
579D  A4C25705           [278] self       10  10  351  ; 1649906088
57A1  17030000           [279] loadbool   12  0   0    ; false
57A5  A2428001           [280] call       10  3   1  
57A9  9D420300           [281] getglobal  10  13       ; mMovie
57AD  A4024705           [282] self       10  10  284  ; 471456102
57B1  19031800           [283] loadk      12  96       ; "CiphersLeft"
57B5  59430800           [284] loadk      13  33       ; "_visible"
57B9  97030000           [285] loadbool   14  0   0    ; false
57BD  A2428002           [286] call       10  5   1  
57C1  9D420300           [287] getglobal  10  13       ; mMovie
57C5  A4024705           [288] self       10  10  284  ; 471456102
57C9  19431800           [289] loadk      12  97       ; "CipherIcon"
57CD  59430800           [290] loadk      13  33       ; "_visible"
57D1  97030000           [291] loadbool   14  0   0    ; false
57D5  A2428002           [292] call       10  5   1  
57D9  9D420300           [293] getglobal  10  13       ; mMovie
57DD  A4024705           [294] self       10  10  284  ; 471456102
57E1  19831800           [295] loadk      12  98       ; "CipherBg"
57E5  59430800           [296] loadk      13  33       ; "_visible"
57E9  97030000           [297] loadbool   14  0   0    ; false
57ED  A2428002           [298] call       10  5   1  
57F1  93020006           [299] getupval   10  12     
57F5  A4C25805           [300] self       10  10  355  ; -492641364
57F9  17030000           [301] loadbool   12  0   0    ; false
57FD  A2428001           [302] call       10  3   1  
5801  93020000           [303] getupval   10  0      
5805  8E025905           [304] gettable   10  10  356  ; -19604702
5809  DD420300           [305] getglobal  11  13       ; mMovie
580D  19831800           [306] loadk      12  98       ; "CipherBg"
5811  A2428001           [307] call       10  3   1  
5815  9D420300           [308] getglobal  10  13       ; mMovie
5819  A4425905           [309] self       10  10  357  ; -693657623
581D  19031800           [310] loadk      12  96       ; "CiphersLeft"
5821  59831900           [311] loadk      13  102      ; "text"
5825  99C30000           [312] loadk      14  3        ; ""
5829  A2428002           [313] call       10  5   1  
582D  9D420300           [314] getglobal  10  13       ; mMovie
5831  A4024705           [315] self       10  10  284  ; 471456102
5835  19C31900           [316] loadk      12  103      ; "CursorPreviewLine"
5839  59031A00           [317] loadk      13  104      ; "_color"
583D  99431A00           [318] loadk      14  105      ; 127
5841  A2428002           [319] call       10  5   1  
5845  9D420300           [320] getglobal  10  13       ; mMovie
5849  A4024705           [321] self       10  10  284  ; 471456102
584D  19C31900           [322] loadk      12  103      ; "CursorPreviewLine"
5851  59430800           [323] loadk      13  33       ; "_visible"
5855  93038006           [324] getupval   14  13     
5859  8E835A07           [325] gettable   14  14  362  ; "PreviewLine"
585D  A2428002           [326] call       10  5   1  
5861  9D420300           [327] getglobal  10  13       ; mMovie
5865  A4024705           [328] self       10  10  284  ; 471456102
5869  19C31900           [329] loadk      12  103      ; "CursorPreviewLine"
586D  59830700           [330] loadk      13  30       ; "_alpha"
5871  99C31A00           [331] loadk      14  107      ; 0
5875  A2428002           [332] call       10  5   1  
5879  93020007           [333] getupval   10  14     
587D  A2428000           [334] call       10  1   1  
5881  9D420300           [335] getglobal  10  13       ; mMovie
5885  A4024705           [336] self       10  10  284  ; 471456102
5889  19031B00           [337] loadk      12  108      ; "Bg"
588D  59830700           [338] loadk      13  30       ; "_alpha"
5891  99830400           [339] loadk      14  18       ; 0
5895  A2428002           [340] call       10  5   1  
5899  9D420300           [341] getglobal  10  13       ; mMovie
589D  A4024705           [342] self       10  10  284  ; 471456102
58A1  19431B00           [343] loadk      12  109      ; "Bg2"
58A5  59830700           [344] loadk      13  30       ; "_alpha"
58A9  99830400           [345] loadk      14  18       ; 0
58AD  A2428002           [346] call       10  5   1  
58B1  9D420300           [347] getglobal  10  13       ; mMovie
58B5  A4024705           [348] self       10  10  284  ; 471456102
58B9  19831B00           [349] loadk      12  110      ; "Bg3"
58BD  59830700           [350] loadk      13  30       ; "_alpha"
58C1  99830400           [351] loadk      14  18       ; 0
58C5  A2428002           [352] call       10  5   1  
58C9  9D420B00           [353] getglobal  10  45       ; Engine
58CD  8EC25B05           [354] gettable   10  10  367  ; 328784635
58D1  A2828000           [355] call       10  1   2  
58D5  98420000           [356] test       10      1    ; to [358] if false
58D9  1A800780           [357] jmp        31           ; to [389]
58DD  9D020500           [358] getglobal  10  20       ; 1074689893
58E1  DD021C00           [359] getglobal  11  112      ; gChallengeMgr
58E5  A2820001           [360] call       10  2   2  
58E9  98420000           [361] test       10      1    ; to [363] if false
58ED  1A400680           [362] jmp        26           ; to [389]
58F1  9D020000           [363] getglobal  10  0        ; gGameRules
58F5  A4824C05           [364] self       10  10  306  ; -1957065004
58F9  1D431C00           [365] getglobal  12  113      ; gEndlessExterminationGameRulesType
58FD  A2828001           [366] call       10  3   2  
5901  98420000           [367] test       10      1    ; to [369] if false
5905  1AC00480           [368] jmp        20           ; to [389]
5909  9D021C00           [369] getglobal  10  112      ; gChallengeMgr
590D  A4825C05           [370] self       10  10  370  ; -287164558
5911  A2820001           [371] call       10  2   2  
fail op	8
5915  88028007           [372] setupval   10  15     
5919  9D020500           [373] getglobal  10  20       ; 1074689893
591D  D3028007           [374] getupval   11  15     
5921  A2820001           [375] call       10  2   2  
5925  98420000           [376] test       10      1    ; to [378] if false
5929  1A800280           [377] jmp        11           ; to [389]
592D  93028007           [378] getupval   10  15     
5931  A4C25C05           [379] self       10  10  371  ; -342618041
5935  A2820001           [380] call       10  2   2  
5939  98020000           [381] test       10      0    ; to [383] if true
593D  1A400180           [382] jmp        6            ; to [389]
5941  93028007           [383] getupval   10  15     
5945  A4025D05           [384] self       10  10  372  ; -1864334350
5949  17038000           [385] loadbool   12  1   0    ; true
594D  5D430B00           [386] getglobal  13  45       ; Engine
5951  4E43DD06           [387] gettable   13  13  373  ; "RZ_KEYBOARD_DEVICE"
5955  A2420002           [388] call       10  4   1  
5959  93020008           [389] getupval   10  16     
595D  A2428000           [390] call       10  1   1  
5961  1E008000           [391] return     0   1      
                         * constants:
5965  76                 sizek (118)
5966  04                 const type 4
5967  0B                 string size (11)
5968  6747616D6552756C+  "gGameRul"
5970  657300             "es\0"
                         const [0]: "gGameRules"
5973  01                 const type 3
5974  497363B8           const [1]: (-1201441975)
5978  04                 const type 4
5979  09                 string size (9)
597A  736F727469654964+  "sortieId"
5982  00                 "\0"
                         const [2]: "sortieId"
5983  04                 const type 4
5984  01                 string size (0)
                         const [3]: ""
5986  04                 const type 4
5987  13                 string size (19)
5988  706572696F646963+  "periodic"
5990  4D697373696F6E54+  "MissionT"
5998  616700             "ag\0"
                         const [4]: "periodicMissionTag"
599B  04                 const type 4
599C  21                 string size (33)
599D  454C4954455F414C+  "ELITE_AL"
59A5  4552545F50455249+  "ERT_PERI"
59AD  4F4449435F4D4953+  "ODIC_MIS"
59B5  53494F4E5F544147+  "SION_TAG"
59BD  00                 "\0"
                         const [5]: "ELITE_ALERT_PERIODIC_MISSION_TAG"
59BE  04                 const type 4
59BF  25                 string size (37)
59C0  454C4954455F414C+  "ELITE_AL"
59C8  4552545F50455249+  "ERT_PERI"
59D0  4F4449435F4D4953+  "ODIC_MIS"
59D8  53494F4E5F544147+  "SION_TAG"
59E0  5F414C5400         "_ALT\0"
                         const [6]: "ELITE_ALERT_PERIODIC_MISSION_TAG_ALT"
59E5  04                 const type 4
59E6  0A                 string size (10)
59E7  6E696768746D6172+  "nightmar"
59EF  6500               "e\0"
                         const [7]: "nightmare"
59F1  04                 const type 4
59F2  11                 string size (17)
59F3  6661696C75726544+  "failureD"
59FB  616D616765506374+  "amagePct"
5A03  00                 "\0"
                         const [8]: "failureDamagePct"
5A04  01                 const type 3
5A05  A22217F8           const [9]: (-132701534)
5A09  03                 const type 3
5A0A  0000003F           const [10]: (0)
5A0E  03                 const type 3
5A0F  0000803E           const [11]: (0)
5A13  04                 const type 4
5A14  08                 string size (8)
5A15  676F616C54616700   "goalTag\0"
                         const [12]: "goalTag"
5A1D  04                 const type 4
5A1E  07                 string size (7)
5A1F  6D4D6F76696500     "mMovie\0"
                         const [13]: "mMovie"
5A26  01                 const type 3
5A27  975A1F7C           const [14]: (2082429591)
5A2B  04                 const type 4
5A2C  08                 string size (8)
5A2D  67526567696F6E00   "gRegion\0"
                         const [15]: "gRegion"
5A35  01                 const type 3
5A36  3DD55E6E           const [16]: (1851708733)
5A3A  01                 const type 3
5A3B  0125A76D           const [17]: (1839670529)
5A3F  03                 const type 3
5A40  00000000           const [18]: (0)
5A44  03                 const type 3
5A45  00000040           const [19]: (0)
5A49  01                 const type 3
5A4A  65770E40           const [20]: (1074689893)
5A4E  01                 const type 3
5A4F  FF2A83CE           const [21]: (-830264577)
5A53  03                 const type 3
5A54  9A99193E           const [22]: (-102)
5A58  01                 const type 3
5A59  1A4B27EC           const [23]: (-332969190)
5A5D  04                 const type 4
5A5E  0E                 string size (14)
5A5F  5265766976655374+  "ReviveSt"
5A67  6174696F6E00       "ation\0"
                         const [24]: "ReviveStation"
5A6D  01                 const type 3
5A6E  5740F26E           const [25]: (1861369943)
5A72  01                 const type 3
5A73  94239925           const [26]: (630793108)
5A77  04                 const type 4
5A78  0B                 string size (11)
5A79  7374617274536F75+  "startSou"
5A81  6E6400             "nd\0"
                         const [27]: "startSound"
5A84  01                 const type 3
5A85  66D9191C           const [28]: (471456102)
5A89  04                 const type 4
5A8A  06                 string size (6)
5A8B  5F726F6F7400       "_root\0"
                         const [29]: "_root"
5A91  04                 const type 4
5A92  07                 string size (7)
5A93  5F616C70686100     "_alpha\0"
                         const [30]: "_alpha"
5A9A  01                 const type 3
5A9B  E390F4E7           const [31]: (-403402525)
5A9F  04                 const type 4
5AA0  0C                 string size (12)
5AA1  5468726561744C61+  "ThreatLa"
5AA9  62656C00           "bel\0"
                         const [32]: "ThreatLabel"
5AAD  04                 const type 4
5AAE  09                 string size (9)
5AAF  5F76697369626C65+  "_visible"
5AB7  00                 "\0"
                         const [33]: "_visible"
5AB8  01                 const type 3
5AB9  8F8E0217           const [34]: (386043535)
5ABD  04                 const type 4
5ABE  11                 string size (17)
5ABF  5468726561744C61+  "ThreatLa"
5AC7  62656C2E74657874+  "bel.text"
5ACF  00                 "\0"
                         const [35]: "ThreatLabel.text"
5AD0  04                 const type 4
5AD1  27                 string size (39)
5AD2  2F4C6F7475732F4C+  "/Lotus/L"
5ADA  616E67756167652F+  "anguage/"
5AE2  4D656E752F496E74+  "Menu/Int"
5AEA  727573696F6E4465+  "rusionDe"
5AF2  74656374656400     "tected\0"
                         const [36]: "/Lotus/Language/Menu/IntrusionDetected"
5AF9  04                 const type 4
5AFA  0B                 string size (11)
5AFB  4C6162656C2E7465+  "Label.te"
5B03  787400             "xt\0"
                         const [37]: "Label.text"
5B06  04                 const type 4
5B07  23                 string size (35)
5B08  2F4C6F7475732F4C+  "/Lotus/L"
5B10  616E67756167652F+  "anguage/"
5B18  4D656E752F477269+  "Menu/Gri"
5B20  6E65657243697068+  "neerCiph"
5B28  657200             "er\0"
                         const [38]: "/Lotus/Language/Menu/GrineerCipher"
5B2B  04                 const type 4
5B2C  1C                 string size (28)
5B2D  437572736F725072+  "CursorPr"
5B35  65766965774C696E+  "eviewLin"
5B3D  652E496E6E65724C+  "e.InnerL"
5B45  696E6500           "ine\0"
                         const [39]: "CursorPreviewLine.InnerLine"
5B49  04                 const type 4
5B4A  07                 string size (7)
5B4B  5F776964746800     "_width\0"
                         const [40]: "_width"
5B52  03                 const type 3
5B53  0000803F           const [41]: (0)
5B57  01                 const type 3
5B58  BFF6E203           const [42]: (65205951)
5B5C  01                 const type 3
5B5D  1FD0B58D           const [43]: (-1917464545)
5B61  01                 const type 3
5B62  8F92A06E           const [44]: (1856017039)
5B66  04                 const type 4
5B67  07                 string size (7)
5B68  456E67696E6500     "Engine\0"
                         const [45]: "Engine"
5B6F  04                 const type 4
5B70  0A                 string size (10)
5B71  4D41494E5F48414E+  "MAIN_HAN"
5B79  4400               "D\0"
                         const [46]: "MAIN_HAND"
5B7B  04                 const type 4
5B7C  03                 string size (3)
5B7D  5F5400             "_T\0"
                         const [47]: "_T"
5B80  04                 const type 4
5B81  09                 string size (9)
5B82  6C617374536C6F74+  "lastSlot"
5B8A  00                 "\0"
                         const [48]: "lastSlot"
5B8B  01                 const type 3
5B8C  8840F7C0           const [49]: (-1057537912)
5B90  01                 const type 3
5B91  D48E598B           const [50]: (-1957065004)
5B95  04                 const type 4
5B96  19                 string size (25)
5B97  674C6F7475734F70+  "gLotusOp"
5B9F  657261746F724176+  "eratorAv"
5BA7  6174617254797065+  "atarType"
5BAF  00                 "\0"
                         const [51]: "gLotusOperatorAvatarType"
5BB0  01                 const type 3
5BB1  37563C98           const [52]: (-1740876233)
5BB5  04                 const type 4
5BB6  29                 string size (41)
5BB7  496E76656E746F72+  "Inventor"
5BBF  79436F6E74726F6C+  "yControl"
5BC7  6C6572426173655F+  "lerBase_"
5BCF  45535F494E535441+  "ES_INSTA"
5BD7  4E545F4551554950+  "NT_EQUIP"
5BDF  00                 "\0"
                         const [53]: "InventoryControllerBase_ES_INSTANT_EQUIP"
5BE0  01                 const type 3
5BE1  35DD0D29           const [54]: (688774453)
5BE5  04                 const type 4
5BE6  08                 string size (8)
5BE7  534C4F545F313200   "SLOT_12\0"
                         const [55]: "SLOT_12"
5BEF  01                 const type 3
5BF0  F26E43AB           const [56]: (-1421644046)
5BF4  04                 const type 4
5BF5  0E                 string size (14)
5BF6  70726F6A6563746F+  "projecto"
5BFE  724465636F00       "rDeco\0"
                         const [57]: "projectorDeco"
5C04  04                 const type 4
5C05  0D                 string size (13)
5C06  454D5054595F5359+  "EMPTY_SY"
5C0E  4D424F4C00         "MBOL\0"
                         const [58]: "EMPTY_SYMBOL"
5C13  01                 const type 3
5C14  00971C22           const [59]: (572299008)
5C18  03                 const type 3
5C19  F6289C3F           const [60]: (-10)
5C1D  03                 const type 3
5C1E  AE47213F           const [61]: (-82)
5C22  01                 const type 3
5C23  81624F1E           const [62]: (508519041)
5C27  03                 const type 3
5C28  0000E642           const [63]: (0)
5C2C  03                 const type 3
5C2D  000034C2           const [64]: (0)
5C31  01                 const type 3
5C32  CF62AE24           const [65]: (615408335)
5C36  01                 const type 3
5C37  86CE0987           const [66]: (-2029400442)
5C3B  01                 const type 3
5C3C  6B25B193           const [67]: (-1817107093)
5C40  04                 const type 4
5C41  1D                 string size (29)
5C42  53636F7065446562+  "ScopeDeb"
5C4A  75673A2048696465+  "ug: Hide"
5C52  2066726F6D204369+  " from Ci"
5C5A  7068657200         "pher\0"
                         const [68]: "ScopeDebug: Hide from Cipher"
5C5F  01                 const type 3
5C60  A9278F45           const [69]: (1167009705)
5C64  04                 const type 4
5C65  0C                 string size (12)
5C66  4869646552657469+  "HideReti"
5C6E  636C6500           "cle\0"
                         const [70]: "HideReticle"
5C72  04                 const type 4
5C73  10                 string size (16)
5C74  486964654162696C+  "HideAbil"
5C7C  697479446F747300   "ityDots\0"
                         const [71]: "HideAbilityDots"
5C84  01                 const type 3
5C85  B42314F9           const [72]: (-116120652)
5C89  04                 const type 4
5C8A  06                 string size (6)
5C8B  466F63757300       "Focus\0"
                         const [73]: "Focus"
5C91  01                 const type 3
5C92  70FE9094           const [74]: (-1802437008)
5C96  01                 const type 3
5C97  2DB424C3           const [75]: (-1021004755)
5C9B  04                 const type 4
5C9C  2D                 string size (45)
5C9D  2F4C6F7475732F4C+  "/Lotus/L"
5CA5  616E67756167652F+  "anguage/"
5CAD  47616D652F486163+  "Game/Hac"
5CB5  6B696E6741637469+  "kingActi"
5CBD  6F6E5F5573654369+  "on_UseCi"
5CC5  7068657200         "pher\0"
                         const [76]: "/Lotus/Language/Game/HackingAction_UseCipher"
5CCA  01                 const type 3
5CCB  5720287C           const [77]: (2083004503)
5CCF  01                 const type 3
5CD0  B043DCE6           const [78]: (-421772368)
5CD4  04                 const type 4
5CD5  24                 string size (36)
5CD6  2F4C6F7475732F4C+  "/Lotus/L"
5CDE  616E67756167652F+  "anguage/"
5CE6  47616D652F557365+  "Game/Use"
5CEE  47656E6572696349+  "GenericI"
5CF6  74656D00           "tem\0"
                         const [79]: "/Lotus/Language/Game/UseGenericItem"
5CFA  04                 const type 4
5CFB  05                 string size (5)
5CFC  4954454D00         "ITEM\0"
                         const [80]: "ITEM"
5D01  01                 const type 3
5D02  BCD6AE9F           const [81]: (-1615931716)
5D06  01                 const type 3
5D07  B6746C61           const [82]: (1634497718)
5D0B  01                 const type 3
5D0C  44DC9B32           const [83]: (849075268)
5D10  04                 const type 4
5D11  22                 string size (34)
5D12  4C6F7475732E496E+  "Lotus.In"
5D1A  746572666163652E+  "terface."
5D22  436F6D706F6E656E+  "Componen"
5D2A  74732E427574746F+  "ts.Butto"
5D32  6E00               "n\0"
                         const [84]: "Lotus.Interface.Components.Button"
5D34  01                 const type 3
5D35  60C632F2           const [85]: (-231553440)
5D39  04                 const type 4
5D3A  0D                 string size (13)
5D3B  4369706865724275+  "CipherBu"
5D43  74746F6E00         "tton\0"
                         const [86]: "CipherButton"
5D48  04                 const type 4
5D49  0A                 string size (10)
5D4A  5573654369706865+  "UseCiphe"
5D52  7200               "r\0"
                         const [87]: "UseCipher"
5D54  04                 const type 4
5D55  10                 string size (16)
5D56  3C4D454E555F4745+  "<MENU_GE"
5D5E  4E45524943323E00   "NERIC2>\0"
                         const [88]: "<MENU_GENERIC2>"
5D66  04                 const type 4
5D67  0B                 string size (11)
5D68  6D416C69676E6D65+  "mAlignme"
5D70  6E7400             "nt\0"
                         const [89]: "mAlignment"
5D73  04                 const type 4
5D74  07                 string size (7)
5D75  63656E74657200     "center\0"
                         const [90]: "center"
5D7C  04                 const type 4
5D7D  07                 string size (7)
5D7E  6D576964746800     "mWidth\0"
                         const [91]: "mWidth"
5D85  03                 const type 3
5D86  00007043           const [92]: (0)
5D8A  01                 const type 3
5D8B  F4BA7064           const [93]: (1685109492)
5D8F  04                 const type 4
5D90  13                 string size (19)
5D91  576172656672616D+  "Warefram"
5D99  654368616C6C656E+  "eChallen"
5DA1  676500             "ge\0"
                         const [94]: "WareframeChallenge"
5DA4  01                 const type 3
5DA5  A8915762           const [95]: (1649906088)
5DA9  04                 const type 4
5DAA  0C                 string size (12)
5DAB  436970686572734C+  "CiphersL"
5DB3  65667400           "eft\0"
                         const [96]: "CiphersLeft"
5DB7  04                 const type 4
5DB8  0B                 string size (11)
5DB9  4369706865724963+  "CipherIc"
5DC1  6F6E00             "on\0"
                         const [97]: "CipherIcon"
5DC4  04                 const type 4
5DC5  09                 string size (9)
5DC6  4369706865724267+  "CipherBg"
5DCE  00                 "\0"
                         const [98]: "CipherBg"
5DCF  01                 const type 3
5DD0  ACE3A2E2           const [99]: (-492641364)
5DD4  01                 const type 3
5DD5  22DBD4FE           const [100]: (-19604702)
5DD9  01                 const type 3
5DDA  E99FA7D6           const [101]: (-693657623)
5DDE  04                 const type 4
5DDF  05                 string size (5)
5DE0  7465787400         "text\0"
                         const [102]: "text"
5DE5  04                 const type 4
5DE6  12                 string size (18)
5DE7  437572736F725072+  "CursorPr"
5DEF  65766965774C696E+  "eviewLin"
5DF7  6500               "e\0"
                         const [103]: "CursorPreviewLine"
5DF9  04                 const type 4
5DFA  07                 string size (7)
5DFB  5F636F6C6F7200     "_color\0"
                         const [104]: "_color"
5E02  03                 const type 3
5E03  7FFF7F4B           const [105]: (127)
5E07  04                 const type 4
5E08  0C                 string size (12)
5E09  507265766965774C+  "PreviewL"
5E11  696E6500           "ine\0"
                         const [106]: "PreviewLine"
5E15  03                 const type 3
5E16  00004842           const [107]: (0)
5E1A  04                 const type 4
5E1B  03                 string size (3)
5E1C  426700             "Bg\0"
                         const [108]: "Bg"
5E1F  04                 const type 4
5E20  04                 string size (4)
5E21  42673200           "Bg2\0"
                         const [109]: "Bg2"
5E25  04                 const type 4
5E26  04                 string size (4)
5E27  42673300           "Bg3\0"
                         const [110]: "Bg3"
5E2B  01                 const type 3
5E2C  FBDA9813           const [111]: (328784635)
5E30  04                 const type 4
5E31  0E                 string size (14)
5E32  674368616C6C656E+  "gChallen"
5E3A  67654D677200       "geMgr\0"
                         const [112]: "gChallengeMgr"
5E40  04                 const type 4
5E41  23                 string size (35)
5E42  67456E646C657373+  "gEndless"
5E4A  45787465726D696E+  "Extermin"
5E52  6174696F6E47616D+  "ationGam"
5E5A  6552756C65735479+  "eRulesTy"
5E62  706500             "pe\0"
                         const [113]: "gEndlessExterminationGameRulesType"
5E65  01                 const type 3
5E66  7237E2EE           const [114]: (-287164558)
5E6A  01                 const type 3
5E6B  471094EB           const [115]: (-342618041)
5E6F  01                 const type 3
5E70  F283E090           const [116]: (-1864334350)
5E74  04                 const type 4
5E75  13                 string size (19)
5E76  525A5F4B4559424F+  "RZ_KEYBO"
5E7E  4152445F44455649+  "ARD_DEVI"
5E86  434500             "CE\0"
                         const [117]: "RZ_KEYBOARD_DEVICE"
                         * functions:
5E89  00                 sizep (0)
                         * lines:
5E8B  03                 sizelineinfo (391)
                         [pc] (line)
5E8C  41                 [001] (65)
5E8D  03                 [002] (65)
5E8E  00                 [003] (65)
5E8F  00                 [004] (66)
5E90  41                 [005] (66)
5E91  03                 [006] (66)
5E92  00                 [007] (66)
5E93  00                 [008] (66)
5E94  41                 [009] (66)
5E95  03                 [010] (66)
5E96  00                 [011] (66)
5E97  00                 [012] (66)
5E98  42                 [013] (66)
5E99  03                 [014] (66)
5E9A  00                 [015] (66)
5E9B  00                 [016] (66)
5E9C  42                 [017] (66)
5E9D  03                 [018] (66)
5E9E  00                 [019] (66)
5E9F  00                 [020] (67)
5EA0  42                 [021] (67)
5EA1  03                 [022] (67)
5EA2  00                 [023] (67)
5EA3  00                 [024] (67)
5EA4  42                 [025] (67)
5EA5  03                 [026] (67)
5EA6  00                 [027] (67)
5EA7  00                 [028] (67)
5EA8  42                 [029] (67)
5EA9  03                 [030] (67)
5EAA  00                 [031] (70)
5EAB  00                 [032] (70)
5EAC  42                 [033] (70)
5EAD  03                 [034] (70)
5EAE  00                 [035] (71)
5EAF  00                 [036] (71)
5EB0  42                 [037] (71)
5EB1  03                 [038] (72)
5EB2  00                 [039] (72)
5EB3  00                 [040] (72)
5EB4  42                 [041] (72)
5EB5  03                 [042] (72)
5EB6  00                 [043] (72)
5EB7  00                 [044] (72)
5EB8  42                 [045] (72)
5EB9  03                 [046] (73)
5EBA  00                 [047] (73)
5EBB  00                 [048] (73)
5EBC  42                 [049] (73)
5EBD  03                 [050] (73)
5EBE  00                 [051] (74)
5EBF  00                 [052] (74)
5EC0  42                 [053] (74)
5EC1  03                 [054] (74)
5EC2  00                 [055] (74)
5EC3  00                 [056] (74)
5EC4  42                 [057] (74)
5EC5  03                 [058] (74)
5EC6  00                 [059] (75)
5EC7  00                 [060] (75)
5EC8  42                 [061] (75)
5EC9  03                 [062] (76)
5ECA  00                 [063] (76)
5ECB  00                 [064] (81)
5ECC  42                 [065] (81)
5ECD  03                 [066] (81)
5ECE  00                 [067] (81)
5ECF  00                 [068] (81)
5ED0  42                 [069] (81)
5ED1  03                 [070] (81)
5ED2  00                 [071] (81)
5ED3  00                 [072] (81)
5ED4  42                 [073] (81)
5ED5  03                 [074] (81)
5ED6  00                 [075] (81)
5ED7  00                 [076] (81)
5ED8  43                 [077] (83)
5ED9  03                 [078] (83)
5EDA  00                 [079] (83)
5EDB  00                 [080] (83)
5EDC  43                 [081] (85)
5EDD  03                 [082] (85)
5EDE  00                 [083] (85)
5EDF  00                 [084] (85)
5EE0  43                 [085] (87)
5EE1  03                 [086] (87)
5EE2  00                 [087] (88)
5EE3  00                 [088] (88)
5EE4  43                 [089] (88)
5EE5  03                 [090] (88)
5EE6  00                 [091] (88)
5EE7  00                 [092] (88)
5EE8  43                 [093] (89)
5EE9  03                 [094] (89)
5EEA  00                 [095] (89)
5EEB  00                 [096] (89)
5EEC  43                 [097] (90)
5EED  03                 [098] (90)
5EEE  00                 [099] (90)
5EEF  00                 [100] (90)
5EF0  43                 [101] (90)
5EF1  03                 [102] (90)
5EF2  00                 [103] (91)
5EF3  00                 [104] (91)
5EF4  43                 [105] (91)
5EF5  03                 [106] (91)
5EF6  00                 [107] (91)
5EF7  00                 [108] (92)
5EF8  43                 [109] (92)
5EF9  03                 [110] (92)
5EFA  00                 [111] (92)
5EFB  00                 [112] (92)
5EFC  43                 [113] (93)
5EFD  03                 [114] (93)
5EFE  00                 [115] (93)
5EFF  00                 [116] (93)
5F00  43                 [117] (93)
5F01  03                 [118] (93)
5F02  00                 [119] (95)
5F03  00                 [120] (95)
5F04  46                 [121] (95)
5F05  03                 [122] (96)
5F06  00                 [123] (96)
5F07  00                 [124] (97)
5F08  46                 [125] (97)
5F09  03                 [126] (97)
5F0A  00                 [127] (97)
5F0B  00                 [128] (98)
5F0C  46                 [129] (98)
5F0D  03                 [130] (98)
5F0E  00                 [131] (98)
5F0F  00                 [132] (101)
5F10  46                 [133] (101)
5F11  03                 [134] (101)
5F12  00                 [135] (101)
5F13  00                 [136] (101)
5F14  47                 [137] (102)
5F15  03                 [138] (102)
5F16  00                 [139] (102)
5F17  00                 [140] (102)
5F18  47                 [141] (104)
5F19  03                 [142] (104)
5F1A  00                 [143] (104)
5F1B  00                 [144] (104)
5F1C  47                 [145] (104)
5F1D  03                 [146] (104)
5F1E  00                 [147] (104)
5F1F  00                 [148] (104)
5F20  48                 [149] (104)
5F21  03                 [150] (104)
5F22  00                 [151] (104)
5F23  00                 [152] (105)
5F24  48                 [153] (105)
5F25  03                 [154] (105)
5F26  00                 [155] (105)
5F27  00                 [156] (105)
5F28  48                 [157] (105)
5F29  03                 [158] (108)
5F2A  00                 [159] (108)
5F2B  00                 [160] (108)
5F2C  48                 [161] (108)
5F2D  03                 [162] (108)
5F2E  00                 [163] (109)
5F2F  00                 [164] (109)
5F30  48                 [165] (109)
5F31  03                 [166] (109)
5F32  00                 [167] (109)
5F33  00                 [168] (109)
5F34  48                 [169] (109)
5F35  03                 [170] (109)
5F36  00                 [171] (112)
5F37  00                 [172] (112)
5F38  48                 [173] (112)
5F39  03                 [174] (112)
5F3A  00                 [175] (112)
5F3B  00                 [176] (112)
5F3C  48                 [177] (112)
5F3D  03                 [178] (112)
5F3E  00                 [179] (112)
5F3F  00                 [180] (112)
5F40  49                 [181] (112)
5F41  03                 [182] (112)
5F42  00                 [183] (112)
5F43  00                 [184] (112)
5F44  49                 [185] (112)
5F45  03                 [186] (113)
5F46  00                 [187] (113)
5F47  00                 [188] (113)
5F48  49                 [189] (113)
5F49  03                 [190] (113)
5F4A  00                 [191] (114)
5F4B  00                 [192] (114)
5F4C  49                 [193] (114)
5F4D  03                 [194] (114)
5F4E  00                 [195] (117)
5F4F  00                 [196] (117)
5F50  49                 [197] (119)
5F51  03                 [198] (119)
5F52  00                 [199] (119)
5F53  00                 [200] (120)
5F54  4A                 [201] (120)
5F55  03                 [202] (120)
5F56  00                 [203] (120)
5F57  00                 [204] (120)
5F58  4A                 [205] (121)
5F59  03                 [206] (121)
5F5A  00                 [207] (121)
5F5B  00                 [208] (122)
5F5C  4A                 [209] (122)
5F5D  03                 [210] (122)
5F5E  00                 [211] (122)
5F5F  00                 [212] (123)
5F60  4A                 [213] (123)
5F61  03                 [214] (123)
5F62  00                 [215] (123)
5F63  00                 [216] (127)
5F64  4A                 [217] (127)
5F65  03                 [218] (127)
5F66  00                 [219] (127)
5F67  00                 [220] (-128)
5F68  4A                 [221] (-128)
5F69  03                 [222] (-128)
5F6A  00                 [223] (-128)
5F6B  00                 [224] (-128)
5F6C  4A                 [225] (-127)
5F6D  03                 [226] (-127)
5F6E  00                 [227] (-127)
5F6F  00                 [228] (-127)
5F70  4A                 [229] (-124)
5F71  03                 [230] (-123)
5F72  00                 [231] (-123)
5F73  00                 [232] (-123)
5F74  4B                 [233] (-122)
5F75  03                 [234] (-122)
5F76  00                 [235] (-122)
5F77  00                 [236] (-122)
5F78  4B                 [237] (-121)
5F79  03                 [238] (-121)
5F7A  00                 [239] (-121)
5F7B  00                 [240] (-121)
5F7C  4B                 [241] (-121)
5F7D  03                 [242] (-121)
5F7E  00                 [243] (-121)
5F7F  00                 [244] (-121)
5F80  4C                 [245] (-121)
5F81  03                 [246] (-121)
5F82  00                 [247] (-121)
5F83  00                 [248] (-121)
5F84  4C                 [249] (-121)
5F85  03                 [250] (-118)
5F86  00                 [251] (-118)
5F87  00                 [252] (-118)
5F88  51                 [253] (-117)
5F89  03                 [254] (-117)
5F8A  00                 [255] (-117)
5F8B  00                 [256] (-117)
5F8C  51                 [257] (-117)
5F8D  03                 [258] (-117)
5F8E  00                 [259] (-117)
5F8F  00                 [260] (-117)
5F90  51                 [261] (-117)
5F91  03                 [262] (-117)
5F92  00                 [263] (-116)
5F93  00                 [264] (-116)
5F94  51                 [265] (-115)
5F95  03                 [266] (-115)
5F96  00                 [267] (-114)
5F97  00                 [268] (-114)
5F98  51                 [269] (-114)
5F99  03                 [270] (-112)
5F9A  00                 [271] (-112)
5F9B  00                 [272] (-112)
5F9C  51                 [273] (-112)
5F9D  03                 [274] (-112)
5F9E  00                 [275] (-112)
5F9F  00                 [276] (-112)
5FA0  51                 [277] (-111)
5FA1  03                 [278] (-111)
5FA2  00                 [279] (-111)
5FA3  00                 [280] (-111)
5FA4  51                 [281] (-110)
5FA5  03                 [282] (-110)
5FA6  00                 [283] (-110)
5FA7  00                 [284] (-110)
5FA8  51                 [285] (-110)
5FA9  03                 [286] (-110)
5FAA  00                 [287] (-109)
5FAB  00                 [288] (-109)
5FAC  51                 [289] (-109)
5FAD  03                 [290] (-109)
5FAE  00                 [291] (-109)
5FAF  00                 [292] (-109)
5FB0  51                 [293] (-108)
5FB1  03                 [294] (-108)
5FB2  00                 [295] (-108)
5FB3  00                 [296] (-108)
5FB4  51                 [297] (-108)
5FB5  03                 [298] (-108)
5FB6  00                 [299] (-105)
5FB7  00                 [300] (-105)
5FB8  51                 [301] (-105)
5FB9  03                 [302] (-105)
5FBA  00                 [303] (-103)
5FBB  00                 [304] (-103)
5FBC  53                 [305] (-103)
5FBD  03                 [306] (-103)
5FBE  00                 [307] (-103)
5FBF  00                 [308] (-101)
5FC0  53                 [309] (-101)
5FC1  03                 [310] (-101)
5FC2  00                 [311] (-101)
5FC3  00                 [312] (-101)
5FC4  53                 [313] (-101)
5FC5  03                 [314] (-99)
5FC6  00                 [315] (-99)
5FC7  00                 [316] (-99)
5FC8  53                 [317] (-99)
5FC9  03                 [318] (-99)
5FCA  00                 [319] (-99)
5FCB  00                 [320] (-98)
5FCC  55                 [321] (-98)
5FCD  03                 [322] (-98)
5FCE  00                 [323] (-98)
5FCF  00                 [324] (-98)
5FD0  55                 [325] (-98)
5FD1  03                 [326] (-98)
5FD2  00                 [327] (-97)
5FD3  00                 [328] (-97)
5FD4  55                 [329] (-97)
5FD5  03                 [330] (-97)
5FD6  00                 [331] (-97)
5FD7  00                 [332] (-97)
5FD8  55                 [333] (-96)
5FD9  03                 [334] (-96)
5FDA  00                 [335] (-94)
5FDB  00                 [336] (-94)
5FDC  57                 [337] (-94)
5FDD  03                 [338] (-94)
5FDE  00                 [339] (-94)
5FDF  00                 [340] (-94)
5FE0  57                 [341] (-93)
5FE1  03                 [342] (-93)
5FE2  00                 [343] (-93)
5FE3  00                 [344] (-93)
5FE4  58                 [345] (-93)
5FE5  03                 [346] (-93)
5FE6  00                 [347] (-92)
5FE7  00                 [348] (-92)
5FE8  58                 [349] (-92)
5FE9  03                 [350] (-92)
5FEA  00                 [351] (-92)
5FEB  00                 [352] (-92)
5FEC  58                 [353] (-90)
5FED  03                 [354] (-90)
5FEE  00                 [355] (-90)
5FEF  00                 [356] (-90)
5FF0  58                 [357] (-90)
5FF1  03                 [358] (-90)
5FF2  00                 [359] (-90)
5FF3  00                 [360] (-90)
5FF4  58                 [361] (-90)
5FF5  03                 [362] (-90)
5FF6  00                 [363] (-90)
5FF7  00                 [364] (-90)
5FF8  58                 [365] (-90)
5FF9  03                 [366] (-90)
5FFA  00                 [367] (-90)
5FFB  00                 [368] (-90)
5FFC  59                 [369] (-89)
5FFD  03                 [370] (-89)
5FFE  00                 [371] (-89)
5FFF  00                 [372] (-89)
6000  59                 [373] (-88)
6001  03                 [374] (-88)
6002  00                 [375] (-88)
6003  00                 [376] (-88)
6004  59                 [377] (-88)
6005  03                 [378] (-88)
6006  00                 [379] (-88)
6007  00                 [380] (-88)
6008  59                 [381] (-88)
6009  03                 [382] (-88)
600A  00                 [383] (-87)
600B  00                 [384] (-87)
600C  5A                 [385] (-87)
600D  03                 [386] (-87)
600E  00                 [387] (-87)
600F  00                 [388] (-87)
6010  5A                 [389] (-83)
6011  03                 [390] (-83)
6012  00                 [391] (-82)
                         * locals:
64A8  00                 sizelocvars (0)
                         * upvalues:
64A9  00                 sizeupvalues (0)
                         ** end of function **

                         
64AA                     ** function [33] definition (level 2)
                         ** start of function **
64AA  00                 string size (0)
                         source name: (none)
64AC  07                 line defined (944)
64AD  D0                 last line defined (976)
64AE  07                 nups (0)
64AF  00                 numparams (1)
64B0  01                 is_vararg (0)
64B1  00                 maxstacksize (9)
                         * code:
64B3  2B                 sizecode (43)
64B4  5D000000           [01] getglobal  1   0        ; mMovie
64B8  6440C000           [02] self       1   1   257  ; 1803241227
64BC  D2000000           [03] move       3   0      
64C0  19810000           [04] loadk      4   2        ; "_rotation"
64C4  62800002           [05] call       1   4   2  
64C8  9DC00000           [06] getglobal  2   3        ; -174740002
64CC  DD000000           [07] getglobal  3   0        ; mMovie
64D0  E440C001           [08] self       3   3   257  ; 1803241227
64D4  52010000           [09] move       5   0      
64D8  99010100           [10] loadk      6   4        ; "targetRotation"
64DC  E2000002           [11] call       3   4   0  
64E0  A2800000           [12] call       2   0   2  
fail op	35
64E4  23404101           [13] close      0  
64E8  1A000080           [14] jmp        1            ; to [16]
64EC  1E008000           [15] return     0   1      
64F0  DD800100           [16] getglobal  3   6        ; math
64F4  CEC0C101           [17] gettable   3   3   263  ; -113279800
64F8  0D818000           [18] sub        4   1   2  
64FC  E2800001           [19] call       3   2   2  
fail op	21
6500  15C00084           [20] concat     0   264 3  
6504  1A000080           [21] jmp        1            ; to [23]
6508  8D404201           [22] sub        2   2   265  ; 0
fail op	35
650C  23808000           [23] close      0  
6510  1A000080           [24] jmp        1            ; to [26]
6514  1E008000           [25] return     0   1      
6518  DD800200           [26] getglobal  3   10       ; -1828500651
651C  12018000           [27] move       4   1      
6520  52010001           [28] move       5   2      
6524  9D810100           [29] getglobal  6   6        ; math
6528  8EC14203           [30] gettable   6   6   267  ; 1710846250
652C  D9010300           [31] loadk      7   12       ; 0
6530  1D420300           [32] getglobal  8   13       ; 1289681407
6534  22828000           [33] call       8   1   2  
6538  04824304           [34] mul        8   8   270  ; 0
653C  A2018001           [35] call       6   3   0  
6540  E2800000           [36] call       3   0   2  
6544  1D010000           [37] getglobal  4   0        ; mMovie
6548  24C14302           [38] self       4   4   271  ; 471456102
654C  92010000           [39] move       6   0      
6550  D9810000           [40] loadk      7   2        ; "_rotation"
6554  12028001           [41] move       8   3      
6558  22418002           [42] call       4   5   1  
655C  1E008000           [43] return     0   1      
                         * constants:
6560  10                 sizek (16)
6561  04                 const type 4
6562  07                 string size (7)
6563  6D4D6F76696500     "mMovie\0"
                         const [0]: "mMovie"
656A  01                 const type 3
656B  0B477B6B           const [1]: (1803241227)
656F  04                 const type 4
6570  0A                 string size (10)
6571  5F726F746174696F+  "_rotatio"
6579  6E00               "n\0"
                         const [2]: "_rotation"
657B  01                 const type 3
657C  DEAD95F5           const [3]: (-174740002)
6580  04                 const type 4
6581  0F                 string size (15)
6582  746172676574526F+  "targetRo"
658A  746174696F6E00     "tation\0"
                         const [4]: "targetRotation"
6591  00                 const type 0
                         const [5]: nil
6592  04                 const type 4
6593  05                 string size (5)
6594  6D61746800         "math\0"
                         const [6]: "math"
6599  01                 const type 3
659A  C87C3FF9           const [7]: (-113279800)
659E  03                 const type 3
659F  00003443           const [8]: (0)
65A3  03                 const type 3
65A4  0000B443           const [9]: (0)
65A8  01                 const type 3
65A9  554B0393           const [10]: (-1828500651)
65AD  01                 const type 3
65AE  2A71F965           const [11]: (1710846250)
65B2  03                 const type 3
65B3  0000803F           const [12]: (0)
65B7  01                 const type 3
65B8  FFF9DE4C           const [13]: (1289681407)
65BC  03                 const type 3
65BD  0000C041           const [14]: (0)
65C1  01                 const type 3
65C2  66D9191C           const [15]: (471456102)
                         * functions:
65C6  00                 sizep (0)
                         * lines:
65C7  2B                 sizelineinfo (43)
                         [pc] (line)
65C8  B1                 [01] (-79)
65C9  03                 [02] (-79)
65CA  00                 [03] (-79)
65CB  00                 [04] (-79)
65CC  B1                 [05] (-79)
65CD  03                 [06] (-78)
65CE  00                 [07] (-78)
65CF  00                 [08] (-78)
65D0  B1                 [09] (-78)
65D1  03                 [10] (-78)
65D2  00                 [11] (-78)
65D3  00                 [12] (-78)
65D4  B1                 [13] (-76)
65D5  03                 [14] (-76)
65D6  00                 [15] (-75)
65D7  00                 [16] (-72)
65D8  B1                 [17] (-72)
65D9  03                 [18] (-72)
65DA  00                 [19] (-72)
65DB  00                 [20] (-72)
65DC  B2                 [21] (-72)
65DD  03                 [22] (-71)
65DE  00                 [23] (-68)
65DF  00                 [24] (-68)
65E0  B2                 [25] (-67)
65E1  03                 [26] (-64)
65E2  00                 [27] (-64)
65E3  00                 [28] (-64)
65E4  B2                 [29] (-64)
65E5  03                 [30] (-64)
65E6  00                 [31] (-64)
65E7  00                 [32] (-64)
65E8  B2                 [33] (-64)
65E9  03                 [34] (-64)
65EA  00                 [35] (-64)
65EB  00                 [36] (-64)
65EC  B2                 [37] (-62)
65ED  03                 [38] (-62)
65EE  00                 [39] (-62)
65EF  00                 [40] (-62)
65F0  B2                 [41] (-62)
65F1  03                 [42] (-62)
65F2  00                 [43] (-48)
                         * locals:
6674  00                 sizelocvars (0)
                         * upvalues:
6675  00                 sizeupvalues (0)
                         ** end of function **

                         
6676                     ** function [34] definition (level 2)
                         ** start of function **
6676  00                 string size (0)
                         source name: (none)
6678  07                 line defined (978)
6679  E9                 last line defined (1001)
667A  07                 nups (5)
667B  05                 numparams (0)
667C  00                 is_vararg (0)
667D  00                 maxstacksize (11)
                         * code:
667F  40                 sizecode (64)
6680  13000000           [01] getupval   0   0      
6684  0E004000           [02] gettable   0   0   256  ; 630793108
6688  5D400000           [03] getglobal  1   1        ; failSound
668C  22400001           [04] call       0   2   1  
6690  17008000           [05] loadbool   0   1   0    ; true
fail op	8
6694  08008000           [06] setupval   0   1      
6698  19800000           [07] loadk      0   2        ; 0
fail op	8
669C  08000001           [08] setupval   0   2      
66A0  1DC00000           [09] getglobal  0   3        ; mMovie
66A4  24004100           [10] self       0   0   260  ; 386043535
66A8  99400100           [11] loadk      2   5        ; "Label.text"
66AC  D9800100           [12] loadk      3   6        ; "/Lotus/Language/Menu/GrineerCipherFailed"
66B0  22400002           [13] call       0   4   1  
66B4  19C00100           [14] loadk      0   7        ; 0
fail op	8
66B8  08008001           [15] setupval   0   3      
66BC  19C00100           [16] loadk      0   7        ; 0
66C0  53000002           [17] getupval   1   4      
66C4  4A008000           [18] len        1   1      
66C8  99C00100           [19] loadk      2   7        ; 0
66CC  10800180           [20] forprep    0   7        ; to [28]
66D0  1DC10000           [21] getglobal  4   3        ; mMovie
66D4  24014202           [22] self       4   4   264  ; 471456102
66D8  93010002           [23] getupval   6   4      
66DC  8EC10003           [24] gettable   6   6   3  
66E0  D9410200           [25] loadk      7   9        ; "_color"
66E4  19820200           [26] loadk      8   10       ; 53
66E8  22418002           [27] call       4   5   1  
66EC  14C0FD7F           [28] forloop    0   -8       ; to [21] if loop
66F0  1DC10200           [29] getglobal  4   11       ; failureDamagePct
fail op	21
66F4  15000181           [30] concat     0   258 4  
66F8  1AC00780           [31] jmp        32           ; to [64]
66FC  1D010300           [32] getglobal  4   12       ; gRegion
6700  24414302           [33] self       4   4   269  ; 65205951
6704  22810001           [34] call       4   2   2  
6708  5D810300           [35] getglobal  5   14       ; 1074689893
670C  92010002           [36] move       6   4      
6710  62810001           [37] call       5   2   2  
6714  58410000           [38] test       5       1    ; to [40] if false
6718  1AC00580           [39] jmp        24           ; to [64]
671C  64C14302           [40] self       5   4   271  ; 945541886
6720  62810001           [41] call       5   2   2  
6724  9DC10200           [42] getglobal  6   11       ; failureDamagePct
6728  44818102           [43] mul        5   5   6  
672C  9D010400           [44] getglobal  6   16       ; Engine
6730  8E414403           [45] gettable   6   6   273  ; -98643418
6734  A2818000           [46] call       6   1   2  
6738  8C410189           [47] settable   6   274 5    ; "baseAmount"
673C  E4C14403           [48] self       7   6   275  ; -995861768
6740  5D020400           [49] getglobal  9   16       ; Engine
6744  4E02C504           [50] gettable   9   9   276  ; "DT_HEALTH_DRAIN"
6748  99C20100           [51] loadk      10  7        ; 0
674C  E2410002           [52] call       7   4   1  
6750  E4414503           [53] self       7   6   277  ; 1398603399
6754  5D820500           [54] getglobal  9   22       ; failureDamageProc
6758  97028000           [55] loadbool   10  1   0    ; true
675C  E2410002           [56] call       7   4   1  
6760  E4C14503           [57] self       7   6   279  ; -793712901
6764  5D020400           [58] getglobal  9   16       ; Engine
6768  4E02C604           [59] gettable   9   9   280  ; "TORSO"
676C  E2418001           [60] call       7   3   1  
6770  E4414602           [61] self       7   4   281  ; 1193457265
6774  52020003           [62] move       9   6      
6778  E2418001           [63] call       7   3   1  
677C  1E008000           [64] return     0   1      
                         * constants:
6780  1A                 sizek (26)
6781  01                 const type 3
6782  94239925           const [0]: (630793108)
6786  04                 const type 4
6787  0A                 string size (10)
6788  6661696C536F756E+  "failSoun"
6790  6400               "d\0"
                         const [1]: "failSound"
6792  03                 const type 3
6793  00000000           const [2]: (0)
6797  04                 const type 4
6798  07                 string size (7)
6799  6D4D6F76696500     "mMovie\0"
                         const [3]: "mMovie"
67A0  01                 const type 3
67A1  8F8E0217           const [4]: (386043535)
67A5  04                 const type 4
67A6  0B                 string size (11)
67A7  4C6162656C2E7465+  "Label.te"
67AF  787400             "xt\0"
                         const [5]: "Label.text"
67B2  04                 const type 4
67B3  29                 string size (41)
67B4  2F4C6F7475732F4C+  "/Lotus/L"
67BC  616E67756167652F+  "anguage/"
67C4  4D656E752F477269+  "Menu/Gri"
67CC  6E65657243697068+  "neerCiph"
67D4  65724661696C6564+  "erFailed"
67DC  00                 "\0"
                         const [6]: "/Lotus/Language/Menu/GrineerCipherFailed"
67DD  03                 const type 3
67DE  0000803F           const [7]: (0)
67E2  01                 const type 3
67E3  66D9191C           const [8]: (471456102)
67E7  04                 const type 4
67E8  07                 string size (7)
67E9  5F636F6C6F7200     "_color\0"
                         const [9]: "_color"
67F0  03                 const type 3
67F1  35357F4B           const [10]: (53)
67F5  04                 const type 4
67F6  11                 string size (17)
67F7  6661696C75726544+  "failureD"
67FF  616D616765506374+  "amagePct"
6807  00                 "\0"
                         const [11]: "failureDamagePct"
6808  04                 const type 4
6809  08                 string size (8)
680A  67526567696F6E00   "gRegion\0"
                         const [12]: "gRegion"
6812  01                 const type 3
6813  BFF6E203           const [13]: (65205951)
6817  01                 const type 3
6818  65770E40           const [14]: (1074689893)
681C  01                 const type 3
681D  FED25B38           const [15]: (945541886)
6821  04                 const type 4
6822  07                 string size (7)
6823  456E67696E6500     "Engine\0"
                         const [16]: "Engine"
682A  01                 const type 3
682B  26D21EFA           const [17]: (-98643418)
682F  04                 const type 4
6830  0B                 string size (11)
6831  62617365416D6F75+  "baseAmou"
6839  6E7400             "nt\0"
                         const [18]: "baseAmount"
683C  01                 const type 3
683D  F85AA4C4           const [19]: (-995861768)
6841  04                 const type 4
6842  10                 string size (16)
6843  44545F4845414C54+  "DT_HEALT"
684B  485F445241494E00   "H_DRAIN\0"
                         const [20]: "DT_HEALTH_DRAIN"
6853  01                 const type 3
6854  87FE5C53           const [21]: (1398603399)
6858  04                 const type 4
6859  12                 string size (18)
685A  6661696C75726544+  "failureD"
6862  616D61676550726F+  "amagePro"
686A  6300               "c\0"
                         const [22]: "failureDamageProc"
686C  01                 const type 3
686D  FBE6B0D0           const [23]: (-793712901)
6871  04                 const type 4
6872  06                 string size (6)
6873  544F52534F00       "TORSO\0"
                         const [24]: "TORSO"
6879  01                 const type 3
687A  71B62247           const [25]: (1193457265)
                         * functions:
687E  00                 sizep (0)
                         * lines:
687F  40                 sizelineinfo (64)
                         [pc] (line)
6880  D3                 [01] (-45)
6881  03                 [02] (-45)
6882  00                 [03] (-45)
6883  00                 [04] (-45)
6884  D3                 [05] (-44)
6885  03                 [06] (-44)
6886  00                 [07] (-43)
6887  00                 [08] (-43)
6888  D3                 [09] (-42)
6889  03                 [10] (-42)
688A  00                 [11] (-42)
688B  00                 [12] (-42)
688C  D3                 [13] (-42)
688D  03                 [14] (-41)
688E  00                 [15] (-41)
688F  00                 [16] (-39)
6890  D4                 [17] (-39)
6891  03                 [18] (-39)
6892  00                 [19] (-39)
6893  00                 [20] (-39)
6894  D4                 [21] (-38)
6895  03                 [22] (-38)
6896  00                 [23] (-38)
6897  00                 [24] (-38)
6898  D5                 [25] (-38)
6899  03                 [26] (-38)
689A  00                 [27] (-38)
689B  00                 [28] (-39)
689C  D5                 [29] (-35)
689D  03                 [30] (-35)
689E  00                 [31] (-35)
689F  00                 [32] (-34)
68A0  D6                 [33] (-34)
68A1  03                 [34] (-34)
68A2  00                 [35] (-33)
68A3  00                 [36] (-33)
68A4  D6                 [37] (-33)
68A5  03                 [38] (-33)
68A6  00                 [39] (-33)
68A7  00                 [40] (-32)
68A8  D6                 [41] (-32)
68A9  03                 [42] (-32)
68AA  00                 [43] (-32)
68AB  00                 [44] (-31)
68AC  D6                 [45] (-31)
68AD  03                 [46] (-31)
68AE  00                 [47] (-30)
68AF  00                 [48] (-29)
68B0  D6                 [49] (-29)
68B1  03                 [50] (-29)
68B2  00                 [51] (-29)
68B3  00                 [52] (-29)
68B4  D7                 [53] (-28)
68B5  03                 [54] (-28)
68B6  00                 [55] (-28)
68B7  00                 [56] (-28)
68B8  D7                 [57] (-27)
68B9  03                 [58] (-27)
68BA  00                 [59] (-27)
68BB  00                 [60] (-27)
68BC  D9                 [61] (-26)
68BD  03                 [62] (-26)
68BE  00                 [63] (-26)
68BF  00                 [64] (-23)
                         * locals:
6980  00                 sizelocvars (0)
                         * upvalues:
6981  00                 sizeupvalues (0)
                         ** end of function **

                         
6982                     ** function [35] definition (level 2)
                         ** start of function **
6982  00                 string size (0)
                         source name: (none)
6984  07                 line defined (1003)
6985  F1                 last line defined (1009)
6986  07                 nups (0)
6987  00                 numparams (1)
6988  01                 is_vararg (0)
6989  00                 maxstacksize (8)
                         * code:
698B  0A                 sizecode (10)
698C  59000000           [01] loadk      1   0        ; 0
6990  9D400000           [02] getglobal  2   1        ; 248503575
6994  D2000000           [03] move       3   0      
6998  A2000101           [04] call       2   2   4  
699C  1A000080           [05] jmp        1            ; to [7]
69A0  4380C000           [06] add        1   1   258  ; 0
69A4  96400000           [07] tforloop   2       1    ; to [9] if exit
69A8  1A00FF7F           [08] jmp        -3           ; to [6]
69AC  5E000001           [09] return     1   2      
69B0  1E008000           [10] return     0   1      
                         * constants:
69B4  03                 sizek (3)
69B5  03                 const type 3
69B6  00000000           const [0]: (0)
69BA  01                 const type 3
69BB  17DDCF0E           const [1]: (248503575)
69BF  03                 const type 3
69C0  0000803F           const [2]: (0)
                         * functions:
69C4  00                 sizep (0)
                         * lines:
69C5  0A                 sizelineinfo (10)
                         [pc] (line)
69C6  EC                 [01] (-20)
69C7  03                 [02] (-19)
69C8  00                 [03] (-19)
69C9  00                 [04] (-19)
69CA  ED                 [05] (-19)
69CB  03                 [06] (-18)
69CC  00                 [07] (-19)
69CD  00                 [08] (-18)
69CE  ED                 [09] (-16)
69CF  03                 [10] (-15)
                         * locals:
69EE  00                 sizelocvars (0)
                         * upvalues:
69EF  00                 sizeupvalues (0)
                         ** end of function **

                         
69F0                     ** function [36] definition (level 2)
                         ** start of function **
69F0  00                 string size (0)
                         source name: (none)
69F2  07                 line defined (1011)
69F3  A4                 last line defined (1060)
69F4  08                 nups (9)
69F5  09                 numparams (0)
69F6  00                 is_vararg (0)
69F7  00                 maxstacksize (10)
                         * code:
69F9  7B                 sizecode (123)
69FA  13000000           [001] getupval   0   0      
fail op	33
69FE  21004000           [002] tforloop   0       256  ; to [4] if exit
6A02  1A000080           [003] jmp        1            ; to [5]
6A06  1E008000           [004] return     0   1      
6A0A  1D400000           [005] getglobal  0   1        ; 1289681407
6A0E  22808000           [006] call       0   1   2  
6A12  53008000           [007] getupval   1   1      
6A16  58000000           [008] test       1       0    ; to [10] if true
6A1A  1A000080           [009] jmp        1            ; to [11]
6A1E  04804000           [010] mul        0   0   258  ; 0
6A22  53000000           [011] getupval   1   0      
6A26  4D008000           [012] sub        1   1   0  
fail op	8
6A2A  48000000           [013] setupval   1   0      
6A2E  53000000           [014] getupval   1   0      
fail op	21
6A32  1500C000           [015] concat     0   1   256
6A36  1A400080           [016] jmp        2            ; to [19]
6A3A  59000000           [017] loadk      1   0        ; 0
fail op	8
6A3E  48000000           [018] setupval   1   0      
6A42  5DC00000           [019] getglobal  1   3        ; math
6A46  4E00C100           [020] gettable   1   1   260  ; -1124579617
6A4A  93000000           [021] getupval   2   0      
6A4E  84404101           [022] mul        2   2   261  ; 0
6A52  62800001           [023] call       1   2   2  
6A56  5C40C100           [024] div        1   1   261  ; 0
6A5A  9D800100           [025] getglobal  2   6        ; -1615931716
6A5E  D2008000           [026] move       3   1      
6A62  A2800001           [027] call       2   2   2  
6A66  DDC00000           [028] getglobal  3   3        ; math
6A6A  CE00C101           [029] gettable   3   3   260  ; -1124579617
6A6E  12018000           [030] move       4   1      
6A72  E2800001           [031] call       3   2   2  
fail op	35
6A76  23C08000           [032] close      0  
6A7A  1A800080           [033] jmp        3            ; to [37]
6A7E  D2000001           [034] move       3   2      
6A82  19C10100           [035] loadk      4   7        ; ".0"
6A86  82008101           [036] concat     2   3   4  
6A8A  DD000200           [037] getglobal  3   8        ; string
6A8E  CE40C201           [038] gettable   3   3   265  ; 1664893510
6A92  12010001           [039] move       4   2      
6A96  59810200           [040] loadk      5   10       ; "%."
6A9A  99C10200           [041] loadk      6   11       ; "."
6A9E  E2800002           [042] call       3   4   2  
6AA2  92008001           [043] move       2   3      
6AA6  DD000300           [044] getglobal  3   12       ; mMovie
6AAA  E440C301           [045] self       3   3   269  ; -693657623
6AAE  59810300           [046] loadk      5   14       ; "Time"
6AB2  99C10300           [047] loadk      6   15       ; "text"
6AB6  D9010400           [048] loadk      7   16       ; "["
6ABA  12020001           [049] move       8   2      
6ABE  59420400           [050] loadk      9   17       ; "]"
6AC2  C2418203           [051] concat     7   7   9  
6AC6  E2408002           [052] call       3   5   1  
6ACA  DDC00000           [053] getglobal  3   3        ; math
6ACE  CE00C101           [054] gettable   3   3   260  ; -1124579617
6AD2  13010000           [055] getupval   4   0      
6AD6  E2800001           [056] call       3   2   2  
6ADA  13010001           [057] getupval   4   2      
fail op	35
6ADE  63008101           [058] close      1  
6AE2  1A000280           [059] jmp        9            ; to [69]
6AE6  D3008001           [060] getupval   3   3      
6AEA  CE80C401           [061] gettable   3   3   274  ; 630793108
6AEE  1DC10400           [062] getglobal  4   19       ; beepSound
6AF2  E2400001           [063] call       3   2   1  
6AF6  DDC00000           [064] getglobal  3   3        ; math
6AFA  CE00C101           [065] gettable   3   3   260  ; -1124579617
6AFE  13010000           [066] getupval   4   0      
6B02  E2800001           [067] call       3   2   2  
fail op	8
6B06  C8000001           [068] setupval   3   2      
6B0A  D3008000           [069] getupval   3   1      
6B0E  D8400000           [070] test       3       1    ; to [72] if false
6B12  1AC00580           [071] jmp        24           ; to [96]
6B16  D3000002           [072] getupval   3   4      
6B1A  13018002           [073] getupval   4   5      
6B1E  E2800001           [074] call       3   2   2  
6B22  13010003           [075] getupval   4   6      
6B26  0A010002           [076] len        4   4      
6B2A  1C814002           [077] div        4   4   258  ; 0
fail op	21
6B2E  15C00002           [078] concat     0   4   3  
6B32  1AC00380           [079] jmp        16           ; to [96]
6B36  DD000500           [080] getglobal  3   20       ; _T
6B3A  CE40C501           [081] gettable   3   3   277  ; "WareframeChallenge"
6B3E  D8400000           [082] test       3       1    ; to [84] if false
6B42  1AC00280           [083] jmp        12           ; to [96]
6B46  D7008000           [084] loadbool   3   1   0    ; true
fail op	8
6B4A  C8008000           [085] setupval   3   1      
6B4E  D3008001           [086] getupval   3   3      
6B52  CE80C401           [087] gettable   3   3   274  ; 630793108
6B56  1D810500           [088] getglobal  4   22       ; threatSound
6B5A  E2400001           [089] call       3   2   1  
6B5E  DD000300           [090] getglobal  3   12       ; mMovie
6B62  E4C0C501           [091] self       3   3   279  ; 471456102
6B66  59010600           [092] loadk      5   24       ; "ThreatLabel"
6B6A  99410600           [093] loadk      6   25       ; "_visible"
6B6E  D7018000           [094] loadbool   7   1   0    ; true
6B72  E2408002           [095] call       3   5   1  
6B76  D3000000           [096] getupval   3   0      
fail op	33
6B7A  2100C001           [097] tforloop   0       256  ; to [99] if exit
6B7E  1AC00580           [098] jmp        24           ; to [123]
6B82  DD800600           [099] getglobal  3   26       ; gRegion
6B86  E4C0C601           [100] self       3   3   283  ; 65205951
6B8A  E2800001           [101] call       3   2   2  
6B8E  1D010700           [102] getglobal  4   28       ; 1074689893
6B92  52018001           [103] move       5   3      
6B96  22810001           [104] call       4   2   2  
6B9A  18410000           [105] test       4       1    ; to [107] if false
6B9E  1A400380           [106] jmp        14           ; to [121]
6BA2  2441C701           [107] self       4   3   285  ; -1917464545
6BA6  22810001           [108] call       4   2   2  
6BAA  24814702           [109] self       4   4   286  ; -940929887
6BAE  99010000           [110] loadk      6   0        ; 0
6BB2  DDC10700           [111] getglobal  7   31       ; Game
6BB6  CE01C803           [112] gettable   7   7   288  ; "AVATAR_REHACK_CHANCE"
6BBA  22810002           [113] call       4   4   2  
6BBE  5D410800           [114] getglobal  5   33       ; 1489265602
6BC2  62818000           [115] call       5   1   2  
fail op	33
6BC6  21008102           [116] tforloop   0       4    ; to [118] if exit
6BCA  1A800080           [117] jmp        3            ; to [121]
6BCE  53018003           [118] getupval   5   7      
6BD2  62418000           [119] call       5   1   1  
6BD6  1E008000           [120] return     0   1      
6BDA  53010004           [121] getupval   5   8      
6BDE  62418000           [122] call       5   1   1  
6BE2  1E008000           [123] return     0   1      
                         * constants:
6BE6  22                 sizek (34)
6BE7  03                 const type 3
6BE8  00000000           const [0]: (0)
6BEC  01                 const type 3
6BED  FFF9DE4C           const [1]: (1289681407)
6BF1  03                 const type 3
6BF2  00000040           const [2]: (0)
6BF6  04                 const type 4
6BF7  05                 string size (5)
6BF8  6D61746800         "math\0"
                         const [3]: "math"
6BFD  01                 const type 3
6BFE  DF46F8BC           const [4]: (-1124579617)
6C02  03                 const type 3
6C03  00002041           const [5]: (0)
6C07  01                 const type 3
6C08  BCD6AE9F           const [6]: (-1615931716)
6C0C  04                 const type 4
6C0D  03                 string size (3)
6C0E  2E3000             ".0\0"
                         const [7]: ".0"
6C11  04                 const type 4
6C12  07                 string size (7)
6C13  737472696E6700     "string\0"
                         const [8]: "string"
6C1A  01                 const type 3
6C1B  46423C63           const [9]: (1664893510)
6C1F  04                 const type 4
6C20  03                 string size (3)
6C21  252E00             "%.\0"
                         const [10]: "%."
6C24  04                 const type 4
6C25  02                 string size (2)
6C26  2E00               ".\0"
                         const [11]: "."
6C28  04                 const type 4
6C29  07                 string size (7)
6C2A  6D4D6F76696500     "mMovie\0"
                         const [12]: "mMovie"
6C31  01                 const type 3
6C32  E99FA7D6           const [13]: (-693657623)
6C36  04                 const type 4
6C37  05                 string size (5)
6C38  54696D6500         "Time\0"
                         const [14]: "Time"
6C3D  04                 const type 4
6C3E  05                 string size (5)
6C3F  7465787400         "text\0"
                         const [15]: "text"
6C44  04                 const type 4
6C45  02                 string size (2)
6C46  5B00               "[\0"
                         const [16]: "["
6C48  04                 const type 4
6C49  02                 string size (2)
6C4A  5D00               "]\0"
                         const [17]: "]"
6C4C  01                 const type 3
6C4D  94239925           const [18]: (630793108)
6C51  04                 const type 4
6C52  0A                 string size (10)
6C53  62656570536F756E+  "beepSoun"
6C5B  6400               "d\0"
                         const [19]: "beepSound"
6C5D  04                 const type 4
6C5E  03                 string size (3)
6C5F  5F5400             "_T\0"
                         const [20]: "_T"
6C62  04                 const type 4
6C63  13                 string size (19)
6C64  576172656672616D+  "Warefram"
6C6C  654368616C6C656E+  "eChallen"
6C74  676500             "ge\0"
                         const [21]: "WareframeChallenge"
6C77  04                 const type 4
6C78  0C                 string size (12)
6C79  746872656174536F+  "threatSo"
6C81  756E6400           "und\0"
                         const [22]: "threatSound"
6C85  01                 const type 3
6C86  66D9191C           const [23]: (471456102)
6C8A  04                 const type 4
6C8B  0C                 string size (12)
6C8C  5468726561744C61+  "ThreatLa"
6C94  62656C00           "bel\0"
                         const [24]: "ThreatLabel"
6C98  04                 const type 4
6C99  09                 string size (9)
6C9A  5F76697369626C65+  "_visible"
6CA2  00                 "\0"
                         const [25]: "_visible"
6CA3  04                 const type 4
6CA4  08                 string size (8)
6CA5  67526567696F6E00   "gRegion\0"
                         const [26]: "gRegion"
6CAD  01                 const type 3
6CAE  BFF6E203           const [27]: (65205951)
6CB2  01                 const type 3
6CB3  65770E40           const [28]: (1074689893)
6CB7  01                 const type 3
6CB8  1FD0B58D           const [29]: (-1917464545)
6CBC  01                 const type 3
6CBD  A18CEAC7           const [30]: (-940929887)
6CC1  04                 const type 4
6CC2  05                 string size (5)
6CC3  47616D6500         "Game\0"
                         const [31]: "Game"
6CC8  04                 const type 4
6CC9  15                 string size (21)
6CCA  4156415441525F52+  "AVATAR_R"
6CD2  454841434B5F4348+  "EHACK_CH"
6CDA  414E434500         "ANCE\0"
                         const [32]: "AVATAR_REHACK_CHANCE"
6CDF  01                 const type 3
6CE0  C263C458           const [33]: (1489265602)
                         * functions:
6CE4  00                 sizep (0)
                         * lines:
6CE5  7B                 sizelineinfo (123)
                         [pc] (line)
6CE6  F4                 [001] (-12)
6CE7  03                 [002] (-12)
6CE8  00                 [003] (-12)
6CE9  00                 [004] (-11)
6CEA  F4                 [005] (-8)
6CEB  03                 [006] (-8)
6CEC  00                 [007] (-6)
6CED  00                 [008] (-6)
6CEE  F4                 [009] (-6)
6CEF  03                 [010] (-5)
6CF0  00                 [011] (-2)
6CF1  00                 [012] (-2)
6CF2  F5                 [013] (-2)
6CF3  03                 [014] (-1)
6CF4  00                 [015] (-1)
6CF5  00                 [016] (-1)
6CF6  F8                 [017] (0)
6CF7  03                 [018] (0)
6CF8  00                 [019] (3)
6CF9  00                 [020] (3)
6CFA  F8                 [021] (3)
6CFB  03                 [022] (3)
6CFC  00                 [023] (3)
6CFD  00                 [024] (3)
6CFE  FA                 [025] (4)
6CFF  03                 [026] (4)
6D00  00                 [027] (4)
6D01  00                 [028] (6)
6D02  FA                 [029] (6)
6D03  03                 [030] (6)
6D04  00                 [031] (6)
6D05  00                 [032] (6)
6D06  FA                 [033] (6)
6D07  03                 [034] (7)
6D08  00                 [035] (7)
6D09  00                 [036] (7)
6D0A  FB                 [037] (10)
6D0B  03                 [038] (10)
6D0C  00                 [039] (10)
6D0D  00                 [040] (10)
6D0E  FE                 [041] (10)
6D0F  03                 [042] (10)
6D10  00                 [043] (10)
6D11  00                 [044] (12)
6D12  FE                 [045] (12)
6D13  03                 [046] (12)
6D14  00                 [047] (12)
6D15  00                 [048] (12)
6D16  FE                 [049] (12)
6D17  03                 [050] (12)
6D18  00                 [051] (12)
6D19  00                 [052] (12)
6D1A  FF                 [053] (14)
6D1B  03                 [054] (14)
6D1C  00                 [055] (14)
6D1D  00                 [056] (14)
6D1E  FF                 [057] (14)
6D1F  03                 [058] (14)
6D20  00                 [059] (14)
6D21  00                 [060] (15)
6D22  FF                 [061] (15)
6D23  03                 [062] (15)
6D24  00                 [063] (15)
6D25  00                 [064] (16)
6D26  00                 [065] (16)
6D27  04                 [066] (16)
6D28  00                 [067] (16)
6D29  00                 [068] (16)
6D2A  00                 [069] (19)
6D2B  04                 [070] (19)
6D2C  00                 [071] (19)
6D2D  00                 [072] (19)
6D2E  03                 [073] (19)
6D2F  04                 [074] (19)
6D30  00                 [075] (19)
6D31  00                 [076] (19)
6D32  03                 [077] (19)
6D33  04                 [078] (19)
6D34  00                 [079] (19)
6D35  00                 [080] (19)
6D36  03                 [081] (19)
6D37  04                 [082] (19)
6D38  00                 [083] (19)
6D39  00                 [084] (20)
6D3A  03                 [085] (20)
6D3B  04                 [086] (21)
6D3C  00                 [087] (21)
6D3D  00                 [088] (21)
6D3E  03                 [089] (21)
6D3F  04                 [090] (22)
6D40  00                 [091] (22)
6D41  00                 [092] (22)
6D42  03                 [093] (22)
6D43  04                 [094] (22)
6D44  00                 [095] (22)
6D45  00                 [096] (25)
6D46  04                 [097] (25)
6D47  04                 [098] (25)
6D48  00                 [099] (26)
6D49  00                 [100] (26)
6D4A  04                 [101] (26)
6D4B  04                 [102] (27)
6D4C  00                 [103] (27)
6D4D  00                 [104] (27)
6D4E  04                 [105] (27)
6D4F  04                 [106] (27)
6D50  00                 [107] (28)
6D51  00                 [108] (28)
6D52  06                 [109] (28)
6D53  04                 [110] (28)
6D54  00                 [111] (28)
6D55  00                 [112] (28)
6D56  06                 [113] (28)
6D57  04                 [114] (29)
6D58  00                 [115] (29)
6D59  00                 [116] (29)
6D5A  06                 [117] (29)
6D5B  04                 [118] (30)
6D5C  00                 [119] (30)
6D5D  00                 [120] (31)
6D5E  06                 [121] (34)
6D5F  04                 [122] (34)
6D60  00                 [123] (36)
                         * locals:
6ED2  00                 sizelocvars (0)
                         * upvalues:
6ED3  00                 sizeupvalues (0)
                         ** end of function **

                         
6ED4                     ** function [37] definition (level 2)
                         ** start of function **
6ED4  00                 string size (0)
                         source name: (none)
6ED6  08                 line defined (1062)
6ED7  AB                 last line defined (1067)
6ED8  08                 nups (3)
6ED9  03                 numparams (0)
6EDA  00                 is_vararg (0)
6EDB  00                 maxstacksize (2)
                         * code:
6EDD  08                 sizecode (8)
6EDE  13000000           [1] getupval   0   0      
6EE2  18400000           [2] test       0       1    ; to [4] if false
6EE6  1A400080           [3] jmp        2            ; to [6]
6EEA  13008000           [4] getupval   0   1      
6EEE  22408000           [5] call       0   1   1  
6EF2  19000000           [6] loadk      0   0        ; 0
fail op	8
6EF6  08000001           [7] setupval   0   2      
6EFA  1E008000           [8] return     0   1      
                         * constants:
6EFE  01                 sizek (1)
6EFF  03                 const type 3
6F00  0000803F           const [0]: (0)
                         * functions:
6F04  00                 sizep (0)
                         * lines:
6F05  08                 sizelineinfo (8)
                         [pc] (line)
6F06  27                 [1] (39)
6F07  04                 [2] (39)
6F08  00                 [3] (39)
6F09  00                 [4] (40)
6F0A  27                 [5] (40)
6F0B  04                 [6] (42)
6F0C  00                 [7] (42)
6F0D  00                 [8] (43)
                         * locals:
6F26  00                 sizelocvars (0)
                         * upvalues:
6F27  00                 sizeupvalues (0)
                         ** end of function **

                         
6F28                     ** function [38] definition (level 2)
                         ** start of function **
6F28  00                 string size (0)
                         source name: (none)
6F2A  08                 line defined (1069)
6F2B  BF                 last line defined (1087)
6F2C  08                 nups (4)
6F2D  04                 numparams (0)
6F2E  00                 is_vararg (0)
6F2F  00                 maxstacksize (5)
                         * code:
6F31  2E                 sizecode (46)
6F32  17008000           [01] loadbool   0   1   0    ; true
fail op	8
6F36  08000000           [02] setupval   0   0      
6F3A  1D000000           [03] getglobal  0   0        ; mMovie
6F3E  24404000           [04] self       0   0   257  ; 2082429591
6F42  22800001           [05] call       0   2   2  
6F46  5D800000           [06] getglobal  1   2        ; 1074689893
6F4A  92000000           [07] move       2   0      
6F4E  62800001           [08] call       1   2   2  
6F52  58400000           [09] test       1       1    ; to [11] if false
6F56  1A000380           [10] jmp        13           ; to [24]
6F5A  59C00000           [11] loadk      1   3        ; 0
6F5E  93008000           [12] getupval   2   1      
6F62  98000000           [13] test       2       0    ; to [15] if true
6F66  1A400080           [14] jmp        2            ; to [17]
6F6A  59000100           [15] loadk      1   4        ; 0
6F6E  1AC00080           [16] jmp        4            ; to [21]
6F72  93000001           [17] getupval   2   2      
6F76  98000000           [18] test       2       0    ; to [20] if true
6F7A  1A000080           [19] jmp        1            ; to [21]
6F7E  59400100           [20] loadk      1   5        ; 0
6F82  A4804100           [21] self       2   0   262  ; -1499772696
6F86  12018000           [22] move       4   1      
6F8A  A2408001           [23] call       2   3   1  
6F8E  9D000000           [24] getglobal  2   0        ; mMovie
6F92  A4C04101           [25] self       2   2   263  ; -1517569684
6F96  A2400001           [26] call       2   2   1  
6F9A  9D000200           [27] getglobal  2   8        ; Engine
6F9E  8E404201           [28] gettable   2   2   265  ; 328784635
6FA2  A2808000           [29] call       2   1   2  
6FA6  98400000           [30] test       2       1    ; to [32] if false
6FAA  1A400380           [31] jmp        14           ; to [46]
6FAE  9D800000           [32] getglobal  2   2        ; 1074689893
6FB2  D3008001           [33] getupval   3   3      
6FB6  A2800001           [34] call       2   2   2  
6FBA  98400000           [35] test       2       1    ; to [37] if false
6FBE  1A000280           [36] jmp        9            ; to [46]
6FC2  93008001           [37] getupval   2   3      
6FC6  A4804201           [38] self       2   2   266  ; -342618041
6FCA  A2800001           [39] call       2   2   2  
6FCE  98000000           [40] test       2       0    ; to [42] if true
6FD2  1AC00080           [41] jmp        4            ; to [46]
6FD6  93008001           [42] getupval   2   3      
6FDA  A4C04201           [43] self       2   2   267  ; -1864334350
6FDE  17010000           [44] loadbool   4   0   0    ; false
6FE2  A2408001           [45] call       2   3   1  
6FE6  1E008000           [46] return     0   1      
                         * constants:
6FEA  0C                 sizek (12)
6FEB  04                 const type 4
6FEC  07                 string size (7)
6FED  6D4D6F76696500     "mMovie\0"
                         const [0]: "mMovie"
6FF4  01                 const type 3
6FF5  975A1F7C           const [1]: (2082429591)
6FF9  01                 const type 3
6FFA  65770E40           const [2]: (1074689893)
6FFE  03                 const type 3
6FFF  00000000           const [3]: (0)
7003  03                 const type 3
7004  0000803F           const [4]: (0)
7008  03                 const type 3
7009  00000040           const [5]: (0)
700D  01                 const type 3
700E  E8489BA6           const [6]: (-1499772696)
7012  01                 const type 3
7013  6CB98BA5           const [7]: (-1517569684)
7017  04                 const type 4
7018  07                 string size (7)
7019  456E67696E6500     "Engine\0"
                         const [8]: "Engine"
7020  01                 const type 3
7021  FBDA9813           const [9]: (328784635)
7025  01                 const type 3
7026  471094EB           const [10]: (-342618041)
702A  01                 const type 3
702B  F283E090           const [11]: (-1864334350)
                         * functions:
702F  00                 sizep (0)
                         * lines:
7030  2E                 sizelineinfo (46)
                         [pc] (line)
7031  2E                 [01] (46)
7032  04                 [02] (46)
7033  00                 [03] (48)
7034  00                 [04] (48)
7035  2E                 [05] (48)
7036  04                 [06] (49)
7037  00                 [07] (49)
7038  00                 [08] (49)
7039  30                 [09] (49)
703A  04                 [10] (49)
703B  00                 [11] (50)
703C  00                 [12] (51)
703D  30                 [13] (51)
703E  04                 [14] (51)
703F  00                 [15] (52)
7040  00                 [16] (52)
7041  30                 [17] (53)
7042  04                 [18] (53)
7043  00                 [19] (53)
7044  00                 [20] (54)
7045  31                 [21] (56)
7046  04                 [22] (56)
7047  00                 [23] (56)
7048  00                 [24] (58)
7049  31                 [25] (58)
704A  04                 [26] (58)
704B  00                 [27] (60)
704C  00                 [28] (60)
704D  31                 [29] (60)
704E  04                 [30] (60)
704F  00                 [31] (60)
7050  00                 [32] (60)
7051  31                 [33] (60)
7052  04                 [34] (60)
7053  00                 [35] (60)
7054  00                 [36] (60)
7055  31                 [37] (60)
7056  04                 [38] (60)
7057  00                 [39] (60)
7058  00                 [40] (60)
7059  32                 [41] (60)
705A  04                 [42] (61)
705B  00                 [43] (61)
705C  00                 [44] (61)
705D  33                 [45] (61)
705E  04                 [46] (63)
                         * locals:
70E9  00                 sizelocvars (0)
                         * upvalues:
70EA  00                 sizeupvalues (0)
                         ** end of function **

                         
70EB                     ** function [39] definition (level 2)
                         ** start of function **
70EB  00                 string size (0)
                         source name: (none)
70ED  08                 line defined (1089)
70EE  D0                 last line defined (1104)
70EF  08                 nups (7)
70F0  07                 numparams (0)
70F1  00                 is_vararg (0)
70F2  00                 maxstacksize (2)
                         * code:
70F4  17                 sizecode (23)
70F5  13000000           [01] getupval   0   0      
70F9  18000000           [02] test       0       0    ; to [4] if true
70FD  1A000080           [03] jmp        1            ; to [5]
7101  1E008000           [04] return     0   1      
7105  13008000           [05] getupval   0   1      
7109  18000000           [06] test       0       0    ; to [8] if true
710D  1A400180           [07] jmp        6            ; to [14]
7111  13000001           [08] getupval   0   2      
fail op	21
7115  15000080           [09] concat     0   256 0  
7119  1AC00280           [10] jmp        12           ; to [23]
711D  13008001           [11] getupval   0   3      
7121  22408000           [12] call       0   1   1  
7125  1A000280           [13] jmp        9            ; to [23]
7129  13000002           [14] getupval   0   4      
712D  22408000           [15] call       0   1   1  
7131  13008002           [16] getupval   0   5      
7135  18400000           [17] test       0       1    ; to [19] if false
7139  1AC00080           [18] jmp        4            ; to [23]
713D  13000003           [19] getupval   0   6      
7141  0E404000           [20] gettable   0   0   257  ; 630793108
7145  5D800000           [21] getglobal  1   2        ; failSound
7149  22400001           [22] call       0   2   1  
714D  1E008000           [23] return     0   1      
                         * constants:
7151  03                 sizek (3)
7152  03                 const type 3
7153  00000000           const [0]: (0)
7157  01                 const type 3
7158  94239925           const [1]: (630793108)
715C  04                 const type 4
715D  0A                 string size (10)
715E  6661696C536F756E+  "failSoun"
7166  6400               "d\0"
                         const [2]: "failSound"
                         * functions:
7168  00                 sizep (0)
                         * lines:
7169  17                 sizelineinfo (23)
                         [pc] (line)
716A  42                 [01] (66)
716B  04                 [02] (66)
716C  00                 [03] (66)
716D  00                 [04] (67)
716E  42                 [05] (70)
716F  04                 [06] (70)
7170  00                 [07] (70)
7171  00                 [08] (71)
7172  42                 [09] (71)
7173  04                 [10] (71)
7174  00                 [11] (72)
7175  00                 [12] (72)
7176  43                 [13] (73)
7177  04                 [14] (75)
7178  00                 [15] (75)
7179  00                 [16] (76)
717A  46                 [17] (76)
717B  04                 [18] (76)
717C  00                 [19] (77)
717D  00                 [20] (77)
717E  46                 [21] (77)
717F  04                 [22] (77)
7180  00                 [23] (80)
                         * locals:
71C6  00                 sizelocvars (0)
                         * upvalues:
71C7  00                 sizeupvalues (0)
                         ** end of function **

                         
71C8                     ** function [40] definition (level 2)
                         ** start of function **
71C8  00                 string size (0)
                         source name: (none)
71CA  08                 line defined (1106)
71CB  BD                 last line defined (1213)
71CC  09                 nups (21)
71CD  15                 numparams (0)
71CE  00                 is_vararg (0)
71CF  00                 maxstacksize (26)
                         * code:
71D2  02                 sizecode (358)
71D3  1D000000           [001] getglobal  0   0        ; 1289681407
71D7  22808000           [002] call       0   1   2  
71DB  53000000           [003] getupval   1   0      
71DF  58400000           [004] test       1       1    ; to [6] if false
71E3  1A000E80           [005] jmp        57           ; to [63]
71E7  53008000           [006] getupval   1   1      
71EB  43008000           [007] add        1   1   0  
fail op	8
71EF  48008000           [008] setupval   1   1      
71F3  53008000           [009] getupval   1   1      
71F7  9D400000           [010] getglobal  2   1        ; openDelay
fail op	21
71FB  15808000           [011] concat     0   1   2  
71FF  1A400080           [012] jmp        2            ; to [15]
7203  1E008000           [013] return     0   1      
7207  1AC00B80           [014] jmp        48           ; to [63]
720B  57008000           [015] loadbool   1   1   0    ; true
fail op	8
720F  48000000           [016] setupval   1   0      
7213  5D800000           [017] getglobal  1   2        ; 1390508688
7217  9DC00000           [018] getglobal  2   3        ; mMovie
721B  D9000100           [019] loadk      3   4        ; "Bg"
721F  1D410100           [020] getglobal  4   5        ; UISys
7223  0E814102           [021] gettable   4   4   262  ; "FlashInstance_EASE_OUT"
7227  4B018000           [022] newtable   5   1   0    ; array=1, hash=0
722B  99C10100           [023] loadk      6   7        ; "_alpha"
722F  5B418000           [024] setlist    5   1   1    ; index 1 to 1
7233  8B018000           [025] newtable   6   1   0    ; array=1, hash=0
7237  D9010200           [026] loadk      7   8        ; 0
723B  9B418000           [027] setlist    6   1   1    ; index 1 to 1
723F  D9410200           [028] loadk      7   9        ; 51
7243  19820200           [029] loadk      8   10       ; 0
7247  62400004           [030] call       1   8   1  
724B  5D800000           [031] getglobal  1   2        ; 1390508688
724F  9DC00000           [032] getglobal  2   3        ; mMovie
7253  D9C00200           [033] loadk      3   11       ; "Bg2"
7257  1D410100           [034] getglobal  4   5        ; UISys
725B  0E814102           [035] gettable   4   4   262  ; "FlashInstance_EASE_OUT"
725F  4B010001           [036] newtable   5   2   0    ; array=2, hash=0
7263  99010300           [037] loadk      6   12       ; "_z"
7267  D9C10100           [038] loadk      7   7        ; "_alpha"
726B  5B410001           [039] setlist    5   2   1    ; index 1 to 2
726F  8B010001           [040] newtable   6   2   0    ; array=2, hash=0
7273  D9410300           [041] loadk      7   13       ; 0
7277  19820300           [042] loadk      8   14       ; 0
727B  9B410001           [043] setlist    6   2   1    ; index 1 to 2
727F  D9410200           [044] loadk      7   9        ; 51
7283  19820200           [045] loadk      8   10       ; 0
7287  62400004           [046] call       1   8   1  
728B  5D800000           [047] getglobal  1   2        ; 1390508688
728F  9DC00000           [048] getglobal  2   3        ; mMovie
7293  D9C00300           [049] loadk      3   15       ; "Bg3"
7297  1D410100           [050] getglobal  4   5        ; UISys
729B  0E814102           [051] gettable   4   4   262  ; "FlashInstance_EASE_OUT"
729F  4B010001           [052] newtable   5   2   0    ; array=2, hash=0
72A3  99010300           [053] loadk      6   12       ; "_z"
72A7  D9C10100           [054] loadk      7   7        ; "_alpha"
72AB  5B410001           [055] setlist    5   2   1    ; index 1 to 2
72AF  8B010001           [056] newtable   6   2   0    ; array=2, hash=0
72B3  D9010400           [057] loadk      7   16       ; 0
72B7  19420400           [058] loadk      8   17       ; 0
72BB  9B410001           [059] setlist    6   2   1    ; index 1 to 2
72BF  D9410200           [060] loadk      7   9        ; 51
72C3  19820200           [061] loadk      8   10       ; 0
72C7  62400004           [062] call       1   8   1  
72CB  53000001           [063] getupval   1   2      
72CF  58400000           [064] test       1       1    ; to [66] if false
72D3  1A000080           [065] jmp        1            ; to [67]
72D7  1E008000           [066] return     0   1      
72DB  53008001           [067] getupval   1   3      
fail op	21
72DF  15400089           [068] concat     0   274 1  
72E3  1A400480           [069] jmp        18           ; to [88]
72E7  53008001           [070] getupval   1   3      
72EB  4D008000           [071] sub        1   1   0  
fail op	8
72EF  48008001           [072] setupval   1   3      
72F3  53008001           [073] getupval   1   3      
fail op	21
72F7  1580C400           [074] concat     0   1   274
72FB  1AC00280           [075] jmp        12           ; to [88]
72FF  59C00400           [076] loadk      1   19       ; 0
7303  93000002           [077] getupval   2   4      
7307  8A000001           [078] len        2   2      
730B  D9C00400           [079] loadk      3   19       ; 0
730F  50C00080           [080] forprep    1   4        ; to [85]
7313  53018002           [081] getupval   5   5      
7317  93010002           [082] getupval   6   4      
731B  8E010103           [083] gettable   6   6   4  
731F  62410001           [084] call       5   2   1  
7323  5480FE7F           [085] forloop    1   -5       ; to [81] if loop
7327  59010500           [086] loadk      5   20       ; -102
fail op	8
732B  48018001           [087] setupval   5   3      
732F  5D410500           [088] getglobal  5   21       ; gRegion
7333  6481C502           [089] self       5   5   278  ; 65205951
7337  62810001           [090] call       5   2   2  
733B  9DC10500           [091] getglobal  6   23       ; 1074689893
733F  D2018002           [092] move       7   5      
7343  A2810001           [093] call       6   2   2  
7347  98410000           [094] test       6       1    ; to [96] if false
734B  1A800280           [095] jmp        11           ; to [107]
734F  A401C602           [096] self       6   5   280  ; 796523475
7353  A2810001           [097] call       6   2   2  
fail op	33
7357  21804403           [098] tforloop   0       274  ; to [100] if exit
735B  1A800180           [099] jmp        7            ; to [107]
735F  93010003           [100] getupval   6   6      
7363  98410000           [101] test       6       1    ; to [103] if false
7367  1AC00080           [102] jmp        4            ; to [107]
736B  93018003           [103] getupval   6   7      
736F  D2018002           [104] move       7   5      
7373  A2410001           [105] call       6   2   1  
7377  1E008000           [106] return     0   1      
737B  99C10400           [107] loadk      6   19       ; 0
737F  D3010002           [108] getupval   7   4      
7383  CA018003           [109] len        7   7      
7387  19C20400           [110] loadk      8   19       ; 0
738B  90C10080           [111] forprep    6   4        ; to [116]
738F  93020004           [112] getupval   10  8      
7393  D3020002           [113] getupval   11  4      
7397  CE428205           [114] gettable   11  11  9  
739B  A2420001           [115] call       10  2   1  
739F  9481FE7F           [116] forloop    6   -5       ; to [112] if loop
73A3  93028004           [117] getupval   10  9      
73A7  A2428000           [118] call       10  1   1  
73AB  93020005           [119] getupval   10  10     
73AF  A2428000           [120] call       10  1   1  
73B3  93028005           [121] getupval   10  11     
fail op	21
73B7  15800289           [122] concat     0   274 10 
73BB  1A400D80           [123] jmp        54           ; to [178]
73BF  93028005           [124] getupval   10  11     
73C3  8D020005           [125] sub        10  10  0  
fail op	8
73C7  88028005           [126] setupval   10  11     
73CB  9DC20000           [127] getglobal  10  3        ; mMovie
73CF  A4424605           [128] self       10  10  281  ; 471456102
73D3  19830600           [129] loadk      12  26       ; "_root"
73D7  59C30100           [130] loadk      13  7        ; "_alpha"
73DB  9DC30600           [131] getglobal  14  27       ; math
73DF  8E034707           [132] gettable   14  14  284  ; 1710846250
73E3  D9C30400           [133] loadk      15  19       ; 0
73E7  13048005           [134] getupval   16  11     
73EB  A2838001           [135] call       14  3   2  
73EF  84034207           [136] mul        14  14  264  ; 0
73F3  A2428002           [137] call       10  5   1  
73F7  93028005           [138] getupval   10  11     
fail op	33
73FB  21804405           [139] tforloop   0       274  ; to [141] if exit
73FF  1A800080           [140] jmp        3            ; to [144]
7403  93020006           [141] getupval   10  12     
7407  A2428000           [142] call       10  1   1  
740B  1E008000           [143] return     0   1      
740F  93028006           [144] getupval   10  13     
7413  98420000           [145] test       10      1    ; to [147] if false
7417  1A400D80           [146] jmp        54           ; to [201]
741B  9DC20600           [147] getglobal  10  27       ; math
741F  8E024705           [148] gettable   10  10  284  ; 1710846250
7423  D9C20400           [149] loadk      11  19       ; 0
7427  13038005           [150] getupval   12  11     
742B  A2828001           [151] call       10  3   2  
742F  DDC20000           [152] getglobal  11  3        ; mMovie
7433  E442C605           [153] self       11  11  281  ; 471456102
7437  59830600           [154] loadk      13  26       ; "_root"
743B  99430700           [155] loadk      14  29       ; "_x"
743F  DD830700           [156] getglobal  15  30       ; 1238561778
7443  1DC40700           [157] getglobal  16  31       ; 1491452635
7447  22848000           [158] call       16  1   2  
744B  04044808           [159] mul        16  16  288  ; 0
744F  E2830001           [160] call       15  2   2  
7453  C4C30305           [161] mul        15  10  15 
7457  C443C807           [162] mul        15  15  289  ; 0
745B  E2428002           [163] call       11  5   1  
745F  DDC20000           [164] getglobal  11  3        ; mMovie
7463  E442C605           [165] self       11  11  281  ; 471456102
7467  59830600           [166] loadk      13  26       ; "_root"
746B  99830800           [167] loadk      14  34       ; "_y"
746F  DD830700           [168] getglobal  15  30       ; 1238561778
7473  1DC40700           [169] getglobal  16  31       ; 1491452635
7477  22848000           [170] call       16  1   2  
747B  04044808           [171] mul        16  16  288  ; 0
747F  03044808           [172] add        16  16  288  ; 0
7483  E2830001           [173] call       15  2   2  
7487  C4C30305           [174] mul        15  10  15 
748B  C443C807           [175] mul        15  15  289  ; 0
748F  E2428002           [176] call       11  5   1  
7493  1A800580           [177] jmp        23           ; to [201]
7497  DDC20800           [178] getglobal  11  35       ; -174740002
749B  1DC30000           [179] getglobal  12  3        ; mMovie
749F  24034906           [180] self       12  12  292  ; 1803241227
74A3  99830600           [181] loadk      14  26       ; "_root"
74A7  D9C30100           [182] loadk      15  7        ; "_alpha"
74AB  22030002           [183] call       12  4   0  
74AF  E2820000           [184] call       11  0   2  
fail op	21
74B3  1500C205           [185] concat     0   11  264
74B7  1A400380           [186] jmp        14           ; to [201]
74BB  04034200           [187] mul        12  0   264  ; 0
74BF  C3028305           [188] add        11  11  12 
74C3  1DC30600           [189] getglobal  12  27       ; math
74C7  0E034706           [190] gettable   12  12  284  ; 1710846250
74CB  59030200           [191] loadk      13  8        ; 0
74CF  92038005           [192] move       14  11     
74D3  22838001           [193] call       12  3   2  
74D7  D2020006           [194] move       11  12     
74DB  1DC30000           [195] getglobal  12  3        ; mMovie
74DF  24434606           [196] self       12  12  281  ; 471456102
74E3  99830600           [197] loadk      14  26       ; "_root"
74E7  D9C30100           [198] loadk      15  7        ; "_alpha"
74EB  12048005           [199] move       16  11     
74EF  22438002           [200] call       12  5   1  
74F3  1D430900           [201] getglobal  12  37       ; Engine
74F7  0E834906           [202] gettable   12  12  294  ; 328784635
74FB  22838000           [203] call       12  1   2  
74FF  18430000           [204] test       12      1    ; to [206] if false
7503  1A800380           [205] jmp        15           ; to [221]
7507  1DC30500           [206] getglobal  12  23       ; 1074689893
750B  53030007           [207] getupval   13  14     
750F  22830001           [208] call       12  2   2  
7513  18430000           [209] test       12      1    ; to [211] if false
7517  1A400280           [210] jmp        10           ; to [221]
751B  13030007           [211] getupval   12  14     
751F  24C34906           [212] self       12  12  295  ; -342618041
7523  22830001           [213] call       12  2   2  
7527  18030000           [214] test       12      0    ; to [216] if true
752B  1A000180           [215] jmp        5            ; to [221]
752F  13030007           [216] getupval   12  14     
7533  24034A06           [217] self       12  12  296  ; 945386443
7537  93038007           [218] getupval   14  15     
753B  D3030008           [219] getupval   15  16     
753F  22430002           [220] call       12  4   1  
7543  13038008           [221] getupval   12  17     
7547  0E434A06           [222] gettable   12  12  297  ; "Tried"
754B  18430000           [223] test       12      1    ; to [225] if false
754F  1AC00F80           [224] jmp        64           ; to [289]
7553  1DC30500           [225] getglobal  12  23       ; 1074689893
7557  52038002           [226] move       13  5      
755B  22830001           [227] call       12  2   2  
755F  18430000           [228] test       12      1    ; to [230] if false
7563  1A800E80           [229] jmp        59           ; to [289]
7567  13038008           [230] getupval   12  17     
756B  0C83CA94           [231] settable   12  297 298  ; "Tried" 1
756F  24C3CA02           [232] self       12  5   299  ; 634817106
7573  22830001           [233] call       12  2   2  
7577  24034B06           [234] self       12  12  300  ; 1978351479
757B  22830001           [235] call       12  2   2  
757F  5DC30500           [236] getglobal  13  23       ; 1074689893
7583  9D430B00           [237] getglobal  14  45       ; _T
7587  8E834B07           [238] gettable   14  14  302  ; "autoHacked"
758B  62830001           [239] call       13  2   2  
758F  58030000           [240] test       13      0    ; to [242] if true
7593  1AC00080           [241] jmp        4            ; to [246]
7597  5D430B00           [242] getglobal  13  45       ; _T
759B  8B030000           [243] newtable   14  0   0    ; array=0, hash=0
759F  4C830397           [244] settable   13  302 14   ; "autoHacked"
75A3  1A400380           [245] jmp        14           ; to [260]
75A7  59C30400           [246] loadk      13  19       ; 0
75AB  9D430B00           [247] getglobal  14  45       ; _T
75AF  8E834B07           [248] gettable   14  14  302  ; "autoHacked"
75B3  8A030007           [249] len        14  14     
75B7  D9C30400           [250] loadk      15  19       ; 0
75BB  50830180           [251] forprep    13  7        ; to [259]
75BF  5D440B00           [252] getglobal  17  45       ; _T
75C3  4E84CB08           [253] gettable   17  17  302  ; "autoHacked"
75C7  4E048408           [254] gettable   17  17  16 
fail op	35
75CB  23400406           [255] close      0  
75CF  1A400080           [256] jmp        2            ; to [259]
75D3  06030006           [257] loadnil    12  12     
75D7  1A000080           [258] jmp        1            ; to [260]
75DB  54C3FD7F           [259] forloop    13  -8       ; to [252] if loop
75DF  5DC40500           [260] getglobal  17  23       ; 1074689893
75E3  92040006           [261] move       18  12     
75E7  62840001           [262] call       17  2   2  
75EB  58440000           [263] test       17      1    ; to [265] if false
75EF  1A400C80           [264] jmp        50           ; to [315]
75F3  5DC40B00           [265] getglobal  17  47       ; table
75F7  4E04CC08           [266] gettable   17  17  304  ; -431682403
75FB  9D440B00           [267] getglobal  18  45       ; _T
75FF  8E844B09           [268] gettable   18  18  302  ; "autoHacked"
7603  D2040006           [269] move       19  12     
7607  62448001           [270] call       17  3   1  
760B  6444CC02           [271] self       17  5   305  ; -1917464545
760F  62840001           [272] call       17  2   2  
7613  6484CC08           [273] self       17  17  306  ; -940929887
7617  D9840400           [274] loadk      19  18       ; 0
761B  1DC50C00           [275] getglobal  20  51       ; Game
761F  0E054D0A           [276] gettable   20  20  308  ; "AVATAR_HACK_CHANCE"
7623  62840002           [277] call       17  4   2  
7627  9D440D00           [278] getglobal  18  53       ; 1489265602
762B  A2848000           [279] call       18  1   2  
fail op	33
762F  21400409           [280] tforloop   0       17   ; to [282] if exit
7633  1A000880           [281] jmp        33           ; to [315]
7637  93048008           [282] getupval   18  17     
763B  8C844A9B           [283] settable   18  310 298  ; "Success" 1
763F  9DC40000           [284] getglobal  18  3        ; mMovie
7643  A4C44D09           [285] self       18  18  311  ; 1649906088
7647  17050000           [286] loadbool   20  0   0    ; false
764B  A2448001           [287] call       18  3   1  
764F  1A400680           [288] jmp        26           ; to [315]
7653  93048008           [289] getupval   18  17     
7657  8E844D09           [290] gettable   18  18  310  ; "Success"
765B  98040000           [291] test       18      0    ; to [293] if true
765F  1A400580           [292] jmp        22           ; to [315]
7663  93048008           [293] getupval   18  17     
7667  8E044E09           [294] gettable   18  18  312  ; "Timer"
fail op	21
766B  15800489           [295] concat     0   274 18 
766F  1A400480           [296] jmp        18           ; to [315]
7673  93048008           [297] getupval   18  17     
7677  D3048008           [298] getupval   19  17     
767B  CE04CE09           [299] gettable   19  19  312  ; "Timer"
767F  1D050000           [300] getglobal  20  0        ; 1289681407
7683  22858000           [301] call       20  1   2  
7687  CD048509           [302] sub        19  19  20 
768B  8CC4049C           [303] settable   18  312 19   ; "Timer"
768F  93048008           [304] getupval   18  17     
7693  8E044E09           [305] gettable   18  18  312  ; "Timer"
fail op	33
7697  21804409           [306] tforloop   0       274  ; to [308] if exit
769B  1A800180           [307] jmp        7            ; to [315]
769F  93040009           [308] getupval   18  18     
76A3  A2448000           [309] call       18  1   1  
76A7  9D440B00           [310] getglobal  18  45       ; _T
76AB  8E444E09           [311] gettable   18  18  313  ; -1553752463
76AF  D9840E00           [312] loadk      19  58       ; "/Lotus/Language/Mods/AutoHackModName"
76B3  19C50E00           [313] loadk      20  59       ; 0
76B7  A2448001           [314] call       18  3   1  
76BB  9DC40000           [315] getglobal  18  3        ; mMovie
76BF  A4044F09           [316] self       18  18  316  ; 135097114
76C3  1D450F00           [317] getglobal  20  61       ; 1661359502
76C7  22058000           [318] call       20  1   0  
76CB  A2440000           [319] call       18  0   1  
76CF  9DC40000           [320] getglobal  18  3        ; mMovie
76D3  A4844F09           [321] self       18  18  318  ; -1159333591
76D7  A2840001           [322] call       18  2   2  
76DB  DDC40000           [323] getglobal  19  3        ; mMovie
76DF  E4C4CF09           [324] self       19  19  319  ; -203345184
76E3  E2840001           [325] call       19  2   2  
76E7  DCC4CE09           [326] div        19  19  315  ; 0
76EB  8DC40409           [327] sub        18  18  19 
76EF  9C044209           [328] div        18  18  264  ; 0
76F3  DDC40000           [329] getglobal  19  3        ; mMovie
76F7  E404D009           [330] self       19  19  320  ; 1791826823
76FB  E2840001           [331] call       19  2   2  
76FF  1DC50000           [332] getglobal  20  3        ; mMovie
7703  2445500A           [333] self       20  20  321  ; 1754893949
7707  22850001           [334] call       20  2   2  
770B  1CC54E0A           [335] div        20  20  315  ; 0
770F  CD048509           [336] sub        19  19  20 
7713  DC04C209           [337] div        19  19  264  ; 0
7717  1D851000           [338] getglobal  20  66       ; 508519041
771B  5DC51000           [339] getglobal  21  67       ; 1668611480
771F  92050009           [340] move       22  18     
7723  D9051100           [341] loadk      23  68       ; 0
7727  19461100           [342] loadk      24  69       ; 0
772B  62850002           [343] call       21  4   2  
772F  9DC51000           [344] getglobal  22  67       ; 1668611480
7733  D2058009           [345] move       23  19     
7737  19061100           [346] loadk      24  68       ; 0
773B  59460800           [347] loadk      25  33       ; 0
773F  A2850002           [348] call       22  4   2  
7743  8D45510B           [349] sub        22  22  325  ; 0
7747  D9850400           [350] loadk      23  18       ; 0
774B  22850002           [351] call       20  4   2  
774F  5305000A           [352] getupval   21  20     
7753  4E85D10A           [353] gettable   21  21  326  ; -310617930
7757  9205000A           [354] move       22  20     
775B  D3058009           [355] getupval   23  19     
775F  62858001           [356] call       21  3   2  
fail op	8
7763  48058009           [357] setupval   21  19     
7767  1E008000           [358] return     0   1      
                         * constants:
776B  47                 sizek (71)
776C  01                 const type 3
776D  FFF9DE4C           const [0]: (1289681407)
7771  04                 const type 4
7772  0A                 string size (10)
7773  6F70656E44656C61+  "openDela"
777B  7900               "y\0"
                         const [1]: "openDelay"
777D  01                 const type 3
777E  907AE152           const [2]: (1390508688)
7782  04                 const type 4
7783  07                 string size (7)
7784  6D4D6F76696500     "mMovie\0"
                         const [3]: "mMovie"
778B  04                 const type 4
778C  03                 string size (3)
778D  426700             "Bg\0"
                         const [4]: "Bg"
7790  04                 const type 4
7791  06                 string size (6)
7792  554953797300       "UISys\0"
                         const [5]: "UISys"
7798  04                 const type 4
7799  17                 string size (23)
779A  466C617368496E73+  "FlashIns"
77A2  74616E63655F4541+  "tance_EA"
77AA  53455F4F555400     "SE_OUT\0"
                         const [6]: "FlashInstance_EASE_OUT"
77B1  04                 const type 4
77B2  07                 string size (7)
77B3  5F616C70686100     "_alpha\0"
                         const [7]: "_alpha"
77BA  03                 const type 3
77BB  0000C842           const [8]: (0)
77BF  03                 const type 3
77C0  3333B33E           const [9]: (51)
77C4  03                 const type 3
77C5  0000803E           const [10]: (0)
77C9  04                 const type 4
77CA  04                 string size (4)
77CB  42673200           "Bg2\0"
                         const [11]: "Bg2"
77CF  04                 const type 4
77D0  03                 string size (3)
77D1  5F7A00             "_z\0"
                         const [12]: "_z"
77D4  03                 const type 3
77D5  00803B45           const [13]: (0)
77D9  03                 const type 3
77DA  00004842           const [14]: (0)
77DE  04                 const type 4
77DF  04                 string size (4)
77E0  42673300           "Bg3\0"
                         const [15]: "Bg3"
77E4  03                 const type 3
77E5  0080BB45           const [16]: (0)
77E9  03                 const type 3
77EA  0000C841           const [17]: (0)
77EE  03                 const type 3
77EF  00000000           const [18]: (0)
77F3  03                 const type 3
77F4  0000803F           const [19]: (0)
77F8  03                 const type 3
77F9  9A99193E           const [20]: (-102)
77FD  04                 const type 4
77FE  08                 string size (8)
77FF  67526567696F6E00   "gRegion\0"
                         const [21]: "gRegion"
7807  01                 const type 3
7808  BFF6E203           const [22]: (65205951)
780C  01                 const type 3
780D  65770E40           const [23]: (1074689893)
7811  01                 const type 3
7812  D3FB792F           const [24]: (796523475)
7816  01                 const type 3
7817  66D9191C           const [25]: (471456102)
781B  04                 const type 4
781C  06                 string size (6)
781D  5F726F6F7400       "_root\0"
                         const [26]: "_root"
7823  04                 const type 4
7824  05                 string size (5)
7825  6D61746800         "math\0"
                         const [27]: "math"
782A  01                 const type 3
782B  2A71F965           const [28]: (1710846250)
782F  04                 const type 4
7830  03                 string size (3)
7831  5F7800             "_x\0"
                         const [29]: "_x"
7834  01                 const type 3
7835  F2F3D249           const [30]: (1238561778)
7839  01                 const type 3
783A  DBC2E558           const [31]: (1491452635)
783E  03                 const type 3
783F  00004040           const [32]: (0)
7843  03                 const type 3
7844  00002041           const [33]: (0)
7848  04                 const type 4
7849  03                 string size (3)
784A  5F7900             "_y\0"
                         const [34]: "_y"
784D  01                 const type 3
784E  DEAD95F5           const [35]: (-174740002)
7852  01                 const type 3
7853  0B477B6B           const [36]: (1803241227)
7857  04                 const type 4
7858  07                 string size (7)
7859  456E67696E6500     "Engine\0"
                         const [37]: "Engine"
7860  01                 const type 3
7861  FBDA9813           const [38]: (328784635)
7865  01                 const type 3
7866  471094EB           const [39]: (-342618041)
786A  01                 const type 3
786B  CB735938           const [40]: (945386443)
786F  04                 const type 4
7870  06                 string size (6)
7871  547269656400       "Tried\0"
                         const [41]: "Tried"
7877  01                 const type 3
7878  01000000           const [42]: (1)
787C  01                 const type 3
787D  528AD625           const [43]: (634817106)
7881  01                 const type 3
7882  773FEB75           const [44]: (1978351479)
7886  04                 const type 4
7887  03                 string size (3)
7888  5F5400             "_T\0"
                         const [45]: "_T"
788B  04                 const type 4
788C  0B                 string size (11)
788D  6175746F4861636B+  "autoHack"
7895  656400             "ed\0"
                         const [46]: "autoHacked"
7898  04                 const type 4
7899  06                 string size (6)
789A  7461626C6500       "table\0"
                         const [47]: "table"
78A0  01                 const type 3
78A1  9D0C45E6           const [48]: (-431682403)
78A5  01                 const type 3
78A6  1FD0B58D           const [49]: (-1917464545)
78AA  01                 const type 3
78AB  A18CEAC7           const [50]: (-940929887)
78AF  04                 const type 4
78B0  05                 string size (5)
78B1  47616D6500         "Game\0"
                         const [51]: "Game"
78B6  04                 const type 4
78B7  13                 string size (19)
78B8  4156415441525F48+  "AVATAR_H"
78C0  41434B5F4348414E+  "ACK_CHAN"
78C8  434500             "CE\0"
                         const [52]: "AVATAR_HACK_CHANCE"
78CB  01                 const type 3
78CC  C263C458           const [53]: (1489265602)
78D0  04                 const type 4
78D1  08                 string size (8)
78D2  5375636365737300   "Success\0"
                         const [54]: "Success"
78DA  01                 const type 3
78DB  A8915762           const [55]: (1649906088)
78DF  04                 const type 4
78E0  06                 string size (6)
78E1  54696D657200       "Timer\0"
                         const [56]: "Timer"
78E7  01                 const type 3
78E8  719E63A3           const [57]: (-1553752463)
78EC  04                 const type 4
78ED  25                 string size (37)
78EE  2F4C6F7475732F4C+  "/Lotus/L"
78F6  616E67756167652F+  "anguage/"
78FE  4D6F64732F417574+  "Mods/Aut"
7906  6F4861636B4D6F64+  "oHackMod"
790E  4E616D6500         "Name\0"
                         const [58]: "/Lotus/Language/Mods/AutoHackModName"
7913  03                 const type 3
7914  00000040           const [59]: (0)
7918  01                 const type 3
7919  1A6B0D08           const [60]: (135097114)
791D  01                 const type 3
791E  8E550663           const [61]: (1661359502)
7922  01                 const type 3
7923  29F9E5BA           const [62]: (-1159333591)
7927  01                 const type 3
7928  E032E1F3           const [63]: (-203345184)
792C  01                 const type 3
792D  871BCD6A           const [64]: (1791826823)
7931  01                 const type 3
7932  7D8E9968           const [65]: (1754893949)
7936  01                 const type 3
7937  81624F1E           const [66]: (508519041)
793B  01                 const type 3
793C  98FD7463           const [67]: (1668611480)
7940  03                 const type 3
7941  000020C1           const [68]: (0)
7945  03                 const type 3
7946  0000A041           const [69]: (0)
794A  01                 const type 3
794B  B6587CED           const [70]: (-310617930)
                         * functions:
794F  00                 sizep (0)
                         * lines:
7951  02                 sizelineinfo (358)
                         [pc] (line)
7952  53                 [001] (83)
7953  04                 [002] (83)
7954  00                 [003] (85)
7955  00                 [004] (85)
7956  53                 [005] (85)
7957  04                 [006] (86)
7958  00                 [007] (86)
7959  00                 [008] (86)
795A  55                 [009] (87)
795B  04                 [010] (87)
795C  00                 [011] (87)
795D  00                 [012] (87)
795E  55                 [013] (88)
795F  04                 [014] (88)
7960  00                 [015] (90)
7961  00                 [016] (90)
7962  55                 [017] (92)
7963  04                 [018] (92)
7964  00                 [019] (92)
7965  00                 [020] (92)
7966  56                 [021] (92)
7967  04                 [022] (92)
7968  00                 [023] (92)
7969  00                 [024] (92)
796A  56                 [025] (92)
796B  04                 [026] (92)
796C  00                 [027] (92)
796D  00                 [028] (92)
796E  56                 [029] (92)
796F  04                 [030] (92)
7970  00                 [031] (93)
7971  00                 [032] (93)
7972  57                 [033] (93)
7973  04                 [034] (93)
7974  00                 [035] (93)
7975  00                 [036] (93)
7976  57                 [037] (93)
7977  04                 [038] (93)
7978  00                 [039] (93)
7979  00                 [040] (93)
797A  57                 [041] (93)
797B  04                 [042] (93)
797C  00                 [043] (93)
797D  00                 [044] (93)
797E  57                 [045] (93)
797F  04                 [046] (93)
7980  00                 [047] (94)
7981  00                 [048] (94)
7982  58                 [049] (94)
7983  04                 [050] (94)
7984  00                 [051] (94)
7985  00                 [052] (94)
7986  58                 [053] (94)
7987  04                 [054] (94)
7988  00                 [055] (94)
7989  00                 [056] (94)
798A  5A                 [057] (94)
798B  04                 [058] (94)
798C  00                 [059] (94)
798D  00                 [060] (94)
798E  5A                 [061] (94)
798F  04                 [062] (94)
7990  00                 [063] (98)
7991  00                 [064] (98)
7992  5C                 [065] (98)
7993  04                 [066] (99)
7994  00                 [067] (102)
7995  00                 [068] (102)
7996  5C                 [069] (102)
7997  04                 [070] (103)
7998  00                 [071] (103)
7999  00                 [072] (103)
799A  5C                 [073] (104)
799B  04                 [074] (104)
799C  00                 [075] (104)
799D  00                 [076] (105)
799E  5C                 [077] (105)
799F  04                 [078] (105)
79A0  00                 [079] (105)
79A1  00                 [080] (105)
79A2  5C                 [081] (106)
79A3  04                 [082] (106)
79A4  00                 [083] (106)
79A5  00                 [084] (106)
79A6  5C                 [085] (105)
79A7  04                 [086] (108)
79A8  00                 [087] (108)
79A9  00                 [088] (112)
79AA  5C                 [089] (112)
79AB  04                 [090] (112)
79AC  00                 [091] (113)
79AD  00                 [092] (113)
79AE  5C                 [093] (113)
79AF  04                 [094] (113)
79B0  00                 [095] (113)
79B1  00                 [096] (113)
79B2  5C                 [097] (113)
79B3  04                 [098] (113)
79B4  00                 [099] (113)
79B5  00                 [100] (113)
79B6  5C                 [101] (113)
79B7  04                 [102] (113)
79B8  00                 [103] (114)
79B9  00                 [104] (114)
79BA  5C                 [105] (114)
79BB  04                 [106] (115)
79BC  00                 [107] (118)
79BD  00                 [108] (118)
79BE  5C                 [109] (118)
79BF  04                 [110] (118)
79C0  00                 [111] (118)
79C1  00                 [112] (119)
79C2  5C                 [113] (119)
79C3  04                 [114] (119)
79C4  00                 [115] (119)
79C5  00                 [116] (118)
79C6  5C                 [117] (122)
79C7  04                 [118] (122)
79C8  00                 [119] (123)
79C9  00                 [120] (123)
79CA  5D                 [121] (125)
79CB  04                 [122] (125)
79CC  00                 [123] (125)
79CD  00                 [124] (126)
79CE  5D                 [125] (126)
79CF  04                 [126] (126)
79D0  00                 [127] (127)
79D1  00                 [128] (127)
79D2  5D                 [129] (127)
79D3  04                 [130] (127)
79D4  00                 [131] (127)
79D5  00                 [132] (127)
79D6  5D                 [133] (127)
79D7  04                 [134] (127)
79D8  00                 [135] (127)
79D9  00                 [136] (127)
79DA  5D                 [137] (127)
79DB  04                 [138] (-127)
79DC  00                 [139] (-127)
79DD  00                 [140] (-127)
79DE  5D                 [141] (-126)
79DF  04                 [142] (-126)
79E0  00                 [143] (-125)
79E1  00                 [144] (-122)
79E2  5D                 [145] (-122)
79E3  04                 [146] (-122)
79E4  00                 [147] (-121)
79E5  00                 [148] (-121)
79E6  5D                 [149] (-121)
79E7  04                 [150] (-121)
79E8  00                 [151] (-121)
79E9  00                 [152] (-120)
79EA  5D                 [153] (-120)
79EB  04                 [154] (-120)
79EC  00                 [155] (-120)
79ED  00                 [156] (-120)
79EE  5D                 [157] (-120)
79EF  04                 [158] (-120)
79F0  00                 [159] (-120)
79F1  00                 [160] (-120)
79F2  5D                 [161] (-120)
79F3  04                 [162] (-120)
79F4  00                 [163] (-120)
79F5  00                 [164] (-119)
79F6  5D                 [165] (-119)
79F7  04                 [166] (-119)
79F8  00                 [167] (-119)
79F9  00                 [168] (-119)
79FA  5D                 [169] (-119)
79FB  04                 [170] (-119)
79FC  00                 [171] (-119)
79FD  00                 [172] (-119)
79FE  5D                 [173] (-119)
79FF  04                 [174] (-119)
7A00  00                 [175] (-119)
7A01  00                 [176] (-119)
7A02  5D                 [177] (-118)
7A03  04                 [178] (-116)
7A04  00                 [179] (-116)
7A05  00                 [180] (-116)
7A06  5D                 [181] (-116)
7A07  04                 [182] (-116)
7A08  00                 [183] (-116)
7A09  00                 [184] (-116)
7A0A  5E                 [185] (-115)
7A0B  04                 [186] (-115)
7A0C  00                 [187] (-114)
7A0D  00                 [188] (-114)
7A0E  5E                 [189] (-113)
7A0F  04                 [190] (-113)
7A10  00                 [191] (-113)
7A11  00                 [192] (-113)
7A12  5E                 [193] (-113)
7A13  04                 [194] (-113)
7A14  00                 [195] (-112)
7A15  00                 [196] (-112)
7A16  5E                 [197] (-112)
7A17  04                 [198] (-112)
7A18  00                 [199] (-112)
7A19  00                 [200] (-112)
7A1A  5E                 [201] (-108)
7A1B  04                 [202] (-108)
7A1C  00                 [203] (-108)
7A1D  00                 [204] (-108)
7A1E  5E                 [205] (-108)
7A1F  04                 [206] (-108)
7A20  00                 [207] (-108)
7A21  00                 [208] (-108)
7A22  5E                 [209] (-108)
7A23  04                 [210] (-108)
7A24  00                 [211] (-108)
7A25  00                 [212] (-108)
7A26  5E                 [213] (-108)
7A27  04                 [214] (-108)
7A28  00                 [215] (-108)
7A29  00                 [216] (-107)
7A2A  5E                 [217] (-107)
7A2B  04                 [218] (-107)
7A2C  00                 [219] (-107)
7A2D  00                 [220] (-107)
7A2E  5E                 [221] (-104)
7A2F  04                 [222] (-104)
7A30  00                 [223] (-104)
7A31  00                 [224] (-104)
7A32  5E                 [225] (-104)
7A33  04                 [226] (-104)
7A34  00                 [227] (-104)
7A35  00                 [228] (-104)
7A36  5E                 [229] (-104)
7A37  04                 [230] (-103)
7A38  00                 [231] (-103)
7A39  00                 [232] (-101)
7A3A  5E                 [233] (-101)
7A3B  04                 [234] (-101)
7A3C  00                 [235] (-101)
7A3D  00                 [236] (-100)
7A3E  5E                 [237] (-100)
7A3F  04                 [238] (-100)
7A40  00                 [239] (-100)
7A41  00                 [240] (-100)
7A42  5E                 [241] (-100)
7A43  04                 [242] (-99)
7A44  00                 [243] (-99)
7A45  00                 [244] (-99)
7A46  5E                 [245] (-99)
7A47  04                 [246] (-97)
7A48  00                 [247] (-97)
7A49  00                 [248] (-97)
7A4A  62                 [249] (-97)
7A4B  04                 [250] (-97)
7A4C  00                 [251] (-97)
7A4D  00                 [252] (-96)
7A4E  62                 [253] (-96)
7A4F  04                 [254] (-96)
7A50  00                 [255] (-96)
7A51  00                 [256] (-96)
7A52  62                 [257] (-95)
7A53  04                 [258] (-94)
7A54  00                 [259] (-97)
7A55  00                 [260] (-89)
7A56  63                 [261] (-89)
7A57  04                 [262] (-89)
7A58  00                 [263] (-89)
7A59  00                 [264] (-89)
7A5A  66                 [265] (-88)
7A5B  04                 [266] (-88)
7A5C  00                 [267] (-88)
7A5D  00                 [268] (-88)
7A5E  66                 [269] (-88)
7A5F  04                 [270] (-88)
7A60  00                 [271] (-87)
7A61  00                 [272] (-87)
7A62  66                 [273] (-87)
7A63  04                 [274] (-87)
7A64  00                 [275] (-87)
7A65  00                 [276] (-87)
7A66  67                 [277] (-87)
7A67  04                 [278] (-86)
7A68  00                 [279] (-86)
7A69  00                 [280] (-86)
7A6A  67                 [281] (-86)
7A6B  04                 [282] (-85)
7A6C  00                 [283] (-85)
7A6D  00                 [284] (-84)
7A6E  67                 [285] (-84)
7A6F  04                 [286] (-84)
7A70  00                 [287] (-84)
7A71  00                 [288] (-82)
7A72  68                 [289] (-81)
7A73  04                 [290] (-81)
7A74  00                 [291] (-81)
7A75  00                 [292] (-81)
7A76  68                 [293] (-81)
7A77  04                 [294] (-81)
7A78  00                 [295] (-81)
7A79  00                 [296] (-81)
7A7A  68                 [297] (-80)
7A7B  04                 [298] (-80)
7A7C  00                 [299] (-80)
7A7D  00                 [300] (-80)
7A7E  69                 [301] (-80)
7A7F  04                 [302] (-80)
7A80  00                 [303] (-80)
7A81  00                 [304] (-79)
7A82  69                 [305] (-79)
7A83  04                 [306] (-79)
7A84  00                 [307] (-79)
7A85  00                 [308] (-78)
7A86  69                 [309] (-78)
7A87  04                 [310] (-77)
7A88  00                 [311] (-77)
7A89  00                 [312] (-77)
7A8A  69                 [313] (-77)
7A8B  04                 [314] (-77)
7A8C  00                 [315] (-73)
7A8D  00                 [316] (-73)
7A8E  69                 [317] (-73)
7A8F  04                 [318] (-73)
7A90  00                 [319] (-73)
7A91  00                 [320] (-71)
7A92  6A                 [321] (-71)
7A93  04                 [322] (-71)
7A94  00                 [323] (-71)
7A95  00                 [324] (-71)
7A96  6A                 [325] (-71)
7A97  04                 [326] (-71)
7A98  00                 [327] (-71)
7A99  00                 [328] (-71)
7A9A  6A                 [329] (-70)
7A9B  04                 [330] (-70)
7A9C  00                 [331] (-70)
7A9D  00                 [332] (-70)
7A9E  6A                 [333] (-70)
7A9F  04                 [334] (-70)
7AA0  00                 [335] (-70)
7AA1  00                 [336] (-70)
7AA2  69                 [337] (-70)
7AA3  04                 [338] (-69)
7AA4  00                 [339] (-69)
7AA5  00                 [340] (-69)
7AA6  6C                 [341] (-69)
7AA7  04                 [342] (-69)
7AA8  00                 [343] (-69)
7AA9  00                 [344] (-69)
7AAA  6C                 [345] (-69)
7AAB  04                 [346] (-69)
7AAC  00                 [347] (-69)
7AAD  00                 [348] (-69)
7AAE  70                 [349] (-69)
7AAF  04                 [350] (-69)
7AB0  00                 [351] (-69)
7AB1  00                 [352] (-68)
7AB2  70                 [353] (-68)
7AB3  04                 [354] (-68)
7AB4  00                 [355] (-68)
7AB5  00                 [356] (-68)
7AB6  70                 [357] (-68)
7AB7  04                 [358] (-67)
                         * locals:
7EEA  00                 sizelocvars (0)
                         * upvalues:
7EEB  00                 sizeupvalues (0)
                         ** end of function **

                         
7EEC                     ** function [41] definition (level 2)
                         ** start of function **
7EEC  00                 string size (0)
                         source name: (none)
7EEE  09                 line defined (1215)
7EEF  C5                 last line defined (1221)
7EF0  09                 nups (2)
7EF1  02                 numparams (2)
7EF2  02                 is_vararg (0)
7EF3  00                 maxstacksize (4)
                         * code:
7EF5  08                 sizecode (8)
7EF6  93000000           [1] getupval   2   0      
7EFA  98000000           [2] test       2       0    ; to [4] if true
7EFE  1A000080           [3] jmp        1            ; to [5]
7F02  1E008000           [4] return     0   1      
7F06  93008000           [5] getupval   2   1      
7F0A  A4004001           [6] self       2   2   256  ; -1435271367
7F0E  A2400001           [7] call       2   2   1  
7F12  1E008000           [8] return     0   1      
                         * constants:
7F16  01                 sizek (1)
7F17  01                 const type 3
7F18  397F73AA           const [0]: (-1435271367)
                         * functions:
7F1C  00                 sizep (0)
                         * lines:
7F1D  08                 sizelineinfo (8)
                         [pc] (line)
7F1E  C0                 [1] (-64)
7F1F  04                 [2] (-64)
7F20  00                 [3] (-64)
7F21  00                 [4] (-63)
7F22  C0                 [5] (-60)
7F23  04                 [6] (-60)
7F24  00                 [7] (-60)
7F25  00                 [8] (-59)
                         * locals:
7F3E  00                 sizelocvars (0)
                         * upvalues:
7F3F  00                 sizeupvalues (0)
                         ** end of function **

                         
7F40                     ** function [42] definition (level 2)
                         ** start of function **
7F40  00                 string size (0)
                         source name: (none)
7F42  09                 line defined (1223)
7F43  CE                 last line defined (1230)
7F44  09                 nups (3)
7F45  03                 numparams (2)
7F46  02                 is_vararg (0)
7F47  00                 maxstacksize (5)
                         * code:
7F49  0B                 sizecode (11)
7F4A  93000000           [01] getupval   2   0      
7F4E  98000000           [02] test       2       0    ; to [4] if true
7F52  1A000080           [03] jmp        1            ; to [5]
7F56  1E008000           [04] return     0   1      
7F5A  93008000           [05] getupval   2   1      
7F5E  D3000001           [06] getupval   3   2      
7F62  19010000           [07] loadk      4   0        ; 0
7F66  A2408001           [08] call       2   3   1  
7F6A  97008000           [09] loadbool   2   1   0    ; true
7F6E  9E000001           [10] return     2   2      
7F72  1E008000           [11] return     0   1      
                         * constants:
7F76  01                 sizek (1)
7F77  03                 const type 3
7F78  000070C2           const [0]: (0)
                         * functions:
7F7C  00                 sizep (0)
                         * lines:
7F7D  0B                 sizelineinfo (11)
                         [pc] (line)
7F7E  C8                 [01] (-56)
7F7F  04                 [02] (-56)
7F80  00                 [03] (-56)
7F81  00                 [04] (-55)
7F82  C8                 [05] (-52)
7F83  04                 [06] (-52)
7F84  00                 [07] (-52)
7F85  00                 [08] (-52)
7F86  C8                 [09] (-51)
7F87  04                 [10] (-51)
7F88  00                 [11] (-50)
                         * locals:
7FAA  00                 sizelocvars (0)
                         * upvalues:
7FAB  00                 sizeupvalues (0)
                         ** end of function **

                         
7FAC                     ** function [43] definition (level 2)
                         ** start of function **
7FAC  00                 string size (0)
                         source name: (none)
7FAE  09                 line defined (1232)
7FAF  D7                 last line defined (1239)
7FB0  09                 nups (3)
7FB1  03                 numparams (2)
7FB2  02                 is_vararg (0)
7FB3  00                 maxstacksize (5)
                         * code:
7FB5  0B                 sizecode (11)
7FB6  93000000           [01] getupval   2   0      
7FBA  98000000           [02] test       2       0    ; to [4] if true
7FBE  1A000080           [03] jmp        1            ; to [5]
7FC2  1E008000           [04] return     0   1      
7FC6  93008000           [05] getupval   2   1      
7FCA  D3000001           [06] getupval   3   2      
7FCE  19010000           [07] loadk      4   0        ; 0
7FD2  A2408001           [08] call       2   3   1  
7FD6  97008000           [09] loadbool   2   1   0    ; true
7FDA  9E000001           [10] return     2   2      
7FDE  1E008000           [11] return     0   1      
                         * constants:
7FE2  01                 sizek (1)
7FE3  03                 const type 3
7FE4  00007042           const [0]: (0)
                         * functions:
7FE8  00                 sizep (0)
                         * lines:
7FE9  0B                 sizelineinfo (11)
                         [pc] (line)
7FEA  D1                 [01] (-47)
7FEB  04                 [02] (-47)
7FEC  00                 [03] (-47)
7FED  00                 [04] (-46)
7FEE  D1                 [05] (-43)
7FEF  04                 [06] (-43)
7FF0  00                 [07] (-43)
7FF1  00                 [08] (-43)
7FF2  D1                 [09] (-42)
7FF3  04                 [10] (-42)
7FF4  00                 [11] (-41)
                         * locals:
8016  00                 sizelocvars (0)
                         * upvalues:
8017  00                 sizeupvalues (0)
                         ** end of function **

                         
8018                     ** function [44] definition (level 2)
                         ** start of function **
8018  00                 string size (0)
                         source name: (none)
801A  09                 line defined (1241)
801B  E0                 last line defined (1248)
801C  09                 nups (3)
801D  03                 numparams (2)
801E  02                 is_vararg (0)
801F  00                 maxstacksize (5)
                         * code:
8021  0B                 sizecode (11)
8022  93000000           [01] getupval   2   0      
8026  98000000           [02] test       2       0    ; to [4] if true
802A  1A000080           [03] jmp        1            ; to [5]
802E  1E008000           [04] return     0   1      
8032  93008000           [05] getupval   2   1      
8036  D3000001           [06] getupval   3   2      
803A  19010000           [07] loadk      4   0        ; 0
803E  A2408001           [08] call       2   3   1  
8042  97008000           [09] loadbool   2   1   0    ; true
8046  9E000001           [10] return     2   2      
804A  1E008000           [11] return     0   1      
                         * constants:
804E  01                 sizek (1)
804F  03                 const type 3
8050  000070C2           const [0]: (0)
                         * functions:
8054  00                 sizep (0)
                         * lines:
8055  0B                 sizelineinfo (11)
                         [pc] (line)
8056  DA                 [01] (-38)
8057  04                 [02] (-38)
8058  00                 [03] (-38)
8059  00                 [04] (-37)
805A  DA                 [05] (-34)
805B  04                 [06] (-34)
805C  00                 [07] (-34)
805D  00                 [08] (-34)
805E  DA                 [09] (-33)
805F  04                 [10] (-33)
8060  00                 [11] (-32)
                         * locals:
8082  00                 sizelocvars (0)
                         * upvalues:
8083  00                 sizeupvalues (0)
                         ** end of function **

                         
8084                     ** function [45] definition (level 2)
                         ** start of function **
8084  00                 string size (0)
                         source name: (none)
8086  09                 line defined (1250)
8087  E9                 last line defined (1257)
8088  09                 nups (3)
8089  03                 numparams (2)
808A  02                 is_vararg (0)
808B  00                 maxstacksize (5)
                         * code:
808D  0B                 sizecode (11)
808E  93000000           [01] getupval   2   0      
8092  98000000           [02] test       2       0    ; to [4] if true
8096  1A000080           [03] jmp        1            ; to [5]
809A  1E008000           [04] return     0   1      
809E  93008000           [05] getupval   2   1      
80A2  D3000001           [06] getupval   3   2      
80A6  19010000           [07] loadk      4   0        ; 0
80AA  A2408001           [08] call       2   3   1  
80AE  97008000           [09] loadbool   2   1   0    ; true
80B2  9E000001           [10] return     2   2      
80B6  1E008000           [11] return     0   1      
                         * constants:
80BA  01                 sizek (1)
80BB  03                 const type 3
80BC  00007042           const [0]: (0)
                         * functions:
80C0  00                 sizep (0)
                         * lines:
80C1  0B                 sizelineinfo (11)
                         [pc] (line)
80C2  E3                 [01] (-29)
80C3  04                 [02] (-29)
80C4  00                 [03] (-29)
80C5  00                 [04] (-28)
80C6  E3                 [05] (-25)
80C7  04                 [06] (-25)
80C8  00                 [07] (-25)
80C9  00                 [08] (-25)
80CA  E3                 [09] (-24)
80CB  04                 [10] (-24)
80CC  00                 [11] (-23)
                         * locals:
80EE  00                 sizelocvars (0)
                         * upvalues:
80EF  00                 sizeupvalues (0)
                         ** end of function **

                         
80F0                     ** function [46] definition (level 2)
                         ** start of function **
80F0  00                 string size (0)
                         source name: (none)
80F2  09                 line defined (1259)
80F3  EF                 last line defined (1263)
80F4  09                 nups (2)
80F5  02                 numparams (2)
80F6  02                 is_vararg (0)
80F7  00                 maxstacksize (5)
                         * code:
80F9  0A                 sizecode (10)
80FA  93000000           [01] getupval   2   0      
80FE  DD400000           [02] getglobal  3   1        ; -174740002
8102  12018000           [03] move       4   1      
8106  E2800001           [04] call       3   2   2  
810A  8CC00080           [05] settable   2   256 3    ; "X"
810E  93008000           [06] getupval   2   1      
8112  A2408000           [07] call       2   1   1  
8116  97008000           [08] loadbool   2   1   0    ; true
811A  9E000001           [09] return     2   2      
811E  1E008000           [10] return     0   1      
                         * constants:
8122  02                 sizek (2)
8123  04                 const type 4
8124  02                 string size (2)
8125  5800               "X\0"
                         const [0]: "X"
8127  01                 const type 3
8128  DEAD95F5           const [1]: (-174740002)
                         * functions:
812C  00                 sizep (0)
                         * lines:
812D  0A                 sizelineinfo (10)
                         [pc] (line)
812E  EC                 [01] (-20)
812F  04                 [02] (-20)
8130  00                 [03] (-20)
8131  00                 [04] (-20)
8132  EC                 [05] (-20)
8133  04                 [06] (-19)
8134  00                 [07] (-19)
8135  00                 [08] (-18)
8136  EC                 [09] (-18)
8137  04                 [10] (-17)
                         * locals:
8156  00                 sizelocvars (0)
                         * upvalues:
8157  00                 sizeupvalues (0)
                         ** end of function **

                         
8158                     ** function [47] definition (level 2)
                         ** start of function **
8158  00                 string size (0)
                         source name: (none)
815A  09                 line defined (1265)
815B  F5                 last line defined (1269)
815C  09                 nups (2)
815D  02                 numparams (2)
815E  02                 is_vararg (0)
815F  00                 maxstacksize (5)
                         * code:
8161  0A                 sizecode (10)
8162  93000000           [01] getupval   2   0      
8166  DD400000           [02] getglobal  3   1        ; -174740002
816A  12018000           [03] move       4   1      
816E  E2800001           [04] call       3   2   2  
8172  8CC00080           [05] settable   2   256 3    ; "X"
8176  93008000           [06] getupval   2   1      
817A  A2408000           [07] call       2   1   1  
817E  97008000           [08] loadbool   2   1   0    ; true
8182  9E000001           [09] return     2   2      
8186  1E008000           [10] return     0   1      
                         * constants:
818A  02                 sizek (2)
818B  04                 const type 4
818C  02                 string size (2)
818D  5800               "X\0"
                         const [0]: "X"
818F  01                 const type 3
8190  DEAD95F5           const [1]: (-174740002)
                         * functions:
8194  00                 sizep (0)
                         * lines:
8195  0A                 sizelineinfo (10)
                         [pc] (line)
8196  F2                 [01] (-14)
8197  04                 [02] (-14)
8198  00                 [03] (-14)
8199  00                 [04] (-14)
819A  F2                 [05] (-14)
819B  04                 [06] (-13)
819C  00                 [07] (-13)
819D  00                 [08] (-12)
819E  F2                 [09] (-12)
819F  04                 [10] (-11)
                         * locals:
81BE  00                 sizelocvars (0)
                         * upvalues:
81BF  00                 sizeupvalues (0)
                         ** end of function **

                         
81C0                     ** function [48] definition (level 2)
                         ** start of function **
81C0  00                 string size (0)
                         source name: (none)
81C2  09                 line defined (1271)
81C3  FB                 last line defined (1275)
81C4  09                 nups (2)
81C5  02                 numparams (2)
81C6  02                 is_vararg (0)
81C7  00                 maxstacksize (5)
                         * code:
81C9  0A                 sizecode (10)
81CA  93000000           [01] getupval   2   0      
81CE  DD400000           [02] getglobal  3   1        ; -174740002
81D2  12018000           [03] move       4   1      
81D6  E2800001           [04] call       3   2   2  
81DA  8CC00080           [05] settable   2   256 3    ; "Y"
81DE  93008000           [06] getupval   2   1      
81E2  A2408000           [07] call       2   1   1  
81E6  97008000           [08] loadbool   2   1   0    ; true
81EA  9E000001           [09] return     2   2      
81EE  1E008000           [10] return     0   1      
                         * constants:
81F2  02                 sizek (2)
81F3  04                 const type 4
81F4  02                 string size (2)
81F5  5900               "Y\0"
                         const [0]: "Y"
81F7  01                 const type 3
81F8  DEAD95F5           const [1]: (-174740002)
                         * functions:
81FC  00                 sizep (0)
                         * lines:
81FD  0A                 sizelineinfo (10)
                         [pc] (line)
81FE  F8                 [01] (-8)
81FF  04                 [02] (-8)
8200  00                 [03] (-8)
8201  00                 [04] (-8)
8202  F8                 [05] (-8)
8203  04                 [06] (-7)
8204  00                 [07] (-7)
8205  00                 [08] (-6)
8206  F8                 [09] (-6)
8207  04                 [10] (-5)
                         * locals:
8226  00                 sizelocvars (0)
                         * upvalues:
8227  00                 sizeupvalues (0)
                         ** end of function **

                         
8228                     ** function [49] definition (level 2)
                         ** start of function **
8228  00                 string size (0)
                         source name: (none)
822A  09                 line defined (1277)
822B  81                 last line defined (1281)
822C  0A                 nups (2)
822D  02                 numparams (2)
822E  02                 is_vararg (0)
822F  00                 maxstacksize (5)
                         * code:
8231  0A                 sizecode (10)
8232  93000000           [01] getupval   2   0      
8236  DD400000           [02] getglobal  3   1        ; -174740002
823A  12018000           [03] move       4   1      
823E  E2800001           [04] call       3   2   2  
8242  8CC00080           [05] settable   2   256 3    ; "Y"
8246  93008000           [06] getupval   2   1      
824A  A2408000           [07] call       2   1   1  
824E  97008000           [08] loadbool   2   1   0    ; true
8252  9E000001           [09] return     2   2      
8256  1E008000           [10] return     0   1      
                         * constants:
825A  02                 sizek (2)
825B  04                 const type 4
825C  02                 string size (2)
825D  5900               "Y\0"
                         const [0]: "Y"
825F  01                 const type 3
8260  DEAD95F5           const [1]: (-174740002)
                         * functions:
8264  00                 sizep (0)
                         * lines:
8265  0A                 sizelineinfo (10)
                         [pc] (line)
8266  FE                 [01] (-2)
8267  04                 [02] (-2)
8268  00                 [03] (-2)
8269  00                 [04] (-2)
826A  FE                 [05] (-2)
826B  04                 [06] (-1)
826C  00                 [07] (-1)
826D  00                 [08] (0)
826E  FE                 [09] (0)
826F  04                 [10] (1)
                         * locals:
828E  00                 sizelocvars (0)
                         * upvalues:
828F  00                 sizeupvalues (0)
                         ** end of function **

                         
8290                     ** function [50] definition (level 2)
                         ** start of function **
8290  00                 string size (0)
                         source name: (none)
8292  0A                 line defined (1283)
8293  89                 last line defined (1289)
8294  0A                 nups (2)
8295  02                 numparams (0)
8296  00                 is_vararg (0)
8297  00                 maxstacksize (2)
                         * code:
8299  07                 sizecode (7)
829A  13000000           [1] getupval   0   0      
829E  18000000           [2] test       0       0    ; to [4] if true
82A2  1A000080           [3] jmp        1            ; to [5]
82A6  1E008000           [4] return     0   1      
82AA  13008000           [5] getupval   0   1      
82AE  22408000           [6] call       0   1   1  
82B2  1E008000           [7] return     0   1      
                         * constants:
82B6  00                 sizek (0)
                         * functions:
82B7  00                 sizep (0)
                         * lines:
82B8  07                 sizelineinfo (7)
                         [pc] (line)
82B9  04                 [1] (4)
82BA  05                 [2] (4)
82BB  00                 [3] (4)
82BC  00                 [4] (5)
82BD  04                 [5] (8)
82BE  05                 [6] (8)
82BF  00                 [7] (9)
                         * locals:
82D5  00                 sizelocvars (0)
                         * upvalues:
82D6  00                 sizeupvalues (0)
                         ** end of function **

                         
82D7                     ** function [51] definition (level 2)
                         ** start of function **
82D7  00                 string size (0)
                         source name: (none)
82D9  0A                 line defined (1291)
82DA  91                 last line defined (1297)
82DB  0A                 nups (2)
82DC  02                 numparams (0)
82DD  00                 is_vararg (0)
82DE  00                 maxstacksize (2)
                         * code:
82E0  0B                 sizecode (11)
82E1  13000000           [01] getupval   0   0      
82E5  22408000           [02] call       0   1   1  
82E9  1D000000           [03] getglobal  0   0        ; 1074689893
82ED  53008000           [04] getupval   1   1      
82F1  22800001           [05] call       0   2   2  
82F5  18400000           [06] test       0       1    ; to [8] if false
82F9  1A800080           [07] jmp        3            ; to [11]
82FD  13008000           [08] getupval   0   1      
8301  24404000           [09] self       0   0   257  ; 1685109492
8305  22400001           [10] call       0   2   1  
8309  1E008000           [11] return     0   1      
                         * constants:
830D  02                 sizek (2)
830E  01                 const type 3
830F  65770E40           const [0]: (1074689893)
8313  01                 const type 3
8314  F4BA7064           const [1]: (1685109492)
                         * functions:
8318  00                 sizep (0)
                         * lines:
8319  0B                 sizelineinfo (11)
                         [pc] (line)
831A  0C                 [01] (12)
831B  05                 [02] (12)
831C  00                 [03] (14)
831D  00                 [04] (14)
831E  0C                 [05] (14)
831F  05                 [06] (14)
8320  00                 [07] (14)
8321  00                 [08] (15)
8322  0E                 [09] (15)
8323  05                 [10] (15)
8324  00                 [11] (17)
                         * locals:
8346  00                 sizelocvars (0)
                         * upvalues:
8347  00                 sizeupvalues (0)
                         ** end of function **

                         * lines:
8349  02                 sizelineinfo (328)
                         [pc] (line)
834A  14                 [001] (20)
834B  00                 [002] (20)
834C  00                 [003] (20)
834D  00                 [004] (21)
834E  14                 [005] (21)
834F  00                 [006] (21)
8350  00                 [007] (22)
8351  00                 [008] (23)
8352  14                 [009] (24)
8353  00                 [010] (25)
8354  00                 [011] (26)
8355  00                 [012] (26)
8356  15                 [013] (26)
8357  00                 [014] (26)
8358  00                 [015] (26)
8359  00                 [016] (26)
835A  15                 [017] (26)
835B  00                 [018] (26)
835C  00                 [019] (26)
835D  00                 [020] (27)
835E  15                 [021] (28)
835F  00                 [022] (29)
8360  00                 [023] (30)
8361  00                 [024] (31)
8362  16                 [025] (32)
8363  00                 [026] (33)
8364  00                 [027] (33)
8365  00                 [028] (33)
8366  17                 [029] (33)
8367  00                 [030] (34)
8368  00                 [031] (35)
8369  00                 [032] (36)
836A  18                 [033] (37)
836B  00                 [034] (38)
836C  00                 [035] (39)
836D  00                 [036] (40)
836E  19                 [037] (40)
836F  00                 [038] (40)
8370  00                 [039] (41)
8371  00                 [040] (41)
8372  1A                 [041] (41)
8373  00                 [042] (42)
8374  00                 [043] (43)
8375  00                 [044] (44)
8376  1A                 [045] (45)
8377  00                 [046] (45)
8378  00                 [047] (45)
8379  00                 [048] (45)
837A  1A                 [049] (46)
837B  00                 [050] (47)
837C  00                 [051] (48)
837D  00                 [052] (48)
837E  1A                 [053] (49)
837F  00                 [054] (51)
8380  00                 [055] (53)
8381  00                 [056] (55)
8382  1A                 [057] (58)
8383  00                 [058] (62)
8384  00                 [059] (62)
8385  00                 [060] (60)
8386  1A                 [061] (72)
8387  00                 [062] (72)
8388  00                 [063] (80)
8389  00                 [064] (-125)
838A  1A                 [065] (-125)
838B  00                 [066] (-125)
838C  00                 [067] (-125)
838D  00                 [068] (-125)
838E  1A                 [069] (-125)
838F  00                 [070] (-125)
8390  00                 [071] (-125)
8391  00                 [072] (-114)
8392  1A                 [073] (-114)
8393  00                 [074] (-103)
8394  00                 [075] (-103)
8395  00                 [076] (-103)
8396  1B                 [077] (-103)
8397  00                 [078] (-103)
8398  00                 [079] (-91)
8399  00                 [080] (-91)
839A  1C                 [081] (-91)
839B  00                 [082] (-91)
839C  00                 [083] (-91)
839D  00                 [084] (-50)
839E  1D                 [085] (-50)
839F  00                 [086] (-50)
83A0  00                 [087] (-50)
83A1  00                 [088] (-50)
83A2  1E                 [089] (-50)
83A3  00                 [090] (-23)
83A4  00                 [091] (-23)
83A5  00                 [092] (-13)
83A6  1F                 [093] (75)
83A7  00                 [094] (75)
83A8  00                 [095] (75)
83A9  00                 [096] (75)
83AA  20                 [097] (75)
83AB  00                 [098] (75)
83AC  00                 [099] (75)
83AD  00                 [100] (83)
83AE  21                 [101] (101)
83AF  00                 [102] (101)
83B0  00                 [103] (126)
83B1  00                 [104] (126)
83B2  21                 [105] (126)
83B3  00                 [106] (-102)
83B4  00                 [107] (-95)
83B5  00                 [108] (-95)
83B6  21                 [109] (-93)
83B7  00                 [110] (-71)
83B8  00                 [111] (-71)
83B9  00                 [112] (-71)
83BA  21                 [113] (-71)
83BB  00                 [114] (-71)
83BC  00                 [115] (-71)
83BD  00                 [116] (-71)
83BE  22                 [117] (-71)
83BF  00                 [118] (-91)
83C0  00                 [119] (-64)
83C1  00                 [120] (-64)
83C2  23                 [121] (-64)
83C3  00                 [122] (-58)
83C4  00                 [123] (-58)
83C5  00                 [124] (-58)
83C6  24                 [125] (-62)
83C7  00                 [126] (-51)
83C8  00                 [127] (-51)
83C9  00                 [128] (-51)
83CA  25                 [129] (-45)
83CB  00                 [130] (-45)
83CC  00                 [131] (-45)
83CD  00                 [132] (-49)
83CE  26                 [133] (-31)
83CF  00                 [134] (5)
83D0  00                 [135] (5)
83D1  00                 [136] (5)
83D2  27                 [137] (5)
83D3  00                 [138] (5)
83D4  00                 [139] (5)
83D5  00                 [140] (47)
83D6  28                 [141] (47)
83D7  00                 [142] (-65)
83D8  00                 [143] (-65)
83D9  00                 [144] (-65)
83DA  28                 [145] (-65)
83DB  00                 [146] (-65)
83DC  00                 [147] (-65)
83DD  00                 [148] (-65)
83DE  28                 [149] (-65)
83DF  00                 [150] (-65)
83E0  00                 [151] (-65)
83E1  00                 [152] (-65)
83E2  29                 [153] (-65)
83E3  00                 [154] (-65)
83E4  00                 [155] (-65)
83E5  00                 [156] (-65)
83E6  29                 [157] (-65)
83E7  00                 [158] (-65)
83E8  00                 [159] (-65)
83E9  00                 [160] (-65)
83EA  29                 [161] (-65)
83EB  00                 [162] (-65)
83EC  00                 [163] (-59)
83ED  00                 [164] (-59)
83EE  2A                 [165] (-59)
83EF  00                 [166] (-59)
83F0  00                 [167] (-63)
83F1  00                 [168] (-36)
83F2  2B                 [169] (-36)
83F3  00                 [170] (-36)
83F4  00                 [171] (-57)
83F5  00                 [172] (-21)
83F6  2C                 [173] (-5)
83F7  00                 [174] (5)
83F8  00                 [175] (5)
83F9  00                 [176] (5)
83FA  2D                 [177] (-3)
83FB  00                 [178] (52)
83FC  00                 [179] (52)
83FD  00                 [180] (52)
83FE  2D                 [181] (52)
83FF  00                 [182] (52)
8400  00                 [183] (52)
8401  00                 [184] (7)
8402  2D                 [185] (62)
8403  00                 [186] (-82)
8404  00                 [187] (-82)
8405  00                 [188] (-82)
8406  2D                 [189] (-82)
8407  00                 [190] (-82)
8408  00                 [191] (-82)
8409  00                 [192] (-82)
840A  2E                 [193] (-82)
840B  00                 [194] (-82)
840C  00                 [195] (-82)
840D  00                 [196] (-82)
840E  2F                 [197] (-82)
840F  00                 [198] (-82)
8410  00                 [199] (-82)
8411  00                 [200] (-82)
8412  30                 [201] (-82)
8413  00                 [202] (-82)
8414  00                 [203] (-82)
8415  00                 [204] (-82)
8416  30                 [205] (64)
8417  00                 [206] (-48)
8418  00                 [207] (-23)
8419  00                 [208] (-23)
841A  31                 [209] (-23)
841B  00                 [210] (-23)
841C  00                 [211] (-23)
841D  00                 [212] (-23)
841E  33                 [213] (-15)
841F  00                 [214] (36)
8420  00                 [215] (36)
8421  00                 [216] (36)
8422  35                 [217] (36)
8423  00                 [218] (36)
8424  00                 [219] (36)
8425  00                 [220] (36)
8426  37                 [221] (36)
8427  00                 [222] (36)
8428  00                 [223] (36)
8429  00                 [224] (43)
842A  3A                 [225] (43)
842B  00                 [226] (43)
842C  00                 [227] (43)
842D  00                 [228] (43)
842E  3E                 [229] (38)
842F  00                 [230] (63)
8430  00                 [231] (63)
8431  00                 [232] (63)
8432  3E                 [233] (63)
8433  00                 [234] (63)
8434  00                 [235] (80)
8435  00                 [236] (80)
8436  3C                 [237] (80)
8437  00                 [238] (80)
8438  00                 [239] (80)
8439  00                 [240] (80)
843A  48                 [241] (80)
843B  00                 [242] (80)
843C  00                 [243] (80)
843D  00                 [244] (65)
843E  48                 [245] (-67)
843F  00                 [246] (-67)
8440  00                 [247] (-67)
8441  00                 [248] (-67)
8442  50                 [249] (-67)
8443  00                 [250] (-67)
8444  00                 [251] (-67)
8445  00                 [252] (-67)
8446  83                 [253] (-67)
8447  00                 [254] (-67)
8448  00                 [255] (-67)
8449  00                 [256] (-67)
844A  83                 [257] (-67)
844B  00                 [258] (-67)
844C  00                 [259] (-67)
844D  00                 [260] (-67)
844E  83                 [261] (-67)
844F  00                 [262] (-67)
8450  00                 [263] (-67)
8451  00                 [264] (-67)
8452  83                 [265] (-67)
8453  00                 [266] (-67)
8454  00                 [267] (-67)
8455  00                 [268] (82)
8456  83                 [269] (-59)
8457  00                 [270] (-59)
8458  00                 [271] (-59)
8459  00                 [272] (-59)
845A  83                 [273] (-65)
845B  00                 [274] (-50)
845C  00                 [275] (-50)
845D  00                 [276] (-50)
845E  83                 [277] (-50)
845F  00                 [278] (-50)
8460  00                 [279] (-57)
8461  00                 [280] (-41)
8462  83                 [281] (-41)
8463  00                 [282] (-41)
8464  00                 [283] (-41)
8465  00                 [284] (-41)
8466  8E                 [285] (-48)
8467  00                 [286] (-32)
8468  00                 [287] (-32)
8469  00                 [288] (-32)
846A  8E                 [289] (-32)
846B  00                 [290] (-32)
846C  00                 [291] (-39)
846D  00                 [292] (-23)
846E  99                 [293] (-23)
846F  00                 [294] (-23)
8470  00                 [295] (-23)
8471  00                 [296] (-23)
8472  99                 [297] (-30)
8473  00                 [298] (-17)
8474  00                 [299] (-17)
8475  00                 [300] (-17)
8476  99                 [301] (-17)
8477  00                 [302] (-21)
8478  00                 [303] (-11)
8479  00                 [304] (-11)
847A  99                 [305] (-11)
847B  00                 [306] (-11)
847C  00                 [307] (-15)
847D  00                 [308] (-5)
847E  99                 [309] (-5)
847F  00                 [310] (-5)
8480  00                 [311] (-5)
8481  00                 [312] (-9)
8482  A5                 [313] (1)
8483  00                 [314] (1)
8484  00                 [315] (1)
8485  00                 [316] (1)
8486  A5                 [317] (-3)
8487  00                 [318] (9)
8488  00                 [319] (9)
8489  00                 [320] (9)
848A  A5                 [321] (9)
848B  00                 [322] (3)
848C  00                 [323] (17)
848D  00                 [324] (17)
848E  A5                 [325] (17)
848F  00                 [326] (17)
8490  00                 [327] (11)
8491  00                 [328] (17)
                         * locals:
886A  00                 sizelocvars (0)
                         * upvalues:
886B  00                 sizeupvalues (0)
                         ** end of function **

886C                     ** end of chunk **
