1	C:\wlua_dump\path\Lotus\InterfaceDecoTemplate.lua
Pos   Hex Data           Description or Code
------------------------------------------------------------------------
0000                     ** source chunk: C:\wlua_dump\path\Lotus\InterfaceDecoTemplate.lua
                         ** global header start **
0000  7F                 header signature: ""
0001  00                 version (major:minor hex digits)
0002  00                 format (0=official)
0003  00                 endianness (1=little endian)
0004  00                 size of int (bytes)
0005  00                 size of size_t (bytes)
0006  02                 size of Instruction (bytes)
0007  3C                 size of number (bytes)
0008  D8                 integral (1=integral)
4216
                         * number type: single
                         * x86 standard (32-bit, little endian, doubles)
                         ** global header end **
CloakHDR
CloakVector
Lotus.Interface.LotusUtilities
EE.Interface.Utilities
Lotus.Interface.StoreItemUtilities
EE.Interface.AnchorMgr
/Lotus/StoreItems/Types/StoreItems/SlotItems/DecorationTemplateSlotItem
Loader
Pass
Cloak
GAME_C1_HEAD1
IsInputBlocked
Shutdown
SetTrigger
TransitionOut
OnQueueDecoPurchase
QueueDecoPurchase
OnDeleteDecoTemplate
DeleteDecoTemplateConfirm
DeleteDeco
NameDecoTemplate
OSKNameDecoTemplate
OnUploadDecoTemplate
EntryFocused
EntryUnfocused
EntryPressed
Update
OnFetchDecoTemplates
Initialize
SetSavingNewTemplate
Close
onKeyDown_HIDE_PAUSE_MENU
onKeyDown_MENU_SELECT
onViewportSizeChanged
RollOver
MenuItemFocused
MenuItemUnfocused
MenuItemSelected
MenuItemPressed
onKeyDown_MENU_MOUSE_Z
SetSelectionMode
SetCallback
SetElementsFunction
SetOnTransitionOutFunction
SetOnPlaceDecoTemplateFunction
SetOnDeleteDecoTemplateFunction
SetTitle
x
y
z
red
green
blue
gEntityType
x
y
z
mMovie
Title
UISys
FlashInstance_LINEAR
gGameData
OnFetchDecoTemplates
gBackgroundRegion
Kubrow2
table
table
Pass
gBackgroundRegion
Kubrow
Loader
UISys
levelType
level
_T
mPulseBG
gFlashMgr
mMovie
math
mMovie
ImprintPanel
UISys
FlashInstance_LINEAR
_alpha
math
gBackgroundRegion
_T
_G
UISound_Close
mMovie
_root
UISys
FlashInstance_LINEAR
_alpha
_T
DojoMgr
DecoTemplatePreviewOpen
mMovie
_T
mTrigger
_T
mMovie
gFlashMgr
_G
UISound_Select
id
name
ImprintId
LocTag
Name
mMovie
/Lotus/Language/Dojo/DecoTemplatesEmpty
Close
mFocusedMenuElement
Id
gGameData
_T
DojoMgr
gRegion
StoreItem
Count
IsVault
VaultDeco
IsGroupedDeco
Name
mMovie
QueueDecoPurchase

cjson
mMovie
/Lotus/Language/Dojo/DecoTemplateMissingParts


 (x
)

gGameRules
mFocusedMenuElement
Id
gRegion
OnQueueDecoPurchase
gBackgroundRegion
mFocusedMenuElement
Id
mMovie
/Lotus/Language/Dojo/DecoTemplatesEmpty
TransitionOut
Engine
CI_SELECT
gGameData
OnDeleteDecoTemplate
mFocusedMenuElement
Id
mMovie
/Lotus/Language/Dojo/DecoTemplateConfirmDelete
DeleteDecoTemplateConfirm
Engine
OkCancel

/Lotus/Language/Menu/Loadout_InvalidName
TransitionOut
 
mMovie
/Lotus/Language/Menu/SocialOverlay_InvalidCharacter
string
/Lotus/Language/Menu/SocialOverlay_TooLong
Script
TSC_NAME
/Lotus/Language/Menu/Generic_Name_CENSORED
gGameData
_T
DecoTemplateRoot
decoTemplate
OnUploadDecoTemplate
Engine
CI_SELECT
cjson
error
mMovie
/Lotus/Language/Dojo/DecoTemplateOutOfSlots
TransitionOut
/Lotus/Language/Dojo/DecoTemplateSlotsFull
/Lotus/Language/Dojo/DecoTemplateUploadError
$oid
error: 

/Lotus/Language/Menu/Global_BuyItem
/Lotus/Language/Menu/Item_CannotPurchaseXPLocked
/Lotus/Language/Menu/Item_CannotPurchaseAlreadyOwned
gGameConfig
/Lotus/Language/Menu/DetailedPurchase_NewBuild_Short
gGameRules
mMovie
Engine
<MENU_SELECT>
 
table
Label
CallBack
CallOut
mFocusedMenuElement
/Lotus/Language/Dojo/DecoTemplateDelete
/Lotus/Language/Dojo/DecoTemplatePlace
MENU_SELECT
/Lotus/Language/Menu/Exit
MENU_CANCEL
_T
_T
mMovie
DeleteDeco

mMovie
mScrollBar
Loader
Pass
EE.Interface.Components.List
mMovie
ImprintPanel.Item1
MenuItemSelected
MenuItemFocused
MenuItemUnfocused
MenuItemPressed
mForcedVerticalSeparation
mVisibleElements
ImprintPanel.ScrollBar
mWrapAroundNavigation
mElementDrawCallback
mOnFocusedCallback
mOnUnfocusedCallback
mOnSelectedCallback
mOnPressedCallback
RepositionElements
_ImprintMenu_CalculateX
CalculateX
mFocusedMenuElement
Id
mMovie
mClipName
NameTag.Label
verticalAlignment
bottom
.NameTag.Label.text
LocTag
NAME
Name

string
NameTag.Bg
_height
.NameTag.Label
textHeight
textColor
_G
UIColor_Black
Bg
_alpha
Image
_visible
KubrowTypeIcon
KubrowGenderIcon
Outline
_color
UIColor_Yellow
UIColor_White
mClipName
_G
UISound_Focus
mMovie
NameTag.Bg
_color
UIColor_Yellow
Outline
_alpha
mClipName
mMovie
NameTag.Bg
_color
_G
UIColor_White
Outline
_alpha
mFocusedMenuElement
mClipName
Id
Engine
mPressTime
mMovie
Bg
_alpha
_G
UISound_Select
_G
UISound_Select
mMovie
ImprintPanel.BottomCap
_y
math
mForcedVerticalSeparation
mVisibleElements
Lotus.Interface.Libs.TimerMgr
_T
DecoTemplatePreviewOpen
mMovie
ImprintPanel
ANCHOR_H_RIGHT
ANCHOR_V_CENTRE
gPlayerProfileMgr
_G
UISound_Open
Lotus.Interface.Libs.DioramaLoader
Title.text

Lotus.Interface.Components.ThemedSpinner
Spinner
_alpha
_root
UISys
FlashInstance_LINEAR
dioramaRes
_T
DecoTemplatePreviewOpen
_G
UISound_Focus
mScrollBar
_G
UISound_Scroll
true
mMovie
Title.text
                         
0001                     ** function [0] definition (level 1)
                         ** start of function **
0001  00                 string size (0)
                         source name: (none)
0002  00                 line defined (0)
0003  00                 last line defined (0)
0004  00                 nups (0)
0005  00                 numparams (0)
0006  02                 is_vararg (2)
0007  3C                 maxstacksize (60)
                         * code:
0009  02                 sizecode (344)
000A  59000000           [001] loadk      1   0        ; 0
000E  86000001           [002] loadnil    2   2      
0012  D7000000           [003] loadbool   3   0   0    ; false
0016  06010002           [004] loadnil    4   4      
001A  5D410000           [005] getglobal  5   1        ; -332969190
001E  99810000           [006] loadk      6   2        ; "CloakHDR"
0022  62810001           [007] call       5   2   2  
0026  9D410000           [008] getglobal  6   1        ; -332969190
002A  D9C10000           [009] loadk      7   3        ; "CloakVector"
002E  A2810001           [010] call       6   2   2  
0032  DD010100           [011] getglobal  7   4        ; 849075268
0036  19420100           [012] loadk      8   5        ; "Lotus.Interface.LotusUtilities"
003A  E2810001           [013] call       7   2   2  
003E  1D020100           [014] getglobal  8   4        ; 849075268
0042  59820100           [015] loadk      9   6        ; "EE.Interface.Utilities"
0046  22820001           [016] call       8   2   2  
004A  5D020100           [017] getglobal  9   4        ; 849075268
004E  99C20100           [018] loadk      10  7        ; "Lotus.Interface.StoreItemUtilities"
0052  62820001           [019] call       9   2   2  
0056  9D020100           [020] getglobal  10  4        ; 849075268
005A  D9020200           [021] loadk      11  8        ; "EE.Interface.AnchorMgr"
005E  A2820001           [022] call       10  2   2  
0062  DD420200           [023] getglobal  11  9        ; 2083004503
0066  19830200           [024] loadk      12  10       ; "/Lotus/StoreItems/Types/StoreItems/SlotItems/DecorationTemplateSlotItem"
006A  E2820001           [025] call       11  2   2  
006E  06038006           [026] loadnil    12  13     
0072  97030000           [027] loadbool   14  0   0    ; false
0076  D7038000           [028] loadbool   15  1   0    ; true
007A  06040008           [029] loadnil    16  16     
007E  4B040000           [030] newtable   17  0   0    ; array=0, hash=0
0082  86040009           [031] loadnil    18  18     
0086  D9040000           [032] loadk      19  0        ; 0
008A  0605000A           [033] loadnil    20  20     
008E  57050000           [034] loadbool   21  0   0    ; false
0092  97058000           [035] loadbool   22  1   0    ; true
0096  D7050000           [036] loadbool   23  0   0    ; false
009A  06060010           [037] loadnil    24  32     
009E  4B880000           [038] newtable   33  0   2    ; array=0, hash=2
00A2  4C08C385           [039] settable   33  267 268  ; "Loader" nil
00A6  4C88C386           [040] settable   33  269 270  ; "Pass" 0
00AA  86080011           [041] loadnil    34  34     
00AE  DD480000           [042] getglobal  35  1        ; -332969190
00B2  19C90300           [043] loadk      36  15       ; "Cloak"
00B6  E2880001           [044] call       35  2   2  
00BA  1D490000           [045] getglobal  36  1        ; -332969190
00BE  59090400           [046] loadk      37  16       ; "GAME_C1_HEAD1"
00C2  22890001           [047] call       36  2   2  
00C6  65090000           [048] closure    37  0      
00CA  12008007           [049] move       0   15     
00CE  60490400           [050] setglobal  37  17       ; IsInputBlocked
00D2  60890400           [051] setglobal  37  18       ; 1877468992
00D6  65490000           [052] closure    37  1      
00DA  12000003           [053] move       0   6      
00DE  12008002           [054] move       0   5      
00E2  A5890000           [055] closure    38  2      
00E6  12000003           [056] move       0   6      
00EA  E5C90000           [057] closure    39  3      
00EE  12000012           [058] move       0   36     
00F2  12008012           [059] move       0   37     
00F6  12008011           [060] move       0   35     
00FA  12000009           [061] move       0   18     
00FE  250A0100           [062] closure    40  4      
0102  654A0100           [063] closure    41  5      
0106  12000008           [064] move       0   16     
010A  12008008           [065] move       0   17     
010E  A58A0100           [066] closure    42  6      
0112  E5CA0100           [067] closure    43  7      
0116  12008010           [068] move       0   33     
011A  12000008           [069] move       0   16     
011E  12000015           [070] move       0   42     
0122  250B0200           [071] closure    44  8      
0126  12008007           [072] move       0   15     
012A  12000001           [073] move       0   2      
012E  12008001           [074] move       0   3      
0132  12000000           [075] move       0   0      
0136  654B0200           [076] closure    45  9      
013A  12000002           [077] move       0   4      
013E  12000001           [078] move       0   2      
0142  A58B0200           [079] closure    46  10     
0146  12008016           [080] move       0   45     
014A  12008001           [081] move       0   3      
014E  12000000           [082] move       0   0      
0152  12008000           [083] move       0   1      
0156  1200000A           [084] move       0   20     
015A  12008015           [085] move       0   43     
015E  12000002           [086] move       0   4      
0162  E5CB0200           [087] closure    47  11     
0166  1200800A           [088] move       0   21     
016A  12008003           [089] move       0   7      
016E  12008008           [090] move       0   17     
0172  1200800E           [091] move       0   29     
0176  1200800F           [092] move       0   31     
017A  1200000D           [093] move       0   26     
017E  250C0300           [094] closure    48  12     
0182  1200800A           [095] move       0   21     
0186  12008017           [096] move       0   47     
018A  20CC0400           [097] setglobal  48  19       ; Shutdown
018E  200C0500           [098] setglobal  48  20       ; 1012367267
0192  254C0300           [099] closure    48  13     
0196  12008007           [100] move       0   15     
019A  12000004           [101] move       0   8      
019E  1200800A           [102] move       0   21     
01A2  12008017           [103] move       0   47     
01A6  1200800E           [104] move       0   29     
01AA  1200000E           [105] move       0   28     
01AE  1200000F           [106] move       0   30     
01B2  1200800F           [107] move       0   31     
01B6  1200800D           [108] move       0   27     
01BA  1200000C           [109] move       0   24     
01BE  658C0300           [110] closure    49  14     
01C2  604C0500           [111] setglobal  49  21       ; SetTrigger
01C6  608C0500           [112] setglobal  49  22       ; 1066756660
01CA  65CC0300           [113] closure    49  15     
01CE  12008008           [114] move       0   17     
01D2  12008009           [115] move       0   19     
01D6  12008013           [116] move       0   39     
01DA  12000001           [117] move       0   2      
01DE  12000002           [118] move       0   4      
01E2  12008016           [119] move       0   45     
01E6  12000018           [120] move       0   48     
01EA  A50C0400           [121] closure    50  16     
01EE  12008018           [122] move       0   49     
01F2  A0CC0500           [123] setglobal  50  23       ; TransitionOut
01F6  A00C0600           [124] setglobal  50  24       ; 1888989620
01FA  A54C0400           [125] closure    50  17     
01FE  12000004           [126] move       0   8      
0202  12008008           [127] move       0   17     
0206  12008009           [128] move       0   19     
020A  12008013           [129] move       0   39     
020E  A5880400           [130] closure    34  18     
0212  12000019           [131] move       0   50     
0216  E5CC0400           [132] closure    51  19     
021A  12000008           [133] move       0   16     
021E  1200000A           [134] move       0   20     
0222  12008007           [135] move       0   15     
0226  12000010           [136] move       0   32     
022A  1200800B           [137] move       0   23     
022E  12000004           [138] move       0   8      
0232  250D0500           [139] closure    52  20     
0236  1200000A           [140] move       0   20     
023A  12008008           [141] move       0   17     
023E  12000008           [142] move       0   16     
0242  1200800E           [143] move       0   29     
0246  1200000F           [144] move       0   30     
024A  12008018           [145] move       0   49     
024E  654D0500           [146] closure    53  21     
0252  12008018           [147] move       0   49     
0256  1200000F           [148] move       0   30     
025A  1200800E           [149] move       0   29     
025E  12000004           [150] move       0   8      
0262  604D0600           [151] setglobal  53  25       ; OnQueueDecoPurchase
0266  608D0600           [152] setglobal  53  26       ; 637230792
026A  658D0500           [153] closure    53  22     
026E  12000008           [154] move       0   16     
0272  1200000A           [155] move       0   20     
0276  1200800E           [156] move       0   29     
027A  12008003           [157] move       0   7      
027E  60CD0600           [158] setglobal  53  27       ; QueueDecoPurchase
0282  600D0700           [159] setglobal  53  28       ; -737500660
0286  65CD0500           [160] closure    53  23     
028A  12000008           [161] move       0   16     
028E  12008008           [162] move       0   17     
0292  1200000A           [163] move       0   20     
0296  1200800F           [164] move       0   31     
029A  12000004           [165] move       0   8      
029E  604D0700           [166] setglobal  53  29       ; OnDeleteDecoTemplate
02A2  608D0700           [167] setglobal  53  30       ; -1425220035
02A6  650D0600           [168] closure    53  24     
02AA  1200800F           [169] move       0   31     
02AE  60CD0700           [170] setglobal  53  31       ; DeleteDecoTemplateConfirm
02B2  600D0800           [171] setglobal  53  32       ; -907649444
02B6  654D0600           [172] closure    53  25     
02BA  12000008           [173] move       0   16     
02BE  1200000A           [174] move       0   20     
02C2  12008008           [175] move       0   17     
02C6  1200800F           [176] move       0   31     
02CA  12000004           [177] move       0   8      
02CE  604D0800           [178] setglobal  53  33       ; DeleteDeco
02D2  608D0800           [179] setglobal  53  34       ; -146500775
02D6  658D0600           [180] closure    53  26     
02DA  12000004           [181] move       0   8      
02DE  A5CD0600           [182] closure    54  27     
02E2  1200801A           [183] move       0   53     
02E6  E50D0700           [184] closure    55  28     
02EA  1200001B           [185] move       0   54     
02EE  E0CD0800           [186] setglobal  55  35       ; NameDecoTemplate
02F2  E00D0900           [187] setglobal  55  36       ; -1292457928
02F6  E54D0700           [188] closure    55  29     
02FA  1200001B           [189] move       0   54     
02FE  E04D0900           [190] setglobal  55  37       ; OSKNameDecoTemplate
0302  E08D0900           [191] setglobal  55  38       ; 2136888305
0306  E58D0700           [192] closure    55  30     
030A  12000008           [193] move       0   16     
030E  12000004           [194] move       0   8      
0312  12008014           [195] move       0   41     
0316  12008019           [196] move       0   51     
031A  E0CD0900           [197] setglobal  55  39       ; OnUploadDecoTemplate
031E  E00D0A00           [198] setglobal  55  40       ; 753398177
0322  E5CD0700           [199] closure    55  31     
0326  250E0800           [200] closure    56  32     
032A  12008005           [201] move       0   11     
032E  12008003           [202] move       0   7      
0332  12000008           [203] move       0   16     
0336  12008004           [204] move       0   9      
033A  1200801B           [205] move       0   55     
033E  1200000B           [206] move       0   22     
0342  1200000A           [207] move       0   20     
0346  1200001A           [208] move       0   52     
034A  12008018           [209] move       0   49     
034E  654E0800           [210] closure    57  33     
0352  1200000A           [211] move       0   20     
0356  604E0A00           [212] setglobal  57  41       ; EntryFocused
035A  608E0A00           [213] setglobal  57  42       ; 941604358
035E  658E0800           [214] closure    57  34     
0362  1200000A           [215] move       0   20     
0366  60CE0A00           [216] setglobal  57  43       ; EntryUnfocused
036A  600E0B00           [217] setglobal  57  44       ; 1770832852
036E  65CE0800           [218] closure    57  35     
0372  12008007           [219] move       0   15     
0376  1200000A           [220] move       0   20     
037A  604E0B00           [221] setglobal  57  45       ; EntryPressed
037E  608E0B00           [222] setglobal  57  46       ; 1376040602
0382  650E0900           [223] closure    57  36     
0386  12000007           [224] move       0   14     
038A  12008006           [225] move       0   13     
038E  1200000A           [226] move       0   20     
0392  12008010           [227] move       0   33     
0396  12008015           [228] move       0   43     
039A  12008014           [229] move       0   41     
039E  12008007           [230] move       0   15     
03A2  12000010           [231] move       0   32     
03A6  12000017           [232] move       0   46     
03AA  60CE0B00           [233] setglobal  57  47       ; Update
03AE  600E0C00           [234] setglobal  57  48       ; -1938777623
03B2  654E0900           [235] closure    57  37     
03B6  1200000A           [236] move       0   20     
03BA  12000004           [237] move       0   8      
03BE  1200000B           [238] move       0   22     
03C2  1200001A           [239] move       0   52     
03C6  1200001C           [240] move       0   56     
03CA  12000019           [241] move       0   50     
03CE  A58E0900           [242] closure    58  38     
03D2  12008019           [243] move       0   51     
03D6  A04E0C00           [244] setglobal  58  49       ; OnFetchDecoTemplates
03DA  A08E0C00           [245] setglobal  58  50       ; -1508581101
03DE  A5CE0900           [246] closure    58  39     
03E2  1200000A           [247] move       0   20     
03E6  E50E0A00           [248] closure    59  40     
03EA  12000007           [249] move       0   14     
03EE  12008006           [250] move       0   13     
03F2  12008003           [251] move       0   7      
03F6  12000006           [252] move       0   12     
03FA  12000005           [253] move       0   10     
03FE  12000008           [254] move       0   16     
0402  1200001C           [255] move       0   56     
0406  12000004           [256] move       0   8      
040A  12000000           [257] move       0   0      
040E  12000010           [258] move       0   32     
0412  1200801C           [259] move       0   57     
0416  12000014           [260] move       0   40     
041A  1200001D           [261] move       0   58     
041E  12000016           [262] move       0   44     
0422  E0CE0C00           [263] setglobal  59  51       ; Initialize
0426  E00E0D00           [264] setglobal  59  52       ; 1650753590
042A  E54E0A00           [265] closure    59  41     
042E  1200800B           [266] move       0   23     
0432  E04E0D00           [267] setglobal  59  53       ; SetSavingNewTemplate
0436  E08E0D00           [268] setglobal  59  54       ; 976309880
043A  E58E0A00           [269] closure    59  42     
043E  12000018           [270] move       0   48     
0442  E0CE0D00           [271] setglobal  59  55       ; Close
0446  E00E0E00           [272] setglobal  59  56       ; -1517569684
044A  E5CE0A00           [273] closure    59  43     
044E  12008007           [274] move       0   15     
0452  12000018           [275] move       0   48     
0456  E04E0E00           [276] setglobal  59  57       ; onKeyDown_HIDE_PAUSE_MENU
045A  E08E0E00           [277] setglobal  59  58       ; -1518645360
045E  E50E0B00           [278] closure    59  44     
0462  12008007           [279] move       0   15     
0466  1200000B           [280] move       0   22     
046A  1200001A           [281] move       0   52     
046E  E0CE0E00           [282] setglobal  59  59       ; onKeyDown_MENU_SELECT
0472  E00E0F00           [283] setglobal  59  60       ; -287499569
0476  E54E0B00           [284] closure    59  45     
047A  1200001D           [285] move       0   58     
047E  12000006           [286] move       0   12     
0482  E04E0F00           [287] setglobal  59  61       ; onViewportSizeChanged
0486  E08E0F00           [288] setglobal  59  62       ; 982516775
048A  E58E0B00           [289] closure    59  46     
048E  12000004           [290] move       0   8      
0492  E0CE0F00           [291] setglobal  59  63       ; RollOver
0496  E00E1000           [292] setglobal  59  64       ; 1468715453
049A  E5CE0B00           [293] closure    59  47     
049E  1200000A           [294] move       0   20     
04A2  E04E1000           [295] setglobal  59  65       ; MenuItemFocused
04A6  E08E1000           [296] setglobal  59  66       ; -2010164486
04AA  E50E0C00           [297] closure    59  48     
04AE  1200000A           [298] move       0   20     
04B2  E0CE1000           [299] setglobal  59  67       ; MenuItemUnfocused
04B6  E00E1100           [300] setglobal  59  68       ; -1418434452
04BA  E54E0C00           [301] closure    59  49     
04BE  12008007           [302] move       0   15     
04C2  1200000A           [303] move       0   20     
04C6  E04E1100           [304] setglobal  59  69       ; MenuItemSelected
04CA  E08E1100           [305] setglobal  59  70       ; -16180592
04CE  E58E0C00           [306] closure    59  50     
04D2  12008007           [307] move       0   15     
04D6  1200000A           [308] move       0   20     
04DA  E0CE1100           [309] setglobal  59  71       ; MenuItemPressed
04DE  E00E1200           [310] setglobal  59  72       ; 590751827
04E2  E5CE0C00           [311] closure    59  51     
04E6  1200000A           [312] move       0   20     
04EA  12008007           [313] move       0   15     
04EE  E04E1200           [314] setglobal  59  73       ; onKeyDown_MENU_MOUSE_Z
04F2  E08E1200           [315] setglobal  59  74       ; 1458230185
04F6  E50E0D00           [316] closure    59  52     
04FA  1200000B           [317] move       0   22     
04FE  1200001C           [318] move       0   56     
0502  E0CE1200           [319] setglobal  59  75       ; SetSelectionMode
0506  E00E1300           [320] setglobal  59  76       ; -1747866664
050A  E54E0D00           [321] closure    59  53     
050E  1200000C           [322] move       0   24     
0512  E04E1300           [323] setglobal  59  77       ; SetCallback
0516  E08E1300           [324] setglobal  59  78       ; 1772396888
051A  E58E0D00           [325] closure    59  54     
051E  1200800C           [326] move       0   25     
0522  E0CE1300           [327] setglobal  59  79       ; SetElementsFunction
0526  E00E1400           [328] setglobal  59  80       ; -140670716
052A  E5CE0D00           [329] closure    59  55     
052E  1200000D           [330] move       0   26     
0532  E04E1400           [331] setglobal  59  81       ; SetOnTransitionOutFunction
0536  E08E1400           [332] setglobal  59  82       ; 123945770
053A  E50E0E00           [333] closure    59  56     
053E  1200000E           [334] move       0   28     
0542  E0CE1400           [335] setglobal  59  83       ; SetOnPlaceDecoTemplateFunction
0546  E00E1500           [336] setglobal  59  84       ; 645368161
054A  E54E0E00           [337] closure    59  57     
054E  1200800D           [338] move       0   27     
0552  E04E1500           [339] setglobal  59  85       ; SetOnDeleteDecoTemplateFunction
0556  E08E1500           [340] setglobal  59  86       ; 807719654
055A  E58E0E00           [341] closure    59  58     
055E  E0CE1500           [342] setglobal  59  87       ; SetTitle
0562  E00E1600           [343] setglobal  59  88       ; 1392176610
0566  1E008000           [344] return     0   1      
                         * constants:
056A  59                 sizek (89)
056B  03                 const type 3
056C  00000000           const [0]: (0)
0570  01                 const type 3
0571  1A4B27EC           const [1]: (-332969190)
0575  04                 const type 4
0576  09                 string size (9)
0577  436C6F616B484452+  "CloakHDR"
057F  00                 "\0"
                         const [2]: "CloakHDR"
0580  04                 const type 4
0581  0C                 string size (12)
0582  436C6F616B566563+  "CloakVec"
058A  746F7200           "tor\0"
                         const [3]: "CloakVector"
058E  01                 const type 3
058F  44DC9B32           const [4]: (849075268)
0593  04                 const type 4
0594  1F                 string size (31)
0595  4C6F7475732E496E+  "Lotus.In"
059D  746572666163652E+  "terface."
05A5  4C6F747573557469+  "LotusUti"
05AD  6C697469657300     "lities\0"
                         const [5]: "Lotus.Interface.LotusUtilities"
05B4  04                 const type 4
05B5  17                 string size (23)
05B6  45452E496E746572+  "EE.Inter"
05BE  666163652E557469+  "face.Uti"
05C6  6C697469657300     "lities\0"
                         const [6]: "EE.Interface.Utilities"
05CD  04                 const type 4
05CE  23                 string size (35)
05CF  4C6F7475732E496E+  "Lotus.In"
05D7  746572666163652E+  "terface."
05DF  53746F7265497465+  "StoreIte"
05E7  6D5574696C697469+  "mUtiliti"
05EF  657300             "es\0"
                         const [7]: "Lotus.Interface.StoreItemUtilities"
05F2  04                 const type 4
05F3  17                 string size (23)
05F4  45452E496E746572+  "EE.Inter"
05FC  666163652E416E63+  "face.Anc"
0604  686F724D677200     "horMgr\0"
                         const [8]: "EE.Interface.AnchorMgr"
060B  01                 const type 3
060C  5720287C           const [9]: (2083004503)
0610  04                 const type 4
0611  48                 string size (72)
0612  2F4C6F7475732F53+  "/Lotus/S"
061A  746F72654974656D+  "toreItem"
0622  732F54797065732F+  "s/Types/"
062A  53746F7265497465+  "StoreIte"
0632  6D732F536C6F7449+  "ms/SlotI"
063A  74656D732F446563+  "tems/Dec"
0642  6F726174696F6E54+  "orationT"
064A  656D706C61746553+  "emplateS"
0652  6C6F744974656D00   "lotItem\0"
                         const [10]: "/Lotus/StoreItems/Types/StoreItems/SlotItems/DecorationTemplateSlotItem"
065A  04                 const type 4
065B  07                 string size (7)
065C  4C6F6164657200     "Loader\0"
                         const [11]: "Loader"
0663  00                 const type 0
                         const [12]: nil
0664  04                 const type 4
0665  05                 string size (5)
0666  5061737300         "Pass\0"
                         const [13]: "Pass"
066B  03                 const type 3
066C  0000803F           const [14]: (0)
0670  04                 const type 4
0671  06                 string size (6)
0672  436C6F616B00       "Cloak\0"
                         const [15]: "Cloak"
0678  04                 const type 4
0679  0E                 string size (14)
067A  47414D455F43315F+  "GAME_C1_"
0682  484541443100       "HEAD1\0"
                         const [16]: "GAME_C1_HEAD1"
0688  04                 const type 4
0689  0F                 string size (15)
068A  4973496E70757442+  "IsInputB"
0692  6C6F636B656400     "locked\0"
                         const [17]: "IsInputBlocked"
0699  01                 const type 3
069A  40E7E76F           const [18]: (1877468992)
069E  04                 const type 4
069F  09                 string size (9)
06A0  53687574646F776E+  "Shutdown"
06A8  00                 "\0"
                         const [19]: "Shutdown"
06A9  01                 const type 3
06AA  A37F573C           const [20]: (1012367267)
06AE  04                 const type 4
06AF  0B                 string size (11)
06B0  5365745472696767+  "SetTrigg"
06B8  657200             "er\0"
                         const [21]: "SetTrigger"
06BB  01                 const type 3
06BC  346A953F           const [22]: (1066756660)
06C0  04                 const type 4
06C1  0E                 string size (14)
06C2  5472616E73697469+  "Transiti"
06CA  6F6E4F757400       "onOut\0"
                         const [23]: "TransitionOut"
06D0  01                 const type 3
06D1  B4B19770           const [24]: (1888989620)
06D5  04                 const type 4
06D6  14                 string size (20)
06D7  4F6E517565756544+  "OnQueueD"
06DF  65636F5075726368+  "ecoPurch"
06E7  61736500           "ase\0"
                         const [25]: "OnQueueDecoPurchase"
06EB  01                 const type 3
06EC  C85EFB25           const [26]: (637230792)
06F0  04                 const type 4
06F1  12                 string size (18)
06F2  5175657565446563+  "QueueDec"
06FA  6F50757263686173+  "oPurchas"
0702  6500               "e\0"
                         const [27]: "QueueDecoPurchase"
0704  01                 const type 3
0705  0CA20AD4           const [28]: (-737500660)
0709  04                 const type 4
070A  15                 string size (21)
070B  4F6E44656C657465+  "OnDelete"
0713  4465636F54656D70+  "DecoTemp"
071B  6C61746500         "late\0"
                         const [29]: "OnDeleteDecoTemplate"
0720  01                 const type 3
0721  3DDE0CAB           const [30]: (-1425220035)
0725  04                 const type 4
0726  1A                 string size (26)
0727  44656C6574654465+  "DeleteDe"
072F  636F54656D706C61+  "coTempla"
0737  7465436F6E666972+  "teConfir"
073F  6D00               "m\0"
                         const [31]: "DeleteDecoTemplateConfirm"
0741  01                 const type 3
0742  5C5EE6C9           const [32]: (-907649444)
0746  04                 const type 4
0747  0B                 string size (11)
0748  44656C6574654465+  "DeleteDe"
0750  636F00             "co\0"
                         const [33]: "DeleteDeco"
0753  01                 const type 3
0754  599344F7           const [34]: (-146500775)
0758  04                 const type 4
0759  11                 string size (17)
075A  4E616D654465636F+  "NameDeco"
0762  54656D706C617465+  "Template"
076A  00                 "\0"
                         const [35]: "NameDecoTemplate"
076B  01                 const type 3
076C  38A8F6B2           const [36]: (-1292457928)
0770  04                 const type 4
0771  14                 string size (20)
0772  4F534B4E616D6544+  "OSKNameD"
077A  65636F54656D706C+  "ecoTempl"
0782  61746500           "ate\0"
                         const [37]: "OSKNameDecoTemplate"
0786  01                 const type 3
0787  F1535E7F           const [38]: (2136888305)
078B  04                 const type 4
078C  15                 string size (21)
078D  4F6E55706C6F6164+  "OnUpload"
0795  4465636F54656D70+  "DecoTemp"
079D  6C61746500         "late\0"
                         const [39]: "OnUploadDecoTemplate"
07A2  01                 const type 3
07A3  A1F1E72C           const [40]: (753398177)
07A7  04                 const type 4
07A8  0D                 string size (13)
07A9  456E747279466F63+  "EntryFoc"
07B1  7573656400         "used\0"
                         const [41]: "EntryFocused"
07B6  01                 const type 3
07B7  06BE1F38           const [42]: (941604358)
07BB  04                 const type 4
07BC  0F                 string size (15)
07BD  456E747279556E66+  "EntryUnf"
07C5  6F637573656400     "ocused\0"
                         const [43]: "EntryUnfocused"
07CC  01                 const type 3
07CD  D4C38C69           const [44]: (1770832852)
07D1  04                 const type 4
07D2  0D                 string size (13)
07D3  456E747279507265+  "EntryPre"
07DB  7373656400         "ssed\0"
                         const [45]: "EntryPressed"
07E0  01                 const type 3
07E1  9AB60452           const [46]: (1376040602)
07E5  04                 const type 4
07E6  07                 string size (7)
07E7  55706461746500     "Update\0"
                         const [47]: "Update"
07EE  01                 const type 3
07EF  E999708C           const [48]: (-1938777623)
07F3  04                 const type 4
07F4  15                 string size (21)
07F5  4F6E466574636844+  "OnFetchD"
07FD  65636F54656D706C+  "ecoTempl"
0805  6174657300         "ates\0"
                         const [49]: "OnFetchDecoTemplates"
080A  01                 const type 3
080B  13E114A6           const [50]: (-1508581101)
080F  04                 const type 4
0810  0B                 string size (11)
0811  496E697469616C69+  "Initiali"
0819  7A6500             "ze\0"
                         const [51]: "Initialize"
081C  01                 const type 3
081D  36806462           const [52]: (1650753590)
0821  04                 const type 4
0822  15                 string size (21)
0823  536574536176696E+  "SetSavin"
082B  674E657754656D70+  "gNewTemp"
0833  6C61746500         "late\0"
                         const [53]: "SetSavingNewTemplate"
0838  01                 const type 3
0839  784E313A           const [54]: (976309880)
083D  04                 const type 4
083E  06                 string size (6)
083F  436C6F736500       "Close\0"
                         const [55]: "Close"
0845  01                 const type 3
0846  6CB98BA5           const [56]: (-1517569684)
084A  04                 const type 4
084B  1A                 string size (26)
084C  6F6E4B6579446F77+  "onKeyDow"
0854  6E5F484944455F50+  "n_HIDE_P"
085C  415553455F4D454E+  "AUSE_MEN"
0864  5500               "U\0"
                         const [57]: "onKeyDown_HIDE_PAUSE_MENU"
0866  01                 const type 3
0867  904F7BA5           const [58]: (-1518645360)
086B  04                 const type 4
086C  16                 string size (22)
086D  6F6E4B6579446F77+  "onKeyDow"
0875  6E5F4D454E555F53+  "n_MENU_S"
087D  454C45435400       "ELECT\0"
                         const [59]: "onKeyDown_MENU_SELECT"
0883  01                 const type 3
0884  CF1ADDEE           const [60]: (-287499569)
0888  04                 const type 4
0889  16                 string size (22)
088A  6F6E56696577706F+  "onViewpo"
0892  727453697A654368+  "rtSizeCh"
089A  616E67656400       "anged\0"
                         const [61]: "onViewportSizeChanged"
08A0  01                 const type 3
08A1  2704903A           const [62]: (982516775)
08A5  04                 const type 4
08A6  09                 string size (9)
08A7  526F6C6C4F766572+  "RollOver"
08AF  00                 "\0"
                         const [63]: "RollOver"
08B0  01                 const type 3
08B1  BDD18A57           const [64]: (1468715453)
08B5  04                 const type 4
08B6  10                 string size (16)
08B7  4D656E754974656D+  "MenuItem"
08BF  466F637573656400   "Focused\0"
                         const [65]: "MenuItemFocused"
08C7  01                 const type 3
08C8  FA522F88           const [66]: (-2010164486)
08CC  04                 const type 4
08CD  12                 string size (18)
08CE  4D656E754974656D+  "MenuItem"
08D6  556E666F63757365+  "Unfocuse"
08DE  6400               "d\0"
                         const [67]: "MenuItemUnfocused"
08E0  01                 const type 3
08E1  6C6874AB           const [68]: (-1418434452)
08E5  04                 const type 4
08E6  11                 string size (17)
08E7  4D656E754974656D+  "MenuItem"
08EF  53656C6563746564+  "Selected"
08F7  00                 "\0"
                         const [69]: "MenuItemSelected"
08F8  01                 const type 3
08F9  901A09FF           const [70]: (-16180592)
08FD  04                 const type 4
08FE  10                 string size (16)
08FF  4D656E754974656D+  "MenuItem"
0907  5072657373656400   "Pressed\0"
                         const [71]: "MenuItemPressed"
090F  01                 const type 3
0910  53283623           const [72]: (590751827)
0914  04                 const type 4
0915  17                 string size (23)
0916  6F6E4B6579446F77+  "onKeyDow"
091E  6E5F4D454E555F4D+  "n_MENU_M"
0926  4F5553455F5A00     "OUSE_Z\0"
                         const [73]: "onKeyDown_MENU_MOUSE_Z"
092D  01                 const type 3
092E  A9D3EA56           const [74]: (1458230185)
0932  04                 const type 4
0933  11                 string size (17)
0934  53657453656C6563+  "SetSelec"
093C  74696F6E4D6F6465+  "tionMode"
0944  00                 "\0"
                         const [75]: "SetSelectionMode"
0945  01                 const type 3
0946  D8ABD197           const [76]: (-1747866664)
094A  04                 const type 4
094B  0C                 string size (12)
094C  53657443616C6C62+  "SetCallb"
0954  61636B00           "ack\0"
                         const [77]: "SetCallback"
0958  01                 const type 3
0959  58A1A469           const [78]: (1772396888)
095D  04                 const type 4
095E  14                 string size (20)
095F  536574456C656D65+  "SetEleme"
0967  6E747346756E6374+  "ntsFunct"
096F  696F6E00           "ion\0"
                         const [79]: "SetElementsFunction"
0973  01                 const type 3
0974  04899DF7           const [80]: (-140670716)
0978  04                 const type 4
0979  1B                 string size (27)
097A  5365744F6E547261+  "SetOnTra"
0982  6E736974696F6E4F+  "nsitionO"
098A  757446756E637469+  "utFuncti"
0992  6F6E00             "on\0"
                         const [81]: "SetOnTransitionOutFunction"
0995  01                 const type 3
0996  2A436307           const [82]: (123945770)
099A  04                 const type 4
099B  1F                 string size (31)
099C  5365744F6E506C61+  "SetOnPla"
09A4  63654465636F5465+  "ceDecoTe"
09AC  6D706C6174654675+  "mplateFu"
09B4  6E6374696F6E00     "nction\0"
                         const [83]: "SetOnPlaceDecoTemplateFunction"
09BB  01                 const type 3
09BC  61897726           const [84]: (645368161)
09C0  04                 const type 4
09C1  20                 string size (32)
09C2  5365744F6E44656C+  "SetOnDel"
09CA  6574654465636F54+  "eteDecoT"
09D2  656D706C61746546+  "emplateF"
09DA  756E6374696F6E00   "unction\0"
                         const [85]: "SetOnDeleteDecoTemplateFunction"
09E2  01                 const type 3
09E3  E6D22430           const [86]: (807719654)
09E7  04                 const type 4
09E8  09                 string size (9)
09E9  5365745469746C65+  "SetTitle"
09F1  00                 "\0"
                         const [87]: "SetTitle"
09F2  01                 const type 3
09F3  E2EDFA52           const [88]: (1392176610)
                         * functions:
09F7  3B                 sizep (59)
                         
09F8                     ** function [0] definition (level 2)
                         ** start of function **
09F8  00                 string size (0)
                         source name: (none)
09F9  33                 line defined (51)
09FA  35                 last line defined (53)
09FB  01                 nups (1)
09FC  00                 numparams (0)
09FD  00                 is_vararg (0)
09FE  02                 maxstacksize (2)
                         * code:
09FF  03                 sizecode (3)
0A00  13000000           [1] getupval   0   0      
0A04  1E000001           [2] return     0   2      
0A08  1E008000           [3] return     0   1      
                         * constants:
0A0C  00                 sizek (0)
                         * functions:
0A0D  00                 sizep (0)
                         * lines:
0A0E  03                 sizelineinfo (3)
                         [pc] (line)
0A0F  34                 [1] (52)
0A10  00                 [2] (52)
0A11  00                 [3] (53)
                         * locals:
0A1B  00                 sizelocvars (0)
                         * upvalues:
0A1C  00                 sizeupvalues (0)
                         ** end of function **

                         
0A1D                     ** function [1] definition (level 2)
                         ** start of function **
0A1D  00                 string size (0)
                         source name: (none)
0A1E  37                 line defined (55)
0A1F  3F                 last line defined (63)
0A20  02                 nups (2)
0A21  03                 numparams (3)
0A22  00                 is_vararg (0)
0A23  0F                 maxstacksize (15)
                         * code:
0A24  2D                 sizecode (45)
0A25  E4004000           [01] self       3   0   256  ; -786111647
0A29  53010000           [02] getupval   5   0      
0A2D  8E414001           [03] gettable   6   2   257  ; "x"
0A31  CE814001           [04] gettable   7   2   258  ; "y"
0A35  0EC24001           [05] gettable   8   2   259  ; "z"
0A39  59020100           [06] loadk      9   4        ; 0
0A3D  E2408003           [07] call       3   7   1  
0A41  E4004000           [08] self       3   0   256  ; -786111647
0A45  53018000           [09] getupval   5   1      
0A49  8E41C100           [10] gettable   6   1   261  ; "red"
0A4D  9C814103           [11] div        6   6   262  ; 0
0A51  CEC1C100           [12] gettable   7   1   263  ; "green"
0A55  DC81C103           [13] div        7   7   262  ; 0
0A59  0E02C200           [14] gettable   8   1   264  ; "blue"
0A5D  1C824104           [15] div        8   8   262  ; 0
0A61  59020100           [16] loadk      9   4        ; 0
0A65  E2408003           [17] call       3   7   1  
0A69  E4404200           [18] self       3   0   265  ; 366271214
0A6D  5D810200           [19] getglobal  5   10       ; gEntityType
0A71  E2808001           [20] call       3   3   2  
0A75  19010100           [21] loadk      4   4        ; 0
0A79  4A018001           [22] len        5   3      
0A7D  99010100           [23] loadk      6   4        ; 0
0A81  10810480           [24] forprep    4   19       ; to [44]
0A85  0EC28101           [25] gettable   8   3   7  
0A89  24024004           [26] self       8   8   256  ; -786111647
0A8D  93028000           [27] getupval   10  1      
0A91  CE42C100           [28] gettable   11  1   261  ; "red"
0A95  DC82C105           [29] div        11  11  262  ; 0
0A99  0EC3C100           [30] gettable   12  1   263  ; "green"
0A9D  1C834106           [31] div        12  12  262  ; 0
0AA1  4E03C200           [32] gettable   13  1   264  ; "blue"
0AA5  5C83C106           [33] div        13  13  262  ; 0
0AA9  99030100           [34] loadk      14  4        ; 0
0AAD  22428003           [35] call       8   7   1  
0AB1  0EC28101           [36] gettable   8   3   7  
0AB5  24024004           [37] self       8   8   256  ; -786111647
0AB9  93020000           [38] getupval   10  0      
0ABD  CE424001           [39] gettable   11  2   257  ; "x"
0AC1  0E834001           [40] gettable   12  2   258  ; "y"
0AC5  4EC34001           [41] gettable   13  2   259  ; "z"
0AC9  99030100           [42] loadk      14  4        ; 0
0ACD  22428003           [43] call       8   7   1  
0AD1  14C1FA7F           [44] forloop    4   -20      ; to [25] if loop
0AD5  1E008000           [45] return     0   1      
                         * constants:
0AD9  0B                 sizek (11)
0ADA  01                 const type 3
0ADB  61E324D1           const [0]: (-786111647)
0ADF  04                 const type 4
0AE0  02                 string size (2)
0AE1  7800               "x\0"
                         const [1]: "x"
0AE3  04                 const type 4
0AE4  02                 string size (2)
0AE5  7900               "y\0"
                         const [2]: "y"
0AE7  04                 const type 4
0AE8  02                 string size (2)
0AE9  7A00               "z\0"
                         const [3]: "z"
0AEB  03                 const type 3
0AEC  0000803F           const [4]: (0)
0AF0  04                 const type 4
0AF1  04                 string size (4)
0AF2  72656400           "red\0"
                         const [5]: "red"
0AF6  03                 const type 3
0AF7  00007F43           const [6]: (0)
0AFB  04                 const type 4
0AFC  06                 string size (6)
0AFD  677265656E00       "green\0"
                         const [7]: "green"
0B03  04                 const type 4
0B04  05                 string size (5)
0B05  626C756500         "blue\0"
                         const [8]: "blue"
0B0A  01                 const type 3
0B0B  EEDAD415           const [9]: (366271214)
0B0F  04                 const type 4
0B10  0C                 string size (12)
0B11  67456E7469747954+  "gEntityT"
0B19  79706500           "ype\0"
                         const [10]: "gEntityType"
                         * functions:
0B1D  00                 sizep (0)
                         * lines:
0B1E  2D                 sizelineinfo (45)
                         [pc] (line)
0B1F  38                 [01] (56)
0B20  00                 [02] (56)
0B21  00                 [03] (56)
0B22  00                 [04] (56)
0B23  38                 [05] (56)
0B24  00                 [06] (56)
0B25  00                 [07] (56)
0B26  00                 [08] (57)
0B27  38                 [09] (57)
0B28  00                 [10] (57)
0B29  00                 [11] (57)
0B2A  00                 [12] (57)
0B2B  38                 [13] (57)
0B2C  00                 [14] (57)
0B2D  00                 [15] (57)
0B2E  00                 [16] (57)
0B2F  38                 [17] (57)
0B30  00                 [18] (58)
0B31  00                 [19] (58)
0B32  00                 [20] (58)
0B33  38                 [21] (59)
0B34  00                 [22] (59)
0B35  00                 [23] (59)
0B36  00                 [24] (59)
0B37  38                 [25] (60)
0B38  00                 [26] (60)
0B39  00                 [27] (60)
0B3A  00                 [28] (60)
0B3B  39                 [29] (60)
0B3C  00                 [30] (60)
0B3D  00                 [31] (60)
0B3E  00                 [32] (60)
0B3F  39                 [33] (60)
0B40  00                 [34] (60)
0B41  00                 [35] (60)
0B42  00                 [36] (61)
0B43  39                 [37] (61)
0B44  00                 [38] (61)
0B45  00                 [39] (61)
0B46  00                 [40] (61)
0B47  39                 [41] (61)
0B48  00                 [42] (61)
0B49  00                 [43] (61)
0B4A  00                 [44] (59)
0B4B  39                 [45] (63)
                         * locals:
0BD3  00                 sizelocvars (0)
                         * upvalues:
0BD4  00                 sizeupvalues (0)
                         ** end of function **

                         
0BD5                     ** function [2] definition (level 2)
                         ** start of function **
0BD5  00                 string size (0)
                         source name: (none)
0BD6  41                 line defined (65)
0BD7  45                 last line defined (69)
0BD8  01                 nups (1)
0BD9  02                 numparams (2)
0BDA  00                 is_vararg (0)
0BDB  0A                 maxstacksize (10)
                         * code:
0BDC  14                 sizecode (20)
0BDD  A400C000           [01] self       2   1   256  ; -1565518332
0BE1  12010000           [02] move       4   0      
0BE5  A2808001           [03] call       2   3   2  
0BE9  E440C000           [04] self       3   1   257  ; 196800914
0BED  E2800001           [05] call       3   2   2  
0BF1  8DC00001           [06] sub        2   2   3  
0BF5  DD800000           [07] getglobal  3   2        ; 1287559689
0BF9  12010001           [08] move       4   2      
0BFD  64C1C000           [09] self       5   1   259  ; 54877834
0C01  62010001           [10] call       5   2   0  
0C05  E2800000           [11] call       3   0   2  
0C09  92008001           [12] move       2   3      
0C0D  E400C100           [13] self       3   1   260  ; -786111647
0C11  53010000           [14] getupval   5   0      
0C15  8E414101           [15] gettable   6   2   261  ; "x"
0C19  CE814101           [16] gettable   7   2   262  ; "y"
0C1D  0EC24101           [17] gettable   8   2   263  ; "z"
0C21  59020200           [18] loadk      9   8        ; 0
0C25  E2408003           [19] call       3   7   1  
0C29  1E008000           [20] return     0   1      
                         * constants:
0C2D  09                 sizek (9)
0C2E  01                 const type 3
0C2F  0416B0A2           const [0]: (-1565518332)
0C33  01                 const type 3
0C34  92F1BA0B           const [1]: (196800914)
0C38  01                 const type 3
0C39  099ABE4C           const [2]: (1287559689)
0C3D  01                 const type 3
0C3E  8A5E4503           const [3]: (54877834)
0C42  01                 const type 3
0C43  61E324D1           const [4]: (-786111647)
0C47  04                 const type 4
0C48  02                 string size (2)
0C49  7800               "x\0"
                         const [5]: "x"
0C4B  04                 const type 4
0C4C  02                 string size (2)
0C4D  7900               "y\0"
                         const [6]: "y"
0C4F  04                 const type 4
0C50  02                 string size (2)
0C51  7A00               "z\0"
                         const [7]: "z"
0C53  03                 const type 3
0C54  0000803F           const [8]: (0)
                         * functions:
0C58  00                 sizep (0)
                         * lines:
0C59  14                 sizelineinfo (20)
                         [pc] (line)
0C5A  42                 [01] (66)
0C5B  00                 [02] (66)
0C5C  00                 [03] (66)
0C5D  00                 [04] (66)
0C5E  42                 [05] (66)
0C5F  00                 [06] (66)
0C60  00                 [07] (67)
0C61  00                 [08] (67)
0C62  42                 [09] (67)
0C63  00                 [10] (67)
0C64  00                 [11] (67)
0C65  00                 [12] (67)
0C66  42                 [13] (68)
0C67  00                 [14] (68)
0C68  00                 [15] (68)
0C69  00                 [16] (68)
0C6A  42                 [17] (68)
0C6B  00                 [18] (68)
0C6C  00                 [19] (68)
0C6D  00                 [20] (69)
                         * locals:
0CAA  00                 sizelocvars (0)
                         * upvalues:
0CAB  00                 sizeupvalues (0)
                         ** end of function **

                         
0CAC                     ** function [3] definition (level 2)
                         ** start of function **
0CAC  00                 string size (0)
                         source name: (none)
0CAD  47                 line defined (71)
0CAE  75                 last line defined (117)
0CAF  04                 nups (4)
0CB0  03                 numparams (3)
0CB1  00                 is_vararg (0)
0CB2  0F                 maxstacksize (15)
                         * code:
0CB3  66                 sizecode (102)
0CB4  DD000000           [001] getglobal  3   0        ; -1247440829
0CB8  19410000           [002] loadk      4   1        ; 0
0CBC  59810000           [003] loadk      5   2        ; 0
0CC0  99C10000           [004] loadk      6   3        ; 0
0CC4  D9010100           [005] loadk      7   4        ; 0
0CC8  E2808002           [006] call       3   5   2  
0CCC  1D410100           [007] getglobal  4   5        ; 572299008
0CD0  22818000           [008] call       4   1   2  
0CD4  5D810100           [009] getglobal  5   6        ; 1074689893
0CD8  92010000           [010] move       6   0      
0CDC  62810001           [011] call       5   2   2  
0CE0  58410000           [012] test       5       1    ; to [14] if false
0CE4  1A000180           [013] jmp        5            ; to [19]
0CE8  64C14100           [014] self       5   0   263  ; -1565518332
0CEC  D3010000           [015] getupval   7   0      
0CF0  62818001           [016] call       5   3   2  
0CF4  12018002           [017] move       4   5      
0CF8  1A000280           [018] jmp        9            ; to [28]
0CFC  5D810100           [019] getglobal  5   6        ; 1074689893
0D00  92018000           [020] move       6   1      
0D04  62810001           [021] call       5   2   2  
0D08  58410000           [022] test       5       1    ; to [24] if false
0D0C  1AC00080           [023] jmp        4            ; to [28]
0D10  64C1C100           [024] self       5   1   263  ; -1565518332
0D14  D3010000           [025] getupval   7   0      
0D18  62818001           [026] call       5   3   2  
0D1C  12018002           [027] move       4   5      
0D20  5D810100           [028] getglobal  5   6        ; 1074689893
0D24  92010000           [029] move       6   0      
0D28  62810001           [030] call       5   2   2  
0D2C  58410000           [031] test       5       1    ; to [33] if false
0D30  1A000180           [032] jmp        5            ; to [38]
0D34  53018000           [033] getupval   5   1      
0D38  92010000           [034] move       6   0      
0D3C  D2018001           [035] move       7   3      
0D40  12020002           [036] move       8   4      
0D44  62410002           [037] call       5   4   1  
0D48  5D810100           [038] getglobal  5   6        ; 1074689893
0D4C  92018000           [039] move       6   1      
0D50  62810001           [040] call       5   2   2  
0D54  58410000           [041] test       5       1    ; to [43] if false
0D58  1A000180           [042] jmp        5            ; to [48]
0D5C  53018000           [043] getupval   5   1      
0D60  92018000           [044] move       6   1      
0D64  D2018001           [045] move       7   3      
0D68  12020002           [046] move       8   4      
0D6C  62410002           [047] call       5   4   1  
0D70  98400000           [048] test       2       1    ; to [50] if false
0D74  1A400580           [049] jmp        22           ; to [72]
0D78  65010000           [050] closure    5   0      
0D7C  12000000           [051] move       0   0      
0D80  13000001           [052] getupval   0   2      
0D84  12008000           [053] move       0   1      
fail op	8
0D88  48008001           [054] setupval   1   3      
0D8C  9D010200           [055] getglobal  6   8        ; 1390508688
0D90  DD410200           [056] getglobal  7   9        ; mMovie
0D94  19820200           [057] loadk      8   10       ; "Title"
0D98  5DC20200           [058] getglobal  9   11       ; UISys
0D9C  4E02C304           [059] gettable   9   9   268  ; "FlashInstance_LINEAR"
0DA0  8B028000           [060] newtable   10  1   0    ; array=1, hash=0
0DA4  D2028002           [061] move       11  5      
0DA8  9B428000           [062] setlist    10  1   1    ; index 1 to 1
0DAC  CB028000           [063] newtable   11  1   0    ; array=1, hash=0
0DB0  19430300           [064] loadk      12  13       ; 0
0DB4  DB428000           [065] setlist    11  1   1    ; index 1 to 1
0DB8  19830300           [066] loadk      12  14       ; 0
0DBC  59C30300           [067] loadk      13  15       ; 0
0DC0  A5430000           [068] closure    14  1      
0DC4  12008000           [069] move       0   1      
0DC8  A2418004           [070] call       6   9   1  
0DCC  1A800080           [071] jmp        3            ; to [75]
0DD0  A401C400           [072] self       6   1   272  ; 2109594123
0DD4  17020000           [073] loadbool   8   0   0    ; false
0DD8  A2418001           [074] call       6   3   1  
0DDC  9D810100           [075] getglobal  6   6        ; 1074689893
0DE0  D2010000           [076] move       7   0      
0DE4  A2810001           [077] call       6   2   2  
0DE8  98410000           [078] test       6       1    ; to [80] if false
0DEC  1A400280           [079] jmp        10           ; to [90]
0DF0  A4414400           [080] self       6   0   273  ; -703571861
0DF4  19C20300           [081] loadk      8   15       ; 0
0DF8  A2418001           [082] call       6   3   1  
0DFC  A4814400           [083] self       6   0   274  ; -786111647
0E00  13020001           [084] getupval   8   2      
0E04  59C20300           [085] loadk      9   15       ; 0
0E08  A2410002           [086] call       6   4   1  
0E0C  A4014400           [087] self       6   0   272  ; 2109594123
0E10  17028000           [088] loadbool   8   1   0    ; true
0E14  A2418001           [089] call       6   3   1  
0E18  9D810100           [090] getglobal  6   6        ; 1074689893
0E1C  D2018000           [091] move       7   1      
0E20  A2810001           [092] call       6   2   2  
0E24  98410000           [093] test       6       1    ; to [95] if false
0E28  1A800180           [094] jmp        7            ; to [102]
0E2C  A441C400           [095] self       6   1   273  ; -703571861
0E30  19420300           [096] loadk      8   13       ; 0
0E34  A2418001           [097] call       6   3   1  
0E38  A481C400           [098] self       6   1   274  ; -786111647
0E3C  13020001           [099] getupval   8   2      
0E40  59420300           [100] loadk      9   13       ; 0
0E44  A2410002           [101] call       6   4   1  
0E48  1E008000           [102] return     0   1      
                         * constants:
0E4C  13                 sizek (19)
0E4D  01                 const type 3
0E4E  4390A5B5           const [0]: (-1247440829)
0E52  03                 const type 3
0E53  00003C42           const [1]: (0)
0E57  03                 const type 3
0E58  00002F43           const [2]: (0)
0E5C  03                 const type 3
0E5D  00005143           const [3]: (0)
0E61  03                 const type 3
0E62  00007F43           const [4]: (0)
0E66  01                 const type 3
0E67  00971C22           const [5]: (572299008)
0E6B  01                 const type 3
0E6C  65770E40           const [6]: (1074689893)
0E70  01                 const type 3
0E71  0416B0A2           const [7]: (-1565518332)
0E75  01                 const type 3
0E76  907AE152           const [8]: (1390508688)
0E7A  04                 const type 4
0E7B  07                 string size (7)
0E7C  6D4D6F76696500     "mMovie\0"
                         const [9]: "mMovie"
0E83  04                 const type 4
0E84  06                 string size (6)
0E85  5469746C6500       "Title\0"
                         const [10]: "Title"
0E8B  04                 const type 4
0E8C  06                 string size (6)
0E8D  554953797300       "UISys\0"
                         const [11]: "UISys"
0E93  04                 const type 4
0E94  15                 string size (21)
0E95  466C617368496E73+  "FlashIns"
0E9D  74616E63655F4C49+  "tance_LI"
0EA5  4E45415200         "NEAR\0"
                         const [12]: "FlashInstance_LINEAR"
0EAA  03                 const type 3
0EAB  0000803F           const [13]: (0)
0EAF  03                 const type 3
0EB0  0000403F           const [14]: (0)
0EB4  03                 const type 3
0EB5  00000000           const [15]: (0)
0EB9  01                 const type 3
0EBA  0BDABD7D           const [16]: (2109594123)
0EBE  01                 const type 3
0EBF  6B5810D6           const [17]: (-703571861)
0EC3  01                 const type 3
0EC4  61E324D1           const [18]: (-786111647)
                         * functions:
0EC8  02                 sizep (2)
                         
0EC9                     ** function [0] definition (level 3)
                         ** start of function **
0EC9  00                 string size (0)
                         source name: (none)
0ECA  57                 line defined (87)
0ECB  60                 last line defined (96)
0ECC  03                 nups (3)
0ECD  01                 numparams (1)
0ECE  00                 is_vararg (0)
0ECF  05                 maxstacksize (5)
                         * code:
0ED0  1D                 sizecode (29)
0ED1  5D000000           [01] getglobal  1   0        ; 1074689893
0ED5  93000000           [02] getupval   2   0      
0ED9  62800001           [03] call       1   2   2  
0EDD  58400000           [04] test       1       1    ; to [6] if false
0EE1  1A000280           [05] jmp        9            ; to [15]
0EE5  53000000           [06] getupval   1   0      
0EE9  6440C000           [07] self       1   1   257  ; -703571861
0EED  CD000081           [08] sub        3   258 0    ; 0
0EF1  62408001           [09] call       1   3   1  
0EF5  53000000           [10] getupval   1   0      
0EF9  64C0C000           [11] self       1   1   259  ; -786111647
0EFD  D3008000           [12] getupval   3   1      
0F01  0D010081           [13] sub        4   258 0    ; 0
0F05  62400002           [14] call       1   4   1  
0F09  5D000000           [15] getglobal  1   0        ; 1074689893
0F0D  93000001           [16] getupval   2   2      
0F11  62800001           [17] call       1   2   2  
0F15  58400000           [18] test       1       1    ; to [20] if false
0F19  1A000280           [19] jmp        9            ; to [29]
0F1D  53000001           [20] getupval   1   2      
0F21  6440C000           [21] self       1   1   257  ; -703571861
0F25  D2000000           [22] move       3   0      
0F29  62408001           [23] call       1   3   1  
0F2D  53000001           [24] getupval   1   2      
0F31  64C0C000           [25] self       1   1   259  ; -786111647
0F35  D3008000           [26] getupval   3   1      
0F39  12010000           [27] move       4   0      
0F3D  62400002           [28] call       1   4   1  
0F41  1E008000           [29] return     0   1      
                         * constants:
0F45  04                 sizek (4)
0F46  01                 const type 3
0F47  65770E40           const [0]: (1074689893)
0F4B  01                 const type 3
0F4C  6B5810D6           const [1]: (-703571861)
0F50  03                 const type 3
0F51  0000803F           const [2]: (0)
0F55  01                 const type 3
0F56  61E324D1           const [3]: (-786111647)
                         * functions:
0F5A  00                 sizep (0)
                         * lines:
0F5B  1D                 sizelineinfo (29)
                         [pc] (line)
0F5C  58                 [01] (88)
0F5D  00                 [02] (88)
0F5E  00                 [03] (88)
0F5F  00                 [04] (88)
0F60  58                 [05] (88)
0F61  00                 [06] (89)
0F62  00                 [07] (89)
0F63  00                 [08] (89)
0F64  58                 [09] (89)
0F65  00                 [10] (90)
0F66  00                 [11] (90)
0F67  00                 [12] (90)
0F68  58                 [13] (90)
0F69  00                 [14] (90)
0F6A  00                 [15] (92)
0F6B  00                 [16] (92)
0F6C  58                 [17] (92)
0F6D  00                 [18] (92)
0F6E  00                 [19] (92)
0F6F  00                 [20] (93)
0F70  59                 [21] (93)
0F71  00                 [22] (93)
0F72  00                 [23] (93)
0F73  00                 [24] (94)
0F74  59                 [25] (94)
0F75  00                 [26] (94)
0F76  00                 [27] (94)
0F77  00                 [28] (94)
0F78  59                 [29] (96)
                         * locals:
0FD0  00                 sizelocvars (0)
                         * upvalues:
0FD1  00                 sizeupvalues (0)
                         ** end of function **

                         
0FD2                     ** function [1] definition (level 3)
                         ** start of function **
0FD2  00                 string size (0)
                         source name: (none)
0FD3  64                 line defined (100)
0FD4  68                 last line defined (104)
0FD5  01                 nups (1)
0FD6  00                 numparams (0)
0FD7  00                 is_vararg (0)
0FD8  03                 maxstacksize (3)
                         * code:
0FD9  0A                 sizecode (10)
0FDA  1D000000           [01] getglobal  0   0        ; 1074689893
0FDE  53000000           [02] getupval   1   0      
0FE2  22800001           [03] call       0   2   2  
0FE6  18400000           [04] test       0       1    ; to [6] if false
0FEA  1AC00080           [05] jmp        4            ; to [10]
0FEE  13000000           [06] getupval   0   0      
0FF2  24404000           [07] self       0   0   257  ; 2109594123
0FF6  97000000           [08] loadbool   2   0   0    ; false
0FFA  22408001           [09] call       0   3   1  
0FFE  1E008000           [10] return     0   1      
                         * constants:
1002  02                 sizek (2)
1003  01                 const type 3
1004  65770E40           const [0]: (1074689893)
1008  01                 const type 3
1009  0BDABD7D           const [1]: (2109594123)
                         * functions:
100D  00                 sizep (0)
                         * lines:
100E  0A                 sizelineinfo (10)
                         [pc] (line)
100F  65                 [01] (101)
1010  00                 [02] (101)
1011  00                 [03] (101)
1012  00                 [04] (101)
1013  65                 [05] (101)
1014  00                 [06] (102)
1015  00                 [07] (102)
1016  00                 [08] (102)
1017  65                 [09] (102)
1018  00                 [10] (104)
                         * locals:
1037  00                 sizelocvars (0)
                         * upvalues:
1038  00                 sizeupvalues (0)
                         ** end of function **

                         * lines:
1039  66                 sizelineinfo (102)
                         [pc] (line)
103A  48                 [001] (72)
103B  00                 [002] (72)
103C  00                 [003] (72)
103D  00                 [004] (72)
103E  48                 [005] (72)
103F  00                 [006] (72)
1040  00                 [007] (73)
1041  00                 [008] (73)
1042  48                 [009] (74)
1043  00                 [010] (74)
1044  00                 [011] (74)
1045  00                 [012] (74)
1046  48                 [013] (74)
1047  00                 [014] (75)
1048  00                 [015] (75)
1049  00                 [016] (75)
104A  48                 [017] (75)
104B  00                 [018] (75)
104C  00                 [019] (76)
104D  00                 [020] (76)
104E  48                 [021] (76)
104F  00                 [022] (76)
1050  00                 [023] (76)
1051  00                 [024] (77)
1052  49                 [025] (77)
1053  00                 [026] (77)
1054  00                 [027] (77)
1055  00                 [028] (79)
1056  49                 [029] (79)
1057  00                 [030] (79)
1058  00                 [031] (79)
1059  00                 [032] (79)
105A  4A                 [033] (80)
105B  00                 [034] (80)
105C  00                 [035] (80)
105D  00                 [036] (80)
105E  4A                 [037] (80)
105F  00                 [038] (82)
1060  00                 [039] (82)
1061  00                 [040] (82)
1062  4A                 [041] (82)
1063  00                 [042] (82)
1064  00                 [043] (83)
1065  00                 [044] (83)
1066  4A                 [045] (83)
1067  00                 [046] (83)
1068  00                 [047] (83)
1069  00                 [048] (86)
106A  4A                 [049] (86)
106B  00                 [050] (96)
106C  00                 [051] (96)
106D  00                 [052] (96)
106E  4B                 [053] (96)
106F  00                 [054] (97)
1070  00                 [055] (99)
1071  00                 [056] (99)
1072  4B                 [057] (99)
1073  00                 [058] (99)
1074  00                 [059] (99)
1075  00                 [060] (99)
1076  4B                 [061] (99)
1077  00                 [062] (99)
1078  00                 [063] (99)
1079  00                 [064] (99)
107A  4B                 [065] (99)
107B  00                 [066] (99)
107C  00                 [067] (99)
107D  00                 [068] (104)
107E  4B                 [069] (104)
107F  00                 [070] (99)
1080  00                 [071] (104)
1081  00                 [072] (106)
1082  4C                 [073] (106)
1083  00                 [074] (106)
1084  00                 [075] (108)
1085  00                 [076] (108)
1086  4C                 [077] (108)
1087  00                 [078] (108)
1088  00                 [079] (108)
1089  00                 [080] (109)
108A  4C                 [081] (109)
108B  00                 [082] (109)
108C  00                 [083] (110)
108D  00                 [084] (110)
108E  4C                 [085] (110)
108F  00                 [086] (110)
1090  00                 [087] (111)
1091  00                 [088] (111)
1092  4C                 [089] (111)
1093  00                 [090] (113)
1094  00                 [091] (113)
1095  00                 [092] (113)
1096  4D                 [093] (113)
1097  00                 [094] (113)
1098  00                 [095] (114)
1099  00                 [096] (114)
109A  4D                 [097] (114)
109B  00                 [098] (115)
109C  00                 [099] (115)
109D  00                 [100] (115)
109E  4D                 [101] (115)
109F  00                 [102] (117)
                         * locals:
11D2  00                 sizelocvars (0)
                         * upvalues:
11D3  00                 sizeupvalues (0)
                         ** end of function **

                         
11D4                     ** function [4] definition (level 2)
                         ** start of function **
11D4  00                 string size (0)
                         source name: (none)
11D5  77                 line defined (119)
11D6  7B                 last line defined (123)
11D7  00                 nups (0)
11D8  00                 numparams (0)
11D9  00                 is_vararg (0)
11DA  03                 maxstacksize (3)
                         * code:
11DB  0A                 sizecode (10)
11DC  1D000000           [01] getglobal  0   0        ; 1074689893
11E0  5D400000           [02] getglobal  1   1        ; gGameData
11E4  22800001           [03] call       0   2   2  
11E8  18400000           [04] test       0       1    ; to [6] if false
11EC  1AC00080           [05] jmp        4            ; to [10]
11F0  1D400000           [06] getglobal  0   1        ; gGameData
11F4  24804000           [07] self       0   0   258  ; -650649066
11F8  99C00000           [08] loadk      2   3        ; "OnFetchDecoTemplates"
11FC  22408001           [09] call       0   3   1  
1200  1E008000           [10] return     0   1      
                         * constants:
1204  04                 sizek (4)
1205  01                 const type 3
1206  65770E40           const [0]: (1074689893)
120A  04                 const type 4
120B  0A                 string size (10)
120C  6747616D65446174+  "gGameDat"
1214  6100               "a\0"
                         const [1]: "gGameData"
1216  01                 const type 3
1217  16E237D9           const [2]: (-650649066)
121B  04                 const type 4
121C  15                 string size (21)
121D  4F6E466574636844+  "OnFetchD"
1225  65636F54656D706C+  "ecoTempl"
122D  6174657300         "ates\0"
                         const [3]: "OnFetchDecoTemplates"
                         * functions:
1232  00                 sizep (0)
                         * lines:
1233  0A                 sizelineinfo (10)
                         [pc] (line)
1234  78                 [01] (120)
1235  00                 [02] (120)
1236  00                 [03] (120)
1237  00                 [04] (120)
1238  78                 [05] (120)
1239  00                 [06] (121)
123A  00                 [07] (121)
123B  00                 [08] (121)
123C  78                 [09] (121)
123D  00                 [10] (123)
                         * locals:
125C  00                 sizelocvars (0)
                         * upvalues:
125D  00                 sizeupvalues (0)
                         ** end of function **

                         
125E                     ** function [5] definition (level 2)
                         ** start of function **
125E  00                 string size (0)
                         source name: (none)
125F  7D                 line defined (125)
1260  9D                 last line defined (157)
1261  01                 nups (2)
1262  02                 numparams (0)
1263  00                 is_vararg (0)
1264  00                 maxstacksize (16)
                         * code:
1266  5B                 sizecode (91)
1267  1D000000           [01] getglobal  0   0        ; 1074689893
126B  5D400000           [02] getglobal  1   1        ; gBackgroundRegion
126F  22800001           [03] call       0   2   2  
1273  18000000           [04] test       0       0    ; to [6] if true
1277  1A000080           [05] jmp        1            ; to [7]
127B  1E008000           [06] return     0   1      
127F  1D400000           [07] getglobal  0   1        ; gBackgroundRegion
1283  24804000           [08] self       0   0   258  ; -1485896174
1287  9DC00000           [09] getglobal  2   3        ; -332969190
128B  D9000100           [10] loadk      3   4        ; "Kubrow2"
128F  A2000001           [11] call       2   2   0  
1293  22800000           [12] call       0   0   2  
1297  4E404100           [13] gettable   1   0   261  ; 0
129B  9D800100           [14] getglobal  2   6        ; 572299008
129F  D9C00100           [15] loadk      3   7        ; 0
12A3  19010200           [16] loadk      4   8        ; 0
12A7  59C10100           [17] loadk      5   7        ; 0
12AB  A2800002           [18] call       2   4   2  
12AF  DD400200           [19] getglobal  3   9        ; 508519041
12B3  19C10100           [20] loadk      4   7        ; 0
12B7  59810200           [21] loadk      5   10       ; 0
12BB  99C10100           [22] loadk      6   7        ; 0
12BF  E2800002           [23] call       3   4   2  
12C3  1D010000           [24] getglobal  4   0        ; 1074689893
12C7  52018000           [25] move       5   1      
12CB  22810001           [26] call       4   2   2  
12CF  18410000           [27] test       4       1    ; to [29] if false
12D3  1A400180           [28] jmp        6            ; to [35]
12D7  24C1C200           [29] self       4   1   267  ; 1839670529
12DB  22810001           [30] call       4   2   2  
12DF  92000002           [31] move       2   4      
12E3  2401C300           [32] self       4   1   268  ; -231049143
12E7  22810001           [33] call       4   2   2  
12EB  D2000002           [34] move       3   4      
12EF  13010000           [35] getupval   4   0      
12F3  24414302           [36] self       4   4   269  ; -63725693
12F7  22810001           [37] call       4   2   2  
12FB  5D010000           [38] getglobal  5   0        ; 1074689893
12FF  92010002           [39] move       6   4      
1303  62810001           [40] call       5   2   2  
1307  58410000           [41] test       5       1    ; to [43] if false
130B  1AC00B80           [42] jmp        48           ; to [91]
130F  53018000           [43] getupval   5   1      
1313  4A018002           [44] len        5   5      
1317  4341C102           [45] add        5   5   261  ; 0
131B  8A010002           [46] len        6   4      
131F  D9410100           [47] loadk      7   5        ; 0
1323  50010A80           [48] forprep    5   41       ; to [90]
1327  4E020202           [49] gettable   9   4   8  
132B  86020005           [50] loadnil    10  10     
132F  DD020000           [51] getglobal  11  0        ; 1074689893
1333  2483C304           [52] self       12  9   270  ; -491574171
1337  22030001           [53] call       12  2   0  
133B  E2820000           [54] call       11  0   2  
133F  D8420000           [55] test       11      1    ; to [57] if false
1343  1AC00680           [56] jmp        28           ; to [85]
1347  DD420000           [57] getglobal  11  1        ; gBackgroundRegion
134B  E4C2C305           [58] self       11  11  271  ; -1110225722
134F  6483C304           [59] self       13  9   270  ; -491574171
1353  62830001           [60] call       13  2   2  
1357  92030001           [61] move       14  2      
135B  D2038001           [62] move       15  3      
135F  E2828002           [63] call       11  5   2  
1363  92028005           [64] move       10  11     
1367  DD020000           [65] getglobal  11  0        ; 1074689893
136B  12030005           [66] move       12  10     
136F  E2820001           [67] call       11  2   2  
1373  D8420000           [68] test       11      1    ; to [70] if false
1377  1A800380           [69] jmp        15           ; to [85]
137B  E402C404           [70] self       11  9   272  ; 1522422892
137F  52030005           [71] move       13  10     
1383  E2428001           [72] call       11  3   1  
1387  E4424405           [73] self       11  10  273  ; 970454089
138B  52030001           [74] move       13  2      
138F  92038001           [75] move       14  3      
1393  E2420002           [76] call       11  4   1  
1397  E4824405           [77] self       11  10  274  ; 967192372
139B  59430100           [78] loadk      13  5        ; 0
139F  99430100           [79] loadk      14  5        ; 0
13A3  D9C30400           [80] loadk      15  19       ; 0
13A7  E2428002           [81] call       11  5   1  
13AB  E4024505           [82] self       11  10  276  ; -703571861
13AF  59430100           [83] loadk      13  5        ; 0
13B3  E2428001           [84] call       11  3   1  
13B7  DD420500           [85] getglobal  11  21       ; table
13BB  CE82C505           [86] gettable   11  11  278  ; -431682403
13BF  13038000           [87] getupval   12  1      
13C3  52030005           [88] move       13  10     
13C7  E2428001           [89] call       11  3   1  
13CB  5441F57F           [90] forloop    5   -42      ; to [49] if loop
13CF  1E008000           [91] return     0   1      
                         * constants:
13D3  17                 sizek (23)
13D4  01                 const type 3
13D5  65770E40           const [0]: (1074689893)
13D9  04                 const type 4
13DA  12                 string size (18)
13DB  674261636B67726F+  "gBackgro"
13E3  756E64526567696F+  "undRegio"
13EB  6E00               "n\0"
                         const [1]: "gBackgroundRegion"
13ED  01                 const type 3
13EE  12066FA7           const [2]: (-1485896174)
13F2  01                 const type 3
13F3  1A4B27EC           const [3]: (-332969190)
13F7  04                 const type 4
13F8  08                 string size (8)
13F9  4B7562726F773200   "Kubrow2\0"
                         const [4]: "Kubrow2"
1401  03                 const type 3
1402  0000803F           const [5]: (0)
1406  01                 const type 3
1407  00971C22           const [6]: (572299008)
140B  03                 const type 3
140C  00000000           const [7]: (0)
1410  03                 const type 3
1411  00000040           const [8]: (0)
1415  01                 const type 3
1416  81624F1E           const [9]: (508519041)
141A  03                 const type 3
141B  0000B442           const [10]: (0)
141F  01                 const type 3
1420  0125A76D           const [11]: (1839670529)
1424  01                 const type 3
1425  49783AF2           const [12]: (-231049143)
1429  01                 const type 3
142A  839F33FC           const [13]: (-63725693)
142E  01                 const type 3
142F  652CB3E2           const [14]: (-491574171)
1433  01                 const type 3
1434  C64CD3BD           const [15]: (-1110225722)
1438  01                 const type 3
1439  6C54BE5A           const [16]: (1522422892)
143D  01                 const type 3
143E  49F4D739           const [17]: (970454089)
1442  01                 const type 3
1443  342FA639           const [18]: (967192372)
1447  03                 const type 3
1448  0000403F           const [19]: (0)
144C  01                 const type 3
144D  6B5810D6           const [20]: (-703571861)
1451  04                 const type 4
1452  06                 string size (6)
1453  7461626C6500       "table\0"
                         const [21]: "table"
1459  01                 const type 3
145A  9D0C45E6           const [22]: (-431682403)
                         * functions:
145E  00                 sizep (0)
                         * lines:
145F  5B                 sizelineinfo (91)
                         [pc] (line)
1460  7E                 [01] (126)
1461  00                 [02] (126)
1462  00                 [03] (126)
1463  00                 [04] (126)
1464  7E                 [05] (126)
1465  00                 [06] (127)
1466  00                 [07] (-127)
1467  00                 [08] (-127)
1468  7E                 [09] (-127)
1469  00                 [10] (-127)
146A  00                 [11] (-127)
146B  00                 [12] (-127)
146C  7E                 [13] (-126)
146D  00                 [14] (-124)
146E  00                 [15] (-124)
146F  00                 [16] (-124)
1470  7E                 [17] (-124)
1471  00                 [18] (-124)
1472  00                 [19] (-123)
1473  00                 [20] (-123)
1474  7F                 [21] (-123)
1475  00                 [22] (-123)
1476  00                 [23] (-123)
1477  00                 [24] (-121)
1478  81                 [25] (-121)
1479  00                 [26] (-121)
147A  00                 [27] (-121)
147B  00                 [28] (-121)
147C  81                 [29] (-120)
147D  00                 [30] (-120)
147E  00                 [31] (-120)
147F  00                 [32] (-119)
1480  81                 [33] (-119)
1481  00                 [34] (-119)
1482  00                 [35] (-116)
1483  00                 [36] (-116)
1484  81                 [37] (-116)
1485  00                 [38] (-115)
1486  00                 [39] (-115)
1487  00                 [40] (-115)
1488  81                 [41] (-115)
1489  00                 [42] (-115)
148A  00                 [43] (-114)
148B  00                 [44] (-114)
148C  81                 [45] (-114)
148D  00                 [46] (-114)
148E  00                 [47] (-114)
148F  00                 [48] (-114)
1490  82                 [49] (-113)
1491  00                 [50] (-112)
1492  00                 [51] (-111)
1493  00                 [52] (-111)
1494  84                 [53] (-111)
1495  00                 [54] (-111)
1496  00                 [55] (-111)
1497  00                 [56] (-111)
1498  84                 [57] (-110)
1499  00                 [58] (-110)
149A  00                 [59] (-110)
149B  00                 [60] (-110)
149C  84                 [61] (-110)
149D  00                 [62] (-110)
149E  00                 [63] (-110)
149F  00                 [64] (-110)
14A0  84                 [65] (-109)
14A1  00                 [66] (-109)
14A2  00                 [67] (-109)
14A3  00                 [68] (-109)
14A4  84                 [69] (-109)
14A5  00                 [70] (-108)
14A6  00                 [71] (-108)
14A7  00                 [72] (-108)
14A8  85                 [73] (-107)
14A9  00                 [74] (-107)
14AA  00                 [75] (-107)
14AB  00                 [76] (-107)
14AC  85                 [77] (-106)
14AD  00                 [78] (-106)
14AE  00                 [79] (-106)
14AF  00                 [80] (-106)
14B0  85                 [81] (-106)
14B1  00                 [82] (-105)
14B2  00                 [83] (-105)
14B3  00                 [84] (-105)
14B4  85                 [85] (-102)
14B5  00                 [86] (-102)
14B6  00                 [87] (-102)
14B7  00                 [88] (-102)
14B8  85                 [89] (-102)
14B9  00                 [90] (-114)
14BA  00                 [91] (-99)
                         * locals:
15CC  00                 sizelocvars (0)
                         * upvalues:
15CD  00                 sizeupvalues (0)
                         ** end of function **

                         
15CE                     ** function [6] definition (level 2)
                         ** start of function **
15CE  00                 string size (0)
                         source name: (none)
15D0  01                 line defined (159)
15D1  A4                 last line defined (164)
15D2  01                 nups (0)
15D3  00                 numparams (3)
15D4  03                 is_vararg (0)
15D5  00                 maxstacksize (6)
                         * code:
15D7  0A                 sizecode (10)
15D8  CE000001           [01] gettable   3   2   0  
fail op	35
15DC  2300C001           [02] close      0  
15E0  1A400180           [03] jmp        6            ; to [10]
15E4  8C404000           [04] settable   2   0   257  ; 1
15E8  DD800000           [05] getglobal  3   2        ; table
15EC  CEC0C001           [06] gettable   3   3   259  ; -431682403
15F0  12018000           [07] move       4   1      
15F4  52010000           [08] move       5   0      
15F8  E2408001           [09] call       3   3   1  
15FC  1E008000           [10] return     0   1      
                         * constants:
1600  04                 sizek (4)
1601  00                 const type 0
                         const [0]: nil
1602  01                 const type 3
1603  01000000           const [1]: (1)
1607  04                 const type 4
1608  06                 string size (6)
1609  7461626C6500       "table\0"
                         const [2]: "table"
160F  01                 const type 3
1610  9D0C45E6           const [3]: (-431682403)
                         * functions:
1614  00                 sizep (0)
                         * lines:
1615  0A                 sizelineinfo (10)
                         [pc] (line)
1616  A0                 [01] (-96)
1617  00                 [02] (-96)
1618  00                 [03] (-96)
1619  00                 [04] (-95)
161A  A0                 [05] (-94)
161B  00                 [06] (-94)
161C  00                 [07] (-94)
161D  00                 [08] (-94)
161E  A0                 [09] (-94)
161F  00                 [10] (-92)
                         * locals:
163E  00                 sizelocvars (0)
                         * upvalues:
163F  00                 sizeupvalues (0)
                         ** end of function **

                         
1640                     ** function [7] definition (level 2)
                         ** start of function **
1640  00                 string size (0)
                         source name: (none)
1642  01                 line defined (166)
1643  BF                 last line defined (191)
1644  01                 nups (3)
1645  03                 numparams (0)
1646  00                 is_vararg (0)
1647  00                 maxstacksize (18)
                         * code:
1649  43                 sizecode (67)
164A  0B000000           [01] newtable   0   0   0    ; array=0, hash=0
164E  4B000000           [02] newtable   1   0   0    ; array=0, hash=0
1652  93000000           [03] getupval   2   0      
1656  8E004001           [04] gettable   2   2   256  ; "Pass"
fail op	35
165A  23404001           [05] close      0  
165E  1A400D80           [06] jmp        54           ; to [61]
1662  86008001           [07] loadnil    2   3      
1666  19410000           [08] loadk      4   1        ; 0
166A  59810000           [09] loadk      5   2        ; 0
166E  99410000           [10] loadk      6   1        ; 0
1672  10C10480           [11] forprep    4   20       ; to [32]
1676  1DC20000           [12] getglobal  8   3        ; gBackgroundRegion
167A  24024104           [13] self       8   8   260  ; -1485896174
167E  9D420100           [14] getglobal  10  5        ; -332969190
1682  D9820100           [15] loadk      11  6        ; "Kubrow"
1686  1DC30100           [16] getglobal  12  7        ; -1615931716
168A  52038003           [17] move       13  7      
168E  22830001           [18] call       12  2   2  
1692  C2028305           [19] concat     11  11  12 
1696  A2020001           [20] call       10  2   0  
169A  22820000           [21] call       8   0   2  
169E  92000004           [22] move       2   8      
16A2  CE404001           [23] gettable   3   2   257  ; 0
16A6  1D020200           [24] getglobal  8   8        ; 1074689893
16AA  52028001           [25] move       9   3      
16AE  22820001           [26] call       8   2   2  
16B2  18420000           [27] test       8       1    ; to [29] if false
16B6  1A800080           [28] jmp        3            ; to [32]
16BA  2442C201           [29] self       8   3   265  ; 2109594123
16BE  97020000           [30] loadbool   10  0   0    ; false
16C2  22428001           [31] call       8   3   1  
16C6  1481FA7F           [32] forloop    4   -21      ; to [12] if loop
16CA  13028000           [33] getupval   8   1      
16CE  24824204           [34] self       8   8   266  ; -63725693
16D2  22820001           [35] call       8   2   2  
16D6  5D020200           [36] getglobal  9   8        ; 1074689893
16DA  92020004           [37] move       10  8      
16DE  62820001           [38] call       9   2   2  
16E2  58420000           [39] test       9       1    ; to [41] if false
16E6  1AC00480           [40] jmp        20           ; to [61]
16EA  5DC20200           [41] getglobal  9   11       ; 1672515847
16EE  92020004           [42] move       10  8      
16F2  62020101           [43] call       9   2   4  
16F6  1A400380           [44] jmp        14           ; to [59]
16FA  9D030200           [45] getglobal  14  8        ; 1074689893
16FE  E403C306           [46] self       15  13  268  ; -491574171
1702  E2030001           [47] call       15  2   0  
1706  A2830000           [48] call       14  0   2  
170A  98430000           [49] test       14      1    ; to [51] if false
170E  1AC00180           [50] jmp        8            ; to [59]
1712  93030001           [51] getupval   14  2      
1716  E403C306           [52] self       15  13  268  ; -491574171
171A  E2830001           [53] call       15  2   2  
171E  E443C307           [54] self       15  15  269  ; 455421500
1722  E2830001           [55] call       15  2   2  
1726  12040000           [56] move       16  0      
172A  52048000           [57] move       17  1      
172E  A2430002           [58] call       14  4   1  
1732  56820000           [59] tforloop   9       2    ; to [61] if exit
1736  1AC0FB7F           [60] jmp        -16          ; to [45]
173A  93030000           [61] getupval   14  0      
173E  DDC30300           [62] getglobal  15  15       ; UISys
1742  CE03C407           [63] gettable   15  15  272  ; 1151030240
1746  12040000           [64] move       16  0      
174A  E2830001           [65] call       15  2   2  
174E  8CC30387           [66] settable   14  270 15   ; "Loader"
1752  1E008000           [67] return     0   1      
                         * constants:
1756  11                 sizek (17)
1757  04                 const type 4
1758  05                 string size (5)
1759  5061737300         "Pass\0"
                         const [0]: "Pass"
175E  03                 const type 3
175F  0000803F           const [1]: (0)
1763  03                 const type 3
1764  00000040           const [2]: (0)
1768  04                 const type 4
1769  12                 string size (18)
176A  674261636B67726F+  "gBackgro"
1772  756E64526567696F+  "undRegio"
177A  6E00               "n\0"
                         const [3]: "gBackgroundRegion"
177C  01                 const type 3
177D  12066FA7           const [4]: (-1485896174)
1781  01                 const type 3
1782  1A4B27EC           const [5]: (-332969190)
1786  04                 const type 4
1787  07                 string size (7)
1788  4B7562726F7700     "Kubrow\0"
                         const [6]: "Kubrow"
178F  01                 const type 3
1790  BCD6AE9F           const [7]: (-1615931716)
1794  01                 const type 3
1795  65770E40           const [8]: (1074689893)
1799  01                 const type 3
179A  0BDABD7D           const [9]: (2109594123)
179E  01                 const type 3
179F  839F33FC           const [10]: (-63725693)
17A3  01                 const type 3
17A4  0791B063           const [11]: (1672515847)
17A8  01                 const type 3
17A9  652CB3E2           const [12]: (-491574171)
17AD  01                 const type 3
17AE  3C2E251B           const [13]: (455421500)
17B2  04                 const type 4
17B3  07                 string size (7)
17B4  4C6F6164657200     "Loader\0"
                         const [14]: "Loader"
17BB  04                 const type 4
17BC  06                 string size (6)
17BD  554953797300       "UISys\0"
                         const [15]: "UISys"
17C3  01                 const type 3
17C4  E0539B44           const [16]: (1151030240)
                         * functions:
17C8  00                 sizep (0)
                         * lines:
17C9  43                 sizelineinfo (67)
                         [pc] (line)
17CA  A7                 [01] (-89)
17CB  00                 [02] (-88)
17CC  00                 [03] (-87)
17CD  00                 [04] (-87)
17CE  A8                 [05] (-87)
17CF  00                 [06] (-87)
17D0  00                 [07] (-86)
17D1  00                 [08] (-84)
17D2  A9                 [09] (-84)
17D3  00                 [10] (-84)
17D4  00                 [11] (-84)
17D5  00                 [12] (-83)
17D6  A9                 [13] (-83)
17D7  00                 [14] (-83)
17D8  00                 [15] (-83)
17D9  00                 [16] (-83)
17DA  A9                 [17] (-83)
17DB  00                 [18] (-83)
17DC  00                 [19] (-83)
17DD  00                 [20] (-83)
17DE  A9                 [21] (-83)
17DF  00                 [22] (-83)
17E0  00                 [23] (-82)
17E1  00                 [24] (-81)
17E2  AA                 [25] (-81)
17E3  00                 [26] (-81)
17E4  00                 [27] (-81)
17E5  00                 [28] (-81)
17E6  AC                 [29] (-80)
17E7  00                 [30] (-80)
17E8  00                 [31] (-80)
17E9  00                 [32] (-84)
17EA  AC                 [33] (-76)
17EB  00                 [34] (-76)
17EC  00                 [35] (-76)
17ED  00                 [36] (-75)
17EE  AC                 [37] (-75)
17EF  00                 [38] (-75)
17F0  00                 [39] (-75)
17F1  00                 [40] (-75)
17F2  AC                 [41] (-74)
17F3  00                 [42] (-74)
17F4  00                 [43] (-74)
17F5  00                 [44] (-74)
17F6  AD                 [45] (-73)
17F7  00                 [46] (-73)
17F8  00                 [47] (-73)
17F9  00                 [48] (-73)
17FA  AD                 [49] (-73)
17FB  00                 [50] (-73)
17FC  00                 [51] (-72)
17FD  00                 [52] (-72)
17FE  AD                 [53] (-72)
17FF  00                 [54] (-72)
1800  00                 [55] (-72)
1801  00                 [56] (-72)
1802  AD                 [57] (-72)
1803  00                 [58] (-72)
1804  00                 [59] (-74)
1805  00                 [60] (-70)
1806  AD                 [61] (-66)
1807  00                 [62] (-66)
1808  00                 [63] (-66)
1809  00                 [64] (-66)
180A  AD                 [65] (-66)
180B  00                 [66] (-66)
180C  00                 [67] (-65)
                         * locals:
18D6  00                 sizelocvars (0)
                         * upvalues:
18D7  00                 sizeupvalues (0)
                         ** end of function **

                         
18D8                     ** function [8] definition (level 2)
                         ** start of function **
18D8  00                 string size (0)
                         source name: (none)
18DA  01                 line defined (193)
18DB  D3                 last line defined (211)
18DC  01                 nups (4)
18DD  04                 numparams (1)
18DE  01                 is_vararg (0)
18DF  00                 maxstacksize (5)
                         * code:
18E1  22                 sizecode (34)
18E2  9D000000           [01] getglobal  2   0        ; 1074689893
18E6  D2000000           [02] move       3   0      
18EA  A2800001           [03] call       2   2   2  
18EE  98400000           [04] test       2       1    ; to [6] if false
18F2  1A800180           [05] jmp        7            ; to [13]
18F6  A4404000           [06] self       2   0   257  ; -1957065004
18FA  1D810000           [07] getglobal  4   2        ; levelType
18FE  A2808001           [08] call       2   3   2  
1902  98000000           [09] test       2       0    ; to [11] if true
1906  1A400080           [10] jmp        2            ; to [13]
190A  52000000           [11] move       1   0      
190E  1AC00180           [12] jmp        8            ; to [21]
1912  9D000000           [13] getglobal  2   0        ; 1074689893
1916  D2000000           [14] move       3   0      
191A  A2800001           [15] call       2   2   2  
191E  98400000           [16] test       2       1    ; to [18] if false
1922  1A800080           [17] jmp        3            ; to [21]
1926  A4C04000           [18] self       2   0   259  ; 676713831
192A  A2800001           [19] call       2   2   2  
192E  4E004101           [20] gettable   1   2   260  ; "level"
1932  97008000           [21] loadbool   2   1   0    ; true
fail op	8
1936  88000000           [22] setupval   2   0      
193A  93008000           [23] getupval   2   1      
fail op	35
193E  23808000           [24] close      0  
1942  1A000080           [25] jmp        1            ; to [27]
1946  1E008000           [26] return     0   1      
fail op	8
194A  48008000           [27] setupval   1   1      
194E  97008000           [28] loadbool   2   1   0    ; true
fail op	8
1952  88000001           [29] setupval   2   2      
1956  93008001           [30] getupval   2   3      
195A  A4404101           [31] self       2   2   261  ; 252425949
195E  12018000           [32] move       4   1      
1962  A2408001           [33] call       2   3   1  
1966  1E008000           [34] return     0   1      
                         * constants:
196A  06                 sizek (6)
196B  01                 const type 3
196C  65770E40           const [0]: (1074689893)
1970  01                 const type 3
1971  D48E598B           const [1]: (-1957065004)
1975  04                 const type 4
1976  0A                 string size (10)
1977  6C6576656C547970+  "levelTyp"
197F  6500               "e\0"
                         const [2]: "levelType"
1981  01                 const type 3
1982  67D55528           const [3]: (676713831)
1986  04                 const type 4
1987  06                 string size (6)
1988  6C6576656C00       "level\0"
                         const [4]: "level"
198E  01                 const type 3
198F  DDB60B0F           const [5]: (252425949)
                         * functions:
1993  00                 sizep (0)
                         * lines:
1994  22                 sizelineinfo (34)
                         [pc] (line)
1995  C3                 [01] (-61)
1996  00                 [02] (-61)
1997  00                 [03] (-61)
1998  00                 [04] (-61)
1999  C3                 [05] (-61)
199A  00                 [06] (-61)
199B  00                 [07] (-61)
199C  00                 [08] (-61)
199D  C3                 [09] (-61)
199E  00                 [10] (-61)
199F  00                 [11] (-60)
19A0  00                 [12] (-60)
19A1  C3                 [13] (-59)
19A2  00                 [14] (-59)
19A3  00                 [15] (-59)
19A4  00                 [16] (-59)
19A5  C3                 [17] (-59)
19A6  00                 [18] (-58)
19A7  00                 [19] (-58)
19A8  00                 [20] (-58)
19A9  C3                 [21] (-55)
19AA  00                 [22] (-55)
19AB  00                 [23] (-53)
19AC  00                 [24] (-53)
19AD  C3                 [25] (-53)
19AE  00                 [26] (-52)
19AF  00                 [27] (-50)
19B0  00                 [28] (-48)
19B1  C3                 [29] (-48)
19B2  00                 [30] (-46)
19B3  00                 [31] (-46)
19B4  00                 [32] (-46)
19B5  C3                 [33] (-46)
19B6  00                 [34] (-45)
                         * locals:
1A1D  00                 sizelocvars (0)
                         * upvalues:
1A1E  00                 sizeupvalues (0)
                         ** end of function **

                         
1A1F                     ** function [9] definition (level 2)
                         ** start of function **
1A1F  00                 string size (0)
                         source name: (none)
1A21  01                 line defined (213)
1A22  EE                 last line defined (238)
1A23  01                 nups (2)
1A24  02                 numparams (1)
1A25  01                 is_vararg (0)
1A26  00                 maxstacksize (6)
                         * code:
1A28  2F                 sizecode (47)
1A29  5D000000           [01] getglobal  1   0        ; _T
1A2D  93000000           [02] getupval   2   0      
1A31  4C808080           [03] settable   1   257 2    ; "mPulseBG"
1A35  53000000           [04] getupval   1   0      
fail op	35
1A39  2380C000           [05] close      0  
1A3D  1A000080           [06] jmp        1            ; to [8]
1A41  1E008000           [07] return     0   1      
1A45  57000000           [08] loadbool   1   0   0    ; false
1A49  93000000           [09] getupval   2   0      
fail op	21
1A4D  15C04001           [10] concat     0   2   259
1A51  1A000080           [11] jmp        1            ; to [13]
1A55  57008000           [12] loadbool   1   1   0    ; true
1A59  93000000           [13] getupval   2   0      
1A5D  C4004100           [14] mul        3   0   260  ; 0
1A61  83C00001           [15] add        2   2   3  
fail op	8
1A65  88000000           [16] setupval   2   0      
1A69  58000000           [17] test       1       0    ; to [19] if true
1A6D  1A400280           [18] jmp        10           ; to [29]
1A71  93000000           [19] getupval   2   0      
fail op	21
1A75  15808081           [20] concat     0   259 2  
1A79  1A800180           [21] jmp        7            ; to [29]
1A7D  99C00000           [22] loadk      2   3        ; 0
fail op	8
1A81  88000000           [23] setupval   2   0      
1A85  9D400100           [24] getglobal  2   5        ; gFlashMgr
1A89  A4804101           [25] self       2   2   262  ; -991492797
1A8D  A2400001           [26] call       2   2   1  
1A91  86000001           [27] loadnil    2   2      
fail op	8
1A95  88008000           [28] setupval   2   1      
1A99  93000000           [29] getupval   2   0      
fail op	21
1A9D  15808083           [30] concat     0   263 2  
1AA1  1A800180           [31] jmp        7            ; to [39]
1AA5  86000001           [32] loadnil    2   2      
fail op	8
1AA9  88000000           [33] setupval   2   0      
1AAD  9D000200           [34] getglobal  2   8        ; mMovie
1AB1  A4404201           [35] self       2   2   265  ; -403402525
1AB5  19C10000           [36] loadk      4   3        ; 0
1AB9  A2408001           [37] call       2   3   1  
1ABD  1E008000           [38] return     0   1      
1AC1  9D000200           [39] getglobal  2   8        ; mMovie
1AC5  A4404201           [40] self       2   2   265  ; -403402525
1AC9  1D810200           [41] getglobal  4   10       ; math
1ACD  0EC14202           [42] gettable   4   4   267  ; -113279800
1AD1  53010000           [43] getupval   5   0      
1AD5  22810001           [44] call       4   2   2  
1AD9  0D018183           [45] sub        4   263 4    ; 0
1ADD  A2408001           [46] call       2   3   1  
1AE1  1E008000           [47] return     0   1      
                         * constants:
1AE5  0C                 sizek (12)
1AE6  04                 const type 4
1AE7  03                 string size (3)
1AE8  5F5400             "_T\0"
                         const [0]: "_T"
1AEB  04                 const type 4
1AEC  09                 string size (9)
1AED  6D50756C73654247+  "mPulseBG"
1AF5  00                 "\0"
                         const [1]: "mPulseBG"
1AF6  00                 const type 0
                         const [2]: nil
1AF7  03                 const type 3
1AF8  00000000           const [3]: (0)
1AFC  03                 const type 3
1AFD  00008040           const [4]: (0)
1B01  04                 const type 4
1B02  0A                 string size (10)
1B03  67466C6173684D67+  "gFlashMg"
1B0B  7200               "r\0"
                         const [5]: "gFlashMgr"
1B0D  01                 const type 3
1B0E  4305E7C4           const [6]: (-991492797)
1B12  03                 const type 3
1B13  0000803F           const [7]: (0)
1B17  04                 const type 4
1B18  07                 string size (7)
1B19  6D4D6F76696500     "mMovie\0"
                         const [8]: "mMovie"
1B20  01                 const type 3
1B21  E390F4E7           const [9]: (-403402525)
1B25  04                 const type 4
1B26  05                 string size (5)
1B27  6D61746800         "math\0"
                         const [10]: "math"
1B2C  01                 const type 3
1B2D  C87C3FF9           const [11]: (-113279800)
                         * functions:
1B31  00                 sizep (0)
                         * lines:
1B32  2F                 sizelineinfo (47)
                         [pc] (line)
1B33  D6                 [01] (-42)
1B34  00                 [02] (-42)
1B35  00                 [03] (-42)
1B36  00                 [04] (-41)
1B37  D6                 [05] (-41)
1B38  00                 [06] (-41)
1B39  00                 [07] (-40)
1B3A  00                 [08] (-37)
1B3B  D6                 [09] (-36)
1B3C  00                 [10] (-36)
1B3D  00                 [11] (-36)
1B3E  00                 [12] (-35)
1B3F  D7                 [13] (-32)
1B40  00                 [14] (-32)
1B41  00                 [15] (-32)
1B42  00                 [16] (-32)
1B43  D7                 [17] (-31)
1B44  00                 [18] (-31)
1B45  00                 [19] (-31)
1B46  00                 [20] (-31)
1B47  D7                 [21] (-31)
1B48  00                 [22] (-30)
1B49  00                 [23] (-30)
1B4A  00                 [24] (-29)
1B4B  D8                 [25] (-29)
1B4C  00                 [26] (-29)
1B4D  00                 [27] (-28)
1B4E  00                 [28] (-28)
1B4F  DB                 [29] (-25)
1B50  00                 [30] (-25)
1B51  00                 [31] (-25)
1B52  00                 [32] (-24)
1B53  DC                 [33] (-24)
1B54  00                 [34] (-23)
1B55  00                 [35] (-23)
1B56  00                 [36] (-23)
1B57  DC                 [37] (-23)
1B58  00                 [38] (-22)
1B59  00                 [39] (-19)
1B5A  00                 [40] (-19)
1B5B  DC                 [41] (-19)
1B5C  00                 [42] (-19)
1B5D  00                 [43] (-19)
1B5E  00                 [44] (-19)
1B5F  DD                 [45] (-19)
1B60  00                 [46] (-19)
1B61  00                 [47] (-18)
                         * locals:
1BEF  00                 sizelocvars (0)
                         * upvalues:
1BF0  00                 sizeupvalues (0)
                         ** end of function **

                         
1BF1                     ** function [10] definition (level 2)
                         ** start of function **
1BF1  00                 string size (0)
                         source name: (none)
1BF3  01                 line defined (240)
1BF4  86                 last line defined (262)
1BF5  02                 nups (7)
1BF6  07                 numparams (1)
1BF7  01                 is_vararg (0)
1BF8  00                 maxstacksize (8)
                         * code:
1BFA  47                 sizecode (71)
1BFB  53000000           [01] getupval   1   0      
1BFF  92000000           [02] move       2   0      
1C03  62400001           [03] call       1   2   1  
1C07  53008000           [04] getupval   1   1      
1C0B  58000000           [05] test       1       0    ; to [7] if true
1C0F  1AC00A80           [06] jmp        44           ; to [51]
1C13  53000001           [07] getupval   1   2      
1C17  6400C000           [08] self       1   1   256  ; 729320363
1C1B  62800001           [09] call       1   2   2  
1C1F  58000000           [10] test       1       0    ; to [12] if true
1C23  1A800980           [11] jmp        39           ; to [51]
1C27  53008001           [12] getupval   1   3      
fail op	35
1C2B  2340C000           [13] close      0  
1C2F  1A000780           [14] jmp        29           ; to [44]
1C33  53000002           [15] getupval   1   4      
fail op	35
1C37  6380C000           [16] close      1  
1C3B  1A400680           [17] jmp        26           ; to [44]
1C3F  53000002           [18] getupval   1   4      
1C43  64C0C000           [19] self       1   1   259  ; -988128099
1C47  62800001           [20] call       1   2   2  
fail op	21
1C4B  15400082           [21] concat     0   260 1  
1C4F  1A000580           [22] jmp        21           ; to [44]
1C53  57000000           [23] loadbool   1   0   0    ; false
fail op	8
1C57  48008000           [24] setupval   1   1      
1C5B  53000001           [25] getupval   1   2      
1C5F  6440C100           [26] self       1   1   261  ; 48435800
1C63  62400001           [27] call       1   2   1  
1C67  53008002           [28] getupval   1   5      
1C6B  62408000           [29] call       1   1   1  
1C6F  5D800100           [30] getglobal  1   6        ; 1390508688
1C73  9DC00100           [31] getglobal  2   7        ; mMovie
1C77  D9000200           [32] loadk      3   8        ; "ImprintPanel"
1C7B  1D410200           [33] getglobal  4   9        ; UISys
1C7F  0E814202           [34] gettable   4   4   266  ; "FlashInstance_LINEAR"
1C83  4B018000           [35] newtable   5   1   0    ; array=1, hash=0
1C87  99C10200           [36] loadk      6   11       ; "_alpha"
1C8B  5B418000           [37] setlist    5   1   1    ; index 1 to 1
1C8F  8B018000           [38] newtable   6   1   0    ; array=1, hash=0
1C93  D9010300           [39] loadk      7   12       ; 0
1C97  9B418000           [40] setlist    6   1   1    ; index 1 to 1
1C9B  D9410300           [41] loadk      7   13       ; -102
1C9F  62408003           [42] call       1   7   1  
1CA3  1A800180           [43] jmp        7            ; to [51]
1CA7  59400000           [44] loadk      1   1        ; 0
fail op	8
1CAB  48008001           [45] setupval   1   3      
1CAF  5DC00100           [46] getglobal  1   7        ; mMovie
1CB3  6480C300           [47] self       1   1   270  ; -403402525
1CB7  D3008001           [48] getupval   3   3      
1CBB  62408001           [49] call       1   3   1  
1CBF  1E008000           [50] return     0   1      
1CC3  53000003           [51] getupval   1   6      
1CC7  58400000           [52] test       1       1    ; to [54] if false
1CCB  1A000480           [53] jmp        17           ; to [71]
1CCF  53008001           [54] getupval   1   3      
fail op	21
1CD3  15400082           [55] concat     0   260 1  
1CD7  1A400380           [56] jmp        14           ; to [71]
1CDB  5DC00300           [57] getglobal  1   15       ; math
1CDF  4E00C400           [58] gettable   1   1   272  ; -1962864584
1CE3  99000100           [59] loadk      2   4        ; 0
1CE7  D3008001           [60] getupval   3   3      
1CEB  1D410400           [61] getglobal  4   17       ; 1661359502
1CEF  22818000           [62] call       4   1   2  
1CF3  04414002           [63] mul        4   4   257  ; 0
1CF7  CD008101           [64] sub        3   3   4  
1CFB  62808001           [65] call       1   3   2  
fail op	8
1CFF  48008001           [66] setupval   1   3      
1D03  5DC00100           [67] getglobal  1   7        ; mMovie
1D07  6480C300           [68] self       1   1   270  ; -403402525
1D0B  D3008001           [69] getupval   3   3      
1D0F  62408001           [70] call       1   3   1  
1D13  1E008000           [71] return     0   1      
                         * constants:
1D17  12                 sizek (18)
1D18  01                 const type 3
1D19  AB8B782B           const [0]: (729320363)
1D1D  03                 const type 3
1D1E  0000803F           const [1]: (0)
1D22  00                 const type 0
                         const [2]: nil
1D23  01                 const type 3
1D24  9D5C1AC5           const [3]: (-988128099)
1D28  03                 const type 3
1D29  00000000           const [4]: (0)
1D2D  01                 const type 3
1D2E  5812E302           const [5]: (48435800)
1D32  01                 const type 3
1D33  907AE152           const [6]: (1390508688)
1D37  04                 const type 4
1D38  07                 string size (7)
1D39  6D4D6F76696500     "mMovie\0"
                         const [7]: "mMovie"
1D40  04                 const type 4
1D41  0D                 string size (13)
1D42  496D7072696E7450+  "ImprintP"
1D4A  616E656C00         "anel\0"
                         const [8]: "ImprintPanel"
1D4F  04                 const type 4
1D50  06                 string size (6)
1D51  554953797300       "UISys\0"
                         const [9]: "UISys"
1D57  04                 const type 4
1D58  15                 string size (21)
1D59  466C617368496E73+  "FlashIns"
1D61  74616E63655F4C49+  "tance_LI"
1D69  4E45415200         "NEAR\0"
                         const [10]: "FlashInstance_LINEAR"
1D6E  04                 const type 4
1D6F  07                 string size (7)
1D70  5F616C70686100     "_alpha\0"
                         const [11]: "_alpha"
1D77  03                 const type 3
1D78  0000C842           const [12]: (0)
1D7C  03                 const type 3
1D7D  9A99193E           const [13]: (-102)
1D81  01                 const type 3
1D82  E390F4E7           const [14]: (-403402525)
1D86  04                 const type 4
1D87  05                 string size (5)
1D88  6D61746800         "math\0"
                         const [15]: "math"
1D8D  01                 const type 3
1D8E  3810018B           const [16]: (-1962864584)
1D92  01                 const type 3
1D93  8E550663           const [17]: (1661359502)
                         * functions:
1D97  00                 sizep (0)
                         * lines:
1D98  47                 sizelineinfo (71)
                         [pc] (line)
1D99  F1                 [01] (-15)
1D9A  00                 [02] (-15)
1D9B  00                 [03] (-15)
1D9C  00                 [04] (-13)
1D9D  F1                 [05] (-13)
1D9E  00                 [06] (-13)
1D9F  00                 [07] (-12)
1DA0  00                 [08] (-12)
1DA1  F1                 [09] (-12)
1DA2  00                 [10] (-12)
1DA3  00                 [11] (-12)
1DA4  00                 [12] (-11)
1DA5  F3                 [13] (-11)
1DA6  00                 [14] (-11)
1DA7  00                 [15] (-11)
1DA8  00                 [16] (-11)
1DA9  F3                 [17] (-11)
1DAA  00                 [18] (-11)
1DAB  00                 [19] (-11)
1DAC  00                 [20] (-11)
1DAD  F3                 [21] (-11)
1DAE  00                 [22] (-11)
1DAF  00                 [23] (-10)
1DB0  00                 [24] (-10)
1DB1  F4                 [25] (-9)
1DB2  00                 [26] (-9)
1DB3  00                 [27] (-9)
1DB4  00                 [28] (-8)
1DB5  F4                 [29] (-8)
1DB6  00                 [30] (-7)
1DB7  00                 [31] (-7)
1DB8  00                 [32] (-7)
1DB9  F4                 [33] (-7)
1DBA  00                 [34] (-7)
1DBB  00                 [35] (-7)
1DBC  00                 [36] (-7)
1DBD  F4                 [37] (-7)
1DBE  00                 [38] (-7)
1DBF  00                 [39] (-7)
1DC0  00                 [40] (-7)
1DC1  F4                 [41] (-7)
1DC2  00                 [42] (-7)
1DC3  00                 [43] (-7)
1DC4  00                 [44] (-5)
1DC5  F5                 [45] (-5)
1DC6  00                 [46] (-4)
1DC7  00                 [47] (-4)
1DC8  00                 [48] (-4)
1DC9  F5                 [49] (-4)
1DCA  00                 [50] (-3)
1DCB  00                 [51] (2)
1DCC  00                 [52] (2)
1DCD  F5                 [53] (2)
1DCE  00                 [54] (2)
1DCF  00                 [55] (2)
1DD0  00                 [56] (2)
1DD1  F5                 [57] (3)
1DD2  00                 [58] (3)
1DD3  00                 [59] (3)
1DD4  00                 [60] (3)
1DD5  F5                 [61] (3)
1DD6  00                 [62] (3)
1DD7  00                 [63] (3)
1DD8  00                 [64] (3)
1DD9  F5                 [65] (3)
1DDA  00                 [66] (3)
1DDB  00                 [67] (4)
1DDC  00                 [68] (4)
1DDD  F5                 [69] (4)
1DDE  00                 [70] (4)
1DDF  00                 [71] (6)
                         * locals:
1EB5  00                 sizelocvars (0)
                         * upvalues:
1EB6  00                 sizeupvalues (0)
                         ** end of function **

                         
1EB7                     ** function [11] definition (level 2)
                         ** start of function **
1EB7  00                 string size (0)
                         source name: (none)
1EB9  02                 line defined (264)
1EBA  96                 last line defined (278)
1EBB  02                 nups (6)
1EBC  06                 numparams (0)
1EBD  00                 is_vararg (0)
1EBE  00                 maxstacksize (7)
                         * code:
1EC0  33                 sizecode (51)
1EC1  17008000           [01] loadbool   0   1   0    ; true
fail op	8
1EC5  08000000           [02] setupval   0   0      
1EC9  13008000           [03] getupval   0   1      
1ECD  0E004000           [04] gettable   0   0   256  ; -1262767739
1ED1  57000000           [05] loadbool   1   0   0    ; false
1ED5  22400001           [06] call       0   2   1  
1ED9  1D400000           [07] getglobal  0   1        ; 1074689893
1EDD  5D800000           [08] getglobal  1   2        ; gBackgroundRegion
1EE1  22800001           [09] call       0   2   2  
1EE5  18400000           [10] test       0       1    ; to [12] if false
1EE9  1A000380           [11] jmp        13           ; to [25]
1EED  19C00000           [12] loadk      0   3        ; 0
1EF1  53000001           [13] getupval   1   2      
1EF5  4A008000           [14] len        1   1      
1EF9  99C00000           [15] loadk      2   3        ; 0
1EFD  10000180           [16] forprep    0   5        ; to [22]
1F01  1D810000           [17] getglobal  4   2        ; gBackgroundRegion
1F05  24014102           [18] self       4   4   260  ; -1693828985
1F09  93010001           [19] getupval   6   2      
1F0D  8EC10003           [20] gettable   6   6   3  
1F11  22418001           [21] call       4   3   1  
1F15  1440FE7F           [22] forloop    0   -6       ; to [17] if loop
1F19  06010002           [23] loadnil    4   4      
fail op	8
1F1D  08010001           [24] setupval   4   2      
1F21  1D410000           [25] getglobal  4   1        ; 1074689893
1F25  53018001           [26] getupval   5   3      
1F29  22810001           [27] call       4   2   2  
1F2D  18010000           [28] test       4       0    ; to [30] if true
1F31  1A000580           [29] jmp        21           ; to [51]
1F35  1D410000           [30] getglobal  4   1        ; 1074689893
1F39  53010002           [31] getupval   5   4      
1F3D  22810001           [32] call       4   2   2  
1F41  18010000           [33] test       4       0    ; to [35] if true
1F45  1AC00380           [34] jmp        16           ; to [51]
1F49  1D410000           [35] getglobal  4   1        ; 1074689893
1F4D  53018002           [36] getupval   5   5      
1F51  22810001           [37] call       4   2   2  
1F55  18410000           [38] test       4       1    ; to [40] if false
1F59  1A800280           [39] jmp        11           ; to [51]
1F5D  1D410000           [40] getglobal  4   1        ; 1074689893
1F61  5D410100           [41] getglobal  5   5        ; _T
1F65  93018002           [42] getupval   6   5      
1F69  4E818102           [43] gettable   5   5   6  
1F6D  22810001           [44] call       4   2   2  
1F71  18410000           [45] test       4       1    ; to [47] if false
1F75  1AC00080           [46] jmp        4            ; to [51]
1F79  1D410100           [47] getglobal  4   5        ; _T
1F7D  53018002           [48] getupval   5   5      
1F81  0E410102           [49] gettable   4   4   5  
1F85  22418000           [50] call       4   1   1  
1F89  1E008000           [51] return     0   1      
                         * constants:
1F8D  06                 sizek (6)
1F8E  01                 const type 3
1F8F  85B1BBB4           const [0]: (-1262767739)
1F93  01                 const type 3
1F94  65770E40           const [1]: (1074689893)
1F98  04                 const type 4
1F99  12                 string size (18)
1F9A  674261636B67726F+  "gBackgro"
1FA2  756E64526567696F+  "undRegio"
1FAA  6E00               "n\0"
                         const [2]: "gBackgroundRegion"
1FAC  03                 const type 3
1FAD  0000803F           const [3]: (0)
1FB1  01                 const type 3
1FB2  87380A9B           const [4]: (-1693828985)
1FB6  04                 const type 4
1FB7  03                 string size (3)
1FB8  5F5400             "_T\0"
                         const [5]: "_T"
                         * functions:
1FBB  00                 sizep (0)
                         * lines:
1FBC  33                 sizelineinfo (51)
                         [pc] (line)
1FBD  09                 [01] (9)
1FBE  01                 [02] (9)
1FBF  00                 [03] (10)
1FC0  00                 [04] (10)
1FC1  09                 [05] (10)
1FC2  01                 [06] (10)
1FC3  00                 [07] (12)
1FC4  00                 [08] (12)
1FC5  0A                 [09] (12)
1FC6  01                 [10] (12)
1FC7  00                 [11] (12)
1FC8  00                 [12] (13)
1FC9  0A                 [13] (13)
1FCA  01                 [14] (13)
1FCB  00                 [15] (13)
1FCC  00                 [16] (13)
1FCD  0A                 [17] (14)
1FCE  01                 [18] (14)
1FCF  00                 [19] (14)
1FD0  00                 [20] (14)
1FD1  0A                 [21] (14)
1FD2  01                 [22] (13)
1FD3  00                 [23] (16)
1FD4  00                 [24] (16)
1FD5  0C                 [25] (19)
1FD6  01                 [26] (19)
1FD7  00                 [27] (19)
1FD8  00                 [28] (19)
1FD9  0C                 [29] (19)
1FDA  01                 [30] (19)
1FDB  00                 [31] (19)
1FDC  00                 [32] (19)
1FDD  0C                 [33] (19)
1FDE  01                 [34] (19)
1FDF  00                 [35] (19)
1FE0  00                 [36] (19)
1FE1  0C                 [37] (19)
1FE2  01                 [38] (19)
1FE3  00                 [39] (19)
1FE4  00                 [40] (19)
1FE5  0C                 [41] (19)
1FE6  01                 [42] (19)
1FE7  00                 [43] (19)
1FE8  00                 [44] (19)
1FE9  0D                 [45] (19)
1FEA  01                 [46] (19)
1FEB  00                 [47] (20)
1FEC  00                 [48] (20)
1FED  0D                 [49] (20)
1FEE  01                 [50] (20)
1FEF  00                 [51] (22)
                         * locals:
2089  00                 sizelocvars (0)
                         * upvalues:
208A  00                 sizeupvalues (0)
                         ** end of function **

                         
208B                     ** function [12] definition (level 2)
                         ** start of function **
208B  00                 string size (0)
                         source name: (none)
208D  02                 line defined (280)
208E  9C                 last line defined (284)
208F  02                 nups (2)
2090  02                 numparams (0)
2091  00                 is_vararg (0)
2092  00                 maxstacksize (2)
                         * code:
2094  06                 sizecode (6)
2095  13000000           [1] getupval   0   0      
2099  18400000           [2] test       0       1    ; to [4] if false
209D  1A400080           [3] jmp        2            ; to [6]
20A1  13008000           [4] getupval   0   1      
20A5  22408000           [5] call       0   1   1  
20A9  1E008000           [6] return     0   1      
                         * constants:
20AD  00                 sizek (0)
                         * functions:
20AE  00                 sizep (0)
                         * lines:
20AF  06                 sizelineinfo (6)
                         [pc] (line)
20B0  19                 [1] (25)
20B1  01                 [2] (25)
20B2  00                 [3] (25)
20B3  00                 [4] (26)
20B4  19                 [5] (26)
20B5  01                 [6] (28)
                         * locals:
20C8  00                 sizelocvars (0)
                         * upvalues:
20C9  00                 sizeupvalues (0)
                         ** end of function **

                         
20CA                     ** function [13] definition (level 2)
                         ** start of function **
20CA  00                 string size (0)
                         source name: (none)
20CC  02                 line defined (286)
20CD  B7                 last line defined (311)
20CE  02                 nups (10)
20CF  0A                 numparams (0)
20D0  00                 is_vararg (0)
20D1  00                 maxstacksize (9)
                         * code:
20D3  22                 sizecode (34)
20D4  17008000           [01] loadbool   0   1   0    ; true
fail op	8
20D8  08000000           [02] setupval   0   0      
20DC  13008000           [03] getupval   0   1      
20E0  0E004000           [04] gettable   0   0   256  ; 630793108
20E4  5D400000           [05] getglobal  1   1        ; _G
20E8  4E80C000           [06] gettable   1   1   258  ; "UISound_Close"
20EC  22400001           [07] call       0   2   1  
20F0  13000001           [08] getupval   0   2      
20F4  18400000           [09] test       0       1    ; to [11] if false
20F8  1A400080           [10] jmp        2            ; to [13]
20FC  13008001           [11] getupval   0   3      
2100  22408000           [12] call       0   1   1  
2104  1DC00000           [13] getglobal  0   3        ; 1390508688
2108  5D000100           [14] getglobal  1   4        ; mMovie
210C  99400100           [15] loadk      2   5        ; "_root"
2110  DD800100           [16] getglobal  3   6        ; UISys
2114  CEC0C101           [17] gettable   3   3   263  ; "FlashInstance_LINEAR"
2118  0B018000           [18] newtable   4   1   0    ; array=1, hash=0
211C  59010200           [19] loadk      5   8        ; "_alpha"
2120  1B418000           [20] setlist    4   1   1    ; index 1 to 1
2124  4B018000           [21] newtable   5   1   0    ; array=1, hash=0
2128  99410200           [22] loadk      6   9        ; 0
212C  5B418000           [23] setlist    5   1   1    ; index 1 to 1
2130  99810200           [24] loadk      6   10       ; 0
2134  D9410200           [25] loadk      7   9        ; 0
2138  25020000           [26] closure    8   0      
213C  13000002           [27] getupval   0   4      
2140  13008002           [28] getupval   0   5      
2144  13000003           [29] getupval   0   6      
2148  13008003           [30] getupval   0   7      
214C  13000004           [31] getupval   0   8      
2150  13008004           [32] getupval   0   9      
2154  22408004           [33] call       0   9   1  
2158  1E008000           [34] return     0   1      
                         * constants:
215C  0B                 sizek (11)
215D  01                 const type 3
215E  94239925           const [0]: (630793108)
2162  04                 const type 4
2163  03                 string size (3)
2164  5F4700             "_G\0"
                         const [1]: "_G"
2167  04                 const type 4
2168  0E                 string size (14)
2169  5549536F756E645F+  "UISound_"
2171  436C6F736500       "Close\0"
                         const [2]: "UISound_Close"
2177  01                 const type 3
2178  907AE152           const [3]: (1390508688)
217C  04                 const type 4
217D  07                 string size (7)
217E  6D4D6F76696500     "mMovie\0"
                         const [4]: "mMovie"
2185  04                 const type 4
2186  06                 string size (6)
2187  5F726F6F7400       "_root\0"
                         const [5]: "_root"
218D  04                 const type 4
218E  06                 string size (6)
218F  554953797300       "UISys\0"
                         const [6]: "UISys"
2195  04                 const type 4
2196  15                 string size (21)
2197  466C617368496E73+  "FlashIns"
219F  74616E63655F4C49+  "tance_LI"
21A7  4E45415200         "NEAR\0"
                         const [7]: "FlashInstance_LINEAR"
21AC  04                 const type 4
21AD  07                 string size (7)
21AE  5F616C70686100     "_alpha\0"
                         const [8]: "_alpha"
21B5  03                 const type 3
21B6  00000000           const [9]: (0)
21BA  03                 const type 3
21BB  0000803E           const [10]: (0)
                         * functions:
21BF  01                 sizep (1)
                         
21C0                     ** function [0] definition (level 3)
                         ** start of function **
21C0  00                 string size (0)
                         source name: (none)
21C2  02                 line defined (295)
21C3  B5                 last line defined (309)
21C4  02                 nups (6)
21C5  06                 numparams (0)
21C6  00                 is_vararg (0)
21C7  00                 maxstacksize (3)
                         * code:
21C9  4D                 sizecode (77)
21CA  13000000           [01] getupval   0   0      
21CE  18000000           [02] test       0       0    ; to [4] if true
21D2  1A800780           [03] jmp        31           ; to [35]
21D6  1D000000           [04] getglobal  0   0        ; 1074689893
21DA  53008000           [05] getupval   1   1      
21DE  22800001           [06] call       0   2   2  
21E2  18400000           [07] test       0       1    ; to [9] if false
21E6  1A400680           [08] jmp        26           ; to [35]
21EA  1D000000           [09] getglobal  0   0        ; 1074689893
21EE  5D400000           [10] getglobal  1   1        ; _T
21F2  93008000           [11] getupval   2   1      
21F6  4E808000           [12] gettable   1   1   2  
21FA  22800001           [13] call       0   2   2  
21FE  18400000           [14] test       0       1    ; to [16] if false
2202  1A800480           [15] jmp        19           ; to [35]
2206  1D000000           [16] getglobal  0   0        ; 1074689893
220A  5D400000           [17] getglobal  1   1        ; _T
220E  4E80C000           [18] gettable   1   1   258  ; "DojoMgr"
2212  22800001           [19] call       0   2   2  
2216  18400000           [20] test       0       1    ; to [22] if false
221A  1A800180           [21] jmp        7            ; to [29]
221E  1D400000           [22] getglobal  0   1        ; _T
2222  53008000           [23] getupval   1   1      
2226  0E400000           [24] gettable   0   0   1  
222A  53000000           [25] getupval   1   0      
222E  93000001           [26] getupval   2   2      
2232  22408001           [27] call       0   3   1  
2236  1A800A80           [28] jmp        43           ; to [72]
223A  1D400000           [29] getglobal  0   1        ; _T
223E  53008000           [30] getupval   1   1      
2242  0E400000           [31] gettable   0   0   1  
2246  53000000           [32] getupval   1   0      
224A  22400001           [33] call       0   2   1  
224E  1A000980           [34] jmp        37           ; to [72]
2252  13008001           [35] getupval   0   3      
2256  18000000           [36] test       0       0    ; to [38] if true
225A  1A400480           [37] jmp        18           ; to [56]
225E  1D000000           [38] getglobal  0   0        ; 1074689893
2262  53000002           [39] getupval   1   4      
2266  22800001           [40] call       0   2   2  
226A  18400000           [41] test       0       1    ; to [43] if false
226E  1A000380           [42] jmp        13           ; to [56]
2272  1D000000           [43] getglobal  0   0        ; 1074689893
2276  5D400000           [44] getglobal  1   1        ; _T
227A  93000002           [45] getupval   2   4      
227E  4E808000           [46] gettable   1   1   2  
2282  22800001           [47] call       0   2   2  
2286  18400000           [48] test       0       1    ; to [50] if false
228A  1A400180           [49] jmp        6            ; to [56]
228E  1D400000           [50] getglobal  0   1        ; _T
2292  53000002           [51] getupval   1   4      
2296  0E400000           [52] gettable   0   0   1  
229A  53008001           [53] getupval   1   3      
229E  22400001           [54] call       0   2   1  
22A2  1AC00380           [55] jmp        16           ; to [72]
22A6  1D000000           [56] getglobal  0   0        ; 1074689893
22AA  53008002           [57] getupval   1   5      
22AE  22800001           [58] call       0   2   2  
22B2  18400000           [59] test       0       1    ; to [61] if false
22B6  1A800280           [60] jmp        11           ; to [72]
22BA  1D000000           [61] getglobal  0   0        ; 1074689893
22BE  5D400000           [62] getglobal  1   1        ; _T
22C2  93008002           [63] getupval   2   5      
22C6  4E808000           [64] gettable   1   1   2  
22CA  22800001           [65] call       0   2   2  
22CE  18400000           [66] test       0       1    ; to [68] if false
22D2  1AC00080           [67] jmp        4            ; to [72]
22D6  1D400000           [68] getglobal  0   1        ; _T
22DA  53008002           [69] getupval   1   5      
22DE  0E400000           [70] gettable   0   0   1  
22E2  22408000           [71] call       0   1   1  
22E6  1D400000           [72] getglobal  0   1        ; _T
22EA  0C00C181           [73] settable   0   259 260  ; "DecoTemplatePreviewOpen" 0
22EE  1D400100           [74] getglobal  0   5        ; mMovie
22F2  24804100           [75] self       0   0   262  ; -1517569684
22F6  22400001           [76] call       0   2   1  
22FA  1E008000           [77] return     0   1      
                         * constants:
22FE  07                 sizek (7)
22FF  01                 const type 3
2300  65770E40           const [0]: (1074689893)
2304  04                 const type 4
2305  03                 string size (3)
2306  5F5400             "_T\0"
                         const [1]: "_T"
2309  04                 const type 4
230A  08                 string size (8)
230B  446F6A6F4D677200   "DojoMgr\0"
                         const [2]: "DojoMgr"
2313  04                 const type 4
2314  18                 string size (24)
2315  4465636F54656D70+  "DecoTemp"
231D  6C61746550726576+  "latePrev"
2325  6965774F70656E00   "iewOpen\0"
                         const [3]: "DecoTemplatePreviewOpen"
232D  01                 const type 3
232E  00000000           const [4]: (0)
2332  04                 const type 4
2333  07                 string size (7)
2334  6D4D6F76696500     "mMovie\0"
                         const [5]: "mMovie"
233B  01                 const type 3
233C  6CB98BA5           const [6]: (-1517569684)
                         * functions:
2340  00                 sizep (0)
                         * lines:
2341  4D                 sizelineinfo (77)
                         [pc] (line)
2342  28                 [01] (40)
2343  01                 [02] (40)
2344  00                 [03] (40)
2345  00                 [04] (40)
2346  28                 [05] (40)
2347  01                 [06] (40)
2348  00                 [07] (40)
2349  00                 [08] (40)
234A  28                 [09] (40)
234B  01                 [10] (40)
234C  00                 [11] (40)
234D  00                 [12] (40)
234E  28                 [13] (40)
234F  01                 [14] (40)
2350  00                 [15] (40)
2351  00                 [16] (41)
2352  28                 [17] (41)
2353  01                 [18] (41)
2354  00                 [19] (41)
2355  00                 [20] (41)
2356  28                 [21] (41)
2357  01                 [22] (42)
2358  00                 [23] (42)
2359  00                 [24] (42)
235A  28                 [25] (42)
235B  01                 [26] (42)
235C  00                 [27] (42)
235D  00                 [28] (42)
235E  28                 [29] (44)
235F  01                 [30] (44)
2360  00                 [31] (44)
2361  00                 [32] (44)
2362  28                 [33] (44)
2363  01                 [34] (45)
2364  00                 [35] (46)
2365  00                 [36] (46)
2366  28                 [37] (46)
2367  01                 [38] (46)
2368  00                 [39] (46)
2369  00                 [40] (46)
236A  28                 [41] (46)
236B  01                 [42] (46)
236C  00                 [43] (46)
236D  00                 [44] (46)
236E  28                 [45] (46)
236F  01                 [46] (46)
2370  00                 [47] (46)
2371  00                 [48] (46)
2372  28                 [49] (46)
2373  01                 [50] (47)
2374  00                 [51] (47)
2375  00                 [52] (47)
2376  28                 [53] (47)
2377  01                 [54] (47)
2378  00                 [55] (47)
2379  00                 [56] (48)
237A  28                 [57] (48)
237B  01                 [58] (48)
237C  00                 [59] (48)
237D  00                 [60] (48)
237E  29                 [61] (48)
237F  01                 [62] (48)
2380  00                 [63] (48)
2381  00                 [64] (48)
2382  29                 [65] (48)
2383  01                 [66] (48)
2384  00                 [67] (48)
2385  00                 [68] (49)
2386  29                 [69] (49)
2387  01                 [70] (49)
2388  00                 [71] (49)
2389  00                 [72] (51)
238A  29                 [73] (51)
238B  01                 [74] (52)
238C  00                 [75] (52)
238D  00                 [76] (52)
238E  29                 [77] (53)
                         * locals:
2476  00                 sizelocvars (0)
                         * upvalues:
2477  00                 sizeupvalues (0)
                         ** end of function **

                         * lines:
2478  22                 sizelineinfo (34)
                         [pc] (line)
2479  1F                 [01] (31)
247A  01                 [02] (31)
247B  00                 [03] (32)
247C  00                 [04] (32)
247D  1F                 [05] (32)
247E  01                 [06] (32)
247F  00                 [07] (32)
2480  00                 [08] (34)
2481  20                 [09] (34)
2482  01                 [10] (34)
2483  00                 [11] (35)
2484  00                 [12] (35)
2485  20                 [13] (38)
2486  01                 [14] (38)
2487  00                 [15] (38)
2488  00                 [16] (38)
2489  20                 [17] (38)
248A  01                 [18] (38)
248B  00                 [19] (38)
248C  00                 [20] (38)
248D  20                 [21] (38)
248E  01                 [22] (38)
248F  00                 [23] (38)
2490  00                 [24] (38)
2491  20                 [25] (38)
2492  01                 [26] (53)
2493  00                 [27] (53)
2494  00                 [28] (53)
2495  22                 [29] (53)
2496  01                 [30] (53)
2497  00                 [31] (53)
2498  00                 [32] (53)
2499  22                 [33] (38)
249A  01                 [34] (55)
                         * locals:
2501  00                 sizelocvars (0)
                         * upvalues:
2502  00                 sizeupvalues (0)
                         ** end of function **

                         
2503                     ** function [14] definition (level 2)
                         ** start of function **
2503  00                 string size (0)
                         source name: (none)
2505  02                 line defined (313)
2506  BC                 last line defined (316)
2507  02                 nups (0)
2508  00                 numparams (1)
2509  01                 is_vararg (0)
250A  00                 maxstacksize (2)
                         * code:
250C  05                 sizecode (5)
250D  5D000000           [1] getglobal  1   0        ; _T
2511  4C008080           [2] settable   1   257 0    ; "mTrigger"
2515  57008000           [3] loadbool   1   1   0    ; true
2519  5E000001           [4] return     1   2      
251D  1E008000           [5] return     0   1      
                         * constants:
2521  02                 sizek (2)
2522  04                 const type 4
2523  03                 string size (3)
2524  5F5400             "_T\0"
                         const [0]: "_T"
2527  04                 const type 4
2528  09                 string size (9)
2529  6D54726967676572+  "mTrigger"
2531  00                 "\0"
                         const [1]: "mTrigger"
                         * functions:
2532  00                 sizep (0)
                         * lines:
2533  05                 sizelineinfo (5)
                         [pc] (line)
2534  3A                 [1] (58)
2535  01                 [2] (58)
2536  00                 [3] (59)
2537  00                 [4] (59)
2538  3A                 [5] (60)
                         * locals:
2548  00                 sizelocvars (0)
                         * upvalues:
2549  00                 sizeupvalues (0)
                         ** end of function **

                         
254A                     ** function [15] definition (level 2)
                         ** start of function **
254A  00                 string size (0)
                         source name: (none)
254C  02                 line defined (318)
254D  CD                 last line defined (333)
254E  02                 nups (7)
254F  07                 numparams (0)
2550  00                 is_vararg (0)
2551  00                 maxstacksize (4)
                         * code:
2553  24                 sizecode (36)
2554  1D000000           [01] getglobal  0   0        ; 1074689893
2558  53000000           [02] getupval   1   0      
255C  93008000           [03] getupval   2   1      
2560  4E808000           [04] gettable   1   1   2  
2564  22800001           [05] call       0   2   2  
2568  18400000           [06] test       0       1    ; to [8] if false
256C  1A800180           [07] jmp        7            ; to [15]
2570  13000001           [08] getupval   0   2      
2574  46008000           [09] loadnil    1   1      
2578  93000000           [10] getupval   2   0      
257C  D3008000           [11] getupval   3   1      
2580  8EC00001           [12] gettable   2   2   3  
2584  D7000000           [13] loadbool   3   0   0    ; false
2588  22400002           [14] call       0   4   1  
258C  1D400000           [15] getglobal  0   1        ; _T
2590  0E804000           [16] gettable   0   0   258  ; -270549122
2594  5DC00000           [17] getglobal  1   3        ; mMovie
2598  86000001           [18] loadnil    2   2      
259C  22408001           [19] call       0   3   1  
25A0  13008001           [20] getupval   0   3      
25A4  18000000           [21] test       0       0    ; to [23] if true
25A8  1A800280           [22] jmp        11           ; to [34]
25AC  06000000           [23] loadnil    0   0      
fail op	8
25B0  08008001           [24] setupval   0   3      
25B4  19000100           [25] loadk      0   4        ; 0
fail op	8
25B8  08000002           [26] setupval   0   4      
25BC  13008002           [27] getupval   0   5      
25C0  5D400100           [28] getglobal  1   5        ; 1289681407
25C4  62008000           [29] call       1   1   0  
25C8  22400000           [30] call       0   0   1  
25CC  1D800100           [31] getglobal  0   6        ; gFlashMgr
25D0  24C04100           [32] self       0   0   263  ; -991492797
25D4  22400001           [33] call       0   2   1  
25D8  13000003           [34] getupval   0   6      
25DC  22408000           [35] call       0   1   1  
25E0  1E008000           [36] return     0   1      
                         * constants:
25E4  08                 sizek (8)
25E5  01                 const type 3
25E6  65770E40           const [0]: (1074689893)
25EA  04                 const type 4
25EB  03                 string size (3)
25EC  5F5400             "_T\0"
                         const [1]: "_T"
25EF  01                 const type 3
25F0  7EBFDFEF           const [2]: (-270549122)
25F4  04                 const type 4
25F5  07                 string size (7)
25F6  6D4D6F76696500     "mMovie\0"
                         const [3]: "mMovie"
25FD  03                 const type 3
25FE  000080BF           const [4]: (0)
2602  01                 const type 3
2603  FFF9DE4C           const [5]: (1289681407)
2607  04                 const type 4
2608  0A                 string size (10)
2609  67466C6173684D67+  "gFlashMg"
2611  7200               "r\0"
                         const [6]: "gFlashMgr"
2613  01                 const type 3
2614  4305E7C4           const [7]: (-991492797)
                         * functions:
2618  00                 sizep (0)
                         * lines:
2619  24                 sizelineinfo (36)
                         [pc] (line)
261A  3F                 [01] (63)
261B  01                 [02] (63)
261C  00                 [03] (63)
261D  00                 [04] (63)
261E  3F                 [05] (63)
261F  01                 [06] (63)
2620  00                 [07] (63)
2621  00                 [08] (64)
2622  3F                 [09] (64)
2623  01                 [10] (64)
2624  00                 [11] (64)
2625  00                 [12] (64)
2626  3F                 [13] (64)
2627  01                 [14] (64)
2628  00                 [15] (67)
2629  00                 [16] (67)
262A  3F                 [17] (67)
262B  01                 [18] (67)
262C  00                 [19] (67)
262D  00                 [20] (68)
262E  3F                 [21] (68)
262F  01                 [22] (68)
2630  00                 [23] (69)
2631  00                 [24] (69)
2632  3F                 [25] (70)
2633  01                 [26] (70)
2634  00                 [27] (72)
2635  00                 [28] (72)
2636  40                 [29] (72)
2637  01                 [30] (72)
2638  00                 [31] (73)
2639  00                 [32] (73)
263A  40                 [33] (73)
263B  01                 [34] (76)
263C  00                 [35] (76)
263D  00                 [36] (77)
                         * locals:
26AA  00                 sizelocvars (0)
                         * upvalues:
26AB  00                 sizeupvalues (0)
                         ** end of function **

                         
26AC                     ** function [16] definition (level 2)
                         ** start of function **
26AC  00                 string size (0)
                         source name: (none)
26AE  02                 line defined (335)
26AF  D1                 last line defined (337)
26B0  02                 nups (1)
26B1  01                 numparams (0)
26B2  00                 is_vararg (0)
26B3  00                 maxstacksize (2)
                         * code:
26B5  03                 sizecode (3)
26B6  13000000           [1] getupval   0   0      
26BA  22408000           [2] call       0   1   1  
26BE  1E008000           [3] return     0   1      
                         * constants:
26C2  00                 sizek (0)
                         * functions:
26C3  00                 sizep (0)
                         * lines:
26C4  03                 sizelineinfo (3)
                         [pc] (line)
26C5  50                 [1] (80)
26C6  01                 [2] (80)
26C7  00                 [3] (81)
                         * locals:
26D1  00                 sizelocvars (0)
                         * upvalues:
26D2  00                 sizeupvalues (0)
                         ** end of function **

                         
26D3                     ** function [17] definition (level 2)
                         ** start of function **
26D3  00                 string size (0)
                         source name: (none)
26D5  02                 line defined (339)
26D6  DC                 last line defined (348)
26D7  02                 nups (4)
26D8  04                 numparams (1)
26D9  01                 is_vararg (0)
26DA  00                 maxstacksize (7)
                         * code:
26DC  13                 sizecode (19)
26DD  53000000           [01] getupval   1   0      
26E1  4E00C000           [02] gettable   1   1   256  ; 630793108
26E5  9D400000           [03] getglobal  2   1        ; _G
26E9  8E804001           [04] gettable   2   2   258  ; "UISound_Select"
26ED  62400001           [05] call       1   2   1  
26F1  46008000           [06] loadnil    1   1      
26F5  93008000           [07] getupval   2   1      
26F9  D3000001           [08] getupval   3   2      
26FD  8EC00001           [09] gettable   2   2   3  
fail op	8
2701  08000001           [10] setupval   0   2      
2705  D3008000           [11] getupval   3   1      
2709  13010001           [12] getupval   4   2      
270D  4E008101           [13] gettable   1   3   4  
2711  D3008001           [14] getupval   3   3      
2715  12018000           [15] move       4   1      
2719  52010001           [16] move       5   2      
271D  97010000           [17] loadbool   6   0   0    ; false
2721  E2400002           [18] call       3   4   1  
2725  1E008000           [19] return     0   1      
                         * constants:
2729  03                 sizek (3)
272A  01                 const type 3
272B  94239925           const [0]: (630793108)
272F  04                 const type 4
2730  03                 string size (3)
2731  5F4700             "_G\0"
                         const [1]: "_G"
2734  04                 const type 4
2735  0F                 string size (15)
2736  5549536F756E645F+  "UISound_"
273E  53656C65637400     "Select\0"
                         const [2]: "UISound_Select"
                         * functions:
2745  00                 sizep (0)
                         * lines:
2746  13                 sizelineinfo (19)
                         [pc] (line)
2747  54                 [01] (84)
2748  01                 [02] (84)
2749  00                 [03] (84)
274A  00                 [04] (84)
274B  54                 [05] (84)
274C  01                 [06] (86)
274D  00                 [07] (87)
274E  00                 [08] (87)
274F  54                 [09] (87)
2750  01                 [10] (88)
2751  00                 [11] (90)
2752  00                 [12] (90)
2753  54                 [13] (90)
2754  01                 [14] (91)
2755  00                 [15] (91)
2756  00                 [16] (91)
2757  54                 [17] (91)
2758  01                 [18] (91)
2759  00                 [19] (92)
                         * locals:
2793  00                 sizelocvars (0)
                         * upvalues:
2794  00                 sizeupvalues (0)
                         ** end of function **

                         
2795                     ** function [18] definition (level 2)
                         ** start of function **
2795  00                 string size (0)
                         source name: (none)
2797  02                 line defined (350)
2798  E0                 last line defined (352)
2799  02                 nups (1)
279A  01                 numparams (1)
279B  01                 is_vararg (0)
279C  00                 maxstacksize (3)
                         * code:
279E  04                 sizecode (4)
279F  53000000           [1] getupval   1   0      
27A3  92000000           [2] move       2   0      
27A7  62400001           [3] call       1   2   1  
27AB  1E008000           [4] return     0   1      
                         * constants:
27AF  00                 sizek (0)
                         * functions:
27B0  00                 sizep (0)
                         * lines:
27B1  04                 sizelineinfo (4)
                         [pc] (line)
27B2  5F                 [1] (95)
27B3  01                 [2] (95)
27B4  00                 [3] (95)
27B5  00                 [4] (96)
                         * locals:
27C2  00                 sizelocvars (0)
                         * upvalues:
27C3  00                 sizeupvalues (0)
                         ** end of function **

                         
27C4                     ** function [19] definition (level 2)
                         ** start of function **
27C4  00                 string size (0)
                         source name: (none)
27C6  02                 line defined (354)
27C7  F8                 last line defined (376)
27C8  02                 nups (6)
27C9  06                 numparams (0)
27CA  00                 is_vararg (0)
27CB  00                 maxstacksize (12)
                         * code:
27CD  49                 sizecode (73)
27CE  1D000000           [01] getglobal  0   0        ; 1074689893
27D2  53000000           [02] getupval   1   0      
27D6  22800001           [03] call       0   2   2  
27DA  18400000           [04] test       0       1    ; to [6] if false
27DE  1A801080           [05] jmp        67           ; to [73]
27E2  13000000           [06] getupval   0   0      
27E6  24404000           [07] self       0   0   257  ; -63725693
27EA  22800001           [08] call       0   2   2  
27EE  5D000000           [09] getglobal  1   0        ; 1074689893
27F2  92000000           [10] move       2   0      
27F6  62800001           [11] call       1   2   2  
27FA  58400000           [12] test       1       1    ; to [14] if false
27FE  1A000780           [13] jmp        29           ; to [43]
2802  53008000           [14] getupval   1   1      
2806  6480C000           [15] self       1   1   258  ; -988128099
280A  62800001           [16] call       1   2   2  
280E  43C0C000           [17] add        1   1   259  ; 0
2812  8A000000           [18] len        2   0      
2816  D9C00000           [19] loadk      3   3        ; 0
281A  50C00480           [20] forprep    1   20       ; to [41]
281E  4E010100           [21] gettable   5   0   4  
2822  8B810000           [22] newtable   6   0   2    ; array=0, hash=2
2826  E441C102           [23] self       7   5   261  ; 1288286795
282A  E2810001           [24] call       7   2   2  
282E  8CC10182           [25] settable   6   260 7    ; "id"
2832  E4C1C102           [26] self       7   5   263  ; 880936306
2836  E2810001           [27] call       7   2   2  
283A  8CC10183           [28] settable   6   262 7    ; "name"
283E  D3018000           [29] getupval   7   1      
2842  E401C203           [30] self       7   7   264  ; -1484936978
2846  4B020100           [31] newtable   9   0   4    ; array=0, hash=4
284A  4C028184           [32] settable   9   265 4    ; "ImprintId"
284E  8E024103           [33] gettable   10  6   260  ; "id"
2852  4C820282           [34] settable   9   260 10   ; "id"
2856  8E824103           [35] gettable   10  6   262  ; "name"
285A  4C820285           [36] settable   9   266 10   ; "LocTag"
285E  8E824103           [37] gettable   10  6   262  ; "name"
2862  4C828285           [38] settable   9   267 10   ; "Name"
2866  97028000           [39] loadbool   10  1   0    ; true
286A  E2410002           [40] call       7   4   1  
286E  5480FA7F           [41] forloop    1   -21      ; to [21] if loop
2872  1A000580           [42] jmp        21           ; to [64]
2876  D7010000           [43] loadbool   7   0   0    ; false
fail op	8
287A  C8010001           [44] setupval   7   2      
287E  D3018001           [45] getupval   7   3      
2882  E401C303           [46] self       7   7   268  ; -492641364
2886  57020000           [47] loadbool   9   0   0    ; false
288A  E2418001           [48] call       7   3   1  
288E  D3010002           [49] getupval   7   4      
2892  D8010000           [50] test       7       0    ; to [52] if true
2896  1A800080           [51] jmp        3            ; to [55]
289A  D7010000           [52] loadbool   7   0   0    ; false
fail op	8
289E  C8010002           [53] setupval   7   4      
28A2  1A000280           [54] jmp        9            ; to [64]
28A6  D3018002           [55] getupval   7   5      
28AA  CE41C303           [56] gettable   7   7   269  ; 185724978
28AE  1D820300           [57] getglobal  8   14       ; mMovie
28B2  24C24304           [58] self       8   8   271  ; 98241492
28B6  99020400           [59] loadk      10  16       ; "/Lotus/Language/Dojo/DecoTemplatesEmpty"
28BA  D7020000           [60] loadbool   11  0   0    ; false
28BE  22820002           [61] call       8   4   2  
28C2  59420400           [62] loadk      9   17       ; "Close"
28C6  E2418001           [63] call       7   3   1  
28CA  D3018000           [64] getupval   7   1      
28CE  E481C403           [65] self       7   7   274  ; 1685109492
28D2  46028004           [66] loadnil    9   9      
28D6  97028000           [67] loadbool   10  1   0    ; true
28DA  D7028000           [68] loadbool   11  1   0    ; true
28DE  E2418002           [69] call       7   5   1  
28E2  D3018000           [70] getupval   7   1      
28E6  E4C1C403           [71] self       7   7   275  ; -257971548
28EA  E2410001           [72] call       7   2   1  
28EE  1E008000           [73] return     0   1      
                         * constants:
28F2  14                 sizek (20)
28F3  01                 const type 3
28F4  65770E40           const [0]: (1074689893)
28F8  01                 const type 3
28F9  839F33FC           const [1]: (-63725693)
28FD  01                 const type 3
28FE  9D5C1AC5           const [2]: (-988128099)
2902  03                 const type 3
2903  0000803F           const [3]: (0)
2907  04                 const type 4
2908  03                 string size (3)
2909  696400             "id\0"
                         const [4]: "id"
290C  01                 const type 3
290D  4BB2C94C           const [5]: (1288286795)
2911  04                 const type 4
2912  05                 string size (5)
2913  6E616D6500         "name\0"
                         const [6]: "name"
2918  01                 const type 3
2919  72058234           const [7]: (880936306)
291D  01                 const type 3
291E  EEA87DA7           const [8]: (-1484936978)
2922  04                 const type 4
2923  0A                 string size (10)
2924  496D7072696E7449+  "ImprintI"
292C  6400               "d\0"
                         const [9]: "ImprintId"
292E  04                 const type 4
292F  07                 string size (7)
2930  4C6F6354616700     "LocTag\0"
                         const [10]: "LocTag"
2937  04                 const type 4
2938  05                 string size (5)
2939  4E616D6500         "Name\0"
                         const [11]: "Name"
293E  01                 const type 3
293F  ACE3A2E2           const [12]: (-492641364)
2943  01                 const type 3
2944  32F0110B           const [13]: (185724978)
2948  04                 const type 4
2949  07                 string size (7)
294A  6D4D6F76696500     "mMovie\0"
                         const [14]: "mMovie"
2951  01                 const type 3
2952  D40BDB05           const [15]: (98241492)
2956  04                 const type 4
2957  28                 string size (40)
2958  2F4C6F7475732F4C+  "/Lotus/L"
2960  616E67756167652F+  "anguage/"
2968  446F6A6F2F446563+  "Dojo/Dec"
2970  6F54656D706C6174+  "oTemplat"
2978  6573456D70747900   "esEmpty\0"
                         const [16]: "/Lotus/Language/Dojo/DecoTemplatesEmpty"
2980  04                 const type 4
2981  06                 string size (6)
2982  436C6F736500       "Close\0"
                         const [17]: "Close"
2988  01                 const type 3
2989  F4BA7064           const [18]: (1685109492)
298D  01                 const type 3
298E  A4AA9FF0           const [19]: (-257971548)
                         * functions:
2992  00                 sizep (0)
                         * lines:
2993  49                 sizelineinfo (73)
                         [pc] (line)
2994  63                 [01] (99)
2995  01                 [02] (99)
2996  00                 [03] (99)
2997  00                 [04] (99)
2998  63                 [05] (99)
2999  01                 [06] (100)
299A  00                 [07] (100)
299B  00                 [08] (100)
299C  63                 [09] (101)
299D  01                 [10] (101)
299E  00                 [11] (101)
299F  00                 [12] (101)
29A0  63                 [13] (101)
29A1  01                 [14] (102)
29A2  00                 [15] (102)
29A3  00                 [16] (102)
29A4  63                 [17] (102)
29A5  01                 [18] (102)
29A6  00                 [19] (102)
29A7  00                 [20] (102)
29A8  64                 [21] (103)
29A9  01                 [22] (104)
29AA  00                 [23] (104)
29AB  00                 [24] (104)
29AC  64                 [25] (104)
29AD  01                 [26] (104)
29AE  00                 [27] (104)
29AF  00                 [28] (104)
29B0  64                 [29] (105)
29B1  01                 [30] (105)
29B2  00                 [31] (105)
29B3  00                 [32] (105)
29B4  65                 [33] (105)
29B5  01                 [34] (105)
29B6  00                 [35] (105)
29B7  00                 [36] (105)
29B8  65                 [37] (105)
29B9  01                 [38] (105)
29BA  00                 [39] (105)
29BB  00                 [40] (105)
29BC  65                 [41] (102)
29BD  01                 [42] (106)
29BE  00                 [43] (108)
29BF  00                 [44] (108)
29C0  65                 [45] (109)
29C1  01                 [46] (109)
29C2  00                 [47] (109)
29C3  00                 [48] (109)
29C4  65                 [49] (110)
29C5  01                 [50] (110)
29C6  00                 [51] (110)
29C7  00                 [52] (111)
29C8  66                 [53] (111)
29C9  01                 [54] (111)
29CA  00                 [55] (113)
29CB  00                 [56] (113)
29CC  66                 [57] (113)
29CD  01                 [58] (113)
29CE  00                 [59] (113)
29CF  00                 [60] (113)
29D0  66                 [61] (113)
29D1  01                 [62] (113)
29D2  00                 [63] (113)
29D3  00                 [64] (117)
29D4  66                 [65] (117)
29D5  01                 [66] (117)
29D6  00                 [67] (117)
29D7  00                 [68] (117)
29D8  66                 [69] (117)
29D9  01                 [70] (118)
29DA  00                 [71] (118)
29DB  00                 [72] (118)
29DC  66                 [73] (120)
                         * locals:
2AB8  00                 sizelocvars (0)
                         * upvalues:
2AB9  00                 sizeupvalues (0)
                         ** end of function **

                         
2ABA                     ** function [20] definition (level 2)
                         ** start of function **
2ABA  00                 string size (0)
                         source name: (none)
2ABC  02                 line defined (378)
2ABD  A8                 last line defined (424)
2ABE  03                 nups (6)
2ABF  06                 numparams (0)
2AC0  00                 is_vararg (0)
2AC1  00                 maxstacksize (9)
                         * code:
2AC3  5E                 sizecode (94)
2AC4  1D000000           [01] getglobal  0   0        ; 1074689893
2AC8  53000000           [02] getupval   1   0      
2ACC  22800001           [03] call       0   2   2  
2AD0  18400000           [04] test       0       1    ; to [6] if false
2AD4  1AC00080           [05] jmp        4            ; to [10]
2AD8  13000000           [06] getupval   0   0      
2ADC  0E404000           [07] gettable   0   0   257  ; "mFocusedMenuElement"
fail op	35
2AE0  23804000           [08] close      0  
2AE4  1A000080           [09] jmp        1            ; to [11]
2AE8  1E008000           [10] return     0   1      
2AEC  13000000           [11] getupval   0   0      
2AF0  0E404000           [12] gettable   0   0   257  ; "mFocusedMenuElement"
2AF4  0EC04000           [13] gettable   0   0   259  ; "Id"
2AF8  53008000           [14] getupval   1   1      
2AFC  4A008000           [15] len        1   1      
fail op	21
2B00  15008000           [16] concat     0   1   0  
2B04  1A000080           [17] jmp        1            ; to [19]
2B08  1E008000           [18] return     0   1      
2B0C  13000001           [19] getupval   0   2      
2B10  24004100           [20] self       0   0   260  ; -63725693
2B14  22800001           [21] call       0   2   2  
2B18  5D000000           [22] getglobal  1   0        ; 1074689893
2B1C  92000000           [23] move       2   0      
2B20  62800001           [24] call       1   2   2  
2B24  58000000           [25] test       1       0    ; to [27] if true
2B28  1A000080           [26] jmp        1            ; to [28]
2B2C  1E008000           [27] return     0   1      
2B30  53000000           [28] getupval   1   0      
2B34  4E40C000           [29] gettable   1   1   257  ; "mFocusedMenuElement"
2B38  4EC0C000           [30] gettable   1   1   259  ; "Id"
2B3C  93008000           [31] getupval   2   1      
2B40  8A000001           [32] len        2   2      
fail op	21
2B44  15400001           [33] concat     0   2   1  
2B48  1A000080           [34] jmp        1            ; to [36]
2B4C  1E008000           [35] return     0   1      
2B50  5D000000           [36] getglobal  1   0        ; 1074689893
2B54  9D400100           [37] getglobal  2   5        ; gGameData
2B58  62800001           [38] call       1   2   2  
2B5C  58400000           [39] test       1       1    ; to [41] if false
2B60  1A000D80           [40] jmp        53           ; to [94]
2B64  53000000           [41] getupval   1   0      
2B68  4E40C000           [42] gettable   1   1   257  ; "mFocusedMenuElement"
2B6C  4EC0C000           [43] gettable   1   1   259  ; "Id"
2B70  4E400000           [44] gettable   1   0   1  
fail op	8
2B74  48008001           [45] setupval   1   3      
2B78  5D000000           [46] getglobal  1   0        ; 1074689893
2B7C  9D800100           [47] getglobal  2   6        ; _T
2B80  8EC04101           [48] gettable   2   2   263  ; "DojoMgr"
2B84  62800001           [49] call       1   2   2  
2B88  58400000           [50] test       1       1    ; to [52] if false
2B8C  1AC00780           [51] jmp        32           ; to [84]
2B90  5D000200           [52] getglobal  1   8        ; gRegion
2B94  6440C200           [53] self       1   1   265  ; 65205951
2B98  62800001           [54] call       1   2   2  
2B9C  9D000000           [55] getglobal  2   0        ; 1074689893
2BA0  D2008000           [56] move       3   1      
2BA4  A2800001           [57] call       2   2   2  
2BA8  98400000           [58] test       2       1    ; to [60] if false
2BAC  1A000280           [59] jmp        9            ; to [69]
2BB0  A480C200           [60] self       2   1   266  ; 1927666530
2BB4  A2800001           [61] call       2   2   2  
2BB8  A4C04201           [62] self       2   2   267  ; 102751361
2BBC  A2800001           [63] call       2   2   2  
2BC0  DD800100           [64] getglobal  3   6        ; _T
2BC4  CEC0C101           [65] gettable   3   3   263  ; "DojoMgr"
2BC8  E400C301           [66] self       3   3   268  ; -1080415096
2BCC  52010001           [67] move       5   2      
2BD0  E2808001           [68] call       3   3   2  
2BD4  13010000           [69] getupval   4   0      
2BD8  0E414002           [70] gettable   4   4   257  ; "mFocusedMenuElement"
2BDC  4B410100           [71] newtable   5   0   5    ; array=0, hash=5
2BE0  4C81C086           [72] settable   5   269 258  ; "StoreItem" nil
2BE4  8E814302           [73] gettable   6   4   270  ; "Count"
2BE8  4C810187           [74] settable   5   270 6    ; "Count"
2BEC  8E014402           [75] gettable   6   4   272  ; "VaultDeco"
2BF0  4C818187           [76] settable   5   271 6    ; "IsVault"
2BF4  4C81C488           [77] settable   5   273 274  ; "IsGroupedDeco" 1
2BF8  8EC14402           [78] gettable   6   4   275  ; "Name"
2BFC  4C818189           [79] settable   5   275 6    ; "Name"
fail op	8
2C00  48010002           [80] setupval   5   4      
2C04  53018002           [81] getupval   5   5      
2C08  62418000           [82] call       5   1   1  
2C0C  1A400280           [83] jmp        10           ; to [94]
2C10  5D010000           [84] getglobal  5   0        ; 1074689893
2C14  9D010500           [85] getglobal  6   20       ; mMovie
2C18  62810001           [86] call       5   2   2  
2C1C  58410000           [87] test       5       1    ; to [89] if false
2C20  1A000180           [88] jmp        5            ; to [94]
2C24  5D010500           [89] getglobal  5   20       ; mMovie
2C28  6441C502           [90] self       5   5   277  ; 1167009705
2C2C  D9810500           [91] loadk      7   22       ; "QueueDecoPurchase"
2C30  19C20500           [92] loadk      8   23       ; ""
2C34  62410002           [93] call       5   4   1  
2C38  1E008000           [94] return     0   1      
                         * constants:
2C3C  18                 sizek (24)
2C3D  01                 const type 3
2C3E  65770E40           const [0]: (1074689893)
2C42  04                 const type 4
2C43  14                 string size (20)
2C44  6D466F6375736564+  "mFocused"
2C4C  4D656E75456C656D+  "MenuElem"
2C54  656E7400           "ent\0"
                         const [1]: "mFocusedMenuElement"
2C58  00                 const type 0
                         const [2]: nil
2C59  04                 const type 4
2C5A  03                 string size (3)
2C5B  496400             "Id\0"
                         const [3]: "Id"
2C5E  01                 const type 3
2C5F  839F33FC           const [4]: (-63725693)
2C63  04                 const type 4
2C64  0A                 string size (10)
2C65  6747616D65446174+  "gGameDat"
2C6D  6100               "a\0"
                         const [5]: "gGameData"
2C6F  04                 const type 4
2C70  03                 string size (3)
2C71  5F5400             "_T\0"
                         const [6]: "_T"
2C74  04                 const type 4
2C75  08                 string size (8)
2C76  446F6A6F4D677200   "DojoMgr\0"
                         const [7]: "DojoMgr"
2C7E  04                 const type 4
2C7F  08                 string size (8)
2C80  67526567696F6E00   "gRegion\0"
                         const [8]: "gRegion"
2C88  01                 const type 3
2C89  BFF6E203           const [9]: (65205951)
2C8D  01                 const type 3
2C8E  62DBE572           const [10]: (1927666530)
2C92  01                 const type 3
2C93  81DC1F06           const [11]: (102751361)
2C97  01                 const type 3
2C98  882C9ABF           const [12]: (-1080415096)
2C9C  04                 const type 4
2C9D  0A                 string size (10)
2C9E  53746F7265497465+  "StoreIte"
2CA6  6D00               "m\0"
                         const [13]: "StoreItem"
2CA8  04                 const type 4
2CA9  06                 string size (6)
2CAA  436F756E7400       "Count\0"
                         const [14]: "Count"
2CB0  04                 const type 4
2CB1  08                 string size (8)
2CB2  49735661756C7400   "IsVault\0"
                         const [15]: "IsVault"
2CBA  04                 const type 4
2CBB  0A                 string size (10)
2CBC  5661756C74446563+  "VaultDec"
2CC4  6F00               "o\0"
                         const [16]: "VaultDeco"
2CC6  04                 const type 4
2CC7  0E                 string size (14)
2CC8  497347726F757065+  "IsGroupe"
2CD0  644465636F00       "dDeco\0"
                         const [17]: "IsGroupedDeco"
2CD6  01                 const type 3
2CD7  01000000           const [18]: (1)
2CDB  04                 const type 4
2CDC  05                 string size (5)
2CDD  4E616D6500         "Name\0"
                         const [19]: "Name"
2CE2  04                 const type 4
2CE3  07                 string size (7)
2CE4  6D4D6F76696500     "mMovie\0"
                         const [20]: "mMovie"
2CEB  01                 const type 3
2CEC  A9278F45           const [21]: (1167009705)
2CF0  04                 const type 4
2CF1  12                 string size (18)
2CF2  5175657565446563+  "QueueDec"
2CFA  6F50757263686173+  "oPurchas"
2D02  6500               "e\0"
                         const [22]: "QueueDecoPurchase"
2D04  04                 const type 4
2D05  01                 string size (0)
                         const [23]: ""
                         * functions:
2D07  00                 sizep (0)
                         * lines:
2D08  5E                 sizelineinfo (94)
                         [pc] (line)
2D09  7B                 [01] (123)
2D0A  01                 [02] (123)
2D0B  00                 [03] (123)
2D0C  00                 [04] (123)
2D0D  7B                 [05] (123)
2D0E  01                 [06] (123)
2D0F  00                 [07] (123)
2D10  00                 [08] (123)
2D11  7B                 [09] (123)
2D12  01                 [10] (124)
2D13  00                 [11] (127)
2D14  00                 [12] (127)
2D15  7B                 [13] (127)
2D16  01                 [14] (127)
2D17  00                 [15] (127)
2D18  00                 [16] (127)
2D19  7B                 [17] (127)
2D1A  01                 [18] (-128)
2D1B  00                 [19] (-126)
2D1C  00                 [20] (-126)
2D1D  7B                 [21] (-126)
2D1E  01                 [22] (-125)
2D1F  00                 [23] (-125)
2D20  00                 [24] (-125)
2D21  7B                 [25] (-125)
2D22  01                 [26] (-125)
2D23  00                 [27] (-124)
2D24  00                 [28] (-122)
2D25  7B                 [29] (-122)
2D26  01                 [30] (-122)
2D27  00                 [31] (-122)
2D28  00                 [32] (-122)
2D29  7B                 [33] (-122)
2D2A  01                 [34] (-122)
2D2B  00                 [35] (-121)
2D2C  00                 [36] (-118)
2D2D  7C                 [37] (-118)
2D2E  01                 [38] (-118)
2D2F  00                 [39] (-118)
2D30  00                 [40] (-118)
2D31  7F                 [41] (-117)
2D32  01                 [42] (-117)
2D33  00                 [43] (-117)
2D34  00                 [44] (-117)
2D35  7F                 [45] (-117)
2D36  01                 [46] (-116)
2D37  00                 [47] (-116)
2D38  00                 [48] (-116)
2D39  7F                 [49] (-116)
2D3A  01                 [50] (-116)
2D3B  00                 [51] (-116)
2D3C  00                 [52] (-114)
2D3D  7F                 [53] (-114)
2D3E  01                 [54] (-114)
2D3F  00                 [55] (-113)
2D40  00                 [56] (-113)
2D41  7F                 [57] (-113)
2D42  01                 [58] (-113)
2D43  00                 [59] (-113)
2D44  00                 [60] (-112)
2D45  7F                 [61] (-112)
2D46  01                 [62] (-112)
2D47  00                 [63] (-112)
2D48  00                 [64] (-111)
2D49  7F                 [65] (-111)
2D4A  01                 [66] (-111)
2D4B  00                 [67] (-111)
2D4C  00                 [68] (-111)
2D4D  80                 [69] (-103)
2D4E  01                 [70] (-103)
2D4F  00                 [71] (-102)
2D50  00                 [72] (-100)
2D51  82                 [73] (-99)
2D52  01                 [74] (-99)
2D53  00                 [75] (-98)
2D54  00                 [76] (-98)
2D55  82                 [77] (-97)
2D56  01                 [78] (-96)
2D57  00                 [79] (-96)
2D58  00                 [80] (-95)
2D59  82                 [81] (-93)
2D5A  01                 [82] (-93)
2D5B  00                 [83] (-93)
2D5C  00                 [84] (-92)
2D5D  83                 [85] (-92)
2D5E  01                 [86] (-92)
2D5F  00                 [87] (-92)
2D60  00                 [88] (-92)
2D61  83                 [89] (-91)
2D62  01                 [90] (-91)
2D63  00                 [91] (-91)
2D64  00                 [92] (-91)
2D65  83                 [93] (-91)
2D66  01                 [94] (-88)
                         * locals:
2E81  00                 sizelocvars (0)
                         * upvalues:
2E82  00                 sizeupvalues (0)
                         ** end of function **

                         
2E83                     ** function [21] definition (level 2)
                         ** start of function **
2E83  00                 string size (0)
                         source name: (none)
2E85  03                 line defined (426)
2E86  C0                 last line defined (448)
2E87  03                 nups (4)
2E88  04                 numparams (2)
2E89  02                 is_vararg (0)
2E8A  00                 maxstacksize (14)
                         * code:
2E8C  43                 sizecode (67)
2E8D  18000000           [01] test       0       0    ; to [3] if true
2E91  1A000C80           [02] jmp        49           ; to [52]
2E95  9D000000           [03] getglobal  2   0        ; 1074689893
2E99  D2008000           [04] move       3   1      
2E9D  A2800001           [05] call       2   2   2  
2EA1  98400000           [06] test       2       1    ; to [8] if false
2EA5  1AC00A80           [07] jmp        44           ; to [52]
2EA9  9D400000           [08] getglobal  2   1        ; cjson
2EAD  8E804001           [09] gettable   2   2   258  ; -1976663275
2EB1  D2008000           [10] move       3   1      
2EB5  A2800001           [11] call       2   2   2  
2EB9  DDC00000           [12] getglobal  3   3        ; -1442191459
2EBD  12010001           [13] move       4   2      
2EC1  E2800001           [14] call       3   2   2  
fail op	35
2EC5  2300C101           [15] close      0  
2EC9  1A800080           [16] jmp        3            ; to [20]
2ECD  D3000000           [17] getupval   3   0      
2ED1  E2408000           [18] call       3   1   1  
2ED5  1A800B80           [19] jmp        47           ; to [67]
2ED9  C6008001           [20] loadnil    3   3      
fail op	8
2EDD  C8008000           [21] setupval   3   1      
2EE1  C6008001           [22] loadnil    3   3      
fail op	8
2EE5  C8000001           [23] setupval   3   2      
2EE9  DD400100           [24] getglobal  3   5        ; mMovie
2EED  E480C101           [25] self       3   3   262  ; 98241492
2EF1  59C10100           [26] loadk      5   7        ; "/Lotus/Language/Dojo/DecoTemplateMissingParts"
2EF5  97010000           [27] loadbool   6   0   0    ; false
2EF9  E2800002           [28] call       3   4   2  
2EFD  19010200           [29] loadk      4   8        ; "\n"
2F01  C2008101           [30] concat     3   3   4  
2F05  1D410200           [31] getglobal  4   9        ; 248503575
2F09  52010001           [32] move       5   2      
2F0D  22010101           [33] call       4   2   4  
2F11  1A400280           [34] jmp        10           ; to [45]
2F15  52028001           [35] move       9   3      
2F19  92028003           [36] move       10  7      
2F1D  C2808204           [37] concat     3   9   10 
fail op	21
2F21  15000285           [38] concat     0   266 8  
2F25  1A000180           [39] jmp        5            ; to [45]
2F29  52028001           [40] move       9   3      
2F2D  99C20200           [41] loadk      10  11       ; " (x"
2F31  D2020004           [42] move       11  8      
2F35  19030300           [43] loadk      12  12       ; ")\n"
2F39  C2008304           [44] concat     3   9   12 
2F3D  16810000           [45] tforloop   4       2    ; to [47] if exit
2F41  1AC0FC7F           [46] jmp        -12          ; to [35]
2F45  53028001           [47] getupval   9   3      
2F49  4E42C304           [48] gettable   9   9   269  ; 185724978
2F4D  92028001           [49] move       10  3      
2F51  62420001           [50] call       9   2   1  
2F55  1A800380           [51] jmp        15           ; to [67]
2F59  53028001           [52] getupval   9   3      
2F5D  4E42C304           [53] gettable   9   9   269  ; 185724978
2F61  9D420100           [54] getglobal  10  5        ; mMovie
2F65  A4824105           [55] self       10  10  262  ; 98241492
2F69  19C30100           [56] loadk      12  7        ; "/Lotus/Language/Dojo/DecoTemplateMissingParts"
2F6D  57030000           [57] loadbool   13  0   0    ; false
2F71  A2820002           [58] call       10  4   2  
2F75  D9020200           [59] loadk      11  8        ; "\n"
2F79  12038000           [60] move       12  1      
2F7D  82020305           [61] concat     10  10  12 
2F81  62420001           [62] call       9   2   1  
2F85  46028004           [63] loadnil    9   9      
fail op	8
2F89  48028000           [64] setupval   9   1      
2F8D  46028004           [65] loadnil    9   9      
fail op	8
2F91  48020001           [66] setupval   9   2      
2F95  1E008000           [67] return     0   1      
                         * constants:
2F99  0E                 sizek (14)
2F9A  01                 const type 3
2F9B  65770E40           const [0]: (1074689893)
2F9F  04                 const type 4
2FA0  06                 string size (6)
2FA1  636A736F6E00       "cjson\0"
                         const [1]: "cjson"
2FA7  01                 const type 3
2FA8  15832E8A           const [2]: (-1976663275)
2FAC  01                 const type 3
2FAD  9DE709AA           const [3]: (-1442191459)
2FB1  00                 const type 0
                         const [4]: nil
2FB2  04                 const type 4
2FB3  07                 string size (7)
2FB4  6D4D6F76696500     "mMovie\0"
                         const [5]: "mMovie"
2FBB  01                 const type 3
2FBC  D40BDB05           const [6]: (98241492)
2FC0  04                 const type 4
2FC1  2E                 string size (46)
2FC2  2F4C6F7475732F4C+  "/Lotus/L"
2FCA  616E67756167652F+  "anguage/"
2FD2  446F6A6F2F446563+  "Dojo/Dec"
2FDA  6F54656D706C6174+  "oTemplat"
2FE2  654D697373696E67+  "eMissing"
2FEA  506172747300       "Parts\0"
                         const [7]: "/Lotus/Language/Dojo/DecoTemplateMissingParts"
2FF0  04                 const type 4
2FF1  02                 string size (2)
2FF2  0A00               "\n\0"
                         const [8]: "\n"
2FF4  01                 const type 3
2FF5  17DDCF0E           const [9]: (248503575)
2FF9  03                 const type 3
2FFA  0000803F           const [10]: (0)
2FFE  04                 const type 4
2FFF  04                 string size (4)
3000  20287800           " (x\0"
                         const [11]: " (x"
3004  04                 const type 4
3005  03                 string size (3)
3006  290A00             ")\n\0"
                         const [12]: ")\n"
3009  01                 const type 3
300A  32F0110B           const [13]: (185724978)
                         * functions:
300E  00                 sizep (0)
                         * lines:
300F  43                 sizelineinfo (67)
                         [pc] (line)
3010  AB                 [01] (-85)
3011  01                 [02] (-85)
3012  00                 [03] (-85)
3013  00                 [04] (-85)
3014  AB                 [05] (-85)
3015  01                 [06] (-85)
3016  00                 [07] (-85)
3017  00                 [08] (-84)
3018  AB                 [09] (-84)
3019  01                 [10] (-84)
301A  00                 [11] (-84)
301B  00                 [12] (-83)
301C  AB                 [13] (-83)
301D  01                 [14] (-83)
301E  00                 [15] (-83)
301F  00                 [16] (-83)
3020  AB                 [17] (-82)
3021  01                 [18] (-82)
3022  00                 [19] (-82)
3023  00                 [20] (-80)
3024  AB                 [21] (-80)
3025  01                 [22] (-79)
3026  00                 [23] (-79)
3027  00                 [24] (-78)
3028  AB                 [25] (-78)
3029  01                 [26] (-78)
302A  00                 [27] (-78)
302B  00                 [28] (-78)
302C  AC                 [29] (-78)
302D  01                 [30] (-78)
302E  00                 [31] (-77)
302F  00                 [32] (-77)
3030  AC                 [33] (-77)
3031  01                 [34] (-77)
3032  00                 [35] (-76)
3033  00                 [36] (-76)
3034  AC                 [37] (-76)
3035  01                 [38] (-75)
3036  00                 [39] (-75)
3037  00                 [40] (-74)
3038  AC                 [41] (-74)
3039  01                 [42] (-74)
303A  00                 [43] (-74)
303B  00                 [44] (-74)
303C  AD                 [45] (-77)
303D  01                 [46] (-73)
303E  00                 [47] (-71)
303F  00                 [48] (-71)
3040  AD                 [49] (-71)
3041  01                 [50] (-71)
3042  00                 [51] (-70)
3043  00                 [52] (-68)
3044  AD                 [53] (-68)
3045  01                 [54] (-68)
3046  00                 [55] (-68)
3047  00                 [56] (-68)
3048  AD                 [57] (-68)
3049  01                 [58] (-68)
304A  00                 [59] (-68)
304B  00                 [60] (-68)
304C  AD                 [61] (-68)
304D  01                 [62] (-68)
304E  00                 [63] (-67)
304F  00                 [64] (-67)
3050  AE                 [65] (-66)
3051  01                 [66] (-66)
3052  00                 [67] (-64)
                         * locals:
311C  00                 sizelocvars (0)
                         * upvalues:
311D  00                 sizeupvalues (0)
                         ** end of function **

                         
311E                     ** function [22] definition (level 2)
                         ** start of function **
311E  00                 string size (0)
                         source name: (none)
3120  03                 line defined (450)
3121  D1                 last line defined (465)
3122  03                 nups (4)
3123  04                 numparams (0)
3124  00                 is_vararg (0)
3125  00                 maxstacksize (7)
                         * code:
3127  30                 sizecode (48)
3128  1D000000           [01] getglobal  0   0        ; 1074689893
312C  53000000           [02] getupval   1   0      
3130  22800001           [03] call       0   2   2  
3134  18400000           [04] test       0       1    ; to [6] if false
3138  1A400A80           [05] jmp        42           ; to [48]
313C  1D000000           [06] getglobal  0   0        ; 1074689893
3140  5D400000           [07] getglobal  1   1        ; gGameRules
3144  22800001           [08] call       0   2   2  
3148  18400000           [09] test       0       1    ; to [11] if false
314C  1A000980           [10] jmp        37           ; to [48]
3150  13000000           [11] getupval   0   0      
3154  24804000           [12] self       0   0   258  ; -63725693
3158  22800001           [13] call       0   2   2  
315C  5D000000           [14] getglobal  1   0        ; 1074689893
3160  92000000           [15] move       2   0      
3164  62800001           [16] call       1   2   2  
3168  58000000           [17] test       1       0    ; to [19] if true
316C  1A000080           [18] jmp        1            ; to [20]
3170  1E008000           [19] return     0   1      
3174  4A000000           [20] len        1   0      
3178  93008000           [21] getupval   2   1      
317C  8EC04001           [22] gettable   2   2   259  ; "mFocusedMenuElement"
3180  8E004101           [23] gettable   2   2   260  ; "Id"
fail op	33
3184  21400001           [24] tforloop   0       1    ; to [26] if exit
3188  1A400580           [25] jmp        22           ; to [48]
318C  53008000           [26] getupval   1   1      
3190  4EC0C000           [27] gettable   1   1   259  ; "mFocusedMenuElement"
3194  4E00C100           [28] gettable   1   1   260  ; "Id"
3198  4E400000           [29] gettable   1   0   1  
fail op	8
319C  48000001           [30] setupval   1   2      
31A0  5D000000           [31] getglobal  1   0        ; 1074689893
31A4  93000001           [32] getupval   2   2      
31A8  62800001           [33] call       1   2   2  
31AC  58400000           [34] test       1       1    ; to [36] if false
31B0  1AC00280           [35] jmp        12           ; to [48]
31B4  53008001           [36] getupval   1   3      
31B8  4E40C100           [37] gettable   1   1   261  ; -825808101
31BC  9D800100           [38] getglobal  2   6        ; gRegion
31C0  A4C04101           [39] self       2   2   263  ; 65205951
31C4  A2000001           [40] call       2   2   0  
31C8  62800000           [41] call       1   0   2  
31CC  9D400000           [42] getglobal  2   1        ; gGameRules
31D0  A4004201           [43] self       2   2   264  ; -1882361479
31D4  12018000           [44] move       4   1      
31D8  53010001           [45] getupval   5   2      
31DC  99410200           [46] loadk      6   9        ; "OnQueueDecoPurchase"
31E0  A2408002           [47] call       2   5   1  
31E4  1E008000           [48] return     0   1      
                         * constants:
31E8  0A                 sizek (10)
31E9  01                 const type 3
31EA  65770E40           const [0]: (1074689893)
31EE  04                 const type 4
31EF  0B                 string size (11)
31F0  6747616D6552756C+  "gGameRul"
31F8  657300             "es\0"
                         const [1]: "gGameRules"
31FB  01                 const type 3
31FC  839F33FC           const [2]: (-63725693)
3200  04                 const type 4
3201  14                 string size (20)
3202  6D466F6375736564+  "mFocused"
320A  4D656E75456C656D+  "MenuElem"
3212  656E7400           "ent\0"
                         const [3]: "mFocusedMenuElement"
3216  04                 const type 4
3217  03                 string size (3)
3218  496400             "Id\0"
                         const [4]: "Id"
321B  01                 const type 3
321C  1B2BC7CE           const [5]: (-825808101)
3220  04                 const type 4
3221  08                 string size (8)
3222  67526567696F6E00   "gRegion\0"
                         const [6]: "gRegion"
322A  01                 const type 3
322B  BFF6E203           const [7]: (65205951)
322F  01                 const type 3
3230  7971CD8F           const [8]: (-1882361479)
3234  04                 const type 4
3235  14                 string size (20)
3236  4F6E517565756544+  "OnQueueD"
323E  65636F5075726368+  "ecoPurch"
3246  61736500           "ase\0"
                         const [9]: "OnQueueDecoPurchase"
                         * functions:
324A  00                 sizep (0)
                         * lines:
324B  30                 sizelineinfo (48)
                         [pc] (line)
324C  C4                 [01] (-60)
324D  01                 [02] (-60)
324E  00                 [03] (-60)
324F  00                 [04] (-60)
3250  C4                 [05] (-60)
3251  01                 [06] (-60)
3252  00                 [07] (-60)
3253  00                 [08] (-60)
3254  C4                 [09] (-60)
3255  01                 [10] (-60)
3256  00                 [11] (-59)
3257  00                 [12] (-59)
3258  C4                 [13] (-59)
3259  01                 [14] (-58)
325A  00                 [15] (-58)
325B  00                 [16] (-58)
325C  C4                 [17] (-58)
325D  01                 [18] (-58)
325E  00                 [19] (-57)
325F  00                 [20] (-55)
3260  C4                 [21] (-55)
3261  01                 [22] (-55)
3262  00                 [23] (-55)
3263  00                 [24] (-55)
3264  C4                 [25] (-55)
3265  01                 [26] (-54)
3266  00                 [27] (-54)
3267  00                 [28] (-54)
3268  C4                 [29] (-54)
3269  01                 [30] (-54)
326A  00                 [31] (-53)
326B  00                 [32] (-53)
326C  C4                 [33] (-53)
326D  01                 [34] (-53)
326E  00                 [35] (-53)
326F  00                 [36] (-52)
3270  C4                 [37] (-52)
3271  01                 [38] (-52)
3272  00                 [39] (-52)
3273  00                 [40] (-52)
3274  C5                 [41] (-52)
3275  01                 [42] (-51)
3276  00                 [43] (-51)
3277  00                 [44] (-51)
3278  C5                 [45] (-51)
3279  01                 [46] (-51)
327A  00                 [47] (-51)
327B  00                 [48] (-47)
                         * locals:
330C  00                 sizelocvars (0)
                         * upvalues:
330D  00                 sizeupvalues (0)
                         ** end of function **

                         
330E                     ** function [23] definition (level 2)
                         ** start of function **
330E  00                 string size (0)
                         source name: (none)
3310  03                 line defined (467)
3311  E6                 last line defined (486)
3312  03                 nups (5)
3313  05                 numparams (2)
3314  02                 is_vararg (0)
3315  00                 maxstacksize (8)
                         * code:
3317  42                 sizecode (66)
3318  18000000           [01] test       0       0    ; to [3] if true
331C  1A000F80           [02] jmp        61           ; to [64]
3320  9D000000           [03] getglobal  2   0        ; 1074689893
3324  DD400000           [04] getglobal  3   1        ; gBackgroundRegion
3328  A2800001           [05] call       2   2   2  
332C  98400000           [06] test       2       1    ; to [8] if false
3330  1AC00D80           [07] jmp        56           ; to [64]
3334  9D000000           [08] getglobal  2   0        ; 1074689893
3338  D3000000           [09] getupval   3   0      
333C  A2800001           [10] call       2   2   2  
3340  98400000           [11] test       2       1    ; to [13] if false
3344  1A800C80           [12] jmp        51           ; to [64]
3348  9D400000           [13] getglobal  2   1        ; gBackgroundRegion
334C  A4804001           [14] self       2   2   258  ; -1693828985
3350  13018000           [15] getupval   4   1      
3354  53010001           [16] getupval   5   2      
3358  4EC1C002           [17] gettable   5   5   259  ; "mFocusedMenuElement"
335C  4E01C102           [18] gettable   5   5   260  ; "Id"
3360  0E410102           [19] gettable   4   4   5  
3364  A2408001           [20] call       2   3   1  
3368  93000001           [21] getupval   2   2      
336C  A4404101           [22] self       2   2   261  ; -328955604
3370  13010001           [23] getupval   4   2      
3374  0EC14002           [24] gettable   4   4   259  ; "mFocusedMenuElement"
3378  0E014102           [25] gettable   4   4   260  ; "Id"
337C  57018000           [26] loadbool   5   1   0    ; true
3380  97018000           [27] loadbool   6   1   0    ; true
3384  A2408002           [28] call       2   5   1  
3388  93008000           [29] getupval   2   1      
338C  D3000001           [30] getupval   3   2      
3390  CEC0C001           [31] gettable   3   3   259  ; "mFocusedMenuElement"
3394  CE00C101           [32] gettable   3   3   260  ; "Id"
3398  8C80C101           [33] settable   2   3   262  ; nil
339C  93000001           [34] getupval   2   2      
33A0  8C80C181           [35] settable   2   259 262  ; "mFocusedMenuElement" nil
33A4  93000000           [36] getupval   2   0      
33A8  A4C04101           [37] self       2   2   263  ; -2142982644
33AC  13018001           [38] getupval   4   3      
33B0  A2808001           [39] call       2   3   2  
33B4  DD000000           [40] getglobal  3   0        ; 1074689893
33B8  12010001           [41] move       4   2      
33BC  E2800001           [42] call       3   2   2  
33C0  D8000000           [43] test       3       0    ; to [45] if true
33C4  1A400280           [44] jmp        10           ; to [55]
33C8  D3000002           [45] getupval   3   4      
33CC  CE00C201           [46] gettable   3   3   264  ; 185724978
33D0  1D410200           [47] getglobal  4   9        ; mMovie
33D4  24814202           [48] self       4   4   266  ; 98241492
33D8  99C10200           [49] loadk      6   11       ; "/Lotus/Language/Dojo/DecoTemplatesEmpty"
33DC  D7010000           [50] loadbool   7   0   0    ; false
33E0  22810002           [51] call       4   4   2  
33E4  59010300           [52] loadk      5   12       ; "TransitionOut"
33E8  E2408001           [53] call       3   3   1  
33EC  1A000280           [54] jmp        9            ; to [64]
33F0  D3000001           [55] getupval   3   2      
33F4  E440C301           [56] self       3   3   269  ; 1685109492
33F8  46018002           [57] loadnil    5   5      
33FC  97018000           [58] loadbool   6   1   0    ; true
3400  D7018000           [59] loadbool   7   1   0    ; true
3404  E2408002           [60] call       3   5   1  
3408  D3000001           [61] getupval   3   2      
340C  E480C301           [62] self       3   3   270  ; -257971548
3410  E2400001           [63] call       3   2   1  
3414  C6008001           [64] loadnil    3   3      
fail op	8
3418  C8008001           [65] setupval   3   3      
341C  1E008000           [66] return     0   1      
                         * constants:
3420  0F                 sizek (15)
3421  01                 const type 3
3422  65770E40           const [0]: (1074689893)
3426  04                 const type 4
3427  12                 string size (18)
3428  674261636B67726F+  "gBackgro"
3430  756E64526567696F+  "undRegio"
3438  6E00               "n\0"
                         const [1]: "gBackgroundRegion"
343A  01                 const type 3
343B  87380A9B           const [2]: (-1693828985)
343F  04                 const type 4
3440  14                 string size (20)
3441  6D466F6375736564+  "mFocused"
3449  4D656E75456C656D+  "MenuElem"
3451  656E7400           "ent\0"
                         const [3]: "mFocusedMenuElement"
3455  04                 const type 4
3456  03                 string size (3)
3457  496400             "Id\0"
                         const [4]: "Id"
345A  01                 const type 3
345B  2C8964EC           const [5]: (-328955604)
345F  00                 const type 0
                         const [6]: nil
3460  01                 const type 3
3461  0CAE4480           const [7]: (-2142982644)
3465  01                 const type 3
3466  32F0110B           const [8]: (185724978)
346A  04                 const type 4
346B  07                 string size (7)
346C  6D4D6F76696500     "mMovie\0"
                         const [9]: "mMovie"
3473  01                 const type 3
3474  D40BDB05           const [10]: (98241492)
3478  04                 const type 4
3479  28                 string size (40)
347A  2F4C6F7475732F4C+  "/Lotus/L"
3482  616E67756167652F+  "anguage/"
348A  446F6A6F2F446563+  "Dojo/Dec"
3492  6F54656D706C6174+  "oTemplat"
349A  6573456D70747900   "esEmpty\0"
                         const [11]: "/Lotus/Language/Dojo/DecoTemplatesEmpty"
34A2  04                 const type 4
34A3  0E                 string size (14)
34A4  5472616E73697469+  "Transiti"
34AC  6F6E4F757400       "onOut\0"
                         const [12]: "TransitionOut"
34B2  01                 const type 3
34B3  F4BA7064           const [13]: (1685109492)
34B7  01                 const type 3
34B8  A4AA9FF0           const [14]: (-257971548)
                         * functions:
34BC  00                 sizep (0)
                         * lines:
34BD  42                 sizelineinfo (66)
                         [pc] (line)
34BE  D4                 [01] (-44)
34BF  01                 [02] (-44)
34C0  00                 [03] (-44)
34C1  00                 [04] (-44)
34C2  D4                 [05] (-44)
34C3  01                 [06] (-44)
34C4  00                 [07] (-44)
34C5  00                 [08] (-44)
34C6  D4                 [09] (-44)
34C7  01                 [10] (-44)
34C8  00                 [11] (-44)
34C9  00                 [12] (-44)
34CA  D4                 [13] (-43)
34CB  01                 [14] (-43)
34CC  00                 [15] (-43)
34CD  00                 [16] (-43)
34CE  D4                 [17] (-43)
34CF  01                 [18] (-43)
34D0  00                 [19] (-43)
34D1  00                 [20] (-43)
34D2  D4                 [21] (-42)
34D3  01                 [22] (-42)
34D4  00                 [23] (-42)
34D5  00                 [24] (-42)
34D6  D4                 [25] (-42)
34D7  01                 [26] (-42)
34D8  00                 [27] (-42)
34D9  00                 [28] (-42)
34DA  D4                 [29] (-41)
34DB  01                 [30] (-41)
34DC  00                 [31] (-41)
34DD  00                 [32] (-41)
34DE  D4                 [33] (-41)
34DF  01                 [34] (-40)
34E0  00                 [35] (-40)
34E1  00                 [36] (-38)
34E2  D4                 [37] (-38)
34E3  01                 [38] (-38)
34E4  00                 [39] (-38)
34E5  00                 [40] (-37)
34E6  D4                 [41] (-37)
34E7  01                 [42] (-37)
34E8  00                 [43] (-37)
34E9  00                 [44] (-37)
34EA  D4                 [45] (-33)
34EB  01                 [46] (-33)
34EC  00                 [47] (-33)
34ED  00                 [48] (-33)
34EE  D5                 [49] (-33)
34EF  01                 [50] (-33)
34F0  00                 [51] (-33)
34F1  00                 [52] (-33)
34F2  D5                 [53] (-33)
34F3  01                 [54] (-33)
34F4  00                 [55] (-31)
34F5  00                 [56] (-31)
34F6  D5                 [57] (-31)
34F7  01                 [58] (-31)
34F8  00                 [59] (-31)
34F9  00                 [60] (-31)
34FA  D5                 [61] (-30)
34FB  01                 [62] (-30)
34FC  00                 [63] (-30)
34FD  00                 [64] (-27)
34FE  D5                 [65] (-27)
34FF  01                 [66] (-26)
                         * locals:
35C6  00                 sizelocvars (0)
                         * upvalues:
35C7  00                 sizeupvalues (0)
                         ** end of function **

                         
35C8                     ** function [24] definition (level 2)
                         ** start of function **
35C8  00                 string size (0)
                         source name: (none)
35CA  03                 line defined (488)
35CB  EC                 last line defined (492)
35CC  03                 nups (1)
35CD  01                 numparams (1)
35CE  01                 is_vararg (0)
35CF  00                 maxstacksize (5)
                         * code:
35D1  0D                 sizecode (13)
35D2  5D000000           [01] getglobal  1   0        ; -174740002
35D6  92000000           [02] move       2   0      
35DA  62800001           [03] call       1   2   2  
35DE  9D400000           [04] getglobal  2   1        ; Engine
35E2  8E804001           [05] gettable   2   2   258  ; "CI_SELECT"
fail op	35
35E6  23808000           [06] close      0  
35EA  1A000180           [07] jmp        5            ; to [13]
35EE  5DC00000           [08] getglobal  1   3        ; gGameData
35F2  6400C100           [09] self       1   1   260  ; 139428341
35F6  D3000000           [10] getupval   3   0      
35FA  19410100           [11] loadk      4   5        ; "OnDeleteDecoTemplate"
35FE  62400002           [12] call       1   4   1  
3602  1E008000           [13] return     0   1      
                         * constants:
3606  06                 sizek (6)
3607  01                 const type 3
3608  DEAD95F5           const [0]: (-174740002)
360C  04                 const type 4
360D  07                 string size (7)
360E  456E67696E6500     "Engine\0"
                         const [1]: "Engine"
3615  04                 const type 4
3616  0A                 string size (10)
3617  43495F53454C4543+  "CI_SELEC"
361F  5400               "T\0"
                         const [2]: "CI_SELECT"
3621  04                 const type 4
3622  0A                 string size (10)
3623  6747616D65446174+  "gGameDat"
362B  6100               "a\0"
                         const [3]: "gGameData"
362D  01                 const type 3
362E  F5814F08           const [4]: (139428341)
3632  04                 const type 4
3633  15                 string size (21)
3634  4F6E44656C657465+  "OnDelete"
363C  4465636F54656D70+  "DecoTemp"
3644  6C61746500         "late\0"
                         const [5]: "OnDeleteDecoTemplate"
                         * functions:
3649  00                 sizep (0)
                         * lines:
364A  0D                 sizelineinfo (13)
                         [pc] (line)
364B  E9                 [01] (-23)
364C  01                 [02] (-23)
364D  00                 [03] (-23)
364E  00                 [04] (-23)
364F  E9                 [05] (-23)
3650  01                 [06] (-23)
3651  00                 [07] (-23)
3652  00                 [08] (-22)
3653  E9                 [09] (-22)
3654  01                 [10] (-22)
3655  00                 [11] (-22)
3656  00                 [12] (-22)
3657  E9                 [13] (-20)
                         * locals:
367F  00                 sizelocvars (0)
                         * upvalues:
3680  00                 sizeupvalues (0)
                         ** end of function **

                         
3681                     ** function [25] definition (level 2)
                         ** start of function **
3681  00                 string size (0)
                         source name: (none)
3683  03                 line defined (494)
3684  81                 last line defined (513)
3685  04                 nups (5)
3686  05                 numparams (0)
3687  00                 is_vararg (0)
3688  00                 maxstacksize (6)
                         * code:
368A  3A                 sizecode (58)
368B  1D000000           [01] getglobal  0   0        ; 1074689893
368F  53000000           [02] getupval   1   0      
3693  22800001           [03] call       0   2   2  
3697  18400000           [04] test       0       1    ; to [6] if false
369B  1A000280           [05] jmp        9            ; to [15]
369F  1D000000           [06] getglobal  0   0        ; 1074689893
36A3  53008000           [07] getupval   1   1      
36A7  22800001           [08] call       0   2   2  
36AB  18400000           [09] test       0       1    ; to [11] if false
36AF  1AC00080           [10] jmp        4            ; to [15]
36B3  13008000           [11] getupval   0   1      
36B7  0E404000           [12] gettable   0   0   257  ; "mFocusedMenuElement"
fail op	35
36BB  23804000           [13] close      0  
36BF  1A000080           [14] jmp        1            ; to [16]
36C3  1E008000           [15] return     0   1      
36C7  13008000           [16] getupval   0   1      
36CB  0E404000           [17] gettable   0   0   257  ; "mFocusedMenuElement"
36CF  0EC04000           [18] gettable   0   0   259  ; "Id"
36D3  53000001           [19] getupval   1   2      
36D7  4A008000           [20] len        1   1      
fail op	21
36DB  15008000           [21] concat     0   1   0  
36DF  1A000080           [22] jmp        1            ; to [24]
36E3  1E008000           [23] return     0   1      
36E7  13000000           [24] getupval   0   0      
36EB  24004100           [25] self       0   0   260  ; -63725693
36EF  22800001           [26] call       0   2   2  
36F3  5D000000           [27] getglobal  1   0        ; 1074689893
36F7  92000000           [28] move       2   0      
36FB  62800001           [29] call       1   2   2  
36FF  58000000           [30] test       1       0    ; to [32] if true
3703  1A000080           [31] jmp        1            ; to [33]
3707  1E008000           [32] return     0   1      
370B  53008000           [33] getupval   1   1      
370F  4E40C000           [34] gettable   1   1   257  ; "mFocusedMenuElement"
3713  4EC0C000           [35] gettable   1   1   259  ; "Id"
3717  8A000000           [36] len        2   0      
fail op	21
371B  15400001           [37] concat     0   2   1  
371F  1A000080           [38] jmp        1            ; to [40]
3723  1E008000           [39] return     0   1      
3727  53008000           [40] getupval   1   1      
372B  4E40C000           [41] gettable   1   1   257  ; "mFocusedMenuElement"
372F  4EC0C000           [42] gettable   1   1   259  ; "Id"
3733  4E400000           [43] gettable   1   0   1  
3737  6440C100           [44] self       1   1   261  ; 1288286795
373B  62800001           [45] call       1   2   2  
fail op	8
373F  48008001           [46] setupval   1   3      
3743  53000002           [47] getupval   1   4      
3747  4E80C100           [48] gettable   1   1   262  ; 185724978
374B  9DC00100           [49] getglobal  2   7        ; mMovie
374F  A4004201           [50] self       2   2   264  ; 98241492
3753  19410200           [51] loadk      4   9        ; "/Lotus/Language/Dojo/DecoTemplateConfirmDelete"
3757  57010000           [52] loadbool   5   0   0    ; false
375B  A2800002           [53] call       2   4   2  
375F  D9800200           [54] loadk      3   10       ; "DeleteDecoTemplateConfirm"
3763  1DC10200           [55] getglobal  4   11       ; Engine
3767  0E014302           [56] gettable   4   4   268  ; "OkCancel"
376B  62400002           [57] call       1   4   1  
376F  1E008000           [58] return     0   1      
                         * constants:
3773  0D                 sizek (13)
3774  01                 const type 3
3775  65770E40           const [0]: (1074689893)
3779  04                 const type 4
377A  14                 string size (20)
377B  6D466F6375736564+  "mFocused"
3783  4D656E75456C656D+  "MenuElem"
378B  656E7400           "ent\0"
                         const [1]: "mFocusedMenuElement"
378F  00                 const type 0
                         const [2]: nil
3790  04                 const type 4
3791  03                 string size (3)
3792  496400             "Id\0"
                         const [3]: "Id"
3795  01                 const type 3
3796  839F33FC           const [4]: (-63725693)
379A  01                 const type 3
379B  4BB2C94C           const [5]: (1288286795)
379F  01                 const type 3
37A0  32F0110B           const [6]: (185724978)
37A4  04                 const type 4
37A5  07                 string size (7)
37A6  6D4D6F76696500     "mMovie\0"
                         const [7]: "mMovie"
37AD  01                 const type 3
37AE  D40BDB05           const [8]: (98241492)
37B2  04                 const type 4
37B3  2F                 string size (47)
37B4  2F4C6F7475732F4C+  "/Lotus/L"
37BC  616E67756167652F+  "anguage/"
37C4  446F6A6F2F446563+  "Dojo/Dec"
37CC  6F54656D706C6174+  "oTemplat"
37D4  65436F6E6669726D+  "eConfirm"
37DC  44656C65746500     "Delete\0"
                         const [9]: "/Lotus/Language/Dojo/DecoTemplateConfirmDelete"
37E3  04                 const type 4
37E4  1A                 string size (26)
37E5  44656C6574654465+  "DeleteDe"
37ED  636F54656D706C61+  "coTempla"
37F5  7465436F6E666972+  "teConfir"
37FD  6D00               "m\0"
                         const [10]: "DeleteDecoTemplateConfirm"
37FF  04                 const type 4
3800  07                 string size (7)
3801  456E67696E6500     "Engine\0"
                         const [11]: "Engine"
3808  04                 const type 4
3809  09                 string size (9)
380A  4F6B43616E63656C+  "OkCancel"
3812  00                 "\0"
                         const [12]: "OkCancel"
                         * functions:
3813  00                 sizep (0)
                         * lines:
3814  3A                 sizelineinfo (58)
                         [pc] (line)
3815  EF                 [01] (-17)
3816  01                 [02] (-17)
3817  00                 [03] (-17)
3818  00                 [04] (-17)
3819  EF                 [05] (-17)
381A  01                 [06] (-17)
381B  00                 [07] (-17)
381C  00                 [08] (-17)
381D  EF                 [09] (-17)
381E  01                 [10] (-17)
381F  00                 [11] (-17)
3820  00                 [12] (-17)
3821  EF                 [13] (-17)
3822  01                 [14] (-17)
3823  00                 [15] (-16)
3824  00                 [16] (-13)
3825  EF                 [17] (-13)
3826  01                 [18] (-13)
3827  00                 [19] (-13)
3828  00                 [20] (-13)
3829  EF                 [21] (-13)
382A  01                 [22] (-13)
382B  00                 [23] (-12)
382C  00                 [24] (-9)
382D  EF                 [25] (-9)
382E  01                 [26] (-9)
382F  00                 [27] (-8)
3830  00                 [28] (-8)
3831  EF                 [29] (-8)
3832  01                 [30] (-8)
3833  00                 [31] (-8)
3834  00                 [32] (-7)
3835  EF                 [33] (-5)
3836  01                 [34] (-5)
3837  00                 [35] (-5)
3838  00                 [36] (-5)
3839  EF                 [37] (-5)
383A  01                 [38] (-5)
383B  00                 [39] (-4)
383C  00                 [40] (-1)
383D  EF                 [41] (-1)
383E  01                 [42] (-1)
383F  00                 [43] (-1)
3840  00                 [44] (-1)
3841  EF                 [45] (-1)
3842  01                 [46] (-1)
3843  00                 [47] (0)
3844  00                 [48] (0)
3845  EF                 [49] (0)
3846  01                 [50] (0)
3847  00                 [51] (0)
3848  00                 [52] (0)
3849  EF                 [53] (0)
384A  01                 [54] (0)
384B  00                 [55] (0)
384C  00                 [56] (0)
384D  F0                 [57] (0)
384E  01                 [58] (1)
                         * locals:
38FD  00                 sizelocvars (0)
                         * upvalues:
38FE  00                 sizeupvalues (0)
                         ** end of function **

                         
38FF                     ** function [26] definition (level 2)
                         ** start of function **
38FF  00                 string size (0)
                         source name: (none)
3901  04                 line defined (516)
3902  A2                 last line defined (546)
3903  04                 nups (1)
3904  01                 numparams (1)
3905  01                 is_vararg (0)
3906  00                 maxstacksize (10)
                         * code:
3908  5D                 sizecode (93)
fail op	35
3909  63004000           [01] close      1  
390D  1A400080           [02] jmp        2            ; to [5]
fail op	35
3911  23404000           [03] close      0  
3915  1A800180           [04] jmp        7            ; to [12]
3919  53000000           [05] getupval   1   0      
391D  4E80C000           [06] gettable   1   1   258  ; 185724978
3921  99C00000           [07] loadk      2   3        ; "/Lotus/Language/Menu/Loadout_InvalidName"
3925  D9000100           [08] loadk      3   4        ; "TransitionOut"
3929  62408001           [09] call       1   3   1  
392D  57000000           [10] loadbool   1   0   0    ; false
3931  5E000001           [11] return     1   2      
3935  53000000           [12] getupval   1   0      
3939  4E40C100           [13] gettable   1   1   261  ; -265222553
393D  62808000           [14] call       1   1   2  
3941  93000000           [15] getupval   2   0      
3945  8E804101           [16] gettable   2   2   262  ; 1753394311
3949  A2808000           [17] call       2   1   2  
394D  D9C00100           [18] loadk      3   7        ; " "
3951  42C08000           [19] concat     1   1   3  
3955  9D000200           [20] getglobal  2   8        ; -2042208176
3959  A2808000           [21] call       2   1   2  
395D  98000000           [22] test       2       0    ; to [24] if true
3961  1A000180           [23] jmp        5            ; to [29]
3965  92008000           [24] move       2   1      
3969  D3000000           [25] getupval   3   0      
396D  CE40C201           [26] gettable   3   3   265  ; 523840205
3971  E2808000           [27] call       3   1   2  
3975  42C00001           [28] concat     1   2   3  
3979  9D800200           [29] getglobal  2   10       ; -280419223
397D  D2000000           [30] move       3   0      
3981  12018000           [31] move       4   1      
3985  A2808001           [32] call       2   3   2  
fail op	21
3989  15808085           [33] concat     0   267 2  
398D  1A000480           [34] jmp        17           ; to [52]
3991  D3000000           [35] getupval   3   0      
3995  CE80C001           [36] gettable   3   3   258  ; 185724978
3999  1D010300           [37] getglobal  4   12       ; mMovie
399D  24414302           [38] self       4   4   269  ; 98241492
39A1  99810300           [39] loadk      6   14       ; "/Lotus/Language/Menu/SocialOverlay_InvalidCharacter"
39A5  D7010000           [40] loadbool   7   0   0    ; false
39A9  22810002           [41] call       4   4   2  
39AD  5DC10300           [42] getglobal  5   15       ; 1823837398
39B1  92010000           [43] move       6   0      
39B5  D2010001           [44] move       7   2      
39B9  12020001           [45] move       8   2      
39BD  62810002           [46] call       5   4   2  
39C1  02410102           [47] concat     4   4   5  
39C5  59010100           [48] loadk      5   4        ; "TransitionOut"
39C9  E2408001           [49] call       3   3   1  
39CD  D7000000           [50] loadbool   3   0   0    ; false
39D1  DE000001           [51] return     3   2      
39D5  DD000400           [52] getglobal  3   16       ; string
39D9  CE40C401           [53] gettable   3   3   273  ; -965268854
39DD  12010000           [54] move       4   0      
39E1  E2800001           [55] call       3   2   2  
fail op	21
39E5  15C00089           [56] concat     0   274 3  
39E9  1A800280           [57] jmp        11           ; to [69]
39ED  D3000000           [58] getupval   3   0      
39F1  CE80C001           [59] gettable   3   3   258  ; 185724978
39F5  1D010300           [60] getglobal  4   12       ; mMovie
39F9  24414302           [61] self       4   4   269  ; 98241492
39FD  99C10400           [62] loadk      6   19       ; "/Lotus/Language/Menu/SocialOverlay_TooLong"
3A01  D7010000           [63] loadbool   7   0   0    ; false
3A05  22810002           [64] call       4   4   2  
3A09  59010100           [65] loadk      5   4        ; "TransitionOut"
3A0D  E2408001           [66] call       3   3   1  
3A11  D7000000           [67] loadbool   3   0   0    ; false
3A15  DE000001           [68] return     3   2      
3A19  DD000500           [69] getglobal  3   20       ; 1219182105
3A1D  12010000           [70] move       4   0      
3A21  E2800001           [71] call       3   2   2  
3A25  1D410500           [72] getglobal  4   21       ; -172038630
3A29  52018001           [73] move       5   3      
3A2D  9D810500           [74] getglobal  6   22       ; Script
3A31  8EC14503           [75] gettable   6   6   279  ; "TSC_NAME"
3A35  22818001           [76] call       4   3   2  
fail op	35
3A39  63C00002           [77] close      1  
3A3D  1A800280           [78] jmp        11           ; to [90]
3A41  53010000           [79] getupval   5   0      
3A45  4E81C002           [80] gettable   5   5   258  ; 185724978
3A49  9D010300           [81] getglobal  6   12       ; mMovie
3A4D  A4414303           [82] self       6   6   269  ; 98241492
3A51  19020600           [83] loadk      8   24       ; "/Lotus/Language/Menu/Generic_Name_CENSORED"
3A55  57020000           [84] loadbool   9   0   0    ; false
3A59  A2810002           [85] call       6   4   2  
3A5D  D9010100           [86] loadk      7   4        ; "TransitionOut"
3A61  62418001           [87] call       5   3   1  
3A65  57010000           [88] loadbool   5   0   0    ; false
3A69  5E010001           [89] return     5   2      
3A6D  57018000           [90] loadbool   5   1   0    ; true
3A71  92018001           [91] move       6   3      
3A75  5E018001           [92] return     5   3      
3A79  1E008000           [93] return     0   1      
                         * constants:
3A7D  19                 sizek (25)
3A7E  00                 const type 0
                         const [0]: nil
3A7F  04                 const type 4
3A80  01                 string size (0)
                         const [1]: ""
3A82  01                 const type 3
3A83  32F0110B           const [2]: (185724978)
3A87  04                 const type 4
3A88  29                 string size (41)
3A89  2F4C6F7475732F4C+  "/Lotus/L"
3A91  616E67756167652F+  "anguage/"
3A99  4D656E752F4C6F61+  "Menu/Loa"
3AA1  646F75745F496E76+  "dout_Inv"
3AA9  616C69644E616D65+  "alidName"
3AB1  00                 "\0"
                         const [3]: "/Lotus/Language/Menu/Loadout_InvalidName"
3AB2  04                 const type 4
3AB3  0E                 string size (14)
3AB4  5472616E73697469+  "Transiti"
3ABC  6F6E4F757400       "onOut\0"
                         const [4]: "TransitionOut"
3AC2  01                 const type 3
3AC3  670631F0           const [5]: (-265222553)
3AC7  01                 const type 3
3AC8  87AC8268           const [6]: (1753394311)
3ACC  04                 const type 4
3ACD  02                 string size (2)
3ACE  2000               " \0"
                         const [7]: " "
3AD0  01                 const type 3
3AD1  50604686           const [8]: (-2042208176)
3AD5  01                 const type 3
3AD6  CD2A391F           const [9]: (523840205)
3ADA  01                 const type 3
3ADB  692449EF           const [10]: (-280419223)
3ADF  03                 const type 3
3AE0  00000000           const [11]: (0)
3AE4  04                 const type 4
3AE5  07                 string size (7)
3AE6  6D4D6F76696500     "mMovie\0"
                         const [12]: "mMovie"
3AED  01                 const type 3
3AEE  D40BDB05           const [13]: (98241492)
3AF2  04                 const type 4
3AF3  34                 string size (52)
3AF4  2F4C6F7475732F4C+  "/Lotus/L"
3AFC  616E67756167652F+  "anguage/"
3B04  4D656E752F536F63+  "Menu/Soc"
3B0C  69616C4F7665726C+  "ialOverl"
3B14  61795F496E76616C+  "ay_Inval"
3B1C  6964436861726163+  "idCharac"
3B24  74657200           "ter\0"
                         const [14]: "/Lotus/Language/Menu/SocialOverlay_InvalidCharacter"
3B28  01                 const type 3
3B29  D68CB56C           const [15]: (1823837398)
3B2D  04                 const type 4
3B2E  07                 string size (7)
3B2F  737472696E6700     "string\0"
                         const [16]: "string"
3B36  01                 const type 3
3B37  8A2A77C6           const [17]: (-965268854)
3B3B  03                 const type 3
3B3C  0000C041           const [18]: (0)
3B40  04                 const type 4
3B41  2B                 string size (43)
3B42  2F4C6F7475732F4C+  "/Lotus/L"
3B4A  616E67756167652F+  "anguage/"
3B52  4D656E752F536F63+  "Menu/Soc"
3B5A  69616C4F7665726C+  "ialOverl"
3B62  61795F546F6F4C6F+  "ay_TooLo"
3B6A  6E6700             "ng\0"
                         const [19]: "/Lotus/Language/Menu/SocialOverlay_TooLong"
3B6D  01                 const type 3
3B6E  193EAB48           const [20]: (1219182105)
3B72  01                 const type 3
3B73  1AE6BEF5           const [21]: (-172038630)
3B77  04                 const type 4
3B78  07                 string size (7)
3B79  53637269707400     "Script\0"
                         const [22]: "Script"
3B80  04                 const type 4
3B81  09                 string size (9)
3B82  5453435F4E414D45+  "TSC_NAME"
3B8A  00                 "\0"
                         const [23]: "TSC_NAME"
3B8B  04                 const type 4
3B8C  2B                 string size (43)
3B8D  2F4C6F7475732F4C+  "/Lotus/L"
3B95  616E67756167652F+  "anguage/"
3B9D  4D656E752F47656E+  "Menu/Gen"
3BA5  657269635F4E616D+  "eric_Nam"
3BAD  655F43454E534F52+  "e_CENSOR"
3BB5  454400             "ED\0"
                         const [24]: "/Lotus/Language/Menu/Generic_Name_CENSORED"
                         * functions:
3BB8  00                 sizep (0)
                         * lines:
3BB9  5D                 sizelineinfo (93)
                         [pc] (line)
3BBA  05                 [01] (5)
3BBB  02                 [02] (5)
3BBC  00                 [03] (5)
3BBD  00                 [04] (5)
3BBE  05                 [05] (6)
3BBF  02                 [06] (6)
3BC0  00                 [07] (6)
3BC1  00                 [08] (6)
3BC2  05                 [09] (6)
3BC3  02                 [10] (7)
3BC4  00                 [11] (7)
3BC5  00                 [12] (10)
3BC6  05                 [13] (10)
3BC7  02                 [14] (10)
3BC8  00                 [15] (10)
3BC9  00                 [16] (10)
3BCA  06                 [17] (10)
3BCB  02                 [18] (10)
3BCC  00                 [19] (10)
3BCD  00                 [20] (11)
3BCE  06                 [21] (11)
3BCF  02                 [22] (11)
3BD0  00                 [23] (11)
3BD1  00                 [24] (12)
3BD2  06                 [25] (12)
3BD3  02                 [26] (12)
3BD4  00                 [27] (12)
3BD5  00                 [28] (12)
3BD6  06                 [29] (15)
3BD7  02                 [30] (15)
3BD8  00                 [31] (15)
3BD9  00                 [32] (15)
3BDA  06                 [33] (16)
3BDB  02                 [34] (16)
3BDC  00                 [35] (17)
3BDD  00                 [36] (17)
3BDE  07                 [37] (17)
3BDF  02                 [38] (17)
3BE0  00                 [39] (17)
3BE1  00                 [40] (17)
3BE2  07                 [41] (17)
3BE3  02                 [42] (17)
3BE4  00                 [43] (17)
3BE5  00                 [44] (17)
3BE6  0A                 [45] (17)
3BE7  02                 [46] (17)
3BE8  00                 [47] (17)
3BE9  00                 [48] (17)
3BEA  0A                 [49] (17)
3BEB  02                 [50] (18)
3BEC  00                 [51] (18)
3BED  00                 [52] (21)
3BEE  0A                 [53] (21)
3BEF  02                 [54] (21)
3BF0  00                 [55] (21)
3BF1  00                 [56] (21)
3BF2  0A                 [57] (21)
3BF3  02                 [58] (22)
3BF4  00                 [59] (22)
3BF5  00                 [60] (22)
3BF6  0A                 [61] (22)
3BF7  02                 [62] (22)
3BF8  00                 [63] (22)
3BF9  00                 [64] (22)
3BFA  0A                 [65] (22)
3BFB  02                 [66] (22)
3BFC  00                 [67] (23)
3BFD  00                 [68] (23)
3BFE  0A                 [69] (26)
3BFF  02                 [70] (26)
3C00  00                 [71] (26)
3C01  00                 [72] (27)
3C02  0A                 [73] (27)
3C03  02                 [74] (27)
3C04  00                 [75] (27)
3C05  00                 [76] (27)
3C06  0B                 [77] (28)
3C07  02                 [78] (28)
3C08  00                 [79] (29)
3C09  00                 [80] (29)
3C0A  0B                 [81] (29)
3C0B  02                 [82] (29)
3C0C  00                 [83] (29)
3C0D  00                 [84] (29)
3C0E  0B                 [85] (29)
3C0F  02                 [86] (29)
3C10  00                 [87] (29)
3C11  00                 [88] (30)
3C12  0B                 [89] (30)
3C13  02                 [90] (33)
3C14  00                 [91] (33)
3C15  00                 [92] (33)
3C16  0C                 [93] (34)
                         * locals:
3D2E  00                 sizelocvars (0)
                         * upvalues:
3D2F  00                 sizeupvalues (0)
                         ** end of function **

                         
3D30                     ** function [27] definition (level 2)
                         ** start of function **
3D30  00                 string size (0)
                         source name: (none)
3D32  04                 line defined (548)
3D33  B0                 last line defined (560)
3D34  04                 nups (1)
3D35  01                 numparams (1)
3D36  01                 is_vararg (0)
3D37  00                 maxstacksize (8)
                         * code:
3D39  20                 sizecode (32)
3D3A  5D000000           [01] getglobal  1   0        ; 1074689893
3D3E  9D400000           [02] getglobal  2   1        ; gGameData
3D42  62800001           [03] call       1   2   2  
3D46  58000000           [04] test       1       0    ; to [6] if true
3D4A  1A000080           [05] jmp        1            ; to [7]
3D4E  1E008000           [06] return     0   1      
3D52  53000000           [07] getupval   1   0      
3D56  92000000           [08] move       2   0      
3D5A  62C00001           [09] call       1   2   3  
3D5E  58000000           [10] test       1       0    ; to [12] if true
3D62  1AC00480           [11] jmp        20           ; to [32]
3D66  DD000000           [12] getglobal  3   0        ; 1074689893
3D6A  1D810000           [13] getglobal  4   2        ; _T
3D6E  0EC14002           [14] gettable   4   4   259  ; "DecoTemplateRoot"
3D72  E2800001           [15] call       3   2   2  
3D76  D8400000           [16] test       3       1    ; to [18] if false
3D7A  1A400380           [17] jmp        14           ; to [32]
3D7E  DD800000           [18] getglobal  3   2        ; _T
3D82  1D410000           [19] getglobal  4   1        ; gGameData
3D86  24414102           [20] self       4   4   261  ; 598584122
3D8A  9D810000           [21] getglobal  6   2        ; _T
3D8E  8EC14003           [22] gettable   6   6   259  ; "DecoTemplateRoot"
3D92  D2010000           [23] move       7   0      
3D96  22810002           [24] call       4   4   2  
3D9A  CC000182           [25] settable   3   260 4    ; "decoTemplate"
3D9E  DD400000           [26] getglobal  3   1        ; gGameData
3DA2  E480C101           [27] self       3   3   262  ; 1156478376
3DA6  5D810000           [28] getglobal  5   2        ; _T
3DAA  4E01C102           [29] gettable   5   5   260  ; "decoTemplate"
3DAE  99C10100           [30] loadk      6   7        ; "OnUploadDecoTemplate"
3DB2  E2400002           [31] call       3   4   1  
3DB6  1E008000           [32] return     0   1      
                         * constants:
3DBA  08                 sizek (8)
3DBB  01                 const type 3
3DBC  65770E40           const [0]: (1074689893)
3DC0  04                 const type 4
3DC1  0A                 string size (10)
3DC2  6747616D65446174+  "gGameDat"
3DCA  6100               "a\0"
                         const [1]: "gGameData"
3DCC  04                 const type 4
3DCD  03                 string size (3)
3DCE  5F5400             "_T\0"
                         const [2]: "_T"
3DD1  04                 const type 4
3DD2  11                 string size (17)
3DD3  4465636F54656D70+  "DecoTemp"
3DDB  6C617465526F6F74+  "lateRoot"
3DE3  00                 "\0"
                         const [3]: "DecoTemplateRoot"
3DE4  04                 const type 4
3DE5  0D                 string size (13)
3DE6  6465636F54656D70+  "decoTemp"
3DEE  6C61746500         "late\0"
                         const [4]: "decoTemplate"
3DF3  01                 const type 3
3DF4  3AABAD23           const [5]: (598584122)
3DF8  01                 const type 3
3DF9  A875EE44           const [6]: (1156478376)
3DFD  04                 const type 4
3DFE  15                 string size (21)
3DFF  4F6E55706C6F6164+  "OnUpload"
3E07  4465636F54656D70+  "DecoTemp"
3E0F  6C61746500         "late\0"
                         const [7]: "OnUploadDecoTemplate"
                         * functions:
3E14  00                 sizep (0)
                         * lines:
3E15  20                 sizelineinfo (32)
                         [pc] (line)
3E16  25                 [01] (37)
3E17  02                 [02] (37)
3E18  00                 [03] (37)
3E19  00                 [04] (37)
3E1A  25                 [05] (37)
3E1B  02                 [06] (38)
3E1C  00                 [07] (41)
3E1D  00                 [08] (41)
3E1E  25                 [09] (41)
3E1F  02                 [10] (42)
3E20  00                 [11] (42)
3E21  00                 [12] (43)
3E22  25                 [13] (43)
3E23  02                 [14] (43)
3E24  00                 [15] (43)
3E25  00                 [16] (43)
3E26  25                 [17] (43)
3E27  02                 [18] (44)
3E28  00                 [19] (44)
3E29  00                 [20] (44)
3E2A  26                 [21] (44)
3E2B  02                 [22] (44)
3E2C  00                 [23] (44)
3E2D  00                 [24] (44)
3E2E  29                 [25] (44)
3E2F  02                 [26] (45)
3E30  00                 [27] (45)
3E31  00                 [28] (45)
3E32  29                 [29] (45)
3E33  02                 [30] (45)
3E34  00                 [31] (45)
3E35  00                 [32] (48)
                         * locals:
3E96  00                 sizelocvars (0)
                         * upvalues:
3E97  00                 sizeupvalues (0)
                         ** end of function **

                         
3E98                     ** function [28] definition (level 2)
                         ** start of function **
3E98  00                 string size (0)
                         source name: (none)
3E9A  04                 line defined (562)
3E9B  B6                 last line defined (566)
3E9C  04                 nups (1)
3E9D  01                 numparams (3)
3E9E  03                 is_vararg (0)
3E9F  00                 maxstacksize (5)
                         * code:
3EA1  10                 sizecode (16)
3EA2  DD000000           [01] getglobal  3   0        ; 1074689893
3EA6  12010001           [02] move       4   2      
3EAA  E2800001           [03] call       3   2   2  
3EAE  D8400000           [04] test       3       1    ; to [6] if false
3EB2  1A400280           [05] jmp        10           ; to [16]
3EB6  DD400000           [06] getglobal  3   1        ; -174740002
3EBA  12010001           [07] move       4   2      
3EBE  E2800001           [08] call       3   2   2  
3EC2  1D810000           [09] getglobal  4   2        ; Engine
3EC6  0EC14002           [10] gettable   4   4   259  ; "CI_SELECT"
fail op	35
3ECA  23008101           [11] close      0  
3ECE  1A800080           [12] jmp        3            ; to [16]
3ED2  D3000000           [13] getupval   3   0      
3ED6  12010000           [14] move       4   0      
3EDA  E2400001           [15] call       3   2   1  
3EDE  1E008000           [16] return     0   1      
                         * constants:
3EE2  04                 sizek (4)
3EE3  01                 const type 3
3EE4  65770E40           const [0]: (1074689893)
3EE8  01                 const type 3
3EE9  DEAD95F5           const [1]: (-174740002)
3EED  04                 const type 4
3EEE  07                 string size (7)
3EEF  456E67696E6500     "Engine\0"
                         const [2]: "Engine"
3EF6  04                 const type 4
3EF7  0A                 string size (10)
3EF8  43495F53454C4543+  "CI_SELEC"
3F00  5400               "T\0"
                         const [3]: "CI_SELECT"
                         * functions:
3F02  00                 sizep (0)
                         * lines:
3F03  10                 sizelineinfo (16)
                         [pc] (line)
3F04  33                 [01] (51)
3F05  02                 [02] (51)
3F06  00                 [03] (51)
3F07  00                 [04] (51)
3F08  33                 [05] (51)
3F09  02                 [06] (51)
3F0A  00                 [07] (51)
3F0B  00                 [08] (51)
3F0C  33                 [09] (51)
3F0D  02                 [10] (51)
3F0E  00                 [11] (51)
3F0F  00                 [12] (51)
3F10  33                 [13] (52)
3F11  02                 [14] (52)
3F12  00                 [15] (52)
3F13  00                 [16] (54)
                         * locals:
3F44  00                 sizelocvars (0)
                         * upvalues:
3F45  00                 sizeupvalues (0)
                         ** end of function **

                         
3F46                     ** function [29] definition (level 2)
                         ** start of function **
3F46  00                 string size (0)
                         source name: (none)
3F48  04                 line defined (568)
3F49  BC                 last line defined (572)
3F4A  04                 nups (1)
3F4B  01                 numparams (2)
3F4C  02                 is_vararg (0)
3F4D  00                 maxstacksize (4)
                         * code:
3F4F  06                 sizecode (6)
3F50  18400000           [1] test       0       1    ; to [3] if false
3F54  1A800080           [2] jmp        3            ; to [6]
3F58  93000000           [3] getupval   2   0      
3F5C  D2008000           [4] move       3   1      
3F60  A2400001           [5] call       2   2   1  
3F64  1E008000           [6] return     0   1      
                         * constants:
3F68  00                 sizek (0)
                         * functions:
3F69  00                 sizep (0)
                         * lines:
3F6A  06                 sizelineinfo (6)
                         [pc] (line)
3F6B  39                 [1] (57)
3F6C  02                 [2] (57)
3F6D  00                 [3] (58)
3F6E  00                 [4] (58)
3F6F  39                 [5] (58)
3F70  02                 [6] (60)
                         * locals:
3F83  00                 sizelocvars (0)
                         * upvalues:
3F84  00                 sizeupvalues (0)
                         ** end of function **

                         
3F85                     ** function [30] definition (level 2)
                         ** start of function **
3F85  00                 string size (0)
                         source name: (none)
3F87  04                 line defined (574)
3F88  D7                 last line defined (599)
3F89  04                 nups (4)
3F8A  04                 numparams (2)
3F8B  02                 is_vararg (0)
3F8C  00                 maxstacksize (8)
                         * code:
3F8E  52                 sizecode (82)
3F8F  9D000000           [01] getglobal  2   0        ; 1074689893
3F93  D3000000           [02] getupval   3   0      
3F97  A2800001           [03] call       2   2   2  
3F9B  98400000           [04] test       2       1    ; to [6] if false
3F9F  1AC01280           [05] jmp        76           ; to [82]
3FA3  18000000           [06] test       0       0    ; to [8] if true
3FA7  1A400F80           [07] jmp        62           ; to [70]
3FAB  9D400000           [08] getglobal  2   1        ; cjson
3FAF  8E804001           [09] gettable   2   2   258  ; -1976663275
3FB3  D2008000           [10] move       3   1      
3FB7  A2800001           [11] call       2   2   2  
3FBB  DD000000           [12] getglobal  3   0        ; 1074689893
3FBF  0EC14001           [13] gettable   4   2   259  ; "error"
3FC3  E2800001           [14] call       3   2   2  
3FC7  D8400000           [15] test       3       1    ; to [17] if false
3FCB  1A800980           [16] jmp        39           ; to [56]
3FCF  D3000000           [17] getupval   3   0      
3FD3  E400C101           [18] self       3   3   260  ; 877041645
3FD7  E2400001           [19] call       3   2   1  
3FDB  CEC04001           [20] gettable   3   2   259  ; "error"
fail op	35
3FDF  2340C101           [21] close      0  
3FE3  1A400280           [22] jmp        10           ; to [33]
3FE7  D3008000           [23] getupval   3   1      
3FEB  CE80C101           [24] gettable   3   3   262  ; 185724978
3FEF  1DC10100           [25] getglobal  4   7        ; mMovie
3FF3  24014202           [26] self       4   4   264  ; 98241492
3FF7  99410200           [27] loadk      6   9        ; "/Lotus/Language/Dojo/DecoTemplateOutOfSlots"
3FFB  D7010000           [28] loadbool   7   0   0    ; false
3FFF  22810002           [29] call       4   4   2  
4003  59810200           [30] loadk      5   10       ; "TransitionOut"
4007  E2408001           [31] call       3   3   1  
400B  1A000C80           [32] jmp        49           ; to [82]
400F  CEC04001           [33] gettable   3   2   259  ; "error"
fail op	35
4013  23C0C201           [34] close      0  
4017  1A400280           [35] jmp        10           ; to [46]
401B  D3008000           [36] getupval   3   1      
401F  CE80C101           [37] gettable   3   3   262  ; 185724978
4023  1DC10100           [38] getglobal  4   7        ; mMovie
4027  24014202           [39] self       4   4   264  ; 98241492
402B  99010300           [40] loadk      6   12       ; "/Lotus/Language/Dojo/DecoTemplateSlotsFull"
402F  D7010000           [41] loadbool   7   0   0    ; false
4033  22810002           [42] call       4   4   2  
4037  59810200           [43] loadk      5   10       ; "TransitionOut"
403B  E2408001           [44] call       3   3   1  
403F  1AC00880           [45] jmp        36           ; to [82]
4043  D3008000           [46] getupval   3   1      
4047  CE80C101           [47] gettable   3   3   262  ; 185724978
404B  1DC10100           [48] getglobal  4   7        ; mMovie
404F  24014202           [49] self       4   4   264  ; 98241492
4053  99410300           [50] loadk      6   13       ; "/Lotus/Language/Dojo/DecoTemplateUploadError"
4057  D7010000           [51] loadbool   7   0   0    ; false
405B  22810002           [52] call       4   4   2  
405F  59810200           [53] loadk      5   10       ; "TransitionOut"
4063  E2408001           [54] call       3   3   1  
4067  1A400680           [55] jmp        26           ; to [82]
406B  DD000000           [56] getglobal  3   0        ; 1074689893
406F  0E814301           [57] gettable   4   2   270  ; "$oid"
4073  E2800001           [58] call       3   2   2  
4077  D8400000           [59] test       3       1    ; to [61] if false
407B  1A000580           [60] jmp        21           ; to [82]
407F  D3000000           [61] getupval   3   0      
4083  E4C0C301           [62] self       3   3   271  ; 2073101638
4087  4E814301           [63] gettable   5   2   270  ; "$oid"
408B  E2408001           [64] call       3   3   1  
408F  D3000001           [65] getupval   3   2      
4093  E2408000           [66] call       3   1   1  
4097  D3008001           [67] getupval   3   3      
409B  E2408000           [68] call       3   1   1  
409F  1AC00280           [69] jmp        12           ; to [82]
40A3  D3000000           [70] getupval   3   0      
40A7  E400C101           [71] self       3   3   260  ; 877041645
40AB  E2400001           [72] call       3   2   1  
40AF  D3008000           [73] getupval   3   1      
40B3  CE80C101           [74] gettable   3   3   262  ; 185724978
40B7  1DC10100           [75] getglobal  4   7        ; mMovie
40BB  24014202           [76] self       4   4   264  ; 98241492
40BF  99410300           [77] loadk      6   13       ; "/Lotus/Language/Dojo/DecoTemplateUploadError"
40C3  D7010000           [78] loadbool   7   0   0    ; false
40C7  22810002           [79] call       4   4   2  
40CB  59810200           [80] loadk      5   10       ; "TransitionOut"
40CF  E2408001           [81] call       3   3   1  
40D3  1E008000           [82] return     0   1      
                         * constants:
40D7  10                 sizek (16)
40D8  01                 const type 3
40D9  65770E40           const [0]: (1074689893)
40DD  04                 const type 4
40DE  06                 string size (6)
40DF  636A736F6E00       "cjson\0"
                         const [1]: "cjson"
40E5  01                 const type 3
40E6  15832E8A           const [2]: (-1976663275)
40EA  04                 const type 4
40EB  06                 string size (6)
40EC  6572726F7200       "error\0"
                         const [3]: "error"
40F2  01                 const type 3
40F3  ED974634           const [4]: (877041645)
40F7  03                 const type 3
40F8  0000803F           const [5]: (0)
40FC  01                 const type 3
40FD  32F0110B           const [6]: (185724978)
4101  04                 const type 4
4102  07                 string size (7)
4103  6D4D6F76696500     "mMovie\0"
                         const [7]: "mMovie"
410A  01                 const type 3
410B  D40BDB05           const [8]: (98241492)
410F  04                 const type 4
4110  2C                 string size (44)
4111  2F4C6F7475732F4C+  "/Lotus/L"
4119  616E67756167652F+  "anguage/"
4121  446F6A6F2F446563+  "Dojo/Dec"
4129  6F54656D706C6174+  "oTemplat"
4131  654F75744F66536C+  "eOutOfSl"
4139  6F747300           "ots\0"
                         const [9]: "/Lotus/Language/Dojo/DecoTemplateOutOfSlots"
413D  04                 const type 4
413E  0E                 string size (14)
413F  5472616E73697469+  "Transiti"
4147  6F6E4F757400       "onOut\0"
                         const [10]: "TransitionOut"
414D  03                 const type 3
414E  00000040           const [11]: (0)
4152  04                 const type 4
4153  2B                 string size (43)
4154  2F4C6F7475732F4C+  "/Lotus/L"
415C  616E67756167652F+  "anguage/"
4164  446F6A6F2F446563+  "Dojo/Dec"
416C  6F54656D706C6174+  "oTemplat"
4174  65536C6F74734675+  "eSlotsFu"
417C  6C6C00             "ll\0"
                         const [12]: "/Lotus/Language/Dojo/DecoTemplateSlotsFull"
417F  04                 const type 4
4180  2D                 string size (45)
4181  2F4C6F7475732F4C+  "/Lotus/L"
4189  616E67756167652F+  "anguage/"
4191  446F6A6F2F446563+  "Dojo/Dec"
4199  6F54656D706C6174+  "oTemplat"
41A1  6555706C6F616445+  "eUploadE"
41A9  72726F7200         "rror\0"
                         const [13]: "/Lotus/Language/Dojo/DecoTemplateUploadError"
41AE  04                 const type 4
41AF  05                 string size (5)
41B0  246F696400         "$oid\0"
                         const [14]: "$oid"
41B5  01                 const type 3
41B6  4605917B           const [15]: (2073101638)
                         * functions:
41BA  00                 sizep (0)
                         * lines:
41BB  52                 sizelineinfo (82)
                         [pc] (line)
41BC  3F                 [01] (63)
41BD  02                 [02] (63)
41BE  00                 [03] (63)
41BF  00                 [04] (63)
41C0  3F                 [05] (63)
41C1  02                 [06] (64)
41C2  00                 [07] (64)
41C3  00                 [08] (65)
41C4  3F                 [09] (65)
41C5  02                 [10] (65)
41C6  00                 [11] (65)
41C7  00                 [12] (66)
41C8  3F                 [13] (66)
41C9  02                 [14] (66)
41CA  00                 [15] (66)
41CB  00                 [16] (66)
41CC  3F                 [17] (67)
41CD  02                 [18] (67)
41CE  00                 [19] (67)
41CF  00                 [20] (68)
41D0  40                 [21] (68)
41D1  02                 [22] (68)
41D2  00                 [23] (69)
41D3  00                 [24] (69)
41D4  40                 [25] (69)
41D5  02                 [26] (69)
41D6  00                 [27] (69)
41D7  00                 [28] (69)
41D8  41                 [29] (69)
41D9  02                 [30] (69)
41DA  00                 [31] (69)
41DB  00                 [32] (69)
41DC  41                 [33] (70)
41DD  02                 [34] (70)
41DE  00                 [35] (70)
41DF  00                 [36] (71)
41E0  41                 [37] (71)
41E1  02                 [38] (71)
41E2  00                 [39] (71)
41E3  00                 [40] (71)
41E4  41                 [41] (71)
41E5  02                 [42] (71)
41E6  00                 [43] (71)
41E7  00                 [44] (71)
41E8  42                 [45] (71)
41E9  02                 [46] (73)
41EA  00                 [47] (73)
41EB  00                 [48] (73)
41EC  42                 [49] (73)
41ED  02                 [50] (73)
41EE  00                 [51] (73)
41EF  00                 [52] (73)
41F0  42                 [53] (73)
41F1  02                 [54] (73)
41F2  00                 [55] (74)
41F3  00                 [56] (76)
41F4  42                 [57] (76)
41F5  02                 [58] (76)
41F6  00                 [59] (76)
41F7  00                 [60] (76)
41F8  42                 [61] (77)
41F9  02                 [62] (77)
41FA  00                 [63] (77)
41FB  00                 [64] (77)
41FC  43                 [65] (78)
41FD  02                 [66] (78)
41FE  00                 [67] (79)
41FF  00                 [68] (79)
4200  43                 [69] (81)
4201  02                 [70] (83)
4202  00                 [71] (83)
4203  00                 [72] (83)
4204  43                 [73] (84)
4205  02                 [74] (84)
4206  00                 [75] (84)
4207  00                 [76] (84)
4208  44                 [77] (84)
4209  02                 [78] (84)
420A  00                 [79] (84)
420B  00                 [80] (84)
420C  44                 [81] (84)
420D  02                 [82] (87)
                         * locals:
4304  00                 sizelocvars (0)
                         * upvalues:
4305  00                 sizeupvalues (0)
                         ** end of function **

                         
4306                     ** function [31] definition (level 2)
                         ** start of function **
4306  00                 string size (0)
                         source name: (none)
4308  04                 line defined (602)
4309  DE                 last line defined (606)
430A  04                 nups (0)
430B  00                 numparams (2)
430C  02                 is_vararg (0)
430D  00                 maxstacksize (5)
                         * code:
430F  08                 sizecode (8)
4310  18400000           [1] test       0       1    ; to [3] if false
4314  1A000180           [2] jmp        5            ; to [8]
4318  9D000000           [3] getglobal  2   0        ; -1817107093
431C  D9400000           [4] loadk      3   1        ; "error: "
4320  12018000           [5] move       4   1      
4324  C2008101           [6] concat     3   3   4  
4328  A2400001           [7] call       2   2   1  
432C  1E008000           [8] return     0   1      
                         * constants:
4330  02                 sizek (2)
4331  01                 const type 3
4332  6B25B193           const [0]: (-1817107093)
4336  04                 const type 4
4337  08                 string size (8)
4338  6572726F723A2000   "error: \0"
                         const [1]: "error: "
                         * functions:
4340  00                 sizep (0)
                         * lines:
4341  08                 sizelineinfo (8)
                         [pc] (line)
4342  5B                 [1] (91)
4343  02                 [2] (91)
4344  00                 [3] (92)
4345  00                 [4] (92)
4346  5B                 [5] (92)
4347  02                 [6] (92)
4348  00                 [7] (92)
4349  00                 [8] (94)
                         * locals:
4362  00                 sizelocvars (0)
                         * upvalues:
4363  00                 sizeupvalues (0)
                         ** end of function **

                         
4364                     ** function [32] definition (level 2)
                         ** start of function **
4364  00                 string size (0)
                         source name: (none)
4366  04                 line defined (608)
4367  A3                 last line defined (675)
4368  05                 nups (9)
4369  09                 numparams (0)
436A  00                 is_vararg (0)
436B  00                 maxstacksize (22)
                         * code:
436E  01                 sizecode (173)
436F  0B000000           [001] newtable   0   0   0    ; array=0, hash=0
4373  59000000           [002] loadk      1   0        ; 0
4377  9D400000           [003] getglobal  2   1        ; 1074689893
437B  D3000000           [004] getupval   3   0      
437F  A2800001           [005] call       2   2   2  
4383  98400000           [006] test       2       1    ; to [8] if false
4387  1AC01A80           [007] jmp        108          ; to [116]
438B  97008000           [008] loadbool   2   1   0    ; true
438F  D9800000           [009] loadk      3   2        ; ""
4393  17010000           [010] loadbool   4   0   0    ; false
4397  59C10000           [011] loadk      5   3        ; 0
439B  93018000           [012] getupval   6   1      
439F  8E014103           [013] gettable   6   6   260  ; 696536084
43A3  D3010000           [014] getupval   7   0      
43A7  A2C10001           [015] call       6   2   3  
43AB  D9400100           [016] loadk      3   5        ; "/Lotus/Language/Menu/Global_BuyItem"
43AF  98010000           [017] test       6       0    ; to [19] if true
43B3  1A400080           [018] jmp        2            ; to [21]
43B7  D9800100           [019] loadk      3   6        ; "/Lotus/Language/Menu/Item_CannotPurchaseXPLocked"
43BB  97000000           [020] loadbool   2   0   0    ; false
43BF  98000000           [021] test       2       0    ; to [23] if true
43C3  1AC00080           [022] jmp        4            ; to [27]
fail op	33
43C7  21408100           [023] tforloop   0       5    ; to [25] if exit
43CB  1A400080           [024] jmp        2            ; to [27]
43CF  97000000           [025] loadbool   2   0   0    ; false
43D3  D9C00100           [026] loadk      3   7        ; "/Lotus/Language/Menu/Item_CannotPurchaseAlreadyOwned"
43D7  1D020200           [027] getglobal  8   8        ; gGameConfig
43DB  24424204           [028] self       8   8   265  ; -1981466301
43DF  22820001           [029] call       8   2   2  
43E3  18020000           [030] test       8       0    ; to [32] if true
43E7  1A400080           [031] jmp        2            ; to [34]
43EB  D9800200           [032] loadk      3   10       ; "/Lotus/Language/Menu/DetailedPurchase_NewBuild_Short"
43EF  97000000           [033] loadbool   2   0   0    ; false
43F3  17020000           [034] loadbool   8   0   0    ; false
43F7  46020005           [035] loadnil    9   10     
43FB  DD420000           [036] getglobal  11  1        ; 1074689893
43FF  12038004           [037] move       12  9      
4403  E2820001           [038] call       11  2   2  
4407  D8020000           [039] test       11      0    ; to [41] if true
440B  1A000380           [040] jmp        13           ; to [54]
440F  DD420000           [041] getglobal  11  1        ; 1074689893
4413  1DC30200           [042] getglobal  12  11       ; gGameRules
4417  E2820001           [043] call       11  2   2  
441B  D8420000           [044] test       11      1    ; to [46] if false
441F  1AC00180           [045] jmp        8            ; to [54]
4423  DDC20200           [046] getglobal  11  11       ; gGameRules
4427  E402C305           [047] self       11  11  268  ; -1049586730
442B  E2820001           [048] call       11  2   2  
442F  52028005           [049] move       9   11     
4433  D3020001           [050] getupval   11  2      
4437  E442C305           [051] self       11  11  269  ; 1865287165
443B  E2820001           [052] call       11  2   2  
443F  92028005           [053] move       10  11     
4443  D3028001           [054] getupval   11  3      
4447  CE82C305           [055] gettable   11  11  270  ; -2027534808
444B  12038004           [056] move       12  9      
444F  52030005           [057] move       13  10     
4453  93030000           [058] getupval   14  0      
4457  E2820002           [059] call       11  4   2  
445B  13030000           [060] getupval   12  0      
445F  24C34306           [061] self       12  12  271  ; 1096827414
4463  99C30000           [062] loadk      14  3        ; 0
4467  22838001           [063] call       12  3   2  
446B  53030000           [064] getupval   13  0      
446F  6403C406           [065] self       13  13  272  ; -441311171
4473  D9C30000           [066] loadk      15  3        ; 0
4477  62838001           [067] call       13  3   2  
fail op	21
447B  55008381           [068] concat     1   259 12 
447F  1A000080           [069] jmp        1            ; to [71]
4483  17420000           [070] loadbool   8   0   1    ; false, to [72]
4487  17028000           [071] loadbool   8   1   0    ; true
fail op	21
448B  55408381           [072] concat     1   259 13 
448F  1A000080           [073] jmp        1            ; to [75]
4493  17410000           [074] loadbool   4   0   1    ; false, to [76]
4497  17018000           [075] loadbool   4   1   0    ; true
449B  18010000           [076] test       4       0    ; to [78] if true
449F  1A400980           [077] jmp        38           ; to [116]
44A3  9D430400           [078] getglobal  14  17       ; mMovie
44A7  A4834407           [079] self       14  14  274  ; 98241492
44AB  12048001           [080] move       16  3      
44AF  57048000           [081] loadbool   17  1   0    ; true
44B3  A2830002           [082] call       14  4   2  
44B7  D2000007           [083] move       3   14     
44BB  9DC30400           [084] getglobal  14  19       ; Engine
44BF  8E034507           [085] gettable   14  14  276  ; -1802437008
44C3  A2838000           [086] call       14  1   2  
44C7  98030000           [087] test       14      0    ; to [89] if true
44CB  1AC00180           [088] jmp        8            ; to [97]
44CF  9D430400           [089] getglobal  14  17       ; mMovie
44D3  A4834407           [090] self       14  14  274  ; 98241492
44D7  19440500           [091] loadk      16  21       ; "<MENU_SELECT>"
44DB  57048000           [092] loadbool   17  1   0    ; true
44DF  A2830002           [093] call       14  4   2  
44E3  D9830500           [094] loadk      15  22       ; " "
44E7  12048001           [095] move       16  3      
44EB  C2000407           [096] concat     3   14  16 
44EF  A5030000           [097] closure    14  0      
44F3  13000002           [098] getupval   0   4      
44F7  DDC30500           [099] getglobal  15  23       ; table
44FB  CE03C607           [100] gettable   15  15  280  ; -431682403
44FF  12040000           [101] move       16  0      
4503  4BC40000           [102] newtable   17  0   3    ; array=0, hash=3
4507  9D440400           [103] getglobal  18  17       ; mMovie
450B  A4844409           [104] self       18  18  274  ; 98241492
450F  12058001           [105] move       20  3      
4513  57050000           [106] loadbool   21  0   0    ; false
4517  A2840002           [107] call       18  4   2  
451B  4C84848C           [108] settable   17  281 18   ; "Label"
451F  A5440000           [109] closure    18  1      
4523  13000000           [110] getupval   0   0      
4527  12000007           [111] move       0   14     
452B  4C84048D           [112] settable   17  282 18   ; "CallBack"
452F  4C84C08D           [113] settable   17  283 258  ; "CallOut" ""
4533  E2438001           [114] call       15  3   1  
4537  91030000           [115] close      14 
453B  93038002           [116] getupval   14  5      
453F  98030000           [117] test       14      0    ; to [119] if true
4543  1A000980           [118] jmp        37           ; to [156]
4547  9D430000           [119] getglobal  14  1        ; 1074689893
454B  D3030003           [120] getupval   15  6      
454F  A2830001           [121] call       14  2   2  
4553  98430000           [122] test       14      1    ; to [124] if false
4557  1AC00780           [123] jmp        32           ; to [156]
455B  93030003           [124] getupval   14  6      
455F  8E034707           [125] gettable   14  14  284  ; "mFocusedMenuElement"
fail op	35
4563  63404707           [126] close      1  
4567  1AC00680           [127] jmp        28           ; to [156]
456B  9DC30500           [128] getglobal  14  23       ; table
456F  8E034607           [129] gettable   14  14  280  ; -431682403
4573  D2030000           [130] move       15  0      
4577  0BC40000           [131] newtable   16  0   3    ; array=0, hash=3
457B  5D440400           [132] getglobal  17  17       ; mMovie
457F  6484C408           [133] self       17  17  274  ; 98241492
4583  D9840700           [134] loadk      19  30       ; "/Lotus/Language/Dojo/DecoTemplateDelete"
4587  17050000           [135] loadbool   20  0   0    ; false
458B  62840002           [136] call       17  4   2  
458F  0C44848C           [137] settable   16  281 17   ; "Label"
4593  65840000           [138] closure    17  2      
4597  0C44048D           [139] settable   16  282 17   ; "CallBack"
459B  0C84C08D           [140] settable   16  283 258  ; "CallOut" ""
459F  A2438001           [141] call       14  3   1  
45A3  9DC30500           [142] getglobal  14  23       ; table
45A7  8E034607           [143] gettable   14  14  280  ; -431682403
45AB  D2030000           [144] move       15  0      
45AF  0BC40000           [145] newtable   16  0   3    ; array=0, hash=3
45B3  5D440400           [146] getglobal  17  17       ; mMovie
45B7  6484C408           [147] self       17  17  274  ; 98241492
45BB  D9C40700           [148] loadk      19  31       ; "/Lotus/Language/Dojo/DecoTemplatePlace"
45BF  17050000           [149] loadbool   20  0   0    ; false
45C3  62840002           [150] call       17  4   2  
45C7  0C44848C           [151] settable   16  281 17   ; "Label"
45CB  53048003           [152] getupval   17  7      
45CF  0C44048D           [153] settable   16  282 17   ; "CallBack"
45D3  0C04C88D           [154] settable   16  283 288  ; "CallOut" "MENU_SELECT"
45D7  A2438001           [155] call       14  3   1  
45DB  9DC30500           [156] getglobal  14  23       ; table
45DF  8E034607           [157] gettable   14  14  280  ; -431682403
45E3  D2030000           [158] move       15  0      
45E7  0BC40000           [159] newtable   16  0   3    ; array=0, hash=3
45EB  0C44C88C           [160] settable   16  281 289  ; "Label" "/Lotus/Language/Menu/Exit"
45EF  53040004           [161] getupval   17  8      
45F3  0C44048D           [162] settable   16  282 17   ; "CallBack"
45F7  0C84C88D           [163] settable   16  283 290  ; "CallOut" "MENU_CANCEL"
45FB  A2438001           [164] call       14  3   1  
45FF  9DC30800           [165] getglobal  14  35       ; _T
4603  8E034907           [166] gettable   14  14  292  ; -270549122
4607  DD430400           [167] getglobal  15  17       ; mMovie
460B  12040000           [168] move       16  0      
460F  5D440900           [169] getglobal  17  37       ; 1802065273
4613  99840900           [170] loadk      18  38       ; 0
4617  62040001           [171] call       17  2   0  
461B  A2430000           [172] call       14  0   1  
461F  1E008000           [173] return     0   1      
                         * constants:
4623  27                 sizek (39)
4624  03                 const type 3
4625  00002041           const [0]: (0)
4629  01                 const type 3
462A  65770E40           const [1]: (1074689893)
462E  04                 const type 4
462F  01                 string size (0)
                         const [2]: ""
4631  03                 const type 3
4632  00000000           const [3]: (0)
4636  01                 const type 3
4637  144C8429           const [4]: (696536084)
463B  04                 const type 4
463C  24                 string size (36)
463D  2F4C6F7475732F4C+  "/Lotus/L"
4645  616E67756167652F+  "anguage/"
464D  4D656E752F476C6F+  "Menu/Glo"
4655  62616C5F42757949+  "bal_BuyI"
465D  74656D00           "tem\0"
                         const [5]: "/Lotus/Language/Menu/Global_BuyItem"
4661  04                 const type 4
4662  31                 string size (49)
4663  2F4C6F7475732F4C+  "/Lotus/L"
466B  616E67756167652F+  "anguage/"
4673  4D656E752F497465+  "Menu/Ite"
467B  6D5F43616E6E6F74+  "m_Cannot"
4683  5075726368617365+  "Purchase"
468B  58504C6F636B6564+  "XPLocked"
4693  00                 "\0"
                         const [6]: "/Lotus/Language/Menu/Item_CannotPurchaseXPLocked"
4694  04                 const type 4
4695  35                 string size (53)
4696  2F4C6F7475732F4C+  "/Lotus/L"
469E  616E67756167652F+  "anguage/"
46A6  4D656E752F497465+  "Menu/Ite"
46AE  6D5F43616E6E6F74+  "m_Cannot"
46B6  5075726368617365+  "Purchase"
46BE  416C72656164794F+  "AlreadyO"
46C6  776E656400         "wned\0"
                         const [7]: "/Lotus/Language/Menu/Item_CannotPurchaseAlreadyOwned"
46CB  04                 const type 4
46CC  0C                 string size (12)
46CD  6747616D65436F6E+  "gGameCon"
46D5  66696700           "fig\0"
                         const [8]: "gGameConfig"
46D9  01                 const type 3
46DA  4339E589           const [9]: (-1981466301)
46DE  04                 const type 4
46DF  35                 string size (53)
46E0  2F4C6F7475732F4C+  "/Lotus/L"
46E8  616E67756167652F+  "anguage/"
46F0  4D656E752F446574+  "Menu/Det"
46F8  61696C6564507572+  "ailedPur"
4700  63686173655F4E65+  "chase_Ne"
4708  774275696C645F53+  "wBuild_S"
4710  686F727400         "hort\0"
                         const [10]: "/Lotus/Language/Menu/DetailedPurchase_NewBuild_Short"
4715  04                 const type 4
4716  0B                 string size (11)
4717  6747616D6552756C+  "gGameRul"
471F  657300             "es\0"
                         const [11]: "gGameRules"
4722  01                 const type 3
4723  D69370C1           const [12]: (-1049586730)
4727  01                 const type 3
4728  FD052E6F           const [13]: (1865287165)
472C  01                 const type 3
472D  28462687           const [14]: (-2027534808)
4731  01                 const type 3
4732  16426041           const [15]: (1096827414)
4736  01                 const type 3
4737  3D20B2E5           const [16]: (-441311171)
473B  04                 const type 4
473C  07                 string size (7)
473D  6D4D6F76696500     "mMovie\0"
                         const [17]: "mMovie"
4744  01                 const type 3
4745  D40BDB05           const [18]: (98241492)
4749  04                 const type 4
474A  07                 string size (7)
474B  456E67696E6500     "Engine\0"
                         const [19]: "Engine"
4752  01                 const type 3
4753  70FE9094           const [20]: (-1802437008)
4757  04                 const type 4
4758  0E                 string size (14)
4759  3C4D454E555F5345+  "<MENU_SE"
4761  4C4543543E00       "LECT>\0"
                         const [21]: "<MENU_SELECT>"
4767  04                 const type 4
4768  02                 string size (2)
4769  2000               " \0"
                         const [22]: " "
476B  04                 const type 4
476C  06                 string size (6)
476D  7461626C6500       "table\0"
                         const [23]: "table"
4773  01                 const type 3
4774  9D0C45E6           const [24]: (-431682403)
4778  04                 const type 4
4779  06                 string size (6)
477A  4C6162656C00       "Label\0"
                         const [25]: "Label"
4780  04                 const type 4
4781  09                 string size (9)
4782  43616C6C4261636B+  "CallBack"
478A  00                 "\0"
                         const [26]: "CallBack"
478B  04                 const type 4
478C  08                 string size (8)
478D  43616C6C4F757400   "CallOut\0"
                         const [27]: "CallOut"
4795  04                 const type 4
4796  14                 string size (20)
4797  6D466F6375736564+  "mFocused"
479F  4D656E75456C656D+  "MenuElem"
47A7  656E7400           "ent\0"
                         const [28]: "mFocusedMenuElement"
47AB  00                 const type 0
                         const [29]: nil
47AC  04                 const type 4
47AD  28                 string size (40)
47AE  2F4C6F7475732F4C+  "/Lotus/L"
47B6  616E67756167652F+  "anguage/"
47BE  446F6A6F2F446563+  "Dojo/Dec"
47C6  6F54656D706C6174+  "oTemplat"
47CE  6544656C65746500   "eDelete\0"
                         const [30]: "/Lotus/Language/Dojo/DecoTemplateDelete"
47D6  04                 const type 4
47D7  27                 string size (39)
47D8  2F4C6F7475732F4C+  "/Lotus/L"
47E0  616E67756167652F+  "anguage/"
47E8  446F6A6F2F446563+  "Dojo/Dec"
47F0  6F54656D706C6174+  "oTemplat"
47F8  65506C61636500     "ePlace\0"
                         const [31]: "/Lotus/Language/Dojo/DecoTemplatePlace"
47FF  04                 const type 4
4800  0C                 string size (12)
4801  4D454E555F53454C+  "MENU_SEL"
4809  45435400           "ECT\0"
                         const [32]: "MENU_SELECT"
480D  04                 const type 4
480E  1A                 string size (26)
480F  2F4C6F7475732F4C+  "/Lotus/L"
4817  616E67756167652F+  "anguage/"
481F  4D656E752F457869+  "Menu/Exi"
4827  7400               "t\0"
                         const [33]: "/Lotus/Language/Menu/Exit"
4829  04                 const type 4
482A  0C                 string size (12)
482B  4D454E555F43414E+  "MENU_CAN"
4833  43454C00           "CEL\0"
                         const [34]: "MENU_CANCEL"
4837  04                 const type 4
4838  03                 string size (3)
4839  5F5400             "_T\0"
                         const [35]: "_T"
483C  01                 const type 3
483D  7EBFDFEF           const [36]: (-270549122)
4841  01                 const type 3
4842  7955696B           const [37]: (1802065273)
4846  03                 const type 3
4847  0000803F           const [38]: (0)
                         * functions:
484B  03                 sizep (3)
                         
484C                     ** function [0] definition (level 3)
                         ** start of function **
484C  00                 string size (0)
                         source name: (none)
484E  05                 line defined (664)
484F  98                 last line defined (664)
4850  05                 nups (1)
4851  01                 numparams (2)
4852  02                 is_vararg (0)
4853  00                 maxstacksize (5)
                         * code:
4855  05                 sizecode (5)
4856  93000000           [1] getupval   2   0      
485A  D2000000           [2] move       3   0      
485E  12018000           [3] move       4   1      
4862  A2408001           [4] call       2   3   1  
4866  1E008000           [5] return     0   1      
                         * constants:
486A  00                 sizek (0)
                         * functions:
486B  00                 sizep (0)
                         * lines:
486C  05                 sizelineinfo (5)
                         [pc] (line)
486D  98                 [1] (-104)
486E  02                 [2] (-104)
486F  00                 [3] (-104)
4870  00                 [4] (-104)
4871  98                 [5] (-104)
                         * locals:
4881  00                 sizelocvars (0)
                         * upvalues:
4882  00                 sizeupvalues (0)
                         ** end of function **

                         
4883                     ** function [1] definition (level 3)
                         ** start of function **
4883  00                 string size (0)
                         source name: (none)
4885  05                 line defined (665)
4886  99                 last line defined (665)
4887  05                 nups (2)
4888  02                 numparams (0)
4889  00                 is_vararg (0)
488A  00                 maxstacksize (4)
                         * code:
488C  07                 sizecode (7)
488D  1D000000           [1] getglobal  0   0        ; _T
4891  0E404000           [2] gettable   0   0   257  ; 204260622
4895  53000000           [3] getupval   1   0      
4899  93008000           [4] getupval   2   1      
489D  D9800000           [5] loadk      3   2        ; 0
48A1  22400002           [6] call       0   4   1  
48A5  1E008000           [7] return     0   1      
                         * constants:
48A9  03                 sizek (3)
48AA  04                 const type 4
48AB  03                 string size (3)
48AC  5F5400             "_T\0"
                         const [0]: "_T"
48AF  01                 const type 3
48B0  0EC52C0C           const [1]: (204260622)
48B4  03                 const type 3
48B5  0000803F           const [2]: (0)
                         * functions:
48B9  00                 sizep (0)
                         * lines:
48BA  07                 sizelineinfo (7)
                         [pc] (line)
48BB  99                 [1] (-103)
48BC  02                 [2] (-103)
48BD  00                 [3] (-103)
48BE  00                 [4] (-103)
48BF  99                 [5] (-103)
48C0  02                 [6] (-103)
48C1  00                 [7] (-103)
                         * locals:
48D7  00                 sizelocvars (0)
                         * upvalues:
48D8  00                 sizeupvalues (0)
                         ** end of function **

                         
48D9                     ** function [2] definition (level 3)
                         ** start of function **
48D9  00                 string size (0)
                         source name: (none)
48DB  05                 line defined (670)
48DC  9E                 last line defined (670)
48DD  05                 nups (0)
48DE  00                 numparams (0)
48DF  00                 is_vararg (0)
48E0  00                 maxstacksize (4)
                         * code:
48E2  06                 sizecode (6)
48E3  1D000000           [1] getglobal  0   0        ; mMovie
48E7  24404000           [2] self       0   0   257  ; 1167009705
48EB  99800000           [3] loadk      2   2        ; "DeleteDeco"
48EF  D9C00000           [4] loadk      3   3        ; ""
48F3  22400002           [5] call       0   4   1  
48F7  1E008000           [6] return     0   1      
                         * constants:
48FB  04                 sizek (4)
48FC  04                 const type 4
48FD  07                 string size (7)
48FE  6D4D6F76696500     "mMovie\0"
                         const [0]: "mMovie"
4905  01                 const type 3
4906  A9278F45           const [1]: (1167009705)
490A  04                 const type 4
490B  0B                 string size (11)
490C  44656C6574654465+  "DeleteDe"
4914  636F00             "co\0"
                         const [2]: "DeleteDeco"
4917  04                 const type 4
4918  01                 string size (0)
                         const [3]: ""
                         * functions:
491A  00                 sizep (0)
                         * lines:
491B  06                 sizelineinfo (6)
                         [pc] (line)
491C  9E                 [1] (-98)
491D  02                 [2] (-98)
491E  00                 [3] (-98)
491F  00                 [4] (-98)
4920  9E                 [5] (-98)
4921  02                 [6] (-98)
                         * locals:
4934  00                 sizelocvars (0)
                         * upvalues:
4935  00                 sizeupvalues (0)
                         ** end of function **

                         * lines:
4937  01                 sizelineinfo (173)
                         [pc] (line)
4938  61                 [001] (97)
4939  02                 [002] (99)
493A  00                 [003] (100)
493B  00                 [004] (100)
493C  63                 [005] (100)
493D  02                 [006] (100)
493E  00                 [007] (100)
493F  00                 [008] (102)
4940  64                 [009] (103)
4941  02                 [010] (104)
4942  00                 [011] (105)
4943  00                 [012] (107)
4944  64                 [013] (107)
4945  02                 [014] (107)
4946  00                 [015] (107)
4947  00                 [016] (108)
4948  64                 [017] (110)
4949  02                 [018] (110)
494A  00                 [019] (111)
494B  00                 [020] (112)
494C  64                 [021] (115)
494D  02                 [022] (115)
494E  00                 [023] (116)
494F  00                 [024] (116)
4950  64                 [025] (117)
4951  02                 [026] (118)
4952  00                 [027] (122)
4953  00                 [028] (122)
4954  66                 [029] (122)
4955  02                 [030] (122)
4956  00                 [031] (122)
4957  00                 [032] (123)
4958  67                 [033] (124)
4959  02                 [034] (127)
495A  00                 [035] (-127)
495B  00                 [036] (-125)
495C  68                 [037] (-125)
495D  02                 [038] (-125)
495E  00                 [039] (-125)
495F  00                 [040] (-125)
4960  69                 [041] (-125)
4961  02                 [042] (-125)
4962  00                 [043] (-125)
4963  00                 [044] (-125)
4964  6B                 [045] (-125)
4965  02                 [046] (-124)
4966  00                 [047] (-124)
4967  00                 [048] (-124)
4968  6B                 [049] (-124)
4969  02                 [050] (-123)
496A  00                 [051] (-123)
496B  00                 [052] (-123)
496C  6B                 [053] (-123)
496D  02                 [054] (-120)
496E  00                 [055] (-120)
496F  00                 [056] (-120)
4970  6B                 [057] (-120)
4971  02                 [058] (-120)
4972  00                 [059] (-120)
4973  00                 [060] (-117)
4974  6C                 [061] (-117)
4975  02                 [062] (-117)
4976  00                 [063] (-117)
4977  00                 [064] (-116)
4978  6E                 [065] (-116)
4979  02                 [066] (-116)
497A  00                 [067] (-116)
497B  00                 [068] (-114)
497C  6E                 [069] (-114)
497D  02                 [070] (-114)
497E  00                 [071] (-114)
497F  00                 [072] (-113)
4980  6F                 [073] (-113)
4981  02                 [074] (-113)
4982  00                 [075] (-113)
4983  00                 [076] (-110)
4984  70                 [077] (-110)
4985  02                 [078] (-109)
4986  00                 [079] (-109)
4987  00                 [080] (-109)
4988  73                 [081] (-109)
4989  02                 [082] (-109)
498A  00                 [083] (-109)
498B  00                 [084] (-108)
498C  73                 [085] (-108)
498D  02                 [086] (-108)
498E  00                 [087] (-108)
498F  00                 [088] (-108)
4990  74                 [089] (-107)
4991  02                 [090] (-107)
4992  00                 [091] (-107)
4993  00                 [092] (-107)
4994  74                 [093] (-107)
4995  02                 [094] (-107)
4996  00                 [095] (-107)
4997  00                 [096] (-107)
4998  75                 [097] (-104)
4999  02                 [098] (-104)
499A  00                 [099] (-103)
499B  00                 [100] (-103)
499C  76                 [101] (-103)
499D  02                 [102] (-103)
499E  00                 [103] (-103)
499F  00                 [104] (-103)
49A0  7A                 [105] (-103)
49A1  02                 [106] (-103)
49A2  00                 [107] (-103)
49A3  00                 [108] (-103)
49A4  7A                 [109] (-103)
49A5  02                 [110] (-103)
49A6  00                 [111] (-103)
49A7  00                 [112] (-103)
49A8  7A                 [113] (-103)
49A9  02                 [114] (-103)
49AA  00                 [115] (-103)
49AB  00                 [116] (-99)
49AC  7A                 [117] (-99)
49AD  02                 [118] (-99)
49AE  00                 [119] (-99)
49AF  00                 [120] (-99)
49B0  7A                 [121] (-99)
49B1  02                 [122] (-99)
49B2  00                 [123] (-99)
49B3  00                 [124] (-99)
49B4  7B                 [125] (-99)
49B5  02                 [126] (-99)
49B6  00                 [127] (-99)
49B7  00                 [128] (-98)
49B8  7C                 [129] (-98)
49B9  02                 [130] (-98)
49BA  00                 [131] (-98)
49BB  00                 [132] (-98)
49BC  7F                 [133] (-98)
49BD  02                 [134] (-98)
49BE  00                 [135] (-98)
49BF  00                 [136] (-98)
49C0  81                 [137] (-98)
49C1  02                 [138] (-98)
49C2  00                 [139] (-98)
49C3  00                 [140] (-98)
49C4  83                 [141] (-98)
49C5  02                 [142] (-97)
49C6  00                 [143] (-97)
49C7  00                 [144] (-97)
49C8  83                 [145] (-97)
49C9  02                 [146] (-97)
49CA  00                 [147] (-97)
49CB  00                 [148] (-97)
49CC  83                 [149] (-97)
49CD  02                 [150] (-97)
49CE  00                 [151] (-97)
49CF  00                 [152] (-97)
49D0  83                 [153] (-97)
49D1  02                 [154] (-97)
49D2  00                 [155] (-97)
49D3  00                 [156] (-95)
49D4  83                 [157] (-95)
49D5  02                 [158] (-95)
49D6  00                 [159] (-95)
49D7  00                 [160] (-95)
49D8  83                 [161] (-95)
49D9  02                 [162] (-95)
49DA  00                 [163] (-95)
49DB  00                 [164] (-95)
49DC  83                 [165] (-94)
49DD  02                 [166] (-94)
49DE  00                 [167] (-94)
49DF  00                 [168] (-94)
49E0  83                 [169] (-94)
49E1  02                 [170] (-94)
49E2  00                 [171] (-94)
49E3  00                 [172] (-94)
49E4  83                 [173] (-93)
                         * locals:
4BEC  00                 sizelocvars (0)
                         * upvalues:
4BED  00                 sizeupvalues (0)
                         ** end of function **

                         
4BEE                     ** function [33] definition (level 2)
                         ** start of function **
4BEE  00                 string size (0)
                         source name: (none)
4BF0  05                 line defined (677)
4BF1  A9                 last line defined (681)
4BF2  05                 nups (1)
4BF3  01                 numparams (1)
4BF4  01                 is_vararg (0)
4BF5  00                 maxstacksize (5)
                         * code:
4BF7  0C                 sizecode (12)
4BF8  5D000000           [01] getglobal  1   0        ; 1074689893
4BFC  93000000           [02] getupval   2   0      
4C00  62800001           [03] call       1   2   2  
4C04  58400000           [04] test       1       1    ; to [6] if false
4C08  1A400180           [05] jmp        6            ; to [12]
4C0C  53000000           [06] getupval   1   0      
4C10  6440C000           [07] self       1   1   257  ; -1967297336
4C14  DD800000           [08] getglobal  3   2        ; -174740002
4C18  12010000           [09] move       4   0      
4C1C  E2000001           [10] call       3   2   0  
4C20  62400000           [11] call       1   0   1  
4C24  1E008000           [12] return     0   1      
                         * constants:
4C28  03                 sizek (3)
4C29  01                 const type 3
4C2A  65770E40           const [0]: (1074689893)
4C2E  01                 const type 3
4C2F  C86CBD8A           const [1]: (-1967297336)
4C33  01                 const type 3
4C34  DEAD95F5           const [2]: (-174740002)
                         * functions:
4C38  00                 sizep (0)
                         * lines:
4C39  0C                 sizelineinfo (12)
                         [pc] (line)
4C3A  A6                 [01] (-90)
4C3B  02                 [02] (-90)
4C3C  00                 [03] (-90)
4C3D  00                 [04] (-90)
4C3E  A6                 [05] (-90)
4C3F  02                 [06] (-89)
4C40  00                 [07] (-89)
4C41  00                 [08] (-89)
4C42  A6                 [09] (-89)
4C43  02                 [10] (-89)
4C44  00                 [11] (-89)
4C45  00                 [12] (-87)
                         * locals:
4C6A  00                 sizelocvars (0)
                         * upvalues:
4C6B  00                 sizeupvalues (0)
                         ** end of function **

                         
4C6C                     ** function [34] definition (level 2)
                         ** start of function **
4C6C  00                 string size (0)
                         source name: (none)
4C6E  05                 line defined (683)
4C6F  AF                 last line defined (687)
4C70  05                 nups (1)
4C71  01                 numparams (1)
4C72  01                 is_vararg (0)
4C73  00                 maxstacksize (5)
                         * code:
4C75  0C                 sizecode (12)
4C76  5D000000           [01] getglobal  1   0        ; 1074689893
4C7A  93000000           [02] getupval   2   0      
4C7E  62800001           [03] call       1   2   2  
4C82  58400000           [04] test       1       1    ; to [6] if false
4C86  1A400180           [05] jmp        6            ; to [12]
4C8A  53000000           [06] getupval   1   0      
4C8E  6440C000           [07] self       1   1   257  ; 561426718
4C92  DD800000           [08] getglobal  3   2        ; -174740002
4C96  12010000           [09] move       4   0      
4C9A  E2000001           [10] call       3   2   0  
4C9E  62400000           [11] call       1   0   1  
4CA2  1E008000           [12] return     0   1      
                         * constants:
4CA6  03                 sizek (3)
4CA7  01                 const type 3
4CA8  65770E40           const [0]: (1074689893)
4CAC  01                 const type 3
4CAD  1EB17621           const [1]: (561426718)
4CB1  01                 const type 3
4CB2  DEAD95F5           const [2]: (-174740002)
                         * functions:
4CB6  00                 sizep (0)
                         * lines:
4CB7  0C                 sizelineinfo (12)
                         [pc] (line)
4CB8  AC                 [01] (-84)
4CB9  02                 [02] (-84)
4CBA  00                 [03] (-84)
4CBB  00                 [04] (-84)
4CBC  AC                 [05] (-84)
4CBD  02                 [06] (-83)
4CBE  00                 [07] (-83)
4CBF  00                 [08] (-83)
4CC0  AC                 [09] (-83)
4CC1  02                 [10] (-83)
4CC2  00                 [11] (-83)
4CC3  00                 [12] (-81)
                         * locals:
4CE8  00                 sizelocvars (0)
                         * upvalues:
4CE9  00                 sizeupvalues (0)
                         ** end of function **

                         
4CEA                     ** function [35] definition (level 2)
                         ** start of function **
4CEA  00                 string size (0)
                         source name: (none)
4CEC  05                 line defined (689)
4CED  B5                 last line defined (693)
4CEE  05                 nups (2)
4CEF  02                 numparams (1)
4CF0  01                 is_vararg (0)
4CF1  00                 maxstacksize (5)
                         * code:
4CF3  0F                 sizecode (15)
4CF4  53000000           [01] getupval   1   0      
4CF8  58400000           [02] test       1       1    ; to [4] if false
4CFC  1A800280           [03] jmp        11           ; to [15]
4D00  5D000000           [04] getglobal  1   0        ; 1074689893
4D04  93008000           [05] getupval   2   1      
4D08  62800001           [06] call       1   2   2  
4D0C  58400000           [07] test       1       1    ; to [9] if false
4D10  1A400180           [08] jmp        6            ; to [15]
4D14  53008000           [09] getupval   1   1      
4D18  6440C000           [10] self       1   1   257  ; 1002639746
4D1C  DD800000           [11] getglobal  3   2        ; -174740002
4D20  12010000           [12] move       4   0      
4D24  E2000001           [13] call       3   2   0  
4D28  62400000           [14] call       1   0   1  
4D2C  1E008000           [15] return     0   1      
                         * constants:
4D30  03                 sizek (3)
4D31  01                 const type 3
4D32  65770E40           const [0]: (1074689893)
4D36  01                 const type 3
4D37  8211C33B           const [1]: (1002639746)
4D3B  01                 const type 3
4D3C  DEAD95F5           const [2]: (-174740002)
                         * functions:
4D40  00                 sizep (0)
                         * lines:
4D41  0F                 sizelineinfo (15)
                         [pc] (line)
4D42  B2                 [01] (-78)
4D43  02                 [02] (-78)
4D44  00                 [03] (-78)
4D45  00                 [04] (-78)
4D46  B2                 [05] (-78)
4D47  02                 [06] (-78)
4D48  00                 [07] (-78)
4D49  00                 [08] (-78)
4D4A  B2                 [09] (-77)
4D4B  02                 [10] (-77)
4D4C  00                 [11] (-77)
4D4D  00                 [12] (-77)
4D4E  B2                 [13] (-77)
4D4F  02                 [14] (-77)
4D50  00                 [15] (-75)
                         * locals:
4D7E  00                 sizelocvars (0)
                         * upvalues:
4D7F  00                 sizeupvalues (0)
                         ** end of function **

                         
4D80                     ** function [36] definition (level 2)
                         ** start of function **
4D80  00                 string size (0)
                         source name: (none)
4D82  05                 line defined (695)
4D83  D4                 last line defined (724)
4D84  05                 nups (9)
4D85  09                 numparams (0)
4D86  00                 is_vararg (0)
4D87  00                 maxstacksize (3)
                         * code:
4D89  4C                 sizecode (76)
4D8A  13000000           [01] getupval   0   0      
4D8E  18000000           [02] test       0       0    ; to [4] if true
4D92  1A000180           [03] jmp        5            ; to [9]
4D96  1D000000           [04] getglobal  0   0        ; 1074689893
4D9A  5D400000           [05] getglobal  1   1        ; mMovie
4D9E  22800001           [06] call       0   2   2  
4DA2  18000000           [07] test       0       0    ; to [9] if true
4DA6  1A000080           [08] jmp        1            ; to [10]
4DAA  1E008000           [09] return     0   1      
4DAE  1D000000           [10] getglobal  0   0        ; 1074689893
4DB2  53008000           [11] getupval   1   1      
4DB6  22800001           [12] call       0   2   2  
4DBA  18400000           [13] test       0       1    ; to [15] if false
4DBE  1A000180           [14] jmp        5            ; to [20]
4DC2  13008000           [15] getupval   0   1      
4DC6  24804000           [16] self       0   0   258  ; -1938777623
4DCA  9DC00000           [17] getglobal  2   3        ; 1661359502
4DCE  A2008000           [18] call       2   1   0  
4DD2  22400000           [19] call       0   0   1  
4DD6  1D400000           [20] getglobal  0   1        ; mMovie
4DDA  24004100           [21] self       0   0   260  ; 135097114
4DDE  9DC00000           [22] getglobal  2   3        ; 1661359502
4DE2  A2008000           [23] call       2   1   0  
4DE6  22400000           [24] call       0   0   1  
4DEA  1D000000           [25] getglobal  0   0        ; 1074689893
4DEE  53000001           [26] getupval   1   2      
4DF2  4E40C100           [27] gettable   1   1   261  ; "mScrollBar"
4DF6  22800001           [28] call       0   2   2  
4DFA  18400000           [29] test       0       1    ; to [31] if false
4DFE  1A400180           [30] jmp        6            ; to [37]
4E02  13000001           [31] getupval   0   2      
4E06  0E404100           [32] gettable   0   0   261  ; "mScrollBar"
4E0A  24804000           [33] self       0   0   258  ; -1938777623
4E0E  9DC00000           [34] getglobal  2   3        ; 1661359502
4E12  A2008000           [35] call       2   1   0  
4E16  22400000           [36] call       0   0   1  
4E1A  1D000000           [37] getglobal  0   0        ; 1074689893
4E1E  53008001           [38] getupval   1   3      
4E22  4E80C100           [39] gettable   1   1   262  ; "Loader"
4E26  22800001           [40] call       0   2   2  
4E2A  18400000           [41] test       0       1    ; to [43] if false
4E2E  1A000780           [42] jmp        29           ; to [72]
4E32  13008001           [43] getupval   0   3      
4E36  0E804100           [44] gettable   0   0   262  ; "Loader"
4E3A  24C04100           [45] self       0   0   263  ; -1344420604
4E3E  22800001           [46] call       0   2   2  
4E42  18000000           [47] test       0       0    ; to [49] if true
4E46  1A800580           [48] jmp        23           ; to [72]
4E4A  13008001           [49] getupval   0   3      
4E4E  0C004283           [50] settable   0   262 264  ; "Loader" nil
4E52  13008001           [51] getupval   0   3      
4E56  0E404200           [52] gettable   0   0   265  ; "Pass"
fail op	35
4E5A  23804200           [53] close      0  
4E5E  1A000180           [54] jmp        5            ; to [60]
4E62  13008001           [55] getupval   0   3      
4E66  0CC0C284           [56] settable   0   265 267  ; "Pass" 0
4E6A  13000002           [57] getupval   0   4      
4E6E  22408000           [58] call       0   1   1  
4E72  1AC00280           [59] jmp        12           ; to [72]
4E76  13008002           [60] getupval   0   5      
4E7A  22408000           [61] call       0   1   1  
4E7E  17000000           [62] loadbool   0   0   0    ; false
fail op	8
4E82  08000003           [63] setupval   0   6      
4E86  13008003           [64] getupval   0   7      
4E8A  24004300           [65] self       0   0   268  ; -492641364
4E8E  97000000           [66] loadbool   2   0   0    ; false
4E92  22408001           [67] call       0   3   1  
4E96  13000001           [68] getupval   0   2      
4E9A  24404300           [69] self       0   0   269  ; 1865581653
4E9E  99800200           [70] loadk      2   10       ; 0
4EA2  22408001           [71] call       0   3   1  
4EA6  13000004           [72] getupval   0   8      
4EAA  5D800300           [73] getglobal  1   14       ; 1289681407
4EAE  62008000           [74] call       1   1   0  
4EB2  22400000           [75] call       0   0   1  
4EB6  1E008000           [76] return     0   1      
                         * constants:
4EBA  0F                 sizek (15)
4EBB  01                 const type 3
4EBC  65770E40           const [0]: (1074689893)
4EC0  04                 const type 4
4EC1  07                 string size (7)
4EC2  6D4D6F76696500     "mMovie\0"
                         const [1]: "mMovie"
4EC9  01                 const type 3
4ECA  E999708C           const [2]: (-1938777623)
4ECE  01                 const type 3
4ECF  8E550663           const [3]: (1661359502)
4ED3  01                 const type 3
4ED4  1A6B0D08           const [4]: (135097114)
4ED8  04                 const type 4
4ED9  0B                 string size (11)
4EDA  6D5363726F6C6C42+  "mScrollB"
4EE2  617200             "ar\0"
                         const [5]: "mScrollBar"
4EE5  04                 const type 4
4EE6  07                 string size (7)
4EE7  4C6F6164657200     "Loader\0"
                         const [6]: "Loader"
4EEE  01                 const type 3
4EEF  04C5DDAF           const [7]: (-1344420604)
4EF3  00                 const type 0
                         const [8]: nil
4EF4  04                 const type 4
4EF5  05                 string size (5)
4EF6  5061737300         "Pass\0"
                         const [9]: "Pass"
4EFB  03                 const type 3
4EFC  0000803F           const [10]: (0)
4F00  03                 const type 3
4F01  00000040           const [11]: (0)
4F05  01                 const type 3
4F06  ACE3A2E2           const [12]: (-492641364)
4F0A  01                 const type 3
4F0B  5584326F           const [13]: (1865581653)
4F0F  01                 const type 3
4F10  FFF9DE4C           const [14]: (1289681407)
                         * functions:
4F14  00                 sizep (0)
                         * lines:
4F15  4C                 sizelineinfo (76)
                         [pc] (line)
4F16  B8                 [01] (-72)
4F17  02                 [02] (-72)
4F18  00                 [03] (-72)
4F19  00                 [04] (-72)
4F1A  B8                 [05] (-72)
4F1B  02                 [06] (-72)
4F1C  00                 [07] (-72)
4F1D  00                 [08] (-72)
4F1E  B8                 [09] (-71)
4F1F  02                 [10] (-68)
4F20  00                 [11] (-68)
4F21  00                 [12] (-68)
4F22  B8                 [13] (-68)
4F23  02                 [14] (-68)
4F24  00                 [15] (-67)
4F25  00                 [16] (-67)
4F26  B8                 [17] (-67)
4F27  02                 [18] (-67)
4F28  00                 [19] (-67)
4F29  00                 [20] (-64)
4F2A  B8                 [21] (-64)
4F2B  02                 [22] (-64)
4F2C  00                 [23] (-64)
4F2D  00                 [24] (-64)
4F2E  B8                 [25] (-62)
4F2F  02                 [26] (-62)
4F30  00                 [27] (-62)
4F31  00                 [28] (-62)
4F32  B8                 [29] (-62)
4F33  02                 [30] (-62)
4F34  00                 [31] (-61)
4F35  00                 [32] (-61)
4F36  B9                 [33] (-61)
4F37  02                 [34] (-61)
4F38  00                 [35] (-61)
4F39  00                 [36] (-61)
4F3A  BC                 [37] (-58)
4F3B  02                 [38] (-58)
4F3C  00                 [39] (-58)
4F3D  00                 [40] (-58)
4F3E  BC                 [41] (-58)
4F3F  02                 [42] (-58)
4F40  00                 [43] (-58)
4F41  00                 [44] (-58)
4F42  BC                 [45] (-58)
4F43  02                 [46] (-58)
4F44  00                 [47] (-58)
4F45  00                 [48] (-58)
4F46  BC                 [49] (-57)
4F47  02                 [50] (-57)
4F48  00                 [51] (-56)
4F49  00                 [52] (-56)
4F4A  BC                 [53] (-56)
4F4B  02                 [54] (-56)
4F4C  00                 [55] (-55)
4F4D  00                 [56] (-55)
4F4E  BD                 [57] (-54)
4F4F  02                 [58] (-54)
4F50  00                 [59] (-54)
4F51  00                 [60] (-52)
4F52  BD                 [61] (-52)
4F53  02                 [62] (-51)
4F54  00                 [63] (-51)
4F55  00                 [64] (-50)
4F56  BD                 [65] (-50)
4F57  02                 [66] (-50)
4F58  00                 [67] (-50)
4F59  00                 [68] (-49)
4F5A  BD                 [69] (-49)
4F5B  02                 [70] (-49)
4F5C  00                 [71] (-49)
4F5D  00                 [72] (-45)
4F5E  BD                 [73] (-45)
4F5F  02                 [74] (-45)
4F60  00                 [75] (-45)
4F61  00                 [76] (-44)
                         * locals:
5046  00                 sizelocvars (0)
                         * upvalues:
5047  00                 sizeupvalues (0)
                         ** end of function **

                         
5048                     ** function [37] definition (level 2)
                         ** start of function **
5048  00                 string size (0)
                         source name: (none)
504A  05                 line defined (726)
504B  B5                 last line defined (821)
504C  06                 nups (6)
504D  06                 numparams (0)
504E  00                 is_vararg (0)
504F  00                 maxstacksize (7)
                         * code:
5051  41                 sizecode (65)
5052  1D000000           [01] getglobal  0   0        ; 849075268
5056  59400000           [02] loadk      1   1        ; "EE.Interface.Components.List"
505A  22800001           [03] call       0   2   2  
505E  4E804000           [04] gettable   1   0   258  ; -1274155969
5062  9DC00000           [05] getglobal  2   3        ; mMovie
5066  D9000100           [06] loadk      3   4        ; "ImprintPanel.Item1"
506A  62808001           [07] call       1   3   2  
fail op	8
506E  48000000           [08] setupval   1   0      
5072  53000000           [09] getupval   1   0      
5076  6440C100           [10] self       1   1   261  ; 236168549
507A  D9800100           [11] loadk      3   6        ; "MenuItemSelected"
507E  19C10100           [12] loadk      4   7        ; "MenuItemFocused"
5082  59010200           [13] loadk      5   8        ; "MenuItemUnfocused"
5086  99410200           [14] loadk      6   9        ; "MenuItemPressed"
508A  62400003           [15] call       1   6   1  
508E  53000000           [16] getupval   1   0      
5092  4CC04285           [17] settable   1   266 267  ; "mForcedVerticalSeparation" 0
5096  53000000           [18] getupval   1   0      
509A  4C404386           [19] settable   1   268 269  ; "mVisibleElements" 0
509E  53000000           [20] getupval   1   0      
50A2  6480C300           [21] self       1   1   270  ; 1035345719
50A6  D9C00300           [22] loadk      3   15       ; "ImprintPanel.ScrollBar"
50AA  19010400           [23] loadk      4   16       ; 0
50AE  62400002           [24] call       1   4   1  
50B2  53000000           [25] getupval   1   0      
50B6  6440C400           [26] self       1   1   273  ; -104757962
50BA  62400001           [27] call       1   2   1  
50BE  53000000           [28] getupval   1   0      
50C2  4CC04489           [29] settable   1   274 275  ; "mWrapAroundNavigation" 0
50C6  53000000           [30] getupval   1   0      
50CA  A5000000           [31] closure    2   0      
50CE  13000000           [32] getupval   0   0      
50D2  13008000           [33] getupval   0   1      
50D6  4C80008A           [34] settable   1   276 2    ; "mElementDrawCallback"
50DA  53000000           [35] getupval   1   0      
50DE  A5400000           [36] closure    2   1      
50E2  13008000           [37] getupval   0   1      
50E6  4C80808A           [38] settable   1   277 2    ; "mOnFocusedCallback"
50EA  53000000           [39] getupval   1   0      
50EE  A5800000           [40] closure    2   2      
50F2  4C80008B           [41] settable   1   278 2    ; "mOnUnfocusedCallback"
50F6  53000000           [42] getupval   1   0      
50FA  A5C00000           [43] closure    2   3      
50FE  13000000           [44] getupval   0   0      
5102  13000001           [45] getupval   0   2      
5106  13008001           [46] getupval   0   3      
510A  13000002           [47] getupval   0   4      
510E  13008002           [48] getupval   0   5      
5112  13008000           [49] getupval   0   1      
5116  4C80808B           [50] settable   1   279 2    ; "mOnSelectedCallback"
511A  53000000           [51] getupval   1   0      
511E  A5000100           [52] closure    2   4      
5122  13008000           [53] getupval   0   1      
5126  4C80008C           [54] settable   1   280 2    ; "mOnPressedCallback"
512A  53000000           [55] getupval   1   0      
512E  A5400100           [56] closure    2   5      
5132  4C80808C           [57] settable   1   281 2    ; "RepositionElements"
5136  53000000           [58] getupval   1   0      
513A  93000000           [59] getupval   2   0      
513E  8EC04601           [60] gettable   2   2   283  ; "CalculateX"
5142  4C80008D           [61] settable   1   282 2    ; "_ImprintMenu_CalculateX"
5146  53000000           [62] getupval   1   0      
514A  A5800100           [63] closure    2   6      
514E  4C80808D           [64] settable   1   283 2    ; "CalculateX"
5152  1E008000           [65] return     0   1      
                         * constants:
5156  1C                 sizek (28)
5157  01                 const type 3
5158  44DC9B32           const [0]: (849075268)
515C  04                 const type 4
515D  1D                 string size (29)
515E  45452E496E746572+  "EE.Inter"
5166  666163652E436F6D+  "face.Com"
516E  706F6E656E74732E+  "ponents."
5176  4C69737400         "List\0"
                         const [1]: "EE.Interface.Components.List"
517B  01                 const type 3
517C  3FEC0DB4           const [2]: (-1274155969)
5180  04                 const type 4
5181  07                 string size (7)
5182  6D4D6F76696500     "mMovie\0"
                         const [3]: "mMovie"
5189  04                 const type 4
518A  13                 string size (19)
518B  496D7072696E7450+  "ImprintP"
5193  616E656C2E497465+  "anel.Ite"
519B  6D3100             "m1\0"
                         const [4]: "ImprintPanel.Item1"
519E  01                 const type 3
519F  65A5130E           const [5]: (236168549)
51A3  04                 const type 4
51A4  11                 string size (17)
51A5  4D656E754974656D+  "MenuItem"
51AD  53656C6563746564+  "Selected"
51B5  00                 "\0"
                         const [6]: "MenuItemSelected"
51B6  04                 const type 4
51B7  10                 string size (16)
51B8  4D656E754974656D+  "MenuItem"
51C0  466F637573656400   "Focused\0"
                         const [7]: "MenuItemFocused"
51C8  04                 const type 4
51C9  12                 string size (18)
51CA  4D656E754974656D+  "MenuItem"
51D2  556E666F63757365+  "Unfocuse"
51DA  6400               "d\0"
                         const [8]: "MenuItemUnfocused"
51DC  04                 const type 4
51DD  10                 string size (16)
51DE  4D656E754974656D+  "MenuItem"
51E6  5072657373656400   "Pressed\0"
                         const [9]: "MenuItemPressed"
51EE  04                 const type 4
51EF  1A                 string size (26)
51F0  6D466F7263656456+  "mForcedV"
51F8  6572746963616C53+  "erticalS"
5200  657061726174696F+  "eparatio"
5208  6E00               "n\0"
                         const [10]: "mForcedVerticalSeparation"
520A  03                 const type 3
520B  00002043           const [11]: (0)
520F  04                 const type 4
5210  11                 string size (17)
5211  6D56697369626C65+  "mVisible"
5219  456C656D656E7473+  "Elements"
5221  00                 "\0"
                         const [12]: "mVisibleElements"
5222  03                 const type 3
5223  0000A040           const [13]: (0)
5227  01                 const type 3
5228  371FB63D           const [14]: (1035345719)
522C  04                 const type 4
522D  17                 string size (23)
522E  496D7072696E7450+  "ImprintP"
5236  616E656C2E536372+  "anel.Scr"
523E  6F6C6C42617200     "ollBar\0"
                         const [15]: "ImprintPanel.ScrollBar"
5245  03                 const type 3
5246  000088C1           const [16]: (0)
524A  01                 const type 3
524B  3685C1F9           const [17]: (-104757962)
524F  04                 const type 4
5250  16                 string size (22)
5251  6D5772617041726F+  "mWrapAro"
5259  756E644E61766967+  "undNavig"
5261  6174696F6E00       "ation\0"
                         const [18]: "mWrapAroundNavigation"
5267  01                 const type 3
5268  00000000           const [19]: (0)
526C  04                 const type 4
526D  15                 string size (21)
526E  6D456C656D656E74+  "mElement"
5276  4472617743616C6C+  "DrawCall"
527E  6261636B00         "back\0"
                         const [20]: "mElementDrawCallback"
5283  04                 const type 4
5284  13                 string size (19)
5285  6D4F6E466F637573+  "mOnFocus"
528D  656443616C6C6261+  "edCallba"
5295  636B00             "ck\0"
                         const [21]: "mOnFocusedCallback"
5298  04                 const type 4
5299  15                 string size (21)
529A  6D4F6E556E666F63+  "mOnUnfoc"
52A2  7573656443616C6C+  "usedCall"
52AA  6261636B00         "back\0"
                         const [22]: "mOnUnfocusedCallback"
52AF  04                 const type 4
52B0  14                 string size (20)
52B1  6D4F6E53656C6563+  "mOnSelec"
52B9  74656443616C6C62+  "tedCallb"
52C1  61636B00           "ack\0"
                         const [23]: "mOnSelectedCallback"
52C5  04                 const type 4
52C6  13                 string size (19)
52C7  6D4F6E5072657373+  "mOnPress"
52CF  656443616C6C6261+  "edCallba"
52D7  636B00             "ck\0"
                         const [24]: "mOnPressedCallback"
52DA  04                 const type 4
52DB  13                 string size (19)
52DC  5265706F73697469+  "Repositi"
52E4  6F6E456C656D656E+  "onElemen"
52EC  747300             "ts\0"
                         const [25]: "RepositionElements"
52EF  04                 const type 4
52F0  18                 string size (24)
52F1  5F496D7072696E74+  "_Imprint"
52F9  4D656E755F43616C+  "Menu_Cal"
5301  63756C6174655800   "culateX\0"
                         const [26]: "_ImprintMenu_CalculateX"
5309  04                 const type 4
530A  0B                 string size (11)
530B  43616C63756C6174+  "Calculat"
5313  655800             "eX\0"
                         const [27]: "CalculateX"
                         * functions:
5316  07                 sizep (7)
                         
5317                     ** function [0] definition (level 3)
                         ** start of function **
5317  00                 string size (0)
                         source name: (none)
5319  05                 line defined (736)
531A  F1                 last line defined (753)
531B  05                 nups (2)
531C  02                 numparams (1)
531D  01                 is_vararg (0)
531E  00                 maxstacksize (12)
                         * code:
5321  01                 sizecode (153)
5322  53000000           [001] getupval   1   0      
5326  4E00C000           [002] gettable   1   1   256  ; "mFocusedMenuElement"
fail op	35
532A  6340C000           [003] close      1  
532E  1A400180           [004] jmp        6            ; to [11]
5332  53000000           [005] getupval   1   0      
5336  4E00C000           [006] gettable   1   1   256  ; "mFocusedMenuElement"
533A  4E80C000           [007] gettable   1   1   258  ; "Id"
533E  8E804000           [008] gettable   2   0   258  ; "Id"
fail op	35
5342  63808000           [009] close      1  
5346  1A000080           [010] jmp        1            ; to [12]
534A  57400000           [011] loadbool   1   0   1    ; false, to [13]
534E  57008000           [012] loadbool   1   1   0    ; true
5352  9DC00000           [013] getglobal  2   3        ; mMovie
5356  A4004101           [014] self       2   2   260  ; -2013161817
535A  0E414100           [015] gettable   4   0   261  ; "mClipName"
535E  59810100           [016] loadk      5   6        ; "NameTag.Label"
5362  99C10100           [017] loadk      6   7        ; "verticalAlignment"
5366  D9010200           [018] loadk      7   8        ; "bottom"
536A  A2400003           [019] call       2   6   1  
536E  9DC00000           [020] getglobal  2   3        ; mMovie
5372  A4404201           [021] self       2   2   265  ; 386043535
5376  0E414100           [022] gettable   4   0   261  ; "mClipName"
537A  59810200           [023] loadk      5   10       ; ".NameTag.Label.text"
537E  02410102           [024] concat     4   4   5  
5382  4EC14200           [025] gettable   5   0   267  ; "LocTag"
5386  8B410000           [026] newtable   6   0   1    ; array=0, hash=1
538A  D3018000           [027] getupval   7   1      
538E  CE41C303           [028] gettable   7   7   269  ; -132701534
5392  0E824300           [029] gettable   8   0   270  ; "Name"
fail op	35
5396  63C04304           [030] close      1  
539A  1A000080           [031] jmp        1            ; to [33]
539E  17420000           [032] loadbool   8   0   1    ; false, to [34]
53A2  17028000           [033] loadbool   8   1   0    ; true
53A6  46028004           [034] loadnil    9   9      
53AA  9D020400           [035] getglobal  10  16       ; string
53AE  8E424405           [036] gettable   10  10  273  ; 1671193642
53B2  CE824300           [037] gettable   11  0   270  ; "Name"
53B6  A2020001           [038] call       10  2   0  
53BA  E2810000           [039] call       7   0   2  
53BE  8CC10186           [040] settable   6   268 7    ; "NAME"
53C2  A2408002           [041] call       2   5   1  
53C6  9DC00000           [042] getglobal  2   3        ; mMovie
53CA  A4004101           [043] self       2   2   260  ; -2013161817
53CE  0E414100           [044] gettable   4   0   261  ; "mClipName"
53D2  59810400           [045] loadk      5   18       ; "NameTag.Bg"
53D6  99C10400           [046] loadk      6   19       ; "_height"
53DA  DD010500           [047] getglobal  7   20       ; -174740002
53DE  1DC20000           [048] getglobal  8   3        ; mMovie
53E2  24424504           [049] self       8   8   277  ; 1803241227
53E6  8E424100           [050] gettable   10  0   261  ; "mClipName"
53EA  D9820500           [051] loadk      11  22       ; ".NameTag.Label"
53EE  82C20205           [052] concat     10  10  11 
53F2  D9C20500           [053] loadk      11  23       ; "textHeight"
53F6  22020002           [054] call       8   4   0  
53FA  E2810000           [055] call       7   0   2  
53FE  C301C603           [056] add        7   7   280  ; 0
5402  A2400003           [057] call       2   6   1  
5406  9DC00000           [058] getglobal  2   3        ; mMovie
540A  A4004101           [059] self       2   2   260  ; -2013161817
540E  0E414100           [060] gettable   4   0   261  ; "mClipName"
5412  59810100           [061] loadk      5   6        ; "NameTag.Label"
5416  99410600           [062] loadk      6   25       ; "textColor"
541A  DD810600           [063] getglobal  7   26       ; _G
541E  CEC1C603           [064] gettable   7   7   283  ; "UIColor_Black"
5422  A2400003           [065] call       2   6   1  
5426  9DC00000           [066] getglobal  2   3        ; mMovie
542A  A4004101           [067] self       2   2   260  ; -2013161817
542E  0E414100           [068] gettable   4   0   261  ; "mClipName"
5432  59010700           [069] loadk      5   28       ; "Bg"
5436  99410700           [070] loadk      6   29       ; "_alpha"
543A  D3018000           [071] getupval   7   1      
543E  CE41C303           [072] gettable   7   7   269  ; -132701534
5442  12028000           [073] move       8   1      
5446  59820700           [074] loadk      9   30       ; 0
544A  99C20700           [075] loadk      10  31       ; 0
544E  E2010002           [076] call       7   4   0  
5452  A2400000           [077] call       2   0   1  
5456  9DC00000           [078] getglobal  2   3        ; mMovie
545A  A4004101           [079] self       2   2   260  ; -2013161817
545E  0E414100           [080] gettable   4   0   261  ; "mClipName"
5462  59010800           [081] loadk      5   32       ; "Image"
5466  99410800           [082] loadk      6   33       ; "_visible"
546A  D7010000           [083] loadbool   7   0   0    ; false
546E  A2400003           [084] call       2   6   1  
5472  9DC00000           [085] getglobal  2   3        ; mMovie
5476  A4004101           [086] self       2   2   260  ; -2013161817
547A  0E414100           [087] gettable   4   0   261  ; "mClipName"
547E  59810800           [088] loadk      5   34       ; "KubrowTypeIcon"
5482  99410800           [089] loadk      6   33       ; "_visible"
5486  D7010000           [090] loadbool   7   0   0    ; false
548A  A2400003           [091] call       2   6   1  
548E  9DC00000           [092] getglobal  2   3        ; mMovie
5492  A4004101           [093] self       2   2   260  ; -2013161817
5496  0E414100           [094] gettable   4   0   261  ; "mClipName"
549A  59C10800           [095] loadk      5   35       ; "KubrowGenderIcon"
549E  99410800           [096] loadk      6   33       ; "_visible"
54A2  D7010000           [097] loadbool   7   0   0    ; false
54A6  A2400003           [098] call       2   6   1  
54AA  93000000           [099] getupval   2   0      
54AE  A4004901           [100] self       2   2   292  ; -1749775947
54B2  A2800001           [101] call       2   2   2  
fail op	35
54B6  63404001           [102] close      1  
54BA  1A800180           [103] jmp        7            ; to [111]
54BE  93000000           [104] getupval   2   0      
54C2  A4004901           [105] self       2   2   292  ; -1749775947
54C6  A2800001           [106] call       2   2   2  
54CA  8E804001           [107] gettable   2   2   258  ; "Id"
54CE  CE804000           [108] gettable   3   0   258  ; "Id"
fail op	35
54D2  63C00001           [109] close      1  
54D6  1A000080           [110] jmp        1            ; to [112]
54DA  97400000           [111] loadbool   2   0   1    ; false, to [113]
54DE  97008000           [112] loadbool   2   1   0    ; true
54E2  DDC00000           [113] getglobal  3   3        ; mMovie
54E6  E400C101           [114] self       3   3   260  ; -2013161817
54EA  4E414100           [115] gettable   5   0   261  ; "mClipName"
54EE  99410900           [116] loadk      6   37       ; "Outline"
54F2  D9410700           [117] loadk      7   29       ; "_alpha"
54F6  13028000           [118] getupval   8   1      
54FA  0E424304           [119] gettable   8   8   269  ; -132701534
54FE  52020001           [120] move       9   2      
5502  99820900           [121] loadk      10  38       ; 0
5506  D9C20900           [122] loadk      11  39       ; 0
550A  22020002           [123] call       8   4   0  
550E  E2400000           [124] call       3   0   1  
5512  DDC00000           [125] getglobal  3   3        ; mMovie
5516  E400C101           [126] self       3   3   260  ; -2013161817
551A  4E414100           [127] gettable   5   0   261  ; "mClipName"
551E  99410900           [128] loadk      6   37       ; "Outline"
5522  D9010A00           [129] loadk      7   40       ; "_color"
5526  13028000           [130] getupval   8   1      
552A  0E424304           [131] gettable   8   8   269  ; -132701534
552E  52020001           [132] move       9   2      
5532  9D820600           [133] getglobal  10  26       ; _G
5536  8E424A05           [134] gettable   10  10  297  ; "UIColor_Yellow"
553A  DD820600           [135] getglobal  11  26       ; _G
553E  CE82CA05           [136] gettable   11  11  298  ; "UIColor_White"
5542  22020002           [137] call       8   4   0  
5546  E2400000           [138] call       3   0   1  
554A  DDC00000           [139] getglobal  3   3        ; mMovie
554E  E400C101           [140] self       3   3   260  ; -2013161817
5552  4E414100           [141] gettable   5   0   261  ; "mClipName"
5556  99810400           [142] loadk      6   18       ; "NameTag.Bg"
555A  D9010A00           [143] loadk      7   40       ; "_color"
555E  13028000           [144] getupval   8   1      
5562  0E424304           [145] gettable   8   8   269  ; -132701534
5566  52020001           [146] move       9   2      
556A  9D820600           [147] getglobal  10  26       ; _G
556E  8E424A05           [148] gettable   10  10  297  ; "UIColor_Yellow"
5572  DD820600           [149] getglobal  11  26       ; _G
5576  CE82CA05           [150] gettable   11  11  298  ; "UIColor_White"
557A  22020002           [151] call       8   4   0  
557E  E2400000           [152] call       3   0   1  
5582  1E008000           [153] return     0   1      
                         * constants:
5586  2B                 sizek (43)
5587  04                 const type 4
5588  14                 string size (20)
5589  6D466F6375736564+  "mFocused"
5591  4D656E75456C656D+  "MenuElem"
5599  656E7400           "ent\0"
                         const [0]: "mFocusedMenuElement"
559D  00                 const type 0
                         const [1]: nil
559E  04                 const type 4
559F  03                 string size (3)
55A0  496400             "Id\0"
                         const [2]: "Id"
55A3  04                 const type 4
55A4  07                 string size (7)
55A5  6D4D6F76696500     "mMovie\0"
                         const [3]: "mMovie"
55AC  01                 const type 3
55AD  A7960188           const [4]: (-2013161817)
55B1  04                 const type 4
55B2  0A                 string size (10)
55B3  6D436C69704E616D+  "mClipNam"
55BB  6500               "e\0"
                         const [5]: "mClipName"
55BD  04                 const type 4
55BE  0E                 string size (14)
55BF  4E616D655461672E+  "NameTag."
55C7  4C6162656C00       "Label\0"
                         const [6]: "NameTag.Label"
55CD  04                 const type 4
55CE  12                 string size (18)
55CF  766572746963616C+  "vertical"
55D7  416C69676E6D656E+  "Alignmen"
55DF  7400               "t\0"
                         const [7]: "verticalAlignment"
55E1  04                 const type 4
55E2  07                 string size (7)
55E3  626F74746F6D00     "bottom\0"
                         const [8]: "bottom"
55EA  01                 const type 3
55EB  8F8E0217           const [9]: (386043535)
55EF  04                 const type 4
55F0  14                 string size (20)
55F1  2E4E616D65546167+  ".NameTag"
55F9  2E4C6162656C2E74+  ".Label.t"
5601  65787400           "ext\0"
                         const [10]: ".NameTag.Label.text"
5605  04                 const type 4
5606  07                 string size (7)
5607  4C6F6354616700     "LocTag\0"
                         const [11]: "LocTag"
560E  04                 const type 4
560F  05                 string size (5)
5610  4E414D4500         "NAME\0"
                         const [12]: "NAME"
5615  01                 const type 3
5616  A22217F8           const [13]: (-132701534)
561A  04                 const type 4
561B  05                 string size (5)
561C  4E616D6500         "Name\0"
                         const [14]: "Name"
5621  04                 const type 4
5622  01                 string size (0)
                         const [15]: ""
5624  04                 const type 4
5625  07                 string size (7)
5626  737472696E6700     "string\0"
                         const [16]: "string"
562D  01                 const type 3
562E  2A649C63           const [17]: (1671193642)
5632  04                 const type 4
5633  0B                 string size (11)
5634  4E616D655461672E+  "NameTag."
563C  426700             "Bg\0"
                         const [18]: "NameTag.Bg"
563F  04                 const type 4
5640  08                 string size (8)
5641  5F68656967687400   "_height\0"
                         const [19]: "_height"
5649  01                 const type 3
564A  DEAD95F5           const [20]: (-174740002)
564E  01                 const type 3
564F  0B477B6B           const [21]: (1803241227)
5653  04                 const type 4
5654  0F                 string size (15)
5655  2E4E616D65546167+  ".NameTag"
565D  2E4C6162656C00     ".Label\0"
                         const [22]: ".NameTag.Label"
5664  04                 const type 4
5665  0B                 string size (11)
5666  7465787448656967+  "textHeig"
566E  687400             "ht\0"
                         const [23]: "textHeight"
5671  03                 const type 3
5672  00006041           const [24]: (0)
5676  04                 const type 4
5677  0A                 string size (10)
5678  74657874436F6C6F+  "textColo"
5680  7200               "r\0"
                         const [25]: "textColor"
5682  04                 const type 4
5683  03                 string size (3)
5684  5F4700             "_G\0"
                         const [26]: "_G"
5687  04                 const type 4
5688  0E                 string size (14)
5689  5549436F6C6F725F+  "UIColor_"
5691  426C61636B00       "Black\0"
                         const [27]: "UIColor_Black"
5697  04                 const type 4
5698  03                 string size (3)
5699  426700             "Bg\0"
                         const [28]: "Bg"
569C  04                 const type 4
569D  07                 string size (7)
569E  5F616C70686100     "_alpha\0"
                         const [29]: "_alpha"
56A5  03                 const type 3
56A6  00004842           const [30]: (0)
56AA  03                 const type 3
56AB  0000A041           const [31]: (0)
56AF  04                 const type 4
56B0  06                 string size (6)
56B1  496D61676500       "Image\0"
                         const [32]: "Image"
56B7  04                 const type 4
56B8  09                 string size (9)
56B9  5F76697369626C65+  "_visible"
56C1  00                 "\0"
                         const [33]: "_visible"
56C2  04                 const type 4
56C3  0F                 string size (15)
56C4  4B7562726F775479+  "KubrowTy"
56CC  706549636F6E00     "peIcon\0"
                         const [34]: "KubrowTypeIcon"
56D3  04                 const type 4
56D4  11                 string size (17)
56D5  4B7562726F774765+  "KubrowGe"
56DD  6E64657249636F6E+  "nderIcon"
56E5  00                 "\0"
                         const [35]: "KubrowGenderIcon"
56E6  01                 const type 3
56E7  B589B497           const [36]: (-1749775947)
56EB  04                 const type 4
56EC  08                 string size (8)
56ED  4F75746C696E6500   "Outline\0"
                         const [37]: "Outline"
56F5  03                 const type 3
56F6  0000B442           const [38]: (0)
56FA  03                 const type 3
56FB  00007041           const [39]: (0)
56FF  04                 const type 4
5700  07                 string size (7)
5701  5F636F6C6F7200     "_color\0"
                         const [40]: "_color"
5708  04                 const type 4
5709  0F                 string size (15)
570A  5549436F6C6F725F+  "UIColor_"
5712  59656C6C6F7700     "Yellow\0"
                         const [41]: "UIColor_Yellow"
5719  04                 const type 4
571A  0E                 string size (14)
571B  5549436F6C6F725F+  "UIColor_"
5723  576869746500       "White\0"
                         const [42]: "UIColor_White"
                         * functions:
5729  00                 sizep (0)
                         * lines:
572B  01                 sizelineinfo (153)
                         [pc] (line)
572C  E1                 [001] (-31)
572D  02                 [002] (-31)
572E  00                 [003] (-31)
572F  00                 [004] (-31)
5730  E1                 [005] (-31)
5731  02                 [006] (-31)
5732  00                 [007] (-31)
5733  00                 [008] (-31)
5734  E1                 [009] (-31)
5735  02                 [010] (-31)
5736  00                 [011] (-31)
5737  00                 [012] (-31)
5738  E1                 [013] (-29)
5739  02                 [014] (-29)
573A  00                 [015] (-29)
573B  00                 [016] (-29)
573C  E1                 [017] (-29)
573D  02                 [018] (-29)
573E  00                 [019] (-29)
573F  00                 [020] (-28)
5740  E1                 [021] (-28)
5741  02                 [022] (-28)
5742  00                 [023] (-28)
5743  00                 [024] (-28)
5744  E1                 [025] (-28)
5745  02                 [026] (-28)
5746  00                 [027] (-28)
5747  00                 [028] (-28)
5748  E1                 [029] (-28)
5749  02                 [030] (-28)
574A  00                 [031] (-28)
574B  00                 [032] (-28)
574C  E1                 [033] (-28)
574D  02                 [034] (-28)
574E  00                 [035] (-28)
574F  00                 [036] (-28)
5750  E1                 [037] (-28)
5751  02                 [038] (-28)
5752  00                 [039] (-28)
5753  00                 [040] (-28)
5754  E1                 [041] (-28)
5755  02                 [042] (-27)
5756  00                 [043] (-27)
5757  00                 [044] (-27)
5758  E1                 [045] (-27)
5759  02                 [046] (-27)
575A  00                 [047] (-27)
575B  00                 [048] (-27)
575C  E3                 [049] (-27)
575D  02                 [050] (-27)
575E  00                 [051] (-27)
575F  00                 [052] (-27)
5760  E3                 [053] (-27)
5761  02                 [054] (-27)
5762  00                 [055] (-27)
5763  00                 [056] (-27)
5764  E3                 [057] (-27)
5765  02                 [058] (-26)
5766  00                 [059] (-26)
5767  00                 [060] (-26)
5768  E3                 [061] (-26)
5769  02                 [062] (-26)
576A  00                 [063] (-26)
576B  00                 [064] (-26)
576C  E3                 [065] (-26)
576D  02                 [066] (-25)
576E  00                 [067] (-25)
576F  00                 [068] (-25)
5770  E3                 [069] (-25)
5771  02                 [070] (-25)
5772  00                 [071] (-25)
5773  00                 [072] (-25)
5774  E3                 [073] (-25)
5775  02                 [074] (-25)
5776  00                 [075] (-25)
5777  00                 [076] (-25)
5778  E4                 [077] (-25)
5779  02                 [078] (-23)
577A  00                 [079] (-23)
577B  00                 [080] (-23)
577C  E4                 [081] (-23)
577D  02                 [082] (-23)
577E  00                 [083] (-23)
577F  00                 [084] (-23)
5780  E4                 [085] (-22)
5781  02                 [086] (-22)
5782  00                 [087] (-22)
5783  00                 [088] (-22)
5784  E4                 [089] (-22)
5785  02                 [090] (-22)
5786  00                 [091] (-22)
5787  00                 [092] (-21)
5788  E4                 [093] (-21)
5789  02                 [094] (-21)
578A  00                 [095] (-21)
578B  00                 [096] (-21)
578C  E4                 [097] (-21)
578D  02                 [098] (-21)
578E  00                 [099] (-19)
578F  00                 [100] (-19)
5790  E4                 [101] (-19)
5791  02                 [102] (-19)
5792  00                 [103] (-19)
5793  00                 [104] (-19)
5794  E4                 [105] (-19)
5795  02                 [106] (-19)
5796  00                 [107] (-19)
5797  00                 [108] (-19)
5798  E4                 [109] (-19)
5799  02                 [110] (-19)
579A  00                 [111] (-19)
579B  00                 [112] (-19)
579C  E4                 [113] (-18)
579D  02                 [114] (-18)
579E  00                 [115] (-18)
579F  00                 [116] (-18)
57A0  E4                 [117] (-18)
57A1  02                 [118] (-18)
57A2  00                 [119] (-18)
57A3  00                 [120] (-18)
57A4  E4                 [121] (-18)
57A5  02                 [122] (-18)
57A6  00                 [123] (-18)
57A7  00                 [124] (-18)
57A8  E4                 [125] (-17)
57A9  02                 [126] (-17)
57AA  00                 [127] (-17)
57AB  00                 [128] (-17)
57AC  E4                 [129] (-17)
57AD  02                 [130] (-17)
57AE  00                 [131] (-17)
57AF  00                 [132] (-17)
57B0  E4                 [133] (-17)
57B1  02                 [134] (-17)
57B2  00                 [135] (-17)
57B3  00                 [136] (-17)
57B4  E4                 [137] (-17)
57B5  02                 [138] (-17)
57B6  00                 [139] (-16)
57B7  00                 [140] (-16)
57B8  E4                 [141] (-16)
57B9  02                 [142] (-16)
57BA  00                 [143] (-16)
57BB  00                 [144] (-16)
57BC  E4                 [145] (-16)
57BD  02                 [146] (-16)
57BE  00                 [147] (-16)
57BF  00                 [148] (-16)
57C0  E4                 [149] (-16)
57C1  02                 [150] (-16)
57C2  00                 [151] (-16)
57C3  00                 [152] (-16)
57C4  E4                 [153] (-15)
                         * locals:
5990  00                 sizelocvars (0)
                         * upvalues:
5991  00                 sizeupvalues (0)
                         ** end of function **

                         
5992                     ** function [1] definition (level 3)
                         ** start of function **
5992  00                 string size (0)
                         source name: (none)
5994  05                 line defined (755)
5995  FC                 last line defined (764)
5996  05                 nups (1)
5997  01                 numparams (1)
5998  01                 is_vararg (0)
5999  00                 maxstacksize (7)
                         * code:
599B  21                 sizecode (33)
599C  4E004000           [01] gettable   1   0   256  ; "mClipName"
fail op	35
59A0  2340C000           [02] close      0  
59A4  1A000080           [03] jmp        1            ; to [5]
59A8  1E008000           [04] return     0   1      
59AC  53000000           [05] getupval   1   0      
59B0  4E80C000           [06] gettable   1   1   258  ; 630793108
59B4  9DC00000           [07] getglobal  2   3        ; _G
59B8  8E004101           [08] gettable   2   2   260  ; "UISound_Focus"
59BC  62400001           [09] call       1   2   1  
59C0  5D400100           [10] getglobal  1   5        ; mMovie
59C4  6480C100           [11] self       1   1   262  ; -2013161817
59C8  CE004000           [12] gettable   3   0   256  ; "mClipName"
59CC  19C10100           [13] loadk      4   7        ; "NameTag.Bg"
59D0  59010200           [14] loadk      5   8        ; "_color"
59D4  9DC10000           [15] getglobal  6   3        ; _G
59D8  8E414203           [16] gettable   6   6   265  ; "UIColor_Yellow"
59DC  62400003           [17] call       1   6   1  
59E0  5D400100           [18] getglobal  1   5        ; mMovie
59E4  6480C100           [19] self       1   1   262  ; -2013161817
59E8  CE004000           [20] gettable   3   0   256  ; "mClipName"
59EC  19810200           [21] loadk      4   10       ; "Outline"
59F0  59C10200           [22] loadk      5   11       ; "_alpha"
59F4  99010300           [23] loadk      6   12       ; 0
59F8  62400003           [24] call       1   6   1  
59FC  5D400100           [25] getglobal  1   5        ; mMovie
5A00  6480C100           [26] self       1   1   262  ; -2013161817
5A04  CE004000           [27] gettable   3   0   256  ; "mClipName"
5A08  19810200           [28] loadk      4   10       ; "Outline"
5A0C  59010200           [29] loadk      5   8        ; "_color"
5A10  9DC10000           [30] getglobal  6   3        ; _G
5A14  8E414203           [31] gettable   6   6   265  ; "UIColor_Yellow"
5A18  62400003           [32] call       1   6   1  
5A1C  1E008000           [33] return     0   1      
                         * constants:
5A20  0D                 sizek (13)
5A21  04                 const type 4
5A22  0A                 string size (10)
5A23  6D436C69704E616D+  "mClipNam"
5A2B  6500               "e\0"
                         const [0]: "mClipName"
5A2D  00                 const type 0
                         const [1]: nil
5A2E  01                 const type 3
5A2F  94239925           const [2]: (630793108)
5A33  04                 const type 4
5A34  03                 string size (3)
5A35  5F4700             "_G\0"
                         const [3]: "_G"
5A38  04                 const type 4
5A39  0E                 string size (14)
5A3A  5549536F756E645F+  "UISound_"
5A42  466F63757300       "Focus\0"
                         const [4]: "UISound_Focus"
5A48  04                 const type 4
5A49  07                 string size (7)
5A4A  6D4D6F76696500     "mMovie\0"
                         const [5]: "mMovie"
5A51  01                 const type 3
5A52  A7960188           const [6]: (-2013161817)
5A56  04                 const type 4
5A57  0B                 string size (11)
5A58  4E616D655461672E+  "NameTag."
5A60  426700             "Bg\0"
                         const [7]: "NameTag.Bg"
5A63  04                 const type 4
5A64  07                 string size (7)
5A65  5F636F6C6F7200     "_color\0"
                         const [8]: "_color"
5A6C  04                 const type 4
5A6D  0F                 string size (15)
5A6E  5549436F6C6F725F+  "UIColor_"
5A76  59656C6C6F7700     "Yellow\0"
                         const [9]: "UIColor_Yellow"
5A7D  04                 const type 4
5A7E  08                 string size (8)
5A7F  4F75746C696E6500   "Outline\0"
                         const [10]: "Outline"
5A87  04                 const type 4
5A88  07                 string size (7)
5A89  5F616C70686100     "_alpha\0"
                         const [11]: "_alpha"
5A90  03                 const type 3
5A91  0000B442           const [12]: (0)
                         * functions:
5A95  00                 sizep (0)
                         * lines:
5A96  21                 sizelineinfo (33)
                         [pc] (line)
5A97  F4                 [01] (-12)
5A98  02                 [02] (-12)
5A99  00                 [03] (-12)
5A9A  00                 [04] (-11)
5A9B  F4                 [05] (-9)
5A9C  02                 [06] (-9)
5A9D  00                 [07] (-9)
5A9E  00                 [08] (-9)
5A9F  F4                 [09] (-9)
5AA0  02                 [10] (-7)
5AA1  00                 [11] (-7)
5AA2  00                 [12] (-7)
5AA3  F5                 [13] (-7)
5AA4  02                 [14] (-7)
5AA5  00                 [15] (-7)
5AA6  00                 [16] (-7)
5AA7  F7                 [17] (-7)
5AA8  02                 [18] (-6)
5AA9  00                 [19] (-6)
5AAA  00                 [20] (-6)
5AAB  F7                 [21] (-6)
5AAC  02                 [22] (-6)
5AAD  00                 [23] (-6)
5AAE  00                 [24] (-6)
5AAF  F7                 [25] (-5)
5AB0  02                 [26] (-5)
5AB1  00                 [27] (-5)
5AB2  00                 [28] (-5)
5AB3  F7                 [29] (-5)
5AB4  02                 [30] (-5)
5AB5  00                 [31] (-5)
5AB6  00                 [32] (-5)
5AB7  F7                 [33] (-4)
                         * locals:
5B1B  00                 sizelocvars (0)
                         * upvalues:
5B1C  00                 sizeupvalues (0)
                         ** end of function **

                         
5B1D                     ** function [2] definition (level 3)
                         ** start of function **
5B1D  00                 string size (0)
                         source name: (none)
5B1F  05                 line defined (766)
5B20  85                 last line defined (773)
5B21  06                 nups (0)
5B22  00                 numparams (1)
5B23  01                 is_vararg (0)
5B24  00                 maxstacksize (7)
                         * code:
5B26  1C                 sizecode (28)
5B27  4E004000           [01] gettable   1   0   256  ; "mClipName"
fail op	35
5B2B  2340C000           [02] close      0  
5B2F  1A000080           [03] jmp        1            ; to [5]
5B33  1E008000           [04] return     0   1      
5B37  5D800000           [05] getglobal  1   2        ; mMovie
5B3B  64C0C000           [06] self       1   1   259  ; -2013161817
5B3F  CE004000           [07] gettable   3   0   256  ; "mClipName"
5B43  19010100           [08] loadk      4   4        ; "NameTag.Bg"
5B47  59410100           [09] loadk      5   5        ; "_color"
5B4B  9D810100           [10] getglobal  6   6        ; _G
5B4F  8EC14103           [11] gettable   6   6   263  ; "UIColor_White"
5B53  62400003           [12] call       1   6   1  
5B57  5D800000           [13] getglobal  1   2        ; mMovie
5B5B  64C0C000           [14] self       1   1   259  ; -2013161817
5B5F  CE004000           [15] gettable   3   0   256  ; "mClipName"
5B63  19010200           [16] loadk      4   8        ; "Outline"
5B67  59410200           [17] loadk      5   9        ; "_alpha"
5B6B  99810200           [18] loadk      6   10       ; 0
5B6F  62400003           [19] call       1   6   1  
5B73  5D800000           [20] getglobal  1   2        ; mMovie
5B77  64C0C000           [21] self       1   1   259  ; -2013161817
5B7B  CE004000           [22] gettable   3   0   256  ; "mClipName"
5B7F  19010200           [23] loadk      4   8        ; "Outline"
5B83  59410100           [24] loadk      5   5        ; "_color"
5B87  9D810100           [25] getglobal  6   6        ; _G
5B8B  8EC14103           [26] gettable   6   6   263  ; "UIColor_White"
5B8F  62400003           [27] call       1   6   1  
5B93  1E008000           [28] return     0   1      
                         * constants:
5B97  0B                 sizek (11)
5B98  04                 const type 4
5B99  0A                 string size (10)
5B9A  6D436C69704E616D+  "mClipNam"
5BA2  6500               "e\0"
                         const [0]: "mClipName"
5BA4  00                 const type 0
                         const [1]: nil
5BA5  04                 const type 4
5BA6  07                 string size (7)
5BA7  6D4D6F76696500     "mMovie\0"
                         const [2]: "mMovie"
5BAE  01                 const type 3
5BAF  A7960188           const [3]: (-2013161817)
5BB3  04                 const type 4
5BB4  0B                 string size (11)
5BB5  4E616D655461672E+  "NameTag."
5BBD  426700             "Bg\0"
                         const [4]: "NameTag.Bg"
5BC0  04                 const type 4
5BC1  07                 string size (7)
5BC2  5F636F6C6F7200     "_color\0"
                         const [5]: "_color"
5BC9  04                 const type 4
5BCA  03                 string size (3)
5BCB  5F4700             "_G\0"
                         const [6]: "_G"
5BCE  04                 const type 4
5BCF  0E                 string size (14)
5BD0  5549436F6C6F725F+  "UIColor_"
5BD8  576869746500       "White\0"
                         const [7]: "UIColor_White"
5BDE  04                 const type 4
5BDF  08                 string size (8)
5BE0  4F75746C696E6500   "Outline\0"
                         const [8]: "Outline"
5BE8  04                 const type 4
5BE9  07                 string size (7)
5BEA  5F616C70686100     "_alpha\0"
                         const [9]: "_alpha"
5BF1  03                 const type 3
5BF2  00007041           const [10]: (0)
                         * functions:
5BF6  00                 sizep (0)
                         * lines:
5BF7  1C                 sizelineinfo (28)
                         [pc] (line)
5BF8  FF                 [01] (-1)
5BF9  02                 [02] (-1)
5BFA  00                 [03] (-1)
5BFB  00                 [04] (0)
5BFC  FF                 [05] (2)
5BFD  02                 [06] (2)
5BFE  00                 [07] (2)
5BFF  00                 [08] (2)
5C00  FF                 [09] (2)
5C01  02                 [10] (2)
5C02  00                 [11] (2)
5C03  00                 [12] (2)
5C04  00                 [13] (3)
5C05  03                 [14] (3)
5C06  00                 [15] (3)
5C07  00                 [16] (3)
5C08  02                 [17] (3)
5C09  03                 [18] (3)
5C0A  00                 [19] (3)
5C0B  00                 [20] (4)
5C0C  02                 [21] (4)
5C0D  03                 [22] (4)
5C0E  00                 [23] (4)
5C0F  00                 [24] (4)
5C10  02                 [25] (4)
5C11  03                 [26] (4)
5C12  00                 [27] (4)
5C13  00                 [28] (5)
                         * locals:
5C68  00                 sizelocvars (0)
                         * upvalues:
5C69  00                 sizeupvalues (0)
                         ** end of function **

                         
5C6A                     ** function [3] definition (level 3)
                         ** start of function **
5C6A  00                 string size (0)
                         source name: (none)
5C6C  06                 line defined (775)
5C6D  A3                 last line defined (803)
5C6E  06                 nups (6)
5C6F  06                 numparams (1)
5C70  01                 is_vararg (0)
5C71  00                 maxstacksize (9)
                         * code:
5C73  4E                 sizecode (78)
5C74  53000000           [01] getupval   1   0      
5C78  4E00C000           [02] gettable   1   1   256  ; "mFocusedMenuElement"
fail op	35
5C7C  6340C000           [03] close      1  
5C80  1AC00A80           [04] jmp        44           ; to [49]
5C84  53000000           [05] getupval   1   0      
5C88  4E00C000           [06] gettable   1   1   256  ; "mFocusedMenuElement"
5C8C  4E80C000           [07] gettable   1   1   258  ; "mClipName"
fail op	35
5C90  6340C000           [08] close      1  
5C94  1A800980           [09] jmp        39           ; to [49]
5C98  53000000           [10] getupval   1   0      
5C9C  4E00C000           [11] gettable   1   1   256  ; "mFocusedMenuElement"
5CA0  4EC0C000           [12] gettable   1   1   259  ; "Id"
5CA4  8EC04000           [13] gettable   2   0   259  ; "Id"
fail op	35
5CA8  23808000           [14] close      0  
5CAC  1AC00580           [15] jmp        24           ; to [40]
5CB0  5D000100           [16] getglobal  1   4        ; 1491452635
5CB4  62808000           [17] call       1   1   2  
5CB8  93008000           [18] getupval   2   1      
5CBC  98000000           [19] test       2       0    ; to [21] if true
5CC0  1A400380           [20] jmp        14           ; to [35]
5CC4  9D400100           [21] getglobal  2   5        ; Engine
5CC8  8E804101           [22] gettable   2   2   262  ; -1802437008
5CCC  A2808000           [23] call       2   1   2  
5CD0  98400000           [24] test       2       1    ; to [26] if false
5CD4  1A000180           [25] jmp        5            ; to [31]
5CD8  93000000           [26] getupval   2   0      
5CDC  8EC04101           [27] gettable   2   2   263  ; "mPressTime"
5CE0  8D808000           [28] sub        2   1   2  
fail op	21
5CE4  15004201           [29] concat     0   2   264
5CE8  1AC00080           [30] jmp        4            ; to [35]
5CEC  93000000           [31] getupval   2   0      
5CF0  8C40C283           [32] settable   2   263 265  ; "mPressTime" 0
5CF4  93000001           [33] getupval   2   2      
5CF8  A2408000           [34] call       2   1   1  
5CFC  93000000           [35] getupval   2   0      
5D00  DD000100           [36] getglobal  3   4        ; 1491452635
5D04  E2808000           [37] call       3   1   2  
5D08  8CC08083           [38] settable   2   263 3    ; "mPressTime"
5D0C  1E008000           [39] return     0   1      
5D10  9D800200           [40] getglobal  2   10       ; mMovie
5D14  A4C04201           [41] self       2   2   267  ; -2013161817
5D18  13010000           [42] getupval   4   0      
5D1C  0E014002           [43] gettable   4   4   256  ; "mFocusedMenuElement"
5D20  0E814002           [44] gettable   4   4   258  ; "mClipName"
5D24  59010300           [45] loadk      5   12       ; "Bg"
5D28  99410300           [46] loadk      6   13       ; "_alpha"
5D2C  D9810300           [47] loadk      7   14       ; 0
5D30  A2400003           [48] call       2   6   1  
5D34  93000000           [49] getupval   2   0      
5D38  DD000100           [50] getglobal  3   4        ; 1491452635
5D3C  E2808000           [51] call       3   1   2  
5D40  8CC08083           [52] settable   2   263 3    ; "mPressTime"
5D44  93008000           [53] getupval   2   1      
5D48  D3000000           [54] getupval   3   0      
5D4C  CC000080           [55] settable   3   256 0    ; "mFocusedMenuElement"
5D50  98000000           [56] test       2       0    ; to [58] if true
5D54  1A400080           [57] jmp        2            ; to [60]
5D58  D3008001           [58] getupval   3   3      
5D5C  E2408000           [59] call       3   1   1  
5D60  CE804000           [60] gettable   3   0   258  ; "mClipName"
fail op	35
5D64  6340C001           [61] close      1  
5D68  1A800180           [62] jmp        7            ; to [70]
5D6C  DD800200           [63] getglobal  3   10       ; mMovie
5D70  E4C0C201           [64] self       3   3   267  ; -2013161817
5D74  4E814000           [65] gettable   5   0   258  ; "mClipName"
5D78  99010300           [66] loadk      6   12       ; "Bg"
5D7C  D9410300           [67] loadk      7   13       ; "_alpha"
5D80  19C20300           [68] loadk      8   15       ; 0
5D84  E2400003           [69] call       3   6   1  
5D88  D3000002           [70] getupval   3   4      
5D8C  0EC14000           [71] gettable   4   0   259  ; "Id"
5D90  E2400001           [72] call       3   2   1  
5D94  D3008002           [73] getupval   3   5      
5D98  CE00C401           [74] gettable   3   3   272  ; 630793108
5D9C  1D410400           [75] getglobal  4   17       ; _G
5DA0  0E814402           [76] gettable   4   4   274  ; "UISound_Select"
5DA4  E2400001           [77] call       3   2   1  
5DA8  1E008000           [78] return     0   1      
                         * constants:
5DAC  13                 sizek (19)
5DAD  04                 const type 4
5DAE  14                 string size (20)
5DAF  6D466F6375736564+  "mFocused"
5DB7  4D656E75456C656D+  "MenuElem"
5DBF  656E7400           "ent\0"
                         const [0]: "mFocusedMenuElement"
5DC3  00                 const type 0
                         const [1]: nil
5DC4  04                 const type 4
5DC5  0A                 string size (10)
5DC6  6D436C69704E616D+  "mClipNam"
5DCE  6500               "e\0"
                         const [2]: "mClipName"
5DD0  04                 const type 4
5DD1  03                 string size (3)
5DD2  496400             "Id\0"
                         const [3]: "Id"
5DD5  01                 const type 3
5DD6  DBC2E558           const [4]: (1491452635)
5DDA  04                 const type 4
5DDB  07                 string size (7)
5DDC  456E67696E6500     "Engine\0"
                         const [5]: "Engine"
5DE3  01                 const type 3
5DE4  70FE9094           const [6]: (-1802437008)
5DE8  04                 const type 4
5DE9  0B                 string size (11)
5DEA  6D50726573735469+  "mPressTi"
5DF2  6D6500             "me\0"
                         const [7]: "mPressTime"
5DF5  03                 const type 3
5DF6  0000003F           const [8]: (0)
5DFA  03                 const type 3
5DFB  00000000           const [9]: (0)
5DFF  04                 const type 4
5E00  07                 string size (7)
5E01  6D4D6F76696500     "mMovie\0"
                         const [10]: "mMovie"
5E08  01                 const type 3
5E09  A7960188           const [11]: (-2013161817)
5E0D  04                 const type 4
5E0E  03                 string size (3)
5E0F  426700             "Bg\0"
                         const [12]: "Bg"
5E12  04                 const type 4
5E13  07                 string size (7)
5E14  5F616C70686100     "_alpha\0"
                         const [13]: "_alpha"
5E1B  03                 const type 3
5E1C  0000A041           const [14]: (0)
5E20  03                 const type 3
5E21  00004842           const [15]: (0)
5E25  01                 const type 3
5E26  94239925           const [16]: (630793108)
5E2A  04                 const type 4
5E2B  03                 string size (3)
5E2C  5F4700             "_G\0"
                         const [17]: "_G"
5E2F  04                 const type 4
5E30  0F                 string size (15)
5E31  5549536F756E645F+  "UISound_"
5E39  53656C65637400     "Select\0"
                         const [18]: "UISound_Select"
                         * functions:
5E40  00                 sizep (0)
                         * lines:
5E41  4E                 sizelineinfo (78)
                         [pc] (line)
5E42  08                 [01] (8)
5E43  03                 [02] (8)
5E44  00                 [03] (8)
5E45  00                 [04] (8)
5E46  08                 [05] (8)
5E47  03                 [06] (8)
5E48  00                 [07] (8)
5E49  00                 [08] (8)
5E4A  08                 [09] (8)
5E4B  03                 [10] (9)
5E4C  00                 [11] (9)
5E4D  00                 [12] (9)
5E4E  08                 [13] (9)
5E4F  03                 [14] (9)
5E50  00                 [15] (9)
5E51  00                 [16] (10)
5E52  08                 [17] (10)
5E53  03                 [18] (11)
5E54  00                 [19] (11)
5E55  00                 [20] (11)
5E56  08                 [21] (11)
5E57  03                 [22] (11)
5E58  00                 [23] (11)
5E59  00                 [24] (11)
5E5A  08                 [25] (11)
5E5B  03                 [26] (11)
5E5C  00                 [27] (11)
5E5D  00                 [28] (11)
5E5E  08                 [29] (11)
5E5F  03                 [30] (11)
5E60  00                 [31] (12)
5E61  00                 [32] (12)
5E62  08                 [33] (13)
5E63  03                 [34] (13)
5E64  00                 [35] (15)
5E65  00                 [36] (15)
5E66  09                 [37] (15)
5E67  03                 [38] (15)
5E68  00                 [39] (16)
5E69  00                 [40] (18)
5E6A  09                 [41] (18)
5E6B  03                 [42] (18)
5E6C  00                 [43] (18)
5E6D  00                 [44] (18)
5E6E  09                 [45] (18)
5E6F  03                 [46] (18)
5E70  00                 [47] (18)
5E71  00                 [48] (18)
5E72  09                 [49] (21)
5E73  03                 [50] (21)
5E74  00                 [51] (21)
5E75  00                 [52] (21)
5E76  09                 [53] (22)
5E77  03                 [54] (24)
5E78  00                 [55] (24)
5E79  00                 [56] (25)
5E7A  09                 [57] (25)
5E7B  03                 [58] (26)
5E7C  00                 [59] (26)
5E7D  00                 [60] (30)
5E7E  0A                 [61] (30)
5E7F  03                 [62] (30)
5E80  00                 [63] (31)
5E81  00                 [64] (31)
5E82  0A                 [65] (31)
5E83  03                 [66] (31)
5E84  00                 [67] (31)
5E85  00                 [68] (31)
5E86  0B                 [69] (31)
5E87  03                 [70] (33)
5E88  00                 [71] (33)
5E89  00                 [72] (33)
5E8A  0B                 [73] (34)
5E8B  03                 [74] (34)
5E8C  00                 [75] (34)
5E8D  00                 [76] (34)
5E8E  0B                 [77] (34)
5E8F  03                 [78] (35)
                         * locals:
5F7A  00                 sizelocvars (0)
                         * upvalues:
5F7B  00                 sizeupvalues (0)
                         ** end of function **

                         
5F7C                     ** function [4] definition (level 3)
                         ** start of function **
5F7C  00                 string size (0)
                         source name: (none)
5F7E  06                 line defined (805)
5F7F  A7                 last line defined (807)
5F80  06                 nups (1)
5F81  01                 numparams (1)
5F82  01                 is_vararg (0)
5F83  00                 maxstacksize (3)
                         * code:
5F85  06                 sizecode (6)
5F86  53000000           [1] getupval   1   0      
5F8A  4E00C000           [2] gettable   1   1   256  ; 630793108
5F8E  9D400000           [3] getglobal  2   1        ; _G
5F92  8E804001           [4] gettable   2   2   258  ; "UISound_Select"
5F96  62400001           [5] call       1   2   1  
5F9A  1E008000           [6] return     0   1      
                         * constants:
5F9E  03                 sizek (3)
5F9F  01                 const type 3
5FA0  94239925           const [0]: (630793108)
5FA4  04                 const type 4
5FA5  03                 string size (3)
5FA6  5F4700             "_G\0"
                         const [1]: "_G"
5FA9  04                 const type 4
5FAA  0F                 string size (15)
5FAB  5549536F756E645F+  "UISound_"
5FB3  53656C65637400     "Select\0"
                         const [2]: "UISound_Select"
                         * functions:
5FBA  00                 sizep (0)
                         * lines:
5FBB  06                 sizelineinfo (6)
                         [pc] (line)
5FBC  26                 [1] (38)
5FBD  03                 [2] (38)
5FBE  00                 [3] (38)
5FBF  00                 [4] (38)
5FC0  26                 [5] (38)
5FC1  03                 [6] (39)
                         * locals:
5FD4  00                 sizelocvars (0)
                         * upvalues:
5FD5  00                 sizeupvalues (0)
                         ** end of function **

                         
5FD6                     ** function [5] definition (level 3)
                         ** start of function **
5FD6  00                 string size (0)
                         source name: (none)
5FD8  06                 line defined (809)
5FD9  AB                 last line defined (811)
5FDA  06                 nups (0)
5FDB  00                 numparams (1)
5FDC  01                 is_vararg (0)
5FDD  00                 maxstacksize (9)
                         * code:
5FDF  10                 sizecode (16)
5FE0  5D000000           [01] getglobal  1   0        ; mMovie
5FE4  6440C000           [02] self       1   1   257  ; 471456102
5FE8  D9800000           [03] loadk      3   2        ; "ImprintPanel.BottomCap"
5FEC  19C10000           [04] loadk      4   3        ; "_y"
5FF0  5D010100           [05] getglobal  5   4        ; math
5FF4  4E41C102           [06] gettable   5   5   261  ; 1710846250
5FF8  A4814100           [07] self       6   0   262  ; -988128099
5FFC  A2810001           [08] call       6   2   2  
6000  E4C14100           [09] self       7   0   263  ; 1926628609
6004  E2010001           [10] call       7   2   0  
6008  62810000           [11] call       5   0   2  
600C  8E014200           [12] gettable   6   0   264  ; "mForcedVerticalSeparation"
6010  44818102           [13] mul        5   5   6  
6014  4341C202           [14] add        5   5   265  ; 0
6018  62408002           [15] call       1   5   1  
601C  1E008000           [16] return     0   1      
                         * constants:
6020  0A                 sizek (10)
6021  04                 const type 4
6022  07                 string size (7)
6023  6D4D6F76696500     "mMovie\0"
                         const [0]: "mMovie"
602A  01                 const type 3
602B  66D9191C           const [1]: (471456102)
602F  04                 const type 4
6030  17                 string size (23)
6031  496D7072696E7450+  "ImprintP"
6039  616E656C2E426F74+  "anel.Bot"
6041  746F6D43617000     "tomCap\0"
                         const [2]: "ImprintPanel.BottomCap"
6048  04                 const type 4
6049  03                 string size (3)
604A  5F7900             "_y\0"
                         const [3]: "_y"
604D  04                 const type 4
604E  05                 string size (5)
604F  6D61746800         "math\0"
                         const [4]: "math"
6054  01                 const type 3
6055  2A71F965           const [5]: (1710846250)
6059  01                 const type 3
605A  9D5C1AC5           const [6]: (-988128099)
605E  01                 const type 3
605F  0105D672           const [7]: (1926628609)
6063  04                 const type 4
6064  1A                 string size (26)
6065  6D466F7263656456+  "mForcedV"
606D  6572746963616C53+  "erticalS"
6075  657061726174696F+  "eparatio"
607D  6E00               "n\0"
                         const [8]: "mForcedVerticalSeparation"
607F  03                 const type 3
6080  00004041           const [9]: (0)
                         * functions:
6084  00                 sizep (0)
                         * lines:
6085  10                 sizelineinfo (16)
                         [pc] (line)
6086  2A                 [01] (42)
6087  03                 [02] (42)
6088  00                 [03] (42)
6089  00                 [04] (42)
608A  2A                 [05] (42)
608B  03                 [06] (42)
608C  00                 [07] (42)
608D  00                 [08] (42)
608E  2A                 [09] (42)
608F  03                 [10] (42)
6090  00                 [11] (42)
6091  00                 [12] (42)
6092  2A                 [13] (42)
6093  03                 [14] (42)
6094  00                 [15] (42)
6095  00                 [16] (43)
                         * locals:
60C6  00                 sizelocvars (0)
                         * upvalues:
60C7  00                 sizeupvalues (0)
                         ** end of function **

                         
60C8                     ** function [6] definition (level 3)
                         ** start of function **
60C8  00                 string size (0)
                         source name: (none)
60CA  06                 line defined (814)
60CB  B4                 last line defined (820)
60CC  06                 nups (0)
60CD  00                 numparams (2)
60CE  02                 is_vararg (0)
60CF  00                 maxstacksize (5)
                         * code:
60D1  0B                 sizecode (11)
60D2  A4004000           [01] self       2   0   256  ; -1206695824
60D6  12018000           [02] move       4   1      
60DA  A2808001           [03] call       2   3   2  
60DE  E4404000           [04] self       3   0   257  ; -988128099
60E2  E2800001           [05] call       3   2   2  
60E6  0E814000           [06] gettable   4   0   258  ; "mVisibleElements"
fail op	33
60EA  21008101           [07] tforloop   0       4    ; to [9] if exit
60EE  1A000080           [08] jmp        1            ; to [10]
60F2  83C04001           [09] add        2   2   259  ; 0
60F6  9E000001           [10] return     2   2      
60FA  1E008000           [11] return     0   1      
                         * constants:
60FE  04                 sizek (4)
60FF  01                 const type 3
6100  704813B8           const [0]: (-1206695824)
6104  01                 const type 3
6105  9D5C1AC5           const [1]: (-988128099)
6109  04                 const type 4
610A  11                 string size (17)
610B  6D56697369626C65+  "mVisible"
6113  456C656D656E7473+  "Elements"
611B  00                 "\0"
                         const [2]: "mVisibleElements"
611C  03                 const type 3
611D  00002041           const [3]: (0)
                         * functions:
6121  00                 sizep (0)
                         * lines:
6122  0B                 sizelineinfo (11)
                         [pc] (line)
6123  2F                 [01] (47)
6124  03                 [02] (47)
6125  00                 [03] (47)
6126  00                 [04] (48)
6127  2F                 [05] (48)
6128  03                 [06] (48)
6129  00                 [07] (48)
612A  00                 [08] (48)
612B  2F                 [09] (49)
612C  03                 [10] (51)
612D  00                 [11] (52)
                         * locals:
614F  00                 sizelocvars (0)
                         * upvalues:
6150  00                 sizeupvalues (0)
                         ** end of function **

                         * lines:
6151  41                 sizelineinfo (65)
                         [pc] (line)
6152  D7                 [01] (-41)
6153  02                 [02] (-41)
6154  00                 [03] (-41)
6155  00                 [04] (-40)
6156  D7                 [05] (-40)
6157  02                 [06] (-40)
6158  00                 [07] (-40)
6159  00                 [08] (-40)
615A  D7                 [09] (-39)
615B  02                 [10] (-39)
615C  00                 [11] (-39)
615D  00                 [12] (-39)
615E  D8                 [13] (-39)
615F  02                 [14] (-39)
6160  00                 [15] (-39)
6161  00                 [16] (-38)
6162  D8                 [17] (-38)
6163  02                 [18] (-37)
6164  00                 [19] (-37)
6165  00                 [20] (-36)
6166  D8                 [21] (-36)
6167  02                 [22] (-36)
6168  00                 [23] (-36)
6169  00                 [24] (-36)
616A  D8                 [25] (-35)
616B  02                 [26] (-35)
616C  00                 [27] (-35)
616D  00                 [28] (-34)
616E  D8                 [29] (-34)
616F  02                 [30] (-33)
6170  00                 [31] (-15)
6171  00                 [32] (-15)
6172  D9                 [33] (-15)
6173  02                 [34] (-15)
6174  00                 [35] (-14)
6175  00                 [36] (-4)
6176  D9                 [37] (-4)
6177  02                 [38] (-4)
6178  00                 [39] (-3)
6179  00                 [40] (5)
617A  D9                 [41] (5)
617B  02                 [42] (6)
617C  00                 [43] (35)
617D  00                 [44] (35)
617E  D9                 [45] (35)
617F  02                 [46] (35)
6180  00                 [47] (35)
6181  00                 [48] (35)
6182  D9                 [49] (35)
6183  02                 [50] (35)
6184  00                 [51] (36)
6185  00                 [52] (39)
6186  D9                 [53] (39)
6187  02                 [54] (39)
6188  00                 [55] (40)
6189  00                 [56] (43)
618A  D9                 [57] (43)
618B  02                 [58] (44)
618C  00                 [59] (44)
618D  00                 [60] (44)
618E  DA                 [61] (44)
618F  02                 [62] (45)
6190  00                 [63] (52)
6191  00                 [64] (52)
6192  DA                 [65] (53)
                         * locals:
6256  00                 sizelocvars (0)
                         * upvalues:
6257  00                 sizeupvalues (0)
                         ** end of function **

                         
6258                     ** function [38] definition (level 2)
                         ** start of function **
6258  00                 string size (0)
                         source name: (none)
625A  06                 line defined (823)
625B  B9                 last line defined (825)
625C  06                 nups (1)
625D  01                 numparams (2)
625E  02                 is_vararg (0)
625F  00                 maxstacksize (3)
                         * code:
6261  03                 sizecode (3)
6262  93000000           [1] getupval   2   0      
6266  A2408000           [2] call       2   1   1  
626A  1E008000           [3] return     0   1      
                         * constants:
626E  00                 sizek (0)
                         * functions:
626F  00                 sizep (0)
                         * lines:
6270  03                 sizelineinfo (3)
                         [pc] (line)
6271  38                 [1] (56)
6272  03                 [2] (56)
6273  00                 [3] (57)
                         * locals:
627D  00                 sizelocvars (0)
                         * upvalues:
627E  00                 sizeupvalues (0)
                         ** end of function **

                         
627F                     ** function [39] definition (level 2)
                         ** start of function **
627F  00                 string size (0)
                         source name: (none)
6281  06                 line defined (827)
6282  BF                 last line defined (831)
6283  06                 nups (1)
6284  01                 numparams (0)
6285  00                 is_vararg (0)
6286  00                 maxstacksize (2)
                         * code:
6288  07                 sizecode (7)
6289  1D000000           [1] getglobal  0   0        ; 1074689893
628D  53000000           [2] getupval   1   0      
6291  22800001           [3] call       0   2   2  
6295  18000000           [4] test       0       0    ; to [6] if true
6299  1A000080           [5] jmp        1            ; to [7]
629D  1E008000           [6] return     0   1      
62A1  1E008000           [7] return     0   1      
                         * constants:
62A5  01                 sizek (1)
62A6  01                 const type 3
62A7  65770E40           const [0]: (1074689893)
                         * functions:
62AB  00                 sizep (0)
                         * lines:
62AC  07                 sizelineinfo (7)
                         [pc] (line)
62AD  3C                 [1] (60)
62AE  03                 [2] (60)
62AF  00                 [3] (60)
62B0  00                 [4] (60)
62B1  3C                 [5] (60)
62B2  03                 [6] (61)
62B3  00                 [7] (63)
                         * locals:
62C9  00                 sizelocvars (0)
                         * upvalues:
62CA  00                 sizeupvalues (0)
                         ** end of function **

                         
62CB                     ** function [40] definition (level 2)
                         ** start of function **
62CB  00                 string size (0)
                         source name: (none)
62CD  06                 line defined (833)
62CE  F2                 last line defined (882)
62CF  06                 nups (14)
62D0  0E                 numparams (1)
62D1  01                 is_vararg (0)
62D2  00                 maxstacksize (11)
                         * code:
62D5  01                 sizecode (130)
62D6  53000000           [001] getupval   1   0      
62DA  58000000           [002] test       1       0    ; to [4] if true
62DE  1A000080           [003] jmp        1            ; to [5]
62E2  1E008000           [004] return     0   1      
62E6  5D000000           [005] getglobal  1   0        ; 849075268
62EA  99400000           [006] loadk      2   1        ; "Lotus.Interface.Libs.TimerMgr"
62EE  62800001           [007] call       1   2   2  
62F2  8E80C000           [008] gettable   2   1   258  ; -1029178688
62F6  A2808000           [009] call       2   1   2  
fail op	8
62FA  88008000           [010] setupval   2   1      
62FE  9DC00000           [011] getglobal  2   3        ; _T
6302  8C404182           [012] settable   2   260 261  ; "DecoTemplatePreviewOpen" 1
6306  93000001           [013] getupval   2   2      
630A  8E804101           [014] gettable   2   2   262  ; -1262767739
630E  D7008000           [015] loadbool   3   1   0    ; true
6312  A2400001           [016] call       2   2   1  
6316  93000002           [017] getupval   2   4      
631A  8EC04101           [018] gettable   2   2   263  ; 1191123516
631E  DD000200           [019] getglobal  3   8        ; mMovie
6322  A2800001           [020] call       2   2   2  
fail op	8
6326  88008001           [021] setupval   2   3      
632A  93008001           [022] getupval   2   3      
632E  A4404201           [023] self       2   2   265  ; -1716902634
6332  1D010200           [024] getglobal  4   8        ; mMovie
6336  59810200           [025] loadk      5   10       ; "ImprintPanel"
633A  8B010001           [026] newtable   6   2   0    ; array=2, hash=0
633E  D3018001           [027] getupval   7   3      
6342  CEC1C203           [028] gettable   7   7   267  ; "ANCHOR_H_RIGHT"
6346  13028001           [029] getupval   8   3      
634A  0E024304           [030] gettable   8   8   268  ; "ANCHOR_V_CENTRE"
634E  9B410001           [031] setlist    6   2   1    ; index 1 to 2
6352  A2408002           [032] call       2   5   1  
6356  93008001           [033] getupval   2   3      
635A  A4404301           [034] self       2   2   269  ; -1938777623
635E  1D010200           [035] getglobal  4   8        ; mMovie
6362  24814302           [036] self       4   4   270  ; -174729759
6366  22810001           [037] call       4   2   2  
636A  5D010200           [038] getglobal  5   8        ; mMovie
636E  64C1C302           [039] self       5   5   271  ; -301556379
6372  62010001           [040] call       5   2   0  
6376  A2400000           [041] call       2   0   1  
637A  9D000400           [042] getglobal  2   16       ; 1074689893
637E  DD400400           [043] getglobal  3   17       ; gPlayerProfileMgr
6382  E480C401           [044] self       3   3   274  ; 569342746
6386  59C10400           [045] loadk      5   19       ; 0
638A  E2008001           [046] call       3   3   0  
638E  A2800000           [047] call       2   0   2  
6392  98400000           [048] test       2       1    ; to [50] if false
6396  1A800180           [049] jmp        7            ; to [57]
639A  9D400400           [050] getglobal  2   17       ; gPlayerProfileMgr
639E  A4804401           [051] self       2   2   274  ; 569342746
63A2  19C10400           [052] loadk      4   19       ; 0
63A6  A2808001           [053] call       2   3   2  
63AA  A4004501           [054] self       2   2   276  ; 1699680402
63AE  A2800001           [055] call       2   2   2  
fail op	8
63B2  88008002           [056] setupval   2   5      
63B6  93000003           [057] getupval   2   6      
63BA  A2408000           [058] call       2   1   1  
63BE  93008003           [059] getupval   2   7      
63C2  8E404501           [060] gettable   2   2   277  ; 630793108
63C6  DD800500           [061] getglobal  3   22       ; _G
63CA  CEC0C501           [062] gettable   3   3   279  ; "UISound_Open"
63CE  A2400001           [063] call       2   2   1  
63D2  93000004           [064] getupval   2   8      
fail op	35
63D6  23004601           [065] close      0  
63DA  1A800180           [066] jmp        7            ; to [74]
63DE  9D000000           [067] getglobal  2   0        ; 849075268
63E2  D9400600           [068] loadk      3   25       ; "Lotus.Interface.Libs.DioramaLoader"
63E6  A2800001           [069] call       2   2   2  
63EA  CE804601           [070] gettable   3   2   282  ; -1069406678
63EE  1D010200           [071] getglobal  4   8        ; mMovie
63F2  E2800001           [072] call       3   2   2  
fail op	8
63F6  C8000004           [073] setupval   3   8      
63FA  DD000200           [074] getglobal  3   8        ; mMovie
63FE  E4C0C601           [075] self       3   3   283  ; 386043535
6402  59010700           [076] loadk      5   28       ; "Title.text"
6406  99410700           [077] loadk      6   29       ; ""
640A  E2400002           [078] call       3   4   1  
640E  DD000000           [079] getglobal  3   0        ; 849075268
6412  19810700           [080] loadk      4   30       ; "Lotus.Interface.Components.ThemedSpinner"
6416  E2800001           [081] call       3   2   2  
641A  0EC1C101           [082] gettable   4   3   263  ; 1191123516
641E  5D010200           [083] getglobal  5   8        ; mMovie
6422  99C10700           [084] loadk      6   31       ; "Spinner"
6426  22818001           [085] call       4   3   2  
fail op	8
642A  08018004           [086] setupval   4   9      
642E  13018004           [087] getupval   4   9      
6432  24014802           [088] self       4   4   288  ; -492641364
6436  97018000           [089] loadbool   6   1   0    ; true
643A  22418001           [090] call       4   3   1  
643E  1D010200           [091] getglobal  4   8        ; mMovie
6442  24414802           [092] self       4   4   289  ; 471456102
6446  99810200           [093] loadk      6   10       ; "ImprintPanel"
644A  D9810800           [094] loadk      7   34       ; "_alpha"
644E  19C20400           [095] loadk      8   19       ; 0
6452  22418002           [096] call       4   5   1  
6456  13010005           [097] getupval   4   10     
645A  22418000           [098] call       4   1   1  
645E  13018005           [099] getupval   4   11     
6462  22418000           [100] call       4   1   1  
6466  13010006           [101] getupval   4   12     
646A  22418000           [102] call       4   1   1  
646E  1DC10800           [103] getglobal  4   35       ; 1390508688
6472  5D010200           [104] getglobal  5   8        ; mMovie
6476  99010900           [105] loadk      6   36       ; "_root"
647A  DD410900           [106] getglobal  7   37       ; UISys
647E  CE81C903           [107] gettable   7   7   294  ; "FlashInstance_LINEAR"
6482  0B028000           [108] newtable   8   1   0    ; array=1, hash=0
6486  59820800           [109] loadk      9   34       ; "_alpha"
648A  1B428000           [110] setlist    8   1   1    ; index 1 to 1
648E  4B028000           [111] newtable   9   1   0    ; array=1, hash=0
6492  99C20900           [112] loadk      10  39       ; 0
6496  5B428000           [113] setlist    9   1   1    ; index 1 to 1
649A  99020A00           [114] loadk      10  40       ; 0
649E  22418003           [115] call       4   7   1  
64A2  17018000           [116] loadbool   4   1   0    ; true
fail op	8
64A6  08010000           [117] setupval   4   0      
64AA  1D010200           [118] getglobal  4   8        ; mMovie
64AE  24414A02           [119] self       4   4   297  ; -403402525
64B2  99C10400           [120] loadk      6   19       ; 0
64B6  22418001           [121] call       4   3   1  
64BA  1D010400           [122] getglobal  4   16       ; 1074689893
64BE  5D810A00           [123] getglobal  5   42       ; dioramaRes
64C2  22810001           [124] call       4   2   2  
64C6  18410000           [125] test       4       1    ; to [127] if false
64CA  1A800080           [126] jmp        3            ; to [130]
64CE  13018006           [127] getupval   4   13     
64D2  5D810A00           [128] getglobal  5   42       ; dioramaRes
64D6  22410001           [129] call       4   2   1  
64DA  1E008000           [130] return     0   1      
                         * constants:
64DE  2B                 sizek (43)
64DF  01                 const type 3
64E0  44DC9B32           const [0]: (849075268)
64E4  04                 const type 4
64E5  1E                 string size (30)
64E6  4C6F7475732E496E+  "Lotus.In"
64EE  746572666163652E+  "terface."
64F6  4C6962732E54696D+  "Libs.Tim"
64FE  65724D677200       "erMgr\0"
                         const [1]: "Lotus.Interface.Libs.TimerMgr"
6504  01                 const type 3
6505  C0FAA7C2           const [2]: (-1029178688)
6509  04                 const type 4
650A  03                 string size (3)
650B  5F5400             "_T\0"
                         const [3]: "_T"
650E  04                 const type 4
650F  18                 string size (24)
6510  4465636F54656D70+  "DecoTemp"
6518  6C61746550726576+  "latePrev"
6520  6965774F70656E00   "iewOpen\0"
                         const [4]: "DecoTemplatePreviewOpen"
6528  01                 const type 3
6529  01000000           const [5]: (1)
652D  01                 const type 3
652E  85B1BBB4           const [6]: (-1262767739)
6532  01                 const type 3
6533  3C1AFF46           const [7]: (1191123516)
6537  04                 const type 4
6538  07                 string size (7)
6539  6D4D6F76696500     "mMovie\0"
                         const [8]: "mMovie"
6540  01                 const type 3
6541  1625AA99           const [9]: (-1716902634)
6545  04                 const type 4
6546  0D                 string size (13)
6547  496D7072696E7450+  "ImprintP"
654F  616E656C00         "anel\0"
                         const [10]: "ImprintPanel"
6554  04                 const type 4
6555  0F                 string size (15)
6556  414E43484F525F48+  "ANCHOR_H"
655E  5F524947485400     "_RIGHT\0"
                         const [11]: "ANCHOR_H_RIGHT"
6565  04                 const type 4
6566  10                 string size (16)
6567  414E43484F525F56+  "ANCHOR_V"
656F  5F43454E54524500   "_CENTRE\0"
                         const [12]: "ANCHOR_V_CENTRE"
6577  01                 const type 3
6578  E999708C           const [13]: (-1938777623)
657C  01                 const type 3
657D  E1D595F5           const [14]: (-174729759)
6581  01                 const type 3
6582  659D06EE           const [15]: (-301556379)
6586  01                 const type 3
6587  65770E40           const [16]: (1074689893)
658B  04                 const type 4
658C  12                 string size (18)
658D  67506C6179657250+  "gPlayerP"
6595  726F66696C654D67+  "rofileMg"
659D  7200               "r\0"
                         const [17]: "gPlayerProfileMgr"
659F  01                 const type 3
65A0  1A7BEF21           const [18]: (569342746)
65A4  03                 const type 3
65A5  00000000           const [19]: (0)
65A9  01                 const type 3
65AA  92104F65           const [20]: (1699680402)
65AE  01                 const type 3
65AF  94239925           const [21]: (630793108)
65B3  04                 const type 4
65B4  03                 string size (3)
65B5  5F4700             "_G\0"
                         const [22]: "_G"
65B8  04                 const type 4
65B9  0D                 string size (13)
65BA  5549536F756E645F+  "UISound_"
65C2  4F70656E00         "Open\0"
                         const [23]: "UISound_Open"
65C7  00                 const type 0
                         const [24]: nil
65C8  04                 const type 4
65C9  23                 string size (35)
65CA  4C6F7475732E496E+  "Lotus.In"
65D2  746572666163652E+  "terface."
65DA  4C6962732E44696F+  "Libs.Dio"
65E2  72616D614C6F6164+  "ramaLoad"
65EA  657200             "er\0"
                         const [25]: "Lotus.Interface.Libs.DioramaLoader"
65ED  01                 const type 3
65EE  2A2642C0           const [26]: (-1069406678)
65F2  01                 const type 3
65F3  8F8E0217           const [27]: (386043535)
65F7  04                 const type 4
65F8  0B                 string size (11)
65F9  5469746C652E7465+  "Title.te"
6601  787400             "xt\0"
                         const [28]: "Title.text"
6604  04                 const type 4
6605  01                 string size (0)
                         const [29]: ""
6607  04                 const type 4
6608  29                 string size (41)
6609  4C6F7475732E496E+  "Lotus.In"
6611  746572666163652E+  "terface."
6619  436F6D706F6E656E+  "Componen"
6621  74732E5468656D65+  "ts.Theme"
6629  645370696E6E6572+  "dSpinner"
6631  00                 "\0"
                         const [30]: "Lotus.Interface.Components.ThemedSpinner"
6632  04                 const type 4
6633  08                 string size (8)
6634  5370696E6E657200   "Spinner\0"
                         const [31]: "Spinner"
663C  01                 const type 3
663D  ACE3A2E2           const [32]: (-492641364)
6641  01                 const type 3
6642  66D9191C           const [33]: (471456102)
6646  04                 const type 4
6647  07                 string size (7)
6648  5F616C70686100     "_alpha\0"
                         const [34]: "_alpha"
664F  01                 const type 3
6650  907AE152           const [35]: (1390508688)
6654  04                 const type 4
6655  06                 string size (6)
6656  5F726F6F7400       "_root\0"
                         const [36]: "_root"
665C  04                 const type 4
665D  06                 string size (6)
665E  554953797300       "UISys\0"
                         const [37]: "UISys"
6664  04                 const type 4
6665  15                 string size (21)
6666  466C617368496E73+  "FlashIns"
666E  74616E63655F4C49+  "tance_LI"
6676  4E45415200         "NEAR\0"
                         const [38]: "FlashInstance_LINEAR"
667B  03                 const type 3
667C  0000C842           const [39]: (0)
6680  03                 const type 3
6681  0000803E           const [40]: (0)
6685  01                 const type 3
6686  E390F4E7           const [41]: (-403402525)
668A  04                 const type 4
668B  0B                 string size (11)
668C  64696F72616D6152+  "dioramaR"
6694  657300             "es\0"
                         const [42]: "dioramaRes"
                         * functions:
6697  00                 sizep (0)
                         * lines:
6699  01                 sizelineinfo (130)
                         [pc] (line)
669A  42                 [001] (66)
669B  03                 [002] (66)
669C  00                 [003] (66)
669D  00                 [004] (67)
669E  42                 [005] (70)
669F  03                 [006] (70)
66A0  00                 [007] (70)
66A1  00                 [008] (71)
66A2  42                 [009] (71)
66A3  03                 [010] (71)
66A4  00                 [011] (73)
66A5  00                 [012] (73)
66A6  43                 [013] (74)
66A7  03                 [014] (74)
66A8  00                 [015] (74)
66A9  00                 [016] (74)
66AA  46                 [017] (76)
66AB  03                 [018] (76)
66AC  00                 [019] (76)
66AD  00                 [020] (76)
66AE  46                 [021] (76)
66AF  03                 [022] (78)
66B0  00                 [023] (78)
66B1  00                 [024] (78)
66B2  46                 [025] (78)
66B3  03                 [026] (78)
66B4  00                 [027] (78)
66B5  00                 [028] (78)
66B6  47                 [029] (78)
66B7  03                 [030] (78)
66B8  00                 [031] (78)
66B9  00                 [032] (78)
66BA  47                 [033] (79)
66BB  03                 [034] (79)
66BC  00                 [035] (79)
66BD  00                 [036] (79)
66BE  47                 [037] (79)
66BF  03                 [038] (79)
66C0  00                 [039] (79)
66C1  00                 [040] (79)
66C2  49                 [041] (79)
66C3  03                 [042] (81)
66C4  00                 [043] (81)
66C5  00                 [044] (81)
66C6  49                 [045] (81)
66C7  03                 [046] (81)
66C8  00                 [047] (81)
66C9  00                 [048] (81)
66CA  4A                 [049] (81)
66CB  03                 [050] (82)
66CC  00                 [051] (82)
66CD  00                 [052] (82)
66CE  4A                 [053] (82)
66CF  03                 [054] (82)
66D0  00                 [055] (82)
66D1  00                 [056] (82)
66D2  4A                 [057] (85)
66D3  03                 [058] (85)
66D4  00                 [059] (87)
66D5  00                 [060] (87)
66D6  4A                 [061] (87)
66D7  03                 [062] (87)
66D8  00                 [063] (87)
66D9  00                 [064] (89)
66DA  4C                 [065] (89)
66DB  03                 [066] (89)
66DC  00                 [067] (90)
66DD  00                 [068] (90)
66DE  4C                 [069] (90)
66DF  03                 [070] (91)
66E0  00                 [071] (91)
66E1  00                 [072] (91)
66E2  4C                 [073] (91)
66E3  03                 [074] (94)
66E4  00                 [075] (94)
66E5  00                 [076] (94)
66E6  4C                 [077] (94)
66E7  03                 [078] (94)
66E8  00                 [079] (96)
66E9  00                 [080] (96)
66EA  4C                 [081] (96)
66EB  03                 [082] (97)
66EC  00                 [083] (97)
66ED  00                 [084] (97)
66EE  4E                 [085] (97)
66EF  03                 [086] (97)
66F0  00                 [087] (98)
66F1  00                 [088] (98)
66F2  4E                 [089] (98)
66F3  03                 [090] (98)
66F4  00                 [091] (100)
66F5  00                 [092] (100)
66F6  4E                 [093] (100)
66F7  03                 [094] (100)
66F8  00                 [095] (100)
66F9  00                 [096] (100)
66FA  4E                 [097] (102)
66FB  03                 [098] (102)
66FC  00                 [099] (103)
66FD  00                 [100] (103)
66FE  4E                 [101] (105)
66FF  03                 [102] (105)
6700  00                 [103] (106)
6701  00                 [104] (106)
6702  4E                 [105] (106)
6703  03                 [106] (106)
6704  00                 [107] (106)
6705  00                 [108] (106)
6706  4E                 [109] (106)
6707  03                 [110] (106)
6708  00                 [111] (106)
6709  00                 [112] (106)
670A  4E                 [113] (106)
670B  03                 [114] (106)
670C  00                 [115] (106)
670D  00                 [116] (108)
670E  4E                 [117] (108)
670F  03                 [118] (109)
6710  00                 [119] (109)
6711  00                 [120] (109)
6712  4E                 [121] (109)
6713  03                 [122] (111)
6714  00                 [123] (111)
6715  00                 [124] (111)
6716  4E                 [125] (111)
6717  03                 [126] (111)
6718  00                 [127] (112)
6719  00                 [128] (112)
671A  4F                 [129] (112)
671B  03                 [130] (114)
                         * locals:
68A2  00                 sizelocvars (0)
                         * upvalues:
68A3  00                 sizeupvalues (0)
                         ** end of function **

                         
68A4                     ** function [41] definition (level 2)
                         ** start of function **
68A4  00                 string size (0)
                         source name: (none)
68A6  06                 line defined (884)
68A7  F6                 last line defined (886)
68A8  06                 nups (1)
68A9  01                 numparams (0)
68AA  00                 is_vararg (0)
68AB  00                 maxstacksize (2)
                         * code:
68AD  03                 sizecode (3)
68AE  17008000           [1] loadbool   0   1   0    ; true
fail op	8
68B2  08000000           [2] setupval   0   0      
68B6  1E008000           [3] return     0   1      
                         * constants:
68BA  00                 sizek (0)
                         * functions:
68BB  00                 sizep (0)
                         * lines:
68BC  03                 sizelineinfo (3)
                         [pc] (line)
68BD  75                 [1] (117)
68BE  03                 [2] (117)
68BF  00                 [3] (118)
                         * locals:
68C9  00                 sizelocvars (0)
                         * upvalues:
68CA  00                 sizeupvalues (0)
                         ** end of function **

                         
68CB                     ** function [42] definition (level 2)
                         ** start of function **
68CB  00                 string size (0)
                         source name: (none)
68CD  06                 line defined (888)
68CE  FA                 last line defined (890)
68CF  06                 nups (1)
68D0  01                 numparams (0)
68D1  00                 is_vararg (0)
68D2  00                 maxstacksize (2)
                         * code:
68D4  03                 sizecode (3)
68D5  13000000           [1] getupval   0   0      
68D9  22408000           [2] call       0   1   1  
68DD  1E008000           [3] return     0   1      
                         * constants:
68E1  00                 sizek (0)
                         * functions:
68E2  00                 sizep (0)
                         * lines:
68E3  03                 sizelineinfo (3)
                         [pc] (line)
68E4  79                 [1] (121)
68E5  03                 [2] (121)
68E6  00                 [3] (122)
                         * locals:
68F0  00                 sizelocvars (0)
                         * upvalues:
68F1  00                 sizeupvalues (0)
                         ** end of function **

                         
68F2                     ** function [43] definition (level 2)
                         ** start of function **
68F2  00                 string size (0)
                         source name: (none)
68F4  06                 line defined (892)
68F5  81                 last line defined (897)
68F6  07                 nups (2)
68F7  02                 numparams (0)
68F8  00                 is_vararg (0)
68F9  00                 maxstacksize (2)
                         * code:
68FB  0C                 sizecode (12)
68FC  13000000           [01] getupval   0   0      
6900  18400000           [02] test       0       1    ; to [4] if false
6904  1A400180           [03] jmp        6            ; to [10]
6908  1D000000           [04] getglobal  0   0        ; _T
690C  0E404000           [05] gettable   0   0   257  ; "DecoTemplatePreviewOpen"
6910  18000000           [06] test       0       0    ; to [8] if true
6914  1A400080           [07] jmp        2            ; to [10]
6918  13008000           [08] getupval   0   1      
691C  22408000           [09] call       0   1   1  
6920  17000000           [10] loadbool   0   0   0    ; false
6924  1E000001           [11] return     0   2      
6928  1E008000           [12] return     0   1      
                         * constants:
692C  02                 sizek (2)
692D  04                 const type 4
692E  03                 string size (3)
692F  5F5400             "_T\0"
                         const [0]: "_T"
6932  04                 const type 4
6933  18                 string size (24)
6934  4465636F54656D70+  "DecoTemp"
693C  6C61746550726576+  "latePrev"
6944  6965774F70656E00   "iewOpen\0"
                         const [1]: "DecoTemplatePreviewOpen"
                         * functions:
694C  00                 sizep (0)
                         * lines:
694D  0C                 sizelineinfo (12)
                         [pc] (line)
694E  7D                 [01] (125)
694F  03                 [02] (125)
6950  00                 [03] (125)
6951  00                 [04] (125)
6952  7D                 [05] (125)
6953  03                 [06] (125)
6954  00                 [07] (125)
6955  00                 [08] (126)
6956  7D                 [09] (126)
6957  03                 [10] (-128)
6958  00                 [11] (-128)
6959  00                 [12] (-127)
                         * locals:
697E  00                 sizelocvars (0)
                         * upvalues:
697F  00                 sizeupvalues (0)
                         ** end of function **

                         
6980                     ** function [44] definition (level 2)
                         ** start of function **
6980  00                 string size (0)
                         source name: (none)
6982  07                 line defined (900)
6983  88                 last line defined (904)
6984  07                 nups (3)
6985  03                 numparams (0)
6986  00                 is_vararg (0)
6987  00                 maxstacksize (2)
                         * code:
6989  09                 sizecode (9)
698A  13000000           [1] getupval   0   0      
698E  18400000           [2] test       0       1    ; to [4] if false
6992  1A000180           [3] jmp        5            ; to [9]
6996  13008000           [4] getupval   0   1      
699A  18000000           [5] test       0       0    ; to [7] if true
699E  1A400080           [6] jmp        2            ; to [9]
69A2  13000001           [7] getupval   0   2      
69A6  22408000           [8] call       0   1   1  
69AA  1E008000           [9] return     0   1      
                         * constants:
69AE  00                 sizek (0)
                         * functions:
69AF  00                 sizep (0)
                         * lines:
69B0  09                 sizelineinfo (9)
                         [pc] (line)
69B1  85                 [1] (-123)
69B2  03                 [2] (-123)
69B3  00                 [3] (-123)
69B4  00                 [4] (-123)
69B5  85                 [5] (-123)
69B6  03                 [6] (-123)
69B7  00                 [7] (-122)
69B8  00                 [8] (-122)
69B9  85                 [9] (-120)
                         * locals:
69D5  00                 sizelocvars (0)
                         * upvalues:
69D6  00                 sizeupvalues (0)
                         ** end of function **

                         
69D7                     ** function [45] definition (level 2)
                         ** start of function **
69D7  00                 string size (0)
                         source name: (none)
69D9  07                 line defined (906)
69DA  90                 last line defined (912)
69DB  07                 nups (2)
69DC  02                 numparams (2)
69DD  02                 is_vararg (0)
69DE  00                 maxstacksize (6)
                         * code:
69E0  0D                 sizecode (13)
69E1  93000000           [01] getupval   2   0      
69E5  A2408000           [02] call       2   1   1  
69E9  9D000000           [03] getglobal  2   0        ; 1074689893
69ED  D3008000           [04] getupval   3   1      
69F1  A2800001           [05] call       2   2   2  
69F5  98400000           [06] test       2       1    ; to [8] if false
69F9  1A000180           [07] jmp        5            ; to [13]
69FD  93008000           [08] getupval   2   1      
6A01  A4404001           [09] self       2   2   257  ; -1938777623
6A05  12010000           [10] move       4   0      
6A09  52018000           [11] move       5   1      
6A0D  A2400002           [12] call       2   4   1  
6A11  1E008000           [13] return     0   1      
                         * constants:
6A15  02                 sizek (2)
6A16  01                 const type 3
6A17  65770E40           const [0]: (1074689893)
6A1B  01                 const type 3
6A1C  E999708C           const [1]: (-1938777623)
                         * functions:
6A20  00                 sizep (0)
                         * lines:
6A21  0D                 sizelineinfo (13)
                         [pc] (line)
6A22  8B                 [01] (-117)
6A23  03                 [02] (-117)
6A24  00                 [03] (-115)
6A25  00                 [04] (-115)
6A26  8B                 [05] (-115)
6A27  03                 [06] (-115)
6A28  00                 [07] (-115)
6A29  00                 [08] (-114)
6A2A  8D                 [09] (-114)
6A2B  03                 [10] (-114)
6A2C  00                 [11] (-114)
6A2D  00                 [12] (-114)
6A2E  8D                 [13] (-112)
                         * locals:
6A56  00                 sizelocvars (0)
                         * upvalues:
6A57  00                 sizeupvalues (0)
                         ** end of function **

                         
6A58                     ** function [46] definition (level 2)
                         ** start of function **
6A58  00                 string size (0)
                         source name: (none)
6A5A  07                 line defined (916)
6A5B  96                 last line defined (918)
6A5C  07                 nups (1)
6A5D  01                 numparams (0)
6A5E  00                 is_vararg (0)
6A5F  00                 maxstacksize (2)
                         * code:
6A61  06                 sizecode (6)
6A62  13000000           [1] getupval   0   0      
6A66  0E004000           [2] gettable   0   0   256  ; 630793108
6A6A  5D400000           [3] getglobal  1   1        ; _G
6A6E  4E80C000           [4] gettable   1   1   258  ; "UISound_Focus"
6A72  22400001           [5] call       0   2   1  
6A76  1E008000           [6] return     0   1      
                         * constants:
6A7A  03                 sizek (3)
6A7B  01                 const type 3
6A7C  94239925           const [0]: (630793108)
6A80  04                 const type 4
6A81  03                 string size (3)
6A82  5F4700             "_G\0"
                         const [1]: "_G"
6A85  04                 const type 4
6A86  0E                 string size (14)
6A87  5549536F756E645F+  "UISound_"
6A8F  466F63757300       "Focus\0"
                         const [2]: "UISound_Focus"
                         * functions:
6A95  00                 sizep (0)
                         * lines:
6A96  06                 sizelineinfo (6)
                         [pc] (line)
6A97  95                 [1] (-107)
6A98  03                 [2] (-107)
6A99  00                 [3] (-107)
6A9A  00                 [4] (-107)
6A9B  95                 [5] (-107)
6A9C  03                 [6] (-106)
                         * locals:
6AAF  00                 sizelocvars (0)
                         * upvalues:
6AB0  00                 sizeupvalues (0)
                         ** end of function **

                         
6AB1                     ** function [47] definition (level 2)
                         ** start of function **
6AB1  00                 string size (0)
                         source name: (none)
6AB3  07                 line defined (921)
6AB4  9D                 last line defined (925)
6AB5  07                 nups (1)
6AB6  01                 numparams (1)
6AB7  01                 is_vararg (0)
6AB8  00                 maxstacksize (5)
                         * code:
6ABA  0C                 sizecode (12)
6ABB  5D000000           [01] getglobal  1   0        ; 1074689893
6ABF  93000000           [02] getupval   2   0      
6AC3  62800001           [03] call       1   2   2  
6AC7  58400000           [04] test       1       1    ; to [6] if false
6ACB  1A400180           [05] jmp        6            ; to [12]
6ACF  53000000           [06] getupval   1   0      
6AD3  6440C000           [07] self       1   1   257  ; -1967297336
6AD7  DD800000           [08] getglobal  3   2        ; -174740002
6ADB  12010000           [09] move       4   0      
6ADF  E2000001           [10] call       3   2   0  
6AE3  62400000           [11] call       1   0   1  
6AE7  1E008000           [12] return     0   1      
                         * constants:
6AEB  03                 sizek (3)
6AEC  01                 const type 3
6AED  65770E40           const [0]: (1074689893)
6AF1  01                 const type 3
6AF2  C86CBD8A           const [1]: (-1967297336)
6AF6  01                 const type 3
6AF7  DEAD95F5           const [2]: (-174740002)
                         * functions:
6AFB  00                 sizep (0)
                         * lines:
6AFC  0C                 sizelineinfo (12)
                         [pc] (line)
6AFD  9A                 [01] (-102)
6AFE  03                 [02] (-102)
6AFF  00                 [03] (-102)
6B00  00                 [04] (-102)
6B01  9A                 [05] (-102)
6B02  03                 [06] (-101)
6B03  00                 [07] (-101)
6B04  00                 [08] (-101)
6B05  9A                 [09] (-101)
6B06  03                 [10] (-101)
6B07  00                 [11] (-101)
6B08  00                 [12] (-99)
                         * locals:
6B2D  00                 sizelocvars (0)
                         * upvalues:
6B2E  00                 sizeupvalues (0)
                         ** end of function **

                         
6B2F                     ** function [48] definition (level 2)
                         ** start of function **
6B2F  00                 string size (0)
                         source name: (none)
6B31  07                 line defined (927)
6B32  A3                 last line defined (931)
6B33  07                 nups (1)
6B34  01                 numparams (1)
6B35  01                 is_vararg (0)
6B36  00                 maxstacksize (5)
                         * code:
6B38  0C                 sizecode (12)
6B39  5D000000           [01] getglobal  1   0        ; 1074689893
6B3D  93000000           [02] getupval   2   0      
6B41  62800001           [03] call       1   2   2  
6B45  58400000           [04] test       1       1    ; to [6] if false
6B49  1A400180           [05] jmp        6            ; to [12]
6B4D  53000000           [06] getupval   1   0      
6B51  6440C000           [07] self       1   1   257  ; 561426718
6B55  DD800000           [08] getglobal  3   2        ; -174740002
6B59  12010000           [09] move       4   0      
6B5D  E2000001           [10] call       3   2   0  
6B61  62400000           [11] call       1   0   1  
6B65  1E008000           [12] return     0   1      
                         * constants:
6B69  03                 sizek (3)
6B6A  01                 const type 3
6B6B  65770E40           const [0]: (1074689893)
6B6F  01                 const type 3
6B70  1EB17621           const [1]: (561426718)
6B74  01                 const type 3
6B75  DEAD95F5           const [2]: (-174740002)
                         * functions:
6B79  00                 sizep (0)
                         * lines:
6B7A  0C                 sizelineinfo (12)
                         [pc] (line)
6B7B  A0                 [01] (-96)
6B7C  03                 [02] (-96)
6B7D  00                 [03] (-96)
6B7E  00                 [04] (-96)
6B7F  A0                 [05] (-96)
6B80  03                 [06] (-95)
6B81  00                 [07] (-95)
6B82  00                 [08] (-95)
6B83  A0                 [09] (-95)
6B84  03                 [10] (-95)
6B85  00                 [11] (-95)
6B86  00                 [12] (-93)
                         * locals:
6BAB  00                 sizelocvars (0)
                         * upvalues:
6BAC  00                 sizeupvalues (0)
                         ** end of function **

                         
6BAD                     ** function [49] definition (level 2)
                         ** start of function **
6BAD  00                 string size (0)
                         source name: (none)
6BAF  07                 line defined (933)
6BB0  A9                 last line defined (937)
6BB1  07                 nups (2)
6BB2  02                 numparams (1)
6BB3  01                 is_vararg (0)
6BB4  00                 maxstacksize (5)
                         * code:
6BB6  10                 sizecode (16)
6BB7  53000000           [01] getupval   1   0      
6BBB  58400000           [02] test       1       1    ; to [4] if false
6BBF  1AC00280           [03] jmp        12           ; to [16]
6BC3  5D000000           [04] getglobal  1   0        ; 1074689893
6BC7  93008000           [05] getupval   2   1      
6BCB  62800001           [06] call       1   2   2  
6BCF  58400000           [07] test       1       1    ; to [9] if false
6BD3  1A800180           [08] jmp        7            ; to [16]
6BD7  53008000           [09] getupval   1   1      
6BDB  6440C000           [10] self       1   1   257  ; 1002639746
6BDF  DD800000           [11] getglobal  3   2        ; -174740002
6BE3  12010000           [12] move       4   0      
6BE7  E2800001           [13] call       3   2   2  
6BEB  17018000           [14] loadbool   4   1   0    ; true
6BEF  62400002           [15] call       1   4   1  
6BF3  1E008000           [16] return     0   1      
                         * constants:
6BF7  03                 sizek (3)
6BF8  01                 const type 3
6BF9  65770E40           const [0]: (1074689893)
6BFD  01                 const type 3
6BFE  8211C33B           const [1]: (1002639746)
6C02  01                 const type 3
6C03  DEAD95F5           const [2]: (-174740002)
                         * functions:
6C07  00                 sizep (0)
                         * lines:
6C08  10                 sizelineinfo (16)
                         [pc] (line)
6C09  A6                 [01] (-90)
6C0A  03                 [02] (-90)
6C0B  00                 [03] (-90)
6C0C  00                 [04] (-90)
6C0D  A6                 [05] (-90)
6C0E  03                 [06] (-90)
6C0F  00                 [07] (-90)
6C10  00                 [08] (-90)
6C11  A6                 [09] (-89)
6C12  03                 [10] (-89)
6C13  00                 [11] (-89)
6C14  00                 [12] (-89)
6C15  A6                 [13] (-89)
6C16  03                 [14] (-89)
6C17  00                 [15] (-89)
6C18  00                 [16] (-87)
                         * locals:
6C49  00                 sizelocvars (0)
                         * upvalues:
6C4A  00                 sizeupvalues (0)
                         ** end of function **

                         
6C4B                     ** function [50] definition (level 2)
                         ** start of function **
6C4B  00                 string size (0)
                         source name: (none)
6C4D  07                 line defined (939)
6C4E  AF                 last line defined (943)
6C4F  07                 nups (2)
6C50  02                 numparams (1)
6C51  01                 is_vararg (0)
6C52  00                 maxstacksize (5)
                         * code:
6C54  0F                 sizecode (15)
6C55  53000000           [01] getupval   1   0      
6C59  58400000           [02] test       1       1    ; to [4] if false
6C5D  1A800280           [03] jmp        11           ; to [15]
6C61  5D000000           [04] getglobal  1   0        ; 1074689893
6C65  93008000           [05] getupval   2   1      
6C69  62800001           [06] call       1   2   2  
6C6D  58400000           [07] test       1       1    ; to [9] if false
6C71  1A400180           [08] jmp        6            ; to [15]
6C75  53008000           [09] getupval   1   1      
6C79  6440C000           [10] self       1   1   257  ; 146425179
6C7D  DD800000           [11] getglobal  3   2        ; -174740002
6C81  12010000           [12] move       4   0      
6C85  E2000001           [13] call       3   2   0  
6C89  62400000           [14] call       1   0   1  
6C8D  1E008000           [15] return     0   1      
                         * constants:
6C91  03                 sizek (3)
6C92  01                 const type 3
6C93  65770E40           const [0]: (1074689893)
6C97  01                 const type 3
6C98  5B45BA08           const [1]: (146425179)
6C9C  01                 const type 3
6C9D  DEAD95F5           const [2]: (-174740002)
                         * functions:
6CA1  00                 sizep (0)
                         * lines:
6CA2  0F                 sizelineinfo (15)
                         [pc] (line)
6CA3  AC                 [01] (-84)
6CA4  03                 [02] (-84)
6CA5  00                 [03] (-84)
6CA6  00                 [04] (-84)
6CA7  AC                 [05] (-84)
6CA8  03                 [06] (-84)
6CA9  00                 [07] (-84)
6CAA  00                 [08] (-84)
6CAB  AC                 [09] (-83)
6CAC  03                 [10] (-83)
6CAD  00                 [11] (-83)
6CAE  00                 [12] (-83)
6CAF  AC                 [13] (-83)
6CB0  03                 [14] (-83)
6CB1  00                 [15] (-81)
                         * locals:
6CDF  00                 sizelocvars (0)
                         * upvalues:
6CE0  00                 sizeupvalues (0)
                         ** end of function **

                         
6CE1                     ** function [51] definition (level 2)
                         ** start of function **
6CE1  00                 string size (0)
                         source name: (none)
6CE3  07                 line defined (945)
6CE4  B8                 last line defined (952)
6CE5  07                 nups (2)
6CE6  02                 numparams (2)
6CE7  02                 is_vararg (0)
6CE8  00                 maxstacksize (7)
                         * code:
6CEA  15                 sizecode (21)
6CEB  93000000           [01] getupval   2   0      
fail op	35
6CEF  63004001           [02] close      1  
6CF3  1A000480           [03] jmp        17           ; to [21]
6CF7  93000000           [04] getupval   2   0      
6CFB  8E404001           [05] gettable   2   2   257  ; "mScrollBar"
6CFF  D3008000           [06] getupval   3   1      
6D03  D8400000           [07] test       3       1    ; to [9] if false
6D07  1AC00280           [08] jmp        12           ; to [21]
6D0B  DD800000           [09] getglobal  3   2        ; 1074689893
6D0F  12010001           [10] move       4   2      
6D13  E2800001           [11] call       3   2   2  
6D17  D8400000           [12] test       3       1    ; to [14] if false
6D1B  1A800180           [13] jmp        7            ; to [21]
6D1F  E4C04001           [14] self       3   2   259  ; -1622081655
6D23  5D010100           [15] getglobal  5   4        ; -174740002
6D27  92018000           [16] move       6   1      
6D2B  62810001           [17] call       5   2   2  
6D2F  9D410100           [18] getglobal  6   5        ; _G
6D33  8E814103           [19] gettable   6   6   262  ; "UISound_Scroll"
6D37  E2400002           [20] call       3   4   1  
6D3B  1E008000           [21] return     0   1      
                         * constants:
6D3F  07                 sizek (7)
6D40  00                 const type 0
                         const [0]: nil
6D41  04                 const type 4
6D42  0B                 string size (11)
6D43  6D5363726F6C6C42+  "mScrollB"
6D4B  617200             "ar\0"
                         const [1]: "mScrollBar"
6D4E  01                 const type 3
6D4F  65770E40           const [2]: (1074689893)
6D53  01                 const type 3
6D54  89FF509F           const [3]: (-1622081655)
6D58  01                 const type 3
6D59  DEAD95F5           const [4]: (-174740002)
6D5D  04                 const type 4
6D5E  03                 string size (3)
6D5F  5F4700             "_G\0"
                         const [5]: "_G"
6D62  04                 const type 4
6D63  0F                 string size (15)
6D64  5549536F756E645F+  "UISound_"
6D6C  5363726F6C6C00     "Scroll\0"
                         const [6]: "UISound_Scroll"
                         * functions:
6D73  00                 sizep (0)
                         * lines:
6D74  15                 sizelineinfo (21)
                         [pc] (line)
6D75  B2                 [01] (-78)
6D76  03                 [02] (-78)
6D77  00                 [03] (-78)
6D78  00                 [04] (-77)
6D79  B2                 [05] (-77)
6D7A  03                 [06] (-76)
6D7B  00                 [07] (-76)
6D7C  00                 [08] (-76)
6D7D  B2                 [09] (-76)
6D7E  03                 [10] (-76)
6D7F  00                 [11] (-76)
6D80  00                 [12] (-76)
6D81  B3                 [13] (-76)
6D82  03                 [14] (-75)
6D83  00                 [15] (-75)
6D84  00                 [16] (-75)
6D85  B3                 [17] (-75)
6D86  03                 [18] (-75)
6D87  00                 [19] (-75)
6D88  00                 [20] (-75)
6D89  B4                 [21] (-72)
                         * locals:
6DC9  00                 sizelocvars (0)
                         * upvalues:
6DCA  00                 sizeupvalues (0)
                         ** end of function **

                         
6DCB                     ** function [52] definition (level 2)
                         ** start of function **
6DCB  00                 string size (0)
                         source name: (none)
6DCD  07                 line defined (954)
6DCE  BD                 last line defined (957)
6DCF  07                 nups (2)
6DD0  02                 numparams (1)
6DD1  01                 is_vararg (0)
6DD2  00                 maxstacksize (2)
                         * code:
6DD4  08                 sizecode (8)
fail op	35
6DD5  63004000           [1] close      1  
6DD9  1A000080           [2] jmp        1            ; to [4]
6DDD  57400000           [3] loadbool   1   0   1    ; false, to [5]
6DE1  57008000           [4] loadbool   1   1   0    ; true
fail op	8
6DE5  48000000           [5] setupval   1   0      
6DE9  53008000           [6] getupval   1   1      
6DED  62408000           [7] call       1   1   1  
6DF1  1E008000           [8] return     0   1      
                         * constants:
6DF5  01                 sizek (1)
6DF6  04                 const type 4
6DF7  05                 string size (5)
6DF8  7472756500         "true\0"
                         const [0]: "true"
                         * functions:
6DFD  00                 sizep (0)
                         * lines:
6DFE  08                 sizelineinfo (8)
                         [pc] (line)
6DFF  BB                 [1] (-69)
6E00  03                 [2] (-69)
6E01  00                 [3] (-69)
6E02  00                 [4] (-69)
6E03  BB                 [5] (-69)
6E04  03                 [6] (-68)
6E05  00                 [7] (-68)
6E06  00                 [8] (-67)
                         * locals:
6E1F  00                 sizelocvars (0)
                         * upvalues:
6E20  00                 sizeupvalues (0)
                         ** end of function **

                         
6E21                     ** function [53] definition (level 2)
                         ** start of function **
6E21  00                 string size (0)
                         source name: (none)
6E23  07                 line defined (959)
6E24  C1                 last line defined (961)
6E25  07                 nups (1)
6E26  01                 numparams (1)
6E27  01                 is_vararg (0)
6E28  00                 maxstacksize (2)
                         * code:
6E2A  02                 sizecode (2)
fail op	8
6E2B  08000000           [1] setupval   0   0      
6E2F  1E008000           [2] return     0   1      
                         * constants:
6E33  00                 sizek (0)
                         * functions:
6E34  00                 sizep (0)
                         * lines:
6E35  02                 sizelineinfo (2)
                         [pc] (line)
6E36  C0                 [1] (-64)
6E37  03                 [2] (-63)
                         * locals:
6E3E  00                 sizelocvars (0)
                         * upvalues:
6E3F  00                 sizeupvalues (0)
                         ** end of function **

                         
6E40                     ** function [54] definition (level 2)
                         ** start of function **
6E40  00                 string size (0)
                         source name: (none)
6E42  07                 line defined (963)
6E43  C5                 last line defined (965)
6E44  07                 nups (1)
6E45  01                 numparams (1)
6E46  01                 is_vararg (0)
6E47  00                 maxstacksize (2)
                         * code:
6E49  02                 sizecode (2)
fail op	8
6E4A  08000000           [1] setupval   0   0      
6E4E  1E008000           [2] return     0   1      
                         * constants:
6E52  00                 sizek (0)
                         * functions:
6E53  00                 sizep (0)
                         * lines:
6E54  02                 sizelineinfo (2)
                         [pc] (line)
6E55  C4                 [1] (-60)
6E56  03                 [2] (-59)
                         * locals:
6E5D  00                 sizelocvars (0)
                         * upvalues:
6E5E  00                 sizeupvalues (0)
                         ** end of function **

                         
6E5F                     ** function [55] definition (level 2)
                         ** start of function **
6E5F  00                 string size (0)
                         source name: (none)
6E61  07                 line defined (967)
6E62  C9                 last line defined (969)
6E63  07                 nups (1)
6E64  01                 numparams (1)
6E65  01                 is_vararg (0)
6E66  00                 maxstacksize (2)
                         * code:
6E68  02                 sizecode (2)
fail op	8
6E69  08000000           [1] setupval   0   0      
6E6D  1E008000           [2] return     0   1      
                         * constants:
6E71  00                 sizek (0)
                         * functions:
6E72  00                 sizep (0)
                         * lines:
6E73  02                 sizelineinfo (2)
                         [pc] (line)
6E74  C8                 [1] (-56)
6E75  03                 [2] (-55)
                         * locals:
6E7C  00                 sizelocvars (0)
                         * upvalues:
6E7D  00                 sizeupvalues (0)
                         ** end of function **

                         
6E7E                     ** function [56] definition (level 2)
                         ** start of function **
6E7E  00                 string size (0)
                         source name: (none)
6E80  07                 line defined (971)
6E81  CD                 last line defined (973)
6E82  07                 nups (1)
6E83  01                 numparams (1)
6E84  01                 is_vararg (0)
6E85  00                 maxstacksize (2)
                         * code:
6E87  02                 sizecode (2)
fail op	8
6E88  08000000           [1] setupval   0   0      
6E8C  1E008000           [2] return     0   1      
                         * constants:
6E90  00                 sizek (0)
                         * functions:
6E91  00                 sizep (0)
                         * lines:
6E92  02                 sizelineinfo (2)
                         [pc] (line)
6E93  CC                 [1] (-52)
6E94  03                 [2] (-51)
                         * locals:
6E9B  00                 sizelocvars (0)
                         * upvalues:
6E9C  00                 sizeupvalues (0)
                         ** end of function **

                         
6E9D                     ** function [57] definition (level 2)
                         ** start of function **
6E9D  00                 string size (0)
                         source name: (none)
6E9F  07                 line defined (975)
6EA0  D1                 last line defined (977)
6EA1  07                 nups (1)
6EA2  01                 numparams (1)
6EA3  01                 is_vararg (0)
6EA4  00                 maxstacksize (2)
                         * code:
6EA6  02                 sizecode (2)
fail op	8
6EA7  08000000           [1] setupval   0   0      
6EAB  1E008000           [2] return     0   1      
                         * constants:
6EAF  00                 sizek (0)
                         * functions:
6EB0  00                 sizep (0)
                         * lines:
6EB1  02                 sizelineinfo (2)
                         [pc] (line)
6EB2  D0                 [1] (-48)
6EB3  03                 [2] (-47)
                         * locals:
6EBA  00                 sizelocvars (0)
                         * upvalues:
6EBB  00                 sizeupvalues (0)
                         ** end of function **

                         
6EBC                     ** function [58] definition (level 2)
                         ** start of function **
6EBC  00                 string size (0)
                         source name: (none)
6EBE  07                 line defined (979)
6EBF  D5                 last line defined (981)
6EC0  07                 nups (0)
6EC1  00                 numparams (1)
6EC2  01                 is_vararg (0)
6EC3  00                 maxstacksize (5)
                         * code:
6EC5  06                 sizecode (6)
6EC6  5D000000           [1] getglobal  1   0        ; mMovie
6ECA  6440C000           [2] self       1   1   257  ; 386043535
6ECE  D9800000           [3] loadk      3   2        ; "Title.text"
6ED2  12010000           [4] move       4   0      
6ED6  62400002           [5] call       1   4   1  
6EDA  1E008000           [6] return     0   1      
                         * constants:
6EDE  03                 sizek (3)
6EDF  04                 const type 4
6EE0  07                 string size (7)
6EE1  6D4D6F76696500     "mMovie\0"
                         const [0]: "mMovie"
6EE8  01                 const type 3
6EE9  8F8E0217           const [1]: (386043535)
6EED  04                 const type 4
6EEE  0B                 string size (11)
6EEF  5469746C652E7465+  "Title.te"
6EF7  787400             "xt\0"
                         const [2]: "Title.text"
                         * functions:
6EFA  00                 sizep (0)
                         * lines:
6EFB  06                 sizelineinfo (6)
                         [pc] (line)
6EFC  D4                 [1] (-44)
6EFD  03                 [2] (-44)
6EFE  00                 [3] (-44)
6EFF  00                 [4] (-44)
6F00  D4                 [5] (-44)
6F01  03                 [6] (-43)
                         * locals:
6F14  00                 sizelocvars (0)
                         * upvalues:
6F15  00                 sizeupvalues (0)
                         ** end of function **

                         * lines:
6F17  02                 sizelineinfo (344)
                         [pc] (line)
6F18  04                 [001] (4)
6F19  00                 [002] (5)
6F1A  00                 [003] (6)
6F1B  00                 [004] (7)
6F1C  05                 [005] (9)
6F1D  00                 [006] (9)
6F1E  00                 [007] (9)
6F1F  00                 [008] (10)
6F20  06                 [009] (10)
6F21  00                 [010] (10)
6F22  00                 [011] (12)
6F23  00                 [012] (12)
6F24  07                 [013] (12)
6F25  00                 [014] (13)
6F26  00                 [015] (13)
6F27  00                 [016] (13)
6F28  09                 [017] (14)
6F29  00                 [018] (14)
6F2A  00                 [019] (14)
6F2B  00                 [020] (15)
6F2C  09                 [021] (15)
6F2D  00                 [022] (15)
6F2E  00                 [023] (17)
6F2F  00                 [024] (17)
6F30  09                 [025] (17)
6F31  00                 [026] (20)
6F32  00                 [027] (22)
6F33  00                 [028] (23)
6F34  0A                 [029] (25)
6F35  00                 [030] (26)
6F36  00                 [031] (27)
6F37  00                 [032] (28)
6F38  0A                 [033] (30)
6F39  00                 [034] (32)
6F3A  00                 [035] (33)
6F3B  00                 [036] (34)
6F3C  0A                 [037] (35)
6F3D  00                 [038] (45)
6F3E  00                 [039] (45)
6F3F  00                 [040] (45)
6F40  0C                 [041] (46)
6F41  00                 [042] (48)
6F42  00                 [043] (48)
6F43  00                 [044] (48)
6F44  0C                 [045] (49)
6F45  00                 [046] (49)
6F46  00                 [047] (49)
6F47  00                 [048] (53)
6F48  0C                 [049] (53)
6F49  00                 [050] (53)
6F4A  00                 [051] (51)
6F4B  00                 [052] (63)
6F4C  0D                 [053] (63)
6F4D  00                 [054] (63)
6F4E  00                 [055] (69)
6F4F  00                 [056] (69)
6F50  0D                 [057] (117)
6F51  00                 [058] (117)
6F52  00                 [059] (117)
6F53  00                 [060] (117)
6F54  0D                 [061] (117)
6F55  00                 [062] (123)
6F56  00                 [063] (-99)
6F57  00                 [064] (-99)
6F58  0E                 [065] (-99)
6F59  00                 [066] (-92)
6F5A  00                 [067] (-65)
6F5B  00                 [068] (-65)
6F5C  0E                 [069] (-65)
6F5D  00                 [070] (-65)
6F5E  00                 [071] (-45)
6F5F  00                 [072] (-45)
6F60  0E                 [073] (-45)
6F61  00                 [074] (-45)
6F62  00                 [075] (-45)
6F63  00                 [076] (-18)
6F64  0F                 [077] (-18)
6F65  00                 [078] (-18)
6F66  00                 [079] (6)
6F67  00                 [080] (6)
6F68  0F                 [081] (6)
6F69  00                 [082] (6)
6F6A  00                 [083] (6)
6F6B  00                 [084] (6)
6F6C  0F                 [085] (6)
6F6D  00                 [086] (6)
6F6E  00                 [087] (22)
6F6F  00                 [088] (22)
6F70  11                 [089] (22)
6F71  00                 [090] (22)
6F72  00                 [091] (22)
6F73  00                 [092] (22)
6F74  11                 [093] (22)
6F75  00                 [094] (28)
6F76  00                 [095] (28)
6F77  00                 [096] (28)
6F78  11                 [097] (28)
6F79  00                 [098] (24)
6F7A  00                 [099] (55)
6F7B  00                 [100] (55)
6F7C  14                 [101] (55)
6F7D  00                 [102] (55)
6F7E  00                 [103] (55)
6F7F  00                 [104] (55)
6F80  16                 [105] (55)
6F81  00                 [106] (55)
6F82  00                 [107] (55)
6F83  00                 [108] (55)
6F84  17                 [109] (55)
6F85  00                 [110] (60)
6F86  00                 [111] (60)
6F87  00                 [112] (57)
6F88  19                 [113] (77)
6F89  00                 [114] (77)
6F8A  00                 [115] (77)
6F8B  00                 [116] (77)
6F8C  1A                 [117] (77)
6F8D  00                 [118] (77)
6F8E  00                 [119] (77)
6F8F  00                 [120] (77)
6F90  1B                 [121] (81)
6F91  00                 [122] (81)
6F92  00                 [123] (81)
6F93  00                 [124] (79)
6F94  1C                 [125] (92)
6F95  00                 [126] (92)
6F96  00                 [127] (92)
6F97  00                 [128] (92)
6F98  1E                 [129] (92)
6F99  00                 [130] (96)
6F9A  00                 [131] (96)
6F9B  00                 [132] (120)
6F9C  20                 [133] (120)
6F9D  00                 [134] (120)
6F9E  00                 [135] (120)
6F9F  00                 [136] (120)
6FA0  21                 [137] (120)
6FA1  00                 [138] (120)
6FA2  00                 [139] (-88)
6FA3  00                 [140] (-88)
6FA4  22                 [141] (-88)
6FA5  00                 [142] (-88)
6FA6  00                 [143] (-88)
6FA7  00                 [144] (-88)
6FA8  23                 [145] (-88)
6FA9  00                 [146] (-64)
6FAA  00                 [147] (-64)
6FAB  00                 [148] (-64)
6FAC  2D                 [149] (-64)
6FAD  00                 [150] (-64)
6FAE  00                 [151] (-64)
6FAF  00                 [152] (-86)
6FB0  2D                 [153] (-47)
6FB1  00                 [154] (-47)
6FB2  00                 [155] (-47)
6FB3  00                 [156] (-47)
6FB4  2D                 [157] (-47)
6FB5  00                 [158] (-47)
6FB6  00                 [159] (-62)
6FB7  00                 [160] (-26)
6FB8  2E                 [161] (-26)
6FB9  00                 [162] (-26)
6FBA  00                 [163] (-26)
6FBB  00                 [164] (-26)
6FBC  30                 [165] (-26)
6FBD  00                 [166] (-26)
6FBE  00                 [167] (-45)
6FBF  00                 [168] (-20)
6FC0  30                 [169] (-20)
6FC1  00                 [170] (-20)
6FC2  00                 [171] (-24)
6FC3  00                 [172] (1)
6FC4  30                 [173] (1)
6FC5  00                 [174] (1)
6FC6  00                 [175] (1)
6FC7  00                 [176] (1)
6FC8  31                 [177] (1)
6FC9  00                 [178] (1)
6FCA  00                 [179] (-18)
6FCB  00                 [180] (34)
6FCC  31                 [181] (34)
6FCD  00                 [182] (48)
6FCE  00                 [183] (48)
6FCF  00                 [184] (54)
6FD0  31                 [185] (54)
6FD1  00                 [186] (54)
6FD2  00                 [187] (50)
6FD3  00                 [188] (60)
6FD4  35                 [189] (60)
6FD5  00                 [190] (60)
6FD6  00                 [191] (56)
6FD7  00                 [192] (87)
6FD8  35                 [193] (87)
6FD9  00                 [194] (87)
6FDA  00                 [195] (87)
6FDB  00                 [196] (87)
6FDC  35                 [197] (87)
6FDD  00                 [198] (62)
6FDE  00                 [199] (94)
6FDF  00                 [200] (-93)
6FE0  33                 [201] (-93)
6FE1  00                 [202] (-93)
6FE2  00                 [203] (-93)
6FE3  00                 [204] (-93)
6FE4  3F                 [205] (-93)
6FE5  00                 [206] (-93)
6FE6  00                 [207] (-93)
6FE7  00                 [208] (-93)
6FE8  3F                 [209] (-93)
6FE9  00                 [210] (-87)
6FEA  00                 [211] (-87)
6FEB  00                 [212] (-87)
6FEC  3F                 [213] (-91)
6FED  00                 [214] (-81)
6FEE  00                 [215] (-81)
6FEF  00                 [216] (-81)
6FF0  45                 [217] (-85)
6FF1  00                 [218] (-75)
6FF2  00                 [219] (-75)
6FF3  00                 [220] (-75)
6FF4  45                 [221] (-75)
6FF5  00                 [222] (-79)
6FF6  00                 [223] (-44)
6FF7  00                 [224] (-44)
6FF8  75                 [225] (-44)
6FF9  00                 [226] (-44)
6FFA  00                 [227] (-44)
6FFB  00                 [228] (-44)
6FFC  75                 [229] (-44)
6FFD  00                 [230] (-44)
6FFE  00                 [231] (-44)
6FFF  00                 [232] (-44)
7000  75                 [233] (-44)
7001  00                 [234] (-73)
7002  00                 [235] (53)
7003  00                 [236] (53)
7004  75                 [237] (53)
7005  00                 [238] (53)
7006  00                 [239] (53)
7007  00                 [240] (53)
7008  75                 [241] (53)
7009  00                 [242] (57)
700A  00                 [243] (57)
700B  00                 [244] (57)
700C  7B                 [245] (55)
700D  00                 [246] (63)
700E  00                 [247] (63)
700F  00                 [248] (114)
7010  9D                 [249] (114)
7011  00                 [250] (114)
7012  00                 [251] (114)
7013  00                 [252] (114)
7014  9D                 [253] (114)
7015  00                 [254] (114)
7016  00                 [255] (114)
7017  00                 [256] (114)
7018  9D                 [257] (114)
7019  00                 [258] (114)
701A  00                 [259] (114)
701B  00                 [260] (114)
701C  A4                 [261] (114)
701D  00                 [262] (114)
701E  00                 [263] (114)
701F  00                 [264] (65)
7020  BF                 [265] (118)
7021  00                 [266] (118)
7022  00                 [267] (118)
7023  00                 [268] (116)
7024  BF                 [269] (122)
7025  00                 [270] (122)
7026  00                 [271] (122)
7027  00                 [272] (120)
7028  BF                 [273] (-127)
7029  00                 [274] (-127)
702A  00                 [275] (-127)
702B  00                 [276] (-127)
702C  BF                 [277] (124)
702D  00                 [278] (-120)
702E  00                 [279] (-120)
702F  00                 [280] (-120)
7030  D3                 [281] (-120)
7031  00                 [282] (-120)
7032  00                 [283] (-124)
7033  00                 [284] (-112)
7034  D3                 [285] (-112)
7035  00                 [286] (-112)
7036  00                 [287] (-112)
7037  00                 [288] (-118)
7038  D3                 [289] (-106)
7039  00                 [290] (-106)
703A  00                 [291] (-106)
703B  00                 [292] (-108)
703C  D3                 [293] (-99)
703D  00                 [294] (-99)
703E  00                 [295] (-99)
703F  00                 [296] (-103)
7040  D3                 [297] (-93)
7041  00                 [298] (-93)
7042  00                 [299] (-93)
7043  00                 [300] (-97)
7044  EE                 [301] (-87)
7045  00                 [302] (-87)
7046  00                 [303] (-87)
7047  00                 [304] (-87)
7048  EE                 [305] (-91)
7049  00                 [306] (-81)
704A  00                 [307] (-81)
704B  00                 [308] (-81)
704C  EE                 [309] (-81)
704D  00                 [310] (-85)
704E  00                 [311] (-72)
704F  00                 [312] (-72)
7050  06                 [313] (-72)
7051  01                 [314] (-72)
7052  00                 [315] (-79)
7053  00                 [316] (-67)
7054  06                 [317] (-67)
7055  01                 [318] (-67)
7056  00                 [319] (-67)
7057  00                 [320] (-70)
7058  06                 [321] (-63)
7059  01                 [322] (-63)
705A  00                 [323] (-63)
705B  00                 [324] (-65)
705C  06                 [325] (-59)
705D  01                 [326] (-59)
705E  00                 [327] (-59)
705F  00                 [328] (-61)
7060  06                 [329] (-55)
7061  01                 [330] (-55)
7062  00                 [331] (-55)
7063  00                 [332] (-57)
7064  06                 [333] (-51)
7065  01                 [334] (-51)
7066  00                 [335] (-51)
7067  00                 [336] (-53)
7068  06                 [337] (-47)
7069  01                 [338] (-47)
706A  00                 [339] (-47)
706B  00                 [340] (-49)
706C  06                 [341] (-43)
706D  01                 [342] (-43)
706E  00                 [343] (-45)
706F  00                 [344] (-43)
                         * locals:
7478  00                 sizelocvars (0)
                         * upvalues:
7479  00                 sizeupvalues (0)
                         ** end of function **

747A                     ** end of chunk **
